 S3Relay

 Timestamp is 507eb513 (Wed Oct 17 20:39:31 2012)

 Preferred load address is 00400000

 Start         Length     Name                   Class
 0001:00000000 000d4575H .text                   CODE
 0001:000d4580 000040a5H .text$x                 CODE
 0001:000d8630 00000376H .text$yc                CODE
 0001:000d89b0 0000032fH .text$yd                CODE
 0002:00000000 000002acH .idata$5                DATA
 0002:000002ac 00000004H .CRT$XCA                DATA
 0002:000002b0 00000070H .CRT$XCU                DATA
 0002:00000320 00000004H .CRT$XCZ                DATA
 0002:00000324 00000004H .CRT$XIA                DATA
 0002:00000328 00000014H .CRT$XIC                DATA
 0002:0000033c 00000004H .CRT$XIY                DATA
 0002:00000340 00000004H .CRT$XIZ                DATA
 0002:00000344 00000004H .CRT$XPA                DATA
 0002:00000348 00000004H .CRT$XPX                DATA
 0002:0000034c 00000004H .CRT$XPXA               DATA
 0002:00000350 00000004H .CRT$XPZ                DATA
 0002:00000354 00000004H .CRT$XTA                DATA
 0002:00000358 00000004H .CRT$XTZ                DATA
 0002:00000360 00006a04H .rdata                  DATA
 0002:00006d64 00000062H .rdata$debug            DATA
 0002:00006dc8 00001128H .rdata$r                DATA
 0002:00007ef0 00000004H .rtc$IAA                DATA
 0002:00007ef4 00000004H .rtc$IZZ                DATA
 0002:00007ef8 00000004H .rtc$TAA                DATA
 0002:00007efc 00000004H .rtc$TZZ                DATA
 0002:00007f00 00004f4cH .xdata$x                DATA
 0002:0000ce4c 00000064H .idata$2                DATA
 0002:0000ceb0 00000014H .idata$3                DATA
 0002:0000cec4 000002acH .idata$4                DATA
 0002:0000d170 00000c38H .idata$6                DATA
 0002:0000dda8 00000000H .edata                  DATA
 0003:00000000 00009de8H .data                   DATA
 0003:00009e00 0025aa88H .bss                    DATA
 0004:00000000 00000280H .rsrc$01                DATA
 0004:00000280 00000bc0H .rsrc$02                DATA

  Address         Publics by Value              Rva+Base       Lib:Object

 0000:00000000       ___safe_se_handler_table   00000000     <absolute>
 0000:00000000       __except_list              00000000     <absolute>
 0000:00000000       ___safe_se_handler_count   00000000     <absolute>
 0000:00000000       ___ImageBase               00400000     <linker-defined>
 0001:00000000       ?IsReady@CNetClient@@QBEHXZ 00401000 f i ChannelMgr.obj
 0001:00000020       ??0CNetConnectDup@@QAE@XZ  00401020 f i ChannelMgr.obj
 0001:00000040       ?IsValid@CNetConnectDup@@QBEHXZ 00401040 f i ChannelMgr.obj
 0001:00000050       ?GetIP@CNetConnectDup@@QBEKXZ 00401050 f i ChannelMgr.obj
 0001:00000060       __tcscmp                   00401060 f i ChannelMgr.obj
 0001:00000070       ??0bad_alloc@std@@QAE@PBD@Z 00401070 f i ChannelMgr.obj
 0001:00000090       ??1bad_alloc@std@@UAE@XZ   00401090 f i ChannelMgr.obj
 0001:000000a0       ??_Ebad_alloc@std@@UAEPAXI@Z 004010a0 f i ChannelMgr.obj
 0001:000000a0       ??_Gbad_alloc@std@@UAEPAXI@Z 004010a0 f i ChannelMgr.obj
 0001:000000d0       ??2@YAPAXIPAX@Z            004010d0 f i ChannelMgr.obj
 0001:000000e0       ??3@YAXPAX0@Z              004010e0 f i ChannelMgr.obj
 0001:000000f0       ?assign@?$char_traits@D@std@@SAXAADABD@Z 004010f0 f i ChannelMgr.obj
 0001:00000100       ?eq@?$char_traits@D@std@@SA_NABD0@Z 00401100 f i ChannelMgr.obj
 0001:00000120       ?compare@?$char_traits@D@std@@SAHPBD0I@Z 00401120 f i ChannelMgr.obj
 0001:000001b0       ?length@?$char_traits@D@std@@SAIPBD@Z 004011b0 f i ChannelMgr.obj
 0001:000001d0       ?_Copy_s@?$char_traits@D@std@@SAPADPADIPBDI@Z 004011d0 f i ChannelMgr.obj
 0001:00000200       ?find@?$char_traits@D@std@@SAPBDPBDIABD@Z 00401200 f i ChannelMgr.obj
 0001:00000220       ?_Move_s@?$char_traits@D@std@@SAPADPADIPBDI@Z 00401220 f i ChannelMgr.obj
 0001:00000250       ?assign@?$char_traits@D@std@@SAPADPADID@Z 00401250 f i ChannelMgr.obj
 0001:00000270       ??0_Iterator_base@std@@QAE@XZ 00401270 f i ChannelMgr.obj
 0001:00000280       ?GetGMChannID@CChannelMgr@@QAEKXZ 00401280 f   ChannelMgr.obj
 0001:00000290       ?PassToGM@CChannelMgr@@AAEHPBXI@Z 00401290 f   ChannelMgr.obj
 0001:00000310       ?IsValidTeamID@CChannelMgr@@AAEHK@Z 00401310 f   ChannelMgr.obj
 0001:00000340       ?IsValidFacID@CChannelMgr@@AAEHK@Z 00401340 f   ChannelMgr.obj
 0001:00000370       ?IsValidTongID@CChannelMgr@@AAEHK@Z 00401370 f   ChannelMgr.obj
 0001:000003a0       ?empty@?$basic_string@DU?$char_traits@D@std@@V?$allocator@D@2@@std@@QBE_NXZ 004013a0 f i ChannelMgr.obj
 0001:000003b0       ?size@?$_Tree@V?$_Tmap_traits@KUCHANNINFO@CChannelMgr@@U?$less@K@std@@V?$allocator@U?$pair@$$CBKUCHANNINFO@CChannelMgr@@@std@@@4@$0A@@std@@@std@@QBEIXZ 004013b0 f i ChannelMgr.obj
 0001:000003c0       ??0?$allocator@UBLOCKCHANNELOP_QID@CChannelMgr@@@std@@QAE@XZ 004013c0 f i ChannelMgr.obj
 0001:000003d0       ?deallocate@?$allocator@UBLOCKCHANNELOP_QID@CChannelMgr@@@std@@QAEXPAUBLOCKCHANNELOP_QID@CChannelMgr@@I@Z 004013d0 f i ChannelMgr.obj
 0001:000003e0       ??0?$allocator@UBLOCKCHANNELOP_CMN@CChannelMgr@@@std@@QAE@XZ 004013e0 f i ChannelMgr.obj
 0001:000003f0       ?deallocate@?$allocator@UBLOCKCHANNELOP_CMN@CChannelMgr@@@std@@QAEXPAUBLOCKCHANNELOP_CMN@CChannelMgr@@I@Z 004013f0 f i ChannelMgr.obj
 0001:00000400       ??0?$allocator@UBLOCKCHANNELOP_CLR@CChannelMgr@@@std@@QAE@XZ 00401400 f i ChannelMgr.obj
 0001:00000410       ?deallocate@?$allocator@UBLOCKCHANNELOP_CLR@CChannelMgr@@@std@@QAEXPAUBLOCKCHANNELOP_CLR@CChannelMgr@@I@Z 00401410 f i ChannelMgr.obj
 0001:00000420       ??D?$_Vector_const_iterator@V?$basic_string@DU?$char_traits@D@std@@V?$allocator@D@2@@std@@V?$allocator@V?$basic_string@DU?$char_traits@D@std@@V?$allocator@D@2@@std@@@2@@std@@QBEABV?$basic_string@DU?$char_traits@D@std@@V?$allocator@D@2@@1@XZ 00401420 f i ChannelMgr.obj
 0001:00000450       ??8const_iterator@?$_Tree@V?$_Tmap_traits@KUCHANNINFO@CChannelMgr@@U?$less@K@std@@V?$allocator@U?$pair@$$CBKUCHANNINFO@CChannelMgr@@@std@@@4@$0A@@std@@@std@@QBE_NABV012@@Z 00401450 f i ChannelMgr.obj
 0001:00000480       ??9const_iterator@?$_Tree@V?$_Tmap_traits@KUCHANNINFO@CChannelMgr@@U?$less@K@std@@V?$allocator@U?$pair@$$CBKUCHANNINFO@CChannelMgr@@@std@@@4@$0A@@std@@@std@@QBE_NABV012@@Z 00401480 f i ChannelMgr.obj
 0001:000004b0       ??8const_iterator@?$_Tree@V?$_Tmap_traits@V?$basic_string@DU?$char_traits@D@std@@V?$allocator@D@2@@std@@KU_tstring_less@@V?$allocator@U?$pair@$$CBV?$basic_string@DU?$char_traits@D@std@@V?$allocator@D@2@@std@@K@std@@@2@$0A@@std@@@std@@QBE_NABV012@@Z 004014b0 f i ChannelMgr.obj
 0001:000004e0       ??9const_iterator@?$_Tree@V?$_Tmap_traits@V?$basic_string@DU?$char_traits@D@std@@V?$allocator@D@2@@std@@KU_tstring_less@@V?$allocator@U?$pair@$$CBV?$basic_string@DU?$char_traits@D@std@@V?$allocator@D@2@@std@@K@std@@@2@$0A@@std@@@std@@QBE_NABV012@@Z 004014e0 f i ChannelMgr.obj
 0001:00000510       ??8const_iterator@?$_Tree@V?$_Tmap_traits@KV?$map@KUPLAYERINFO@CChannelMgr@@U?$less@K@std@@V?$allocator@U?$pair@$$CBKUPLAYERINFO@CChannelMgr@@@std@@@4@@std@@U?$less@K@2@V?$allocator@U?$pair@$$CBKV?$map@KUPLAYERINFO@CChannelMgr@@U?$less@K@std@@V?$allocator@U?$pair@$$CBKUPLAYERINFO@CChannelMgr@@@std@@@4@@std@@@std@@@2@$0A@@std@@@std@@QBE_NABV012@@Z 00401510 f i ChannelMgr.obj
 0001:00000540       ??9const_iterator@?$_Tree@V?$_Tmap_traits@KV?$map@KUPLAYERINFO@CChannelMgr@@U?$less@K@std@@V?$allocator@U?$pair@$$CBKUPLAYERINFO@CChannelMgr@@@std@@@4@@std@@U?$less@K@2@V?$allocator@U?$pair@$$CBKV?$map@KUPLAYERINFO@CChannelMgr@@U?$less@K@std@@V?$allocator@U?$pair@$$CBKUPLAYERINFO@CChannelMgr@@@std@@@4@@std@@@std@@@2@$0A@@std@@@std@@QBE_NABV012@@Z 00401540 f i ChannelMgr.obj
 0001:00000570       ??8const_iterator@?$_Tree@V?$_Tmap_traits@KUPLAYERINFO@CChannelMgr@@U?$less@K@std@@V?$allocator@U?$pair@$$CBKUPLAYERINFO@CChannelMgr@@@std@@@4@$0A@@std@@@std@@QBE_NABV012@@Z 00401570 f i ChannelMgr.obj
 0001:000005a0       ??9const_iterator@?$_Tree@V?$_Tmap_traits@KUPLAYERINFO@CChannelMgr@@U?$less@K@std@@V?$allocator@U?$pair@$$CBKUPLAYERINFO@CChannelMgr@@@std@@@4@$0A@@std@@@std@@QBE_NABV012@@Z 004015a0 f i ChannelMgr.obj
 0001:000005d0       ?empty@?$list@UtagPlusSrcInfo@@V?$allocator@UtagPlusSrcInfo@@@std@@@std@@QBE_NXZ 004015d0 f i ChannelMgr.obj
 0001:000005e0       ??R?$less@K@std@@QBE_NABK0@Z 004015e0 f i ChannelMgr.obj
 0001:00000600       ?_Color@?$_Tree@V?$_Tmap_traits@KV?$map@KUPLAYERINFO@CChannelMgr@@U?$less@K@std@@V?$allocator@U?$pair@$$CBKUPLAYERINFO@CChannelMgr@@@std@@@4@@std@@U?$less@K@2@V?$allocator@U?$pair@$$CBKV?$map@KUPLAYERINFO@CChannelMgr@@U?$less@K@std@@V?$allocator@U?$pair@$$CBKUPLAYERINFO@CChannelMgr@@@std@@@4@@std@@@std@@@2@$0A@@std@@@std@@KAAADPAU_Node@?$_Tree_nod@V?$_Tmap_traits@KV?$map@KUPLAYERINFO@CChannelMgr@@U?$less@K@std@@V?$allocator@U?$pair@$$CBKUPLAYERINFO@CChannelMgr@@@std@@@4@@std@@U?$less@K@2@V?$allocator@U?$pair@$$CBKV?$map@KUPLAYERINFO@CChannelMgr@@U?$less@K@std@@V?$allocator@U?$pair@$$CBKUPLAYERINFO@CChannelMgr@@@std@@@4@@std@@@std@@@2@$0A@@std@@@2@@Z 00401600 f i ChannelMgr.obj
 0001:00000610       ?_Isnil@?$_Tree@V?$_Tmap_traits@KV?$map@KUPLAYERINFO@CChannelMgr@@U?$less@K@std@@V?$allocator@U?$pair@$$CBKUPLAYERINFO@CChannelMgr@@@std@@@4@@std@@U?$less@K@2@V?$allocator@U?$pair@$$CBKV?$map@KUPLAYERINFO@CChannelMgr@@U?$less@K@std@@V?$allocator@U?$pair@$$CBKUPLAYERINFO@CChannelMgr@@@std@@@4@@std@@@std@@@2@$0A@@std@@@std@@KAAADPAU_Node@?$_Tree_nod@V?$_Tmap_traits@KV?$map@KUPLAYERINFO@CChannelMgr@@U?$less@K@std@@V?$allocator@U?$pair@$$CBKUPLAYERINFO@CChannelMgr@@@std@@@4@@std@@U?$less@K@2@V?$allocator@U?$pair@$$CBKV?$map@KUPLAYERINFO@CChannelMgr@@U?$less@K@std@@V?$allocator@U?$pair@$$CBKUPLAYERINFO@CChannelMgr@@@std@@@4@@std@@@std@@@2@$0A@@std@@@2@@Z 00401610 f i ChannelMgr.obj
 0001:00000620       ?_Left@?$_Tree@V?$_Tmap_traits@KV?$map@KUPLAYERINFO@CChannelMgr@@U?$less@K@std@@V?$allocator@U?$pair@$$CBKUPLAYERINFO@CChannelMgr@@@std@@@4@@std@@U?$less@K@2@V?$allocator@U?$pair@$$CBKV?$map@KUPLAYERINFO@CChannelMgr@@U?$less@K@std@@V?$allocator@U?$pair@$$CBKUPLAYERINFO@CChannelMgr@@@std@@@4@@std@@@std@@@2@$0A@@std@@@std@@KAAAPAU_Node@?$_Tree_nod@V?$_Tmap_traits@KV?$map@KUPLAYERINFO@CChannelMgr@@U?$less@K@std@@V?$allocator@U?$pair@$$CBKUPLAYERINFO@CChannelMgr@@@std@@@4@@std@@U?$less@K@2@V?$allocator@U?$pair@$$CBKV?$map@KUPLAYERINFO@CChannelMgr@@U?$less@K@std@@V?$allocator@U?$pair@$$CBKUPLAYERINFO@CChannelMgr@@@std@@@4@@std@@@std@@@2@$0A@@std@@@2@PAU342@@Z 00401620 f i ChannelMgr.obj
 0001:00000630       ?_Parent@?$_Tree@V?$_Tmap_traits@KV?$map@KUPLAYERINFO@CChannelMgr@@U?$less@K@std@@V?$allocator@U?$pair@$$CBKUPLAYERINFO@CChannelMgr@@@std@@@4@@std@@U?$less@K@2@V?$allocator@U?$pair@$$CBKV?$map@KUPLAYERINFO@CChannelMgr@@U?$less@K@std@@V?$allocator@U?$pair@$$CBKUPLAYERINFO@CChannelMgr@@@std@@@4@@std@@@std@@@2@$0A@@std@@@std@@KAAAPAU_Node@?$_Tree_nod@V?$_Tmap_traits@KV?$map@KUPLAYERINFO@CChannelMgr@@U?$less@K@std@@V?$allocator@U?$pair@$$CBKUPLAYERINFO@CChannelMgr@@@std@@@4@@std@@U?$less@K@2@V?$allocator@U?$pair@$$CBKV?$map@KUPLAYERINFO@CChannelMgr@@U?$less@K@std@@V?$allocator@U?$pair@$$CBKUPLAYERINFO@CChannelMgr@@@std@@@4@@std@@@std@@@2@$0A@@std@@@2@PAU342@@Z 00401630 f i ChannelMgr.obj
 0001:00000640       ?_Right@?$_Tree@V?$_Tmap_traits@KV?$map@KUPLAYERINFO@CChannelMgr@@U?$less@K@std@@V?$allocator@U?$pair@$$CBKUPLAYERINFO@CChannelMgr@@@std@@@4@@std@@U?$less@K@2@V?$allocator@U?$pair@$$CBKV?$map@KUPLAYERINFO@CChannelMgr@@U?$less@K@std@@V?$allocator@U?$pair@$$CBKUPLAYERINFO@CChannelMgr@@@std@@@4@@std@@@std@@@2@$0A@@std@@@std@@KAAAPAU_Node@?$_Tree_nod@V?$_Tmap_traits@KV?$map@KUPLAYERINFO@CChannelMgr@@U?$less@K@std@@V?$allocator@U?$pair@$$CBKUPLAYERINFO@CChannelMgr@@@std@@@4@@std@@U?$less@K@2@V?$allocator@U?$pair@$$CBKV?$map@KUPLAYERINFO@CChannelMgr@@U?$less@K@std@@V?$allocator@U?$pair@$$CBKUPLAYERINFO@CChannelMgr@@@std@@@4@@std@@@std@@@2@$0A@@std@@@2@PAU342@@Z 00401640 f i ChannelMgr.obj
 0001:00000650       ?size@?$_Tree@V?$_Tmap_traits@KV?$map@KUPLAYERINFO@CChannelMgr@@U?$less@K@std@@V?$allocator@U?$pair@$$CBKUPLAYERINFO@CChannelMgr@@@std@@@4@@std@@U?$less@K@2@V?$allocator@U?$pair@$$CBKV?$map@KUPLAYERINFO@CChannelMgr@@U?$less@K@std@@V?$allocator@U?$pair@$$CBKUPLAYERINFO@CChannelMgr@@@std@@@4@@std@@@std@@@2@$0A@@std@@@std@@QBEIXZ 00401650 f i ChannelMgr.obj
 0001:00000660       ?_Lmost@?$_Tree@V?$_Tmap_traits@KV?$map@KUPLAYERINFO@CChannelMgr@@U?$less@K@std@@V?$allocator@U?$pair@$$CBKUPLAYERINFO@CChannelMgr@@@std@@@4@@std@@U?$less@K@2@V?$allocator@U?$pair@$$CBKV?$map@KUPLAYERINFO@CChannelMgr@@U?$less@K@std@@V?$allocator@U?$pair@$$CBKUPLAYERINFO@CChannelMgr@@@std@@@4@@std@@@std@@@2@$0A@@std@@@std@@IBEAAPAU_Node@?$_Tree_nod@V?$_Tmap_traits@KV?$map@KUPLAYERINFO@CChannelMgr@@U?$less@K@std@@V?$allocator@U?$pair@$$CBKUPLAYERINFO@CChannelMgr@@@std@@@4@@std@@U?$less@K@2@V?$allocator@U?$pair@$$CBKV?$map@KUPLAYERINFO@CChannelMgr@@U?$less@K@std@@V?$allocator@U?$pair@$$CBKUPLAYERINFO@CChannelMgr@@@std@@@4@@std@@@std@@@2@$0A@@std@@@2@XZ 00401660 f i ChannelMgr.obj
 0001:00000670       ?_Max@?$_Tree@V?$_Tmap_traits@KV?$map@KUPLAYERINFO@CChannelMgr@@U?$less@K@std@@V?$allocator@U?$pair@$$CBKUPLAYERINFO@CChannelMgr@@@std@@@4@@std@@U?$less@K@2@V?$allocator@U?$pair@$$CBKV?$map@KUPLAYERINFO@CChannelMgr@@U?$less@K@std@@V?$allocator@U?$pair@$$CBKUPLAYERINFO@CChannelMgr@@@std@@@4@@std@@@std@@@2@$0A@@std@@@std@@KAPAU_Node@?$_Tree_nod@V?$_Tmap_traits@KV?$map@KUPLAYERINFO@CChannelMgr@@U?$less@K@std@@V?$allocator@U?$pair@$$CBKUPLAYERINFO@CChannelMgr@@@std@@@4@@std@@U?$less@K@2@V?$allocator@U?$pair@$$CBKV?$map@KUPLAYERINFO@CChannelMgr@@U?$less@K@std@@V?$allocator@U?$pair@$$CBKUPLAYERINFO@CChannelMgr@@@std@@@4@@std@@@std@@@2@$0A@@std@@@2@PAU342@@Z 00401670 f i ChannelMgr.obj
 0001:00000690       ?_Min@?$_Tree@V?$_Tmap_traits@KV?$map@KUPLAYERINFO@CChannelMgr@@U?$less@K@std@@V?$allocator@U?$pair@$$CBKUPLAYERINFO@CChannelMgr@@@std@@@4@@std@@U?$less@K@2@V?$allocator@U?$pair@$$CBKV?$map@KUPLAYERINFO@CChannelMgr@@U?$less@K@std@@V?$allocator@U?$pair@$$CBKUPLAYERINFO@CChannelMgr@@@std@@@4@@std@@@std@@@2@$0A@@std@@@std@@KAPAU_Node@?$_Tree_nod@V?$_Tmap_traits@KV?$map@KUPLAYERINFO@CChannelMgr@@U?$less@K@std@@V?$allocator@U?$pair@$$CBKUPLAYERINFO@CChannelMgr@@@std@@@4@@std@@U?$less@K@2@V?$allocator@U?$pair@$$CBKV?$map@KUPLAYERINFO@CChannelMgr@@U?$less@K@std@@V?$allocator@U?$pair@$$CBKUPLAYERINFO@CChannelMgr@@@std@@@4@@std@@@std@@@2@$0A@@std@@@2@PAU342@@Z 00401690 f i ChannelMgr.obj
 0001:000006b0       ?_Rmost@?$_Tree@V?$_Tmap_traits@KV?$map@KUPLAYERINFO@CChannelMgr@@U?$less@K@std@@V?$allocator@U?$pair@$$CBKUPLAYERINFO@CChannelMgr@@@std@@@4@@std@@U?$less@K@2@V?$allocator@U?$pair@$$CBKV?$map@KUPLAYERINFO@CChannelMgr@@U?$less@K@std@@V?$allocator@U?$pair@$$CBKUPLAYERINFO@CChannelMgr@@@std@@@4@@std@@@std@@@2@$0A@@std@@@std@@IBEAAPAU_Node@?$_Tree_nod@V?$_Tmap_traits@KV?$map@KUPLAYERINFO@CChannelMgr@@U?$less@K@std@@V?$allocator@U?$pair@$$CBKUPLAYERINFO@CChannelMgr@@@std@@@4@@std@@U?$less@K@2@V?$allocator@U?$pair@$$CBKV?$map@KUPLAYERINFO@CChannelMgr@@U?$less@K@std@@V?$allocator@U?$pair@$$CBKUPLAYERINFO@CChannelMgr@@@std@@@4@@std@@@std@@@2@$0A@@std@@@2@XZ 004016b0 f i ChannelMgr.obj
 0001:000006c0       ?_Root@?$_Tree@V?$_Tmap_traits@KV?$map@KUPLAYERINFO@CChannelMgr@@U?$less@K@std@@V?$allocator@U?$pair@$$CBKUPLAYERINFO@CChannelMgr@@@std@@@4@@std@@U?$less@K@2@V?$allocator@U?$pair@$$CBKV?$map@KUPLAYERINFO@CChannelMgr@@U?$less@K@std@@V?$allocator@U?$pair@$$CBKUPLAYERINFO@CChannelMgr@@@std@@@4@@std@@@std@@@2@$0A@@std@@@std@@IBEAAPAU_Node@?$_Tree_nod@V?$_Tmap_traits@KV?$map@KUPLAYERINFO@CChannelMgr@@U?$less@K@std@@V?$allocator@U?$pair@$$CBKUPLAYERINFO@CChannelMgr@@@std@@@4@@std@@U?$less@K@2@V?$allocator@U?$pair@$$CBKV?$map@KUPLAYERINFO@CChannelMgr@@U?$less@K@std@@V?$allocator@U?$pair@$$CBKUPLAYERINFO@CChannelMgr@@@std@@@4@@std@@@std@@@2@$0A@@std@@@2@XZ 004016c0 f i ChannelMgr.obj
 0001:000006d0       ?_Rrotate@?$_Tree@V?$_Tmap_traits@KV?$map@KUPLAYERINFO@CChannelMgr@@U?$less@K@std@@V?$allocator@U?$pair@$$CBKUPLAYERINFO@CChannelMgr@@@std@@@4@@std@@U?$less@K@2@V?$allocator@U?$pair@$$CBKV?$map@KUPLAYERINFO@CChannelMgr@@U?$less@K@std@@V?$allocator@U?$pair@$$CBKUPLAYERINFO@CChannelMgr@@@std@@@4@@std@@@std@@@2@$0A@@std@@@std@@IAEXPAU_Node@?$_Tree_nod@V?$_Tmap_traits@KV?$map@KUPLAYERINFO@CChannelMgr@@U?$less@K@std@@V?$allocator@U?$pair@$$CBKUPLAYERINFO@CChannelMgr@@@std@@@4@@std@@U?$less@K@2@V?$allocator@U?$pair@$$CBKV?$map@KUPLAYERINFO@CChannelMgr@@U?$less@K@std@@V?$allocator@U?$pair@$$CBKUPLAYERINFO@CChannelMgr@@@std@@@4@@std@@@std@@@2@$0A@@std@@@2@@Z 004016d0 f i ChannelMgr.obj
 0001:00000730       ?deallocate@?$allocator@U_Node@?$_Tree_nod@V?$_Tmap_traits@KV?$map@KUPLAYERINFO@CChannelMgr@@U?$less@K@std@@V?$allocator@U?$pair@$$CBKUPLAYERINFO@CChannelMgr@@@std@@@4@@std@@U?$less@K@2@V?$allocator@U?$pair@$$CBKV?$map@KUPLAYERINFO@CChannelMgr@@U?$less@K@std@@V?$allocator@U?$pair@$$CBKUPLAYERINFO@CChannelMgr@@@std@@@4@@std@@@std@@@2@$0A@@std@@@std@@@std@@QAEXPAU_Node@?$_Tree_nod@V?$_Tmap_traits@KV?$map@KUPLAYERINFO@CChannelMgr@@U?$less@K@std@@V?$allocator@U?$pair@$$CBKUPLAYERINFO@CChannelMgr@@@std@@@4@@std@@U?$less@K@2@V?$allocator@U?$pair@$$CBKV?$map@KUPLAYERINFO@CChannelMgr@@U?$less@K@std@@V?$allocator@U?$pair@$$CBKUPLAYERINFO@CChannelMgr@@@std@@@4@@std@@@std@@@2@$0A@@std@@@2@I@Z 00401730 f i ChannelMgr.obj
 0001:00000740       ?_Color@?$_Tree@V?$_Tmap_traits@KUCHANNINFO@CChannelMgr@@U?$less@K@std@@V?$allocator@U?$pair@$$CBKUCHANNINFO@CChannelMgr@@@std@@@4@$0A@@std@@@std@@KAAADPAU_Node@?$_Tree_nod@V?$_Tmap_traits@KUCHANNINFO@CChannelMgr@@U?$less@K@std@@V?$allocator@U?$pair@$$CBKUCHANNINFO@CChannelMgr@@@std@@@4@$0A@@std@@@2@@Z 00401740 f i ChannelMgr.obj
 0001:00000750       ?_Isnil@?$_Tree@V?$_Tmap_traits@KUCHANNINFO@CChannelMgr@@U?$less@K@std@@V?$allocator@U?$pair@$$CBKUCHANNINFO@CChannelMgr@@@std@@@4@$0A@@std@@@std@@KAAADPAU_Node@?$_Tree_nod@V?$_Tmap_traits@KUCHANNINFO@CChannelMgr@@U?$less@K@std@@V?$allocator@U?$pair@$$CBKUCHANNINFO@CChannelMgr@@@std@@@4@$0A@@std@@@2@@Z 00401750 f i ChannelMgr.obj
 0001:00000760       ?_Left@?$_Tree@V?$_Tmap_traits@KUCHANNINFO@CChannelMgr@@U?$less@K@std@@V?$allocator@U?$pair@$$CBKUCHANNINFO@CChannelMgr@@@std@@@4@$0A@@std@@@std@@KAAAPAU_Node@?$_Tree_nod@V?$_Tmap_traits@KUCHANNINFO@CChannelMgr@@U?$less@K@std@@V?$allocator@U?$pair@$$CBKUCHANNINFO@CChannelMgr@@@std@@@4@$0A@@std@@@2@PAU342@@Z 00401760 f i ChannelMgr.obj
 0001:00000770       ?_Parent@?$_Tree@V?$_Tmap_traits@KUCHANNINFO@CChannelMgr@@U?$less@K@std@@V?$allocator@U?$pair@$$CBKUCHANNINFO@CChannelMgr@@@std@@@4@$0A@@std@@@std@@KAAAPAU_Node@?$_Tree_nod@V?$_Tmap_traits@KUCHANNINFO@CChannelMgr@@U?$less@K@std@@V?$allocator@U?$pair@$$CBKUCHANNINFO@CChannelMgr@@@std@@@4@$0A@@std@@@2@PAU342@@Z 00401770 f i ChannelMgr.obj
 0001:00000780       ?_Right@?$_Tree@V?$_Tmap_traits@KUCHANNINFO@CChannelMgr@@U?$less@K@std@@V?$allocator@U?$pair@$$CBKUCHANNINFO@CChannelMgr@@@std@@@4@$0A@@std@@@std@@KAAAPAU_Node@?$_Tree_nod@V?$_Tmap_traits@KUCHANNINFO@CChannelMgr@@U?$less@K@std@@V?$allocator@U?$pair@$$CBKUCHANNINFO@CChannelMgr@@@std@@@4@$0A@@std@@@2@PAU342@@Z 00401780 f i ChannelMgr.obj
 0001:00000790       ?_Myval@?$_Tree@V?$_Tmap_traits@KUCHANNINFO@CChannelMgr@@U?$less@K@std@@V?$allocator@U?$pair@$$CBKUCHANNINFO@CChannelMgr@@@std@@@4@$0A@@std@@@std@@KAAAU?$pair@$$CBKUCHANNINFO@CChannelMgr@@@2@PAU_Node@?$_Tree_nod@V?$_Tmap_traits@KUCHANNINFO@CChannelMgr@@U?$less@K@std@@V?$allocator@U?$pair@$$CBKUCHANNINFO@CChannelMgr@@@std@@@4@$0A@@std@@@2@@Z 00401790 f i ChannelMgr.obj
 0001:000007a0       ?_Lmost@?$_Tree@V?$_Tmap_traits@KUCHANNINFO@CChannelMgr@@U?$less@K@std@@V?$allocator@U?$pair@$$CBKUCHANNINFO@CChannelMgr@@@std@@@4@$0A@@std@@@std@@IBEAAPAU_Node@?$_Tree_nod@V?$_Tmap_traits@KUCHANNINFO@CChannelMgr@@U?$less@K@std@@V?$allocator@U?$pair@$$CBKUCHANNINFO@CChannelMgr@@@std@@@4@$0A@@std@@@2@XZ 004017a0 f i ChannelMgr.obj
 0001:000007b0       ?_Max@?$_Tree@V?$_Tmap_traits@KUCHANNINFO@CChannelMgr@@U?$less@K@std@@V?$allocator@U?$pair@$$CBKUCHANNINFO@CChannelMgr@@@std@@@4@$0A@@std@@@std@@KAPAU_Node@?$_Tree_nod@V?$_Tmap_traits@KUCHANNINFO@CChannelMgr@@U?$less@K@std@@V?$allocator@U?$pair@$$CBKUCHANNINFO@CChannelMgr@@@std@@@4@$0A@@std@@@2@PAU342@@Z 004017b0 f i ChannelMgr.obj
 0001:000007d0       ?_Min@?$_Tree@V?$_Tmap_traits@KUCHANNINFO@CChannelMgr@@U?$less@K@std@@V?$allocator@U?$pair@$$CBKUCHANNINFO@CChannelMgr@@@std@@@4@$0A@@std@@@std@@KAPAU_Node@?$_Tree_nod@V?$_Tmap_traits@KUCHANNINFO@CChannelMgr@@U?$less@K@std@@V?$allocator@U?$pair@$$CBKUCHANNINFO@CChannelMgr@@@std@@@4@$0A@@std@@@2@PAU342@@Z 004017d0 f i ChannelMgr.obj
 0001:000007f0       ?_Rmost@?$_Tree@V?$_Tmap_traits@KUCHANNINFO@CChannelMgr@@U?$less@K@std@@V?$allocator@U?$pair@$$CBKUCHANNINFO@CChannelMgr@@@std@@@4@$0A@@std@@@std@@IBEAAPAU_Node@?$_Tree_nod@V?$_Tmap_traits@KUCHANNINFO@CChannelMgr@@U?$less@K@std@@V?$allocator@U?$pair@$$CBKUCHANNINFO@CChannelMgr@@@std@@@4@$0A@@std@@@2@XZ 004017f0 f i ChannelMgr.obj
 0001:00000800       ?_Root@?$_Tree@V?$_Tmap_traits@KUCHANNINFO@CChannelMgr@@U?$less@K@std@@V?$allocator@U?$pair@$$CBKUCHANNINFO@CChannelMgr@@@std@@@4@$0A@@std@@@std@@IBEAAPAU_Node@?$_Tree_nod@V?$_Tmap_traits@KUCHANNINFO@CChannelMgr@@U?$less@K@std@@V?$allocator@U?$pair@$$CBKUCHANNINFO@CChannelMgr@@@std@@@4@$0A@@std@@@2@XZ 00401800 f i ChannelMgr.obj
 0001:00000810       ?_Rrotate@?$_Tree@V?$_Tmap_traits@KUCHANNINFO@CChannelMgr@@U?$less@K@std@@V?$allocator@U?$pair@$$CBKUCHANNINFO@CChannelMgr@@@std@@@4@$0A@@std@@@std@@IAEXPAU_Node@?$_Tree_nod@V?$_Tmap_traits@KUCHANNINFO@CChannelMgr@@U?$less@K@std@@V?$allocator@U?$pair@$$CBKUCHANNINFO@CChannelMgr@@@std@@@4@$0A@@std@@@2@@Z 00401810 f i ChannelMgr.obj
 0001:00000870       ??0?$allocator@U?$pair@$$CBKUCHANNINFO@CChannelMgr@@@std@@@std@@QAE@XZ 00401870 f i ChannelMgr.obj
 0001:00000880       ?deallocate@?$allocator@U_Node@?$_Tree_nod@V?$_Tmap_traits@KUCHANNINFO@CChannelMgr@@U?$less@K@std@@V?$allocator@U?$pair@$$CBKUCHANNINFO@CChannelMgr@@@std@@@4@$0A@@std@@@std@@@std@@QAEXPAU_Node@?$_Tree_nod@V?$_Tmap_traits@KUCHANNINFO@CChannelMgr@@U?$less@K@std@@V?$allocator@U?$pair@$$CBKUCHANNINFO@CChannelMgr@@@std@@@4@$0A@@std@@@2@I@Z 00401880 f i ChannelMgr.obj
 0001:00000890       ?size@?$basic_string@DU?$char_traits@D@std@@V?$allocator@D@2@@std@@QBEIXZ 00401890 f i ChannelMgr.obj
 0001:000008a0       ??0?$allocator@U?$pair@$$CBV?$basic_string@DU?$char_traits@D@std@@V?$allocator@D@2@@std@@K@std@@@std@@QAE@XZ 004018a0 f i ChannelMgr.obj
 0001:000008b0       ??0?$allocator@U?$pair@$$CBKV?$list@PAU_BLOCKCHANNELOP@CChannelMgr@@V?$allocator@PAU_BLOCKCHANNELOP@CChannelMgr@@@std@@@std@@@std@@@std@@QAE@XZ 004018b0 f i ChannelMgr.obj
 0001:000008c0       ??E?$_Vector_const_iterator@V?$basic_string@DU?$char_traits@D@std@@V?$allocator@D@2@@std@@V?$allocator@V?$basic_string@DU?$char_traits@D@std@@V?$allocator@D@2@@std@@@2@@std@@QAEAAV01@XZ 004018c0 f i ChannelMgr.obj
 0001:000008f0       ??8?$_Vector_const_iterator@V?$basic_string@DU?$char_traits@D@std@@V?$allocator@D@2@@std@@V?$allocator@V?$basic_string@DU?$char_traits@D@std@@V?$allocator@D@2@@std@@@2@@std@@QBE_NABV01@@Z 004018f0 f i ChannelMgr.obj
 0001:00000920       ?_Mynode@const_iterator@?$_Tree@V?$_Tmap_traits@KUCHANNINFO@CChannelMgr@@U?$less@K@std@@V?$allocator@U?$pair@$$CBKUCHANNINFO@CChannelMgr@@@std@@@4@$0A@@std@@@std@@QBEPAU_Node@?$_Tree_nod@V?$_Tmap_traits@KUCHANNINFO@CChannelMgr@@U?$less@K@std@@V?$allocator@U?$pair@$$CBKUCHANNINFO@CChannelMgr@@@std@@@4@$0A@@std@@@3@XZ 00401920 f i ChannelMgr.obj
 0001:00000930       ?_Mynode@const_iterator@?$_Tree@V?$_Tmap_traits@V?$basic_string@DU?$char_traits@D@std@@V?$allocator@D@2@@std@@KU_tstring_less@@V?$allocator@U?$pair@$$CBV?$basic_string@DU?$char_traits@D@std@@V?$allocator@D@2@@std@@K@std@@@2@$0A@@std@@@std@@QBEPAU_Node@?$_Tree_nod@V?$_Tmap_traits@V?$basic_string@DU?$char_traits@D@std@@V?$allocator@D@2@@std@@KU_tstring_less@@V?$allocator@U?$pair@$$CBV?$basic_string@DU?$char_traits@D@std@@V?$allocator@D@2@@std@@K@std@@@2@$0A@@std@@@3@XZ 00401930 f i ChannelMgr.obj
 0001:00000940       ?_Mynode@const_iterator@?$_Tree@V?$_Tmap_traits@KV?$map@KUPLAYERINFO@CChannelMgr@@U?$less@K@std@@V?$allocator@U?$pair@$$CBKUPLAYERINFO@CChannelMgr@@@std@@@4@@std@@U?$less@K@2@V?$allocator@U?$pair@$$CBKV?$map@KUPLAYERINFO@CChannelMgr@@U?$less@K@std@@V?$allocator@U?$pair@$$CBKUPLAYERINFO@CChannelMgr@@@std@@@4@@std@@@std@@@2@$0A@@std@@@std@@QBEPAU_Node@?$_Tree_nod@V?$_Tmap_traits@KV?$map@KUPLAYERINFO@CChannelMgr@@U?$less@K@std@@V?$allocator@U?$pair@$$CBKUPLAYERINFO@CChannelMgr@@@std@@@4@@std@@U?$less@K@2@V?$allocator@U?$pair@$$CBKV?$map@KUPLAYERINFO@CChannelMgr@@U?$less@K@std@@V?$allocator@U?$pair@$$CBKUPLAYERINFO@CChannelMgr@@@std@@@4@@std@@@std@@@2@$0A@@std@@@3@XZ 00401940 f i ChannelMgr.obj
 0001:00000950       ?size@?$_Tree@V?$_Tmap_traits@KUPLAYERINFO@CChannelMgr@@U?$less@K@std@@V?$allocator@U?$pair@$$CBKUPLAYERINFO@CChannelMgr@@@std@@@4@$0A@@std@@@std@@QBEIXZ 00401950 f i ChannelMgr.obj
 0001:00000960       ?_Myptr@?$basic_string@DU?$char_traits@D@std@@V?$allocator@D@2@@std@@IBEPBDXZ 00401960 f i ChannelMgr.obj
 0001:00000970       ?_Mynode@const_iterator@?$_Tree@V?$_Tmap_traits@KUPLAYERINFO@CChannelMgr@@U?$less@K@std@@V?$allocator@U?$pair@$$CBKUPLAYERINFO@CChannelMgr@@@std@@@4@$0A@@std@@@std@@QBEPAU_Node@?$_Tree_nod@V?$_Tmap_traits@KUPLAYERINFO@CChannelMgr@@U?$less@K@std@@V?$allocator@U?$pair@$$CBKUPLAYERINFO@CChannelMgr@@@std@@@4@$0A@@std@@@3@XZ 00401970 f i ChannelMgr.obj
 0001:00000980       ??0?$allocator@D@std@@QAE@XZ 00401980 f i ChannelMgr.obj
 0001:00000990       ??0?$pair@$$CBKUPLAYERINFO@CChannelMgr@@@std@@QAE@ABKABUPLAYERINFO@CChannelMgr@@@Z 00401990 f i ChannelMgr.obj
 0001:000009b0       ?_Nextnode@?$list@UtagPlusSrcInfo@@V?$allocator@UtagPlusSrcInfo@@@std@@@std@@KAAAPAU_Node@?$_List_nod@UtagPlusSrcInfo@@V?$allocator@UtagPlusSrcInfo@@@std@@@2@PAU342@@Z 004019b0 f i ChannelMgr.obj
 0001:000009c0       ?_Myval@?$list@UtagPlusSrcInfo@@V?$allocator@UtagPlusSrcInfo@@@std@@@std@@KAAAUtagPlusSrcInfo@@PAU_Node@?$_List_nod@UtagPlusSrcInfo@@V?$allocator@UtagPlusSrcInfo@@@std@@@2@@Z 004019c0 f i ChannelMgr.obj
 0001:000009d0       ??0?$allocator@UtagPlusSrcInfo@@@std@@QAE@XZ 004019d0 f i ChannelMgr.obj
 0001:000009e0       ??E?$_Const_iterator@$00@?$list@UtagPlusSrcInfo@@V?$allocator@UtagPlusSrcInfo@@@std@@@std@@QAEAAV012@XZ 004019e0 f i ChannelMgr.obj
 0001:00000a10       ??8?$_Const_iterator@$00@?$list@UtagPlusSrcInfo@@V?$allocator@UtagPlusSrcInfo@@@std@@@std@@QBE_NABV012@@Z 00401a10 f i ChannelMgr.obj
 0001:00000a40       ?_Nextnode@?$list@PAU_BLOCKCHANNELOP@CChannelMgr@@V?$allocator@PAU_BLOCKCHANNELOP@CChannelMgr@@@std@@@std@@KAAAPAU_Node@?$_List_nod@PAU_BLOCKCHANNELOP@CChannelMgr@@V?$allocator@PAU_BLOCKCHANNELOP@CChannelMgr@@@std@@@2@PAU342@@Z 00401a40 f i ChannelMgr.obj
 0001:00000a50       ??8const_iterator@?$_Tree@V?$_Tmap_traits@KV?$list@PAU_BLOCKCHANNELOP@CChannelMgr@@V?$allocator@PAU_BLOCKCHANNELOP@CChannelMgr@@@std@@@std@@U?$less@K@2@V?$allocator@U?$pair@$$CBKV?$list@PAU_BLOCKCHANNELOP@CChannelMgr@@V?$allocator@PAU_BLOCKCHANNELOP@CChannelMgr@@@std@@@std@@@std@@@2@$0A@@std@@@std@@QBE_NABV012@@Z 00401a50 f i ChannelMgr.obj
 0001:00000a80       ?_Mynode@const_iterator@?$_Tree@V?$_Tmap_traits@KV?$list@PAU_BLOCKCHANNELOP@CChannelMgr@@V?$allocator@PAU_BLOCKCHANNELOP@CChannelMgr@@@std@@@std@@U?$less@K@2@V?$allocator@U?$pair@$$CBKV?$list@PAU_BLOCKCHANNELOP@CChannelMgr@@V?$allocator@PAU_BLOCKCHANNELOP@CChannelMgr@@@std@@@std@@@std@@@2@$0A@@std@@@std@@QBEPAU_Node@?$_Tree_nod@V?$_Tmap_traits@KV?$list@PAU_BLOCKCHANNELOP@CChannelMgr@@V?$allocator@PAU_BLOCKCHANNELOP@CChannelMgr@@@std@@@std@@U?$less@K@2@V?$allocator@U?$pair@$$CBKV?$list@PAU_BLOCKCHANNELOP@CChannelMgr@@V?$allocator@PAU_BLOCKCHANNELOP@CChannelMgr@@@std@@@std@@@std@@@2@$0A@@std@@@3@XZ 00401a80 f i ChannelMgr.obj
 0001:00000a90       ??8?$_Const_iterator@$00@?$list@PAU_BLOCKCHANNELOP@CChannelMgr@@V?$allocator@PAU_BLOCKCHANNELOP@CChannelMgr@@@std@@@std@@QBE_NABV012@@Z 00401a90 f i ChannelMgr.obj
 0001:00000ac0       ??0?$_Ranit@V?$basic_string@DU?$char_traits@D@std@@V?$allocator@D@2@@std@@HPBV12@ABV12@@std@@QAE@XZ 00401ac0 f i ChannelMgr.obj
 0001:00000ad0       ??0?$_Bidit@UtagPlusSrcInfo@@HPBU1@ABU1@@std@@QAE@XZ 00401ad0 f i ChannelMgr.obj
 0001:00000ae0       ?_Myval@?$_Tree@V?$_Tmap_traits@KV?$map@KUPLAYERINFO@CChannelMgr@@U?$less@K@std@@V?$allocator@U?$pair@$$CBKUPLAYERINFO@CChannelMgr@@@std@@@4@@std@@U?$less@K@2@V?$allocator@U?$pair@$$CBKV?$map@KUPLAYERINFO@CChannelMgr@@U?$less@K@std@@V?$allocator@U?$pair@$$CBKUPLAYERINFO@CChannelMgr@@@std@@@4@@std@@@std@@@2@$0A@@std@@@std@@KAAAU?$pair@$$CBKV?$map@KUPLAYERINFO@CChannelMgr@@U?$less@K@std@@V?$allocator@U?$pair@$$CBKUPLAYERINFO@CChannelMgr@@@std@@@4@@std@@@2@PAU_Node@?$_Tree_nod@V?$_Tmap_traits@KV?$map@KUPLAYERINFO@CChannelMgr@@U?$less@K@std@@V?$allocator@U?$pair@$$CBKUPLAYERINFO@CChannelMgr@@@std@@@4@@std@@U?$less@K@2@V?$allocator@U?$pair@$$CBKV?$map@KUPLAYERINFO@CChannelMgr@@U?$less@K@std@@V?$allocator@U?$pair@$$CBKUPLAYERINFO@CChannelMgr@@@std@@@4@@std@@@std@@@2@$0A@@std@@@2@@Z 00401ae0 f i ChannelMgr.obj
 0001:00000af0       ?_Myptr@?$basic_string@DU?$char_traits@D@std@@V?$allocator@D@2@@std@@IAEPADXZ 00401af0 f i ChannelMgr.obj
 0001:00000b00       ??0?$allocator@D@std@@QAE@ABV01@@Z 00401b00 f i ChannelMgr.obj
 0001:00000b10       ?deallocate@?$allocator@D@std@@QAEXPADI@Z 00401b10 f i ChannelMgr.obj
 0001:00000b20       ?_Kfn@?$_Tmap_traits@KV?$map@KUPLAYERINFO@CChannelMgr@@U?$less@K@std@@V?$allocator@U?$pair@$$CBKUPLAYERINFO@CChannelMgr@@@std@@@4@@std@@U?$less@K@2@V?$allocator@U?$pair@$$CBKV?$map@KUPLAYERINFO@CChannelMgr@@U?$less@K@std@@V?$allocator@U?$pair@$$CBKUPLAYERINFO@CChannelMgr@@@std@@@4@@std@@@std@@@2@$0A@@std@@SAABKABU?$pair@$$CBKV?$map@KUPLAYERINFO@CChannelMgr@@U?$less@K@std@@V?$allocator@U?$pair@$$CBKUPLAYERINFO@CChannelMgr@@@std@@@4@@std@@@2@@Z 00401b20 f i ChannelMgr.obj
 0001:00000b30       ??0?$allocator@U?$pair@$$CBKV?$map@KUPLAYERINFO@CChannelMgr@@U?$less@K@std@@V?$allocator@U?$pair@$$CBKUPLAYERINFO@CChannelMgr@@@std@@@4@@std@@@std@@@std@@QAE@XZ 00401b30 f i ChannelMgr.obj
 0001:00000b40       ?_Inside@?$basic_string@DU?$char_traits@D@std@@V?$allocator@D@2@@std@@IAE_NPBD@Z 00401b40 f i ChannelMgr.obj
 0001:00000b80       ?max_size@?$allocator@D@std@@QBEIXZ 00401b80 f i ChannelMgr.obj
 0001:00000b90       ??$_Allocate@D@std@@YAPADIPAD@Z 00401b90 f i ChannelMgr.obj
 0001:00000bf0       ??0bad_alloc@std@@QAE@ABV01@@Z 00401bf0 f i ChannelMgr.obj
 0001:00000c10       ?_Kfn@?$_Tmap_traits@KUCHANNINFO@CChannelMgr@@U?$less@K@std@@V?$allocator@U?$pair@$$CBKUCHANNINFO@CChannelMgr@@@std@@@4@$0A@@std@@SAABKABU?$pair@$$CBKUCHANNINFO@CChannelMgr@@@2@@Z 00401c10 f i ChannelMgr.obj
 0001:00000c20       ??0?$allocator@U?$pair@$$CBKUCHANNINFO@CChannelMgr@@@std@@@std@@QAE@ABV01@@Z 00401c20 f i ChannelMgr.obj
 0001:00000c30       ?_Isnil@?$_Tree@V?$_Tmap_traits@V?$basic_string@DU?$char_traits@D@std@@V?$allocator@D@2@@std@@KU_tstring_less@@V?$allocator@U?$pair@$$CBV?$basic_string@DU?$char_traits@D@std@@V?$allocator@D@2@@std@@K@std@@@2@$0A@@std@@@std@@KAAADPAU_Node@?$_Tree_nod@V?$_Tmap_traits@V?$basic_string@DU?$char_traits@D@std@@V?$allocator@D@2@@std@@KU_tstring_less@@V?$allocator@U?$pair@$$CBV?$basic_string@DU?$char_traits@D@std@@V?$allocator@D@2@@std@@K@std@@@2@$0A@@std@@@2@@Z 00401c30 f i ChannelMgr.obj
 0001:00000c40       ?_Left@?$_Tree@V?$_Tmap_traits@V?$basic_string@DU?$char_traits@D@std@@V?$allocator@D@2@@std@@KU_tstring_less@@V?$allocator@U?$pair@$$CBV?$basic_string@DU?$char_traits@D@std@@V?$allocator@D@2@@std@@K@std@@@2@$0A@@std@@@std@@KAAAPAU_Node@?$_Tree_nod@V?$_Tmap_traits@V?$basic_string@DU?$char_traits@D@std@@V?$allocator@D@2@@std@@KU_tstring_less@@V?$allocator@U?$pair@$$CBV?$basic_string@DU?$char_traits@D@std@@V?$allocator@D@2@@std@@K@std@@@2@$0A@@std@@@2@PAU342@@Z 00401c40 f i ChannelMgr.obj
 0001:00000c50       ?_Parent@?$_Tree@V?$_Tmap_traits@V?$basic_string@DU?$char_traits@D@std@@V?$allocator@D@2@@std@@KU_tstring_less@@V?$allocator@U?$pair@$$CBV?$basic_string@DU?$char_traits@D@std@@V?$allocator@D@2@@std@@K@std@@@2@$0A@@std@@@std@@KAAAPAU_Node@?$_Tree_nod@V?$_Tmap_traits@V?$basic_string@DU?$char_traits@D@std@@V?$allocator@D@2@@std@@KU_tstring_less@@V?$allocator@U?$pair@$$CBV?$basic_string@DU?$char_traits@D@std@@V?$allocator@D@2@@std@@K@std@@@2@$0A@@std@@@2@PAU342@@Z 00401c50 f i ChannelMgr.obj
 0001:00000c60       ?_Right@?$_Tree@V?$_Tmap_traits@V?$basic_string@DU?$char_traits@D@std@@V?$allocator@D@2@@std@@KU_tstring_less@@V?$allocator@U?$pair@$$CBV?$basic_string@DU?$char_traits@D@std@@V?$allocator@D@2@@std@@K@std@@@2@$0A@@std@@@std@@KAAAPAU_Node@?$_Tree_nod@V?$_Tmap_traits@V?$basic_string@DU?$char_traits@D@std@@V?$allocator@D@2@@std@@KU_tstring_less@@V?$allocator@U?$pair@$$CBV?$basic_string@DU?$char_traits@D@std@@V?$allocator@D@2@@std@@K@std@@@2@$0A@@std@@@2@PAU342@@Z 00401c60 f i ChannelMgr.obj
 0001:00000c70       ?_Myval@?$_Tree@V?$_Tmap_traits@V?$basic_string@DU?$char_traits@D@std@@V?$allocator@D@2@@std@@KU_tstring_less@@V?$allocator@U?$pair@$$CBV?$basic_string@DU?$char_traits@D@std@@V?$allocator@D@2@@std@@K@std@@@2@$0A@@std@@@std@@KAAAU?$pair@$$CBV?$basic_string@DU?$char_traits@D@std@@V?$allocator@D@2@@std@@K@2@PAU_Node@?$_Tree_nod@V?$_Tmap_traits@V?$basic_string@DU?$char_traits@D@std@@V?$allocator@D@2@@std@@KU_tstring_less@@V?$allocator@U?$pair@$$CBV?$basic_string@DU?$char_traits@D@std@@V?$allocator@D@2@@std@@K@std@@@2@$0A@@std@@@2@@Z 00401c70 f i ChannelMgr.obj
 0001:00000c80       ?size@?$_Tree@V?$_Tmap_traits@V?$basic_string@DU?$char_traits@D@std@@V?$allocator@D@2@@std@@KU_tstring_less@@V?$allocator@U?$pair@$$CBV?$basic_string@DU?$char_traits@D@std@@V?$allocator@D@2@@std@@K@std@@@2@$0A@@std@@@std@@QBEIXZ 00401c80 f i ChannelMgr.obj
 0001:00000c90       ?_Kfn@?$_Tmap_traits@V?$basic_string@DU?$char_traits@D@std@@V?$allocator@D@2@@std@@KU_tstring_less@@V?$allocator@U?$pair@$$CBV?$basic_string@DU?$char_traits@D@std@@V?$allocator@D@2@@std@@K@std@@@2@$0A@@std@@SAABV?$basic_string@DU?$char_traits@D@std@@V?$allocator@D@2@@2@ABU?$pair@$$CBV?$basic_string@DU?$char_traits@D@std@@V?$allocator@D@2@@std@@K@2@@Z 00401c90 f i ChannelMgr.obj
 0001:00000ca0       ??0?$allocator@U?$pair@$$CBV?$basic_string@DU?$char_traits@D@std@@V?$allocator@D@2@@std@@K@std@@@std@@QAE@ABV01@@Z 00401ca0 f i ChannelMgr.obj
 0001:00000cb0       ?deallocate@?$allocator@U_Node@?$_Tree_nod@V?$_Tmap_traits@V?$basic_string@DU?$char_traits@D@std@@V?$allocator@D@2@@std@@KU_tstring_less@@V?$allocator@U?$pair@$$CBV?$basic_string@DU?$char_traits@D@std@@V?$allocator@D@2@@std@@K@std@@@2@$0A@@std@@@std@@@std@@QAEXPAU_Node@?$_Tree_nod@V?$_Tmap_traits@V?$basic_string@DU?$char_traits@D@std@@V?$allocator@D@2@@std@@KU_tstring_less@@V?$allocator@U?$pair@$$CBV?$basic_string@DU?$char_traits@D@std@@V?$allocator@D@2@@std@@K@std@@@2@$0A@@std@@@2@I@Z 00401cb0 f i ChannelMgr.obj
 0001:00000cc0       ?_Isnil@?$_Tree@V?$_Tmap_traits@KV?$list@PAU_BLOCKCHANNELOP@CChannelMgr@@V?$allocator@PAU_BLOCKCHANNELOP@CChannelMgr@@@std@@@std@@U?$less@K@2@V?$allocator@U?$pair@$$CBKV?$list@PAU_BLOCKCHANNELOP@CChannelMgr@@V?$allocator@PAU_BLOCKCHANNELOP@CChannelMgr@@@std@@@std@@@std@@@2@$0A@@std@@@std@@KAAADPAU_Node@?$_Tree_nod@V?$_Tmap_traits@KV?$list@PAU_BLOCKCHANNELOP@CChannelMgr@@V?$allocator@PAU_BLOCKCHANNELOP@CChannelMgr@@@std@@@std@@U?$less@K@2@V?$allocator@U?$pair@$$CBKV?$list@PAU_BLOCKCHANNELOP@CChannelMgr@@V?$allocator@PAU_BLOCKCHANNELOP@CChannelMgr@@@std@@@std@@@std@@@2@$0A@@std@@@2@@Z 00401cc0 f i ChannelMgr.obj
 0001:00000cd0       ?_Left@?$_Tree@V?$_Tmap_traits@KV?$list@PAU_BLOCKCHANNELOP@CChannelMgr@@V?$allocator@PAU_BLOCKCHANNELOP@CChannelMgr@@@std@@@std@@U?$less@K@2@V?$allocator@U?$pair@$$CBKV?$list@PAU_BLOCKCHANNELOP@CChannelMgr@@V?$allocator@PAU_BLOCKCHANNELOP@CChannelMgr@@@std@@@std@@@std@@@2@$0A@@std@@@std@@KAAAPAU_Node@?$_Tree_nod@V?$_Tmap_traits@KV?$list@PAU_BLOCKCHANNELOP@CChannelMgr@@V?$allocator@PAU_BLOCKCHANNELOP@CChannelMgr@@@std@@@std@@U?$less@K@2@V?$allocator@U?$pair@$$CBKV?$list@PAU_BLOCKCHANNELOP@CChannelMgr@@V?$allocator@PAU_BLOCKCHANNELOP@CChannelMgr@@@std@@@std@@@std@@@2@$0A@@std@@@2@PAU342@@Z 00401cd0 f i ChannelMgr.obj
 0001:00000ce0       ?_Parent@?$_Tree@V?$_Tmap_traits@KV?$list@PAU_BLOCKCHANNELOP@CChannelMgr@@V?$allocator@PAU_BLOCKCHANNELOP@CChannelMgr@@@std@@@std@@U?$less@K@2@V?$allocator@U?$pair@$$CBKV?$list@PAU_BLOCKCHANNELOP@CChannelMgr@@V?$allocator@PAU_BLOCKCHANNELOP@CChannelMgr@@@std@@@std@@@std@@@2@$0A@@std@@@std@@KAAAPAU_Node@?$_Tree_nod@V?$_Tmap_traits@KV?$list@PAU_BLOCKCHANNELOP@CChannelMgr@@V?$allocator@PAU_BLOCKCHANNELOP@CChannelMgr@@@std@@@std@@U?$less@K@2@V?$allocator@U?$pair@$$CBKV?$list@PAU_BLOCKCHANNELOP@CChannelMgr@@V?$allocator@PAU_BLOCKCHANNELOP@CChannelMgr@@@std@@@std@@@std@@@2@$0A@@std@@@2@PAU342@@Z 00401ce0 f i ChannelMgr.obj
 0001:00000cf0       ?_Right@?$_Tree@V?$_Tmap_traits@KV?$list@PAU_BLOCKCHANNELOP@CChannelMgr@@V?$allocator@PAU_BLOCKCHANNELOP@CChannelMgr@@@std@@@std@@U?$less@K@2@V?$allocator@U?$pair@$$CBKV?$list@PAU_BLOCKCHANNELOP@CChannelMgr@@V?$allocator@PAU_BLOCKCHANNELOP@CChannelMgr@@@std@@@std@@@std@@@2@$0A@@std@@@std@@KAAAPAU_Node@?$_Tree_nod@V?$_Tmap_traits@KV?$list@PAU_BLOCKCHANNELOP@CChannelMgr@@V?$allocator@PAU_BLOCKCHANNELOP@CChannelMgr@@@std@@@std@@U?$less@K@2@V?$allocator@U?$pair@$$CBKV?$list@PAU_BLOCKCHANNELOP@CChannelMgr@@V?$allocator@PAU_BLOCKCHANNELOP@CChannelMgr@@@std@@@std@@@std@@@2@$0A@@std@@@2@PAU342@@Z 00401cf0 f i ChannelMgr.obj
 0001:00000d00       ?_Myval@?$_Tree@V?$_Tmap_traits@KV?$list@PAU_BLOCKCHANNELOP@CChannelMgr@@V?$allocator@PAU_BLOCKCHANNELOP@CChannelMgr@@@std@@@std@@U?$less@K@2@V?$allocator@U?$pair@$$CBKV?$list@PAU_BLOCKCHANNELOP@CChannelMgr@@V?$allocator@PAU_BLOCKCHANNELOP@CChannelMgr@@@std@@@std@@@std@@@2@$0A@@std@@@std@@KAAAU?$pair@$$CBKV?$list@PAU_BLOCKCHANNELOP@CChannelMgr@@V?$allocator@PAU_BLOCKCHANNELOP@CChannelMgr@@@std@@@std@@@2@PAU_Node@?$_Tree_nod@V?$_Tmap_traits@KV?$list@PAU_BLOCKCHANNELOP@CChannelMgr@@V?$allocator@PAU_BLOCKCHANNELOP@CChannelMgr@@@std@@@std@@U?$less@K@2@V?$allocator@U?$pair@$$CBKV?$list@PAU_BLOCKCHANNELOP@CChannelMgr@@V?$allocator@PAU_BLOCKCHANNELOP@CChannelMgr@@@std@@@std@@@std@@@2@$0A@@std@@@2@@Z 00401d00 f i ChannelMgr.obj
 0001:00000d10       ?size@?$_Tree@V?$_Tmap_traits@KV?$list@PAU_BLOCKCHANNELOP@CChannelMgr@@V?$allocator@PAU_BLOCKCHANNELOP@CChannelMgr@@@std@@@std@@U?$less@K@2@V?$allocator@U?$pair@$$CBKV?$list@PAU_BLOCKCHANNELOP@CChannelMgr@@V?$allocator@PAU_BLOCKCHANNELOP@CChannelMgr@@@std@@@std@@@std@@@2@$0A@@std@@@std@@QBEIXZ 00401d10 f i ChannelMgr.obj
 0001:00000d20       ?_Kfn@?$_Tmap_traits@KV?$list@PAU_BLOCKCHANNELOP@CChannelMgr@@V?$allocator@PAU_BLOCKCHANNELOP@CChannelMgr@@@std@@@std@@U?$less@K@2@V?$allocator@U?$pair@$$CBKV?$list@PAU_BLOCKCHANNELOP@CChannelMgr@@V?$allocator@PAU_BLOCKCHANNELOP@CChannelMgr@@@std@@@std@@@std@@@2@$0A@@std@@SAABKABU?$pair@$$CBKV?$list@PAU_BLOCKCHANNELOP@CChannelMgr@@V?$allocator@PAU_BLOCKCHANNELOP@CChannelMgr@@@std@@@std@@@2@@Z 00401d20 f i ChannelMgr.obj
 0001:00000d30       ??0?$allocator@U?$pair@$$CBKV?$list@PAU_BLOCKCHANNELOP@CChannelMgr@@V?$allocator@PAU_BLOCKCHANNELOP@CChannelMgr@@@std@@@std@@@std@@@std@@QAE@ABV01@@Z 00401d30 f i ChannelMgr.obj
 0001:00000d40       ?deallocate@?$allocator@U_Node@?$_Tree_nod@V?$_Tmap_traits@KV?$list@PAU_BLOCKCHANNELOP@CChannelMgr@@V?$allocator@PAU_BLOCKCHANNELOP@CChannelMgr@@@std@@@std@@U?$less@K@2@V?$allocator@U?$pair@$$CBKV?$list@PAU_BLOCKCHANNELOP@CChannelMgr@@V?$allocator@PAU_BLOCKCHANNELOP@CChannelMgr@@@std@@@std@@@std@@@2@$0A@@std@@@std@@@std@@QAEXPAU_Node@?$_Tree_nod@V?$_Tmap_traits@KV?$list@PAU_BLOCKCHANNELOP@CChannelMgr@@V?$allocator@PAU_BLOCKCHANNELOP@CChannelMgr@@@std@@@std@@U?$less@K@2@V?$allocator@U?$pair@$$CBKV?$list@PAU_BLOCKCHANNELOP@CChannelMgr@@V?$allocator@PAU_BLOCKCHANNELOP@CChannelMgr@@@std@@@std@@@std@@@2@$0A@@std@@@2@I@Z 00401d40 f i ChannelMgr.obj
 0001:00000d50       ?_Isnil@?$_Tree@V?$_Tmap_traits@KUPLAYERINFO@CChannelMgr@@U?$less@K@std@@V?$allocator@U?$pair@$$CBKUPLAYERINFO@CChannelMgr@@@std@@@4@$0A@@std@@@std@@KAAADPAU_Node@?$_Tree_nod@V?$_Tmap_traits@KUPLAYERINFO@CChannelMgr@@U?$less@K@std@@V?$allocator@U?$pair@$$CBKUPLAYERINFO@CChannelMgr@@@std@@@4@$0A@@std@@@2@@Z 00401d50 f i ChannelMgr.obj
 0001:00000d60       ?_Left@?$_Tree@V?$_Tmap_traits@KUPLAYERINFO@CChannelMgr@@U?$less@K@std@@V?$allocator@U?$pair@$$CBKUPLAYERINFO@CChannelMgr@@@std@@@4@$0A@@std@@@std@@KAAAPAU_Node@?$_Tree_nod@V?$_Tmap_traits@KUPLAYERINFO@CChannelMgr@@U?$less@K@std@@V?$allocator@U?$pair@$$CBKUPLAYERINFO@CChannelMgr@@@std@@@4@$0A@@std@@@2@PAU342@@Z 00401d60 f i ChannelMgr.obj
 0001:00000d70       ?_Right@?$_Tree@V?$_Tmap_traits@KUPLAYERINFO@CChannelMgr@@U?$less@K@std@@V?$allocator@U?$pair@$$CBKUPLAYERINFO@CChannelMgr@@@std@@@4@$0A@@std@@@std@@KAAAPAU_Node@?$_Tree_nod@V?$_Tmap_traits@KUPLAYERINFO@CChannelMgr@@U?$less@K@std@@V?$allocator@U?$pair@$$CBKUPLAYERINFO@CChannelMgr@@@std@@@4@$0A@@std@@@2@PAU342@@Z 00401d70 f i ChannelMgr.obj
 0001:00000d80       ?_Myval@?$_Tree@V?$_Tmap_traits@KUPLAYERINFO@CChannelMgr@@U?$less@K@std@@V?$allocator@U?$pair@$$CBKUPLAYERINFO@CChannelMgr@@@std@@@4@$0A@@std@@@std@@KAAAU?$pair@$$CBKUPLAYERINFO@CChannelMgr@@@2@PAU_Node@?$_Tree_nod@V?$_Tmap_traits@KUPLAYERINFO@CChannelMgr@@U?$less@K@std@@V?$allocator@U?$pair@$$CBKUPLAYERINFO@CChannelMgr@@@std@@@4@$0A@@std@@@2@@Z 00401d80 f i ChannelMgr.obj
 0001:00000d90       ?_Rmost@?$_Tree@V?$_Tmap_traits@KUPLAYERINFO@CChannelMgr@@U?$less@K@std@@V?$allocator@U?$pair@$$CBKUPLAYERINFO@CChannelMgr@@@std@@@4@$0A@@std@@@std@@IBEAAPAU_Node@?$_Tree_nod@V?$_Tmap_traits@KUPLAYERINFO@CChannelMgr@@U?$less@K@std@@V?$allocator@U?$pair@$$CBKUPLAYERINFO@CChannelMgr@@@std@@@4@$0A@@std@@@2@XZ 00401d90 f i ChannelMgr.obj
 0001:00000da0       ?_Kfn@?$_Tmap_traits@KUPLAYERINFO@CChannelMgr@@U?$less@K@std@@V?$allocator@U?$pair@$$CBKUPLAYERINFO@CChannelMgr@@@std@@@4@$0A@@std@@SAABKABU?$pair@$$CBKUPLAYERINFO@CChannelMgr@@@2@@Z 00401da0 f i ChannelMgr.obj
 0001:00000db0       ??0?$allocator@U?$pair@$$CBKUPLAYERINFO@CChannelMgr@@@std@@@std@@QAE@XZ 00401db0 f i ChannelMgr.obj
 0001:00000dc0       ?_Prevnode@?$list@UtagPlusSrcInfo@@V?$allocator@UtagPlusSrcInfo@@@std@@@std@@KAAAPAU_Node@?$_List_nod@UtagPlusSrcInfo@@V?$allocator@UtagPlusSrcInfo@@@std@@@2@PAU342@@Z 00401dc0 f i ChannelMgr.obj
 0001:00000dd0       ??0?$allocator@UtagPlusSrcInfo@@@std@@QAE@ABV01@@Z 00401dd0 f i ChannelMgr.obj
 0001:00000de0       ?deallocate@?$allocator@U_Node@?$_List_nod@UtagPlusSrcInfo@@V?$allocator@UtagPlusSrcInfo@@@std@@@std@@@std@@QAEXPAU_Node@?$_List_nod@UtagPlusSrcInfo@@V?$allocator@UtagPlusSrcInfo@@@std@@@2@I@Z 00401de0 f i ChannelMgr.obj
 0001:00000df0       ?_Mynode@?$_Const_iterator@$00@?$list@UtagPlusSrcInfo@@V?$allocator@UtagPlusSrcInfo@@@std@@@std@@QBEPAU_Node@?$_List_nod@UtagPlusSrcInfo@@V?$allocator@UtagPlusSrcInfo@@@std@@@3@XZ 00401df0 f i ChannelMgr.obj
 0001:00000e00       ?_Prevnode@?$list@PAU_BLOCKCHANNELOP@CChannelMgr@@V?$allocator@PAU_BLOCKCHANNELOP@CChannelMgr@@@std@@@std@@KAAAPAU_Node@?$_List_nod@PAU_BLOCKCHANNELOP@CChannelMgr@@V?$allocator@PAU_BLOCKCHANNELOP@CChannelMgr@@@std@@@2@PAU342@@Z 00401e00 f i ChannelMgr.obj
 0001:00000e10       ?_Myval@?$list@PAU_BLOCKCHANNELOP@CChannelMgr@@V?$allocator@PAU_BLOCKCHANNELOP@CChannelMgr@@@std@@@std@@KAAAPAU_BLOCKCHANNELOP@CChannelMgr@@PAU_Node@?$_List_nod@PAU_BLOCKCHANNELOP@CChannelMgr@@V?$allocator@PAU_BLOCKCHANNELOP@CChannelMgr@@@std@@@2@@Z 00401e10 f i ChannelMgr.obj
 0001:00000e20       ??0?$allocator@PAU_BLOCKCHANNELOP@CChannelMgr@@@std@@QAE@XZ 00401e20 f i ChannelMgr.obj
 0001:00000e30       ??E?$_Const_iterator@$00@?$list@PAU_BLOCKCHANNELOP@CChannelMgr@@V?$allocator@PAU_BLOCKCHANNELOP@CChannelMgr@@@std@@@std@@QAEAAV012@XZ 00401e30 f i ChannelMgr.obj
 0001:00000e60       ?_Mynode@?$_Const_iterator@$00@?$list@PAU_BLOCKCHANNELOP@CChannelMgr@@V?$allocator@PAU_BLOCKCHANNELOP@CChannelMgr@@@std@@@std@@QBEPAU_Node@?$_List_nod@PAU_BLOCKCHANNELOP@CChannelMgr@@V?$allocator@PAU_BLOCKCHANNELOP@CChannelMgr@@@std@@@3@XZ 00401e60 f i ChannelMgr.obj
 0001:00000e70       ??0?$pair@Viterator@?$_Tree@V?$_Tmap_traits@V?$basic_string@DU?$char_traits@D@std@@V?$allocator@D@2@@std@@KU_tstring_less@@V?$allocator@U?$pair@$$CBV?$basic_string@DU?$char_traits@D@std@@V?$allocator@D@2@@std@@K@std@@@2@$0A@@std@@@std@@V123@@std@@QAE@ABViterator@?$_Tree@V?$_Tmap_traits@V?$basic_string@DU?$char_traits@D@std@@V?$allocator@D@2@@std@@KU_tstring_less@@V?$allocator@U?$pair@$$CBV?$basic_string@DU?$char_traits@D@std@@V?$allocator@D@2@@std@@K@std@@@2@$0A@@std@@@1@0@Z 00401e70 f i ChannelMgr.obj
 0001:00000ea0       ??0?$pair@Viterator@?$_Tree@V?$_Tmap_traits@KUPLAYERINFO@CChannelMgr@@U?$less@K@std@@V?$allocator@U?$pair@$$CBKUPLAYERINFO@CChannelMgr@@@std@@@4@$0A@@std@@@std@@V123@@std@@QAE@ABViterator@?$_Tree@V?$_Tmap_traits@KUPLAYERINFO@CChannelMgr@@U?$less@K@std@@V?$allocator@U?$pair@$$CBKUPLAYERINFO@CChannelMgr@@@std@@@4@$0A@@std@@@1@0@Z 00401ea0 f i ChannelMgr.obj
 0001:00000ed0       ??0?$_Bidit@U?$pair@$$CBKUCHANNINFO@CChannelMgr@@@std@@HPBU12@ABU12@@std@@QAE@XZ 00401ed0 f i ChannelMgr.obj
 0001:00000ee0       ??0?$_Bidit@U?$pair@$$CBV?$basic_string@DU?$char_traits@D@std@@V?$allocator@D@2@@std@@K@std@@HPBU12@ABU12@@std@@QAE@XZ 00401ee0 f i ChannelMgr.obj
 0001:00000ef0       ??0?$_Bidit@U?$pair@$$CBKV?$map@KUPLAYERINFO@CChannelMgr@@U?$less@K@std@@V?$allocator@U?$pair@$$CBKUPLAYERINFO@CChannelMgr@@@std@@@4@@std@@@std@@HPBU12@ABU12@@std@@QAE@XZ 00401ef0 f i ChannelMgr.obj
 0001:00000f00       ??0?$_Bidit@U?$pair@$$CBKUPLAYERINFO@CChannelMgr@@@std@@HPBU12@ABU12@@std@@QAE@XZ 00401f00 f i ChannelMgr.obj
 0001:00000f10       ??0?$_Bidit@U?$pair@$$CBKV?$list@PAU_BLOCKCHANNELOP@CChannelMgr@@V?$allocator@PAU_BLOCKCHANNELOP@CChannelMgr@@@std@@@std@@@std@@HPBU12@ABU12@@std@@QAE@XZ 00401f10 f i ChannelMgr.obj
 0001:00000f20       ??0?$_Bidit@PAU_BLOCKCHANNELOP@CChannelMgr@@HPBQAU12@ABQAU12@@std@@QAE@XZ 00401f20 f i ChannelMgr.obj
 0001:00000f30       ?key_comp@?$_Tree@V?$_Tmap_traits@KV?$map@KUPLAYERINFO@CChannelMgr@@U?$less@K@std@@V?$allocator@U?$pair@$$CBKUPLAYERINFO@CChannelMgr@@@std@@@4@@std@@U?$less@K@2@V?$allocator@U?$pair@$$CBKV?$map@KUPLAYERINFO@CChannelMgr@@U?$less@K@std@@V?$allocator@U?$pair@$$CBKUPLAYERINFO@CChannelMgr@@@std@@@4@@std@@@std@@@2@$0A@@std@@@std@@QBE?AU?$less@K@2@XZ 00401f30 f i ChannelMgr.obj
 0001:00000f40       ??0?$allocator@U?$pair@$$CBKV?$map@KUPLAYERINFO@CChannelMgr@@U?$less@K@std@@V?$allocator@U?$pair@$$CBKUPLAYERINFO@CChannelMgr@@@std@@@4@@std@@@std@@@std@@QAE@ABV01@@Z 00401f40 f i ChannelMgr.obj
 0001:00000f50       ?_Color@?$_Tree@V?$_Tmap_traits@V?$basic_string@DU?$char_traits@D@std@@V?$allocator@D@2@@std@@KU_tstring_less@@V?$allocator@U?$pair@$$CBV?$basic_string@DU?$char_traits@D@std@@V?$allocator@D@2@@std@@K@std@@@2@$0A@@std@@@std@@KAAADPAU_Node@?$_Tree_nod@V?$_Tmap_traits@V?$basic_string@DU?$char_traits@D@std@@V?$allocator@D@2@@std@@KU_tstring_less@@V?$allocator@U?$pair@$$CBV?$basic_string@DU?$char_traits@D@std@@V?$allocator@D@2@@std@@K@std@@@2@$0A@@std@@@2@@Z 00401f50 f i ChannelMgr.obj
 0001:00000f60       ?_Max@?$_Tree@V?$_Tmap_traits@V?$basic_string@DU?$char_traits@D@std@@V?$allocator@D@2@@std@@KU_tstring_less@@V?$allocator@U?$pair@$$CBV?$basic_string@DU?$char_traits@D@std@@V?$allocator@D@2@@std@@K@std@@@2@$0A@@std@@@std@@KAPAU_Node@?$_Tree_nod@V?$_Tmap_traits@V?$basic_string@DU?$char_traits@D@std@@V?$allocator@D@2@@std@@KU_tstring_less@@V?$allocator@U?$pair@$$CBV?$basic_string@DU?$char_traits@D@std@@V?$allocator@D@2@@std@@K@std@@@2@$0A@@std@@@2@PAU342@@Z 00401f60 f i ChannelMgr.obj
 0001:00000f80       ?_Min@?$_Tree@V?$_Tmap_traits@V?$basic_string@DU?$char_traits@D@std@@V?$allocator@D@2@@std@@KU_tstring_less@@V?$allocator@U?$pair@$$CBV?$basic_string@DU?$char_traits@D@std@@V?$allocator@D@2@@std@@K@std@@@2@$0A@@std@@@std@@KAPAU_Node@?$_Tree_nod@V?$_Tmap_traits@V?$basic_string@DU?$char_traits@D@std@@V?$allocator@D@2@@std@@KU_tstring_less@@V?$allocator@U?$pair@$$CBV?$basic_string@DU?$char_traits@D@std@@V?$allocator@D@2@@std@@K@std@@@2@$0A@@std@@@2@PAU342@@Z 00401f80 f i ChannelMgr.obj
 0001:00000fa0       ?_Color@?$_Tree@V?$_Tmap_traits@KV?$list@PAU_BLOCKCHANNELOP@CChannelMgr@@V?$allocator@PAU_BLOCKCHANNELOP@CChannelMgr@@@std@@@std@@U?$less@K@2@V?$allocator@U?$pair@$$CBKV?$list@PAU_BLOCKCHANNELOP@CChannelMgr@@V?$allocator@PAU_BLOCKCHANNELOP@CChannelMgr@@@std@@@std@@@std@@@2@$0A@@std@@@std@@KAAADPAU_Node@?$_Tree_nod@V?$_Tmap_traits@KV?$list@PAU_BLOCKCHANNELOP@CChannelMgr@@V?$allocator@PAU_BLOCKCHANNELOP@CChannelMgr@@@std@@@std@@U?$less@K@2@V?$allocator@U?$pair@$$CBKV?$list@PAU_BLOCKCHANNELOP@CChannelMgr@@V?$allocator@PAU_BLOCKCHANNELOP@CChannelMgr@@@std@@@std@@@std@@@2@$0A@@std@@@2@@Z 00401fa0 f i ChannelMgr.obj
 0001:00000fb0       ??0const_iterator@?$_Tree@V?$_Tmap_traits@KUCHANNINFO@CChannelMgr@@U?$less@K@std@@V?$allocator@U?$pair@$$CBKUCHANNINFO@CChannelMgr@@@std@@@4@$0A@@std@@@std@@QAE@XZ 00401fb0 f i ChannelMgr.obj
 0001:00000fc0       ?_Inc@const_iterator@?$_Tree@V?$_Tmap_traits@KUCHANNINFO@CChannelMgr@@U?$less@K@std@@V?$allocator@U?$pair@$$CBKUCHANNINFO@CChannelMgr@@@std@@@4@$0A@@std@@@std@@QAEXXZ 00401fc0 f i ChannelMgr.obj
 0001:00001030       ??0const_iterator@?$_Tree@V?$_Tmap_traits@V?$basic_string@DU?$char_traits@D@std@@V?$allocator@D@2@@std@@KU_tstring_less@@V?$allocator@U?$pair@$$CBV?$basic_string@DU?$char_traits@D@std@@V?$allocator@D@2@@std@@K@std@@@2@$0A@@std@@@std@@QAE@XZ 00402030 f i ChannelMgr.obj
 0001:00001040       ??0const_iterator@?$_Tree@V?$_Tmap_traits@KV?$map@KUPLAYERINFO@CChannelMgr@@U?$less@K@std@@V?$allocator@U?$pair@$$CBKUPLAYERINFO@CChannelMgr@@@std@@@4@@std@@U?$less@K@2@V?$allocator@U?$pair@$$CBKV?$map@KUPLAYERINFO@CChannelMgr@@U?$less@K@std@@V?$allocator@U?$pair@$$CBKUPLAYERINFO@CChannelMgr@@@std@@@4@@std@@@std@@@2@$0A@@std@@@std@@QAE@XZ 00402040 f i ChannelMgr.obj
 0001:00001050       ?_Inc@const_iterator@?$_Tree@V?$_Tmap_traits@KV?$map@KUPLAYERINFO@CChannelMgr@@U?$less@K@std@@V?$allocator@U?$pair@$$CBKUPLAYERINFO@CChannelMgr@@@std@@@4@@std@@U?$less@K@2@V?$allocator@U?$pair@$$CBKV?$map@KUPLAYERINFO@CChannelMgr@@U?$less@K@std@@V?$allocator@U?$pair@$$CBKUPLAYERINFO@CChannelMgr@@@std@@@4@@std@@@std@@@2@$0A@@std@@@std@@QAEXXZ 00402050 f i ChannelMgr.obj
 0001:000010c0       ?_Color@?$_Tree@V?$_Tmap_traits@KUPLAYERINFO@CChannelMgr@@U?$less@K@std@@V?$allocator@U?$pair@$$CBKUPLAYERINFO@CChannelMgr@@@std@@@4@$0A@@std@@@std@@KAAADPAU_Node@?$_Tree_nod@V?$_Tmap_traits@KUPLAYERINFO@CChannelMgr@@U?$less@K@std@@V?$allocator@U?$pair@$$CBKUPLAYERINFO@CChannelMgr@@@std@@@4@$0A@@std@@@2@@Z 004020c0 f i ChannelMgr.obj
 0001:000010d0       ?_Parent@?$_Tree@V?$_Tmap_traits@KUPLAYERINFO@CChannelMgr@@U?$less@K@std@@V?$allocator@U?$pair@$$CBKUPLAYERINFO@CChannelMgr@@@std@@@4@$0A@@std@@@std@@KAAAPAU_Node@?$_Tree_nod@V?$_Tmap_traits@KUPLAYERINFO@CChannelMgr@@U?$less@K@std@@V?$allocator@U?$pair@$$CBKUPLAYERINFO@CChannelMgr@@@std@@@4@$0A@@std@@@2@PAU342@@Z 004020d0 f i ChannelMgr.obj
 0001:000010e0       ?key_comp@?$_Tree@V?$_Tmap_traits@KUPLAYERINFO@CChannelMgr@@U?$less@K@std@@V?$allocator@U?$pair@$$CBKUPLAYERINFO@CChannelMgr@@@std@@@4@$0A@@std@@@std@@QBE?AU?$less@K@2@XZ 004020e0 f i ChannelMgr.obj
 0001:000010f0       ?_Max@?$_Tree@V?$_Tmap_traits@KUPLAYERINFO@CChannelMgr@@U?$less@K@std@@V?$allocator@U?$pair@$$CBKUPLAYERINFO@CChannelMgr@@@std@@@4@$0A@@std@@@std@@KAPAU_Node@?$_Tree_nod@V?$_Tmap_traits@KUPLAYERINFO@CChannelMgr@@U?$less@K@std@@V?$allocator@U?$pair@$$CBKUPLAYERINFO@CChannelMgr@@@std@@@4@$0A@@std@@@2@PAU342@@Z 004020f0 f i ChannelMgr.obj
 0001:00001110       ?_Min@?$_Tree@V?$_Tmap_traits@KUPLAYERINFO@CChannelMgr@@U?$less@K@std@@V?$allocator@U?$pair@$$CBKUPLAYERINFO@CChannelMgr@@@std@@@4@$0A@@std@@@std@@KAPAU_Node@?$_Tree_nod@V?$_Tmap_traits@KUPLAYERINFO@CChannelMgr@@U?$less@K@std@@V?$allocator@U?$pair@$$CBKUPLAYERINFO@CChannelMgr@@@std@@@4@$0A@@std@@@2@PAU342@@Z 00402110 f i ChannelMgr.obj
 0001:00001130       ?_Root@?$_Tree@V?$_Tmap_traits@KUPLAYERINFO@CChannelMgr@@U?$less@K@std@@V?$allocator@U?$pair@$$CBKUPLAYERINFO@CChannelMgr@@@std@@@4@$0A@@std@@@std@@IBEAAPAU_Node@?$_Tree_nod@V?$_Tmap_traits@KUPLAYERINFO@CChannelMgr@@U?$less@K@std@@V?$allocator@U?$pair@$$CBKUPLAYERINFO@CChannelMgr@@@std@@@4@$0A@@std@@@2@XZ 00402130 f i ChannelMgr.obj
 0001:00001140       ?_Rrotate@?$_Tree@V?$_Tmap_traits@KUPLAYERINFO@CChannelMgr@@U?$less@K@std@@V?$allocator@U?$pair@$$CBKUPLAYERINFO@CChannelMgr@@@std@@@4@$0A@@std@@@std@@IAEXPAU_Node@?$_Tree_nod@V?$_Tmap_traits@KUPLAYERINFO@CChannelMgr@@U?$less@K@std@@V?$allocator@U?$pair@$$CBKUPLAYERINFO@CChannelMgr@@@std@@@4@$0A@@std@@@2@@Z 00402140 f i ChannelMgr.obj
 0001:000011a0       ??0?$allocator@U?$pair@$$CBKUPLAYERINFO@CChannelMgr@@@std@@@std@@QAE@ABV01@@Z 004021a0 f i ChannelMgr.obj
 0001:000011b0       ?deallocate@?$allocator@U_Node@?$_Tree_nod@V?$_Tmap_traits@KUPLAYERINFO@CChannelMgr@@U?$less@K@std@@V?$allocator@U?$pair@$$CBKUPLAYERINFO@CChannelMgr@@@std@@@4@$0A@@std@@@std@@@std@@QAEXPAU_Node@?$_Tree_nod@V?$_Tmap_traits@KUPLAYERINFO@CChannelMgr@@U?$less@K@std@@V?$allocator@U?$pair@$$CBKUPLAYERINFO@CChannelMgr@@@std@@@4@$0A@@std@@@2@I@Z 004021b0 f i ChannelMgr.obj
 0001:000011c0       ??0const_iterator@?$_Tree@V?$_Tmap_traits@KUPLAYERINFO@CChannelMgr@@U?$less@K@std@@V?$allocator@U?$pair@$$CBKUPLAYERINFO@CChannelMgr@@@std@@@4@$0A@@std@@@std@@QAE@XZ 004021c0 f i ChannelMgr.obj
 0001:000011d0       ?_Inc@const_iterator@?$_Tree@V?$_Tmap_traits@KUPLAYERINFO@CChannelMgr@@U?$less@K@std@@V?$allocator@U?$pair@$$CBKUPLAYERINFO@CChannelMgr@@@std@@@4@$0A@@std@@@std@@QAEXXZ 004021d0 f i ChannelMgr.obj
 0001:00001240       ??0?$allocator@PAU_BLOCKCHANNELOP@CChannelMgr@@@std@@QAE@ABV01@@Z 00402240 f i ChannelMgr.obj
 0001:00001250       ?deallocate@?$allocator@U_Node@?$_List_nod@PAU_BLOCKCHANNELOP@CChannelMgr@@V?$allocator@PAU_BLOCKCHANNELOP@CChannelMgr@@@std@@@std@@@std@@QAEXPAU_Node@?$_List_nod@PAU_BLOCKCHANNELOP@CChannelMgr@@V?$allocator@PAU_BLOCKCHANNELOP@CChannelMgr@@@std@@@2@I@Z 00402250 f i ChannelMgr.obj
 0001:00001260       ??0const_iterator@?$_Tree@V?$_Tmap_traits@KV?$list@PAU_BLOCKCHANNELOP@CChannelMgr@@V?$allocator@PAU_BLOCKCHANNELOP@CChannelMgr@@@std@@@std@@U?$less@K@2@V?$allocator@U?$pair@$$CBKV?$list@PAU_BLOCKCHANNELOP@CChannelMgr@@V?$allocator@PAU_BLOCKCHANNELOP@CChannelMgr@@@std@@@std@@@std@@@2@$0A@@std@@@std@@QAE@XZ 00402260 f i ChannelMgr.obj
 0001:00001270       ??0?$pair@Viterator@?$_Tree@V?$_Tmap_traits@KV?$map@KUPLAYERINFO@CChannelMgr@@U?$less@K@std@@V?$allocator@U?$pair@$$CBKUPLAYERINFO@CChannelMgr@@@std@@@4@@std@@U?$less@K@2@V?$allocator@U?$pair@$$CBKV?$map@KUPLAYERINFO@CChannelMgr@@U?$less@K@std@@V?$allocator@U?$pair@$$CBKUPLAYERINFO@CChannelMgr@@@std@@@4@@std@@@std@@@2@$0A@@std@@@std@@_N@std@@QAE@ABViterator@?$_Tree@V?$_Tmap_traits@KV?$map@KUPLAYERINFO@CChannelMgr@@U?$less@K@std@@V?$allocator@U?$pair@$$CBKUPLAYERINFO@CChannelMgr@@@std@@@4@@std@@U?$less@K@2@V?$allocator@U?$pair@$$CBKV?$map@KUPLAYERINFO@CChannelMgr@@U?$less@K@std@@V?$allocator@U?$pair@$$CBKUPLAYERINFO@CChannelMgr@@@std@@@4@@std@@@std@@@2@$0A@@std@@@1@AB_N@Z 00402270 f i ChannelMgr.obj
 0001:00001290       ??0?$pair@Viterator@?$_Tree@V?$_Tmap_traits@KUCHANNINFO@CChannelMgr@@U?$less@K@std@@V?$allocator@U?$pair@$$CBKUCHANNINFO@CChannelMgr@@@std@@@4@$0A@@std@@@std@@_N@std@@QAE@ABViterator@?$_Tree@V?$_Tmap_traits@KUCHANNINFO@CChannelMgr@@U?$less@K@std@@V?$allocator@U?$pair@$$CBKUCHANNINFO@CChannelMgr@@@std@@@4@$0A@@std@@@1@AB_N@Z 00402290 f i ChannelMgr.obj
 0001:000012b0       ??0?$pair@Viterator@?$_Tree@V?$_Tmap_traits@V?$basic_string@DU?$char_traits@D@std@@V?$allocator@D@2@@std@@KU_tstring_less@@V?$allocator@U?$pair@$$CBV?$basic_string@DU?$char_traits@D@std@@V?$allocator@D@2@@std@@K@std@@@2@$0A@@std@@@std@@_N@std@@QAE@ABViterator@?$_Tree@V?$_Tmap_traits@V?$basic_string@DU?$char_traits@D@std@@V?$allocator@D@2@@std@@KU_tstring_less@@V?$allocator@U?$pair@$$CBV?$basic_string@DU?$char_traits@D@std@@V?$allocator@D@2@@std@@K@std@@@2@$0A@@std@@@1@AB_N@Z 004022b0 f i ChannelMgr.obj
 0001:000012d0       ??0?$pair@Viterator@?$_Tree@V?$_Tmap_traits@KV?$list@PAU_BLOCKCHANNELOP@CChannelMgr@@V?$allocator@PAU_BLOCKCHANNELOP@CChannelMgr@@@std@@@std@@U?$less@K@2@V?$allocator@U?$pair@$$CBKV?$list@PAU_BLOCKCHANNELOP@CChannelMgr@@V?$allocator@PAU_BLOCKCHANNELOP@CChannelMgr@@@std@@@std@@@std@@@2@$0A@@std@@@std@@_N@std@@QAE@ABViterator@?$_Tree@V?$_Tmap_traits@KV?$list@PAU_BLOCKCHANNELOP@CChannelMgr@@V?$allocator@PAU_BLOCKCHANNELOP@CChannelMgr@@@std@@@std@@U?$less@K@2@V?$allocator@U?$pair@$$CBKV?$list@PAU_BLOCKCHANNELOP@CChannelMgr@@V?$allocator@PAU_BLOCKCHANNELOP@CChannelMgr@@@std@@@std@@@std@@@2@$0A@@std@@@1@AB_N@Z 004022d0 f i ChannelMgr.obj
 0001:000012f0       ??0?$pair@Viterator@?$_Tree@V?$_Tmap_traits@KUPLAYERINFO@CChannelMgr@@U?$less@K@std@@V?$allocator@U?$pair@$$CBKUPLAYERINFO@CChannelMgr@@@std@@@4@$0A@@std@@@std@@_N@std@@QAE@ABViterator@?$_Tree@V?$_Tmap_traits@KUPLAYERINFO@CChannelMgr@@U?$less@K@std@@V?$allocator@U?$pair@$$CBKUPLAYERINFO@CChannelMgr@@@std@@@4@$0A@@std@@@1@AB_N@Z 004022f0 f i ChannelMgr.obj
 0001:00001310       ?max_size@?$allocator@U?$pair@$$CBKV?$map@KUPLAYERINFO@CChannelMgr@@U?$less@K@std@@V?$allocator@U?$pair@$$CBKUPLAYERINFO@CChannelMgr@@@std@@@4@@std@@@std@@@std@@QBEIXZ 00402310 f i ChannelMgr.obj
 0001:00001320       ?max_size@?$allocator@U?$pair@$$CBKUCHANNINFO@CChannelMgr@@@std@@@std@@QBEIXZ 00402320 f i ChannelMgr.obj
 0001:00001330       ?max_size@?$allocator@U?$pair@$$CBV?$basic_string@DU?$char_traits@D@std@@V?$allocator@D@2@@std@@K@std@@@std@@QBEIXZ 00402330 f i ChannelMgr.obj
 0001:00001340       ?_Max@?$_Tree@V?$_Tmap_traits@KV?$list@PAU_BLOCKCHANNELOP@CChannelMgr@@V?$allocator@PAU_BLOCKCHANNELOP@CChannelMgr@@@std@@@std@@U?$less@K@2@V?$allocator@U?$pair@$$CBKV?$list@PAU_BLOCKCHANNELOP@CChannelMgr@@V?$allocator@PAU_BLOCKCHANNELOP@CChannelMgr@@@std@@@std@@@std@@@2@$0A@@std@@@std@@KAPAU_Node@?$_Tree_nod@V?$_Tmap_traits@KV?$list@PAU_BLOCKCHANNELOP@CChannelMgr@@V?$allocator@PAU_BLOCKCHANNELOP@CChannelMgr@@@std@@@std@@U?$less@K@2@V?$allocator@U?$pair@$$CBKV?$list@PAU_BLOCKCHANNELOP@CChannelMgr@@V?$allocator@PAU_BLOCKCHANNELOP@CChannelMgr@@@std@@@std@@@std@@@2@$0A@@std@@@2@PAU342@@Z 00402340 f i ChannelMgr.obj
 0001:00001360       ?_Min@?$_Tree@V?$_Tmap_traits@KV?$list@PAU_BLOCKCHANNELOP@CChannelMgr@@V?$allocator@PAU_BLOCKCHANNELOP@CChannelMgr@@@std@@@std@@U?$less@K@2@V?$allocator@U?$pair@$$CBKV?$list@PAU_BLOCKCHANNELOP@CChannelMgr@@V?$allocator@PAU_BLOCKCHANNELOP@CChannelMgr@@@std@@@std@@@std@@@2@$0A@@std@@@std@@KAPAU_Node@?$_Tree_nod@V?$_Tmap_traits@KV?$list@PAU_BLOCKCHANNELOP@CChannelMgr@@V?$allocator@PAU_BLOCKCHANNELOP@CChannelMgr@@@std@@@std@@U?$less@K@2@V?$allocator@U?$pair@$$CBKV?$list@PAU_BLOCKCHANNELOP@CChannelMgr@@V?$allocator@PAU_BLOCKCHANNELOP@CChannelMgr@@@std@@@std@@@std@@@2@$0A@@std@@@2@PAU342@@Z 00402360 f i ChannelMgr.obj
 0001:00001380       ?max_size@?$allocator@U?$pair@$$CBKV?$list@PAU_BLOCKCHANNELOP@CChannelMgr@@V?$allocator@PAU_BLOCKCHANNELOP@CChannelMgr@@@std@@@std@@@std@@@std@@QBEIXZ 00402380 f i ChannelMgr.obj
 0001:00001390       ?_Dec@const_iterator@?$_Tree@V?$_Tmap_traits@KUCHANNINFO@CChannelMgr@@U?$less@K@std@@V?$allocator@U?$pair@$$CBKUCHANNINFO@CChannelMgr@@@std@@@4@$0A@@std@@@std@@QAEXXZ 00402390 f i ChannelMgr.obj
 0001:00001420       ?_Dec@const_iterator@?$_Tree@V?$_Tmap_traits@V?$basic_string@DU?$char_traits@D@std@@V?$allocator@D@2@@std@@KU_tstring_less@@V?$allocator@U?$pair@$$CBV?$basic_string@DU?$char_traits@D@std@@V?$allocator@D@2@@std@@K@std@@@2@$0A@@std@@@std@@QAEXXZ 00402420 f i ChannelMgr.obj
 0001:000014b0       ?_Inc@const_iterator@?$_Tree@V?$_Tmap_traits@V?$basic_string@DU?$char_traits@D@std@@V?$allocator@D@2@@std@@KU_tstring_less@@V?$allocator@U?$pair@$$CBV?$basic_string@DU?$char_traits@D@std@@V?$allocator@D@2@@std@@K@std@@@2@$0A@@std@@@std@@QAEXXZ 004024b0 f i ChannelMgr.obj
 0001:00001520       ?_Dec@const_iterator@?$_Tree@V?$_Tmap_traits@KV?$map@KUPLAYERINFO@CChannelMgr@@U?$less@K@std@@V?$allocator@U?$pair@$$CBKUPLAYERINFO@CChannelMgr@@@std@@@4@@std@@U?$less@K@2@V?$allocator@U?$pair@$$CBKV?$map@KUPLAYERINFO@CChannelMgr@@U?$less@K@std@@V?$allocator@U?$pair@$$CBKUPLAYERINFO@CChannelMgr@@@std@@@4@@std@@@std@@@2@$0A@@std@@@std@@QAEXXZ 00402520 f i ChannelMgr.obj
 0001:000015b0       ?max_size@?$allocator@U?$pair@$$CBKUPLAYERINFO@CChannelMgr@@@std@@@std@@QBEIXZ 004025b0 f i ChannelMgr.obj
 0001:000015c0       ?_Dec@const_iterator@?$_Tree@V?$_Tmap_traits@KUPLAYERINFO@CChannelMgr@@U?$less@K@std@@V?$allocator@U?$pair@$$CBKUPLAYERINFO@CChannelMgr@@@std@@@4@$0A@@std@@@std@@QAEXXZ 004025c0 f i ChannelMgr.obj
 0001:00001650       ?max_size@?$allocator@UtagPlusSrcInfo@@@std@@QBEIXZ 00402650 f i ChannelMgr.obj
 0001:00001660       ?max_size@?$allocator@PAU_BLOCKCHANNELOP@CChannelMgr@@@std@@QBEIXZ 00402660 f i ChannelMgr.obj
 0001:00001670       ?_Dec@const_iterator@?$_Tree@V?$_Tmap_traits@KV?$list@PAU_BLOCKCHANNELOP@CChannelMgr@@V?$allocator@PAU_BLOCKCHANNELOP@CChannelMgr@@@std@@@std@@U?$less@K@2@V?$allocator@U?$pair@$$CBKV?$list@PAU_BLOCKCHANNELOP@CChannelMgr@@V?$allocator@PAU_BLOCKCHANNELOP@CChannelMgr@@@std@@@std@@@std@@@2@$0A@@std@@@std@@QAEXXZ 00402670 f i ChannelMgr.obj
 0001:00001700       ??0_Node@?$_Tree_nod@V?$_Tmap_traits@KUPLAYERINFO@CChannelMgr@@U?$less@K@std@@V?$allocator@U?$pair@$$CBKUPLAYERINFO@CChannelMgr@@@std@@@4@$0A@@std@@@std@@QAE@PAU012@00ABU?$pair@$$CBKUPLAYERINFO@CChannelMgr@@@2@D@Z 00402700 f i ChannelMgr.obj
 0001:00001740       ??0?$_Tmap_traits@KUCHANNINFO@CChannelMgr@@U?$less@K@std@@V?$allocator@U?$pair@$$CBKUCHANNINFO@CChannelMgr@@@std@@@4@$0A@@std@@QAE@U?$less@K@1@@Z 00402740 f i ChannelMgr.obj
 0001:00001750       ??0?$_Tmap_traits@V?$basic_string@DU?$char_traits@D@std@@V?$allocator@D@2@@std@@KU_tstring_less@@V?$allocator@U?$pair@$$CBV?$basic_string@DU?$char_traits@D@std@@V?$allocator@D@2@@std@@K@std@@@2@$0A@@std@@QAE@U_tstring_less@@@Z 00402750 f i ChannelMgr.obj
 0001:00001760       ??0?$_Tmap_traits@KV?$list@PAU_BLOCKCHANNELOP@CChannelMgr@@V?$allocator@PAU_BLOCKCHANNELOP@CChannelMgr@@@std@@@std@@U?$less@K@2@V?$allocator@U?$pair@$$CBKV?$list@PAU_BLOCKCHANNELOP@CChannelMgr@@V?$allocator@PAU_BLOCKCHANNELOP@CChannelMgr@@@std@@@std@@@std@@@2@$0A@@std@@QAE@U?$less@K@1@@Z 00402760 f i ChannelMgr.obj
 0001:00001770       ??0?$_Tmap_traits@KV?$map@KUPLAYERINFO@CChannelMgr@@U?$less@K@std@@V?$allocator@U?$pair@$$CBKUPLAYERINFO@CChannelMgr@@@std@@@4@@std@@U?$less@K@2@V?$allocator@U?$pair@$$CBKV?$map@KUPLAYERINFO@CChannelMgr@@U?$less@K@std@@V?$allocator@U?$pair@$$CBKUPLAYERINFO@CChannelMgr@@@std@@@4@@std@@@std@@@2@$0A@@std@@QAE@U?$less@K@1@@Z 00402770 f i ChannelMgr.obj
 0001:00001780       ??0?$_Tmap_traits@KUPLAYERINFO@CChannelMgr@@U?$less@K@std@@V?$allocator@U?$pair@$$CBKUPLAYERINFO@CChannelMgr@@@std@@@4@$0A@@std@@QAE@U?$less@K@1@@Z 00402780 f i ChannelMgr.obj
 0001:00001790       ??$_Char_traits_cat@U?$char_traits@D@std@@@std@@YA?AU_Secure_char_traits_tag@0@XZ 00402790 f i ChannelMgr.obj
 0001:000017a0       ??$copy_s@U?$char_traits@D@std@@@_Traits_helper@std@@YAPADPADIPBDIU_Secure_char_traits_tag@1@@Z 004027a0 f i ChannelMgr.obj
 0001:000017d0       ??$move_s@U?$char_traits@D@std@@@_Traits_helper@std@@YAPADPADIPBDIU_Secure_char_traits_tag@1@@Z 004027d0 f i ChannelMgr.obj
 0001:00001820       ??$swap@D@std@@YAXAAD0@Z   00402820 f i ChannelMgr.obj
 0001:00001840       ??$_Allocate@UBLOCKCHANNELOP_QID@CChannelMgr@@@std@@YAPAUBLOCKCHANNELOP_QID@CChannelMgr@@IPAU12@@Z 00402840 f i ChannelMgr.obj
 0001:000018a0       ??$_Allocate@UBLOCKCHANNELOP_CMN@CChannelMgr@@@std@@YAPAUBLOCKCHANNELOP_CMN@CChannelMgr@@IPAU12@@Z 004028a0 f i ChannelMgr.obj
 0001:00001900       ??$_Allocate@UBLOCKCHANNELOP_CLR@CChannelMgr@@@std@@YAPAUBLOCKCHANNELOP_CLR@CChannelMgr@@IPAU12@@Z 00402900 f i ChannelMgr.obj
 0001:00001960       ??$_Destroy@PAU_Node@?$_Tree_nod@V?$_Tmap_traits@KUCHANNINFO@CChannelMgr@@U?$less@K@std@@V?$allocator@U?$pair@$$CBKUCHANNINFO@CChannelMgr@@@std@@@4@$0A@@std@@@std@@@std@@YAXPAPAU_Node@?$_Tree_nod@V?$_Tmap_traits@KUCHANNINFO@CChannelMgr@@U?$less@K@std@@V?$allocator@U?$pair@$$CBKUCHANNINFO@CChannelMgr@@@std@@@4@$0A@@std@@@0@@Z 00402960 f i ChannelMgr.obj
 0001:00001970       ??$_Destroy@PAU_Node@?$_Tree_nod@V?$_Tmap_traits@V?$basic_string@DU?$char_traits@D@std@@V?$allocator@D@2@@std@@KU_tstring_less@@V?$allocator@U?$pair@$$CBV?$basic_string@DU?$char_traits@D@std@@V?$allocator@D@2@@std@@K@std@@@2@$0A@@std@@@std@@@std@@YAXPAPAU_Node@?$_Tree_nod@V?$_Tmap_traits@V?$basic_string@DU?$char_traits@D@std@@V?$allocator@D@2@@std@@KU_tstring_less@@V?$allocator@U?$pair@$$CBV?$basic_string@DU?$char_traits@D@std@@V?$allocator@D@2@@std@@K@std@@@2@$0A@@std@@@0@@Z 00402970 f i ChannelMgr.obj
 0001:00001980       ??$_Destroy@PAU_Node@?$_Tree_nod@V?$_Tmap_traits@KV?$list@PAU_BLOCKCHANNELOP@CChannelMgr@@V?$allocator@PAU_BLOCKCHANNELOP@CChannelMgr@@@std@@@std@@U?$less@K@2@V?$allocator@U?$pair@$$CBKV?$list@PAU_BLOCKCHANNELOP@CChannelMgr@@V?$allocator@PAU_BLOCKCHANNELOP@CChannelMgr@@@std@@@std@@@std@@@2@$0A@@std@@@std@@@std@@YAXPAPAU_Node@?$_Tree_nod@V?$_Tmap_traits@KV?$list@PAU_BLOCKCHANNELOP@CChannelMgr@@V?$allocator@PAU_BLOCKCHANNELOP@CChannelMgr@@@std@@@std@@U?$less@K@2@V?$allocator@U?$pair@$$CBKV?$list@PAU_BLOCKCHANNELOP@CChannelMgr@@V?$allocator@PAU_BLOCKCHANNELOP@CChannelMgr@@@std@@@std@@@std@@@2@$0A@@std@@@0@@Z 00402980 f i ChannelMgr.obj
 0001:00001990       ??$?0UtagPlusSrcInfo@@@?$allocator@PAU_Node@?$_List_nod@UtagPlusSrcInfo@@V?$allocator@UtagPlusSrcInfo@@@std@@@std@@@std@@QAE@ABV?$allocator@UtagPlusSrcInfo@@@1@@Z 00402990 f i ChannelMgr.obj
 0001:000019a0       ??$_Allocate@U_Node@?$_List_nod@UtagPlusSrcInfo@@V?$allocator@UtagPlusSrcInfo@@@std@@@std@@@std@@YAPAU_Node@?$_List_nod@UtagPlusSrcInfo@@V?$allocator@UtagPlusSrcInfo@@@std@@@0@IPAU120@@Z 004029a0 f i ChannelMgr.obj
 0001:00001a00       ??$_Construct@PAU_Node@?$_List_nod@UtagPlusSrcInfo@@V?$allocator@UtagPlusSrcInfo@@@std@@@std@@PAU123@@std@@YAXPAPAU_Node@?$_List_nod@UtagPlusSrcInfo@@V?$allocator@UtagPlusSrcInfo@@@std@@@0@ABQAU120@@Z 00402a00 f i ChannelMgr.obj
 0001:00001a20       ??$_Destroy@PAU_Node@?$_List_nod@UtagPlusSrcInfo@@V?$allocator@UtagPlusSrcInfo@@@std@@@std@@@std@@YAXPAPAU_Node@?$_List_nod@UtagPlusSrcInfo@@V?$allocator@UtagPlusSrcInfo@@@std@@@0@@Z 00402a20 f i ChannelMgr.obj
 0001:00001a30       ??$_Destroy@PAU_Node@?$_Tree_nod@V?$_Tmap_traits@KV?$map@KUPLAYERINFO@CChannelMgr@@U?$less@K@std@@V?$allocator@U?$pair@$$CBKUPLAYERINFO@CChannelMgr@@@std@@@4@@std@@U?$less@K@2@V?$allocator@U?$pair@$$CBKV?$map@KUPLAYERINFO@CChannelMgr@@U?$less@K@std@@V?$allocator@U?$pair@$$CBKUPLAYERINFO@CChannelMgr@@@std@@@4@@std@@@std@@@2@$0A@@std@@@std@@@std@@YAXPAPAU_Node@?$_Tree_nod@V?$_Tmap_traits@KV?$map@KUPLAYERINFO@CChannelMgr@@U?$less@K@std@@V?$allocator@U?$pair@$$CBKUPLAYERINFO@CChannelMgr@@@std@@@4@@std@@U?$less@K@2@V?$allocator@U?$pair@$$CBKV?$map@KUPLAYERINFO@CChannelMgr@@U?$less@K@std@@V?$allocator@U?$pair@$$CBKUPLAYERINFO@CChannelMgr@@@std@@@4@@std@@@std@@@2@$0A@@std@@@0@@Z 00402a30 f i ChannelMgr.obj
 0001:00001a40       ??$?0U?$pair@$$CBKUCHANNINFO@CChannelMgr@@@std@@@?$allocator@PAU_Node@?$_Tree_nod@V?$_Tmap_traits@KUCHANNINFO@CChannelMgr@@U?$less@K@std@@V?$allocator@U?$pair@$$CBKUCHANNINFO@CChannelMgr@@@std@@@4@$0A@@std@@@std@@@std@@QAE@ABV?$allocator@U?$pair@$$CBKUCHANNINFO@CChannelMgr@@@std@@@1@@Z 00402a40 f i ChannelMgr.obj
 0001:00001a50       ??$?0U?$pair@$$CBV?$basic_string@DU?$char_traits@D@std@@V?$allocator@D@2@@std@@K@std@@@?$allocator@PAU_Node@?$_Tree_nod@V?$_Tmap_traits@V?$basic_string@DU?$char_traits@D@std@@V?$allocator@D@2@@std@@KU_tstring_less@@V?$allocator@U?$pair@$$CBV?$basic_string@DU?$char_traits@D@std@@V?$allocator@D@2@@std@@K@std@@@2@$0A@@std@@@std@@@std@@QAE@ABV?$allocator@U?$pair@$$CBV?$basic_string@DU?$char_traits@D@std@@V?$allocator@D@2@@std@@K@std@@@1@@Z 00402a50 f i ChannelMgr.obj
 0001:00001a60       ??$?0U?$pair@$$CBKV?$list@PAU_BLOCKCHANNELOP@CChannelMgr@@V?$allocator@PAU_BLOCKCHANNELOP@CChannelMgr@@@std@@@std@@@std@@@?$allocator@PAU_Node@?$_Tree_nod@V?$_Tmap_traits@KV?$list@PAU_BLOCKCHANNELOP@CChannelMgr@@V?$allocator@PAU_BLOCKCHANNELOP@CChannelMgr@@@std@@@std@@U?$less@K@2@V?$allocator@U?$pair@$$CBKV?$list@PAU_BLOCKCHANNELOP@CChannelMgr@@V?$allocator@PAU_BLOCKCHANNELOP@CChannelMgr@@@std@@@std@@@std@@@2@$0A@@std@@@std@@@std@@QAE@ABV?$allocator@U?$pair@$$CBKV?$list@PAU_BLOCKCHANNELOP@CChannelMgr@@V?$allocator@PAU_BLOCKCHANNELOP@CChannelMgr@@@std@@@std@@@std@@@1@@Z 00402a60 f i ChannelMgr.obj
 0001:00001a70       ??$_Destroy@U_Node@?$_Tree_nod@V?$_Tmap_traits@KUPLAYERINFO@CChannelMgr@@U?$less@K@std@@V?$allocator@U?$pair@$$CBKUPLAYERINFO@CChannelMgr@@@std@@@4@$0A@@std@@@std@@@std@@YAXPAU_Node@?$_Tree_nod@V?$_Tmap_traits@KUPLAYERINFO@CChannelMgr@@U?$less@K@std@@V?$allocator@U?$pair@$$CBKUPLAYERINFO@CChannelMgr@@@std@@@4@$0A@@std@@@0@@Z 00402a70 f i ChannelMgr.obj
 0001:00001a80       ??$_Destroy@PAU_Node@?$_Tree_nod@V?$_Tmap_traits@KUPLAYERINFO@CChannelMgr@@U?$less@K@std@@V?$allocator@U?$pair@$$CBKUPLAYERINFO@CChannelMgr@@@std@@@4@$0A@@std@@@std@@@std@@YAXPAPAU_Node@?$_Tree_nod@V?$_Tmap_traits@KUPLAYERINFO@CChannelMgr@@U?$less@K@std@@V?$allocator@U?$pair@$$CBKUPLAYERINFO@CChannelMgr@@@std@@@4@$0A@@std@@@0@@Z 00402a80 f i ChannelMgr.obj
 0001:00001a90       ??$?0UtagPlusSrcInfo@@@?$allocator@U_Node@?$_List_nod@UtagPlusSrcInfo@@V?$allocator@UtagPlusSrcInfo@@@std@@@std@@@std@@QAE@ABV?$allocator@UtagPlusSrcInfo@@@1@@Z 00402a90 f i ChannelMgr.obj
 0001:00001aa0       ??$_Construct@UtagPlusSrcInfo@@U1@@std@@YAXPAUtagPlusSrcInfo@@ABU1@@Z 00402aa0 f i ChannelMgr.obj
 0001:00001ac0       ??$_Destroy@U_Node@?$_List_nod@UtagPlusSrcInfo@@V?$allocator@UtagPlusSrcInfo@@@std@@@std@@@std@@YAXPAU_Node@?$_List_nod@UtagPlusSrcInfo@@V?$allocator@UtagPlusSrcInfo@@@std@@@0@@Z 00402ac0 f i ChannelMgr.obj
 0001:00001ad0       ??$?0PAU_BLOCKCHANNELOP@CChannelMgr@@@?$allocator@PAU_Node@?$_List_nod@PAU_BLOCKCHANNELOP@CChannelMgr@@V?$allocator@PAU_BLOCKCHANNELOP@CChannelMgr@@@std@@@std@@@std@@QAE@ABV?$allocator@PAU_BLOCKCHANNELOP@CChannelMgr@@@1@@Z 00402ad0 f i ChannelMgr.obj
 0001:00001ae0       ??$_Construct@PAU_BLOCKCHANNELOP@CChannelMgr@@PAU12@@std@@YAXPAPAU_BLOCKCHANNELOP@CChannelMgr@@ABQAU12@@Z 00402ae0 f i ChannelMgr.obj
 0001:00001b00       ??$_Allocate@U_Node@?$_List_nod@PAU_BLOCKCHANNELOP@CChannelMgr@@V?$allocator@PAU_BLOCKCHANNELOP@CChannelMgr@@@std@@@std@@@std@@YAPAU_Node@?$_List_nod@PAU_BLOCKCHANNELOP@CChannelMgr@@V?$allocator@PAU_BLOCKCHANNELOP@CChannelMgr@@@std@@@0@IPAU120@@Z 00402b00 f i ChannelMgr.obj
 0001:00001b60       ??$_Construct@PAU_Node@?$_List_nod@PAU_BLOCKCHANNELOP@CChannelMgr@@V?$allocator@PAU_BLOCKCHANNELOP@CChannelMgr@@@std@@@std@@PAU123@@std@@YAXPAPAU_Node@?$_List_nod@PAU_BLOCKCHANNELOP@CChannelMgr@@V?$allocator@PAU_BLOCKCHANNELOP@CChannelMgr@@@std@@@0@ABQAU120@@Z 00402b60 f i ChannelMgr.obj
 0001:00001b80       ??$_Destroy@PAU_Node@?$_List_nod@PAU_BLOCKCHANNELOP@CChannelMgr@@V?$allocator@PAU_BLOCKCHANNELOP@CChannelMgr@@@std@@@std@@@std@@YAXPAPAU_Node@?$_List_nod@PAU_BLOCKCHANNELOP@CChannelMgr@@V?$allocator@PAU_BLOCKCHANNELOP@CChannelMgr@@@std@@@0@@Z 00402b80 f i ChannelMgr.obj
 0001:00001b90       ??$?0U?$pair@$$CBKV?$map@KUPLAYERINFO@CChannelMgr@@U?$less@K@std@@V?$allocator@U?$pair@$$CBKUPLAYERINFO@CChannelMgr@@@std@@@4@@std@@@std@@@?$allocator@PAU_Node@?$_Tree_nod@V?$_Tmap_traits@KV?$map@KUPLAYERINFO@CChannelMgr@@U?$less@K@std@@V?$allocator@U?$pair@$$CBKUPLAYERINFO@CChannelMgr@@@std@@@4@@std@@U?$less@K@2@V?$allocator@U?$pair@$$CBKV?$map@KUPLAYERINFO@CChannelMgr@@U?$less@K@std@@V?$allocator@U?$pair@$$CBKUPLAYERINFO@CChannelMgr@@@std@@@4@@std@@@std@@@2@$0A@@std@@@std@@@std@@QAE@ABV?$allocator@U?$pair@$$CBKV?$map@KUPLAYERINFO@CChannelMgr@@U?$less@K@std@@V?$allocator@U?$pair@$$CBKUPLAYERINFO@CChannelMgr@@@std@@@4@@std@@@std@@@1@@Z 00402b90 f i ChannelMgr.obj
 0001:00001ba0       ??$_Allocate@U_Node@?$_Tree_nod@V?$_Tmap_traits@KV?$map@KUPLAYERINFO@CChannelMgr@@U?$less@K@std@@V?$allocator@U?$pair@$$CBKUPLAYERINFO@CChannelMgr@@@std@@@4@@std@@U?$less@K@2@V?$allocator@U?$pair@$$CBKV?$map@KUPLAYERINFO@CChannelMgr@@U?$less@K@std@@V?$allocator@U?$pair@$$CBKUPLAYERINFO@CChannelMgr@@@std@@@4@@std@@@std@@@2@$0A@@std@@@std@@@std@@YAPAU_Node@?$_Tree_nod@V?$_Tmap_traits@KV?$map@KUPLAYERINFO@CChannelMgr@@U?$less@K@std@@V?$allocator@U?$pair@$$CBKUPLAYERINFO@CChannelMgr@@@std@@@4@@std@@U?$less@K@2@V?$allocator@U?$pair@$$CBKV?$map@KUPLAYERINFO@CChannelMgr@@U?$less@K@std@@V?$allocator@U?$pair@$$CBKUPLAYERINFO@CChannelMgr@@@std@@@4@@std@@@std@@@2@$0A@@std@@@0@IPAU120@@Z 00402ba0 f i ChannelMgr.obj
 0001:00001c00       ??$?0U?$pair@$$CBKUCHANNINFO@CChannelMgr@@@std@@@?$allocator@U_Node@?$_Tree_nod@V?$_Tmap_traits@KUCHANNINFO@CChannelMgr@@U?$less@K@std@@V?$allocator@U?$pair@$$CBKUCHANNINFO@CChannelMgr@@@std@@@4@$0A@@std@@@std@@@std@@QAE@ABV?$allocator@U?$pair@$$CBKUCHANNINFO@CChannelMgr@@@std@@@1@@Z 00402c00 f i ChannelMgr.obj
 0001:00001c10       ??$_Allocate@U_Node@?$_Tree_nod@V?$_Tmap_traits@KUCHANNINFO@CChannelMgr@@U?$less@K@std@@V?$allocator@U?$pair@$$CBKUCHANNINFO@CChannelMgr@@@std@@@4@$0A@@std@@@std@@@std@@YAPAU_Node@?$_Tree_nod@V?$_Tmap_traits@KUCHANNINFO@CChannelMgr@@U?$less@K@std@@V?$allocator@U?$pair@$$CBKUCHANNINFO@CChannelMgr@@@std@@@4@$0A@@std@@@0@IPAU120@@Z 00402c10 f i ChannelMgr.obj
 0001:00001c70       ??$_Construct@PAU_Node@?$_Tree_nod@V?$_Tmap_traits@KUCHANNINFO@CChannelMgr@@U?$less@K@std@@V?$allocator@U?$pair@$$CBKUCHANNINFO@CChannelMgr@@@std@@@4@$0A@@std@@@std@@PAU123@@std@@YAXPAPAU_Node@?$_Tree_nod@V?$_Tmap_traits@KUCHANNINFO@CChannelMgr@@U?$less@K@std@@V?$allocator@U?$pair@$$CBKUCHANNINFO@CChannelMgr@@@std@@@4@$0A@@std@@@0@ABQAU120@@Z 00402c70 f i ChannelMgr.obj
 0001:00001c90       ??$?0U?$pair@$$CBV?$basic_string@DU?$char_traits@D@std@@V?$allocator@D@2@@std@@K@std@@@?$allocator@U_Node@?$_Tree_nod@V?$_Tmap_traits@V?$basic_string@DU?$char_traits@D@std@@V?$allocator@D@2@@std@@KU_tstring_less@@V?$allocator@U?$pair@$$CBV?$basic_string@DU?$char_traits@D@std@@V?$allocator@D@2@@std@@K@std@@@2@$0A@@std@@@std@@@std@@QAE@ABV?$allocator@U?$pair@$$CBV?$basic_string@DU?$char_traits@D@std@@V?$allocator@D@2@@std@@K@std@@@1@@Z 00402c90 f i ChannelMgr.obj
 0001:00001ca0       ??$_Allocate@U_Node@?$_Tree_nod@V?$_Tmap_traits@V?$basic_string@DU?$char_traits@D@std@@V?$allocator@D@2@@std@@KU_tstring_less@@V?$allocator@U?$pair@$$CBV?$basic_string@DU?$char_traits@D@std@@V?$allocator@D@2@@std@@K@std@@@2@$0A@@std@@@std@@@std@@YAPAU_Node@?$_Tree_nod@V?$_Tmap_traits@V?$basic_string@DU?$char_traits@D@std@@V?$allocator@D@2@@std@@KU_tstring_less@@V?$allocator@U?$pair@$$CBV?$basic_string@DU?$char_traits@D@std@@V?$allocator@D@2@@std@@K@std@@@2@$0A@@std@@@0@IPAU120@@Z 00402ca0 f i ChannelMgr.obj
 0001:00001d00       ??$_Construct@PAU_Node@?$_Tree_nod@V?$_Tmap_traits@V?$basic_string@DU?$char_traits@D@std@@V?$allocator@D@2@@std@@KU_tstring_less@@V?$allocator@U?$pair@$$CBV?$basic_string@DU?$char_traits@D@std@@V?$allocator@D@2@@std@@K@std@@@2@$0A@@std@@@std@@PAU123@@std@@YAXPAPAU_Node@?$_Tree_nod@V?$_Tmap_traits@V?$basic_string@DU?$char_traits@D@std@@V?$allocator@D@2@@std@@KU_tstring_less@@V?$allocator@U?$pair@$$CBV?$basic_string@DU?$char_traits@D@std@@V?$allocator@D@2@@std@@K@std@@@2@$0A@@std@@@0@ABQAU120@@Z 00402d00 f i ChannelMgr.obj
 0001:00001d20       ??$?0U?$pair@$$CBKV?$list@PAU_BLOCKCHANNELOP@CChannelMgr@@V?$allocator@PAU_BLOCKCHANNELOP@CChannelMgr@@@std@@@std@@@std@@@?$allocator@U_Node@?$_Tree_nod@V?$_Tmap_traits@KV?$list@PAU_BLOCKCHANNELOP@CChannelMgr@@V?$allocator@PAU_BLOCKCHANNELOP@CChannelMgr@@@std@@@std@@U?$less@K@2@V?$allocator@U?$pair@$$CBKV?$list@PAU_BLOCKCHANNELOP@CChannelMgr@@V?$allocator@PAU_BLOCKCHANNELOP@CChannelMgr@@@std@@@std@@@std@@@2@$0A@@std@@@std@@@std@@QAE@ABV?$allocator@U?$pair@$$CBKV?$list@PAU_BLOCKCHANNELOP@CChannelMgr@@V?$allocator@PAU_BLOCKCHANNELOP@CChannelMgr@@@std@@@std@@@std@@@1@@Z 00402d20 f i ChannelMgr.obj
 0001:00001d30       ??$_Allocate@U_Node@?$_Tree_nod@V?$_Tmap_traits@KV?$list@PAU_BLOCKCHANNELOP@CChannelMgr@@V?$allocator@PAU_BLOCKCHANNELOP@CChannelMgr@@@std@@@std@@U?$less@K@2@V?$allocator@U?$pair@$$CBKV?$list@PAU_BLOCKCHANNELOP@CChannelMgr@@V?$allocator@PAU_BLOCKCHANNELOP@CChannelMgr@@@std@@@std@@@std@@@2@$0A@@std@@@std@@@std@@YAPAU_Node@?$_Tree_nod@V?$_Tmap_traits@KV?$list@PAU_BLOCKCHANNELOP@CChannelMgr@@V?$allocator@PAU_BLOCKCHANNELOP@CChannelMgr@@@std@@@std@@U?$less@K@2@V?$allocator@U?$pair@$$CBKV?$list@PAU_BLOCKCHANNELOP@CChannelMgr@@V?$allocator@PAU_BLOCKCHANNELOP@CChannelMgr@@@std@@@std@@@std@@@2@$0A@@std@@@0@IPAU120@@Z 00402d30 f i ChannelMgr.obj
 0001:00001d90       ??$_Construct@PAU_Node@?$_Tree_nod@V?$_Tmap_traits@KV?$list@PAU_BLOCKCHANNELOP@CChannelMgr@@V?$allocator@PAU_BLOCKCHANNELOP@CChannelMgr@@@std@@@std@@U?$less@K@2@V?$allocator@U?$pair@$$CBKV?$list@PAU_BLOCKCHANNELOP@CChannelMgr@@V?$allocator@PAU_BLOCKCHANNELOP@CChannelMgr@@@std@@@std@@@std@@@2@$0A@@std@@@std@@PAU123@@std@@YAXPAPAU_Node@?$_Tree_nod@V?$_Tmap_traits@KV?$list@PAU_BLOCKCHANNELOP@CChannelMgr@@V?$allocator@PAU_BLOCKCHANNELOP@CChannelMgr@@@std@@@std@@U?$less@K@2@V?$allocator@U?$pair@$$CBKV?$list@PAU_BLOCKCHANNELOP@CChannelMgr@@V?$allocator@PAU_BLOCKCHANNELOP@CChannelMgr@@@std@@@std@@@std@@@2@$0A@@std@@@0@ABQAU120@@Z 00402d90 f i ChannelMgr.obj
 0001:00001db0       ??$?0U?$pair@$$CBKUPLAYERINFO@CChannelMgr@@@std@@@?$allocator@PAU_Node@?$_Tree_nod@V?$_Tmap_traits@KUPLAYERINFO@CChannelMgr@@U?$less@K@std@@V?$allocator@U?$pair@$$CBKUPLAYERINFO@CChannelMgr@@@std@@@4@$0A@@std@@@std@@@std@@QAE@ABV?$allocator@U?$pair@$$CBKUPLAYERINFO@CChannelMgr@@@std@@@1@@Z 00402db0 f i ChannelMgr.obj
 0001:00001dc0       ??$_Allocate@U_Node@?$_Tree_nod@V?$_Tmap_traits@KUPLAYERINFO@CChannelMgr@@U?$less@K@std@@V?$allocator@U?$pair@$$CBKUPLAYERINFO@CChannelMgr@@@std@@@4@$0A@@std@@@std@@@std@@YAPAU_Node@?$_Tree_nod@V?$_Tmap_traits@KUPLAYERINFO@CChannelMgr@@U?$less@K@std@@V?$allocator@U?$pair@$$CBKUPLAYERINFO@CChannelMgr@@@std@@@4@$0A@@std@@@0@IPAU120@@Z 00402dc0 f i ChannelMgr.obj
 0001:00001e30       ??$?0PAU_BLOCKCHANNELOP@CChannelMgr@@@?$allocator@U_Node@?$_List_nod@PAU_BLOCKCHANNELOP@CChannelMgr@@V?$allocator@PAU_BLOCKCHANNELOP@CChannelMgr@@@std@@@std@@@std@@QAE@ABV?$allocator@PAU_BLOCKCHANNELOP@CChannelMgr@@@1@@Z 00402e30 f i ChannelMgr.obj
 0001:00001e40       ??$_Destroy@U_Node@?$_List_nod@PAU_BLOCKCHANNELOP@CChannelMgr@@V?$allocator@PAU_BLOCKCHANNELOP@CChannelMgr@@@std@@@std@@@std@@YAXPAU_Node@?$_List_nod@PAU_BLOCKCHANNELOP@CChannelMgr@@V?$allocator@PAU_BLOCKCHANNELOP@CChannelMgr@@@std@@@0@@Z 00402e40 f i ChannelMgr.obj
 0001:00001e50       ??$?0U?$pair@$$CBKV?$map@KUPLAYERINFO@CChannelMgr@@U?$less@K@std@@V?$allocator@U?$pair@$$CBKUPLAYERINFO@CChannelMgr@@@std@@@4@@std@@@std@@@?$allocator@U_Node@?$_Tree_nod@V?$_Tmap_traits@KV?$map@KUPLAYERINFO@CChannelMgr@@U?$less@K@std@@V?$allocator@U?$pair@$$CBKUPLAYERINFO@CChannelMgr@@@std@@@4@@std@@U?$less@K@2@V?$allocator@U?$pair@$$CBKV?$map@KUPLAYERINFO@CChannelMgr@@U?$less@K@std@@V?$allocator@U?$pair@$$CBKUPLAYERINFO@CChannelMgr@@@std@@@4@@std@@@std@@@2@$0A@@std@@@std@@@std@@QAE@ABV?$allocator@U?$pair@$$CBKV?$map@KUPLAYERINFO@CChannelMgr@@U?$less@K@std@@V?$allocator@U?$pair@$$CBKUPLAYERINFO@CChannelMgr@@@std@@@4@@std@@@std@@@1@@Z 00402e50 f i ChannelMgr.obj
 0001:00001e60       ??$_Construct@PAU_Node@?$_Tree_nod@V?$_Tmap_traits@KV?$map@KUPLAYERINFO@CChannelMgr@@U?$less@K@std@@V?$allocator@U?$pair@$$CBKUPLAYERINFO@CChannelMgr@@@std@@@4@@std@@U?$less@K@2@V?$allocator@U?$pair@$$CBKV?$map@KUPLAYERINFO@CChannelMgr@@U?$less@K@std@@V?$allocator@U?$pair@$$CBKUPLAYERINFO@CChannelMgr@@@std@@@4@@std@@@std@@@2@$0A@@std@@@std@@PAU123@@std@@YAXPAPAU_Node@?$_Tree_nod@V?$_Tmap_traits@KV?$map@KUPLAYERINFO@CChannelMgr@@U?$less@K@std@@V?$allocator@U?$pair@$$CBKUPLAYERINFO@CChannelMgr@@@std@@@4@@std@@U?$less@K@2@V?$allocator@U?$pair@$$CBKV?$map@KUPLAYERINFO@CChannelMgr@@U?$less@K@std@@V?$allocator@U?$pair@$$CBKUPLAYERINFO@CChannelMgr@@@std@@@4@@std@@@std@@@2@$0A@@std@@@0@ABQAU120@@Z 00402e60 f i ChannelMgr.obj
 0001:00001e80       ??$?0U?$pair@$$CBKUPLAYERINFO@CChannelMgr@@@std@@@?$allocator@U_Node@?$_Tree_nod@V?$_Tmap_traits@KUPLAYERINFO@CChannelMgr@@U?$less@K@std@@V?$allocator@U?$pair@$$CBKUPLAYERINFO@CChannelMgr@@@std@@@4@$0A@@std@@@std@@@std@@QAE@ABV?$allocator@U?$pair@$$CBKUPLAYERINFO@CChannelMgr@@@std@@@1@@Z 00402e80 f i ChannelMgr.obj
 0001:00001e90       ??$_Construct@PAU_Node@?$_Tree_nod@V?$_Tmap_traits@KUPLAYERINFO@CChannelMgr@@U?$less@K@std@@V?$allocator@U?$pair@$$CBKUPLAYERINFO@CChannelMgr@@@std@@@4@$0A@@std@@@std@@PAU123@@std@@YAXPAPAU_Node@?$_Tree_nod@V?$_Tmap_traits@KUPLAYERINFO@CChannelMgr@@U?$less@K@std@@V?$allocator@U?$pair@$$CBKUPLAYERINFO@CChannelMgr@@@std@@@4@$0A@@std@@@0@ABQAU120@@Z 00402e90 f i ChannelMgr.obj
 0001:00001eb0       ??$_Iter_cat@Viterator@?$_Tree@V?$_Tmap_traits@V?$basic_string@DU?$char_traits@D@std@@V?$allocator@D@2@@std@@KU_tstring_less@@V?$allocator@U?$pair@$$CBV?$basic_string@DU?$char_traits@D@std@@V?$allocator@D@2@@std@@K@std@@@2@$0A@@std@@@std@@@std@@YA?AUbidirectional_iterator_tag@0@ABViterator@?$_Tree@V?$_Tmap_traits@V?$basic_string@DU?$char_traits@D@std@@V?$allocator@D@2@@std@@KU_tstring_less@@V?$allocator@U?$pair@$$CBV?$basic_string@DU?$char_traits@D@std@@V?$allocator@D@2@@std@@K@std@@@2@$0A@@std@@@0@@Z 00402eb0 f i ChannelMgr.obj
 0001:00001ec0       ??$_Iter_cat@Viterator@?$_Tree@V?$_Tmap_traits@KUPLAYERINFO@CChannelMgr@@U?$less@K@std@@V?$allocator@U?$pair@$$CBKUPLAYERINFO@CChannelMgr@@@std@@@4@$0A@@std@@@std@@@std@@YA?AUbidirectional_iterator_tag@0@ABViterator@?$_Tree@V?$_Tmap_traits@KUPLAYERINFO@CChannelMgr@@U?$less@K@std@@V?$allocator@U?$pair@$$CBKUPLAYERINFO@CChannelMgr@@@std@@@4@$0A@@std@@@0@@Z 00402ec0 f i ChannelMgr.obj
 0001:00001ed0       ??$_Iter_cat@V?$_Const_iterator@$00@?$list@PAU_BLOCKCHANNELOP@CChannelMgr@@V?$allocator@PAU_BLOCKCHANNELOP@CChannelMgr@@@std@@@std@@@std@@YA?AUbidirectional_iterator_tag@0@ABV?$_Const_iterator@$00@?$list@PAU_BLOCKCHANNELOP@CChannelMgr@@V?$allocator@PAU_BLOCKCHANNELOP@CChannelMgr@@@std@@@0@@Z 00402ed0 f i ChannelMgr.obj
 0001:00001ee0       ??F?$_Const_iterator@$00@?$list@PAU_BLOCKCHANNELOP@CChannelMgr@@V?$allocator@PAU_BLOCKCHANNELOP@CChannelMgr@@@std@@@std@@QAEAAV012@XZ 00402ee0 f i ChannelMgr.obj
 0001:00001f10       ??1CNetConnectDup@@UAE@XZ  00402f10 f i ChannelMgr.obj
 0001:00001f40       ??_ECNetConnectDup@@UAEPAXI@Z 00402f40 f i ChannelMgr.obj
 0001:00001f40       ??_GCNetConnectDup@@UAEPAXI@Z 00402f40 f i ChannelMgr.obj
 0001:00001f80       ?PassToSpecMan@CChannelMgr@@AAEHKKKPBXI@Z 00402f80 f   ChannelMgr.obj
 0001:00002060       ?GetChannelCount@CChannelMgr@@QAEIXZ 00403060 f   ChannelMgr.obj
 0001:00002070       ??A?$basic_string@DU?$char_traits@D@std@@V?$allocator@D@2@@std@@QAEAADI@Z 00403070 f i ChannelMgr.obj
 0001:000020a0       ??A?$basic_string@DU?$char_traits@D@std@@V?$allocator@D@2@@std@@QBEABDI@Z 004030a0 f i ChannelMgr.obj
 0001:000020d0       ?empty@?$_Tree@V?$_Tmap_traits@KV?$map@KUPLAYERINFO@CChannelMgr@@U?$less@K@std@@V?$allocator@U?$pair@$$CBKUPLAYERINFO@CChannelMgr@@@std@@@4@@std@@U?$less@K@2@V?$allocator@U?$pair@$$CBKV?$map@KUPLAYERINFO@CChannelMgr@@U?$less@K@std@@V?$allocator@U?$pair@$$CBKUPLAYERINFO@CChannelMgr@@@std@@@4@@std@@@std@@@2@$0A@@std@@@std@@QBE_NXZ 004030d0 f i ChannelMgr.obj
 0001:000020e0       ??E?$_Vector_const_iterator@V?$basic_string@DU?$char_traits@D@std@@V?$allocator@D@2@@std@@V?$allocator@V?$basic_string@DU?$char_traits@D@std@@V?$allocator@D@2@@std@@@2@@std@@QAE?AV01@H@Z 004030e0 f i ChannelMgr.obj
 0001:00002120       ??9?$_Vector_const_iterator@V?$basic_string@DU?$char_traits@D@std@@V?$allocator@D@2@@std@@V?$allocator@V?$basic_string@DU?$char_traits@D@std@@V?$allocator@D@2@@std@@@2@@std@@QBE_NABV01@@Z 00403120 f i ChannelMgr.obj
 0001:00002150       ??Dconst_iterator@?$_Tree@V?$_Tmap_traits@KUCHANNINFO@CChannelMgr@@U?$less@K@std@@V?$allocator@U?$pair@$$CBKUCHANNINFO@CChannelMgr@@@std@@@4@$0A@@std@@@std@@QBEABU?$pair@$$CBKUCHANNINFO@CChannelMgr@@@2@XZ 00403150 f i ChannelMgr.obj
 0001:00002180       ?empty@?$_Tree@V?$_Tmap_traits@KUPLAYERINFO@CChannelMgr@@U?$less@K@std@@V?$allocator@U?$pair@$$CBKUPLAYERINFO@CChannelMgr@@@std@@@4@$0A@@std@@@std@@QBE_NXZ 00403180 f i ChannelMgr.obj
 0001:00002190       ??D?$_Const_iterator@$00@?$list@UtagPlusSrcInfo@@V?$allocator@UtagPlusSrcInfo@@@std@@@std@@QBEABUtagPlusSrcInfo@@XZ 00403190 f i ChannelMgr.obj
 0001:000021c0       ??E?$_Const_iterator@$00@?$list@UtagPlusSrcInfo@@V?$allocator@UtagPlusSrcInfo@@@std@@@std@@QAE?AV012@H@Z 004031c0 f i ChannelMgr.obj
 0001:00002200       ??9?$_Const_iterator@$00@?$list@UtagPlusSrcInfo@@V?$allocator@UtagPlusSrcInfo@@@std@@@std@@QBE_NABV012@@Z 00403200 f i ChannelMgr.obj
 0001:00002230       ??9const_iterator@?$_Tree@V?$_Tmap_traits@KV?$list@PAU_BLOCKCHANNELOP@CChannelMgr@@V?$allocator@PAU_BLOCKCHANNELOP@CChannelMgr@@@std@@@std@@U?$less@K@2@V?$allocator@U?$pair@$$CBKV?$list@PAU_BLOCKCHANNELOP@CChannelMgr@@V?$allocator@PAU_BLOCKCHANNELOP@CChannelMgr@@@std@@@std@@@std@@@2@$0A@@std@@@std@@QBE_NABV012@@Z 00403230 f i ChannelMgr.obj
 0001:00002260       ??9?$_Const_iterator@$00@?$list@PAU_BLOCKCHANNELOP@CChannelMgr@@V?$allocator@PAU_BLOCKCHANNELOP@CChannelMgr@@@std@@@std@@QBE_NABV012@@Z 00403260 f i ChannelMgr.obj
 0001:00002290       ?rfind@?$basic_string@DU?$char_traits@D@std@@V?$allocator@D@2@@std@@QBEIPBDII@Z 00403290 f i ChannelMgr.obj
 0001:00002340       ?find_last_not_of@?$basic_string@DU?$char_traits@D@std@@V?$allocator@D@2@@std@@QBEIPBDII@Z 00403340 f i ChannelMgr.obj
 0001:000023e0       ?_Key@?$_Tree@V?$_Tmap_traits@KV?$map@KUPLAYERINFO@CChannelMgr@@U?$less@K@std@@V?$allocator@U?$pair@$$CBKUPLAYERINFO@CChannelMgr@@@std@@@4@@std@@U?$less@K@2@V?$allocator@U?$pair@$$CBKV?$map@KUPLAYERINFO@CChannelMgr@@U?$less@K@std@@V?$allocator@U?$pair@$$CBKUPLAYERINFO@CChannelMgr@@@std@@@4@@std@@@std@@@2@$0A@@std@@@std@@KAABKPAU_Node@?$_Tree_nod@V?$_Tmap_traits@KV?$map@KUPLAYERINFO@CChannelMgr@@U?$less@K@std@@V?$allocator@U?$pair@$$CBKUPLAYERINFO@CChannelMgr@@@std@@@4@@std@@U?$less@K@2@V?$allocator@U?$pair@$$CBKV?$map@KUPLAYERINFO@CChannelMgr@@U?$less@K@std@@V?$allocator@U?$pair@$$CBKUPLAYERINFO@CChannelMgr@@@std@@@4@@std@@@std@@@2@$0A@@std@@@2@@Z 004033e0 f i ChannelMgr.obj
 0001:000023f0       ?_Lrotate@?$_Tree@V?$_Tmap_traits@KV?$map@KUPLAYERINFO@CChannelMgr@@U?$less@K@std@@V?$allocator@U?$pair@$$CBKUPLAYERINFO@CChannelMgr@@@std@@@4@@std@@U?$less@K@2@V?$allocator@U?$pair@$$CBKV?$map@KUPLAYERINFO@CChannelMgr@@U?$less@K@std@@V?$allocator@U?$pair@$$CBKUPLAYERINFO@CChannelMgr@@@std@@@4@@std@@@std@@@2@$0A@@std@@@std@@IAEXPAU_Node@?$_Tree_nod@V?$_Tmap_traits@KV?$map@KUPLAYERINFO@CChannelMgr@@U?$less@K@std@@V?$allocator@U?$pair@$$CBKUPLAYERINFO@CChannelMgr@@@std@@@4@@std@@U?$less@K@2@V?$allocator@U?$pair@$$CBKV?$map@KUPLAYERINFO@CChannelMgr@@U?$less@K@std@@V?$allocator@U?$pair@$$CBKUPLAYERINFO@CChannelMgr@@@std@@@4@@std@@@std@@@2@$0A@@std@@@2@@Z 004033f0 f i ChannelMgr.obj
 0001:00002440       ?_Key@?$_Tree@V?$_Tmap_traits@KUCHANNINFO@CChannelMgr@@U?$less@K@std@@V?$allocator@U?$pair@$$CBKUCHANNINFO@CChannelMgr@@@std@@@4@$0A@@std@@@std@@KAABKPAU_Node@?$_Tree_nod@V?$_Tmap_traits@KUCHANNINFO@CChannelMgr@@U?$less@K@std@@V?$allocator@U?$pair@$$CBKUCHANNINFO@CChannelMgr@@@std@@@4@$0A@@std@@@2@@Z 00403440 f i ChannelMgr.obj
 0001:00002450       ?_Lrotate@?$_Tree@V?$_Tmap_traits@KUCHANNINFO@CChannelMgr@@U?$less@K@std@@V?$allocator@U?$pair@$$CBKUCHANNINFO@CChannelMgr@@@std@@@4@$0A@@std@@@std@@IAEXPAU_Node@?$_Tree_nod@V?$_Tmap_traits@KUCHANNINFO@CChannelMgr@@U?$less@K@std@@V?$allocator@U?$pair@$$CBKUCHANNINFO@CChannelMgr@@@std@@@4@$0A@@std@@@2@@Z 00403450 f i ChannelMgr.obj
 0001:000024a0       ?_Key@?$_Tree@V?$_Tmap_traits@V?$basic_string@DU?$char_traits@D@std@@V?$allocator@D@2@@std@@KU_tstring_less@@V?$allocator@U?$pair@$$CBV?$basic_string@DU?$char_traits@D@std@@V?$allocator@D@2@@std@@K@std@@@2@$0A@@std@@@std@@KAABV?$basic_string@DU?$char_traits@D@std@@V?$allocator@D@2@@2@PAU_Node@?$_Tree_nod@V?$_Tmap_traits@V?$basic_string@DU?$char_traits@D@std@@V?$allocator@D@2@@std@@KU_tstring_less@@V?$allocator@U?$pair@$$CBV?$basic_string@DU?$char_traits@D@std@@V?$allocator@D@2@@std@@K@std@@@2@$0A@@std@@@2@@Z 004034a0 f i ChannelMgr.obj
 0001:000024b0       ?c_str@?$basic_string@DU?$char_traits@D@std@@V?$allocator@D@2@@std@@QBEPBDXZ 004034b0 f i ChannelMgr.obj
 0001:000024c0       ?_Lmost@?$_Tree@V?$_Tmap_traits@V?$basic_string@DU?$char_traits@D@std@@V?$allocator@D@2@@std@@KU_tstring_less@@V?$allocator@U?$pair@$$CBV?$basic_string@DU?$char_traits@D@std@@V?$allocator@D@2@@std@@K@std@@@2@$0A@@std@@@std@@IBEAAPAU_Node@?$_Tree_nod@V?$_Tmap_traits@V?$basic_string@DU?$char_traits@D@std@@V?$allocator@D@2@@std@@KU_tstring_less@@V?$allocator@U?$pair@$$CBV?$basic_string@DU?$char_traits@D@std@@V?$allocator@D@2@@std@@K@std@@@2@$0A@@std@@@2@XZ 004034c0 f i ChannelMgr.obj
 0001:000024d0       ?_Rmost@?$_Tree@V?$_Tmap_traits@V?$basic_string@DU?$char_traits@D@std@@V?$allocator@D@2@@std@@KU_tstring_less@@V?$allocator@U?$pair@$$CBV?$basic_string@DU?$char_traits@D@std@@V?$allocator@D@2@@std@@K@std@@@2@$0A@@std@@@std@@IBEAAPAU_Node@?$_Tree_nod@V?$_Tmap_traits@V?$basic_string@DU?$char_traits@D@std@@V?$allocator@D@2@@std@@KU_tstring_less@@V?$allocator@U?$pair@$$CBV?$basic_string@DU?$char_traits@D@std@@V?$allocator@D@2@@std@@K@std@@@2@$0A@@std@@@2@XZ 004034d0 f i ChannelMgr.obj
 0001:000024e0       ?_Root@?$_Tree@V?$_Tmap_traits@V?$basic_string@DU?$char_traits@D@std@@V?$allocator@D@2@@std@@KU_tstring_less@@V?$allocator@U?$pair@$$CBV?$basic_string@DU?$char_traits@D@std@@V?$allocator@D@2@@std@@K@std@@@2@$0A@@std@@@std@@IBEAAPAU_Node@?$_Tree_nod@V?$_Tmap_traits@V?$basic_string@DU?$char_traits@D@std@@V?$allocator@D@2@@std@@KU_tstring_less@@V?$allocator@U?$pair@$$CBV?$basic_string@DU?$char_traits@D@std@@V?$allocator@D@2@@std@@K@std@@@2@$0A@@std@@@2@XZ 004034e0 f i ChannelMgr.obj
 0001:000024f0       ?allocate@?$allocator@UBLOCKCHANNELOP_QID@CChannelMgr@@@std@@QAEPAUBLOCKCHANNELOP_QID@CChannelMgr@@I@Z 004034f0 f i ChannelMgr.obj
 0001:00002510       ?allocate@?$allocator@UBLOCKCHANNELOP_CMN@CChannelMgr@@@std@@QAEPAUBLOCKCHANNELOP_CMN@CChannelMgr@@I@Z 00403510 f i ChannelMgr.obj
 0001:00002530       ?allocate@?$allocator@UBLOCKCHANNELOP_CLR@CChannelMgr@@@std@@QAEPAUBLOCKCHANNELOP_CLR@CChannelMgr@@I@Z 00403530 f i ChannelMgr.obj
 0001:00002550       ?_Key@?$_Tree@V?$_Tmap_traits@KV?$list@PAU_BLOCKCHANNELOP@CChannelMgr@@V?$allocator@PAU_BLOCKCHANNELOP@CChannelMgr@@@std@@@std@@U?$less@K@2@V?$allocator@U?$pair@$$CBKV?$list@PAU_BLOCKCHANNELOP@CChannelMgr@@V?$allocator@PAU_BLOCKCHANNELOP@CChannelMgr@@@std@@@std@@@std@@@2@$0A@@std@@@std@@KAABKPAU_Node@?$_Tree_nod@V?$_Tmap_traits@KV?$list@PAU_BLOCKCHANNELOP@CChannelMgr@@V?$allocator@PAU_BLOCKCHANNELOP@CChannelMgr@@@std@@@std@@U?$less@K@2@V?$allocator@U?$pair@$$CBKV?$list@PAU_BLOCKCHANNELOP@CChannelMgr@@V?$allocator@PAU_BLOCKCHANNELOP@CChannelMgr@@@std@@@std@@@std@@@2@$0A@@std@@@2@@Z 00403550 f i ChannelMgr.obj
 0001:00002560       ?_Lmost@?$_Tree@V?$_Tmap_traits@KV?$list@PAU_BLOCKCHANNELOP@CChannelMgr@@V?$allocator@PAU_BLOCKCHANNELOP@CChannelMgr@@@std@@@std@@U?$less@K@2@V?$allocator@U?$pair@$$CBKV?$list@PAU_BLOCKCHANNELOP@CChannelMgr@@V?$allocator@PAU_BLOCKCHANNELOP@CChannelMgr@@@std@@@std@@@std@@@2@$0A@@std@@@std@@IBEAAPAU_Node@?$_Tree_nod@V?$_Tmap_traits@KV?$list@PAU_BLOCKCHANNELOP@CChannelMgr@@V?$allocator@PAU_BLOCKCHANNELOP@CChannelMgr@@@std@@@std@@U?$less@K@2@V?$allocator@U?$pair@$$CBKV?$list@PAU_BLOCKCHANNELOP@CChannelMgr@@V?$allocator@PAU_BLOCKCHANNELOP@CChannelMgr@@@std@@@std@@@std@@@2@$0A@@std@@@2@XZ 00403560 f i ChannelMgr.obj
 0001:00002570       ?_Rmost@?$_Tree@V?$_Tmap_traits@KV?$list@PAU_BLOCKCHANNELOP@CChannelMgr@@V?$allocator@PAU_BLOCKCHANNELOP@CChannelMgr@@@std@@@std@@U?$less@K@2@V?$allocator@U?$pair@$$CBKV?$list@PAU_BLOCKCHANNELOP@CChannelMgr@@V?$allocator@PAU_BLOCKCHANNELOP@CChannelMgr@@@std@@@std@@@std@@@2@$0A@@std@@@std@@IBEAAPAU_Node@?$_Tree_nod@V?$_Tmap_traits@KV?$list@PAU_BLOCKCHANNELOP@CChannelMgr@@V?$allocator@PAU_BLOCKCHANNELOP@CChannelMgr@@@std@@@std@@U?$less@K@2@V?$allocator@U?$pair@$$CBKV?$list@PAU_BLOCKCHANNELOP@CChannelMgr@@V?$allocator@PAU_BLOCKCHANNELOP@CChannelMgr@@@std@@@std@@@std@@@2@$0A@@std@@@2@XZ 00403570 f i ChannelMgr.obj
 0001:00002580       ?_Root@?$_Tree@V?$_Tmap_traits@KV?$list@PAU_BLOCKCHANNELOP@CChannelMgr@@V?$allocator@PAU_BLOCKCHANNELOP@CChannelMgr@@@std@@@std@@U?$less@K@2@V?$allocator@U?$pair@$$CBKV?$list@PAU_BLOCKCHANNELOP@CChannelMgr@@V?$allocator@PAU_BLOCKCHANNELOP@CChannelMgr@@@std@@@std@@@std@@@2@$0A@@std@@@std@@IBEAAPAU_Node@?$_Tree_nod@V?$_Tmap_traits@KV?$list@PAU_BLOCKCHANNELOP@CChannelMgr@@V?$allocator@PAU_BLOCKCHANNELOP@CChannelMgr@@@std@@@std@@U?$less@K@2@V?$allocator@U?$pair@$$CBKV?$list@PAU_BLOCKCHANNELOP@CChannelMgr@@V?$allocator@PAU_BLOCKCHANNELOP@CChannelMgr@@@std@@@std@@@std@@@2@$0A@@std@@@2@XZ 00403580 f i ChannelMgr.obj
 0001:00002590       ??0?$_Vector_const_iterator@V?$basic_string@DU?$char_traits@D@std@@V?$allocator@D@2@@std@@V?$allocator@V?$basic_string@DU?$char_traits@D@std@@V?$allocator@D@2@@std@@@2@@std@@QAE@PAV?$basic_string@DU?$char_traits@D@std@@V?$allocator@D@2@@1@PBU_Container_base@1@@Z 00403590 f i ChannelMgr.obj
 0001:000025d0       ??Dconst_iterator@?$_Tree@V?$_Tmap_traits@V?$basic_string@DU?$char_traits@D@std@@V?$allocator@D@2@@std@@KU_tstring_less@@V?$allocator@U?$pair@$$CBV?$basic_string@DU?$char_traits@D@std@@V?$allocator@D@2@@std@@K@std@@@2@$0A@@std@@@std@@QBEABU?$pair@$$CBV?$basic_string@DU?$char_traits@D@std@@V?$allocator@D@2@@std@@K@2@XZ 004035d0 f i ChannelMgr.obj
 0001:00002600       ??Dconst_iterator@?$_Tree@V?$_Tmap_traits@KV?$map@KUPLAYERINFO@CChannelMgr@@U?$less@K@std@@V?$allocator@U?$pair@$$CBKUPLAYERINFO@CChannelMgr@@@std@@@4@@std@@U?$less@K@2@V?$allocator@U?$pair@$$CBKV?$map@KUPLAYERINFO@CChannelMgr@@U?$less@K@std@@V?$allocator@U?$pair@$$CBKUPLAYERINFO@CChannelMgr@@@std@@@4@@std@@@std@@@2@$0A@@std@@@std@@QBEABU?$pair@$$CBKV?$map@KUPLAYERINFO@CChannelMgr@@U?$less@K@std@@V?$allocator@U?$pair@$$CBKUPLAYERINFO@CChannelMgr@@@std@@@4@@std@@@2@XZ 00403600 f i ChannelMgr.obj
 0001:00002630       ?_Key@?$_Tree@V?$_Tmap_traits@KUPLAYERINFO@CChannelMgr@@U?$less@K@std@@V?$allocator@U?$pair@$$CBKUPLAYERINFO@CChannelMgr@@@std@@@4@$0A@@std@@@std@@KAABKPAU_Node@?$_Tree_nod@V?$_Tmap_traits@KUPLAYERINFO@CChannelMgr@@U?$less@K@std@@V?$allocator@U?$pair@$$CBKUPLAYERINFO@CChannelMgr@@@std@@@4@$0A@@std@@@2@@Z 00403630 f i ChannelMgr.obj
 0001:00002640       ?_Lmost@?$_Tree@V?$_Tmap_traits@KUPLAYERINFO@CChannelMgr@@U?$less@K@std@@V?$allocator@U?$pair@$$CBKUPLAYERINFO@CChannelMgr@@@std@@@4@$0A@@std@@@std@@IBEAAPAU_Node@?$_Tree_nod@V?$_Tmap_traits@KUPLAYERINFO@CChannelMgr@@U?$less@K@std@@V?$allocator@U?$pair@$$CBKUPLAYERINFO@CChannelMgr@@@std@@@4@$0A@@std@@@2@XZ 00403640 f i ChannelMgr.obj
 0001:00002650       ??Dconst_iterator@?$_Tree@V?$_Tmap_traits@KUPLAYERINFO@CChannelMgr@@U?$less@K@std@@V?$allocator@U?$pair@$$CBKUPLAYERINFO@CChannelMgr@@@std@@@4@$0A@@std@@@std@@QBEABU?$pair@$$CBKUPLAYERINFO@CChannelMgr@@@2@XZ 00403650 f i ChannelMgr.obj
 0001:00002680       ??0?$_String_val@DV?$allocator@D@std@@@std@@IAE@V?$allocator@D@1@@Z 00403680 f i ChannelMgr.obj
 0001:00002690       ??0?$_String_val@DV?$allocator@D@std@@@std@@QAE@ABV01@@Z 00403690 f i ChannelMgr.obj
 0001:000026a0       ??0?$_Const_iterator@$00@?$list@UtagPlusSrcInfo@@V?$allocator@UtagPlusSrcInfo@@@std@@@std@@QAE@PAU_Node@?$_List_nod@UtagPlusSrcInfo@@V?$allocator@UtagPlusSrcInfo@@@std@@@2@PBV12@@Z 004036a0 f i ChannelMgr.obj
 0001:000026d0       ??Dconst_iterator@?$_Tree@V?$_Tmap_traits@KV?$list@PAU_BLOCKCHANNELOP@CChannelMgr@@V?$allocator@PAU_BLOCKCHANNELOP@CChannelMgr@@@std@@@std@@U?$less@K@2@V?$allocator@U?$pair@$$CBKV?$list@PAU_BLOCKCHANNELOP@CChannelMgr@@V?$allocator@PAU_BLOCKCHANNELOP@CChannelMgr@@@std@@@std@@@std@@@2@$0A@@std@@@std@@QBEABU?$pair@$$CBKV?$list@PAU_BLOCKCHANNELOP@CChannelMgr@@V?$allocator@PAU_BLOCKCHANNELOP@CChannelMgr@@@std@@@std@@@2@XZ 004036d0 f i ChannelMgr.obj
 0001:00002700       ??E?$_Iterator@$00@?$list@PAU_BLOCKCHANNELOP@CChannelMgr@@V?$allocator@PAU_BLOCKCHANNELOP@CChannelMgr@@@std@@@std@@QAEAAV012@XZ 00403700 f i ChannelMgr.obj
 0001:00002730       ??D?$_Const_iterator@$00@?$list@PAU_BLOCKCHANNELOP@CChannelMgr@@V?$allocator@PAU_BLOCKCHANNELOP@CChannelMgr@@@std@@@std@@QBEABQAU_BLOCKCHANNELOP@CChannelMgr@@XZ 00403730 f i ChannelMgr.obj
 0001:00002760       ?_Chassign@?$basic_string@DU?$char_traits@D@std@@V?$allocator@D@2@@std@@IAEXIID@Z 00403760 f i ChannelMgr.obj
 0001:000027c0       ?_Eos@?$basic_string@DU?$char_traits@D@std@@V?$allocator@D@2@@std@@IAEXI@Z 004037c0 f i ChannelMgr.obj
 0001:000027e0       ?_Lbound@?$_Tree@V?$_Tmap_traits@KV?$map@KUPLAYERINFO@CChannelMgr@@U?$less@K@std@@V?$allocator@U?$pair@$$CBKUPLAYERINFO@CChannelMgr@@@std@@@4@@std@@U?$less@K@2@V?$allocator@U?$pair@$$CBKV?$map@KUPLAYERINFO@CChannelMgr@@U?$less@K@std@@V?$allocator@U?$pair@$$CBKUPLAYERINFO@CChannelMgr@@@std@@@4@@std@@@std@@@2@$0A@@std@@@std@@IBEPAU_Node@?$_Tree_nod@V?$_Tmap_traits@KV?$map@KUPLAYERINFO@CChannelMgr@@U?$less@K@std@@V?$allocator@U?$pair@$$CBKUPLAYERINFO@CChannelMgr@@@std@@@4@@std@@U?$less@K@2@V?$allocator@U?$pair@$$CBKV?$map@KUPLAYERINFO@CChannelMgr@@U?$less@K@std@@V?$allocator@U?$pair@$$CBKUPLAYERINFO@CChannelMgr@@@std@@@4@@std@@@std@@@2@$0A@@std@@@2@ABK@Z 004037e0 f i ChannelMgr.obj
 0001:00002810       ?max_size@?$basic_string@DU?$char_traits@D@std@@V?$allocator@D@2@@std@@QBEIXZ 00403810 f i ChannelMgr.obj
 0001:00002820       ?allocate@?$allocator@D@std@@QAEPADI@Z 00403820 f i ChannelMgr.obj
 0001:00002840       ??$copy_s@U?$char_traits@D@std@@@_Traits_helper@std@@YAPADPADIPBDI@Z 00403840 f i ChannelMgr.obj
 0001:00002870       ??$move_s@U?$char_traits@D@std@@@_Traits_helper@std@@YAPADPADIPBDI@Z 00403870 f i ChannelMgr.obj
 0001:000028a0       ?_Lbound@?$_Tree@V?$_Tmap_traits@KUCHANNINFO@CChannelMgr@@U?$less@K@std@@V?$allocator@U?$pair@$$CBKUCHANNINFO@CChannelMgr@@@std@@@4@$0A@@std@@@std@@IBEPAU_Node@?$_Tree_nod@V?$_Tmap_traits@KUCHANNINFO@CChannelMgr@@U?$less@K@std@@V?$allocator@U?$pair@$$CBKUCHANNINFO@CChannelMgr@@@std@@@4@$0A@@std@@@2@ABK@Z 004038a0 f i ChannelMgr.obj
 0001:000028d0       ?destroy@?$allocator@PAU_Node@?$_Tree_nod@V?$_Tmap_traits@KUCHANNINFO@CChannelMgr@@U?$less@K@std@@V?$allocator@U?$pair@$$CBKUCHANNINFO@CChannelMgr@@@std@@@4@$0A@@std@@@std@@@std@@QAEXPAPAU_Node@?$_Tree_nod@V?$_Tmap_traits@KUCHANNINFO@CChannelMgr@@U?$less@K@std@@V?$allocator@U?$pair@$$CBKUCHANNINFO@CChannelMgr@@@std@@@4@$0A@@std@@@2@@Z 004038d0 f i ChannelMgr.obj
 0001:000028e0       ?destroy@?$allocator@PAU_Node@?$_Tree_nod@V?$_Tmap_traits@V?$basic_string@DU?$char_traits@D@std@@V?$allocator@D@2@@std@@KU_tstring_less@@V?$allocator@U?$pair@$$CBV?$basic_string@DU?$char_traits@D@std@@V?$allocator@D@2@@std@@K@std@@@2@$0A@@std@@@std@@@std@@QAEXPAPAU_Node@?$_Tree_nod@V?$_Tmap_traits@V?$basic_string@DU?$char_traits@D@std@@V?$allocator@D@2@@std@@KU_tstring_less@@V?$allocator@U?$pair@$$CBV?$basic_string@DU?$char_traits@D@std@@V?$allocator@D@2@@std@@K@std@@@2@$0A@@std@@@2@@Z 004038e0 f i ChannelMgr.obj
 0001:000028f0       ?_Lbound@?$_Tree@V?$_Tmap_traits@KV?$list@PAU_BLOCKCHANNELOP@CChannelMgr@@V?$allocator@PAU_BLOCKCHANNELOP@CChannelMgr@@@std@@@std@@U?$less@K@2@V?$allocator@U?$pair@$$CBKV?$list@PAU_BLOCKCHANNELOP@CChannelMgr@@V?$allocator@PAU_BLOCKCHANNELOP@CChannelMgr@@@std@@@std@@@std@@@2@$0A@@std@@@std@@IBEPAU_Node@?$_Tree_nod@V?$_Tmap_traits@KV?$list@PAU_BLOCKCHANNELOP@CChannelMgr@@V?$allocator@PAU_BLOCKCHANNELOP@CChannelMgr@@@std@@@std@@U?$less@K@2@V?$allocator@U?$pair@$$CBKV?$list@PAU_BLOCKCHANNELOP@CChannelMgr@@V?$allocator@PAU_BLOCKCHANNELOP@CChannelMgr@@@std@@@std@@@std@@@2@$0A@@std@@@2@ABK@Z 004038f0 f i ChannelMgr.obj
 0001:00002920       ?destroy@?$allocator@PAU_Node@?$_Tree_nod@V?$_Tmap_traits@KV?$list@PAU_BLOCKCHANNELOP@CChannelMgr@@V?$allocator@PAU_BLOCKCHANNELOP@CChannelMgr@@@std@@@std@@U?$less@K@2@V?$allocator@U?$pair@$$CBKV?$list@PAU_BLOCKCHANNELOP@CChannelMgr@@V?$allocator@PAU_BLOCKCHANNELOP@CChannelMgr@@@std@@@std@@@std@@@2@$0A@@std@@@std@@@std@@QAEXPAPAU_Node@?$_Tree_nod@V?$_Tmap_traits@KV?$list@PAU_BLOCKCHANNELOP@CChannelMgr@@V?$allocator@PAU_BLOCKCHANNELOP@CChannelMgr@@@std@@@std@@U?$less@K@2@V?$allocator@U?$pair@$$CBKV?$list@PAU_BLOCKCHANNELOP@CChannelMgr@@V?$allocator@PAU_BLOCKCHANNELOP@CChannelMgr@@@std@@@std@@@std@@@2@$0A@@std@@@2@@Z 00403920 f i ChannelMgr.obj
 0001:00002930       ??0iterator@?$_Tree@V?$_Tmap_traits@KUCHANNINFO@CChannelMgr@@U?$less@K@std@@V?$allocator@U?$pair@$$CBKUCHANNINFO@CChannelMgr@@@std@@@4@$0A@@std@@@std@@QAE@XZ 00403930 f i ChannelMgr.obj
 0001:00002940       ??0const_iterator@?$_Tree@V?$_Tmap_traits@KUCHANNINFO@CChannelMgr@@U?$less@K@std@@V?$allocator@U?$pair@$$CBKUCHANNINFO@CChannelMgr@@@std@@@4@$0A@@std@@@std@@QAE@PAU_Node@?$_Tree_nod@V?$_Tmap_traits@KUCHANNINFO@CChannelMgr@@U?$less@K@std@@V?$allocator@U?$pair@$$CBKUCHANNINFO@CChannelMgr@@@std@@@4@$0A@@std@@@2@PBV12@@Z 00403940 f i ChannelMgr.obj
 0001:00002970       ??Econst_iterator@?$_Tree@V?$_Tmap_traits@KUCHANNINFO@CChannelMgr@@U?$less@K@std@@V?$allocator@U?$pair@$$CBKUCHANNINFO@CChannelMgr@@@std@@@4@$0A@@std@@@std@@QAEAAV012@XZ 00403970 f i ChannelMgr.obj
 0001:00002980       ??0iterator@?$_Tree@V?$_Tmap_traits@V?$basic_string@DU?$char_traits@D@std@@V?$allocator@D@2@@std@@KU_tstring_less@@V?$allocator@U?$pair@$$CBV?$basic_string@DU?$char_traits@D@std@@V?$allocator@D@2@@std@@K@std@@@2@$0A@@std@@@std@@QAE@XZ 00403980 f i ChannelMgr.obj
 0001:00002990       ??0const_iterator@?$_Tree@V?$_Tmap_traits@V?$basic_string@DU?$char_traits@D@std@@V?$allocator@D@2@@std@@KU_tstring_less@@V?$allocator@U?$pair@$$CBV?$basic_string@DU?$char_traits@D@std@@V?$allocator@D@2@@std@@K@std@@@2@$0A@@std@@@std@@QAE@PAU_Node@?$_Tree_nod@V?$_Tmap_traits@V?$basic_string@DU?$char_traits@D@std@@V?$allocator@D@2@@std@@KU_tstring_less@@V?$allocator@U?$pair@$$CBV?$basic_string@DU?$char_traits@D@std@@V?$allocator@D@2@@std@@K@std@@@2@$0A@@std@@@2@PBV12@@Z 00403990 f i ChannelMgr.obj
 0001:000029c0       ??0iterator@?$_Tree@V?$_Tmap_traits@KV?$map@KUPLAYERINFO@CChannelMgr@@U?$less@K@std@@V?$allocator@U?$pair@$$CBKUPLAYERINFO@CChannelMgr@@@std@@@4@@std@@U?$less@K@2@V?$allocator@U?$pair@$$CBKV?$map@KUPLAYERINFO@CChannelMgr@@U?$less@K@std@@V?$allocator@U?$pair@$$CBKUPLAYERINFO@CChannelMgr@@@std@@@4@@std@@@std@@@2@$0A@@std@@@std@@QAE@XZ 004039c0 f i ChannelMgr.obj
 0001:000029d0       ??0const_iterator@?$_Tree@V?$_Tmap_traits@KV?$map@KUPLAYERINFO@CChannelMgr@@U?$less@K@std@@V?$allocator@U?$pair@$$CBKUPLAYERINFO@CChannelMgr@@@std@@@4@@std@@U?$less@K@2@V?$allocator@U?$pair@$$CBKV?$map@KUPLAYERINFO@CChannelMgr@@U?$less@K@std@@V?$allocator@U?$pair@$$CBKUPLAYERINFO@CChannelMgr@@@std@@@4@@std@@@std@@@2@$0A@@std@@@std@@QAE@PAU_Node@?$_Tree_nod@V?$_Tmap_traits@KV?$map@KUPLAYERINFO@CChannelMgr@@U?$less@K@std@@V?$allocator@U?$pair@$$CBKUPLAYERINFO@CChannelMgr@@@std@@@4@@std@@U?$less@K@2@V?$allocator@U?$pair@$$CBKV?$map@KUPLAYERINFO@CChannelMgr@@U?$less@K@std@@V?$allocator@U?$pair@$$CBKUPLAYERINFO@CChannelMgr@@@std@@@4@@std@@@std@@@2@$0A@@std@@@2@PBV12@@Z 004039d0 f i ChannelMgr.obj
 0001:00002a00       ??Econst_iterator@?$_Tree@V?$_Tmap_traits@KV?$map@KUPLAYERINFO@CChannelMgr@@U?$less@K@std@@V?$allocator@U?$pair@$$CBKUPLAYERINFO@CChannelMgr@@@std@@@4@@std@@U?$less@K@2@V?$allocator@U?$pair@$$CBKV?$map@KUPLAYERINFO@CChannelMgr@@U?$less@K@std@@V?$allocator@U?$pair@$$CBKUPLAYERINFO@CChannelMgr@@@std@@@4@@std@@@std@@@2@$0A@@std@@@std@@QAEAAV012@XZ 00403a00 f i ChannelMgr.obj
 0001:00002a10       ?_Lbound@?$_Tree@V?$_Tmap_traits@KUPLAYERINFO@CChannelMgr@@U?$less@K@std@@V?$allocator@U?$pair@$$CBKUPLAYERINFO@CChannelMgr@@@std@@@4@$0A@@std@@@std@@IBEPAU_Node@?$_Tree_nod@V?$_Tmap_traits@KUPLAYERINFO@CChannelMgr@@U?$less@K@std@@V?$allocator@U?$pair@$$CBKUPLAYERINFO@CChannelMgr@@@std@@@4@$0A@@std@@@2@ABK@Z 00403a10 f i ChannelMgr.obj
 0001:00002a40       ??0iterator@?$_Tree@V?$_Tmap_traits@KUPLAYERINFO@CChannelMgr@@U?$less@K@std@@V?$allocator@U?$pair@$$CBKUPLAYERINFO@CChannelMgr@@@std@@@4@$0A@@std@@@std@@QAE@XZ 00403a40 f i ChannelMgr.obj
 0001:00002a50       ??0const_iterator@?$_Tree@V?$_Tmap_traits@KUPLAYERINFO@CChannelMgr@@U?$less@K@std@@V?$allocator@U?$pair@$$CBKUPLAYERINFO@CChannelMgr@@@std@@@4@$0A@@std@@@std@@QAE@PAU_Node@?$_Tree_nod@V?$_Tmap_traits@KUPLAYERINFO@CChannelMgr@@U?$less@K@std@@V?$allocator@U?$pair@$$CBKUPLAYERINFO@CChannelMgr@@@std@@@4@$0A@@std@@@2@PBV12@@Z 00403a50 f i ChannelMgr.obj
 0001:00002a80       ??Econst_iterator@?$_Tree@V?$_Tmap_traits@KUPLAYERINFO@CChannelMgr@@U?$less@K@std@@V?$allocator@U?$pair@$$CBKUPLAYERINFO@CChannelMgr@@@std@@@4@$0A@@std@@@std@@QAEAAV012@XZ 00403a80 f i ChannelMgr.obj
 0001:00002a90       ?allocate@?$allocator@U_Node@?$_List_nod@UtagPlusSrcInfo@@V?$allocator@UtagPlusSrcInfo@@@std@@@std@@@std@@QAEPAU_Node@?$_List_nod@UtagPlusSrcInfo@@V?$allocator@UtagPlusSrcInfo@@@std@@@2@I@Z 00403a90 f i ChannelMgr.obj
 0001:00002ab0       ?construct@?$allocator@PAU_Node@?$_List_nod@UtagPlusSrcInfo@@V?$allocator@UtagPlusSrcInfo@@@std@@@std@@@std@@QAEXPAPAU_Node@?$_List_nod@UtagPlusSrcInfo@@V?$allocator@UtagPlusSrcInfo@@@std@@@2@ABQAU342@@Z 00403ab0 f i ChannelMgr.obj
 0001:00002ad0       ?destroy@?$allocator@PAU_Node@?$_List_nod@UtagPlusSrcInfo@@V?$allocator@UtagPlusSrcInfo@@@std@@@std@@@std@@QAEXPAPAU_Node@?$_List_nod@UtagPlusSrcInfo@@V?$allocator@UtagPlusSrcInfo@@@std@@@2@@Z 00403ad0 f i ChannelMgr.obj
 0001:00002ae0       ??0iterator@?$_Tree@V?$_Tmap_traits@KV?$list@PAU_BLOCKCHANNELOP@CChannelMgr@@V?$allocator@PAU_BLOCKCHANNELOP@CChannelMgr@@@std@@@std@@U?$less@K@2@V?$allocator@U?$pair@$$CBKV?$list@PAU_BLOCKCHANNELOP@CChannelMgr@@V?$allocator@PAU_BLOCKCHANNELOP@CChannelMgr@@@std@@@std@@@std@@@2@$0A@@std@@@std@@QAE@XZ 00403ae0 f i ChannelMgr.obj
 0001:00002af0       ??0const_iterator@?$_Tree@V?$_Tmap_traits@KV?$list@PAU_BLOCKCHANNELOP@CChannelMgr@@V?$allocator@PAU_BLOCKCHANNELOP@CChannelMgr@@@std@@@std@@U?$less@K@2@V?$allocator@U?$pair@$$CBKV?$list@PAU_BLOCKCHANNELOP@CChannelMgr@@V?$allocator@PAU_BLOCKCHANNELOP@CChannelMgr@@@std@@@std@@@std@@@2@$0A@@std@@@std@@QAE@PAU_Node@?$_Tree_nod@V?$_Tmap_traits@KV?$list@PAU_BLOCKCHANNELOP@CChannelMgr@@V?$allocator@PAU_BLOCKCHANNELOP@CChannelMgr@@@std@@@std@@U?$less@K@2@V?$allocator@U?$pair@$$CBKV?$list@PAU_BLOCKCHANNELOP@CChannelMgr@@V?$allocator@PAU_BLOCKCHANNELOP@CChannelMgr@@@std@@@std@@@std@@@2@$0A@@std@@@2@PBV12@@Z 00403af0 f i ChannelMgr.obj
 0001:00002b20       ??0?$_Const_iterator@$00@?$list@PAU_BLOCKCHANNELOP@CChannelMgr@@V?$allocator@PAU_BLOCKCHANNELOP@CChannelMgr@@@std@@@std@@QAE@PAU_Node@?$_List_nod@PAU_BLOCKCHANNELOP@CChannelMgr@@V?$allocator@PAU_BLOCKCHANNELOP@CChannelMgr@@@std@@@2@PBV12@@Z 00403b20 f i ChannelMgr.obj
 0001:00002b50       ??0?$_Iterator@$00@?$list@UtagPlusSrcInfo@@V?$allocator@UtagPlusSrcInfo@@@std@@@std@@QAE@PAU_Node@?$_List_nod@UtagPlusSrcInfo@@V?$allocator@UtagPlusSrcInfo@@@std@@@2@PBV12@@Z 00403b50 f i ChannelMgr.obj
 0001:00002b80       ?max_size@?$_Tree@V?$_Tmap_traits@KV?$map@KUPLAYERINFO@CChannelMgr@@U?$less@K@std@@V?$allocator@U?$pair@$$CBKUPLAYERINFO@CChannelMgr@@@std@@@4@@std@@U?$less@K@2@V?$allocator@U?$pair@$$CBKV?$map@KUPLAYERINFO@CChannelMgr@@U?$less@K@std@@V?$allocator@U?$pair@$$CBKUPLAYERINFO@CChannelMgr@@@std@@@4@@std@@@std@@@2@$0A@@std@@@std@@QBEIXZ 00403b80 f i ChannelMgr.obj
 0001:00002b90       ?get_allocator@?$_Tree@V?$_Tmap_traits@KV?$map@KUPLAYERINFO@CChannelMgr@@U?$less@K@std@@V?$allocator@U?$pair@$$CBKUPLAYERINFO@CChannelMgr@@@std@@@4@@std@@U?$less@K@2@V?$allocator@U?$pair@$$CBKV?$map@KUPLAYERINFO@CChannelMgr@@U?$less@K@std@@V?$allocator@U?$pair@$$CBKUPLAYERINFO@CChannelMgr@@@std@@@4@@std@@@std@@@2@$0A@@std@@@std@@QBE?AV?$allocator@U?$pair@$$CBKV?$map@KUPLAYERINFO@CChannelMgr@@U?$less@K@std@@V?$allocator@U?$pair@$$CBKUPLAYERINFO@CChannelMgr@@@std@@@4@@std@@@std@@@2@XZ 00403b90 f i ChannelMgr.obj
 0001:00002ba0       ?destroy@?$allocator@PAU_Node@?$_Tree_nod@V?$_Tmap_traits@KV?$map@KUPLAYERINFO@CChannelMgr@@U?$less@K@std@@V?$allocator@U?$pair@$$CBKUPLAYERINFO@CChannelMgr@@@std@@@4@@std@@U?$less@K@2@V?$allocator@U?$pair@$$CBKV?$map@KUPLAYERINFO@CChannelMgr@@U?$less@K@std@@V?$allocator@U?$pair@$$CBKUPLAYERINFO@CChannelMgr@@@std@@@4@@std@@@std@@@2@$0A@@std@@@std@@@std@@QAEXPAPAU_Node@?$_Tree_nod@V?$_Tmap_traits@KV?$map@KUPLAYERINFO@CChannelMgr@@U?$less@K@std@@V?$allocator@U?$pair@$$CBKUPLAYERINFO@CChannelMgr@@@std@@@4@@std@@U?$less@K@2@V?$allocator@U?$pair@$$CBKV?$map@KUPLAYERINFO@CChannelMgr@@U?$less@K@std@@V?$allocator@U?$pair@$$CBKUPLAYERINFO@CChannelMgr@@@std@@@4@@std@@@std@@@2@$0A@@std@@@2@@Z 00403ba0 f i ChannelMgr.obj
 0001:00002bb0       ?max_size@?$_Tree@V?$_Tmap_traits@KUCHANNINFO@CChannelMgr@@U?$less@K@std@@V?$allocator@U?$pair@$$CBKUCHANNINFO@CChannelMgr@@@std@@@4@$0A@@std@@@std@@QBEIXZ 00403bb0 f i ChannelMgr.obj
 0001:00002bc0       ?max_size@?$_Tree@V?$_Tmap_traits@V?$basic_string@DU?$char_traits@D@std@@V?$allocator@D@2@@std@@KU_tstring_less@@V?$allocator@U?$pair@$$CBV?$basic_string@DU?$char_traits@D@std@@V?$allocator@D@2@@std@@K@std@@@2@$0A@@std@@@std@@QBEIXZ 00403bc0 f i ChannelMgr.obj
 0001:00002bd0       ?_Lrotate@?$_Tree@V?$_Tmap_traits@V?$basic_string@DU?$char_traits@D@std@@V?$allocator@D@2@@std@@KU_tstring_less@@V?$allocator@U?$pair@$$CBV?$basic_string@DU?$char_traits@D@std@@V?$allocator@D@2@@std@@K@std@@@2@$0A@@std@@@std@@IAEXPAU_Node@?$_Tree_nod@V?$_Tmap_traits@V?$basic_string@DU?$char_traits@D@std@@V?$allocator@D@2@@std@@KU_tstring_less@@V?$allocator@U?$pair@$$CBV?$basic_string@DU?$char_traits@D@std@@V?$allocator@D@2@@std@@K@std@@@2@$0A@@std@@@2@@Z 00403bd0 f i ChannelMgr.obj
 0001:00002c20       ?_Rrotate@?$_Tree@V?$_Tmap_traits@V?$basic_string@DU?$char_traits@D@std@@V?$allocator@D@2@@std@@KU_tstring_less@@V?$allocator@U?$pair@$$CBV?$basic_string@DU?$char_traits@D@std@@V?$allocator@D@2@@std@@K@std@@@2@$0A@@std@@@std@@IAEXPAU_Node@?$_Tree_nod@V?$_Tmap_traits@V?$basic_string@DU?$char_traits@D@std@@V?$allocator@D@2@@std@@KU_tstring_less@@V?$allocator@U?$pair@$$CBV?$basic_string@DU?$char_traits@D@std@@V?$allocator@D@2@@std@@K@std@@@2@$0A@@std@@@2@@Z 00403c20 f i ChannelMgr.obj
 0001:00002c80       ?max_size@?$_Tree@V?$_Tmap_traits@KV?$list@PAU_BLOCKCHANNELOP@CChannelMgr@@V?$allocator@PAU_BLOCKCHANNELOP@CChannelMgr@@@std@@@std@@U?$less@K@2@V?$allocator@U?$pair@$$CBKV?$list@PAU_BLOCKCHANNELOP@CChannelMgr@@V?$allocator@PAU_BLOCKCHANNELOP@CChannelMgr@@@std@@@std@@@std@@@2@$0A@@std@@@std@@QBEIXZ 00403c80 f i ChannelMgr.obj
 0001:00002c90       ?_Lrotate@?$_Tree@V?$_Tmap_traits@KV?$list@PAU_BLOCKCHANNELOP@CChannelMgr@@V?$allocator@PAU_BLOCKCHANNELOP@CChannelMgr@@@std@@@std@@U?$less@K@2@V?$allocator@U?$pair@$$CBKV?$list@PAU_BLOCKCHANNELOP@CChannelMgr@@V?$allocator@PAU_BLOCKCHANNELOP@CChannelMgr@@@std@@@std@@@std@@@2@$0A@@std@@@std@@IAEXPAU_Node@?$_Tree_nod@V?$_Tmap_traits@KV?$list@PAU_BLOCKCHANNELOP@CChannelMgr@@V?$allocator@PAU_BLOCKCHANNELOP@CChannelMgr@@@std@@@std@@U?$less@K@2@V?$allocator@U?$pair@$$CBKV?$list@PAU_BLOCKCHANNELOP@CChannelMgr@@V?$allocator@PAU_BLOCKCHANNELOP@CChannelMgr@@@std@@@std@@@std@@@2@$0A@@std@@@2@@Z 00403c90 f i ChannelMgr.obj
 0001:00002ce0       ?_Rrotate@?$_Tree@V?$_Tmap_traits@KV?$list@PAU_BLOCKCHANNELOP@CChannelMgr@@V?$allocator@PAU_BLOCKCHANNELOP@CChannelMgr@@@std@@@std@@U?$less@K@2@V?$allocator@U?$pair@$$CBKV?$list@PAU_BLOCKCHANNELOP@CChannelMgr@@V?$allocator@PAU_BLOCKCHANNELOP@CChannelMgr@@@std@@@std@@@std@@@2@$0A@@std@@@std@@IAEXPAU_Node@?$_Tree_nod@V?$_Tmap_traits@KV?$list@PAU_BLOCKCHANNELOP@CChannelMgr@@V?$allocator@PAU_BLOCKCHANNELOP@CChannelMgr@@@std@@@std@@U?$less@K@2@V?$allocator@U?$pair@$$CBKV?$list@PAU_BLOCKCHANNELOP@CChannelMgr@@V?$allocator@PAU_BLOCKCHANNELOP@CChannelMgr@@@std@@@std@@@std@@@2@$0A@@std@@@2@@Z 00403ce0 f i ChannelMgr.obj
 0001:00002d40       ??Fconst_iterator@?$_Tree@V?$_Tmap_traits@KUCHANNINFO@CChannelMgr@@U?$less@K@std@@V?$allocator@U?$pair@$$CBKUCHANNINFO@CChannelMgr@@@std@@@4@$0A@@std@@@std@@QAEAAV012@XZ 00403d40 f i ChannelMgr.obj
 0001:00002d50       ??Econst_iterator@?$_Tree@V?$_Tmap_traits@V?$basic_string@DU?$char_traits@D@std@@V?$allocator@D@2@@std@@KU_tstring_less@@V?$allocator@U?$pair@$$CBV?$basic_string@DU?$char_traits@D@std@@V?$allocator@D@2@@std@@K@std@@@2@$0A@@std@@@std@@QAEAAV012@XZ 00403d50 f i ChannelMgr.obj
 0001:00002d60       ??Fconst_iterator@?$_Tree@V?$_Tmap_traits@V?$basic_string@DU?$char_traits@D@std@@V?$allocator@D@2@@std@@KU_tstring_less@@V?$allocator@U?$pair@$$CBV?$basic_string@DU?$char_traits@D@std@@V?$allocator@D@2@@std@@K@std@@@2@$0A@@std@@@std@@QAEAAV012@XZ 00403d60 f i ChannelMgr.obj
 0001:00002d70       ??Fconst_iterator@?$_Tree@V?$_Tmap_traits@KV?$map@KUPLAYERINFO@CChannelMgr@@U?$less@K@std@@V?$allocator@U?$pair@$$CBKUPLAYERINFO@CChannelMgr@@@std@@@4@@std@@U?$less@K@2@V?$allocator@U?$pair@$$CBKV?$map@KUPLAYERINFO@CChannelMgr@@U?$less@K@std@@V?$allocator@U?$pair@$$CBKUPLAYERINFO@CChannelMgr@@@std@@@4@@std@@@std@@@2@$0A@@std@@@std@@QAEAAV012@XZ 00403d70 f i ChannelMgr.obj
 0001:00002d80       ?max_size@?$_Tree@V?$_Tmap_traits@KUPLAYERINFO@CChannelMgr@@U?$less@K@std@@V?$allocator@U?$pair@$$CBKUPLAYERINFO@CChannelMgr@@@std@@@4@$0A@@std@@@std@@QBEIXZ 00403d80 f i ChannelMgr.obj
 0001:00002d90       ?get_allocator@?$_Tree@V?$_Tmap_traits@KUPLAYERINFO@CChannelMgr@@U?$less@K@std@@V?$allocator@U?$pair@$$CBKUPLAYERINFO@CChannelMgr@@@std@@@4@$0A@@std@@@std@@QBE?AV?$allocator@U?$pair@$$CBKUPLAYERINFO@CChannelMgr@@@std@@@2@XZ 00403d90 f i ChannelMgr.obj
 0001:00002da0       ?_Lrotate@?$_Tree@V?$_Tmap_traits@KUPLAYERINFO@CChannelMgr@@U?$less@K@std@@V?$allocator@U?$pair@$$CBKUPLAYERINFO@CChannelMgr@@@std@@@4@$0A@@std@@@std@@IAEXPAU_Node@?$_Tree_nod@V?$_Tmap_traits@KUPLAYERINFO@CChannelMgr@@U?$less@K@std@@V?$allocator@U?$pair@$$CBKUPLAYERINFO@CChannelMgr@@@std@@@4@$0A@@std@@@2@@Z 00403da0 f i ChannelMgr.obj
 0001:00002df0       ?_Ubound@?$_Tree@V?$_Tmap_traits@KUPLAYERINFO@CChannelMgr@@U?$less@K@std@@V?$allocator@U?$pair@$$CBKUPLAYERINFO@CChannelMgr@@@std@@@4@$0A@@std@@@std@@IBEPAU_Node@?$_Tree_nod@V?$_Tmap_traits@KUPLAYERINFO@CChannelMgr@@U?$less@K@std@@V?$allocator@U?$pair@$$CBKUPLAYERINFO@CChannelMgr@@@std@@@4@$0A@@std@@@2@ABK@Z 00403df0 f i ChannelMgr.obj
 0001:00002e20       ?destroy@?$allocator@U_Node@?$_Tree_nod@V?$_Tmap_traits@KUPLAYERINFO@CChannelMgr@@U?$less@K@std@@V?$allocator@U?$pair@$$CBKUPLAYERINFO@CChannelMgr@@@std@@@4@$0A@@std@@@std@@@std@@QAEXPAU_Node@?$_Tree_nod@V?$_Tmap_traits@KUPLAYERINFO@CChannelMgr@@U?$less@K@std@@V?$allocator@U?$pair@$$CBKUPLAYERINFO@CChannelMgr@@@std@@@4@$0A@@std@@@2@@Z 00403e20 f i ChannelMgr.obj
 0001:00002e30       ?destroy@?$allocator@PAU_Node@?$_Tree_nod@V?$_Tmap_traits@KUPLAYERINFO@CChannelMgr@@U?$less@K@std@@V?$allocator@U?$pair@$$CBKUPLAYERINFO@CChannelMgr@@@std@@@4@$0A@@std@@@std@@@std@@QAEXPAPAU_Node@?$_Tree_nod@V?$_Tmap_traits@KUPLAYERINFO@CChannelMgr@@U?$less@K@std@@V?$allocator@U?$pair@$$CBKUPLAYERINFO@CChannelMgr@@@std@@@4@$0A@@std@@@2@@Z 00403e30 f i ChannelMgr.obj
 0001:00002e40       ??Fconst_iterator@?$_Tree@V?$_Tmap_traits@KUPLAYERINFO@CChannelMgr@@U?$less@K@std@@V?$allocator@U?$pair@$$CBKUPLAYERINFO@CChannelMgr@@@std@@@4@$0A@@std@@@std@@QAEAAV012@XZ 00403e40 f i ChannelMgr.obj
 0001:00002e50       ?max_size@?$list@UtagPlusSrcInfo@@V?$allocator@UtagPlusSrcInfo@@@std@@@std@@QBEIXZ 00403e50 f i ChannelMgr.obj
 0001:00002e60       ??0?$_List_nod@UtagPlusSrcInfo@@V?$allocator@UtagPlusSrcInfo@@@std@@@std@@IAE@V?$allocator@UtagPlusSrcInfo@@@1@@Z 00403e60 f i ChannelMgr.obj
 0001:00002e70       ?construct@?$allocator@UtagPlusSrcInfo@@@std@@QAEXPAUtagPlusSrcInfo@@ABU3@@Z 00403e70 f i ChannelMgr.obj
 0001:00002e90       ?destroy@?$allocator@U_Node@?$_List_nod@UtagPlusSrcInfo@@V?$allocator@UtagPlusSrcInfo@@@std@@@std@@@std@@QAEXPAU_Node@?$_List_nod@UtagPlusSrcInfo@@V?$allocator@UtagPlusSrcInfo@@@std@@@2@@Z 00403e90 f i ChannelMgr.obj
 0001:00002ea0       ?begin@?$list@PAU_BLOCKCHANNELOP@CChannelMgr@@V?$allocator@PAU_BLOCKCHANNELOP@CChannelMgr@@@std@@@std@@QBE?AV?$_Const_iterator@$00@12@XZ 00403ea0 f i ChannelMgr.obj
 0001:00002ec0       ?end@?$list@PAU_BLOCKCHANNELOP@CChannelMgr@@V?$allocator@PAU_BLOCKCHANNELOP@CChannelMgr@@@std@@@std@@QBE?AV?$_Const_iterator@$00@12@XZ 00403ec0 f i ChannelMgr.obj
 0001:00002ed0       ?max_size@?$list@PAU_BLOCKCHANNELOP@CChannelMgr@@V?$allocator@PAU_BLOCKCHANNELOP@CChannelMgr@@@std@@@std@@QBEIXZ 00403ed0 f i ChannelMgr.obj
 0001:00002ee0       ?construct@?$allocator@PAU_BLOCKCHANNELOP@CChannelMgr@@@std@@QAEXPAPAU_BLOCKCHANNELOP@CChannelMgr@@ABQAU34@@Z 00403ee0 f i ChannelMgr.obj
 0001:00002f00       ?allocate@?$allocator@U_Node@?$_List_nod@PAU_BLOCKCHANNELOP@CChannelMgr@@V?$allocator@PAU_BLOCKCHANNELOP@CChannelMgr@@@std@@@std@@@std@@QAEPAU_Node@?$_List_nod@PAU_BLOCKCHANNELOP@CChannelMgr@@V?$allocator@PAU_BLOCKCHANNELOP@CChannelMgr@@@std@@@2@I@Z 00403f00 f i ChannelMgr.obj
 0001:00002f20       ?construct@?$allocator@PAU_Node@?$_List_nod@PAU_BLOCKCHANNELOP@CChannelMgr@@V?$allocator@PAU_BLOCKCHANNELOP@CChannelMgr@@@std@@@std@@@std@@QAEXPAPAU_Node@?$_List_nod@PAU_BLOCKCHANNELOP@CChannelMgr@@V?$allocator@PAU_BLOCKCHANNELOP@CChannelMgr@@@std@@@2@ABQAU342@@Z 00403f20 f i ChannelMgr.obj
 0001:00002f40       ?destroy@?$allocator@PAU_Node@?$_List_nod@PAU_BLOCKCHANNELOP@CChannelMgr@@V?$allocator@PAU_BLOCKCHANNELOP@CChannelMgr@@@std@@@std@@@std@@QAEXPAPAU_Node@?$_List_nod@PAU_BLOCKCHANNELOP@CChannelMgr@@V?$allocator@PAU_BLOCKCHANNELOP@CChannelMgr@@@std@@@2@@Z 00403f40 f i ChannelMgr.obj
 0001:00002f50       ??Fconst_iterator@?$_Tree@V?$_Tmap_traits@KV?$list@PAU_BLOCKCHANNELOP@CChannelMgr@@V?$allocator@PAU_BLOCKCHANNELOP@CChannelMgr@@@std@@@std@@U?$less@K@2@V?$allocator@U?$pair@$$CBKV?$list@PAU_BLOCKCHANNELOP@CChannelMgr@@V?$allocator@PAU_BLOCKCHANNELOP@CChannelMgr@@@std@@@std@@@std@@@2@$0A@@std@@@std@@QAEAAV012@XZ 00403f50 f i ChannelMgr.obj
 0001:00002f60       ?_Inc@const_iterator@?$_Tree@V?$_Tmap_traits@KV?$list@PAU_BLOCKCHANNELOP@CChannelMgr@@V?$allocator@PAU_BLOCKCHANNELOP@CChannelMgr@@@std@@@std@@U?$less@K@2@V?$allocator@U?$pair@$$CBKV?$list@PAU_BLOCKCHANNELOP@CChannelMgr@@V?$allocator@PAU_BLOCKCHANNELOP@CChannelMgr@@@std@@@std@@@std@@@2@$0A@@std@@@std@@QAEXXZ 00403f60 f i ChannelMgr.obj
 0001:00002fd0       ?allocate@?$allocator@U_Node@?$_Tree_nod@V?$_Tmap_traits@KV?$map@KUPLAYERINFO@CChannelMgr@@U?$less@K@std@@V?$allocator@U?$pair@$$CBKUPLAYERINFO@CChannelMgr@@@std@@@4@@std@@U?$less@K@2@V?$allocator@U?$pair@$$CBKV?$map@KUPLAYERINFO@CChannelMgr@@U?$less@K@std@@V?$allocator@U?$pair@$$CBKUPLAYERINFO@CChannelMgr@@@std@@@4@@std@@@std@@@2@$0A@@std@@@std@@@std@@QAEPAU_Node@?$_Tree_nod@V?$_Tmap_traits@KV?$map@KUPLAYERINFO@CChannelMgr@@U?$less@K@std@@V?$allocator@U?$pair@$$CBKUPLAYERINFO@CChannelMgr@@@std@@@4@@std@@U?$less@K@2@V?$allocator@U?$pair@$$CBKV?$map@KUPLAYERINFO@CChannelMgr@@U?$less@K@std@@V?$allocator@U?$pair@$$CBKUPLAYERINFO@CChannelMgr@@@std@@@4@@std@@@std@@@2@$0A@@std@@@2@I@Z 00403fd0 f i ChannelMgr.obj
 0001:00002ff0       ??0?$_Tree_nod@V?$_Tmap_traits@KUCHANNINFO@CChannelMgr@@U?$less@K@std@@V?$allocator@U?$pair@$$CBKUCHANNINFO@CChannelMgr@@@std@@@4@$0A@@std@@@std@@IAE@ABU?$less@K@1@V?$allocator@U?$pair@$$CBKUCHANNINFO@CChannelMgr@@@std@@@1@@Z 00403ff0 f i ChannelMgr.obj
 0001:00003000       ?allocate@?$allocator@U_Node@?$_Tree_nod@V?$_Tmap_traits@KUCHANNINFO@CChannelMgr@@U?$less@K@std@@V?$allocator@U?$pair@$$CBKUCHANNINFO@CChannelMgr@@@std@@@4@$0A@@std@@@std@@@std@@QAEPAU_Node@?$_Tree_nod@V?$_Tmap_traits@KUCHANNINFO@CChannelMgr@@U?$less@K@std@@V?$allocator@U?$pair@$$CBKUCHANNINFO@CChannelMgr@@@std@@@4@$0A@@std@@@2@I@Z 00404000 f i ChannelMgr.obj
 0001:00003020       ?construct@?$allocator@PAU_Node@?$_Tree_nod@V?$_Tmap_traits@KUCHANNINFO@CChannelMgr@@U?$less@K@std@@V?$allocator@U?$pair@$$CBKUCHANNINFO@CChannelMgr@@@std@@@4@$0A@@std@@@std@@@std@@QAEXPAPAU_Node@?$_Tree_nod@V?$_Tmap_traits@KUCHANNINFO@CChannelMgr@@U?$less@K@std@@V?$allocator@U?$pair@$$CBKUCHANNINFO@CChannelMgr@@@std@@@4@$0A@@std@@@2@ABQAU342@@Z 00404020 f i ChannelMgr.obj
 0001:00003040       ??0?$_Tree_nod@V?$_Tmap_traits@V?$basic_string@DU?$char_traits@D@std@@V?$allocator@D@2@@std@@KU_tstring_less@@V?$allocator@U?$pair@$$CBV?$basic_string@DU?$char_traits@D@std@@V?$allocator@D@2@@std@@K@std@@@2@$0A@@std@@@std@@IAE@ABU_tstring_less@@V?$allocator@U?$pair@$$CBV?$basic_string@DU?$char_traits@D@std@@V?$allocator@D@2@@std@@K@std@@@1@@Z 00404040 f i ChannelMgr.obj
 0001:00003050       ?allocate@?$allocator@U_Node@?$_Tree_nod@V?$_Tmap_traits@V?$basic_string@DU?$char_traits@D@std@@V?$allocator@D@2@@std@@KU_tstring_less@@V?$allocator@U?$pair@$$CBV?$basic_string@DU?$char_traits@D@std@@V?$allocator@D@2@@std@@K@std@@@2@$0A@@std@@@std@@@std@@QAEPAU_Node@?$_Tree_nod@V?$_Tmap_traits@V?$basic_string@DU?$char_traits@D@std@@V?$allocator@D@2@@std@@KU_tstring_less@@V?$allocator@U?$pair@$$CBV?$basic_string@DU?$char_traits@D@std@@V?$allocator@D@2@@std@@K@std@@@2@$0A@@std@@@2@I@Z 00404050 f i ChannelMgr.obj
 0001:00003070       ?construct@?$allocator@PAU_Node@?$_Tree_nod@V?$_Tmap_traits@V?$basic_string@DU?$char_traits@D@std@@V?$allocator@D@2@@std@@KU_tstring_less@@V?$allocator@U?$pair@$$CBV?$basic_string@DU?$char_traits@D@std@@V?$allocator@D@2@@std@@K@std@@@2@$0A@@std@@@std@@@std@@QAEXPAPAU_Node@?$_Tree_nod@V?$_Tmap_traits@V?$basic_string@DU?$char_traits@D@std@@V?$allocator@D@2@@std@@KU_tstring_less@@V?$allocator@U?$pair@$$CBV?$basic_string@DU?$char_traits@D@std@@V?$allocator@D@2@@std@@K@std@@@2@$0A@@std@@@2@ABQAU342@@Z 00404070 f i ChannelMgr.obj
 0001:00003090       ??0?$_Tree_nod@V?$_Tmap_traits@KV?$list@PAU_BLOCKCHANNELOP@CChannelMgr@@V?$allocator@PAU_BLOCKCHANNELOP@CChannelMgr@@@std@@@std@@U?$less@K@2@V?$allocator@U?$pair@$$CBKV?$list@PAU_BLOCKCHANNELOP@CChannelMgr@@V?$allocator@PAU_BLOCKCHANNELOP@CChannelMgr@@@std@@@std@@@std@@@2@$0A@@std@@@std@@IAE@ABU?$less@K@1@V?$allocator@U?$pair@$$CBKV?$list@PAU_BLOCKCHANNELOP@CChannelMgr@@V?$allocator@PAU_BLOCKCHANNELOP@CChannelMgr@@@std@@@std@@@std@@@1@@Z 00404090 f i ChannelMgr.obj
 0001:000030a0       ?allocate@?$allocator@U_Node@?$_Tree_nod@V?$_Tmap_traits@KV?$list@PAU_BLOCKCHANNELOP@CChannelMgr@@V?$allocator@PAU_BLOCKCHANNELOP@CChannelMgr@@@std@@@std@@U?$less@K@2@V?$allocator@U?$pair@$$CBKV?$list@PAU_BLOCKCHANNELOP@CChannelMgr@@V?$allocator@PAU_BLOCKCHANNELOP@CChannelMgr@@@std@@@std@@@std@@@2@$0A@@std@@@std@@@std@@QAEPAU_Node@?$_Tree_nod@V?$_Tmap_traits@KV?$list@PAU_BLOCKCHANNELOP@CChannelMgr@@V?$allocator@PAU_BLOCKCHANNELOP@CChannelMgr@@@std@@@std@@U?$less@K@2@V?$allocator@U?$pair@$$CBKV?$list@PAU_BLOCKCHANNELOP@CChannelMgr@@V?$allocator@PAU_BLOCKCHANNELOP@CChannelMgr@@@std@@@std@@@std@@@2@$0A@@std@@@2@I@Z 004040a0 f i ChannelMgr.obj
 0001:000030c0       ?construct@?$allocator@PAU_Node@?$_Tree_nod@V?$_Tmap_traits@KV?$list@PAU_BLOCKCHANNELOP@CChannelMgr@@V?$allocator@PAU_BLOCKCHANNELOP@CChannelMgr@@@std@@@std@@U?$less@K@2@V?$allocator@U?$pair@$$CBKV?$list@PAU_BLOCKCHANNELOP@CChannelMgr@@V?$allocator@PAU_BLOCKCHANNELOP@CChannelMgr@@@std@@@std@@@std@@@2@$0A@@std@@@std@@@std@@QAEXPAPAU_Node@?$_Tree_nod@V?$_Tmap_traits@KV?$list@PAU_BLOCKCHANNELOP@CChannelMgr@@V?$allocator@PAU_BLOCKCHANNELOP@CChannelMgr@@@std@@@std@@U?$less@K@2@V?$allocator@U?$pair@$$CBKV?$list@PAU_BLOCKCHANNELOP@CChannelMgr@@V?$allocator@PAU_BLOCKCHANNELOP@CChannelMgr@@@std@@@std@@@std@@@2@$0A@@std@@@2@ABQAU342@@Z 004040c0 f i ChannelMgr.obj
 0001:000030e0       ?allocate@?$allocator@U_Node@?$_Tree_nod@V?$_Tmap_traits@KUPLAYERINFO@CChannelMgr@@U?$less@K@std@@V?$allocator@U?$pair@$$CBKUPLAYERINFO@CChannelMgr@@@std@@@4@$0A@@std@@@std@@@std@@QAEPAU_Node@?$_Tree_nod@V?$_Tmap_traits@KUPLAYERINFO@CChannelMgr@@U?$less@K@std@@V?$allocator@U?$pair@$$CBKUPLAYERINFO@CChannelMgr@@@std@@@4@$0A@@std@@@2@I@Z 004040e0 f i ChannelMgr.obj
 0001:00003100       ??0?$_List_nod@PAU_BLOCKCHANNELOP@CChannelMgr@@V?$allocator@PAU_BLOCKCHANNELOP@CChannelMgr@@@std@@@std@@IAE@V?$allocator@PAU_BLOCKCHANNELOP@CChannelMgr@@@1@@Z 00404100 f i ChannelMgr.obj
 0001:00003110       ?destroy@?$allocator@U_Node@?$_List_nod@PAU_BLOCKCHANNELOP@CChannelMgr@@V?$allocator@PAU_BLOCKCHANNELOP@CChannelMgr@@@std@@@std@@@std@@QAEXPAU_Node@?$_List_nod@PAU_BLOCKCHANNELOP@CChannelMgr@@V?$allocator@PAU_BLOCKCHANNELOP@CChannelMgr@@@std@@@2@@Z 00404110 f i ChannelMgr.obj
 0001:00003120       ??0?$_Tree_nod@V?$_Tmap_traits@KV?$map@KUPLAYERINFO@CChannelMgr@@U?$less@K@std@@V?$allocator@U?$pair@$$CBKUPLAYERINFO@CChannelMgr@@@std@@@4@@std@@U?$less@K@2@V?$allocator@U?$pair@$$CBKV?$map@KUPLAYERINFO@CChannelMgr@@U?$less@K@std@@V?$allocator@U?$pair@$$CBKUPLAYERINFO@CChannelMgr@@@std@@@4@@std@@@std@@@2@$0A@@std@@@std@@IAE@ABU?$less@K@1@V?$allocator@U?$pair@$$CBKV?$map@KUPLAYERINFO@CChannelMgr@@U?$less@K@std@@V?$allocator@U?$pair@$$CBKUPLAYERINFO@CChannelMgr@@@std@@@4@@std@@@std@@@1@@Z 00404120 f i ChannelMgr.obj
 0001:00003130       ?construct@?$allocator@PAU_Node@?$_Tree_nod@V?$_Tmap_traits@KV?$map@KUPLAYERINFO@CChannelMgr@@U?$less@K@std@@V?$allocator@U?$pair@$$CBKUPLAYERINFO@CChannelMgr@@@std@@@4@@std@@U?$less@K@2@V?$allocator@U?$pair@$$CBKV?$map@KUPLAYERINFO@CChannelMgr@@U?$less@K@std@@V?$allocator@U?$pair@$$CBKUPLAYERINFO@CChannelMgr@@@std@@@4@@std@@@std@@@2@$0A@@std@@@std@@@std@@QAEXPAPAU_Node@?$_Tree_nod@V?$_Tmap_traits@KV?$map@KUPLAYERINFO@CChannelMgr@@U?$less@K@std@@V?$allocator@U?$pair@$$CBKUPLAYERINFO@CChannelMgr@@@std@@@4@@std@@U?$less@K@2@V?$allocator@U?$pair@$$CBKV?$map@KUPLAYERINFO@CChannelMgr@@U?$less@K@std@@V?$allocator@U?$pair@$$CBKUPLAYERINFO@CChannelMgr@@@std@@@4@@std@@@std@@@2@$0A@@std@@@2@ABQAU342@@Z 00404130 f i ChannelMgr.obj
 0001:00003150       ??0?$_Tree_nod@V?$_Tmap_traits@KUPLAYERINFO@CChannelMgr@@U?$less@K@std@@V?$allocator@U?$pair@$$CBKUPLAYERINFO@CChannelMgr@@@std@@@4@$0A@@std@@@std@@IAE@ABU?$less@K@1@V?$allocator@U?$pair@$$CBKUPLAYERINFO@CChannelMgr@@@std@@@1@@Z 00404150 f i ChannelMgr.obj
 0001:00003160       ?construct@?$allocator@PAU_Node@?$_Tree_nod@V?$_Tmap_traits@KUPLAYERINFO@CChannelMgr@@U?$less@K@std@@V?$allocator@U?$pair@$$CBKUPLAYERINFO@CChannelMgr@@@std@@@4@$0A@@std@@@std@@@std@@QAEXPAPAU_Node@?$_Tree_nod@V?$_Tmap_traits@KUPLAYERINFO@CChannelMgr@@U?$less@K@std@@V?$allocator@U?$pair@$$CBKUPLAYERINFO@CChannelMgr@@@std@@@4@$0A@@std@@@2@ABQAU342@@Z 00404160 f i ChannelMgr.obj
 0001:00003180       ??F?$_Iterator@$00@?$list@PAU_BLOCKCHANNELOP@CChannelMgr@@V?$allocator@PAU_BLOCKCHANNELOP@CChannelMgr@@@std@@@std@@QAEAAV012@XZ 00404180 f i ChannelMgr.obj
 0001:000031b0       ?GainPreCost@CChannelMgr@@QAEEABV?$basic_string@DU?$char_traits@D@std@@V?$allocator@D@2@@std@@@Z 004041b0 f   ChannelMgr.obj
 0001:00003280       ?IsNeedRelegate@CChannelMgr@@AAEHABV?$basic_string@DU?$char_traits@D@std@@V?$allocator@D@2@@std@@H@Z 00404280 f   ChannelMgr.obj
 0001:000032e0       ?data@?$basic_string@DU?$char_traits@D@std@@V?$allocator@D@2@@std@@QBEPBDXZ 004042e0 f i ChannelMgr.obj
 0001:000032f0       ?find_last_of@?$basic_string@DU?$char_traits@D@std@@V?$allocator@D@2@@std@@QBEIDI@Z 004042f0 f i ChannelMgr.obj
 0001:00003310       ?find_last_not_of@?$basic_string@DU?$char_traits@D@std@@V?$allocator@D@2@@std@@QBEIPBDI@Z 00404310 f i ChannelMgr.obj
 0001:00003340       ?allocate@?$allocator@UBLOCKCHANNELOP_QID@CChannelMgr@@@std@@QAEPAUBLOCKCHANNELOP_QID@CChannelMgr@@IPBX@Z 00404340 f i ChannelMgr.obj
 0001:00003360       ?allocate@?$allocator@UBLOCKCHANNELOP_CMN@CChannelMgr@@@std@@QAEPAUBLOCKCHANNELOP_CMN@CChannelMgr@@IPBX@Z 00404360 f i ChannelMgr.obj
 0001:00003380       ?allocate@?$allocator@UBLOCKCHANNELOP_CLR@CChannelMgr@@@std@@QAEPAUBLOCKCHANNELOP_CLR@CChannelMgr@@IPBX@Z 00404380 f i ChannelMgr.obj
 0001:000033a0       ?begin@?$vector@V?$basic_string@DU?$char_traits@D@std@@V?$allocator@D@2@@std@@V?$allocator@V?$basic_string@DU?$char_traits@D@std@@V?$allocator@D@2@@std@@@2@@std@@QBE?AV?$_Vector_const_iterator@V?$basic_string@DU?$char_traits@D@std@@V?$allocator@D@2@@std@@V?$allocator@V?$basic_string@DU?$char_traits@D@std@@V?$allocator@D@2@@std@@@2@@2@XZ 004043a0 f i ChannelMgr.obj
 0001:000033d0       ?end@?$vector@V?$basic_string@DU?$char_traits@D@std@@V?$allocator@D@2@@std@@V?$allocator@V?$basic_string@DU?$char_traits@D@std@@V?$allocator@D@2@@std@@@2@@std@@QBE?AV?$_Vector_const_iterator@V?$basic_string@DU?$char_traits@D@std@@V?$allocator@D@2@@std@@V?$allocator@V?$basic_string@DU?$char_traits@D@std@@V?$allocator@D@2@@std@@@2@@2@XZ 004043d0 f i ChannelMgr.obj
 0001:00003400       ??Diterator@?$_Tree@V?$_Tmap_traits@KUCHANNINFO@CChannelMgr@@U?$less@K@std@@V?$allocator@U?$pair@$$CBKUCHANNINFO@CChannelMgr@@@std@@@4@$0A@@std@@@std@@QBEAAU?$pair@$$CBKUCHANNINFO@CChannelMgr@@@2@XZ 00404400 f i ChannelMgr.obj
 0001:00003430       ??Diterator@?$_Tree@V?$_Tmap_traits@V?$basic_string@DU?$char_traits@D@std@@V?$allocator@D@2@@std@@KU_tstring_less@@V?$allocator@U?$pair@$$CBV?$basic_string@DU?$char_traits@D@std@@V?$allocator@D@2@@std@@K@std@@@2@$0A@@std@@@std@@QBEAAU?$pair@$$CBV?$basic_string@DU?$char_traits@D@std@@V?$allocator@D@2@@std@@K@2@XZ 00404430 f i ChannelMgr.obj
 0001:00003460       ??Diterator@?$_Tree@V?$_Tmap_traits@KV?$map@KUPLAYERINFO@CChannelMgr@@U?$less@K@std@@V?$allocator@U?$pair@$$CBKUPLAYERINFO@CChannelMgr@@@std@@@4@@std@@U?$less@K@2@V?$allocator@U?$pair@$$CBKV?$map@KUPLAYERINFO@CChannelMgr@@U?$less@K@std@@V?$allocator@U?$pair@$$CBKUPLAYERINFO@CChannelMgr@@@std@@@4@@std@@@std@@@2@$0A@@std@@@std@@QBEAAU?$pair@$$CBKV?$map@KUPLAYERINFO@CChannelMgr@@U?$less@K@std@@V?$allocator@U?$pair@$$CBKUPLAYERINFO@CChannelMgr@@@std@@@4@@std@@@2@XZ 00404460 f i ChannelMgr.obj
 0001:00003490       ??Diterator@?$_Tree@V?$_Tmap_traits@KUPLAYERINFO@CChannelMgr@@U?$less@K@std@@V?$allocator@U?$pair@$$CBKUPLAYERINFO@CChannelMgr@@@std@@@4@$0A@@std@@@std@@QBEAAU?$pair@$$CBKUPLAYERINFO@CChannelMgr@@@2@XZ 00404490 f i ChannelMgr.obj
 0001:000034c0       ?begin@?$list@UtagPlusSrcInfo@@V?$allocator@UtagPlusSrcInfo@@@std@@@std@@QBE?AV?$_Const_iterator@$00@12@XZ 004044c0 f i ChannelMgr.obj
 0001:000034e0       ?end@?$list@UtagPlusSrcInfo@@V?$allocator@UtagPlusSrcInfo@@@std@@@std@@QBE?AV?$_Const_iterator@$00@12@XZ 004044e0 f i ChannelMgr.obj
 0001:000034f0       ??Diterator@?$_Tree@V?$_Tmap_traits@KV?$list@PAU_BLOCKCHANNELOP@CChannelMgr@@V?$allocator@PAU_BLOCKCHANNELOP@CChannelMgr@@@std@@@std@@U?$less@K@2@V?$allocator@U?$pair@$$CBKV?$list@PAU_BLOCKCHANNELOP@CChannelMgr@@V?$allocator@PAU_BLOCKCHANNELOP@CChannelMgr@@@std@@@std@@@std@@@2@$0A@@std@@@std@@QBEAAU?$pair@$$CBKV?$list@PAU_BLOCKCHANNELOP@CChannelMgr@@V?$allocator@PAU_BLOCKCHANNELOP@CChannelMgr@@@std@@@std@@@2@XZ 004044f0 f i ChannelMgr.obj
 0001:00003520       ??D?$_Iterator@$00@?$list@PAU_BLOCKCHANNELOP@CChannelMgr@@V?$allocator@PAU_BLOCKCHANNELOP@CChannelMgr@@@std@@@std@@QBEAAPAU_BLOCKCHANNELOP@CChannelMgr@@XZ 00404520 f i ChannelMgr.obj
 0001:00003550       ??E?$_Iterator@$00@?$list@PAU_BLOCKCHANNELOP@CChannelMgr@@V?$allocator@PAU_BLOCKCHANNELOP@CChannelMgr@@@std@@@std@@QAE?AV012@H@Z 00404550 f i ChannelMgr.obj
 0001:00003590       ??R_tstring_less@@QBE_NABV?$basic_string@DU?$char_traits@D@std@@V?$allocator@D@2@@std@@0@Z 00404590 f i ChannelMgr.obj
 0001:000035f0       ??R_tstring_equal@@QBE_NABV?$basic_string@DU?$char_traits@D@std@@V?$allocator@D@2@@std@@0@Z 004045f0 f i ChannelMgr.obj
 0001:00003650       ??0iterator@?$_Tree@V?$_Tmap_traits@KUCHANNINFO@CChannelMgr@@U?$less@K@std@@V?$allocator@U?$pair@$$CBKUCHANNINFO@CChannelMgr@@@std@@@4@$0A@@std@@@std@@QAE@PAU_Node@?$_Tree_nod@V?$_Tmap_traits@KUCHANNINFO@CChannelMgr@@U?$less@K@std@@V?$allocator@U?$pair@$$CBKUCHANNINFO@CChannelMgr@@@std@@@4@$0A@@std@@@2@PBV12@@Z 00404650 f i ChannelMgr.obj
 0001:00003680       ??Eiterator@?$_Tree@V?$_Tmap_traits@KUCHANNINFO@CChannelMgr@@U?$less@K@std@@V?$allocator@U?$pair@$$CBKUCHANNINFO@CChannelMgr@@@std@@@4@$0A@@std@@@std@@QAEAAV012@XZ 00404680 f i ChannelMgr.obj
 0001:00003690       ??0iterator@?$_Tree@V?$_Tmap_traits@V?$basic_string@DU?$char_traits@D@std@@V?$allocator@D@2@@std@@KU_tstring_less@@V?$allocator@U?$pair@$$CBV?$basic_string@DU?$char_traits@D@std@@V?$allocator@D@2@@std@@K@std@@@2@$0A@@std@@@std@@QAE@PAU_Node@?$_Tree_nod@V?$_Tmap_traits@V?$basic_string@DU?$char_traits@D@std@@V?$allocator@D@2@@std@@KU_tstring_less@@V?$allocator@U?$pair@$$CBV?$basic_string@DU?$char_traits@D@std@@V?$allocator@D@2@@std@@K@std@@@2@$0A@@std@@@2@PBV12@@Z 00404690 f i ChannelMgr.obj
 0001:000036c0       ??0iterator@?$_Tree@V?$_Tmap_traits@KV?$map@KUPLAYERINFO@CChannelMgr@@U?$less@K@std@@V?$allocator@U?$pair@$$CBKUPLAYERINFO@CChannelMgr@@@std@@@4@@std@@U?$less@K@2@V?$allocator@U?$pair@$$CBKV?$map@KUPLAYERINFO@CChannelMgr@@U?$less@K@std@@V?$allocator@U?$pair@$$CBKUPLAYERINFO@CChannelMgr@@@std@@@4@@std@@@std@@@2@$0A@@std@@@std@@QAE@PAU_Node@?$_Tree_nod@V?$_Tmap_traits@KV?$map@KUPLAYERINFO@CChannelMgr@@U?$less@K@std@@V?$allocator@U?$pair@$$CBKUPLAYERINFO@CChannelMgr@@@std@@@4@@std@@U?$less@K@2@V?$allocator@U?$pair@$$CBKV?$map@KUPLAYERINFO@CChannelMgr@@U?$less@K@std@@V?$allocator@U?$pair@$$CBKUPLAYERINFO@CChannelMgr@@@std@@@4@@std@@@std@@@2@$0A@@std@@@2@PBV12@@Z 004046c0 f i ChannelMgr.obj
 0001:000036f0       ??Eiterator@?$_Tree@V?$_Tmap_traits@KV?$map@KUPLAYERINFO@CChannelMgr@@U?$less@K@std@@V?$allocator@U?$pair@$$CBKUPLAYERINFO@CChannelMgr@@@std@@@4@@std@@U?$less@K@2@V?$allocator@U?$pair@$$CBKV?$map@KUPLAYERINFO@CChannelMgr@@U?$less@K@std@@V?$allocator@U?$pair@$$CBKUPLAYERINFO@CChannelMgr@@@std@@@4@@std@@@std@@@2@$0A@@std@@@std@@QAEAAV012@XZ 004046f0 f i ChannelMgr.obj
 0001:00003700       ?_Tidy@?$basic_string@DU?$char_traits@D@std@@V?$allocator@D@2@@std@@IAEX_NI@Z 00404700 f i ChannelMgr.obj
 0001:00003750       ??0iterator@?$_Tree@V?$_Tmap_traits@KUPLAYERINFO@CChannelMgr@@U?$less@K@std@@V?$allocator@U?$pair@$$CBKUPLAYERINFO@CChannelMgr@@@std@@@4@$0A@@std@@@std@@QAE@PAU_Node@?$_Tree_nod@V?$_Tmap_traits@KUPLAYERINFO@CChannelMgr@@U?$less@K@std@@V?$allocator@U?$pair@$$CBKUPLAYERINFO@CChannelMgr@@@std@@@4@$0A@@std@@@2@PBV12@@Z 00404750 f i ChannelMgr.obj
 0001:00003780       ??Eiterator@?$_Tree@V?$_Tmap_traits@KUPLAYERINFO@CChannelMgr@@U?$less@K@std@@V?$allocator@U?$pair@$$CBKUPLAYERINFO@CChannelMgr@@@std@@@4@$0A@@std@@@std@@QAEAAV012@XZ 00404780 f i ChannelMgr.obj
 0001:00003790       ?end@?$list@UtagPlusSrcInfo@@V?$allocator@UtagPlusSrcInfo@@@std@@@std@@QAE?AV?$_Iterator@$00@12@XZ 00404790 f i ChannelMgr.obj
 0001:000037a0       ?_Buynode@?$list@UtagPlusSrcInfo@@V?$allocator@UtagPlusSrcInfo@@@std@@@std@@IAEPAU_Node@?$_List_nod@UtagPlusSrcInfo@@V?$allocator@UtagPlusSrcInfo@@@std@@@2@XZ 004047a0 f i ChannelMgr.obj
 0001:000037c0       ??0iterator@?$_Tree@V?$_Tmap_traits@KV?$list@PAU_BLOCKCHANNELOP@CChannelMgr@@V?$allocator@PAU_BLOCKCHANNELOP@CChannelMgr@@@std@@@std@@U?$less@K@2@V?$allocator@U?$pair@$$CBKV?$list@PAU_BLOCKCHANNELOP@CChannelMgr@@V?$allocator@PAU_BLOCKCHANNELOP@CChannelMgr@@@std@@@std@@@std@@@2@$0A@@std@@@std@@QAE@PAU_Node@?$_Tree_nod@V?$_Tmap_traits@KV?$list@PAU_BLOCKCHANNELOP@CChannelMgr@@V?$allocator@PAU_BLOCKCHANNELOP@CChannelMgr@@@std@@@std@@U?$less@K@2@V?$allocator@U?$pair@$$CBKV?$list@PAU_BLOCKCHANNELOP@CChannelMgr@@V?$allocator@PAU_BLOCKCHANNELOP@CChannelMgr@@@std@@@std@@@std@@@2@$0A@@std@@@2@PBV12@@Z 004047c0 f i ChannelMgr.obj
 0001:000037f0       ??0?$_Iterator@$00@?$list@PAU_BLOCKCHANNELOP@CChannelMgr@@V?$allocator@PAU_BLOCKCHANNELOP@CChannelMgr@@@std@@@std@@QAE@PAU_Node@?$_List_nod@PAU_BLOCKCHANNELOP@CChannelMgr@@V?$allocator@PAU_BLOCKCHANNELOP@CChannelMgr@@@std@@@2@PBV12@@Z 004047f0 f i ChannelMgr.obj
 0001:00003820       ?erase@?$basic_string@DU?$char_traits@D@std@@V?$allocator@D@2@@std@@QAEAAV12@II@Z 00404820 f i ChannelMgr.obj
 0001:000038b0       ?_Copy@?$basic_string@DU?$char_traits@D@std@@V?$allocator@D@2@@std@@IAEXII@Z 004048b0 f i ChannelMgr.obj
 0001:00003a00       ?begin@?$_Tree@V?$_Tmap_traits@V?$basic_string@DU?$char_traits@D@std@@V?$allocator@D@2@@std@@KU_tstring_less@@V?$allocator@U?$pair@$$CBV?$basic_string@DU?$char_traits@D@std@@V?$allocator@D@2@@std@@K@std@@@2@$0A@@std@@@std@@QAE?AViterator@12@XZ 00404a00 f i ChannelMgr.obj
 0001:00003a20       ?_Lbound@?$_Tree@V?$_Tmap_traits@V?$basic_string@DU?$char_traits@D@std@@V?$allocator@D@2@@std@@KU_tstring_less@@V?$allocator@U?$pair@$$CBV?$basic_string@DU?$char_traits@D@std@@V?$allocator@D@2@@std@@K@std@@@2@$0A@@std@@@std@@IBEPAU_Node@?$_Tree_nod@V?$_Tmap_traits@V?$basic_string@DU?$char_traits@D@std@@V?$allocator@D@2@@std@@KU_tstring_less@@V?$allocator@U?$pair@$$CBV?$basic_string@DU?$char_traits@D@std@@V?$allocator@D@2@@std@@K@std@@@2@$0A@@std@@@2@ABV?$basic_string@DU?$char_traits@D@std@@V?$allocator@D@2@@2@@Z 00404a20 f i ChannelMgr.obj
 0001:00003aa0       ??Fiterator@?$_Tree@V?$_Tmap_traits@KUCHANNINFO@CChannelMgr@@U?$less@K@std@@V?$allocator@U?$pair@$$CBKUCHANNINFO@CChannelMgr@@@std@@@4@$0A@@std@@@std@@QAEAAV012@XZ 00404aa0 f i ChannelMgr.obj
 0001:00003ab0       ??Eiterator@?$_Tree@V?$_Tmap_traits@V?$basic_string@DU?$char_traits@D@std@@V?$allocator@D@2@@std@@KU_tstring_less@@V?$allocator@U?$pair@$$CBV?$basic_string@DU?$char_traits@D@std@@V?$allocator@D@2@@std@@K@std@@@2@$0A@@std@@@std@@QAEAAV012@XZ 00404ab0 f i ChannelMgr.obj
 0001:00003ac0       ??Eiterator@?$_Tree@V?$_Tmap_traits@V?$basic_string@DU?$char_traits@D@std@@V?$allocator@D@2@@std@@KU_tstring_less@@V?$allocator@U?$pair@$$CBV?$basic_string@DU?$char_traits@D@std@@V?$allocator@D@2@@std@@K@std@@@2@$0A@@std@@@std@@QAE?AV012@H@Z 00404ac0 f i ChannelMgr.obj
 0001:00003ae0       ??Fiterator@?$_Tree@V?$_Tmap_traits@V?$basic_string@DU?$char_traits@D@std@@V?$allocator@D@2@@std@@KU_tstring_less@@V?$allocator@U?$pair@$$CBV?$basic_string@DU?$char_traits@D@std@@V?$allocator@D@2@@std@@K@std@@@2@$0A@@std@@@std@@QAEAAV012@XZ 00404ae0 f i ChannelMgr.obj
 0001:00003af0       ??Fiterator@?$_Tree@V?$_Tmap_traits@KV?$map@KUPLAYERINFO@CChannelMgr@@U?$less@K@std@@V?$allocator@U?$pair@$$CBKUPLAYERINFO@CChannelMgr@@@std@@@4@@std@@U?$less@K@2@V?$allocator@U?$pair@$$CBKV?$map@KUPLAYERINFO@CChannelMgr@@U?$less@K@std@@V?$allocator@U?$pair@$$CBKUPLAYERINFO@CChannelMgr@@@std@@@4@@std@@@std@@@2@$0A@@std@@@std@@QAEAAV012@XZ 00404af0 f i ChannelMgr.obj
 0001:00003b00       ?upper_bound@?$_Tree@V?$_Tmap_traits@KUPLAYERINFO@CChannelMgr@@U?$less@K@std@@V?$allocator@U?$pair@$$CBKUPLAYERINFO@CChannelMgr@@@std@@@4@$0A@@std@@@std@@QAE?AViterator@12@ABK@Z 00404b00 f i ChannelMgr.obj
 0001:00003b40       ??Fiterator@?$_Tree@V?$_Tmap_traits@KUPLAYERINFO@CChannelMgr@@U?$less@K@std@@V?$allocator@U?$pair@$$CBKUPLAYERINFO@CChannelMgr@@@std@@@4@$0A@@std@@@std@@QAEAAV012@XZ 00404b40 f i ChannelMgr.obj
 0001:00003b50       ?clear@?$list@UtagPlusSrcInfo@@V?$allocator@UtagPlusSrcInfo@@@std@@@std@@QAEXXZ 00404b50 f i ChannelMgr.obj
 0001:00003b90       ?_Buynode@?$list@UtagPlusSrcInfo@@V?$allocator@UtagPlusSrcInfo@@@std@@@std@@IAEPAU_Node@?$_List_nod@UtagPlusSrcInfo@@V?$allocator@UtagPlusSrcInfo@@@std@@@2@PAU342@0ABUtagPlusSrcInfo@@@Z 00404b90 f i ChannelMgr.obj
 0001:00003bd0       ??0?$_List_ptr@UtagPlusSrcInfo@@V?$allocator@UtagPlusSrcInfo@@@std@@@std@@IAE@V?$allocator@UtagPlusSrcInfo@@@1@@Z 00404bd0 f i ChannelMgr.obj
 0001:00003be0       ?_Buynode@?$list@PAU_BLOCKCHANNELOP@CChannelMgr@@V?$allocator@PAU_BLOCKCHANNELOP@CChannelMgr@@@std@@@std@@IAEPAU_Node@?$_List_nod@PAU_BLOCKCHANNELOP@CChannelMgr@@V?$allocator@PAU_BLOCKCHANNELOP@CChannelMgr@@@std@@@2@XZ 00404be0 f i ChannelMgr.obj
 0001:00003c00       ?_Buynode@?$list@PAU_BLOCKCHANNELOP@CChannelMgr@@V?$allocator@PAU_BLOCKCHANNELOP@CChannelMgr@@@std@@@std@@IAEPAU_Node@?$_List_nod@PAU_BLOCKCHANNELOP@CChannelMgr@@V?$allocator@PAU_BLOCKCHANNELOP@CChannelMgr@@@std@@@2@PAU342@0ABQAU_BLOCKCHANNELOP@CChannelMgr@@@Z 00404c00 f i ChannelMgr.obj
 0001:00003c40       ??Fiterator@?$_Tree@V?$_Tmap_traits@KV?$list@PAU_BLOCKCHANNELOP@CChannelMgr@@V?$allocator@PAU_BLOCKCHANNELOP@CChannelMgr@@@std@@@std@@U?$less@K@2@V?$allocator@U?$pair@$$CBKV?$list@PAU_BLOCKCHANNELOP@CChannelMgr@@V?$allocator@PAU_BLOCKCHANNELOP@CChannelMgr@@@std@@@std@@@std@@@2@$0A@@std@@@std@@QAEAAV012@XZ 00404c40 f i ChannelMgr.obj
 0001:00003c50       ??Econst_iterator@?$_Tree@V?$_Tmap_traits@KV?$list@PAU_BLOCKCHANNELOP@CChannelMgr@@V?$allocator@PAU_BLOCKCHANNELOP@CChannelMgr@@@std@@@std@@U?$less@K@2@V?$allocator@U?$pair@$$CBKV?$list@PAU_BLOCKCHANNELOP@CChannelMgr@@V?$allocator@PAU_BLOCKCHANNELOP@CChannelMgr@@@std@@@std@@@std@@@2@$0A@@std@@@std@@QAEAAV012@XZ 00404c50 f i ChannelMgr.obj
 0001:00003c60       ?_Buynode@?$_Tree@V?$_Tmap_traits@KUCHANNINFO@CChannelMgr@@U?$less@K@std@@V?$allocator@U?$pair@$$CBKUCHANNINFO@CChannelMgr@@@std@@@4@$0A@@std@@@std@@IAEPAU_Node@?$_Tree_nod@V?$_Tmap_traits@KUCHANNINFO@CChannelMgr@@U?$less@K@std@@V?$allocator@U?$pair@$$CBKUCHANNINFO@CChannelMgr@@@std@@@4@$0A@@std@@@2@XZ 00404c60 f i ChannelMgr.obj
 0001:00003ca0       ??0?$_Tree_ptr@V?$_Tmap_traits@KUCHANNINFO@CChannelMgr@@U?$less@K@std@@V?$allocator@U?$pair@$$CBKUCHANNINFO@CChannelMgr@@@std@@@4@$0A@@std@@@std@@IAE@ABU?$less@K@1@V?$allocator@U?$pair@$$CBKUCHANNINFO@CChannelMgr@@@std@@@1@@Z 00404ca0 f i ChannelMgr.obj
 0001:00003cb0       ?_Ubound@?$_Tree@V?$_Tmap_traits@V?$basic_string@DU?$char_traits@D@std@@V?$allocator@D@2@@std@@KU_tstring_less@@V?$allocator@U?$pair@$$CBV?$basic_string@DU?$char_traits@D@std@@V?$allocator@D@2@@std@@K@std@@@2@$0A@@std@@@std@@IBEPAU_Node@?$_Tree_nod@V?$_Tmap_traits@V?$basic_string@DU?$char_traits@D@std@@V?$allocator@D@2@@std@@KU_tstring_less@@V?$allocator@U?$pair@$$CBV?$basic_string@DU?$char_traits@D@std@@V?$allocator@D@2@@std@@K@std@@@2@$0A@@std@@@2@ABV?$basic_string@DU?$char_traits@D@std@@V?$allocator@D@2@@2@@Z 00404cb0 f i ChannelMgr.obj
 0001:00003d30       ?_Buynode@?$_Tree@V?$_Tmap_traits@V?$basic_string@DU?$char_traits@D@std@@V?$allocator@D@2@@std@@KU_tstring_less@@V?$allocator@U?$pair@$$CBV?$basic_string@DU?$char_traits@D@std@@V?$allocator@D@2@@std@@K@std@@@2@$0A@@std@@@std@@IAEPAU_Node@?$_Tree_nod@V?$_Tmap_traits@V?$basic_string@DU?$char_traits@D@std@@V?$allocator@D@2@@std@@KU_tstring_less@@V?$allocator@U?$pair@$$CBV?$basic_string@DU?$char_traits@D@std@@V?$allocator@D@2@@std@@K@std@@@2@$0A@@std@@@2@XZ 00404d30 f i ChannelMgr.obj
 0001:00003d70       ??0?$_Tree_ptr@V?$_Tmap_traits@V?$basic_string@DU?$char_traits@D@std@@V?$allocator@D@2@@std@@KU_tstring_less@@V?$allocator@U?$pair@$$CBV?$basic_string@DU?$char_traits@D@std@@V?$allocator@D@2@@std@@K@std@@@2@$0A@@std@@@std@@IAE@ABU_tstring_less@@V?$allocator@U?$pair@$$CBV?$basic_string@DU?$char_traits@D@std@@V?$allocator@D@2@@std@@K@std@@@1@@Z 00404d70 f i ChannelMgr.obj
 0001:00003d80       ?_Buynode@?$_Tree@V?$_Tmap_traits@KV?$list@PAU_BLOCKCHANNELOP@CChannelMgr@@V?$allocator@PAU_BLOCKCHANNELOP@CChannelMgr@@@std@@@std@@U?$less@K@2@V?$allocator@U?$pair@$$CBKV?$list@PAU_BLOCKCHANNELOP@CChannelMgr@@V?$allocator@PAU_BLOCKCHANNELOP@CChannelMgr@@@std@@@std@@@std@@@2@$0A@@std@@@std@@IAEPAU_Node@?$_Tree_nod@V?$_Tmap_traits@KV?$list@PAU_BLOCKCHANNELOP@CChannelMgr@@V?$allocator@PAU_BLOCKCHANNELOP@CChannelMgr@@@std@@@std@@U?$less@K@2@V?$allocator@U?$pair@$$CBKV?$list@PAU_BLOCKCHANNELOP@CChannelMgr@@V?$allocator@PAU_BLOCKCHANNELOP@CChannelMgr@@@std@@@std@@@std@@@2@$0A@@std@@@2@XZ 00404d80 f i ChannelMgr.obj
 0001:00003dc0       ??0?$_Tree_ptr@V?$_Tmap_traits@KV?$list@PAU_BLOCKCHANNELOP@CChannelMgr@@V?$allocator@PAU_BLOCKCHANNELOP@CChannelMgr@@@std@@@std@@U?$less@K@2@V?$allocator@U?$pair@$$CBKV?$list@PAU_BLOCKCHANNELOP@CChannelMgr@@V?$allocator@PAU_BLOCKCHANNELOP@CChannelMgr@@@std@@@std@@@std@@@2@$0A@@std@@@std@@IAE@ABU?$less@K@1@V?$allocator@U?$pair@$$CBKV?$list@PAU_BLOCKCHANNELOP@CChannelMgr@@V?$allocator@PAU_BLOCKCHANNELOP@CChannelMgr@@@std@@@std@@@std@@@1@@Z 00404dc0 f i ChannelMgr.obj
 0001:00003dd0       ?_Erase@?$_Tree@V?$_Tmap_traits@KUPLAYERINFO@CChannelMgr@@U?$less@K@std@@V?$allocator@U?$pair@$$CBKUPLAYERINFO@CChannelMgr@@@std@@@4@$0A@@std@@@std@@IAEXPAU_Node@?$_Tree_nod@V?$_Tmap_traits@KUPLAYERINFO@CChannelMgr@@U?$less@K@std@@V?$allocator@U?$pair@$$CBKUPLAYERINFO@CChannelMgr@@@std@@@4@$0A@@std@@@2@@Z 00404dd0 f i ChannelMgr.obj
 0001:00003e10       ?_Buynode@?$_Tree@V?$_Tmap_traits@KUPLAYERINFO@CChannelMgr@@U?$less@K@std@@V?$allocator@U?$pair@$$CBKUPLAYERINFO@CChannelMgr@@@std@@@4@$0A@@std@@@std@@IAEPAU_Node@?$_Tree_nod@V?$_Tmap_traits@KUPLAYERINFO@CChannelMgr@@U?$less@K@std@@V?$allocator@U?$pair@$$CBKUPLAYERINFO@CChannelMgr@@@std@@@4@$0A@@std@@@2@PAU342@00ABU?$pair@$$CBKUPLAYERINFO@CChannelMgr@@@2@D@Z 00404e10 f i ChannelMgr.obj
 0001:00003e60       ?clear@?$list@PAU_BLOCKCHANNELOP@CChannelMgr@@V?$allocator@PAU_BLOCKCHANNELOP@CChannelMgr@@@std@@@std@@QAEXXZ 00404e60 f i ChannelMgr.obj
 0001:00003ea0       ??0?$_List_ptr@PAU_BLOCKCHANNELOP@CChannelMgr@@V?$allocator@PAU_BLOCKCHANNELOP@CChannelMgr@@@std@@@std@@IAE@V?$allocator@PAU_BLOCKCHANNELOP@CChannelMgr@@@1@@Z 00404ea0 f i ChannelMgr.obj
 0001:00003eb0       ?_Buynode@?$_Tree@V?$_Tmap_traits@KV?$map@KUPLAYERINFO@CChannelMgr@@U?$less@K@std@@V?$allocator@U?$pair@$$CBKUPLAYERINFO@CChannelMgr@@@std@@@4@@std@@U?$less@K@2@V?$allocator@U?$pair@$$CBKV?$map@KUPLAYERINFO@CChannelMgr@@U?$less@K@std@@V?$allocator@U?$pair@$$CBKUPLAYERINFO@CChannelMgr@@@std@@@4@@std@@@std@@@2@$0A@@std@@@std@@IAEPAU_Node@?$_Tree_nod@V?$_Tmap_traits@KV?$map@KUPLAYERINFO@CChannelMgr@@U?$less@K@std@@V?$allocator@U?$pair@$$CBKUPLAYERINFO@CChannelMgr@@@std@@@4@@std@@U?$less@K@2@V?$allocator@U?$pair@$$CBKV?$map@KUPLAYERINFO@CChannelMgr@@U?$less@K@std@@V?$allocator@U?$pair@$$CBKUPLAYERINFO@CChannelMgr@@@std@@@4@@std@@@std@@@2@$0A@@std@@@2@XZ 00404eb0 f i ChannelMgr.obj
 0001:00003ef0       ??0?$_Tree_ptr@V?$_Tmap_traits@KV?$map@KUPLAYERINFO@CChannelMgr@@U?$less@K@std@@V?$allocator@U?$pair@$$CBKUPLAYERINFO@CChannelMgr@@@std@@@4@@std@@U?$less@K@2@V?$allocator@U?$pair@$$CBKV?$map@KUPLAYERINFO@CChannelMgr@@U?$less@K@std@@V?$allocator@U?$pair@$$CBKUPLAYERINFO@CChannelMgr@@@std@@@4@@std@@@std@@@2@$0A@@std@@@std@@IAE@ABU?$less@K@1@V?$allocator@U?$pair@$$CBKV?$map@KUPLAYERINFO@CChannelMgr@@U?$less@K@std@@V?$allocator@U?$pair@$$CBKUPLAYERINFO@CChannelMgr@@@std@@@4@@std@@@std@@@1@@Z 00404ef0 f i ChannelMgr.obj
 0001:00003f00       ?_Copy@?$_Tree@V?$_Tmap_traits@KUPLAYERINFO@CChannelMgr@@U?$less@K@std@@V?$allocator@U?$pair@$$CBKUPLAYERINFO@CChannelMgr@@@std@@@4@$0A@@std@@@std@@IAEPAU_Node@?$_Tree_nod@V?$_Tmap_traits@KUPLAYERINFO@CChannelMgr@@U?$less@K@std@@V?$allocator@U?$pair@$$CBKUPLAYERINFO@CChannelMgr@@@std@@@4@$0A@@std@@@2@PAU342@0@Z 00404f00 f i ChannelMgr.obj
 0001:00003fc0       ?_Buynode@?$_Tree@V?$_Tmap_traits@KUPLAYERINFO@CChannelMgr@@U?$less@K@std@@V?$allocator@U?$pair@$$CBKUPLAYERINFO@CChannelMgr@@@std@@@4@$0A@@std@@@std@@IAEPAU_Node@?$_Tree_nod@V?$_Tmap_traits@KUPLAYERINFO@CChannelMgr@@U?$less@K@std@@V?$allocator@U?$pair@$$CBKUPLAYERINFO@CChannelMgr@@@std@@@4@$0A@@std@@@2@XZ 00404fc0 f i ChannelMgr.obj
 0001:00004000       ??0?$_Tree_ptr@V?$_Tmap_traits@KUPLAYERINFO@CChannelMgr@@U?$less@K@std@@V?$allocator@U?$pair@$$CBKUPLAYERINFO@CChannelMgr@@@std@@@4@$0A@@std@@@std@@IAE@ABU?$less@K@1@V?$allocator@U?$pair@$$CBKUPLAYERINFO@CChannelMgr@@@std@@@1@@Z 00405000 f i ChannelMgr.obj
 0001:00004010       ??$_Distance2@Viterator@?$_Tree@V?$_Tmap_traits@V?$basic_string@DU?$char_traits@D@std@@V?$allocator@D@2@@std@@KU_tstring_less@@V?$allocator@U?$pair@$$CBV?$basic_string@DU?$char_traits@D@std@@V?$allocator@D@2@@std@@K@std@@@2@$0A@@std@@@std@@I@std@@YAXViterator@?$_Tree@V?$_Tmap_traits@V?$basic_string@DU?$char_traits@D@std@@V?$allocator@D@2@@std@@KU_tstring_less@@V?$allocator@U?$pair@$$CBV?$basic_string@DU?$char_traits@D@std@@V?$allocator@D@2@@std@@K@std@@@2@$0A@@std@@@0@0AAIUbidirectional_iterator_tag@0@@Z 00405010 f i ChannelMgr.obj
 0001:00004050       ??$_Distance2@Viterator@?$_Tree@V?$_Tmap_traits@KUPLAYERINFO@CChannelMgr@@U?$less@K@std@@V?$allocator@U?$pair@$$CBKUPLAYERINFO@CChannelMgr@@@std@@@4@$0A@@std@@@std@@I@std@@YAXViterator@?$_Tree@V?$_Tmap_traits@KUPLAYERINFO@CChannelMgr@@U?$less@K@std@@V?$allocator@U?$pair@$$CBKUPLAYERINFO@CChannelMgr@@@std@@@4@$0A@@std@@@0@0AAIUbidirectional_iterator_tag@0@@Z 00405050 f i ChannelMgr.obj
 0001:00004090       ?erase@?$list@PAU_BLOCKCHANNELOP@CChannelMgr@@V?$allocator@PAU_BLOCKCHANNELOP@CChannelMgr@@@std@@@std@@QAE?AV?$_Iterator@$00@12@V312@@Z 00405090 f i ChannelMgr.obj
 0001:000040f0       ?PassToGroupMan@CChannelMgr@@AAEHKHABV?$list@UtagPlusSrcInfo@@V?$allocator@UtagPlusSrcInfo@@@std@@@std@@PBXI@Z 004050f0 f   ChannelMgr.obj
 0001:000042e0       ?SayOnSomeone@CChannelMgr@@QAEHKKKABV?$basic_string@DU?$char_traits@D@std@@V?$allocator@D@2@@std@@0@Z 004052e0 f   ChannelMgr.obj
 0001:00004440       ?begin@?$_Tree@V?$_Tmap_traits@KV?$map@KUPLAYERINFO@CChannelMgr@@U?$less@K@std@@V?$allocator@U?$pair@$$CBKUPLAYERINFO@CChannelMgr@@@std@@@4@@std@@U?$less@K@2@V?$allocator@U?$pair@$$CBKV?$map@KUPLAYERINFO@CChannelMgr@@U?$less@K@std@@V?$allocator@U?$pair@$$CBKUPLAYERINFO@CChannelMgr@@@std@@@4@@std@@@std@@@2@$0A@@std@@@std@@QAE?AViterator@12@XZ 00405440 f i ChannelMgr.obj
 0001:00004460       ?end@?$_Tree@V?$_Tmap_traits@KV?$map@KUPLAYERINFO@CChannelMgr@@U?$less@K@std@@V?$allocator@U?$pair@$$CBKUPLAYERINFO@CChannelMgr@@@std@@@4@@std@@U?$less@K@2@V?$allocator@U?$pair@$$CBKV?$map@KUPLAYERINFO@CChannelMgr@@U?$less@K@std@@V?$allocator@U?$pair@$$CBKUPLAYERINFO@CChannelMgr@@@std@@@4@@std@@@std@@@2@$0A@@std@@@std@@QAE?AViterator@12@XZ 00405460 f i ChannelMgr.obj
 0001:00004470       ?begin@?$_Tree@V?$_Tmap_traits@KUCHANNINFO@CChannelMgr@@U?$less@K@std@@V?$allocator@U?$pair@$$CBKUCHANNINFO@CChannelMgr@@@std@@@4@$0A@@std@@@std@@QAE?AViterator@12@XZ 00405470 f i ChannelMgr.obj
 0001:00004490       ?end@?$_Tree@V?$_Tmap_traits@KUCHANNINFO@CChannelMgr@@U?$less@K@std@@V?$allocator@U?$pair@$$CBKUCHANNINFO@CChannelMgr@@@std@@@4@$0A@@std@@@std@@QAE?AViterator@12@XZ 00405490 f i ChannelMgr.obj
 0001:000044a0       ?end@?$_Tree@V?$_Tmap_traits@V?$basic_string@DU?$char_traits@D@std@@V?$allocator@D@2@@std@@KU_tstring_less@@V?$allocator@U?$pair@$$CBV?$basic_string@DU?$char_traits@D@std@@V?$allocator@D@2@@std@@K@std@@@2@$0A@@std@@@std@@QAE?AViterator@12@XZ 004054a0 f i ChannelMgr.obj
 0001:000044b0       ?begin@?$_Tree@V?$_Tmap_traits@KV?$list@PAU_BLOCKCHANNELOP@CChannelMgr@@V?$allocator@PAU_BLOCKCHANNELOP@CChannelMgr@@@std@@@std@@U?$less@K@2@V?$allocator@U?$pair@$$CBKV?$list@PAU_BLOCKCHANNELOP@CChannelMgr@@V?$allocator@PAU_BLOCKCHANNELOP@CChannelMgr@@@std@@@std@@@std@@@2@$0A@@std@@@std@@QAE?AViterator@12@XZ 004054b0 f i ChannelMgr.obj
 0001:000044d0       ?end@?$_Tree@V?$_Tmap_traits@KV?$list@PAU_BLOCKCHANNELOP@CChannelMgr@@V?$allocator@PAU_BLOCKCHANNELOP@CChannelMgr@@@std@@@std@@U?$less@K@2@V?$allocator@U?$pair@$$CBKV?$list@PAU_BLOCKCHANNELOP@CChannelMgr@@V?$allocator@PAU_BLOCKCHANNELOP@CChannelMgr@@@std@@@std@@@std@@@2@$0A@@std@@@std@@QAE?AViterator@12@XZ 004054d0 f i ChannelMgr.obj
 0001:000044e0       ??Eiterator@?$_Tree@V?$_Tmap_traits@KUCHANNINFO@CChannelMgr@@U?$less@K@std@@V?$allocator@U?$pair@$$CBKUCHANNINFO@CChannelMgr@@@std@@@4@$0A@@std@@@std@@QAE?AV012@H@Z 004054e0 f i ChannelMgr.obj
 0001:00004500       ??Eiterator@?$_Tree@V?$_Tmap_traits@KV?$map@KUPLAYERINFO@CChannelMgr@@U?$less@K@std@@V?$allocator@U?$pair@$$CBKUPLAYERINFO@CChannelMgr@@@std@@@4@@std@@U?$less@K@2@V?$allocator@U?$pair@$$CBKV?$map@KUPLAYERINFO@CChannelMgr@@U?$less@K@std@@V?$allocator@U?$pair@$$CBKUPLAYERINFO@CChannelMgr@@@std@@@4@@std@@@std@@@2@$0A@@std@@@std@@QAE?AV012@H@Z 00405500 f i ChannelMgr.obj
 0001:00004520       ?begin@?$_Tree@V?$_Tmap_traits@KUPLAYERINFO@CChannelMgr@@U?$less@K@std@@V?$allocator@U?$pair@$$CBKUPLAYERINFO@CChannelMgr@@@std@@@4@$0A@@std@@@std@@QAE?AViterator@12@XZ 00405520 f i ChannelMgr.obj
 0001:00004540       ?end@?$_Tree@V?$_Tmap_traits@KUPLAYERINFO@CChannelMgr@@U?$less@K@std@@V?$allocator@U?$pair@$$CBKUPLAYERINFO@CChannelMgr@@@std@@@4@$0A@@std@@@std@@QAE?AViterator@12@XZ 00405540 f i ChannelMgr.obj
 0001:00004550       ??Eiterator@?$_Tree@V?$_Tmap_traits@KUPLAYERINFO@CChannelMgr@@U?$less@K@std@@V?$allocator@U?$pair@$$CBKUPLAYERINFO@CChannelMgr@@@std@@@4@$0A@@std@@@std@@QAE?AV012@H@Z 00405550 f i ChannelMgr.obj
 0001:00004570       ?begin@?$list@PAU_BLOCKCHANNELOP@CChannelMgr@@V?$allocator@PAU_BLOCKCHANNELOP@CChannelMgr@@@std@@@std@@QAE?AV?$_Iterator@$00@12@XZ 00405570 f i ChannelMgr.obj
 0001:00004590       ?end@?$list@PAU_BLOCKCHANNELOP@CChannelMgr@@V?$allocator@PAU_BLOCKCHANNELOP@CChannelMgr@@@std@@@std@@QAE?AV?$_Iterator@$00@12@XZ 00405590 f i ChannelMgr.obj
 0001:000045a0       ?lower_bound@?$_Tree@V?$_Tmap_traits@KV?$map@KUPLAYERINFO@CChannelMgr@@U?$less@K@std@@V?$allocator@U?$pair@$$CBKUPLAYERINFO@CChannelMgr@@@std@@@4@@std@@U?$less@K@2@V?$allocator@U?$pair@$$CBKV?$map@KUPLAYERINFO@CChannelMgr@@U?$less@K@std@@V?$allocator@U?$pair@$$CBKUPLAYERINFO@CChannelMgr@@@std@@@4@@std@@@std@@@2@$0A@@std@@@std@@QAE?AViterator@12@ABK@Z 004055a0 f i ChannelMgr.obj
 0001:000045e0       ?lower_bound@?$_Tree@V?$_Tmap_traits@KUCHANNINFO@CChannelMgr@@U?$less@K@std@@V?$allocator@U?$pair@$$CBKUCHANNINFO@CChannelMgr@@@std@@@4@$0A@@std@@@std@@QAE?AViterator@12@ABK@Z 004055e0 f i ChannelMgr.obj
 0001:00004620       ??0?$basic_string@DU?$char_traits@D@std@@V?$allocator@D@2@@std@@QAE@XZ 00405620 f i ChannelMgr.obj
 0001:00004640       ??1?$basic_string@DU?$char_traits@D@std@@V?$allocator@D@2@@std@@QAE@XZ 00405640 f i ChannelMgr.obj
 0001:00004670       ?lower_bound@?$_Tree@V?$_Tmap_traits@V?$basic_string@DU?$char_traits@D@std@@V?$allocator@D@2@@std@@KU_tstring_less@@V?$allocator@U?$pair@$$CBV?$basic_string@DU?$char_traits@D@std@@V?$allocator@D@2@@std@@K@std@@@2@$0A@@std@@@std@@QAE?AViterator@12@ABV?$basic_string@DU?$char_traits@D@std@@V?$allocator@D@2@@2@@Z 00405670 f i ChannelMgr.obj
 0001:000046a0       ?lower_bound@?$_Tree@V?$_Tmap_traits@KV?$list@PAU_BLOCKCHANNELOP@CChannelMgr@@V?$allocator@PAU_BLOCKCHANNELOP@CChannelMgr@@@std@@@std@@U?$less@K@2@V?$allocator@U?$pair@$$CBKV?$list@PAU_BLOCKCHANNELOP@CChannelMgr@@V?$allocator@PAU_BLOCKCHANNELOP@CChannelMgr@@@std@@@std@@@std@@@2@$0A@@std@@@std@@QAE?AViterator@12@ABK@Z 004056a0 f i ChannelMgr.obj
 0001:000046e0       ?lower_bound@?$_Tree@V?$_Tmap_traits@KUPLAYERINFO@CChannelMgr@@U?$less@K@std@@V?$allocator@U?$pair@$$CBKUPLAYERINFO@CChannelMgr@@@std@@@4@$0A@@std@@@std@@QAE?AViterator@12@ABK@Z 004056e0 f i ChannelMgr.obj
 0001:00004720       ?equal_range@?$_Tree@V?$_Tmap_traits@KUPLAYERINFO@CChannelMgr@@U?$less@K@std@@V?$allocator@U?$pair@$$CBKUPLAYERINFO@CChannelMgr@@@std@@@4@$0A@@std@@@std@@QAE?AU?$pair@Viterator@?$_Tree@V?$_Tmap_traits@KUPLAYERINFO@CChannelMgr@@U?$less@K@std@@V?$allocator@U?$pair@$$CBKUPLAYERINFO@CChannelMgr@@@std@@@4@$0A@@std@@@std@@V123@@2@ABK@Z 00405720 f i ChannelMgr.obj
 0001:00004780       ?_Tidy@?$list@UtagPlusSrcInfo@@V?$allocator@UtagPlusSrcInfo@@@std@@@std@@IAEXXZ 00405780 f i ChannelMgr.obj
 0001:000047d0       ??0?$_List_val@UtagPlusSrcInfo@@V?$allocator@UtagPlusSrcInfo@@@std@@@std@@QAE@V?$allocator@UtagPlusSrcInfo@@@1@@Z 004057d0 f i ChannelMgr.obj
 0001:000047e0       ??Eiterator@?$_Tree@V?$_Tmap_traits@KV?$list@PAU_BLOCKCHANNELOP@CChannelMgr@@V?$allocator@PAU_BLOCKCHANNELOP@CChannelMgr@@@std@@@std@@U?$less@K@2@V?$allocator@U?$pair@$$CBKV?$list@PAU_BLOCKCHANNELOP@CChannelMgr@@V?$allocator@PAU_BLOCKCHANNELOP@CChannelMgr@@@std@@@std@@@std@@@2@$0A@@std@@@std@@QAEAAV012@XZ 004057e0 f i ChannelMgr.obj
 0001:000047f0       ?_Grow@?$basic_string@DU?$char_traits@D@std@@V?$allocator@D@2@@std@@IAE_NI_N@Z 004057f0 f i ChannelMgr.obj
 0001:000048b0       ?_Init@?$_Tree@V?$_Tmap_traits@KUCHANNINFO@CChannelMgr@@U?$less@K@std@@V?$allocator@U?$pair@$$CBKUCHANNINFO@CChannelMgr@@@std@@@4@$0A@@std@@@std@@IAEXXZ 004058b0 f i ChannelMgr.obj
 0001:000048e0       ??0?$_Tree_val@V?$_Tmap_traits@KUCHANNINFO@CChannelMgr@@U?$less@K@std@@V?$allocator@U?$pair@$$CBKUCHANNINFO@CChannelMgr@@@std@@@4@$0A@@std@@@std@@IAE@ABU?$less@K@1@V?$allocator@U?$pair@$$CBKUCHANNINFO@CChannelMgr@@@std@@@1@@Z 004058e0 f i ChannelMgr.obj
 0001:000048f0       ?upper_bound@?$_Tree@V?$_Tmap_traits@V?$basic_string@DU?$char_traits@D@std@@V?$allocator@D@2@@std@@KU_tstring_less@@V?$allocator@U?$pair@$$CBV?$basic_string@DU?$char_traits@D@std@@V?$allocator@D@2@@std@@K@std@@@2@$0A@@std@@@std@@QAE?AViterator@12@ABV?$basic_string@DU?$char_traits@D@std@@V?$allocator@D@2@@2@@Z 004058f0 f i ChannelMgr.obj
 0001:00004920       ?_Init@?$_Tree@V?$_Tmap_traits@V?$basic_string@DU?$char_traits@D@std@@V?$allocator@D@2@@std@@KU_tstring_less@@V?$allocator@U?$pair@$$CBV?$basic_string@DU?$char_traits@D@std@@V?$allocator@D@2@@std@@K@std@@@2@$0A@@std@@@std@@IAEXXZ 00405920 f i ChannelMgr.obj
 0001:00004950       ??0?$_Tree_val@V?$_Tmap_traits@V?$basic_string@DU?$char_traits@D@std@@V?$allocator@D@2@@std@@KU_tstring_less@@V?$allocator@U?$pair@$$CBV?$basic_string@DU?$char_traits@D@std@@V?$allocator@D@2@@std@@K@std@@@2@$0A@@std@@@std@@IAE@ABU_tstring_less@@V?$allocator@U?$pair@$$CBV?$basic_string@DU?$char_traits@D@std@@V?$allocator@D@2@@std@@K@std@@@1@@Z 00405950 f i ChannelMgr.obj
 0001:00004960       ?_Init@?$_Tree@V?$_Tmap_traits@KV?$list@PAU_BLOCKCHANNELOP@CChannelMgr@@V?$allocator@PAU_BLOCKCHANNELOP@CChannelMgr@@@std@@@std@@U?$less@K@2@V?$allocator@U?$pair@$$CBKV?$list@PAU_BLOCKCHANNELOP@CChannelMgr@@V?$allocator@PAU_BLOCKCHANNELOP@CChannelMgr@@@std@@@std@@@std@@@2@$0A@@std@@@std@@IAEXXZ 00405960 f i ChannelMgr.obj
 0001:00004990       ??0?$_Tree_val@V?$_Tmap_traits@KV?$list@PAU_BLOCKCHANNELOP@CChannelMgr@@V?$allocator@PAU_BLOCKCHANNELOP@CChannelMgr@@@std@@@std@@U?$less@K@2@V?$allocator@U?$pair@$$CBKV?$list@PAU_BLOCKCHANNELOP@CChannelMgr@@V?$allocator@PAU_BLOCKCHANNELOP@CChannelMgr@@@std@@@std@@@std@@@2@$0A@@std@@@std@@IAE@ABU?$less@K@1@V?$allocator@U?$pair@$$CBKV?$list@PAU_BLOCKCHANNELOP@CChannelMgr@@V?$allocator@PAU_BLOCKCHANNELOP@CChannelMgr@@@std@@@std@@@std@@@1@@Z 00405990 f i ChannelMgr.obj
 0001:000049a0       ?clear@?$_Tree@V?$_Tmap_traits@KUPLAYERINFO@CChannelMgr@@U?$less@K@std@@V?$allocator@U?$pair@$$CBKUPLAYERINFO@CChannelMgr@@@std@@@4@$0A@@std@@@std@@QAEXXZ 004059a0 f i ChannelMgr.obj
 0001:000049d0       ?_Tidy@?$list@PAU_BLOCKCHANNELOP@CChannelMgr@@V?$allocator@PAU_BLOCKCHANNELOP@CChannelMgr@@@std@@@std@@IAEXXZ 004059d0 f i ChannelMgr.obj
 0001:00004a20       ??0?$_List_val@PAU_BLOCKCHANNELOP@CChannelMgr@@V?$allocator@PAU_BLOCKCHANNELOP@CChannelMgr@@@std@@@std@@QAE@V?$allocator@PAU_BLOCKCHANNELOP@CChannelMgr@@@1@@Z 00405a20 f i ChannelMgr.obj
 0001:00004a30       ?append@?$basic_string@DU?$char_traits@D@std@@V?$allocator@D@2@@std@@QAEAAV12@ABV12@II@Z 00405a30 f i ChannelMgr.obj
 0001:00004b30       ?_Init@?$_Tree@V?$_Tmap_traits@KV?$map@KUPLAYERINFO@CChannelMgr@@U?$less@K@std@@V?$allocator@U?$pair@$$CBKUPLAYERINFO@CChannelMgr@@@std@@@4@@std@@U?$less@K@2@V?$allocator@U?$pair@$$CBKV?$map@KUPLAYERINFO@CChannelMgr@@U?$less@K@std@@V?$allocator@U?$pair@$$CBKUPLAYERINFO@CChannelMgr@@@std@@@4@@std@@@std@@@2@$0A@@std@@@std@@IAEXXZ 00405b30 f i ChannelMgr.obj
 0001:00004b60       ??0?$_Tree_val@V?$_Tmap_traits@KV?$map@KUPLAYERINFO@CChannelMgr@@U?$less@K@std@@V?$allocator@U?$pair@$$CBKUPLAYERINFO@CChannelMgr@@@std@@@4@@std@@U?$less@K@2@V?$allocator@U?$pair@$$CBKV?$map@KUPLAYERINFO@CChannelMgr@@U?$less@K@std@@V?$allocator@U?$pair@$$CBKUPLAYERINFO@CChannelMgr@@@std@@@4@@std@@@std@@@2@$0A@@std@@@std@@IAE@ABU?$less@K@1@V?$allocator@U?$pair@$$CBKV?$map@KUPLAYERINFO@CChannelMgr@@U?$less@K@std@@V?$allocator@U?$pair@$$CBKUPLAYERINFO@CChannelMgr@@@std@@@4@@std@@@std@@@1@@Z 00405b60 f i ChannelMgr.obj
 0001:00004b70       ?_Copy@?$_Tree@V?$_Tmap_traits@KUPLAYERINFO@CChannelMgr@@U?$less@K@std@@V?$allocator@U?$pair@$$CBKUPLAYERINFO@CChannelMgr@@@std@@@4@$0A@@std@@@std@@IAEXABV12@@Z 00405b70 f i ChannelMgr.obj
 0001:00004bf0       ?_Init@?$_Tree@V?$_Tmap_traits@KUPLAYERINFO@CChannelMgr@@U?$less@K@std@@V?$allocator@U?$pair@$$CBKUPLAYERINFO@CChannelMgr@@@std@@@4@$0A@@std@@@std@@IAEXXZ 00405bf0 f i ChannelMgr.obj
 0001:00004c20       ??0?$_Tree_val@V?$_Tmap_traits@KUPLAYERINFO@CChannelMgr@@U?$less@K@std@@V?$allocator@U?$pair@$$CBKUPLAYERINFO@CChannelMgr@@@std@@@4@$0A@@std@@@std@@IAE@ABU?$less@K@1@V?$allocator@U?$pair@$$CBKUPLAYERINFO@CChannelMgr@@@std@@@1@@Z 00405c20 f i ChannelMgr.obj
 0001:00004c30       ??$_Distance@Viterator@?$_Tree@V?$_Tmap_traits@V?$basic_string@DU?$char_traits@D@std@@V?$allocator@D@2@@std@@KU_tstring_less@@V?$allocator@U?$pair@$$CBV?$basic_string@DU?$char_traits@D@std@@V?$allocator@D@2@@std@@K@std@@@2@$0A@@std@@@std@@I@std@@YAXViterator@?$_Tree@V?$_Tmap_traits@V?$basic_string@DU?$char_traits@D@std@@V?$allocator@D@2@@std@@KU_tstring_less@@V?$allocator@U?$pair@$$CBV?$basic_string@DU?$char_traits@D@std@@V?$allocator@D@2@@std@@K@std@@@2@$0A@@std@@@0@0AAI@Z 00405c30 f i ChannelMgr.obj
 0001:00004c60       ??$_Distance@Viterator@?$_Tree@V?$_Tmap_traits@KUPLAYERINFO@CChannelMgr@@U?$less@K@std@@V?$allocator@U?$pair@$$CBKUPLAYERINFO@CChannelMgr@@@std@@@4@$0A@@std@@@std@@I@std@@YAXViterator@?$_Tree@V?$_Tmap_traits@KUPLAYERINFO@CChannelMgr@@U?$less@K@std@@V?$allocator@U?$pair@$$CBKUPLAYERINFO@CChannelMgr@@@std@@@4@$0A@@std@@@0@0AAI@Z 00405c60 f i ChannelMgr.obj
 0001:00004c90       ?GenChannID@CChannelMgr@@AAEKXZ 00405c90 f   ChannelMgr.obj
 0001:00004d20       ?ParseChannelName@CChannelMgr@@QAEKABV?$basic_string@DU?$char_traits@D@std@@V?$allocator@D@2@@std@@PAK@Z 00405d20 f   ChannelMgr.obj
 0001:00004ef0       ??1logic_error@std@@UAE@XZ 00405ef0 f i ChannelMgr.obj
 0001:00004f30       ?what@logic_error@std@@UBEPBDXZ 00405f30 f i ChannelMgr.obj
 0001:00004f40       ??_Glogic_error@std@@UAEPAXI@Z 00405f40 f i ChannelMgr.obj
 0001:00004f40       ??_Elogic_error@std@@UAEPAXI@Z 00405f40 f i ChannelMgr.obj
 0001:00004f90       ?find@?$_Tree@V?$_Tmap_traits@KV?$map@KUPLAYERINFO@CChannelMgr@@U?$less@K@std@@V?$allocator@U?$pair@$$CBKUPLAYERINFO@CChannelMgr@@@std@@@4@@std@@U?$less@K@2@V?$allocator@U?$pair@$$CBKV?$map@KUPLAYERINFO@CChannelMgr@@U?$less@K@std@@V?$allocator@U?$pair@$$CBKUPLAYERINFO@CChannelMgr@@@std@@@4@@std@@@std@@@2@$0A@@std@@@std@@QAE?AViterator@12@ABK@Z 00405f90 f i ChannelMgr.obj
 0001:00005000       ?find@?$_Tree@V?$_Tmap_traits@KUCHANNINFO@CChannelMgr@@U?$less@K@std@@V?$allocator@U?$pair@$$CBKUCHANNINFO@CChannelMgr@@@std@@@4@$0A@@std@@@std@@QAE?AViterator@12@ABK@Z 00406000 f i ChannelMgr.obj
 0001:00005070       ?find@?$_Tree@V?$_Tmap_traits@V?$basic_string@DU?$char_traits@D@std@@V?$allocator@D@2@@std@@KU_tstring_less@@V?$allocator@U?$pair@$$CBV?$basic_string@DU?$char_traits@D@std@@V?$allocator@D@2@@std@@K@std@@@2@$0A@@std@@@std@@QAE?AViterator@12@ABV?$basic_string@DU?$char_traits@D@std@@V?$allocator@D@2@@2@@Z 00406070 f i ChannelMgr.obj
 0001:000050e0       ?find@?$_Tree@V?$_Tmap_traits@KUPLAYERINFO@CChannelMgr@@U?$less@K@std@@V?$allocator@U?$pair@$$CBKUPLAYERINFO@CChannelMgr@@@std@@@4@$0A@@std@@@std@@QAE?AViterator@12@ABK@Z 004060e0 f i ChannelMgr.obj
 0001:00005150       ??0?$list@UtagPlusSrcInfo@@V?$allocator@UtagPlusSrcInfo@@@std@@@std@@QAE@XZ 00406150 f i ChannelMgr.obj
 0001:00005170       ??1?$list@UtagPlusSrcInfo@@V?$allocator@UtagPlusSrcInfo@@@std@@@std@@QAE@XZ 00406170 f i ChannelMgr.obj
 0001:00005180       ??Eiterator@?$_Tree@V?$_Tmap_traits@KV?$list@PAU_BLOCKCHANNELOP@CChannelMgr@@V?$allocator@PAU_BLOCKCHANNELOP@CChannelMgr@@@std@@@std@@U?$less@K@2@V?$allocator@U?$pair@$$CBKV?$list@PAU_BLOCKCHANNELOP@CChannelMgr@@V?$allocator@PAU_BLOCKCHANNELOP@CChannelMgr@@@std@@@std@@@std@@@2@$0A@@std@@@std@@QAE?AV012@H@Z 00406180 f i ChannelMgr.obj
 0001:000051a0       ??1?$pair@$$CBV?$basic_string@DU?$char_traits@D@std@@V?$allocator@D@2@@std@@K@std@@QAE@XZ 004061a0 f i ChannelMgr.obj
 0001:000051d0       ?append@?$basic_string@DU?$char_traits@D@std@@V?$allocator@D@2@@std@@QAEAAV12@ID@Z 004061d0 f i ChannelMgr.obj
 0001:00005280       ??0?$_Tree@V?$_Tmap_traits@KUCHANNINFO@CChannelMgr@@U?$less@K@std@@V?$allocator@U?$pair@$$CBKUCHANNINFO@CChannelMgr@@@std@@@4@$0A@@std@@@std@@QAE@ABU?$less@K@1@ABV?$allocator@U?$pair@$$CBKUCHANNINFO@CChannelMgr@@@std@@@1@@Z 00406280 f i ChannelMgr.obj
 0001:000052b0       ??0?$_Tree@V?$_Tmap_traits@V?$basic_string@DU?$char_traits@D@std@@V?$allocator@D@2@@std@@KU_tstring_less@@V?$allocator@U?$pair@$$CBV?$basic_string@DU?$char_traits@D@std@@V?$allocator@D@2@@std@@K@std@@@2@$0A@@std@@@std@@QAE@ABU_tstring_less@@ABV?$allocator@U?$pair@$$CBV?$basic_string@DU?$char_traits@D@std@@V?$allocator@D@2@@std@@K@std@@@1@@Z 004062b0 f i ChannelMgr.obj
 0001:000052e0       ?equal_range@?$_Tree@V?$_Tmap_traits@V?$basic_string@DU?$char_traits@D@std@@V?$allocator@D@2@@std@@KU_tstring_less@@V?$allocator@U?$pair@$$CBV?$basic_string@DU?$char_traits@D@std@@V?$allocator@D@2@@std@@K@std@@@2@$0A@@std@@@std@@QAE?AU?$pair@Viterator@?$_Tree@V?$_Tmap_traits@V?$basic_string@DU?$char_traits@D@std@@V?$allocator@D@2@@std@@KU_tstring_less@@V?$allocator@U?$pair@$$CBV?$basic_string@DU?$char_traits@D@std@@V?$allocator@D@2@@std@@K@std@@@2@$0A@@std@@@std@@V123@@2@ABV?$basic_string@DU?$char_traits@D@std@@V?$allocator@D@2@@2@@Z 004062e0 f i ChannelMgr.obj
 0001:00005330       ??0?$_Tree@V?$_Tmap_traits@KV?$list@PAU_BLOCKCHANNELOP@CChannelMgr@@V?$allocator@PAU_BLOCKCHANNELOP@CChannelMgr@@@std@@@std@@U?$less@K@2@V?$allocator@U?$pair@$$CBKV?$list@PAU_BLOCKCHANNELOP@CChannelMgr@@V?$allocator@PAU_BLOCKCHANNELOP@CChannelMgr@@@std@@@std@@@std@@@2@$0A@@std@@@std@@QAE@ABU?$less@K@1@ABV?$allocator@U?$pair@$$CBKV?$list@PAU_BLOCKCHANNELOP@CChannelMgr@@V?$allocator@PAU_BLOCKCHANNELOP@CChannelMgr@@@std@@@std@@@std@@@1@@Z 00406330 f i ChannelMgr.obj
 0001:00005360       ?assign@?$basic_string@DU?$char_traits@D@std@@V?$allocator@D@2@@std@@QAEAAV12@ABV12@II@Z 00406360 f i ChannelMgr.obj
 0001:00005440       ??0?$list@PAU_BLOCKCHANNELOP@CChannelMgr@@V?$allocator@PAU_BLOCKCHANNELOP@CChannelMgr@@@std@@@std@@QAE@XZ 00406440 f i ChannelMgr.obj
 0001:00005460       ??1?$list@PAU_BLOCKCHANNELOP@CChannelMgr@@V?$allocator@PAU_BLOCKCHANNELOP@CChannelMgr@@@std@@@std@@QAE@XZ 00406460 f i ChannelMgr.obj
 0001:00005470       ?append@?$basic_string@DU?$char_traits@D@std@@V?$allocator@D@2@@std@@QAEAAV12@PBDI@Z 00406470 f i ChannelMgr.obj
 0001:00005560       ??0?$_Tree@V?$_Tmap_traits@KV?$map@KUPLAYERINFO@CChannelMgr@@U?$less@K@std@@V?$allocator@U?$pair@$$CBKUPLAYERINFO@CChannelMgr@@@std@@@4@@std@@U?$less@K@2@V?$allocator@U?$pair@$$CBKV?$map@KUPLAYERINFO@CChannelMgr@@U?$less@K@std@@V?$allocator@U?$pair@$$CBKUPLAYERINFO@CChannelMgr@@@std@@@4@@std@@@std@@@2@$0A@@std@@@std@@QAE@ABU?$less@K@1@ABV?$allocator@U?$pair@$$CBKV?$map@KUPLAYERINFO@CChannelMgr@@U?$less@K@std@@V?$allocator@U?$pair@$$CBKUPLAYERINFO@CChannelMgr@@@std@@@4@@std@@@std@@@1@@Z 00406560 f i ChannelMgr.obj
 0001:00005590       ?assign@?$basic_string@DU?$char_traits@D@std@@V?$allocator@D@2@@std@@QAEAAV12@PBDI@Z 00406590 f i ChannelMgr.obj
 0001:00005660       ??0?$_Tree@V?$_Tmap_traits@KUPLAYERINFO@CChannelMgr@@U?$less@K@std@@V?$allocator@U?$pair@$$CBKUPLAYERINFO@CChannelMgr@@@std@@@4@$0A@@std@@@std@@QAE@ABU?$less@K@1@ABV?$allocator@U?$pair@$$CBKUPLAYERINFO@CChannelMgr@@@std@@@1@@Z 00406660 f i ChannelMgr.obj
 0001:00005690       ??1_Node@?$_Tree_nod@V?$_Tmap_traits@V?$basic_string@DU?$char_traits@D@std@@V?$allocator@D@2@@std@@KU_tstring_less@@V?$allocator@U?$pair@$$CBV?$basic_string@DU?$char_traits@D@std@@V?$allocator@D@2@@std@@K@std@@@2@$0A@@std@@@std@@QAE@XZ 00406690 f i ChannelMgr.obj
 0001:000056c0       ?IsSubscribed@CChannelMgr@@QAEHKKK@Z 004066c0 f   ChannelMgr.obj
 0001:000057b0       ?GmSubscribe@CChannelMgr@@QAEHK@Z 004067b0 f   ChannelMgr.obj
 0001:00005840       ?GmUnsubscribe@CChannelMgr@@QAEHK@Z 00406840 f   ChannelMgr.obj
 0001:000058c0       ?IsGmSubscribed@CChannelMgr@@QAEHK@Z 004068c0 f   ChannelMgr.obj
 0001:00005940       ?IsUsed@CChannelMgr@@QAEHKKK@Z 00406940 f   ChannelMgr.obj
 0001:00005a20       ?IsGmUsed@CChannelMgr@@QAEHK@Z 00406a20 f   ChannelMgr.obj
 0001:00005a80       ?IsGodChannel@CChannelMgr@@QAEHK@Z 00406a80 f   ChannelMgr.obj
 0001:00005ae0       ?IsStockChannel@CChannelMgr@@QAEHK@Z 00406ae0 f   ChannelMgr.obj
 0001:00005b40       ?Block_Unsubscribe@CChannelMgr@@AAEHKKK@Z 00406b40 f   ChannelMgr.obj
 0001:00005c60       ?B_Unsubscribe@CChannelMgr@@QAEHKKK@Z 00406c60 f   ChannelMgr.obj
 0001:00005c70       ??0?$basic_string@DU?$char_traits@D@std@@V?$allocator@D@2@@std@@QAE@PBDI@Z 00406c70 f i ChannelMgr.obj
 0001:00005ca0       ??Y?$basic_string@DU?$char_traits@D@std@@V?$allocator@D@2@@std@@QAEAAV01@D@Z 00406ca0 f i ChannelMgr.obj
 0001:00005cb0       ??1?$pair@$$CBKV?$list@PAU_BLOCKCHANNELOP@CChannelMgr@@V?$allocator@PAU_BLOCKCHANNELOP@CChannelMgr@@@std@@@std@@@std@@QAE@XZ 00406cb0 f i ChannelMgr.obj
 0001:00005cc0       ?append@?$basic_string@DU?$char_traits@D@std@@V?$allocator@D@2@@std@@QAEAAV12@PBD@Z 00406cc0 f i ChannelMgr.obj
 0001:00005cf0       ?assign@?$basic_string@DU?$char_traits@D@std@@V?$allocator@D@2@@std@@QAEAAV12@ABV12@@Z 00406cf0 f i ChannelMgr.obj
 0001:00005d10       ??0?$basic_string@DU?$char_traits@D@std@@V?$allocator@D@2@@std@@QAE@ABV01@@Z 00406d10 f i ChannelMgr.obj
 0001:00005d40       ??0?$pair@$$CBV?$basic_string@DU?$char_traits@D@std@@V?$allocator@D@2@@std@@K@std@@QAE@ABV?$basic_string@DU?$char_traits@D@std@@V?$allocator@D@2@@1@ABK@Z 00406d40 f i ChannelMgr.obj
 0001:00005d70       ?assign@?$basic_string@DU?$char_traits@D@std@@V?$allocator@D@2@@std@@QAEAAV12@PBD@Z 00406d70 f i ChannelMgr.obj
 0001:00005da0       ??0?$pair@$$CBV?$basic_string@DU?$char_traits@D@std@@V?$allocator@D@2@@std@@K@std@@QAE@ABU01@@Z 00406da0 f i ChannelMgr.obj
 0001:00005dd0       ??_G_Node@?$_Tree_nod@V?$_Tmap_traits@V?$basic_string@DU?$char_traits@D@std@@V?$allocator@D@2@@std@@KU_tstring_less@@V?$allocator@U?$pair@$$CBV?$basic_string@DU?$char_traits@D@std@@V?$allocator@D@2@@std@@K@std@@@2@$0A@@std@@@std@@QAEPAXI@Z 00406dd0 f i ChannelMgr.obj
 0001:00005e10       ??1_Node@?$_Tree_nod@V?$_Tmap_traits@KV?$list@PAU_BLOCKCHANNELOP@CChannelMgr@@V?$allocator@PAU_BLOCKCHANNELOP@CChannelMgr@@@std@@@std@@U?$less@K@2@V?$allocator@U?$pair@$$CBKV?$list@PAU_BLOCKCHANNELOP@CChannelMgr@@V?$allocator@PAU_BLOCKCHANNELOP@CChannelMgr@@@std@@@std@@@std@@@2@$0A@@std@@@std@@QAE@XZ 00406e10 f i ChannelMgr.obj
 0001:00005e20       ??0logic_error@std@@QAE@ABV?$basic_string@DU?$char_traits@D@std@@V?$allocator@D@2@@1@@Z 00406e20 f i ChannelMgr.obj
 0001:00005e90       ??0length_error@std@@QAE@ABV?$basic_string@DU?$char_traits@D@std@@V?$allocator@D@2@@1@@Z 00406e90 f i ChannelMgr.obj
 0001:00005eb0       ??1length_error@std@@UAE@XZ 00406eb0 f i ChannelMgr.obj
 0001:00005ef0       ??_Glength_error@std@@UAEPAXI@Z 00406ef0 f i ChannelMgr.obj
 0001:00005ef0       ??_Elength_error@std@@UAEPAXI@Z 00406ef0 f i ChannelMgr.obj
 0001:00005f40       ??0out_of_range@std@@QAE@ABV?$basic_string@DU?$char_traits@D@std@@V?$allocator@D@2@@1@@Z 00406f40 f i ChannelMgr.obj
 0001:00005f60       ??1out_of_range@std@@UAE@XZ 00406f60 f i ChannelMgr.obj
 0001:00005fa0       ??_Eout_of_range@std@@UAEPAXI@Z 00406fa0 f i ChannelMgr.obj
 0001:00005fa0       ??_Gout_of_range@std@@UAEPAXI@Z 00406fa0 f i ChannelMgr.obj
 0001:00005ff0       ??4?$basic_string@DU?$char_traits@D@std@@V?$allocator@D@2@@std@@QAEAAV01@ABV01@@Z 00406ff0 f i ChannelMgr.obj
 0001:00006010       ??Y?$basic_string@DU?$char_traits@D@std@@V?$allocator@D@2@@std@@QAEAAV01@PBD@Z 00407010 f i ChannelMgr.obj
 0001:00006040       ??0?$basic_string@DU?$char_traits@D@std@@V?$allocator@D@2@@std@@QAE@PBD@Z 00407040 f i ChannelMgr.obj
 0001:00006080       ?erase@?$_Tree@V?$_Tmap_traits@KUPLAYERINFO@CChannelMgr@@U?$less@K@std@@V?$allocator@U?$pair@$$CBKUPLAYERINFO@CChannelMgr@@@std@@@4@$0A@@std@@@std@@QAE?AViterator@12@V312@@Z 00407080 f i ChannelMgr.obj
 0001:00006340       ??0logic_error@std@@QAE@ABV01@@Z 00407340 f i ChannelMgr.obj
 0001:000063c0       ?_Insert@?$_Tree@V?$_Tmap_traits@KUPLAYERINFO@CChannelMgr@@U?$less@K@std@@V?$allocator@U?$pair@$$CBKUPLAYERINFO@CChannelMgr@@@std@@@4@$0A@@std@@@std@@IAE?AViterator@12@_NPAU_Node@?$_Tree_nod@V?$_Tmap_traits@KUPLAYERINFO@CChannelMgr@@U?$less@K@std@@V?$allocator@U?$pair@$$CBKUPLAYERINFO@CChannelMgr@@@std@@@4@$0A@@std@@@2@ABU?$pair@$$CBKUPLAYERINFO@CChannelMgr@@@2@@Z 004073c0 f i ChannelMgr.obj
 0001:000065c0       ?_Incsize@?$list@UtagPlusSrcInfo@@V?$allocator@UtagPlusSrcInfo@@@std@@@std@@IAEXI@Z 004075c0 f i ChannelMgr.obj
 0001:00006660       ?_Incsize@?$list@PAU_BLOCKCHANNELOP@CChannelMgr@@V?$allocator@PAU_BLOCKCHANNELOP@CChannelMgr@@@std@@@std@@IAEXI@Z 00407660 f i ChannelMgr.obj
 0001:00006700       ??0length_error@std@@QAE@ABV01@@Z 00407700 f i ChannelMgr.obj
 0001:00006720       ??0_Node@?$_Tree_nod@V?$_Tmap_traits@V?$basic_string@DU?$char_traits@D@std@@V?$allocator@D@2@@std@@KU_tstring_less@@V?$allocator@U?$pair@$$CBV?$basic_string@DU?$char_traits@D@std@@V?$allocator@D@2@@std@@K@std@@@2@$0A@@std@@@std@@QAE@PAU012@00ABU?$pair@$$CBV?$basic_string@DU?$char_traits@D@std@@V?$allocator@D@2@@std@@K@2@D@Z 00407720 f i ChannelMgr.obj
 0001:00006780       ??$_Destroy@U_Node@?$_Tree_nod@V?$_Tmap_traits@V?$basic_string@DU?$char_traits@D@std@@V?$allocator@D@2@@std@@KU_tstring_less@@V?$allocator@U?$pair@$$CBV?$basic_string@DU?$char_traits@D@std@@V?$allocator@D@2@@std@@K@std@@@2@$0A@@std@@@std@@@std@@YAXPAU_Node@?$_Tree_nod@V?$_Tmap_traits@V?$basic_string@DU?$char_traits@D@std@@V?$allocator@D@2@@std@@KU_tstring_less@@V?$allocator@U?$pair@$$CBV?$basic_string@DU?$char_traits@D@std@@V?$allocator@D@2@@std@@K@std@@@2@$0A@@std@@@0@@Z 00407780 f i ChannelMgr.obj
 0001:000067b0       ??_G_Node@?$_Tree_nod@V?$_Tmap_traits@KV?$list@PAU_BLOCKCHANNELOP@CChannelMgr@@V?$allocator@PAU_BLOCKCHANNELOP@CChannelMgr@@@std@@@std@@U?$less@K@2@V?$allocator@U?$pair@$$CBKV?$list@PAU_BLOCKCHANNELOP@CChannelMgr@@V?$allocator@PAU_BLOCKCHANNELOP@CChannelMgr@@@std@@@std@@@std@@@2@$0A@@std@@@std@@QAEPAXI@Z 004077b0 f i ChannelMgr.obj
 0001:000067e0       ?MakeChannelName@CChannelMgr@@QAE?AV?$basic_string@DU?$char_traits@D@std@@V?$allocator@D@2@@std@@ABV23@K@Z 004077e0 f   ChannelMgr.obj
 0001:00006b10       ?ReduceChannelName@CChannelMgr@@QAE?AV?$basic_string@DU?$char_traits@D@std@@V?$allocator@D@2@@std@@ABV23@@Z 00407b10 f   ChannelMgr.obj
 0001:00006cd0       ?SomeoneChat@CChannelMgr@@QAEHKABUtagPlusSrcInfo@@PBUCHAT_SOMEONECHAT_CMD@@@Z 00407cd0 f   ChannelMgr.obj
 0001:00006f00       ??0out_of_range@std@@QAE@ABV01@@Z 00407f00 f i ChannelMgr.obj
 0001:00006f20       ?erase@?$_Tree@V?$_Tmap_traits@KUPLAYERINFO@CChannelMgr@@U?$less@K@std@@V?$allocator@U?$pair@$$CBKUPLAYERINFO@CChannelMgr@@@std@@@4@$0A@@std@@@std@@QAE?AViterator@12@V312@0@Z 00407f20 f i ChannelMgr.obj
 0001:00006ff0       ?_Insert@?$list@UtagPlusSrcInfo@@V?$allocator@UtagPlusSrcInfo@@@std@@@std@@QAEXV?$_Iterator@$00@12@ABUtagPlusSrcInfo@@@Z 00407ff0 f i ChannelMgr.obj
 0001:00007030       ?_Insert@?$list@PAU_BLOCKCHANNELOP@CChannelMgr@@V?$allocator@PAU_BLOCKCHANNELOP@CChannelMgr@@@std@@@std@@QAEXV?$_Iterator@$00@12@ABQAU_BLOCKCHANNELOP@CChannelMgr@@@Z 00408030 f i ChannelMgr.obj
 0001:00007070       ?destroy@?$allocator@U_Node@?$_Tree_nod@V?$_Tmap_traits@V?$basic_string@DU?$char_traits@D@std@@V?$allocator@D@2@@std@@KU_tstring_less@@V?$allocator@U?$pair@$$CBV?$basic_string@DU?$char_traits@D@std@@V?$allocator@D@2@@std@@K@std@@@2@$0A@@std@@@std@@@std@@QAEXPAU_Node@?$_Tree_nod@V?$_Tmap_traits@V?$basic_string@DU?$char_traits@D@std@@V?$allocator@D@2@@std@@KU_tstring_less@@V?$allocator@U?$pair@$$CBV?$basic_string@DU?$char_traits@D@std@@V?$allocator@D@2@@std@@K@std@@@2@$0A@@std@@@2@@Z 00408070 f i ChannelMgr.obj
 0001:000070a0       ?insert@?$_Tree@V?$_Tmap_traits@KUPLAYERINFO@CChannelMgr@@U?$less@K@std@@V?$allocator@U?$pair@$$CBKUPLAYERINFO@CChannelMgr@@@std@@@4@$0A@@std@@@std@@QAE?AU?$pair@Viterator@?$_Tree@V?$_Tmap_traits@KUPLAYERINFO@CChannelMgr@@U?$less@K@std@@V?$allocator@U?$pair@$$CBKUPLAYERINFO@CChannelMgr@@@std@@@4@$0A@@std@@@std@@_N@2@ABU?$pair@$$CBKUPLAYERINFO@CChannelMgr@@@2@@Z 004080a0 f i ChannelMgr.obj
 0001:00007160       ?_Tidy@?$_Tree@V?$_Tmap_traits@KUPLAYERINFO@CChannelMgr@@U?$less@K@std@@V?$allocator@U?$pair@$$CBKUPLAYERINFO@CChannelMgr@@@std@@@4@$0A@@std@@@std@@IAEXXZ 00408160 f i ChannelMgr.obj
 0001:000071a0       ?_Buynode@?$_Tree@V?$_Tmap_traits@V?$basic_string@DU?$char_traits@D@std@@V?$allocator@D@2@@std@@KU_tstring_less@@V?$allocator@U?$pair@$$CBV?$basic_string@DU?$char_traits@D@std@@V?$allocator@D@2@@std@@K@std@@@2@$0A@@std@@@std@@IAEPAU_Node@?$_Tree_nod@V?$_Tmap_traits@V?$basic_string@DU?$char_traits@D@std@@V?$allocator@D@2@@std@@KU_tstring_less@@V?$allocator@U?$pair@$$CBV?$basic_string@DU?$char_traits@D@std@@V?$allocator@D@2@@std@@K@std@@@2@$0A@@std@@@2@PAU342@00ABU?$pair@$$CBV?$basic_string@DU?$char_traits@D@std@@V?$allocator@D@2@@std@@K@2@D@Z 004081a0 f i ChannelMgr.obj
 0001:00007240       ??$_Destroy@U_Node@?$_Tree_nod@V?$_Tmap_traits@KV?$list@PAU_BLOCKCHANNELOP@CChannelMgr@@V?$allocator@PAU_BLOCKCHANNELOP@CChannelMgr@@@std@@@std@@U?$less@K@2@V?$allocator@U?$pair@$$CBKV?$list@PAU_BLOCKCHANNELOP@CChannelMgr@@V?$allocator@PAU_BLOCKCHANNELOP@CChannelMgr@@@std@@@std@@@std@@@2@$0A@@std@@@std@@@std@@YAXPAU_Node@?$_Tree_nod@V?$_Tmap_traits@KV?$list@PAU_BLOCKCHANNELOP@CChannelMgr@@V?$allocator@PAU_BLOCKCHANNELOP@CChannelMgr@@@std@@@std@@U?$less@K@2@V?$allocator@U?$pair@$$CBKV?$list@PAU_BLOCKCHANNELOP@CChannelMgr@@V?$allocator@PAU_BLOCKCHANNELOP@CChannelMgr@@@std@@@std@@@std@@@2@$0A@@std@@@0@@Z 00408240 f i ChannelMgr.obj
 0001:00007250       ??$_Insert@V?$_Const_iterator@$00@?$list@PAU_BLOCKCHANNELOP@CChannelMgr@@V?$allocator@PAU_BLOCKCHANNELOP@CChannelMgr@@@std@@@std@@@?$list@PAU_BLOCKCHANNELOP@CChannelMgr@@V?$allocator@PAU_BLOCKCHANNELOP@CChannelMgr@@@std@@@std@@QAEXV?$_Iterator@$00@01@V?$_Const_iterator@$00@01@1Uforward_iterator_tag@1@@Z 00408250 f i ChannelMgr.obj
 0001:00007370       ?GetChannelName@CChannelMgr@@QAE?AV?$basic_string@DU?$char_traits@D@std@@V?$allocator@D@2@@std@@KH@Z 00408370 f   ChannelMgr.obj
 0001:00007500       ?GetChannelID@CChannelMgr@@QAEKABV?$basic_string@DU?$char_traits@D@std@@V?$allocator@D@2@@std@@K@Z 00408500 f   ChannelMgr.obj
 0001:00007640       ?erase@?$_Tree@V?$_Tmap_traits@KUPLAYERINFO@CChannelMgr@@U?$less@K@std@@V?$allocator@U?$pair@$$CBKUPLAYERINFO@CChannelMgr@@@std@@@4@$0A@@std@@@std@@QAEIABK@Z 00408640 f i ChannelMgr.obj
 0001:000076b0       ?push_back@?$list@UtagPlusSrcInfo@@V?$allocator@UtagPlusSrcInfo@@@std@@@std@@QAEXABUtagPlusSrcInfo@@@Z 004086b0 f i ChannelMgr.obj
 0001:000076f0       ?push_back@?$list@PAU_BLOCKCHANNELOP@CChannelMgr@@V?$allocator@PAU_BLOCKCHANNELOP@CChannelMgr@@@std@@@std@@QAEXABQAU_BLOCKCHANNELOP@CChannelMgr@@@Z 004086f0 f i ChannelMgr.obj
 0001:00007730       ?_Erase@?$_Tree@V?$_Tmap_traits@V?$basic_string@DU?$char_traits@D@std@@V?$allocator@D@2@@std@@KU_tstring_less@@V?$allocator@U?$pair@$$CBV?$basic_string@DU?$char_traits@D@std@@V?$allocator@D@2@@std@@K@std@@@2@$0A@@std@@@std@@IAEXPAU_Node@?$_Tree_nod@V?$_Tmap_traits@V?$basic_string@DU?$char_traits@D@std@@V?$allocator@D@2@@std@@KU_tstring_less@@V?$allocator@U?$pair@$$CBV?$basic_string@DU?$char_traits@D@std@@V?$allocator@D@2@@std@@K@std@@@2@$0A@@std@@@2@@Z 00408730 f i ChannelMgr.obj
 0001:00007790       ??1?$_Tree@V?$_Tmap_traits@KUPLAYERINFO@CChannelMgr@@U?$less@K@std@@V?$allocator@U?$pair@$$CBKUPLAYERINFO@CChannelMgr@@@std@@@4@$0A@@std@@@std@@QAE@XZ 00408790 f i ChannelMgr.obj
 0001:000077d0       ?insert@?$_Tree@V?$_Tmap_traits@KUPLAYERINFO@CChannelMgr@@U?$less@K@std@@V?$allocator@U?$pair@$$CBKUPLAYERINFO@CChannelMgr@@@std@@@4@$0A@@std@@@std@@QAE?AViterator@12@V312@ABU?$pair@$$CBKUPLAYERINFO@CChannelMgr@@@2@@Z 004087d0 f i ChannelMgr.obj
 0001:00007990       ?erase@?$_Tree@V?$_Tmap_traits@V?$basic_string@DU?$char_traits@D@std@@V?$allocator@D@2@@std@@KU_tstring_less@@V?$allocator@U?$pair@$$CBV?$basic_string@DU?$char_traits@D@std@@V?$allocator@D@2@@std@@K@std@@@2@$0A@@std@@@std@@QAE?AViterator@12@V312@@Z 00408990 f i ChannelMgr.obj
 0001:00007c80       ?_Insert@?$_Tree@V?$_Tmap_traits@V?$basic_string@DU?$char_traits@D@std@@V?$allocator@D@2@@std@@KU_tstring_less@@V?$allocator@U?$pair@$$CBV?$basic_string@DU?$char_traits@D@std@@V?$allocator@D@2@@std@@K@std@@@2@$0A@@std@@@std@@IAE?AViterator@12@_NPAU_Node@?$_Tree_nod@V?$_Tmap_traits@V?$basic_string@DU?$char_traits@D@std@@V?$allocator@D@2@@std@@KU_tstring_less@@V?$allocator@U?$pair@$$CBV?$basic_string@DU?$char_traits@D@std@@V?$allocator@D@2@@std@@K@std@@@2@$0A@@std@@@2@ABU?$pair@$$CBV?$basic_string@DU?$char_traits@D@std@@V?$allocator@D@2@@std@@K@2@@Z 00408c80 f i ChannelMgr.obj
 0001:00007e80       ?destroy@?$allocator@U_Node@?$_Tree_nod@V?$_Tmap_traits@KV?$list@PAU_BLOCKCHANNELOP@CChannelMgr@@V?$allocator@PAU_BLOCKCHANNELOP@CChannelMgr@@@std@@@std@@U?$less@K@2@V?$allocator@U?$pair@$$CBKV?$list@PAU_BLOCKCHANNELOP@CChannelMgr@@V?$allocator@PAU_BLOCKCHANNELOP@CChannelMgr@@@std@@@std@@@std@@@2@$0A@@std@@@std@@@std@@QAEXPAU_Node@?$_Tree_nod@V?$_Tmap_traits@KV?$list@PAU_BLOCKCHANNELOP@CChannelMgr@@V?$allocator@PAU_BLOCKCHANNELOP@CChannelMgr@@@std@@@std@@U?$less@K@2@V?$allocator@U?$pair@$$CBKV?$list@PAU_BLOCKCHANNELOP@CChannelMgr@@V?$allocator@PAU_BLOCKCHANNELOP@CChannelMgr@@@std@@@std@@@std@@@2@$0A@@std@@@2@@Z 00408e80 f i ChannelMgr.obj
 0001:00007e90       ??0?$_Tree@V?$_Tmap_traits@KUPLAYERINFO@CChannelMgr@@U?$less@K@std@@V?$allocator@U?$pair@$$CBKUPLAYERINFO@CChannelMgr@@@std@@@4@$0A@@std@@@std@@QAE@ABV01@@Z 00408e90 f i ChannelMgr.obj
 0001:00007f20       ?erase@?$_Tree@V?$_Tmap_traits@KV?$list@PAU_BLOCKCHANNELOP@CChannelMgr@@V?$allocator@PAU_BLOCKCHANNELOP@CChannelMgr@@@std@@@std@@U?$less@K@2@V?$allocator@U?$pair@$$CBKV?$list@PAU_BLOCKCHANNELOP@CChannelMgr@@V?$allocator@PAU_BLOCKCHANNELOP@CChannelMgr@@@std@@@std@@@std@@@2@$0A@@std@@@std@@QAE?AViterator@12@V312@@Z 00408f20 f i ChannelMgr.obj
 0001:000081f0       ??$insert@V?$_Const_iterator@$00@?$list@PAU_BLOCKCHANNELOP@CChannelMgr@@V?$allocator@PAU_BLOCKCHANNELOP@CChannelMgr@@@std@@@std@@@?$list@PAU_BLOCKCHANNELOP@CChannelMgr@@V?$allocator@PAU_BLOCKCHANNELOP@CChannelMgr@@@std@@@std@@QAEXV?$_Iterator@$00@01@V?$_Const_iterator@$00@01@1@Z 004091f0 f i ChannelMgr.obj
 0001:00008220       ?ChannelChat@CChannelMgr@@QAEHKABUtagPlusSrcInfo@@PBUCHAT_CHANNELCHAT_CMD@@@Z 00409220 f   ChannelMgr.obj
 0001:00008790       ?SayOnChannel@CChannelMgr@@QAEHKHABV?$basic_string@DU?$char_traits@D@std@@V?$allocator@D@2@@std@@00@Z 00409790 f   ChannelMgr.obj
 0001:00008d00       ?clear@?$_Tree@V?$_Tmap_traits@V?$basic_string@DU?$char_traits@D@std@@V?$allocator@D@2@@std@@KU_tstring_less@@V?$allocator@U?$pair@$$CBV?$basic_string@DU?$char_traits@D@std@@V?$allocator@D@2@@std@@K@std@@@2@$0A@@std@@@std@@QAEXXZ 00409d00 f i ChannelMgr.obj
 0001:00008d30       ??A?$map@KUPLAYERINFO@CChannelMgr@@U?$less@K@std@@V?$allocator@U?$pair@$$CBKUPLAYERINFO@CChannelMgr@@@std@@@4@@std@@QAEAAUPLAYERINFO@CChannelMgr@@ABK@Z 00409d30 f i ChannelMgr.obj
 0001:00008dc0       ??1?$map@KUPLAYERINFO@CChannelMgr@@U?$less@K@std@@V?$allocator@U?$pair@$$CBKUPLAYERINFO@CChannelMgr@@@std@@@4@@std@@QAE@XZ 00409dc0 f i ChannelMgr.obj
 0001:00008e00       ??1?$pair@$$CBKV?$map@KUPLAYERINFO@CChannelMgr@@U?$less@K@std@@V?$allocator@U?$pair@$$CBKUPLAYERINFO@CChannelMgr@@@std@@@4@@std@@@std@@QAE@XZ 00409e00 f i ChannelMgr.obj
 0001:00008e40       ?erase@?$_Tree@V?$_Tmap_traits@V?$basic_string@DU?$char_traits@D@std@@V?$allocator@D@2@@std@@KU_tstring_less@@V?$allocator@U?$pair@$$CBV?$basic_string@DU?$char_traits@D@std@@V?$allocator@D@2@@std@@K@std@@@2@$0A@@std@@@std@@QAE?AViterator@12@V312@0@Z 00409e40 f i ChannelMgr.obj
 0001:00008f10       ?_Tidy@?$_Tree@V?$_Tmap_traits@V?$basic_string@DU?$char_traits@D@std@@V?$allocator@D@2@@std@@KU_tstring_less@@V?$allocator@U?$pair@$$CBV?$basic_string@DU?$char_traits@D@std@@V?$allocator@D@2@@std@@K@std@@@2@$0A@@std@@@std@@IAEXXZ 00409f10 f i ChannelMgr.obj
 0001:00008f50       ?_Erase@?$_Tree@V?$_Tmap_traits@KV?$list@PAU_BLOCKCHANNELOP@CChannelMgr@@V?$allocator@PAU_BLOCKCHANNELOP@CChannelMgr@@@std@@@std@@U?$less@K@2@V?$allocator@U?$pair@$$CBKV?$list@PAU_BLOCKCHANNELOP@CChannelMgr@@V?$allocator@PAU_BLOCKCHANNELOP@CChannelMgr@@@std@@@std@@@std@@@2@$0A@@std@@@std@@IAEXPAU_Node@?$_Tree_nod@V?$_Tmap_traits@KV?$list@PAU_BLOCKCHANNELOP@CChannelMgr@@V?$allocator@PAU_BLOCKCHANNELOP@CChannelMgr@@@std@@@std@@U?$less@K@2@V?$allocator@U?$pair@$$CBKV?$list@PAU_BLOCKCHANNELOP@CChannelMgr@@V?$allocator@PAU_BLOCKCHANNELOP@CChannelMgr@@@std@@@std@@@std@@@2@$0A@@std@@@2@@Z 00409f50 f i ChannelMgr.obj
 0001:00008fd0       ??0?$map@KUPLAYERINFO@CChannelMgr@@U?$less@K@std@@V?$allocator@U?$pair@$$CBKUPLAYERINFO@CChannelMgr@@@std@@@4@@std@@QAE@XZ 00409fd0 f i ChannelMgr.obj
 0001:00009000       ??0?$map@KUPLAYERINFO@CChannelMgr@@U?$less@K@std@@V?$allocator@U?$pair@$$CBKUPLAYERINFO@CChannelMgr@@@std@@@4@@std@@QAE@ABV01@@Z 0040a000 f i ChannelMgr.obj
 0001:00009020       ?insert@?$_Tree@V?$_Tmap_traits@V?$basic_string@DU?$char_traits@D@std@@V?$allocator@D@2@@std@@KU_tstring_less@@V?$allocator@U?$pair@$$CBV?$basic_string@DU?$char_traits@D@std@@V?$allocator@D@2@@std@@K@std@@@2@$0A@@std@@@std@@QAE?AU?$pair@Viterator@?$_Tree@V?$_Tmap_traits@V?$basic_string@DU?$char_traits@D@std@@V?$allocator@D@2@@std@@KU_tstring_less@@V?$allocator@U?$pair@$$CBV?$basic_string@DU?$char_traits@D@std@@V?$allocator@D@2@@std@@K@std@@@2@$0A@@std@@@std@@_N@2@ABU?$pair@$$CBV?$basic_string@DU?$char_traits@D@std@@V?$allocator@D@2@@std@@K@2@@Z 0040a020 f i ChannelMgr.obj
 0001:00009130       ??0?$list@PAU_BLOCKCHANNELOP@CChannelMgr@@V?$allocator@PAU_BLOCKCHANNELOP@CChannelMgr@@@std@@@std@@QAE@ABV01@@Z 0040a130 f i ChannelMgr.obj
 0001:000091c0       ??0?$pair@$$CBKV?$map@KUPLAYERINFO@CChannelMgr@@U?$less@K@std@@V?$allocator@U?$pair@$$CBKUPLAYERINFO@CChannelMgr@@@std@@@4@@std@@@std@@QAE@ABU01@@Z 0040a1c0 f i ChannelMgr.obj
 0001:000091e0       ??0?$pair@$$CBKV?$list@PAU_BLOCKCHANNELOP@CChannelMgr@@V?$allocator@PAU_BLOCKCHANNELOP@CChannelMgr@@@std@@@std@@@std@@QAE@ABU01@@Z 0040a1e0 f i ChannelMgr.obj
 0001:00009200       ??1_Node@?$_Tree_nod@V?$_Tmap_traits@KV?$map@KUPLAYERINFO@CChannelMgr@@U?$less@K@std@@V?$allocator@U?$pair@$$CBKUPLAYERINFO@CChannelMgr@@@std@@@4@@std@@U?$less@K@2@V?$allocator@U?$pair@$$CBKV?$map@KUPLAYERINFO@CChannelMgr@@U?$less@K@std@@V?$allocator@U?$pair@$$CBKUPLAYERINFO@CChannelMgr@@@std@@@4@@std@@@std@@@2@$0A@@std@@@std@@QAE@XZ 0040a200 f i ChannelMgr.obj
 0001:00009240       ??1?$_Tree@V?$_Tmap_traits@V?$basic_string@DU?$char_traits@D@std@@V?$allocator@D@2@@std@@KU_tstring_less@@V?$allocator@U?$pair@$$CBV?$basic_string@DU?$char_traits@D@std@@V?$allocator@D@2@@std@@K@std@@@2@$0A@@std@@@std@@QAE@XZ 0040a240 f i ChannelMgr.obj
 0001:00009280       ?erase@?$_Tree@V?$_Tmap_traits@V?$basic_string@DU?$char_traits@D@std@@V?$allocator@D@2@@std@@KU_tstring_less@@V?$allocator@U?$pair@$$CBV?$basic_string@DU?$char_traits@D@std@@V?$allocator@D@2@@std@@K@std@@@2@$0A@@std@@@std@@QAEIABV?$basic_string@DU?$char_traits@D@std@@V?$allocator@D@2@@2@@Z 0040a280 f i ChannelMgr.obj
 0001:000092f0       ?clear@?$_Tree@V?$_Tmap_traits@KV?$list@PAU_BLOCKCHANNELOP@CChannelMgr@@V?$allocator@PAU_BLOCKCHANNELOP@CChannelMgr@@@std@@@std@@U?$less@K@2@V?$allocator@U?$pair@$$CBKV?$list@PAU_BLOCKCHANNELOP@CChannelMgr@@V?$allocator@PAU_BLOCKCHANNELOP@CChannelMgr@@@std@@@std@@@std@@@2@$0A@@std@@@std@@QAEXXZ 0040a2f0 f i ChannelMgr.obj
 0001:00009320       ?insert@?$_Tree@V?$_Tmap_traits@V?$basic_string@DU?$char_traits@D@std@@V?$allocator@D@2@@std@@KU_tstring_less@@V?$allocator@U?$pair@$$CBV?$basic_string@DU?$char_traits@D@std@@V?$allocator@D@2@@std@@K@std@@@2@$0A@@std@@@std@@QAE?AViterator@12@V312@ABU?$pair@$$CBV?$basic_string@DU?$char_traits@D@std@@V?$allocator@D@2@@std@@K@2@@Z 0040a320 f i ChannelMgr.obj
 0001:00009520       ??0?$pair@$$CBKV?$map@KUPLAYERINFO@CChannelMgr@@U?$less@K@std@@V?$allocator@U?$pair@$$CBKUPLAYERINFO@CChannelMgr@@@std@@@4@@std@@@std@@QAE@ABKABV?$map@KUPLAYERINFO@CChannelMgr@@U?$less@K@std@@V?$allocator@U?$pair@$$CBKUPLAYERINFO@CChannelMgr@@@std@@@4@@1@@Z 0040a520 f i ChannelMgr.obj
 0001:00009540       ??0?$pair@$$CBKV?$list@PAU_BLOCKCHANNELOP@CChannelMgr@@V?$allocator@PAU_BLOCKCHANNELOP@CChannelMgr@@@std@@@std@@@std@@QAE@ABKABV?$list@PAU_BLOCKCHANNELOP@CChannelMgr@@V?$allocator@PAU_BLOCKCHANNELOP@CChannelMgr@@@std@@@1@@Z 0040a540 f i ChannelMgr.obj
 0001:00009560       ?erase@?$_Tree@V?$_Tmap_traits@KV?$list@PAU_BLOCKCHANNELOP@CChannelMgr@@V?$allocator@PAU_BLOCKCHANNELOP@CChannelMgr@@@std@@@std@@U?$less@K@2@V?$allocator@U?$pair@$$CBKV?$list@PAU_BLOCKCHANNELOP@CChannelMgr@@V?$allocator@PAU_BLOCKCHANNELOP@CChannelMgr@@@std@@@std@@@std@@@2@$0A@@std@@@std@@QAE?AViterator@12@V312@0@Z 0040a560 f i ChannelMgr.obj
 0001:00009630       ??0_Node@?$_Tree_nod@V?$_Tmap_traits@KV?$map@KUPLAYERINFO@CChannelMgr@@U?$less@K@std@@V?$allocator@U?$pair@$$CBKUPLAYERINFO@CChannelMgr@@@std@@@4@@std@@U?$less@K@2@V?$allocator@U?$pair@$$CBKV?$map@KUPLAYERINFO@CChannelMgr@@U?$less@K@std@@V?$allocator@U?$pair@$$CBKUPLAYERINFO@CChannelMgr@@@std@@@4@@std@@@std@@@2@$0A@@std@@@std@@QAE@PAU012@00ABU?$pair@$$CBKV?$map@KUPLAYERINFO@CChannelMgr@@U?$less@K@std@@V?$allocator@U?$pair@$$CBKUPLAYERINFO@CChannelMgr@@@std@@@4@@std@@@2@D@Z 0040a630 f i ChannelMgr.obj
 0001:00009670       ??0_Node@?$_Tree_nod@V?$_Tmap_traits@KV?$list@PAU_BLOCKCHANNELOP@CChannelMgr@@V?$allocator@PAU_BLOCKCHANNELOP@CChannelMgr@@@std@@@std@@U?$less@K@2@V?$allocator@U?$pair@$$CBKV?$list@PAU_BLOCKCHANNELOP@CChannelMgr@@V?$allocator@PAU_BLOCKCHANNELOP@CChannelMgr@@@std@@@std@@@std@@@2@$0A@@std@@@std@@QAE@PAU012@00ABU?$pair@$$CBKV?$list@PAU_BLOCKCHANNELOP@CChannelMgr@@V?$allocator@PAU_BLOCKCHANNELOP@CChannelMgr@@@std@@@std@@@2@D@Z 0040a670 f i ChannelMgr.obj
 0001:000096b0       ??_G_Node@?$_Tree_nod@V?$_Tmap_traits@KV?$map@KUPLAYERINFO@CChannelMgr@@U?$less@K@std@@V?$allocator@U?$pair@$$CBKUPLAYERINFO@CChannelMgr@@@std@@@4@@std@@U?$less@K@2@V?$allocator@U?$pair@$$CBKV?$map@KUPLAYERINFO@CChannelMgr@@U?$less@K@std@@V?$allocator@U?$pair@$$CBKUPLAYERINFO@CChannelMgr@@@std@@@4@@std@@@std@@@2@$0A@@std@@@std@@QAEPAXI@Z 0040a6b0 f i ChannelMgr.obj
 0001:00009700       ??1?$map@V?$basic_string@DU?$char_traits@D@std@@V?$allocator@D@2@@std@@KU_tstring_less@@V?$allocator@U?$pair@$$CBV?$basic_string@DU?$char_traits@D@std@@V?$allocator@D@2@@std@@K@std@@@2@@std@@QAE@XZ 0040a700 f i ChannelMgr.obj
 0001:00009740       ??0?$map@V?$basic_string@DU?$char_traits@D@std@@V?$allocator@D@2@@std@@KU_tstring_less@@V?$allocator@U?$pair@$$CBV?$basic_string@DU?$char_traits@D@std@@V?$allocator@D@2@@std@@K@std@@@2@@std@@QAE@XZ 0040a740 f i ChannelMgr.obj
 0001:00009770       ??A?$map@V?$basic_string@DU?$char_traits@D@std@@V?$allocator@D@2@@std@@KU_tstring_less@@V?$allocator@U?$pair@$$CBV?$basic_string@DU?$char_traits@D@std@@V?$allocator@D@2@@std@@K@std@@@2@@std@@QAEAAKABV?$basic_string@DU?$char_traits@D@std@@V?$allocator@D@2@@1@@Z 0040a770 f i ChannelMgr.obj
 0001:00009860       ?_Tidy@?$_Tree@V?$_Tmap_traits@KV?$list@PAU_BLOCKCHANNELOP@CChannelMgr@@V?$allocator@PAU_BLOCKCHANNELOP@CChannelMgr@@@std@@@std@@U?$less@K@2@V?$allocator@U?$pair@$$CBKV?$list@PAU_BLOCKCHANNELOP@CChannelMgr@@V?$allocator@PAU_BLOCKCHANNELOP@CChannelMgr@@@std@@@std@@@std@@@2@$0A@@std@@@std@@IAEXXZ 0040a860 f i ChannelMgr.obj
 0001:000098a0       ?_Buynode@?$_Tree@V?$_Tmap_traits@KV?$map@KUPLAYERINFO@CChannelMgr@@U?$less@K@std@@V?$allocator@U?$pair@$$CBKUPLAYERINFO@CChannelMgr@@@std@@@4@@std@@U?$less@K@2@V?$allocator@U?$pair@$$CBKV?$map@KUPLAYERINFO@CChannelMgr@@U?$less@K@std@@V?$allocator@U?$pair@$$CBKUPLAYERINFO@CChannelMgr@@@std@@@4@@std@@@std@@@2@$0A@@std@@@std@@IAEPAU_Node@?$_Tree_nod@V?$_Tmap_traits@KV?$map@KUPLAYERINFO@CChannelMgr@@U?$less@K@std@@V?$allocator@U?$pair@$$CBKUPLAYERINFO@CChannelMgr@@@std@@@4@@std@@U?$less@K@2@V?$allocator@U?$pair@$$CBKV?$map@KUPLAYERINFO@CChannelMgr@@U?$less@K@std@@V?$allocator@U?$pair@$$CBKUPLAYERINFO@CChannelMgr@@@std@@@4@@std@@@std@@@2@$0A@@std@@@2@PAU342@00ABU?$pair@$$CBKV?$map@KUPLAYERINFO@CChannelMgr@@U?$less@K@std@@V?$allocator@U?$pair@$$CBKUPLAYERINFO@CChannelMgr@@@std@@@4@@std@@@2@D@Z 0040a8a0 f i ChannelMgr.obj
 0001:00009950       ?_Buynode@?$_Tree@V?$_Tmap_traits@KV?$list@PAU_BLOCKCHANNELOP@CChannelMgr@@V?$allocator@PAU_BLOCKCHANNELOP@CChannelMgr@@@std@@@std@@U?$less@K@2@V?$allocator@U?$pair@$$CBKV?$list@PAU_BLOCKCHANNELOP@CChannelMgr@@V?$allocator@PAU_BLOCKCHANNELOP@CChannelMgr@@@std@@@std@@@std@@@2@$0A@@std@@@std@@IAEPAU_Node@?$_Tree_nod@V?$_Tmap_traits@KV?$list@PAU_BLOCKCHANNELOP@CChannelMgr@@V?$allocator@PAU_BLOCKCHANNELOP@CChannelMgr@@@std@@@std@@U?$less@K@2@V?$allocator@U?$pair@$$CBKV?$list@PAU_BLOCKCHANNELOP@CChannelMgr@@V?$allocator@PAU_BLOCKCHANNELOP@CChannelMgr@@@std@@@std@@@std@@@2@$0A@@std@@@2@PAU342@00ABU?$pair@$$CBKV?$list@PAU_BLOCKCHANNELOP@CChannelMgr@@V?$allocator@PAU_BLOCKCHANNELOP@CChannelMgr@@@std@@@std@@@2@D@Z 0040a950 f i ChannelMgr.obj
 0001:00009a00       ??$_Destroy@U_Node@?$_Tree_nod@V?$_Tmap_traits@KV?$map@KUPLAYERINFO@CChannelMgr@@U?$less@K@std@@V?$allocator@U?$pair@$$CBKUPLAYERINFO@CChannelMgr@@@std@@@4@@std@@U?$less@K@2@V?$allocator@U?$pair@$$CBKV?$map@KUPLAYERINFO@CChannelMgr@@U?$less@K@std@@V?$allocator@U?$pair@$$CBKUPLAYERINFO@CChannelMgr@@@std@@@4@@std@@@std@@@2@$0A@@std@@@std@@@std@@YAXPAU_Node@?$_Tree_nod@V?$_Tmap_traits@KV?$map@KUPLAYERINFO@CChannelMgr@@U?$less@K@std@@V?$allocator@U?$pair@$$CBKUPLAYERINFO@CChannelMgr@@@std@@@4@@std@@U?$less@K@2@V?$allocator@U?$pair@$$CBKV?$map@KUPLAYERINFO@CChannelMgr@@U?$less@K@std@@V?$allocator@U?$pair@$$CBKUPLAYERINFO@CChannelMgr@@@std@@@4@@std@@@std@@@2@$0A@@std@@@0@@Z 0040aa00 f i ChannelMgr.obj
 0001:00009a40       ??1?$_Tree@V?$_Tmap_traits@KV?$list@PAU_BLOCKCHANNELOP@CChannelMgr@@V?$allocator@PAU_BLOCKCHANNELOP@CChannelMgr@@@std@@@std@@U?$less@K@2@V?$allocator@U?$pair@$$CBKV?$list@PAU_BLOCKCHANNELOP@CChannelMgr@@V?$allocator@PAU_BLOCKCHANNELOP@CChannelMgr@@@std@@@std@@@std@@@2@$0A@@std@@@std@@QAE@XZ 0040aa40 f i ChannelMgr.obj
 0001:00009a80       ?destroy@?$allocator@U_Node@?$_Tree_nod@V?$_Tmap_traits@KV?$map@KUPLAYERINFO@CChannelMgr@@U?$less@K@std@@V?$allocator@U?$pair@$$CBKUPLAYERINFO@CChannelMgr@@@std@@@4@@std@@U?$less@K@2@V?$allocator@U?$pair@$$CBKV?$map@KUPLAYERINFO@CChannelMgr@@U?$less@K@std@@V?$allocator@U?$pair@$$CBKUPLAYERINFO@CChannelMgr@@@std@@@4@@std@@@std@@@2@$0A@@std@@@std@@@std@@QAEXPAU_Node@?$_Tree_nod@V?$_Tmap_traits@KV?$map@KUPLAYERINFO@CChannelMgr@@U?$less@K@std@@V?$allocator@U?$pair@$$CBKUPLAYERINFO@CChannelMgr@@@std@@@4@@std@@U?$less@K@2@V?$allocator@U?$pair@$$CBKV?$map@KUPLAYERINFO@CChannelMgr@@U?$less@K@std@@V?$allocator@U?$pair@$$CBKUPLAYERINFO@CChannelMgr@@@std@@@4@@std@@@std@@@2@$0A@@std@@@2@@Z 0040aa80 f i ChannelMgr.obj
 0001:00009ac0       ?_Insert@?$_Tree@V?$_Tmap_traits@KV?$map@KUPLAYERINFO@CChannelMgr@@U?$less@K@std@@V?$allocator@U?$pair@$$CBKUPLAYERINFO@CChannelMgr@@@std@@@4@@std@@U?$less@K@2@V?$allocator@U?$pair@$$CBKV?$map@KUPLAYERINFO@CChannelMgr@@U?$less@K@std@@V?$allocator@U?$pair@$$CBKUPLAYERINFO@CChannelMgr@@@std@@@4@@std@@@std@@@2@$0A@@std@@@std@@IAE?AViterator@12@_NPAU_Node@?$_Tree_nod@V?$_Tmap_traits@KV?$map@KUPLAYERINFO@CChannelMgr@@U?$less@K@std@@V?$allocator@U?$pair@$$CBKUPLAYERINFO@CChannelMgr@@@std@@@4@@std@@U?$less@K@2@V?$allocator@U?$pair@$$CBKV?$map@KUPLAYERINFO@CChannelMgr@@U?$less@K@std@@V?$allocator@U?$pair@$$CBKUPLAYERINFO@CChannelMgr@@@std@@@4@@std@@@std@@@2@$0A@@std@@@2@ABU?$pair@$$CBKV?$map@KUPLAYERINFO@CChannelMgr@@U?$less@K@std@@V?$allocator@U?$pair@$$CBKUPLAYERINFO@CChannelMgr@@@std@@@4@@std@@@2@@Z 0040aac0 f i ChannelMgr.obj
 0001:00009cc0       ?_Insert@?$_Tree@V?$_Tmap_traits@KV?$list@PAU_BLOCKCHANNELOP@CChannelMgr@@V?$allocator@PAU_BLOCKCHANNELOP@CChannelMgr@@@std@@@std@@U?$less@K@2@V?$allocator@U?$pair@$$CBKV?$list@PAU_BLOCKCHANNELOP@CChannelMgr@@V?$allocator@PAU_BLOCKCHANNELOP@CChannelMgr@@@std@@@std@@@std@@@2@$0A@@std@@@std@@IAE?AViterator@12@_NPAU_Node@?$_Tree_nod@V?$_Tmap_traits@KV?$list@PAU_BLOCKCHANNELOP@CChannelMgr@@V?$allocator@PAU_BLOCKCHANNELOP@CChannelMgr@@@std@@@std@@U?$less@K@2@V?$allocator@U?$pair@$$CBKV?$list@PAU_BLOCKCHANNELOP@CChannelMgr@@V?$allocator@PAU_BLOCKCHANNELOP@CChannelMgr@@@std@@@std@@@std@@@2@$0A@@std@@@2@ABU?$pair@$$CBKV?$list@PAU_BLOCKCHANNELOP@CChannelMgr@@V?$allocator@PAU_BLOCKCHANNELOP@CChannelMgr@@@std@@@std@@@2@@Z 0040acc0 f i ChannelMgr.obj
 0001:00009ec0       ?_Erase@?$_Tree@V?$_Tmap_traits@KV?$map@KUPLAYERINFO@CChannelMgr@@U?$less@K@std@@V?$allocator@U?$pair@$$CBKUPLAYERINFO@CChannelMgr@@@std@@@4@@std@@U?$less@K@2@V?$allocator@U?$pair@$$CBKV?$map@KUPLAYERINFO@CChannelMgr@@U?$less@K@std@@V?$allocator@U?$pair@$$CBKUPLAYERINFO@CChannelMgr@@@std@@@4@@std@@@std@@@2@$0A@@std@@@std@@IAEXPAU_Node@?$_Tree_nod@V?$_Tmap_traits@KV?$map@KUPLAYERINFO@CChannelMgr@@U?$less@K@std@@V?$allocator@U?$pair@$$CBKUPLAYERINFO@CChannelMgr@@@std@@@4@@std@@U?$less@K@2@V?$allocator@U?$pair@$$CBKV?$map@KUPLAYERINFO@CChannelMgr@@U?$less@K@std@@V?$allocator@U?$pair@$$CBKUPLAYERINFO@CChannelMgr@@@std@@@4@@std@@@std@@@2@$0A@@std@@@2@@Z 0040aec0 f i ChannelMgr.obj
 0001:00009f30       ??1?$map@KV?$list@PAU_BLOCKCHANNELOP@CChannelMgr@@V?$allocator@PAU_BLOCKCHANNELOP@CChannelMgr@@@std@@@std@@U?$less@K@2@V?$allocator@U?$pair@$$CBKV?$list@PAU_BLOCKCHANNELOP@CChannelMgr@@V?$allocator@PAU_BLOCKCHANNELOP@CChannelMgr@@@std@@@std@@@std@@@2@@std@@QAE@XZ 0040af30 f i ChannelMgr.obj
 0001:00009f70       ?erase@?$_Tree@V?$_Tmap_traits@KV?$map@KUPLAYERINFO@CChannelMgr@@U?$less@K@std@@V?$allocator@U?$pair@$$CBKUPLAYERINFO@CChannelMgr@@@std@@@4@@std@@U?$less@K@2@V?$allocator@U?$pair@$$CBKV?$map@KUPLAYERINFO@CChannelMgr@@U?$less@K@std@@V?$allocator@U?$pair@$$CBKUPLAYERINFO@CChannelMgr@@@std@@@4@@std@@@std@@@2@$0A@@std@@@std@@QAE?AViterator@12@V312@@Z 0040af70 f i ChannelMgr.obj
 0001:0000a260       ??0?$map@KV?$list@PAU_BLOCKCHANNELOP@CChannelMgr@@V?$allocator@PAU_BLOCKCHANNELOP@CChannelMgr@@@std@@@std@@U?$less@K@2@V?$allocator@U?$pair@$$CBKV?$list@PAU_BLOCKCHANNELOP@CChannelMgr@@V?$allocator@PAU_BLOCKCHANNELOP@CChannelMgr@@@std@@@std@@@std@@@2@@std@@QAE@XZ 0040b260 f i ChannelMgr.obj
 0001:0000a290       ?insert@?$_Tree@V?$_Tmap_traits@KV?$map@KUPLAYERINFO@CChannelMgr@@U?$less@K@std@@V?$allocator@U?$pair@$$CBKUPLAYERINFO@CChannelMgr@@@std@@@4@@std@@U?$less@K@2@V?$allocator@U?$pair@$$CBKV?$map@KUPLAYERINFO@CChannelMgr@@U?$less@K@std@@V?$allocator@U?$pair@$$CBKUPLAYERINFO@CChannelMgr@@@std@@@4@@std@@@std@@@2@$0A@@std@@@std@@QAE?AU?$pair@Viterator@?$_Tree@V?$_Tmap_traits@KV?$map@KUPLAYERINFO@CChannelMgr@@U?$less@K@std@@V?$allocator@U?$pair@$$CBKUPLAYERINFO@CChannelMgr@@@std@@@4@@std@@U?$less@K@2@V?$allocator@U?$pair@$$CBKV?$map@KUPLAYERINFO@CChannelMgr@@U?$less@K@std@@V?$allocator@U?$pair@$$CBKUPLAYERINFO@CChannelMgr@@@std@@@4@@std@@@std@@@2@$0A@@std@@@std@@_N@2@ABU?$pair@$$CBKV?$map@KUPLAYERINFO@CChannelMgr@@U?$less@K@std@@V?$allocator@U?$pair@$$CBKUPLAYERINFO@CChannelMgr@@@std@@@4@@std@@@2@@Z 0040b290 f i ChannelMgr.obj
 0001:0000a350       ?insert@?$_Tree@V?$_Tmap_traits@KV?$list@PAU_BLOCKCHANNELOP@CChannelMgr@@V?$allocator@PAU_BLOCKCHANNELOP@CChannelMgr@@@std@@@std@@U?$less@K@2@V?$allocator@U?$pair@$$CBKV?$list@PAU_BLOCKCHANNELOP@CChannelMgr@@V?$allocator@PAU_BLOCKCHANNELOP@CChannelMgr@@@std@@@std@@@std@@@2@$0A@@std@@@std@@QAE?AU?$pair@Viterator@?$_Tree@V?$_Tmap_traits@KV?$list@PAU_BLOCKCHANNELOP@CChannelMgr@@V?$allocator@PAU_BLOCKCHANNELOP@CChannelMgr@@@std@@@std@@U?$less@K@2@V?$allocator@U?$pair@$$CBKV?$list@PAU_BLOCKCHANNELOP@CChannelMgr@@V?$allocator@PAU_BLOCKCHANNELOP@CChannelMgr@@@std@@@std@@@std@@@2@$0A@@std@@@std@@_N@2@ABU?$pair@$$CBKV?$list@PAU_BLOCKCHANNELOP@CChannelMgr@@V?$allocator@PAU_BLOCKCHANNELOP@CChannelMgr@@@std@@@std@@@2@@Z 0040b350 f i ChannelMgr.obj
 0001:0000a410       ?clear@?$_Tree@V?$_Tmap_traits@KV?$map@KUPLAYERINFO@CChannelMgr@@U?$less@K@std@@V?$allocator@U?$pair@$$CBKUPLAYERINFO@CChannelMgr@@@std@@@4@@std@@U?$less@K@2@V?$allocator@U?$pair@$$CBKV?$map@KUPLAYERINFO@CChannelMgr@@U?$less@K@std@@V?$allocator@U?$pair@$$CBKUPLAYERINFO@CChannelMgr@@@std@@@4@@std@@@std@@@2@$0A@@std@@@std@@QAEXXZ 0040b410 f i ChannelMgr.obj
 0001:0000a440       ?_Copy@?$_Tree@V?$_Tmap_traits@KV?$map@KUPLAYERINFO@CChannelMgr@@U?$less@K@std@@V?$allocator@U?$pair@$$CBKUPLAYERINFO@CChannelMgr@@@std@@@4@@std@@U?$less@K@2@V?$allocator@U?$pair@$$CBKV?$map@KUPLAYERINFO@CChannelMgr@@U?$less@K@std@@V?$allocator@U?$pair@$$CBKUPLAYERINFO@CChannelMgr@@@std@@@4@@std@@@std@@@2@$0A@@std@@@std@@IAEPAU_Node@?$_Tree_nod@V?$_Tmap_traits@KV?$map@KUPLAYERINFO@CChannelMgr@@U?$less@K@std@@V?$allocator@U?$pair@$$CBKUPLAYERINFO@CChannelMgr@@@std@@@4@@std@@U?$less@K@2@V?$allocator@U?$pair@$$CBKV?$map@KUPLAYERINFO@CChannelMgr@@U?$less@K@std@@V?$allocator@U?$pair@$$CBKUPLAYERINFO@CChannelMgr@@@std@@@4@@std@@@std@@@2@$0A@@std@@@2@PAU342@0@Z 0040b440 f i ChannelMgr.obj
 0001:0000a500       ?insert@?$_Tree@V?$_Tmap_traits@KV?$map@KUPLAYERINFO@CChannelMgr@@U?$less@K@std@@V?$allocator@U?$pair@$$CBKUPLAYERINFO@CChannelMgr@@@std@@@4@@std@@U?$less@K@2@V?$allocator@U?$pair@$$CBKV?$map@KUPLAYERINFO@CChannelMgr@@U?$less@K@std@@V?$allocator@U?$pair@$$CBKUPLAYERINFO@CChannelMgr@@@std@@@4@@std@@@std@@@2@$0A@@std@@@std@@QAE?AViterator@12@V312@ABU?$pair@$$CBKV?$map@KUPLAYERINFO@CChannelMgr@@U?$less@K@std@@V?$allocator@U?$pair@$$CBKUPLAYERINFO@CChannelMgr@@@std@@@4@@std@@@2@@Z 0040b500 f i ChannelMgr.obj
 0001:0000a6c0       ?insert@?$_Tree@V?$_Tmap_traits@KV?$list@PAU_BLOCKCHANNELOP@CChannelMgr@@V?$allocator@PAU_BLOCKCHANNELOP@CChannelMgr@@@std@@@std@@U?$less@K@2@V?$allocator@U?$pair@$$CBKV?$list@PAU_BLOCKCHANNELOP@CChannelMgr@@V?$allocator@PAU_BLOCKCHANNELOP@CChannelMgr@@@std@@@std@@@std@@@2@$0A@@std@@@std@@QAE?AViterator@12@V312@ABU?$pair@$$CBKV?$list@PAU_BLOCKCHANNELOP@CChannelMgr@@V?$allocator@PAU_BLOCKCHANNELOP@CChannelMgr@@@std@@@std@@@2@@Z 0040b6c0 f i ChannelMgr.obj
 0001:0000a880       ?erase@?$_Tree@V?$_Tmap_traits@KV?$map@KUPLAYERINFO@CChannelMgr@@U?$less@K@std@@V?$allocator@U?$pair@$$CBKUPLAYERINFO@CChannelMgr@@@std@@@4@@std@@U?$less@K@2@V?$allocator@U?$pair@$$CBKV?$map@KUPLAYERINFO@CChannelMgr@@U?$less@K@std@@V?$allocator@U?$pair@$$CBKUPLAYERINFO@CChannelMgr@@@std@@@4@@std@@@std@@@2@$0A@@std@@@std@@QAE?AViterator@12@V312@0@Z 0040b880 f i ChannelMgr.obj
 0001:0000a950       ?_Copy@?$_Tree@V?$_Tmap_traits@KV?$map@KUPLAYERINFO@CChannelMgr@@U?$less@K@std@@V?$allocator@U?$pair@$$CBKUPLAYERINFO@CChannelMgr@@@std@@@4@@std@@U?$less@K@2@V?$allocator@U?$pair@$$CBKV?$map@KUPLAYERINFO@CChannelMgr@@U?$less@K@std@@V?$allocator@U?$pair@$$CBKUPLAYERINFO@CChannelMgr@@@std@@@4@@std@@@std@@@2@$0A@@std@@@std@@IAEXABV12@@Z 0040b950 f i ChannelMgr.obj
 0001:0000a9d0       ??A?$map@KV?$map@KUPLAYERINFO@CChannelMgr@@U?$less@K@std@@V?$allocator@U?$pair@$$CBKUPLAYERINFO@CChannelMgr@@@std@@@4@@std@@U?$less@K@2@V?$allocator@U?$pair@$$CBKV?$map@KUPLAYERINFO@CChannelMgr@@U?$less@K@std@@V?$allocator@U?$pair@$$CBKUPLAYERINFO@CChannelMgr@@@std@@@4@@std@@@std@@@2@@std@@QAEAAV?$map@KUPLAYERINFO@CChannelMgr@@U?$less@K@std@@V?$allocator@U?$pair@$$CBKUPLAYERINFO@CChannelMgr@@@std@@@4@@1@ABK@Z 0040b9d0 f i ChannelMgr.obj
 0001:0000ab30       ??A?$map@KV?$list@PAU_BLOCKCHANNELOP@CChannelMgr@@V?$allocator@PAU_BLOCKCHANNELOP@CChannelMgr@@@std@@@std@@U?$less@K@2@V?$allocator@U?$pair@$$CBKV?$list@PAU_BLOCKCHANNELOP@CChannelMgr@@V?$allocator@PAU_BLOCKCHANNELOP@CChannelMgr@@@std@@@std@@@std@@@2@@std@@QAEAAV?$list@PAU_BLOCKCHANNELOP@CChannelMgr@@V?$allocator@PAU_BLOCKCHANNELOP@CChannelMgr@@@std@@@1@ABK@Z 0040bb30 f i ChannelMgr.obj
 0001:0000ac20       ?_Tidy@?$_Tree@V?$_Tmap_traits@KV?$map@KUPLAYERINFO@CChannelMgr@@U?$less@K@std@@V?$allocator@U?$pair@$$CBKUPLAYERINFO@CChannelMgr@@@std@@@4@@std@@U?$less@K@2@V?$allocator@U?$pair@$$CBKV?$map@KUPLAYERINFO@CChannelMgr@@U?$less@K@std@@V?$allocator@U?$pair@$$CBKUPLAYERINFO@CChannelMgr@@@std@@@4@@std@@@std@@@2@$0A@@std@@@std@@IAEXXZ 0040bc20 f i ChannelMgr.obj
 0001:0000ac60       ?QueryChannelID@CChannelMgr@@QAEHABV?$basic_string@DU?$char_traits@D@std@@V?$allocator@D@2@@std@@KKK@Z 0040bc60 f   ChannelMgr.obj
 0001:0000ac70       ?Subscribe@CChannelMgr@@QAEHKKK@Z 0040bc70 f   ChannelMgr.obj
 0001:0000ac80       ?Unsubscribe@CChannelMgr@@QAEHKKK@Z 0040bc80 f   ChannelMgr.obj
 0001:0000ac90       ?FreeChannID@CChannelMgr@@QAEHKKK@Z 0040bc90 f   ChannelMgr.obj
 0001:0000aca0       ?ClearPlayer@CChannelMgr@@QAEHKK@Z 0040bca0 f   ChannelMgr.obj
 0001:0000acb0       ?Block_Subscribe@CChannelMgr@@AAEHKKK@Z 0040bcb0 f   ChannelMgr.obj
 0001:0000adc0       ?B_Subscribe@CChannelMgr@@QAEHKKK@Z 0040bdc0 f   ChannelMgr.obj
 0001:0000add0       ??1?$_Tree@V?$_Tmap_traits@KV?$map@KUPLAYERINFO@CChannelMgr@@U?$less@K@std@@V?$allocator@U?$pair@$$CBKUPLAYERINFO@CChannelMgr@@@std@@@4@@std@@U?$less@K@2@V?$allocator@U?$pair@$$CBKV?$map@KUPLAYERINFO@CChannelMgr@@U?$less@K@std@@V?$allocator@U?$pair@$$CBKUPLAYERINFO@CChannelMgr@@@std@@@4@@std@@@std@@@2@$0A@@std@@@std@@QAE@XZ 0040bdd0 f i ChannelMgr.obj
 0001:0000ae10       ??0?$_Tree@V?$_Tmap_traits@KV?$map@KUPLAYERINFO@CChannelMgr@@U?$less@K@std@@V?$allocator@U?$pair@$$CBKUPLAYERINFO@CChannelMgr@@@std@@@4@@std@@U?$less@K@2@V?$allocator@U?$pair@$$CBKV?$map@KUPLAYERINFO@CChannelMgr@@U?$less@K@std@@V?$allocator@U?$pair@$$CBKUPLAYERINFO@CChannelMgr@@@std@@@4@@std@@@std@@@2@$0A@@std@@@std@@QAE@ABV01@@Z 0040be10 f i ChannelMgr.obj
 0001:0000aea0       ??1?$map@KV?$map@KUPLAYERINFO@CChannelMgr@@U?$less@K@std@@V?$allocator@U?$pair@$$CBKUPLAYERINFO@CChannelMgr@@@std@@@4@@std@@U?$less@K@2@V?$allocator@U?$pair@$$CBKV?$map@KUPLAYERINFO@CChannelMgr@@U?$less@K@std@@V?$allocator@U?$pair@$$CBKUPLAYERINFO@CChannelMgr@@@std@@@4@@std@@@std@@@2@@std@@QAE@XZ 0040bea0 f i ChannelMgr.obj
 0001:0000aee0       ??0?$map@KV?$map@KUPLAYERINFO@CChannelMgr@@U?$less@K@std@@V?$allocator@U?$pair@$$CBKUPLAYERINFO@CChannelMgr@@@std@@@4@@std@@U?$less@K@2@V?$allocator@U?$pair@$$CBKV?$map@KUPLAYERINFO@CChannelMgr@@U?$less@K@std@@V?$allocator@U?$pair@$$CBKUPLAYERINFO@CChannelMgr@@@std@@@4@@std@@@std@@@2@@std@@QAE@XZ 0040bee0 f i ChannelMgr.obj
 0001:0000af10       ??0?$map@KV?$map@KUPLAYERINFO@CChannelMgr@@U?$less@K@std@@V?$allocator@U?$pair@$$CBKUPLAYERINFO@CChannelMgr@@@std@@@4@@std@@U?$less@K@2@V?$allocator@U?$pair@$$CBKV?$map@KUPLAYERINFO@CChannelMgr@@U?$less@K@std@@V?$allocator@U?$pair@$$CBKUPLAYERINFO@CChannelMgr@@@std@@@4@@std@@@std@@@2@@std@@QAE@ABV01@@Z 0040bf10 f i ChannelMgr.obj
 0001:0000af30       ??0CHANNINFO@CChannelMgr@@QAE@XZ 0040bf30 f i ChannelMgr.obj
 0001:0000afb0       ??1CHANNINFO@CChannelMgr@@QAE@XZ 0040bfb0 f i ChannelMgr.obj
 0001:0000b040       ??1?$pair@$$CBKUCHANNINFO@CChannelMgr@@@std@@QAE@XZ 0040c040 f i ChannelMgr.obj
 0001:0000b050       ??0CHANNINFO@CChannelMgr@@QAE@ABU01@@Z 0040c050 f i ChannelMgr.obj
 0001:0000b0f0       ??0?$pair@$$CBKUCHANNINFO@CChannelMgr@@@std@@QAE@ABU01@@Z 0040c0f0 f i ChannelMgr.obj
 0001:0000b110       ??1_Node@?$_Tree_nod@V?$_Tmap_traits@KUCHANNINFO@CChannelMgr@@U?$less@K@std@@V?$allocator@U?$pair@$$CBKUCHANNINFO@CChannelMgr@@@std@@@4@$0A@@std@@@std@@QAE@XZ 0040c110 f i ChannelMgr.obj
 0001:0000b120       ??0?$pair@$$CBKUCHANNINFO@CChannelMgr@@@std@@QAE@ABKABUCHANNINFO@CChannelMgr@@@Z 0040c120 f i ChannelMgr.obj
 0001:0000b140       ??0_Node@?$_Tree_nod@V?$_Tmap_traits@KUCHANNINFO@CChannelMgr@@U?$less@K@std@@V?$allocator@U?$pair@$$CBKUCHANNINFO@CChannelMgr@@@std@@@4@$0A@@std@@@std@@QAE@PAU012@00ABU?$pair@$$CBKUCHANNINFO@CChannelMgr@@@2@D@Z 0040c140 f i ChannelMgr.obj
 0001:0000b180       ??_G_Node@?$_Tree_nod@V?$_Tmap_traits@KUCHANNINFO@CChannelMgr@@U?$less@K@std@@V?$allocator@U?$pair@$$CBKUCHANNINFO@CChannelMgr@@@std@@@4@$0A@@std@@@std@@QAEPAXI@Z 0040c180 f i ChannelMgr.obj
 0001:0000b1b0       ?_Buynode@?$_Tree@V?$_Tmap_traits@KUCHANNINFO@CChannelMgr@@U?$less@K@std@@V?$allocator@U?$pair@$$CBKUCHANNINFO@CChannelMgr@@@std@@@4@$0A@@std@@@std@@IAEPAU_Node@?$_Tree_nod@V?$_Tmap_traits@KUCHANNINFO@CChannelMgr@@U?$less@K@std@@V?$allocator@U?$pair@$$CBKUCHANNINFO@CChannelMgr@@@std@@@4@$0A@@std@@@2@PAU342@00ABU?$pair@$$CBKUCHANNINFO@CChannelMgr@@@2@D@Z 0040c1b0 f i ChannelMgr.obj
 0001:0000b260       ??$_Destroy@U_Node@?$_Tree_nod@V?$_Tmap_traits@KUCHANNINFO@CChannelMgr@@U?$less@K@std@@V?$allocator@U?$pair@$$CBKUCHANNINFO@CChannelMgr@@@std@@@4@$0A@@std@@@std@@@std@@YAXPAU_Node@?$_Tree_nod@V?$_Tmap_traits@KUCHANNINFO@CChannelMgr@@U?$less@K@std@@V?$allocator@U?$pair@$$CBKUCHANNINFO@CChannelMgr@@@std@@@4@$0A@@std@@@0@@Z 0040c260 f i ChannelMgr.obj
 0001:0000b270       ?destroy@?$allocator@U_Node@?$_Tree_nod@V?$_Tmap_traits@KUCHANNINFO@CChannelMgr@@U?$less@K@std@@V?$allocator@U?$pair@$$CBKUCHANNINFO@CChannelMgr@@@std@@@4@$0A@@std@@@std@@@std@@QAEXPAU_Node@?$_Tree_nod@V?$_Tmap_traits@KUCHANNINFO@CChannelMgr@@U?$less@K@std@@V?$allocator@U?$pair@$$CBKUCHANNINFO@CChannelMgr@@@std@@@4@$0A@@std@@@2@@Z 0040c270 f i ChannelMgr.obj
 0001:0000b280       ?_Insert@?$_Tree@V?$_Tmap_traits@KUCHANNINFO@CChannelMgr@@U?$less@K@std@@V?$allocator@U?$pair@$$CBKUCHANNINFO@CChannelMgr@@@std@@@4@$0A@@std@@@std@@IAE?AViterator@12@_NPAU_Node@?$_Tree_nod@V?$_Tmap_traits@KUCHANNINFO@CChannelMgr@@U?$less@K@std@@V?$allocator@U?$pair@$$CBKUCHANNINFO@CChannelMgr@@@std@@@4@$0A@@std@@@2@ABU?$pair@$$CBKUCHANNINFO@CChannelMgr@@@2@@Z 0040c280 f i ChannelMgr.obj
 0001:0000b480       ?erase@?$_Tree@V?$_Tmap_traits@KUCHANNINFO@CChannelMgr@@U?$less@K@std@@V?$allocator@U?$pair@$$CBKUCHANNINFO@CChannelMgr@@@std@@@4@$0A@@std@@@std@@QAE?AViterator@12@V312@@Z 0040c480 f i ChannelMgr.obj
 0001:0000b750       ?_Erase@?$_Tree@V?$_Tmap_traits@KUCHANNINFO@CChannelMgr@@U?$less@K@std@@V?$allocator@U?$pair@$$CBKUCHANNINFO@CChannelMgr@@@std@@@4@$0A@@std@@@std@@IAEXPAU_Node@?$_Tree_nod@V?$_Tmap_traits@KUCHANNINFO@CChannelMgr@@U?$less@K@std@@V?$allocator@U?$pair@$$CBKUCHANNINFO@CChannelMgr@@@std@@@4@$0A@@std@@@2@@Z 0040c750 f i ChannelMgr.obj
 0001:0000b790       ?insert@?$_Tree@V?$_Tmap_traits@KUCHANNINFO@CChannelMgr@@U?$less@K@std@@V?$allocator@U?$pair@$$CBKUCHANNINFO@CChannelMgr@@@std@@@4@$0A@@std@@@std@@QAE?AU?$pair@Viterator@?$_Tree@V?$_Tmap_traits@KUCHANNINFO@CChannelMgr@@U?$less@K@std@@V?$allocator@U?$pair@$$CBKUCHANNINFO@CChannelMgr@@@std@@@4@$0A@@std@@@std@@_N@2@ABU?$pair@$$CBKUCHANNINFO@CChannelMgr@@@2@@Z 0040c790 f i ChannelMgr.obj
 0001:0000b850       ?GmFreeChannID@CChannelMgr@@QAEHK@Z 0040c850 f   ChannelMgr.obj
 0001:0000b910       ?Block_FreeChannID@CChannelMgr@@AAEHKKK@Z 0040c910 f   ChannelMgr.obj
 0001:0000ba80       ?Block_ClearPlayer@CChannelMgr@@AAEHKK@Z 0040ca80 f   ChannelMgr.obj
 0001:0000bc10       ?B_FreeChannID@CChannelMgr@@QAEHKKK@Z 0040cc10 f   ChannelMgr.obj
 0001:0000bc20       ?B_ClearPlayer@CChannelMgr@@QAEHKK@Z 0040cc20 f   ChannelMgr.obj
 0001:0000bc30       ?clear@?$_Tree@V?$_Tmap_traits@KUCHANNINFO@CChannelMgr@@U?$less@K@std@@V?$allocator@U?$pair@$$CBKUCHANNINFO@CChannelMgr@@@std@@@4@$0A@@std@@@std@@QAEXXZ 0040cc30 f i ChannelMgr.obj
 0001:0000bc60       ?insert@?$_Tree@V?$_Tmap_traits@KUCHANNINFO@CChannelMgr@@U?$less@K@std@@V?$allocator@U?$pair@$$CBKUCHANNINFO@CChannelMgr@@@std@@@4@$0A@@std@@@std@@QAE?AViterator@12@V312@ABU?$pair@$$CBKUCHANNINFO@CChannelMgr@@@2@@Z 0040cc60 f i ChannelMgr.obj
 0001:0000be20       ?erase@?$_Tree@V?$_Tmap_traits@KUCHANNINFO@CChannelMgr@@U?$less@K@std@@V?$allocator@U?$pair@$$CBKUCHANNINFO@CChannelMgr@@@std@@@4@$0A@@std@@@std@@QAE?AViterator@12@V312@0@Z 0040ce20 f i ChannelMgr.obj
 0001:0000bef0       ?Uninitialize@CChannelMgr@@QAEHXZ 0040cef0 f   ChannelMgr.obj
 0001:0000bf90       ??A?$map@KUCHANNINFO@CChannelMgr@@U?$less@K@std@@V?$allocator@U?$pair@$$CBKUCHANNINFO@CChannelMgr@@@std@@@4@@std@@QAEAAUCHANNINFO@CChannelMgr@@ABK@Z 0040cf90 f i ChannelMgr.obj
 0001:0000c0a0       ?_Tidy@?$_Tree@V?$_Tmap_traits@KUCHANNINFO@CChannelMgr@@U?$less@K@std@@V?$allocator@U?$pair@$$CBKUCHANNINFO@CChannelMgr@@@std@@@4@$0A@@std@@@std@@IAEXXZ 0040d0a0 f i ChannelMgr.obj
 0001:0000c0e0       ?Initialize@CChannelMgr@@QAEHXZ 0040d0e0 f   ChannelMgr.obj
 0001:0000c610       ?GmQueryChannelID@CChannelMgr@@QAEHABV?$basic_string@DU?$char_traits@D@std@@V?$allocator@D@2@@std@@H@Z 0040d610 f   ChannelMgr.obj
 0001:0000c7d0       ?Block_QueryChannelID@CChannelMgr@@AAEHABV?$basic_string@DU?$char_traits@D@std@@V?$allocator@D@2@@std@@KKK@Z 0040d7d0 f   ChannelMgr.obj
 0001:0000cb80       ?B_QueryChannelID@CChannelMgr@@QAEHABV?$basic_string@DU?$char_traits@D@std@@V?$allocator@D@2@@std@@KKK@Z 0040db80 f   ChannelMgr.obj
 0001:0000cb90       ??1?$_Tree@V?$_Tmap_traits@KUCHANNINFO@CChannelMgr@@U?$less@K@std@@V?$allocator@U?$pair@$$CBKUCHANNINFO@CChannelMgr@@@std@@@4@$0A@@std@@@std@@QAE@XZ 0040db90 f i ChannelMgr.obj
 0001:0000cbd0       ??1?$map@KUCHANNINFO@CChannelMgr@@U?$less@K@std@@V?$allocator@U?$pair@$$CBKUCHANNINFO@CChannelMgr@@@std@@@4@@std@@QAE@XZ 0040dbd0 f i ChannelMgr.obj
 0001:0000cc10       ??1CChannelMgr@@UAE@XZ     0040dc10 f   ChannelMgr.obj
 0001:0000cd10       ?DoBlockOp@CChannelMgr@@QAEKK@Z 0040dd10 f   ChannelMgr.obj
 0001:0000cd20       ??0?$map@KUCHANNINFO@CChannelMgr@@U?$less@K@std@@V?$allocator@U?$pair@$$CBKUCHANNINFO@CChannelMgr@@@std@@@4@@std@@QAE@XZ 0040dd20 f i ChannelMgr.obj
 0001:0000cd50       ??0CChannelMgr@@QAE@XZ     0040dd50 f   ChannelMgr.obj
 0001:0000ce70       ??_ECChannelMgr@@UAEPAXI@Z 0040de70 f i ChannelMgr.obj
 0001:0000ce70       ??_GCChannelMgr@@UAEPAXI@Z 0040de70 f i ChannelMgr.obj
 0001:0000ce90       ?GetIP@CNetConnect@@QBEKXZ 0040de90 f i ChatConnect.obj
 0001:0000cea0       ?_ip2a@@YAPBDK@Z           0040dea0 f i ChatConnect.obj
 0001:0000ceb0       ??0CChatConnect@@QAE@PAVCChatServer@@K@Z 0040deb0 f   ChatConnect.obj
 0001:0000cee0       ?BeginRoute@CNetConnect@@MAEXXZ 0040dee0 f i ChatConnect.obj
 0001:0000cef0       ?EndRoute@CNetConnect@@MAEXXZ 0040def0 f i ChatConnect.obj
 0001:0000cf00       ??1CChatConnect@@UAE@XZ    0040df00 f   ChatConnect.obj
 0001:0000cf20       ?OnClientConnectCreate@CChatConnect@@MAEXXZ 0040df20 f   ChatConnect.obj
 0001:0000cf40       ?OnClientConnectClose@CChatConnect@@MAEXXZ 0040df40 f   ChatConnect.obj
 0001:0000cf60       ?Proc0_SomeoneChat@CChatConnect@@AAEXPBXI@Z 0040df60 f   ChatConnect.obj
 0001:0000cf80       ?Proc0_ChannelChat@CChatConnect@@AAEXPBXI@Z 0040df80 f   ChatConnect.obj
 0001:0000cfa0       ?Proc0_GroupMan@CChatConnect@@AAEXPBXI@Z 0040dfa0 f   ChatConnect.obj
 0001:0000d0c0       ??_ECChatConnect@@UAEPAXI@Z 0040e0c0 f i ChatConnect.obj
 0001:0000d0c0       ??_GCChatConnect@@UAEPAXI@Z 0040e0c0 f i ChatConnect.obj
 0001:0000d0e0       ?RecvPackage@CChatConnect@@MAEXPBXI@Z 0040e0e0 f   ChatConnect.obj
 0001:0000d120       ?CreateConnect@CChatServer@@MAEPAVCNetConnect@@PAVCNetServer@@K@Z 0040e120 f   ChatServer.obj
 0001:0000d1a0       ?DestroyConnect@CChatServer@@MAEXPAVCNetConnect@@@Z 0040e1a0 f   ChatServer.obj
 0001:0000d1c0       ?size@?$_Tree@V?$_Tmap_traits@KPAVCChatConnect@@U?$less@K@std@@V?$allocator@U?$pair@$$CBKPAVCChatConnect@@@std@@@3@$0A@@std@@@std@@QBEIXZ 0040e1c0 f i ChatServer.obj
 0001:0000d1d0       ??8const_iterator@?$_Tree@V?$_Tmap_traits@KPAVCChatConnect@@U?$less@K@std@@V?$allocator@U?$pair@$$CBKPAVCChatConnect@@@std@@@3@$0A@@std@@@std@@QBE_NABV012@@Z 0040e1d0 f i ChatServer.obj
 0001:0000d200       ??9const_iterator@?$_Tree@V?$_Tmap_traits@KPAVCChatConnect@@U?$less@K@std@@V?$allocator@U?$pair@$$CBKPAVCChatConnect@@@std@@@3@$0A@@std@@@std@@QBE_NABV012@@Z 0040e200 f i ChatServer.obj
 0001:0000d230       ??0?$allocator@U?$pair@$$CBKPAVCChatConnect@@@std@@@std@@QAE@XZ 0040e230 f i ChatServer.obj
 0001:0000d240       ?_Mynode@const_iterator@?$_Tree@V?$_Tmap_traits@KPAVCChatConnect@@U?$less@K@std@@V?$allocator@U?$pair@$$CBKPAVCChatConnect@@@std@@@3@$0A@@std@@@std@@QBEPAU_Node@?$_Tree_nod@V?$_Tmap_traits@KPAVCChatConnect@@U?$less@K@std@@V?$allocator@U?$pair@$$CBKPAVCChatConnect@@@std@@@3@$0A@@std@@@3@XZ 0040e240 f i ChatServer.obj
 0001:0000d250       ??0?$pair@$$CBKPAVCChatConnect@@@std@@QAE@ABKABQAVCChatConnect@@@Z 0040e250 f i ChatServer.obj
 0001:0000d270       ?_Isnil@?$_Tree@V?$_Tmap_traits@KPAVCChatConnect@@U?$less@K@std@@V?$allocator@U?$pair@$$CBKPAVCChatConnect@@@std@@@3@$0A@@std@@@std@@KAAADPAU_Node@?$_Tree_nod@V?$_Tmap_traits@KPAVCChatConnect@@U?$less@K@std@@V?$allocator@U?$pair@$$CBKPAVCChatConnect@@@std@@@3@$0A@@std@@@2@@Z 0040e270 f i ChatServer.obj
 0001:0000d280       ?_Left@?$_Tree@V?$_Tmap_traits@KPAVCChatConnect@@U?$less@K@std@@V?$allocator@U?$pair@$$CBKPAVCChatConnect@@@std@@@3@$0A@@std@@@std@@KAAAPAU_Node@?$_Tree_nod@V?$_Tmap_traits@KPAVCChatConnect@@U?$less@K@std@@V?$allocator@U?$pair@$$CBKPAVCChatConnect@@@std@@@3@$0A@@std@@@2@PAU342@@Z 0040e280 f i ChatServer.obj
 0001:0000d290       ?_Parent@?$_Tree@V?$_Tmap_traits@KPAVCChatConnect@@U?$less@K@std@@V?$allocator@U?$pair@$$CBKPAVCChatConnect@@@std@@@3@$0A@@std@@@std@@KAAAPAU_Node@?$_Tree_nod@V?$_Tmap_traits@KPAVCChatConnect@@U?$less@K@std@@V?$allocator@U?$pair@$$CBKPAVCChatConnect@@@std@@@3@$0A@@std@@@2@PAU342@@Z 0040e290 f i ChatServer.obj
 0001:0000d2a0       ?_Right@?$_Tree@V?$_Tmap_traits@KPAVCChatConnect@@U?$less@K@std@@V?$allocator@U?$pair@$$CBKPAVCChatConnect@@@std@@@3@$0A@@std@@@std@@KAAAPAU_Node@?$_Tree_nod@V?$_Tmap_traits@KPAVCChatConnect@@U?$less@K@std@@V?$allocator@U?$pair@$$CBKPAVCChatConnect@@@std@@@3@$0A@@std@@@2@PAU342@@Z 0040e2a0 f i ChatServer.obj
 0001:0000d2b0       ?_Myval@?$_Tree@V?$_Tmap_traits@KPAVCChatConnect@@U?$less@K@std@@V?$allocator@U?$pair@$$CBKPAVCChatConnect@@@std@@@3@$0A@@std@@@std@@KAAAU?$pair@$$CBKPAVCChatConnect@@@2@PAU_Node@?$_Tree_nod@V?$_Tmap_traits@KPAVCChatConnect@@U?$less@K@std@@V?$allocator@U?$pair@$$CBKPAVCChatConnect@@@std@@@3@$0A@@std@@@2@@Z 0040e2b0 f i ChatServer.obj
 0001:0000d2c0       ??0KAutoLockRead@@QAE@AAVALock@@@Z 0040e2c0 f i ChatServer.obj
 0001:0000d2e0       ??1KAutoLockRead@@QAE@XZ   0040e2e0 f i ChatServer.obj
 0001:0000d2f0       ??0KAutoLockWrite@@QAE@AAVALock@@@Z 0040e2f0 f i ChatServer.obj
 0001:0000d310       ??1KAutoLockWrite@@QAE@XZ  0040e310 f i ChatServer.obj
 0001:0000d320       ?_Kfn@?$_Tmap_traits@KPAVCChatConnect@@U?$less@K@std@@V?$allocator@U?$pair@$$CBKPAVCChatConnect@@@std@@@3@$0A@@std@@SAABKABU?$pair@$$CBKPAVCChatConnect@@@2@@Z 0040e320 f i ChatServer.obj
 0001:0000d330       ??0?$allocator@U?$pair@$$CBKPAVCChatConnect@@@std@@@std@@QAE@ABV01@@Z 0040e330 f i ChatServer.obj
 0001:0000d340       ?deallocate@?$allocator@U_Node@?$_Tree_nod@V?$_Tmap_traits@KPAVCChatConnect@@U?$less@K@std@@V?$allocator@U?$pair@$$CBKPAVCChatConnect@@@std@@@3@$0A@@std@@@std@@@std@@QAEXPAU_Node@?$_Tree_nod@V?$_Tmap_traits@KPAVCChatConnect@@U?$less@K@std@@V?$allocator@U?$pair@$$CBKPAVCChatConnect@@@std@@@3@$0A@@std@@@2@I@Z 0040e340 f i ChatServer.obj
 0001:0000d350       ??0?$pair@Viterator@?$_Tree@V?$_Tmap_traits@KPAVCChatConnect@@U?$less@K@std@@V?$allocator@U?$pair@$$CBKPAVCChatConnect@@@std@@@3@$0A@@std@@@std@@V123@@std@@QAE@ABViterator@?$_Tree@V?$_Tmap_traits@KPAVCChatConnect@@U?$less@K@std@@V?$allocator@U?$pair@$$CBKPAVCChatConnect@@@std@@@3@$0A@@std@@@1@0@Z 0040e350 f i ChatServer.obj
 0001:0000d380       ?_Color@?$_Tree@V?$_Tmap_traits@KPAVCChatConnect@@U?$less@K@std@@V?$allocator@U?$pair@$$CBKPAVCChatConnect@@@std@@@3@$0A@@std@@@std@@KAAADPAU_Node@?$_Tree_nod@V?$_Tmap_traits@KPAVCChatConnect@@U?$less@K@std@@V?$allocator@U?$pair@$$CBKPAVCChatConnect@@@std@@@3@$0A@@std@@@2@@Z 0040e380 f i ChatServer.obj
 0001:0000d390       ?_Max@?$_Tree@V?$_Tmap_traits@KPAVCChatConnect@@U?$less@K@std@@V?$allocator@U?$pair@$$CBKPAVCChatConnect@@@std@@@3@$0A@@std@@@std@@KAPAU_Node@?$_Tree_nod@V?$_Tmap_traits@KPAVCChatConnect@@U?$less@K@std@@V?$allocator@U?$pair@$$CBKPAVCChatConnect@@@std@@@3@$0A@@std@@@2@PAU342@@Z 0040e390 f i ChatServer.obj
 0001:0000d3b0       ?_Min@?$_Tree@V?$_Tmap_traits@KPAVCChatConnect@@U?$less@K@std@@V?$allocator@U?$pair@$$CBKPAVCChatConnect@@@std@@@3@$0A@@std@@@std@@KAPAU_Node@?$_Tree_nod@V?$_Tmap_traits@KPAVCChatConnect@@U?$less@K@std@@V?$allocator@U?$pair@$$CBKPAVCChatConnect@@@std@@@3@$0A@@std@@@2@PAU342@@Z 0040e3b0 f i ChatServer.obj
 0001:0000d3d0       ?_Inc@const_iterator@?$_Tree@V?$_Tmap_traits@KPAVCChatConnect@@U?$less@K@std@@V?$allocator@U?$pair@$$CBKPAVCChatConnect@@@std@@@3@$0A@@std@@@std@@QAEXXZ 0040e3d0 f i ChatServer.obj
 0001:0000d440       ??0?$pair@Viterator@?$_Tree@V?$_Tmap_traits@KPAVCChatConnect@@U?$less@K@std@@V?$allocator@U?$pair@$$CBKPAVCChatConnect@@@std@@@3@$0A@@std@@@std@@_N@std@@QAE@ABViterator@?$_Tree@V?$_Tmap_traits@KPAVCChatConnect@@U?$less@K@std@@V?$allocator@U?$pair@$$CBKPAVCChatConnect@@@std@@@3@$0A@@std@@@1@AB_N@Z 0040e440 f i ChatServer.obj
 0001:0000d460       ?max_size@?$allocator@U?$pair@$$CBKPAVCChatConnect@@@std@@@std@@QBEIXZ 0040e460 f i ChatServer.obj
 0001:0000d470       ?_Dec@const_iterator@?$_Tree@V?$_Tmap_traits@KPAVCChatConnect@@U?$less@K@std@@V?$allocator@U?$pair@$$CBKPAVCChatConnect@@@std@@@3@$0A@@std@@@std@@QAEXXZ 0040e470 f i ChatServer.obj
 0001:0000d500       ??0_Node@?$_Tree_nod@V?$_Tmap_traits@KPAVCChatConnect@@U?$less@K@std@@V?$allocator@U?$pair@$$CBKPAVCChatConnect@@@std@@@3@$0A@@std@@@std@@QAE@PAU012@00ABU?$pair@$$CBKPAVCChatConnect@@@2@D@Z 0040e500 f i ChatServer.obj
 0001:0000d540       ??0?$_Tmap_traits@KPAVCChatConnect@@U?$less@K@std@@V?$allocator@U?$pair@$$CBKPAVCChatConnect@@@std@@@3@$0A@@std@@QAE@U?$less@K@1@@Z 0040e540 f i ChatServer.obj
 0001:0000d570       ??$_Destroy@U_Node@?$_Tree_nod@V?$_Tmap_traits@KPAVCChatConnect@@U?$less@K@std@@V?$allocator@U?$pair@$$CBKPAVCChatConnect@@@std@@@3@$0A@@std@@@std@@@std@@YAXPAU_Node@?$_Tree_nod@V?$_Tmap_traits@KPAVCChatConnect@@U?$less@K@std@@V?$allocator@U?$pair@$$CBKPAVCChatConnect@@@std@@@3@$0A@@std@@@0@@Z 0040e570 f i ChatServer.obj
 0001:0000d580       ??$_Destroy@PAU_Node@?$_Tree_nod@V?$_Tmap_traits@KPAVCChatConnect@@U?$less@K@std@@V?$allocator@U?$pair@$$CBKPAVCChatConnect@@@std@@@3@$0A@@std@@@std@@@std@@YAXPAPAU_Node@?$_Tree_nod@V?$_Tmap_traits@KPAVCChatConnect@@U?$less@K@std@@V?$allocator@U?$pair@$$CBKPAVCChatConnect@@@std@@@3@$0A@@std@@@0@@Z 0040e580 f i ChatServer.obj
 0001:0000d590       ??$?0U?$pair@$$CBKPAVCChatConnect@@@std@@@?$allocator@PAU_Node@?$_Tree_nod@V?$_Tmap_traits@KPAVCChatConnect@@U?$less@K@std@@V?$allocator@U?$pair@$$CBKPAVCChatConnect@@@std@@@3@$0A@@std@@@std@@@std@@QAE@ABV?$allocator@U?$pair@$$CBKPAVCChatConnect@@@std@@@1@@Z 0040e590 f i ChatServer.obj
 0001:0000d5a0       ??$?0U?$pair@$$CBKPAVCChatConnect@@@std@@@?$allocator@U_Node@?$_Tree_nod@V?$_Tmap_traits@KPAVCChatConnect@@U?$less@K@std@@V?$allocator@U?$pair@$$CBKPAVCChatConnect@@@std@@@3@$0A@@std@@@std@@@std@@QAE@ABV?$allocator@U?$pair@$$CBKPAVCChatConnect@@@std@@@1@@Z 0040e5a0 f i ChatServer.obj
 0001:0000d5b0       ??$_Allocate@U_Node@?$_Tree_nod@V?$_Tmap_traits@KPAVCChatConnect@@U?$less@K@std@@V?$allocator@U?$pair@$$CBKPAVCChatConnect@@@std@@@3@$0A@@std@@@std@@@std@@YAPAU_Node@?$_Tree_nod@V?$_Tmap_traits@KPAVCChatConnect@@U?$less@K@std@@V?$allocator@U?$pair@$$CBKPAVCChatConnect@@@std@@@3@$0A@@std@@@0@IPAU120@@Z 0040e5b0 f i ChatServer.obj
 0001:0000d610       ??$_Construct@PAU_Node@?$_Tree_nod@V?$_Tmap_traits@KPAVCChatConnect@@U?$less@K@std@@V?$allocator@U?$pair@$$CBKPAVCChatConnect@@@std@@@3@$0A@@std@@@std@@PAU123@@std@@YAXPAPAU_Node@?$_Tree_nod@V?$_Tmap_traits@KPAVCChatConnect@@U?$less@K@std@@V?$allocator@U?$pair@$$CBKPAVCChatConnect@@@std@@@3@$0A@@std@@@0@ABQAU120@@Z 0040e610 f i ChatServer.obj
 0001:0000d630       ??$_Iter_cat@Viterator@?$_Tree@V?$_Tmap_traits@KPAVCChatConnect@@U?$less@K@std@@V?$allocator@U?$pair@$$CBKPAVCChatConnect@@@std@@@3@$0A@@std@@@std@@@std@@YA?AUbidirectional_iterator_tag@0@ABViterator@?$_Tree@V?$_Tmap_traits@KPAVCChatConnect@@U?$less@K@std@@V?$allocator@U?$pair@$$CBKPAVCChatConnect@@@std@@@3@$0A@@std@@@0@@Z 0040e630 f i ChatServer.obj
 0001:0000d640       ?OnBuildup@CChatServer@@MAEXXZ 0040e640 f   ChatServer.obj
 0001:0000d6b0       ?_Key@?$_Tree@V?$_Tmap_traits@KPAVCChatConnect@@U?$less@K@std@@V?$allocator@U?$pair@$$CBKPAVCChatConnect@@@std@@@3@$0A@@std@@@std@@KAABKPAU_Node@?$_Tree_nod@V?$_Tmap_traits@KPAVCChatConnect@@U?$less@K@std@@V?$allocator@U?$pair@$$CBKPAVCChatConnect@@@std@@@3@$0A@@std@@@2@@Z 0040e6b0 f i ChatServer.obj
 0001:0000d6c0       ?_Lmost@?$_Tree@V?$_Tmap_traits@KPAVCChatConnect@@U?$less@K@std@@V?$allocator@U?$pair@$$CBKPAVCChatConnect@@@std@@@3@$0A@@std@@@std@@IBEAAPAU_Node@?$_Tree_nod@V?$_Tmap_traits@KPAVCChatConnect@@U?$less@K@std@@V?$allocator@U?$pair@$$CBKPAVCChatConnect@@@std@@@3@$0A@@std@@@2@XZ 0040e6c0 f i ChatServer.obj
 0001:0000d6d0       ?_Rmost@?$_Tree@V?$_Tmap_traits@KPAVCChatConnect@@U?$less@K@std@@V?$allocator@U?$pair@$$CBKPAVCChatConnect@@@std@@@3@$0A@@std@@@std@@IBEAAPAU_Node@?$_Tree_nod@V?$_Tmap_traits@KPAVCChatConnect@@U?$less@K@std@@V?$allocator@U?$pair@$$CBKPAVCChatConnect@@@std@@@3@$0A@@std@@@2@XZ 0040e6d0 f i ChatServer.obj
 0001:0000d6e0       ?_Root@?$_Tree@V?$_Tmap_traits@KPAVCChatConnect@@U?$less@K@std@@V?$allocator@U?$pair@$$CBKPAVCChatConnect@@@std@@@3@$0A@@std@@@std@@IBEAAPAU_Node@?$_Tree_nod@V?$_Tmap_traits@KPAVCChatConnect@@U?$less@K@std@@V?$allocator@U?$pair@$$CBKPAVCChatConnect@@@std@@@3@$0A@@std@@@2@XZ 0040e6e0 f i ChatServer.obj
 0001:0000d6f0       ??Dconst_iterator@?$_Tree@V?$_Tmap_traits@KPAVCChatConnect@@U?$less@K@std@@V?$allocator@U?$pair@$$CBKPAVCChatConnect@@@std@@@3@$0A@@std@@@std@@QBEABU?$pair@$$CBKPAVCChatConnect@@@2@XZ 0040e6f0 f i ChatServer.obj
 0001:0000d720       ?_Lbound@?$_Tree@V?$_Tmap_traits@KPAVCChatConnect@@U?$less@K@std@@V?$allocator@U?$pair@$$CBKPAVCChatConnect@@@std@@@3@$0A@@std@@@std@@IBEPAU_Node@?$_Tree_nod@V?$_Tmap_traits@KPAVCChatConnect@@U?$less@K@std@@V?$allocator@U?$pair@$$CBKPAVCChatConnect@@@std@@@3@$0A@@std@@@2@ABK@Z 0040e720 f i ChatServer.obj
 0001:0000d750       ?destroy@?$allocator@U_Node@?$_Tree_nod@V?$_Tmap_traits@KPAVCChatConnect@@U?$less@K@std@@V?$allocator@U?$pair@$$CBKPAVCChatConnect@@@std@@@3@$0A@@std@@@std@@@std@@QAEXPAU_Node@?$_Tree_nod@V?$_Tmap_traits@KPAVCChatConnect@@U?$less@K@std@@V?$allocator@U?$pair@$$CBKPAVCChatConnect@@@std@@@3@$0A@@std@@@2@@Z 0040e750 f i ChatServer.obj
 0001:0000d760       ?destroy@?$allocator@PAU_Node@?$_Tree_nod@V?$_Tmap_traits@KPAVCChatConnect@@U?$less@K@std@@V?$allocator@U?$pair@$$CBKPAVCChatConnect@@@std@@@3@$0A@@std@@@std@@@std@@QAEXPAPAU_Node@?$_Tree_nod@V?$_Tmap_traits@KPAVCChatConnect@@U?$less@K@std@@V?$allocator@U?$pair@$$CBKPAVCChatConnect@@@std@@@3@$0A@@std@@@2@@Z 0040e760 f i ChatServer.obj
 0001:0000d770       ??Econst_iterator@?$_Tree@V?$_Tmap_traits@KPAVCChatConnect@@U?$less@K@std@@V?$allocator@U?$pair@$$CBKPAVCChatConnect@@@std@@@3@$0A@@std@@@std@@QAEAAV012@XZ 0040e770 f i ChatServer.obj
 0001:0000d780       ??0?$_Bidit@U?$pair@$$CBKPAVCChatConnect@@@std@@HPBU12@ABU12@@std@@QAE@XZ 0040e780 f i ChatServer.obj
 0001:0000d790       ?max_size@?$_Tree@V?$_Tmap_traits@KPAVCChatConnect@@U?$less@K@std@@V?$allocator@U?$pair@$$CBKPAVCChatConnect@@@std@@@3@$0A@@std@@@std@@QBEIXZ 0040e790 f i ChatServer.obj
 0001:0000d7a0       ?_Lrotate@?$_Tree@V?$_Tmap_traits@KPAVCChatConnect@@U?$less@K@std@@V?$allocator@U?$pair@$$CBKPAVCChatConnect@@@std@@@3@$0A@@std@@@std@@IAEXPAU_Node@?$_Tree_nod@V?$_Tmap_traits@KPAVCChatConnect@@U?$less@K@std@@V?$allocator@U?$pair@$$CBKPAVCChatConnect@@@std@@@3@$0A@@std@@@2@@Z 0040e7a0 f i ChatServer.obj
 0001:0000d7f0       ?_Rrotate@?$_Tree@V?$_Tmap_traits@KPAVCChatConnect@@U?$less@K@std@@V?$allocator@U?$pair@$$CBKPAVCChatConnect@@@std@@@3@$0A@@std@@@std@@IAEXPAU_Node@?$_Tree_nod@V?$_Tmap_traits@KPAVCChatConnect@@U?$less@K@std@@V?$allocator@U?$pair@$$CBKPAVCChatConnect@@@std@@@3@$0A@@std@@@2@@Z 0040e7f0 f i ChatServer.obj
 0001:0000d850       ?_Ubound@?$_Tree@V?$_Tmap_traits@KPAVCChatConnect@@U?$less@K@std@@V?$allocator@U?$pair@$$CBKPAVCChatConnect@@@std@@@3@$0A@@std@@@std@@IBEPAU_Node@?$_Tree_nod@V?$_Tmap_traits@KPAVCChatConnect@@U?$less@K@std@@V?$allocator@U?$pair@$$CBKPAVCChatConnect@@@std@@@3@$0A@@std@@@2@ABK@Z 0040e850 f i ChatServer.obj
 0001:0000d880       ??0const_iterator@?$_Tree@V?$_Tmap_traits@KPAVCChatConnect@@U?$less@K@std@@V?$allocator@U?$pair@$$CBKPAVCChatConnect@@@std@@@3@$0A@@std@@@std@@QAE@XZ 0040e880 f i ChatServer.obj
 0001:0000d890       ??Fconst_iterator@?$_Tree@V?$_Tmap_traits@KPAVCChatConnect@@U?$less@K@std@@V?$allocator@U?$pair@$$CBKPAVCChatConnect@@@std@@@3@$0A@@std@@@std@@QAEAAV012@XZ 0040e890 f i ChatServer.obj
 0001:0000d8a0       ??0?$_Tree_nod@V?$_Tmap_traits@KPAVCChatConnect@@U?$less@K@std@@V?$allocator@U?$pair@$$CBKPAVCChatConnect@@@std@@@3@$0A@@std@@@std@@IAE@ABU?$less@K@1@V?$allocator@U?$pair@$$CBKPAVCChatConnect@@@std@@@1@@Z 0040e8a0 f i ChatServer.obj
 0001:0000d8b0       ?allocate@?$allocator@U_Node@?$_Tree_nod@V?$_Tmap_traits@KPAVCChatConnect@@U?$less@K@std@@V?$allocator@U?$pair@$$CBKPAVCChatConnect@@@std@@@3@$0A@@std@@@std@@@std@@QAEPAU_Node@?$_Tree_nod@V?$_Tmap_traits@KPAVCChatConnect@@U?$less@K@std@@V?$allocator@U?$pair@$$CBKPAVCChatConnect@@@std@@@3@$0A@@std@@@2@I@Z 0040e8b0 f i ChatServer.obj
 0001:0000d8d0       ?construct@?$allocator@PAU_Node@?$_Tree_nod@V?$_Tmap_traits@KPAVCChatConnect@@U?$less@K@std@@V?$allocator@U?$pair@$$CBKPAVCChatConnect@@@std@@@3@$0A@@std@@@std@@@std@@QAEXPAPAU_Node@?$_Tree_nod@V?$_Tmap_traits@KPAVCChatConnect@@U?$less@K@std@@V?$allocator@U?$pair@$$CBKPAVCChatConnect@@@std@@@3@$0A@@std@@@2@ABQAU342@@Z 0040e8d0 f i ChatServer.obj
 0001:0000d8f0       ??Diterator@?$_Tree@V?$_Tmap_traits@KPAVCChatConnect@@U?$less@K@std@@V?$allocator@U?$pair@$$CBKPAVCChatConnect@@@std@@@3@$0A@@std@@@std@@QBEAAU?$pair@$$CBKPAVCChatConnect@@@2@XZ 0040e8f0 f i ChatServer.obj
 0001:0000d920       ?_Erase@?$_Tree@V?$_Tmap_traits@KPAVCChatConnect@@U?$less@K@std@@V?$allocator@U?$pair@$$CBKPAVCChatConnect@@@std@@@3@$0A@@std@@@std@@IAEXPAU_Node@?$_Tree_nod@V?$_Tmap_traits@KPAVCChatConnect@@U?$less@K@std@@V?$allocator@U?$pair@$$CBKPAVCChatConnect@@@std@@@3@$0A@@std@@@2@@Z 0040e920 f i ChatServer.obj
 0001:0000d960       ??Eiterator@?$_Tree@V?$_Tmap_traits@KPAVCChatConnect@@U?$less@K@std@@V?$allocator@U?$pair@$$CBKPAVCChatConnect@@@std@@@3@$0A@@std@@@std@@QAEAAV012@XZ 0040e960 f i ChatServer.obj
 0001:0000d970       ??0iterator@?$_Tree@V?$_Tmap_traits@KPAVCChatConnect@@U?$less@K@std@@V?$allocator@U?$pair@$$CBKPAVCChatConnect@@@std@@@3@$0A@@std@@@std@@QAE@XZ 0040e970 f i ChatServer.obj
 0001:0000d980       ??Fiterator@?$_Tree@V?$_Tmap_traits@KPAVCChatConnect@@U?$less@K@std@@V?$allocator@U?$pair@$$CBKPAVCChatConnect@@@std@@@3@$0A@@std@@@std@@QAEAAV012@XZ 0040e980 f i ChatServer.obj
 0001:0000d990       ??0const_iterator@?$_Tree@V?$_Tmap_traits@KPAVCChatConnect@@U?$less@K@std@@V?$allocator@U?$pair@$$CBKPAVCChatConnect@@@std@@@3@$0A@@std@@@std@@QAE@PAU_Node@?$_Tree_nod@V?$_Tmap_traits@KPAVCChatConnect@@U?$less@K@std@@V?$allocator@U?$pair@$$CBKPAVCChatConnect@@@std@@@3@$0A@@std@@@2@PBV12@@Z 0040e990 f i ChatServer.obj
 0001:0000d9c0       ?_Buynode@?$_Tree@V?$_Tmap_traits@KPAVCChatConnect@@U?$less@K@std@@V?$allocator@U?$pair@$$CBKPAVCChatConnect@@@std@@@3@$0A@@std@@@std@@IAEPAU_Node@?$_Tree_nod@V?$_Tmap_traits@KPAVCChatConnect@@U?$less@K@std@@V?$allocator@U?$pair@$$CBKPAVCChatConnect@@@std@@@3@$0A@@std@@@2@XZ 0040e9c0 f i ChatServer.obj
 0001:0000da00       ?_Buynode@?$_Tree@V?$_Tmap_traits@KPAVCChatConnect@@U?$less@K@std@@V?$allocator@U?$pair@$$CBKPAVCChatConnect@@@std@@@3@$0A@@std@@@std@@IAEPAU_Node@?$_Tree_nod@V?$_Tmap_traits@KPAVCChatConnect@@U?$less@K@std@@V?$allocator@U?$pair@$$CBKPAVCChatConnect@@@std@@@3@$0A@@std@@@2@PAU342@00ABU?$pair@$$CBKPAVCChatConnect@@@2@D@Z 0040ea00 f i ChatServer.obj
 0001:0000da40       ??0?$_Tree_ptr@V?$_Tmap_traits@KPAVCChatConnect@@U?$less@K@std@@V?$allocator@U?$pair@$$CBKPAVCChatConnect@@@std@@@3@$0A@@std@@@std@@IAE@ABU?$less@K@1@V?$allocator@U?$pair@$$CBKPAVCChatConnect@@@std@@@1@@Z 0040ea40 f i ChatServer.obj
 0001:0000da50       ??$_Distance2@Viterator@?$_Tree@V?$_Tmap_traits@KPAVCChatConnect@@U?$less@K@std@@V?$allocator@U?$pair@$$CBKPAVCChatConnect@@@std@@@3@$0A@@std@@@std@@I@std@@YAXViterator@?$_Tree@V?$_Tmap_traits@KPAVCChatConnect@@U?$less@K@std@@V?$allocator@U?$pair@$$CBKPAVCChatConnect@@@std@@@3@$0A@@std@@@0@0AAIUbidirectional_iterator_tag@0@@Z 0040ea50 f i ChatServer.obj
 0001:0000da90       ?clear@?$_Tree@V?$_Tmap_traits@KPAVCChatConnect@@U?$less@K@std@@V?$allocator@U?$pair@$$CBKPAVCChatConnect@@@std@@@3@$0A@@std@@@std@@QAEXXZ 0040ea90 f i ChatServer.obj
 0001:0000dac0       ??Eiterator@?$_Tree@V?$_Tmap_traits@KPAVCChatConnect@@U?$less@K@std@@V?$allocator@U?$pair@$$CBKPAVCChatConnect@@@std@@@3@$0A@@std@@@std@@QAE?AV012@H@Z 0040eac0 f i ChatServer.obj
 0001:0000dae0       ??0iterator@?$_Tree@V?$_Tmap_traits@KPAVCChatConnect@@U?$less@K@std@@V?$allocator@U?$pair@$$CBKPAVCChatConnect@@@std@@@3@$0A@@std@@@std@@QAE@PAU_Node@?$_Tree_nod@V?$_Tmap_traits@KPAVCChatConnect@@U?$less@K@std@@V?$allocator@U?$pair@$$CBKPAVCChatConnect@@@std@@@3@$0A@@std@@@2@PBV12@@Z 0040eae0 f i ChatServer.obj
 0001:0000db10       ?upper_bound@?$_Tree@V?$_Tmap_traits@KPAVCChatConnect@@U?$less@K@std@@V?$allocator@U?$pair@$$CBKPAVCChatConnect@@@std@@@3@$0A@@std@@@std@@QAE?AViterator@12@ABK@Z 0040eb10 f i ChatServer.obj
 0001:0000db50       ?_Init@?$_Tree@V?$_Tmap_traits@KPAVCChatConnect@@U?$less@K@std@@V?$allocator@U?$pair@$$CBKPAVCChatConnect@@@std@@@3@$0A@@std@@@std@@IAEXXZ 0040eb50 f i ChatServer.obj
 0001:0000db80       ??0?$_Tree_val@V?$_Tmap_traits@KPAVCChatConnect@@U?$less@K@std@@V?$allocator@U?$pair@$$CBKPAVCChatConnect@@@std@@@3@$0A@@std@@@std@@IAE@ABU?$less@K@1@V?$allocator@U?$pair@$$CBKPAVCChatConnect@@@std@@@1@@Z 0040eb80 f i ChatServer.obj
 0001:0000db90       ??$_Distance@Viterator@?$_Tree@V?$_Tmap_traits@KPAVCChatConnect@@U?$less@K@std@@V?$allocator@U?$pair@$$CBKPAVCChatConnect@@@std@@@3@$0A@@std@@@std@@I@std@@YAXViterator@?$_Tree@V?$_Tmap_traits@KPAVCChatConnect@@U?$less@K@std@@V?$allocator@U?$pair@$$CBKPAVCChatConnect@@@std@@@3@$0A@@std@@@0@0AAI@Z 0040eb90 f i ChatServer.obj
 0001:0000dbc0       ?OnClearup@CChatServer@@MAEXXZ 0040ebc0 f   ChatServer.obj
 0001:0000dc60       ?begin@?$_Tree@V?$_Tmap_traits@KPAVCChatConnect@@U?$less@K@std@@V?$allocator@U?$pair@$$CBKPAVCChatConnect@@@std@@@3@$0A@@std@@@std@@QAE?AViterator@12@XZ 0040ec60 f i ChatServer.obj
 0001:0000dc80       ?end@?$_Tree@V?$_Tmap_traits@KPAVCChatConnect@@U?$less@K@std@@V?$allocator@U?$pair@$$CBKPAVCChatConnect@@@std@@@3@$0A@@std@@@std@@QAE?AViterator@12@XZ 0040ec80 f i ChatServer.obj
 0001:0000dc90       ??0?$_Tree@V?$_Tmap_traits@KPAVCChatConnect@@U?$less@K@std@@V?$allocator@U?$pair@$$CBKPAVCChatConnect@@@std@@@3@$0A@@std@@@std@@QAE@ABU?$less@K@1@ABV?$allocator@U?$pair@$$CBKPAVCChatConnect@@@std@@@1@@Z 0040ec90 f i ChatServer.obj
 0001:0000dcc0       ?lower_bound@?$_Tree@V?$_Tmap_traits@KPAVCChatConnect@@U?$less@K@std@@V?$allocator@U?$pair@$$CBKPAVCChatConnect@@@std@@@3@$0A@@std@@@std@@QAE?AViterator@12@ABK@Z 0040ecc0 f i ChatServer.obj
 0001:0000dd00       ?equal_range@?$_Tree@V?$_Tmap_traits@KPAVCChatConnect@@U?$less@K@std@@V?$allocator@U?$pair@$$CBKPAVCChatConnect@@@std@@@3@$0A@@std@@@std@@QAE?AU?$pair@Viterator@?$_Tree@V?$_Tmap_traits@KPAVCChatConnect@@U?$less@K@std@@V?$allocator@U?$pair@$$CBKPAVCChatConnect@@@std@@@3@$0A@@std@@@std@@V123@@2@ABK@Z 0040ed00 f i ChatServer.obj
 0001:0000dd60       ?find@?$_Tree@V?$_Tmap_traits@KPAVCChatConnect@@U?$less@K@std@@V?$allocator@U?$pair@$$CBKPAVCChatConnect@@@std@@@3@$0A@@std@@@std@@QAE?AViterator@12@ABK@Z 0040ed60 f i ChatServer.obj
 0001:0000ddd0       ?FindChatConnectByIP@CChatServer@@QAE?AVCNetConnectDup@@K@Z 0040edd0 f   ChatServer.obj
 0001:0000ded0       ?TraceInfo@CChatServer@@QAEHXZ 0040eed0 f   ChatServer.obj
 0001:0000e0d0       ?erase@?$_Tree@V?$_Tmap_traits@KPAVCChatConnect@@U?$less@K@std@@V?$allocator@U?$pair@$$CBKPAVCChatConnect@@@std@@@3@$0A@@std@@@std@@QAE?AViterator@12@V312@@Z 0040f0d0 f i ChatServer.obj
 0001:0000e390       ?_Insert@?$_Tree@V?$_Tmap_traits@KPAVCChatConnect@@U?$less@K@std@@V?$allocator@U?$pair@$$CBKPAVCChatConnect@@@std@@@3@$0A@@std@@@std@@IAE?AViterator@12@_NPAU_Node@?$_Tree_nod@V?$_Tmap_traits@KPAVCChatConnect@@U?$less@K@std@@V?$allocator@U?$pair@$$CBKPAVCChatConnect@@@std@@@3@$0A@@std@@@2@ABU?$pair@$$CBKPAVCChatConnect@@@2@@Z 0040f390 f i ChatServer.obj
 0001:0000e590       ?erase@?$_Tree@V?$_Tmap_traits@KPAVCChatConnect@@U?$less@K@std@@V?$allocator@U?$pair@$$CBKPAVCChatConnect@@@std@@@3@$0A@@std@@@std@@QAE?AViterator@12@V312@0@Z 0040f590 f i ChatServer.obj
 0001:0000e660       ?_Tidy@?$_Tree@V?$_Tmap_traits@KPAVCChatConnect@@U?$less@K@std@@V?$allocator@U?$pair@$$CBKPAVCChatConnect@@@std@@@3@$0A@@std@@@std@@IAEXXZ 0040f660 f i ChatServer.obj
 0001:0000e6a0       ?insert@?$_Tree@V?$_Tmap_traits@KPAVCChatConnect@@U?$less@K@std@@V?$allocator@U?$pair@$$CBKPAVCChatConnect@@@std@@@3@$0A@@std@@@std@@QAE?AU?$pair@Viterator@?$_Tree@V?$_Tmap_traits@KPAVCChatConnect@@U?$less@K@std@@V?$allocator@U?$pair@$$CBKPAVCChatConnect@@@std@@@3@$0A@@std@@@std@@_N@2@ABU?$pair@$$CBKPAVCChatConnect@@@2@@Z 0040f6a0 f i ChatServer.obj
 0001:0000e760       ??1?$_Tree@V?$_Tmap_traits@KPAVCChatConnect@@U?$less@K@std@@V?$allocator@U?$pair@$$CBKPAVCChatConnect@@@std@@@3@$0A@@std@@@std@@QAE@XZ 0040f760 f i ChatServer.obj
 0001:0000e7a0       ?erase@?$_Tree@V?$_Tmap_traits@KPAVCChatConnect@@U?$less@K@std@@V?$allocator@U?$pair@$$CBKPAVCChatConnect@@@std@@@3@$0A@@std@@@std@@QAEIABK@Z 0040f7a0 f i ChatServer.obj
 0001:0000e810       ?insert@?$_Tree@V?$_Tmap_traits@KPAVCChatConnect@@U?$less@K@std@@V?$allocator@U?$pair@$$CBKPAVCChatConnect@@@std@@@3@$0A@@std@@@std@@QAE?AViterator@12@V312@ABU?$pair@$$CBKPAVCChatConnect@@@2@@Z 0040f810 f i ChatServer.obj
 0001:0000e9d0       ??1?$map@KPAVCChatConnect@@U?$less@K@std@@V?$allocator@U?$pair@$$CBKPAVCChatConnect@@@std@@@3@@std@@QAE@XZ 0040f9d0 f i ChatServer.obj
 0001:0000ea10       ??1CChatServer@@UAE@XZ     0040fa10 f   ChatServer.obj
 0001:0000eab0       ?OnClientConnectClose@CChatServer@@MAEXPAVCNetConnect@@@Z 0040fab0 f   ChatServer.obj
 0001:0000eb30       ??0?$map@KPAVCChatConnect@@U?$less@K@std@@V?$allocator@U?$pair@$$CBKPAVCChatConnect@@@std@@@3@@std@@QAE@XZ 0040fb30 f i ChatServer.obj
 0001:0000eb60       ??A?$map@KPAVCChatConnect@@U?$less@K@std@@V?$allocator@U?$pair@$$CBKPAVCChatConnect@@@std@@@3@@std@@QAEAAPAVCChatConnect@@ABK@Z 0040fb60 f i ChatServer.obj
 0001:0000ebe0       ??0CChatServer@@QAE@XZ     0040fbe0 f   ChatServer.obj
 0001:0000ec70       ??_ECChatServer@@UAEPAXI@Z 0040fc70 f i ChatServer.obj
 0001:0000ec70       ??_GCChatServer@@UAEPAXI@Z 0040fc70 f i ChatServer.obj
 0001:0000ec90       ?OnClientConnectCreate@CChatServer@@MAEXPAVCNetConnect@@@Z 0040fc90 f   ChatServer.obj
 0001:0000ed10       ?GetSvrIP@CNetClient@@QBEKXZ 0040fd10 f i DBConnect.obj
 0001:0000ed20       ??0CDBCenter@@QAE@XZ       0040fd20 f   DBConnect.obj
 0001:0000ed40       ?OnBuildup@CNetCenter@@MAEXXZ 0040fd40 f i DBConnect.obj
 0001:0000ed50       ?OnClearup@CNetCenter@@MAEXXZ 0040fd50 f i DBConnect.obj
 0001:0000ed60       ?OnServerEventCreate@CNetCenter@@MAEXPAVCNetClient@@@Z 0040fd60 f i DBConnect.obj
 0001:0000ed70       ?OnServerEventClose@CNetCenter@@MAEXPAVCNetClient@@@Z 0040fd70 f i DBConnect.obj
 0001:0000ed80       ??1CDBCenter@@UAE@XZ       0040fd80 f   DBConnect.obj
 0001:0000ed90       ??0CDBClient@@QAE@PAVCDBCenter@@H@Z 0040fd90 f   DBConnect.obj
 0001:0000edb0       ?OnStartupFail@CNetClient@@MAEXXZ 0040fdb0 f i DBConnect.obj
 0001:0000edc0       ?OnShutdownFail@CNetClient@@MAEXXZ 0040fdc0 f i DBConnect.obj
 0001:0000edd0       ?BeginRoute@CNetClient@@MAEXXZ 0040fdd0 f i DBConnect.obj
 0001:0000ede0       ?EndRoute@CNetClient@@MAEXXZ 0040fde0 f i DBConnect.obj
 0001:0000edf0       ?DeleteThis@CNetClient@@MAEXXZ 0040fdf0 f i DBConnect.obj
 0001:0000ee00       ??1CDBClient@@UAE@XZ       0040fe00 f   DBConnect.obj
 0001:0000ee10       ?OnServerEventCreate@CDBClient@@MAEXXZ 0040fe10 f   DBConnect.obj
 0001:0000ee40       ?OnServerEventClose@CDBClient@@MAEXXZ 0040fe40 f   DBConnect.obj
 0001:0000ee60       ?RecvPackage@CDBClient@@MAEXPBXI@Z 0040fe60 f   DBConnect.obj
 0001:0000ef70       ??_GCDBCenter@@UAEPAXI@Z   0040ff70 f i DBConnect.obj
 0001:0000ef70       ??_ECDBCenter@@UAEPAXI@Z   0040ff70 f i DBConnect.obj
 0001:0000ef90       ??_GCDBClient@@UAEPAXI@Z   0040ff90 f i DBConnect.obj
 0001:0000ef90       ??_ECDBClient@@UAEPAXI@Z   0040ff90 f i DBConnect.obj
 0001:0000efb0       ?TraceInfo@CDBCenter@@QAEHXZ 0040ffb0 f   DBConnect.obj
 0001:0000f110       ??0ZDBTable@@QAE@PBD0@Z    00410110 f   DBTable.obj
 0001:0000f210       ??1ZDBTable@@UAE@XZ        00410210 f   DBTable.obj
 0001:0000f230       ?addIndex@ZDBTable@@QAEHP6AHPAU__db@@PBU__db_dbt@@1PAU3@@Z_N@Z 00410230 f   DBTable.obj
 0001:0000f280       ?open@ZDBTable@@QAE_NXZ    00410280 f   DBTable.obj
 0001:0000f450       ?close@ZDBTable@@QAEXXZ    00410450 f   DBTable.obj
 0001:0000f4b0       ?commit@ZDBTable@@QAE_NXZ  004104b0 f   DBTable.obj
 0001:0000f4c0       ?add@ZDBTable@@QAE_NPBDH0H@Z 004104c0 f   DBTable.obj
 0001:0000f540       ?remove@ZDBTable@@QAE_NPBDHH@Z 00410540 f   DBTable.obj
 0001:0000f590       ?_search@ZDBTable@@IAEPAD_NPBDHAAHH@Z 00410590 f   DBTable.obj
 0001:0000f7b0       ?_next@ZDBTable@@IAEPAD_NAAH@Z 004107b0 f   DBTable.obj
 0001:0000f900       ?GetRecord@ZDBTable@@QAEPADAAHW4CursorPointer@1@H@Z 00410900 f   DBTable.obj
 0001:0000f9e0       ?GetRecord_key@ZDBTable@@QAEPADAAHW4CursorPointer@1@H@Z 004109e0 f   DBTable.obj
 0001:0000fac0       ?GetRecordEx@ZDBTable@@QAE_NPADAAH01W4CursorPointer@1@H@Z 00410ac0 f   DBTable.obj
 0001:0000fbb0       ??0CDBTableReadOnly@@QAE@PBD0@Z 00410bb0 f   DBTable.obj
 0001:0000fcb0       ??1CDBTableReadOnly@@UAE@XZ 00410cb0 f   DBTable.obj
 0001:0000fcd0       ?open@CDBTableReadOnly@@QAE_NXZ 00410cd0 f   DBTable.obj
 0001:0000fd30       ?close@CDBTableReadOnly@@QAEXXZ 00410d30 f   DBTable.obj
 0001:0000fd50       ?_search@CDBTableReadOnly@@IAEPAD_NPBDHAAH@Z 00410d50 f   DBTable.obj
 0001:0000fe40       ?_next@CDBTableReadOnly@@IAEPAD_NAAH@Z 00410e40 f   DBTable.obj
 0001:0000ff80       ?GetRecord@CDBTableReadOnly@@QAEPADAAHW4CursorPointer@1@@Z 00410f80 f   DBTable.obj
 0001:00010050       ?GetRecord_key@CDBTableReadOnly@@QAEPADAAHW4CursorPointer@1@@Z 00411050 f   DBTable.obj
 0001:00010120       ?GetRecordEx@CDBTableReadOnly@@QAE_NPADAAH01W4CursorPointer@1@@Z 00411120 f   DBTable.obj
 0001:00010200       ??_GZDBTable@@UAEPAXI@Z    00411200 f i DBTable.obj
 0001:00010200       ??_EZDBTable@@UAEPAXI@Z    00411200 f i DBTable.obj
 0001:00010220       ??_ECDBTableReadOnly@@UAEPAXI@Z 00411220 f i DBTable.obj
 0001:00010220       ??_GCDBTableReadOnly@@UAEPAXI@Z 00411220 f i DBTable.obj
 0001:00010240       ??0CNetClientDup@@QAE@XZ   00411240 f i DealRelay.obj
 0001:00010260       ?BroadPackage@dealrelay@@YAHPBXI@Z 00411260 f   DealRelay.obj
 0001:000102d0       ??1CNetClientDup@@UAE@XZ   004112d0 f i DealRelay.obj
 0001:00010300       ??_GCNetClientDup@@UAEPAXI@Z 00411300 f i DealRelay.obj
 0001:00010300       ??_ECNetClientDup@@UAEPAXI@Z 00411300 f i DealRelay.obj
 0001:00010340       ?_Proc1_Relay_Data@dealrelay@@YAXABVCNetSockDupEx@@PBXI@Z 00411340 f   DealRelay.obj
 0001:00010440       ?_Proc1_Relay_LoseWay@dealrelay@@YAXABVCNetSockDupEx@@PBXI@Z 00411440 f   DealRelay.obj
 0001:00010510       ?FindRelaySockByIP@dealrelay@@YA?AVCNetSockDupEx@@K@Z 00411510 f   DealRelay.obj
 0001:00010640       ?_Proc2_Relay_AskWay_AccountRoleID@dealrelay@@YAXABVCNetSockDupEx@@PBXI@Z 00411640 f   DealRelay.obj
 0001:000107d0       ?_Proc1_Relay_AskWay@dealrelay@@YAXABVCNetSockDupEx@@PBXI@Z 004117d0 f   DealRelay.obj
 0001:000107f0       ?_Proc0_Relay@dealrelay@@YAXABVCNetSockDupEx@@PBXI@Z 004117f0 f   DealRelay.obj
 0001:00010820       ?_RecvPackage@dealrelay@@YAXABVCNetSockDupEx@@PBXI@Z 00411820 f   DealRelay.obj
 0001:00010840       ?DoRecvPackage@dealrelay@@YAXPAVCRelayConnect@@PBXI@Z 00411840 f   DealRelay.obj
 0001:000108e0       ?DoRecvPackage@dealrelay@@YAXPAVCRelayClient@@PBXI@Z 004118e0 f   DealRelay.obj
 0001:00010980       ?IsValid@CNetClientDup@@QBEHXZ 00411980 f i DoScript.obj
 0001:00010990       ?IsValid@CNetSockDupEx@@QBEHXZ 00411990 f i DoScript.obj
 0001:000109b0       ?_a2ip@@YAKPBD@Z           004119b0 f i DoScript.obj
 0001:000109c0       ?BroadGlobal@@YAXPBXIKK@Z  004119c0 f   DoScript.obj
 0001:00010a70       ?BroadGame@@YAXKPBXIKK@Z   00411a70 f   DoScript.obj
 0001:00010b80       ?RootSend@@YAXKKPBXI@Z     00411b80 f   DoScript.obj
 0001:00010c20       ?LuaGlobalExecute@@YAHPAUlua_State@@@Z 00411c20 f   DoScript.obj
 0001:00010d10       ?LuaGameExecute@@YAHPAUlua_State@@@Z 00411d10 f   DoScript.obj
 0001:00010e10       ?LuaMsg2IP@@YAHPAUlua_State@@@Z 00411e10 f   DoScript.obj
 0001:00010f70       ?LuaGetIP@@YAHPAUlua_State@@@Z 00411f70 f   DoScript.obj
 0001:00011060       ?g_GetGameScriptFunNum@@YAHXZ 00412060 f   DoScript.obj
 0001:00011070       ?InitScript@@YAHXZ         00412070 f   DoScript.obj
 0001:000110b0       ?ExcuteScript@@YAHKKPBD@Z  004120b0 f   DoScript.obj
 0001:00011110       ?UninitScript@@YAHXZ       00412110 f   DoScript.obj
 0001:00011120       ?search@CDBTableReadOnly@@QAEPADPBDHAAH@Z 00412120 f i FriendMgr.obj
 0001:00011140       ?TidyAddFriend@CFriendMgr@@QAEHXZ 00412140 f   FriendMgr.obj
 0001:00011150       ?size@?$_Tree@V?$_Tmap_traits@V?$basic_string@DU?$char_traits@D@std@@V?$allocator@D@2@@std@@UPLAYERINFO@CFriendMgr@@U_tstring_less@@V?$allocator@U?$pair@$$CBV?$basic_string@DU?$char_traits@D@std@@V?$allocator@D@2@@std@@UPLAYERINFO@CFriendMgr@@@std@@@2@$0A@@std@@@std@@QBEIXZ 00412150 f i FriendMgr.obj
 0001:00011160       ?size@?$_Tree@V?$_Tmap_traits@UADDFRIENDKEY@CFriendMgr@@UADDFRIENDVALUE@2@U?$less@UADDFRIENDKEY@CFriendMgr@@@std@@V?$allocator@U?$pair@$$CBUADDFRIENDKEY@CFriendMgr@@UADDFRIENDVALUE@2@@std@@@5@$0A@@std@@@std@@QBEIXZ 00412160 f i FriendMgr.obj
 0001:00011170       ?size@?$list@UMEM_FRIENDRECORD@CFriendMgr@@V?$allocator@UMEM_FRIENDRECORD@CFriendMgr@@@std@@@std@@QBEIXZ 00412170 f i FriendMgr.obj
 0001:00011180       ??8const_iterator@?$_Tree@V?$_Tmap_traits@V?$basic_string@DU?$char_traits@D@std@@V?$allocator@D@2@@std@@UPLAYERINFO@CFriendMgr@@U_tstring_less@@V?$allocator@U?$pair@$$CBV?$basic_string@DU?$char_traits@D@std@@V?$allocator@D@2@@std@@UPLAYERINFO@CFriendMgr@@@std@@@2@$0A@@std@@@std@@QBE_NABV012@@Z 00412180 f i FriendMgr.obj
 0001:000111b0       ??9const_iterator@?$_Tree@V?$_Tmap_traits@V?$basic_string@DU?$char_traits@D@std@@V?$allocator@D@2@@std@@UPLAYERINFO@CFriendMgr@@U_tstring_less@@V?$allocator@U?$pair@$$CBV?$basic_string@DU?$char_traits@D@std@@V?$allocator@D@2@@std@@UPLAYERINFO@CFriendMgr@@@std@@@2@$0A@@std@@@std@@QBE_NABV012@@Z 004121b0 f i FriendMgr.obj
 0001:000111e0       ??8const_iterator@?$_Tree@V?$_Tmap_traits@V?$basic_string@DU?$char_traits@D@std@@V?$allocator@D@2@@std@@UFRIENDINFO@CFriendMgr@@U_tstring_less@@V?$allocator@U?$pair@$$CBV?$basic_string@DU?$char_traits@D@std@@V?$allocator@D@2@@std@@UFRIENDINFO@CFriendMgr@@@std@@@2@$0A@@std@@@std@@QBE_NABV012@@Z 004121e0 f i FriendMgr.obj
 0001:00011210       ??9const_iterator@?$_Tree@V?$_Tmap_traits@V?$basic_string@DU?$char_traits@D@std@@V?$allocator@D@2@@std@@UFRIENDINFO@CFriendMgr@@U_tstring_less@@V?$allocator@U?$pair@$$CBV?$basic_string@DU?$char_traits@D@std@@V?$allocator@D@2@@std@@UFRIENDINFO@CFriendMgr@@@std@@@2@$0A@@std@@@std@@QBE_NABV012@@Z 00412210 f i FriendMgr.obj
 0001:00011240       ??8const_iterator@?$_Tree@V?$_Tmap_traits@UADDFRIENDKEY@CFriendMgr@@UADDFRIENDVALUE@2@U?$less@UADDFRIENDKEY@CFriendMgr@@@std@@V?$allocator@U?$pair@$$CBUADDFRIENDKEY@CFriendMgr@@UADDFRIENDVALUE@2@@std@@@5@$0A@@std@@@std@@QBE_NABV012@@Z 00412240 f i FriendMgr.obj
 0001:00011270       ?size@?$list@UONEPLAYER@CFriendMgr@@V?$allocator@UONEPLAYER@CFriendMgr@@@std@@@std@@QBEIXZ 00412270 f i FriendMgr.obj
 0001:00011280       ?size@?$list@V?$basic_string@DU?$char_traits@D@std@@V?$allocator@D@2@@std@@V?$allocator@V?$basic_string@DU?$char_traits@D@std@@V?$allocator@D@2@@std@@@2@@std@@QBEIXZ 00412280 f i FriendMgr.obj
 0001:00011290       ?empty@?$list@V?$basic_string@DU?$char_traits@D@std@@V?$allocator@D@2@@std@@V?$allocator@V?$basic_string@DU?$char_traits@D@std@@V?$allocator@D@2@@std@@@2@@std@@QBE_NXZ 00412290 f i FriendMgr.obj
 0001:000112a0       ?size@?$vector@V?$basic_string@DU?$char_traits@D@std@@V?$allocator@D@2@@std@@V?$allocator@V?$basic_string@DU?$char_traits@D@std@@V?$allocator@D@2@@std@@@2@@std@@QBEIXZ 004122a0 f i FriendMgr.obj
 0001:000112d0       ?size@?$vector@Viterator@?$_Tree@V?$_Tmap_traits@V?$basic_string@DU?$char_traits@D@std@@V?$allocator@D@2@@std@@UPLAYERINFO@CFriendMgr@@U_tstring_less@@V?$allocator@U?$pair@$$CBV?$basic_string@DU?$char_traits@D@std@@V?$allocator@D@2@@std@@UPLAYERINFO@CFriendMgr@@@std@@@2@$0A@@std@@@std@@V?$allocator@Viterator@?$_Tree@V?$_Tmap_traits@V?$basic_string@DU?$char_traits@D@std@@V?$allocator@D@2@@std@@UPLAYERINFO@CFriendMgr@@U_tstring_less@@V?$allocator@U?$pair@$$CBV?$basic_string@DU?$char_traits@D@std@@V?$allocator@D@2@@std@@UPLAYERINFO@CFriendMgr@@@std@@@2@$0A@@std@@@std@@@3@@std@@QBEIXZ 004122d0 f i FriendMgr.obj
 0001:000112f0       ??A?$vector@Viterator@?$_Tree@V?$_Tmap_traits@V?$basic_string@DU?$char_traits@D@std@@V?$allocator@D@2@@std@@UPLAYERINFO@CFriendMgr@@U_tstring_less@@V?$allocator@U?$pair@$$CBV?$basic_string@DU?$char_traits@D@std@@V?$allocator@D@2@@std@@UPLAYERINFO@CFriendMgr@@@std@@@2@$0A@@std@@@std@@V?$allocator@Viterator@?$_Tree@V?$_Tmap_traits@V?$basic_string@DU?$char_traits@D@std@@V?$allocator@D@2@@std@@UPLAYERINFO@CFriendMgr@@U_tstring_less@@V?$allocator@U?$pair@$$CBV?$basic_string@DU?$char_traits@D@std@@V?$allocator@D@2@@std@@UPLAYERINFO@CFriendMgr@@@std@@@2@$0A@@std@@@std@@@3@@std@@QAEAAViterator@?$_Tree@V?$_Tmap_traits@V?$basic_string@DU?$char_traits@D@std@@V?$allocator@D@2@@std@@UPLAYERINFO@CFriendMgr@@U_tstring_less@@V?$allocator@U?$pair@$$CBV?$basic_string@DU?$char_traits@D@std@@V?$allocator@D@2@@std@@UPLAYERINFO@CFriendMgr@@@std@@@2@$0A@@std@@@1@I@Z 004122f0 f i FriendMgr.obj
 0001:00011320       ??0?$allocator@V?$basic_string@DU?$char_traits@D@std@@V?$allocator@D@2@@std@@@std@@QAE@XZ 00412320 f i FriendMgr.obj
 0001:00011330       ?_Color@?$_Tree@V?$_Tmap_traits@V?$basic_string@DU?$char_traits@D@std@@V?$allocator@D@2@@std@@UFRIENDINFO@CFriendMgr@@U_tstring_less@@V?$allocator@U?$pair@$$CBV?$basic_string@DU?$char_traits@D@std@@V?$allocator@D@2@@std@@UFRIENDINFO@CFriendMgr@@@std@@@2@$0A@@std@@@std@@KAAADPAU_Node@?$_Tree_nod@V?$_Tmap_traits@V?$basic_string@DU?$char_traits@D@std@@V?$allocator@D@2@@std@@UFRIENDINFO@CFriendMgr@@U_tstring_less@@V?$allocator@U?$pair@$$CBV?$basic_string@DU?$char_traits@D@std@@V?$allocator@D@2@@std@@UFRIENDINFO@CFriendMgr@@@std@@@2@$0A@@std@@@2@@Z 00412330 f i FriendMgr.obj
 0001:00011340       ?_Isnil@?$_Tree@V?$_Tmap_traits@V?$basic_string@DU?$char_traits@D@std@@V?$allocator@D@2@@std@@UFRIENDINFO@CFriendMgr@@U_tstring_less@@V?$allocator@U?$pair@$$CBV?$basic_string@DU?$char_traits@D@std@@V?$allocator@D@2@@std@@UFRIENDINFO@CFriendMgr@@@std@@@2@$0A@@std@@@std@@KAAADPAU_Node@?$_Tree_nod@V?$_Tmap_traits@V?$basic_string@DU?$char_traits@D@std@@V?$allocator@D@2@@std@@UFRIENDINFO@CFriendMgr@@U_tstring_less@@V?$allocator@U?$pair@$$CBV?$basic_string@DU?$char_traits@D@std@@V?$allocator@D@2@@std@@UFRIENDINFO@CFriendMgr@@@std@@@2@$0A@@std@@@2@@Z 00412340 f i FriendMgr.obj
 0001:00011350       ?_Left@?$_Tree@V?$_Tmap_traits@V?$basic_string@DU?$char_traits@D@std@@V?$allocator@D@2@@std@@UFRIENDINFO@CFriendMgr@@U_tstring_less@@V?$allocator@U?$pair@$$CBV?$basic_string@DU?$char_traits@D@std@@V?$allocator@D@2@@std@@UFRIENDINFO@CFriendMgr@@@std@@@2@$0A@@std@@@std@@KAAAPAU_Node@?$_Tree_nod@V?$_Tmap_traits@V?$basic_string@DU?$char_traits@D@std@@V?$allocator@D@2@@std@@UFRIENDINFO@CFriendMgr@@U_tstring_less@@V?$allocator@U?$pair@$$CBV?$basic_string@DU?$char_traits@D@std@@V?$allocator@D@2@@std@@UFRIENDINFO@CFriendMgr@@@std@@@2@$0A@@std@@@2@PAU342@@Z 00412350 f i FriendMgr.obj
 0001:00011360       ?_Parent@?$_Tree@V?$_Tmap_traits@V?$basic_string@DU?$char_traits@D@std@@V?$allocator@D@2@@std@@UFRIENDINFO@CFriendMgr@@U_tstring_less@@V?$allocator@U?$pair@$$CBV?$basic_string@DU?$char_traits@D@std@@V?$allocator@D@2@@std@@UFRIENDINFO@CFriendMgr@@@std@@@2@$0A@@std@@@std@@KAAAPAU_Node@?$_Tree_nod@V?$_Tmap_traits@V?$basic_string@DU?$char_traits@D@std@@V?$allocator@D@2@@std@@UFRIENDINFO@CFriendMgr@@U_tstring_less@@V?$allocator@U?$pair@$$CBV?$basic_string@DU?$char_traits@D@std@@V?$allocator@D@2@@std@@UFRIENDINFO@CFriendMgr@@@std@@@2@$0A@@std@@@2@PAU342@@Z 00412360 f i FriendMgr.obj
 0001:00011370       ?_Right@?$_Tree@V?$_Tmap_traits@V?$basic_string@DU?$char_traits@D@std@@V?$allocator@D@2@@std@@UFRIENDINFO@CFriendMgr@@U_tstring_less@@V?$allocator@U?$pair@$$CBV?$basic_string@DU?$char_traits@D@std@@V?$allocator@D@2@@std@@UFRIENDINFO@CFriendMgr@@@std@@@2@$0A@@std@@@std@@KAAAPAU_Node@?$_Tree_nod@V?$_Tmap_traits@V?$basic_string@DU?$char_traits@D@std@@V?$allocator@D@2@@std@@UFRIENDINFO@CFriendMgr@@U_tstring_less@@V?$allocator@U?$pair@$$CBV?$basic_string@DU?$char_traits@D@std@@V?$allocator@D@2@@std@@UFRIENDINFO@CFriendMgr@@@std@@@2@$0A@@std@@@2@PAU342@@Z 00412370 f i FriendMgr.obj
 0001:00011380       ?_Lmost@?$_Tree@V?$_Tmap_traits@V?$basic_string@DU?$char_traits@D@std@@V?$allocator@D@2@@std@@UFRIENDINFO@CFriendMgr@@U_tstring_less@@V?$allocator@U?$pair@$$CBV?$basic_string@DU?$char_traits@D@std@@V?$allocator@D@2@@std@@UFRIENDINFO@CFriendMgr@@@std@@@2@$0A@@std@@@std@@IBEAAPAU_Node@?$_Tree_nod@V?$_Tmap_traits@V?$basic_string@DU?$char_traits@D@std@@V?$allocator@D@2@@std@@UFRIENDINFO@CFriendMgr@@U_tstring_less@@V?$allocator@U?$pair@$$CBV?$basic_string@DU?$char_traits@D@std@@V?$allocator@D@2@@std@@UFRIENDINFO@CFriendMgr@@@std@@@2@$0A@@std@@@2@XZ 00412380 f i FriendMgr.obj
 0001:00011390       ?_Max@?$_Tree@V?$_Tmap_traits@V?$basic_string@DU?$char_traits@D@std@@V?$allocator@D@2@@std@@UFRIENDINFO@CFriendMgr@@U_tstring_less@@V?$allocator@U?$pair@$$CBV?$basic_string@DU?$char_traits@D@std@@V?$allocator@D@2@@std@@UFRIENDINFO@CFriendMgr@@@std@@@2@$0A@@std@@@std@@KAPAU_Node@?$_Tree_nod@V?$_Tmap_traits@V?$basic_string@DU?$char_traits@D@std@@V?$allocator@D@2@@std@@UFRIENDINFO@CFriendMgr@@U_tstring_less@@V?$allocator@U?$pair@$$CBV?$basic_string@DU?$char_traits@D@std@@V?$allocator@D@2@@std@@UFRIENDINFO@CFriendMgr@@@std@@@2@$0A@@std@@@2@PAU342@@Z 00412390 f i FriendMgr.obj
 0001:000113b0       ?_Min@?$_Tree@V?$_Tmap_traits@V?$basic_string@DU?$char_traits@D@std@@V?$allocator@D@2@@std@@UFRIENDINFO@CFriendMgr@@U_tstring_less@@V?$allocator@U?$pair@$$CBV?$basic_string@DU?$char_traits@D@std@@V?$allocator@D@2@@std@@UFRIENDINFO@CFriendMgr@@@std@@@2@$0A@@std@@@std@@KAPAU_Node@?$_Tree_nod@V?$_Tmap_traits@V?$basic_string@DU?$char_traits@D@std@@V?$allocator@D@2@@std@@UFRIENDINFO@CFriendMgr@@U_tstring_less@@V?$allocator@U?$pair@$$CBV?$basic_string@DU?$char_traits@D@std@@V?$allocator@D@2@@std@@UFRIENDINFO@CFriendMgr@@@std@@@2@$0A@@std@@@2@PAU342@@Z 004123b0 f i FriendMgr.obj
 0001:000113d0       ?_Rmost@?$_Tree@V?$_Tmap_traits@V?$basic_string@DU?$char_traits@D@std@@V?$allocator@D@2@@std@@UFRIENDINFO@CFriendMgr@@U_tstring_less@@V?$allocator@U?$pair@$$CBV?$basic_string@DU?$char_traits@D@std@@V?$allocator@D@2@@std@@UFRIENDINFO@CFriendMgr@@@std@@@2@$0A@@std@@@std@@IBEAAPAU_Node@?$_Tree_nod@V?$_Tmap_traits@V?$basic_string@DU?$char_traits@D@std@@V?$allocator@D@2@@std@@UFRIENDINFO@CFriendMgr@@U_tstring_less@@V?$allocator@U?$pair@$$CBV?$basic_string@DU?$char_traits@D@std@@V?$allocator@D@2@@std@@UFRIENDINFO@CFriendMgr@@@std@@@2@$0A@@std@@@2@XZ 004123d0 f i FriendMgr.obj
 0001:000113e0       ?_Root@?$_Tree@V?$_Tmap_traits@V?$basic_string@DU?$char_traits@D@std@@V?$allocator@D@2@@std@@UFRIENDINFO@CFriendMgr@@U_tstring_less@@V?$allocator@U?$pair@$$CBV?$basic_string@DU?$char_traits@D@std@@V?$allocator@D@2@@std@@UFRIENDINFO@CFriendMgr@@@std@@@2@$0A@@std@@@std@@IBEAAPAU_Node@?$_Tree_nod@V?$_Tmap_traits@V?$basic_string@DU?$char_traits@D@std@@V?$allocator@D@2@@std@@UFRIENDINFO@CFriendMgr@@U_tstring_less@@V?$allocator@U?$pair@$$CBV?$basic_string@DU?$char_traits@D@std@@V?$allocator@D@2@@std@@UFRIENDINFO@CFriendMgr@@@std@@@2@$0A@@std@@@2@XZ 004123e0 f i FriendMgr.obj
 0001:000113f0       ?_Rrotate@?$_Tree@V?$_Tmap_traits@V?$basic_string@DU?$char_traits@D@std@@V?$allocator@D@2@@std@@UFRIENDINFO@CFriendMgr@@U_tstring_less@@V?$allocator@U?$pair@$$CBV?$basic_string@DU?$char_traits@D@std@@V?$allocator@D@2@@std@@UFRIENDINFO@CFriendMgr@@@std@@@2@$0A@@std@@@std@@IAEXPAU_Node@?$_Tree_nod@V?$_Tmap_traits@V?$basic_string@DU?$char_traits@D@std@@V?$allocator@D@2@@std@@UFRIENDINFO@CFriendMgr@@U_tstring_less@@V?$allocator@U?$pair@$$CBV?$basic_string@DU?$char_traits@D@std@@V?$allocator@D@2@@std@@UFRIENDINFO@CFriendMgr@@@std@@@2@$0A@@std@@@2@@Z 004123f0 f i FriendMgr.obj
 0001:00011450       ?_Kfn@?$_Tmap_traits@V?$basic_string@DU?$char_traits@D@std@@V?$allocator@D@2@@std@@UFRIENDINFO@CFriendMgr@@U_tstring_less@@V?$allocator@U?$pair@$$CBV?$basic_string@DU?$char_traits@D@std@@V?$allocator@D@2@@std@@UFRIENDINFO@CFriendMgr@@@std@@@2@$0A@@std@@SAABV?$basic_string@DU?$char_traits@D@std@@V?$allocator@D@2@@2@ABU?$pair@$$CBV?$basic_string@DU?$char_traits@D@std@@V?$allocator@D@2@@std@@UFRIENDINFO@CFriendMgr@@@2@@Z 00412450 f i FriendMgr.obj
 0001:00011460       ??0?$allocator@U?$pair@$$CBV?$basic_string@DU?$char_traits@D@std@@V?$allocator@D@2@@std@@UFRIENDINFO@CFriendMgr@@@std@@@std@@QAE@XZ 00412460 f i FriendMgr.obj
 0001:00011470       ?deallocate@?$allocator@U_Node@?$_Tree_nod@V?$_Tmap_traits@V?$basic_string@DU?$char_traits@D@std@@V?$allocator@D@2@@std@@UFRIENDINFO@CFriendMgr@@U_tstring_less@@V?$allocator@U?$pair@$$CBV?$basic_string@DU?$char_traits@D@std@@V?$allocator@D@2@@std@@UFRIENDINFO@CFriendMgr@@@std@@@2@$0A@@std@@@std@@@std@@QAEXPAU_Node@?$_Tree_nod@V?$_Tmap_traits@V?$basic_string@DU?$char_traits@D@std@@V?$allocator@D@2@@std@@UFRIENDINFO@CFriendMgr@@U_tstring_less@@V?$allocator@U?$pair@$$CBV?$basic_string@DU?$char_traits@D@std@@V?$allocator@D@2@@std@@UFRIENDINFO@CFriendMgr@@@std@@@2@$0A@@std@@@2@I@Z 00412470 f i FriendMgr.obj
 0001:00011480       ?_Isnil@?$_Tree@V?$_Tmap_traits@V?$basic_string@DU?$char_traits@D@std@@V?$allocator@D@2@@std@@UPLAYERINFO@CFriendMgr@@U_tstring_less@@V?$allocator@U?$pair@$$CBV?$basic_string@DU?$char_traits@D@std@@V?$allocator@D@2@@std@@UPLAYERINFO@CFriendMgr@@@std@@@2@$0A@@std@@@std@@KAAADPAU_Node@?$_Tree_nod@V?$_Tmap_traits@V?$basic_string@DU?$char_traits@D@std@@V?$allocator@D@2@@std@@UPLAYERINFO@CFriendMgr@@U_tstring_less@@V?$allocator@U?$pair@$$CBV?$basic_string@DU?$char_traits@D@std@@V?$allocator@D@2@@std@@UPLAYERINFO@CFriendMgr@@@std@@@2@$0A@@std@@@2@@Z 00412480 f i FriendMgr.obj
 0001:00011490       ?_Left@?$_Tree@V?$_Tmap_traits@V?$basic_string@DU?$char_traits@D@std@@V?$allocator@D@2@@std@@UPLAYERINFO@CFriendMgr@@U_tstring_less@@V?$allocator@U?$pair@$$CBV?$basic_string@DU?$char_traits@D@std@@V?$allocator@D@2@@std@@UPLAYERINFO@CFriendMgr@@@std@@@2@$0A@@std@@@std@@KAAAPAU_Node@?$_Tree_nod@V?$_Tmap_traits@V?$basic_string@DU?$char_traits@D@std@@V?$allocator@D@2@@std@@UPLAYERINFO@CFriendMgr@@U_tstring_less@@V?$allocator@U?$pair@$$CBV?$basic_string@DU?$char_traits@D@std@@V?$allocator@D@2@@std@@UPLAYERINFO@CFriendMgr@@@std@@@2@$0A@@std@@@2@PAU342@@Z 00412490 f i FriendMgr.obj
 0001:000114a0       ?_Right@?$_Tree@V?$_Tmap_traits@V?$basic_string@DU?$char_traits@D@std@@V?$allocator@D@2@@std@@UPLAYERINFO@CFriendMgr@@U_tstring_less@@V?$allocator@U?$pair@$$CBV?$basic_string@DU?$char_traits@D@std@@V?$allocator@D@2@@std@@UPLAYERINFO@CFriendMgr@@@std@@@2@$0A@@std@@@std@@KAAAPAU_Node@?$_Tree_nod@V?$_Tmap_traits@V?$basic_string@DU?$char_traits@D@std@@V?$allocator@D@2@@std@@UPLAYERINFO@CFriendMgr@@U_tstring_less@@V?$allocator@U?$pair@$$CBV?$basic_string@DU?$char_traits@D@std@@V?$allocator@D@2@@std@@UPLAYERINFO@CFriendMgr@@@std@@@2@$0A@@std@@@2@PAU342@@Z 004124a0 f i FriendMgr.obj
 0001:000114b0       ?_Lmost@?$_Tree@V?$_Tmap_traits@V?$basic_string@DU?$char_traits@D@std@@V?$allocator@D@2@@std@@UPLAYERINFO@CFriendMgr@@U_tstring_less@@V?$allocator@U?$pair@$$CBV?$basic_string@DU?$char_traits@D@std@@V?$allocator@D@2@@std@@UPLAYERINFO@CFriendMgr@@@std@@@2@$0A@@std@@@std@@IBEAAPAU_Node@?$_Tree_nod@V?$_Tmap_traits@V?$basic_string@DU?$char_traits@D@std@@V?$allocator@D@2@@std@@UPLAYERINFO@CFriendMgr@@U_tstring_less@@V?$allocator@U?$pair@$$CBV?$basic_string@DU?$char_traits@D@std@@V?$allocator@D@2@@std@@UPLAYERINFO@CFriendMgr@@@std@@@2@$0A@@std@@@2@XZ 004124b0 f i FriendMgr.obj
 0001:000114c0       ?_Rmost@?$_Tree@V?$_Tmap_traits@V?$basic_string@DU?$char_traits@D@std@@V?$allocator@D@2@@std@@UPLAYERINFO@CFriendMgr@@U_tstring_less@@V?$allocator@U?$pair@$$CBV?$basic_string@DU?$char_traits@D@std@@V?$allocator@D@2@@std@@UPLAYERINFO@CFriendMgr@@@std@@@2@$0A@@std@@@std@@IBEAAPAU_Node@?$_Tree_nod@V?$_Tmap_traits@V?$basic_string@DU?$char_traits@D@std@@V?$allocator@D@2@@std@@UPLAYERINFO@CFriendMgr@@U_tstring_less@@V?$allocator@U?$pair@$$CBV?$basic_string@DU?$char_traits@D@std@@V?$allocator@D@2@@std@@UPLAYERINFO@CFriendMgr@@@std@@@2@$0A@@std@@@2@XZ 004124c0 f i FriendMgr.obj
 0001:000114d0       ?_Kfn@?$_Tmap_traits@V?$basic_string@DU?$char_traits@D@std@@V?$allocator@D@2@@std@@UPLAYERINFO@CFriendMgr@@U_tstring_less@@V?$allocator@U?$pair@$$CBV?$basic_string@DU?$char_traits@D@std@@V?$allocator@D@2@@std@@UPLAYERINFO@CFriendMgr@@@std@@@2@$0A@@std@@SAABV?$basic_string@DU?$char_traits@D@std@@V?$allocator@D@2@@2@ABU?$pair@$$CBV?$basic_string@DU?$char_traits@D@std@@V?$allocator@D@2@@std@@UPLAYERINFO@CFriendMgr@@@2@@Z 004124d0 f i FriendMgr.obj
 0001:000114e0       ??0?$allocator@U?$pair@$$CBV?$basic_string@DU?$char_traits@D@std@@V?$allocator@D@2@@std@@UPLAYERINFO@CFriendMgr@@@std@@@std@@QAE@XZ 004124e0 f i FriendMgr.obj
 0001:000114f0       ?_Color@?$_Tree@V?$_Tmap_traits@UADDFRIENDKEY@CFriendMgr@@UADDFRIENDVALUE@2@U?$less@UADDFRIENDKEY@CFriendMgr@@@std@@V?$allocator@U?$pair@$$CBUADDFRIENDKEY@CFriendMgr@@UADDFRIENDVALUE@2@@std@@@5@$0A@@std@@@std@@KAAADPAU_Node@?$_Tree_nod@V?$_Tmap_traits@UADDFRIENDKEY@CFriendMgr@@UADDFRIENDVALUE@2@U?$less@UADDFRIENDKEY@CFriendMgr@@@std@@V?$allocator@U?$pair@$$CBUADDFRIENDKEY@CFriendMgr@@UADDFRIENDVALUE@2@@std@@@5@$0A@@std@@@2@@Z 004124f0 f i FriendMgr.obj
 0001:00011500       ?_Isnil@?$_Tree@V?$_Tmap_traits@UADDFRIENDKEY@CFriendMgr@@UADDFRIENDVALUE@2@U?$less@UADDFRIENDKEY@CFriendMgr@@@std@@V?$allocator@U?$pair@$$CBUADDFRIENDKEY@CFriendMgr@@UADDFRIENDVALUE@2@@std@@@5@$0A@@std@@@std@@KAAADPAU_Node@?$_Tree_nod@V?$_Tmap_traits@UADDFRIENDKEY@CFriendMgr@@UADDFRIENDVALUE@2@U?$less@UADDFRIENDKEY@CFriendMgr@@@std@@V?$allocator@U?$pair@$$CBUADDFRIENDKEY@CFriendMgr@@UADDFRIENDVALUE@2@@std@@@5@$0A@@std@@@2@@Z 00412500 f i FriendMgr.obj
 0001:00011510       ?_Left@?$_Tree@V?$_Tmap_traits@UADDFRIENDKEY@CFriendMgr@@UADDFRIENDVALUE@2@U?$less@UADDFRIENDKEY@CFriendMgr@@@std@@V?$allocator@U?$pair@$$CBUADDFRIENDKEY@CFriendMgr@@UADDFRIENDVALUE@2@@std@@@5@$0A@@std@@@std@@KAAAPAU_Node@?$_Tree_nod@V?$_Tmap_traits@UADDFRIENDKEY@CFriendMgr@@UADDFRIENDVALUE@2@U?$less@UADDFRIENDKEY@CFriendMgr@@@std@@V?$allocator@U?$pair@$$CBUADDFRIENDKEY@CFriendMgr@@UADDFRIENDVALUE@2@@std@@@5@$0A@@std@@@2@PAU342@@Z 00412510 f i FriendMgr.obj
 0001:00011520       ?_Parent@?$_Tree@V?$_Tmap_traits@UADDFRIENDKEY@CFriendMgr@@UADDFRIENDVALUE@2@U?$less@UADDFRIENDKEY@CFriendMgr@@@std@@V?$allocator@U?$pair@$$CBUADDFRIENDKEY@CFriendMgr@@UADDFRIENDVALUE@2@@std@@@5@$0A@@std@@@std@@KAAAPAU_Node@?$_Tree_nod@V?$_Tmap_traits@UADDFRIENDKEY@CFriendMgr@@UADDFRIENDVALUE@2@U?$less@UADDFRIENDKEY@CFriendMgr@@@std@@V?$allocator@U?$pair@$$CBUADDFRIENDKEY@CFriendMgr@@UADDFRIENDVALUE@2@@std@@@5@$0A@@std@@@2@PAU342@@Z 00412520 f i FriendMgr.obj
 0001:00011530       ?_Right@?$_Tree@V?$_Tmap_traits@UADDFRIENDKEY@CFriendMgr@@UADDFRIENDVALUE@2@U?$less@UADDFRIENDKEY@CFriendMgr@@@std@@V?$allocator@U?$pair@$$CBUADDFRIENDKEY@CFriendMgr@@UADDFRIENDVALUE@2@@std@@@5@$0A@@std@@@std@@KAAAPAU_Node@?$_Tree_nod@V?$_Tmap_traits@UADDFRIENDKEY@CFriendMgr@@UADDFRIENDVALUE@2@U?$less@UADDFRIENDKEY@CFriendMgr@@@std@@V?$allocator@U?$pair@$$CBUADDFRIENDKEY@CFriendMgr@@UADDFRIENDVALUE@2@@std@@@5@$0A@@std@@@2@PAU342@@Z 00412530 f i FriendMgr.obj
 0001:00011540       ?_Lmost@?$_Tree@V?$_Tmap_traits@UADDFRIENDKEY@CFriendMgr@@UADDFRIENDVALUE@2@U?$less@UADDFRIENDKEY@CFriendMgr@@@std@@V?$allocator@U?$pair@$$CBUADDFRIENDKEY@CFriendMgr@@UADDFRIENDVALUE@2@@std@@@5@$0A@@std@@@std@@IBEAAPAU_Node@?$_Tree_nod@V?$_Tmap_traits@UADDFRIENDKEY@CFriendMgr@@UADDFRIENDVALUE@2@U?$less@UADDFRIENDKEY@CFriendMgr@@@std@@V?$allocator@U?$pair@$$CBUADDFRIENDKEY@CFriendMgr@@UADDFRIENDVALUE@2@@std@@@5@$0A@@std@@@2@XZ 00412540 f i FriendMgr.obj
 0001:00011550       ?_Max@?$_Tree@V?$_Tmap_traits@UADDFRIENDKEY@CFriendMgr@@UADDFRIENDVALUE@2@U?$less@UADDFRIENDKEY@CFriendMgr@@@std@@V?$allocator@U?$pair@$$CBUADDFRIENDKEY@CFriendMgr@@UADDFRIENDVALUE@2@@std@@@5@$0A@@std@@@std@@KAPAU_Node@?$_Tree_nod@V?$_Tmap_traits@UADDFRIENDKEY@CFriendMgr@@UADDFRIENDVALUE@2@U?$less@UADDFRIENDKEY@CFriendMgr@@@std@@V?$allocator@U?$pair@$$CBUADDFRIENDKEY@CFriendMgr@@UADDFRIENDVALUE@2@@std@@@5@$0A@@std@@@2@PAU342@@Z 00412550 f i FriendMgr.obj
 0001:00011570       ?_Min@?$_Tree@V?$_Tmap_traits@UADDFRIENDKEY@CFriendMgr@@UADDFRIENDVALUE@2@U?$less@UADDFRIENDKEY@CFriendMgr@@@std@@V?$allocator@U?$pair@$$CBUADDFRIENDKEY@CFriendMgr@@UADDFRIENDVALUE@2@@std@@@5@$0A@@std@@@std@@KAPAU_Node@?$_Tree_nod@V?$_Tmap_traits@UADDFRIENDKEY@CFriendMgr@@UADDFRIENDVALUE@2@U?$less@UADDFRIENDKEY@CFriendMgr@@@std@@V?$allocator@U?$pair@$$CBUADDFRIENDKEY@CFriendMgr@@UADDFRIENDVALUE@2@@std@@@5@$0A@@std@@@2@PAU342@@Z 00412570 f i FriendMgr.obj
 0001:00011590       ?_Rmost@?$_Tree@V?$_Tmap_traits@UADDFRIENDKEY@CFriendMgr@@UADDFRIENDVALUE@2@U?$less@UADDFRIENDKEY@CFriendMgr@@@std@@V?$allocator@U?$pair@$$CBUADDFRIENDKEY@CFriendMgr@@UADDFRIENDVALUE@2@@std@@@5@$0A@@std@@@std@@IBEAAPAU_Node@?$_Tree_nod@V?$_Tmap_traits@UADDFRIENDKEY@CFriendMgr@@UADDFRIENDVALUE@2@U?$less@UADDFRIENDKEY@CFriendMgr@@@std@@V?$allocator@U?$pair@$$CBUADDFRIENDKEY@CFriendMgr@@UADDFRIENDVALUE@2@@std@@@5@$0A@@std@@@2@XZ 00412590 f i FriendMgr.obj
 0001:000115a0       ?_Root@?$_Tree@V?$_Tmap_traits@UADDFRIENDKEY@CFriendMgr@@UADDFRIENDVALUE@2@U?$less@UADDFRIENDKEY@CFriendMgr@@@std@@V?$allocator@U?$pair@$$CBUADDFRIENDKEY@CFriendMgr@@UADDFRIENDVALUE@2@@std@@@5@$0A@@std@@@std@@IBEAAPAU_Node@?$_Tree_nod@V?$_Tmap_traits@UADDFRIENDKEY@CFriendMgr@@UADDFRIENDVALUE@2@U?$less@UADDFRIENDKEY@CFriendMgr@@@std@@V?$allocator@U?$pair@$$CBUADDFRIENDKEY@CFriendMgr@@UADDFRIENDVALUE@2@@std@@@5@$0A@@std@@@2@XZ 004125a0 f i FriendMgr.obj
 0001:000115b0       ?_Rrotate@?$_Tree@V?$_Tmap_traits@UADDFRIENDKEY@CFriendMgr@@UADDFRIENDVALUE@2@U?$less@UADDFRIENDKEY@CFriendMgr@@@std@@V?$allocator@U?$pair@$$CBUADDFRIENDKEY@CFriendMgr@@UADDFRIENDVALUE@2@@std@@@5@$0A@@std@@@std@@IAEXPAU_Node@?$_Tree_nod@V?$_Tmap_traits@UADDFRIENDKEY@CFriendMgr@@UADDFRIENDVALUE@2@U?$less@UADDFRIENDKEY@CFriendMgr@@@std@@V?$allocator@U?$pair@$$CBUADDFRIENDKEY@CFriendMgr@@UADDFRIENDVALUE@2@@std@@@5@$0A@@std@@@2@@Z 004125b0 f i FriendMgr.obj
 0001:00011610       ??0?$allocator@U?$pair@$$CBUADDFRIENDKEY@CFriendMgr@@UADDFRIENDVALUE@2@@std@@@std@@QAE@XZ 00412610 f i FriendMgr.obj
 0001:00011620       ?deallocate@?$allocator@U_Node@?$_Tree_nod@V?$_Tmap_traits@UADDFRIENDKEY@CFriendMgr@@UADDFRIENDVALUE@2@U?$less@UADDFRIENDKEY@CFriendMgr@@@std@@V?$allocator@U?$pair@$$CBUADDFRIENDKEY@CFriendMgr@@UADDFRIENDVALUE@2@@std@@@5@$0A@@std@@@std@@@std@@QAEXPAU_Node@?$_Tree_nod@V?$_Tmap_traits@UADDFRIENDKEY@CFriendMgr@@UADDFRIENDVALUE@2@U?$less@UADDFRIENDKEY@CFriendMgr@@@std@@V?$allocator@U?$pair@$$CBUADDFRIENDKEY@CFriendMgr@@UADDFRIENDVALUE@2@@std@@@5@$0A@@std@@@2@I@Z 00412620 f i FriendMgr.obj
 0001:00011630       ?_Nextnode@?$list@UMEM_FRIENDRECORD@CFriendMgr@@V?$allocator@UMEM_FRIENDRECORD@CFriendMgr@@@std@@@std@@KAAAPAU_Node@?$_List_nod@UMEM_FRIENDRECORD@CFriendMgr@@V?$allocator@UMEM_FRIENDRECORD@CFriendMgr@@@std@@@2@PAU342@@Z 00412630 f i FriendMgr.obj
 0001:00011640       ?_Myval@?$list@UMEM_FRIENDRECORD@CFriendMgr@@V?$allocator@UMEM_FRIENDRECORD@CFriendMgr@@@std@@@std@@KAAAUMEM_FRIENDRECORD@CFriendMgr@@PAU_Node@?$_List_nod@UMEM_FRIENDRECORD@CFriendMgr@@V?$allocator@UMEM_FRIENDRECORD@CFriendMgr@@@std@@@2@@Z 00412640 f i FriendMgr.obj
 0001:00011650       ??0?$allocator@UMEM_FRIENDRECORD@CFriendMgr@@@std@@QAE@XZ 00412650 f i FriendMgr.obj
 0001:00011660       ?_Mynode@const_iterator@?$_Tree@V?$_Tmap_traits@V?$basic_string@DU?$char_traits@D@std@@V?$allocator@D@2@@std@@UPLAYERINFO@CFriendMgr@@U_tstring_less@@V?$allocator@U?$pair@$$CBV?$basic_string@DU?$char_traits@D@std@@V?$allocator@D@2@@std@@UPLAYERINFO@CFriendMgr@@@std@@@2@$0A@@std@@@std@@QBEPAU_Node@?$_Tree_nod@V?$_Tmap_traits@V?$basic_string@DU?$char_traits@D@std@@V?$allocator@D@2@@std@@UPLAYERINFO@CFriendMgr@@U_tstring_less@@V?$allocator@U?$pair@$$CBV?$basic_string@DU?$char_traits@D@std@@V?$allocator@D@2@@std@@UPLAYERINFO@CFriendMgr@@@std@@@2@$0A@@std@@@3@XZ 00412660 f i FriendMgr.obj
 0001:00011670       ?size@?$_Tree@V?$_Tmap_traits@KV?$list@UtagPlusSrcInfo@@V?$allocator@UtagPlusSrcInfo@@@std@@@std@@U?$less@K@2@V?$allocator@U?$pair@$$CBKV?$list@UtagPlusSrcInfo@@V?$allocator@UtagPlusSrcInfo@@@std@@@std@@@std@@@2@$0A@@std@@@std@@QBEIXZ 00412670 f i FriendMgr.obj
 0001:00011680       ??0?$allocator@U?$pair@$$CBKV?$list@UtagPlusSrcInfo@@V?$allocator@UtagPlusSrcInfo@@@std@@@std@@@std@@@std@@QAE@XZ 00412680 f i FriendMgr.obj
 0001:00011690       ?_Mynode@const_iterator@?$_Tree@V?$_Tmap_traits@V?$basic_string@DU?$char_traits@D@std@@V?$allocator@D@2@@std@@UFRIENDINFO@CFriendMgr@@U_tstring_less@@V?$allocator@U?$pair@$$CBV?$basic_string@DU?$char_traits@D@std@@V?$allocator@D@2@@std@@UFRIENDINFO@CFriendMgr@@@std@@@2@$0A@@std@@@std@@QBEPAU_Node@?$_Tree_nod@V?$_Tmap_traits@V?$basic_string@DU?$char_traits@D@std@@V?$allocator@D@2@@std@@UFRIENDINFO@CFriendMgr@@U_tstring_less@@V?$allocator@U?$pair@$$CBV?$basic_string@DU?$char_traits@D@std@@V?$allocator@D@2@@std@@UFRIENDINFO@CFriendMgr@@@std@@@2@$0A@@std@@@3@XZ 00412690 f i FriendMgr.obj
 0001:000116a0       ??8const_iterator@?$_Tree@V?$_Tmap_traits@KV?$list@UtagPlusSrcInfo@@V?$allocator@UtagPlusSrcInfo@@@std@@@std@@U?$less@K@2@V?$allocator@U?$pair@$$CBKV?$list@UtagPlusSrcInfo@@V?$allocator@UtagPlusSrcInfo@@@std@@@std@@@std@@@2@$0A@@std@@@std@@QBE_NABV012@@Z 004126a0 f i FriendMgr.obj
 0001:000116d0       ?_Mynode@const_iterator@?$_Tree@V?$_Tmap_traits@KV?$list@UtagPlusSrcInfo@@V?$allocator@UtagPlusSrcInfo@@@std@@@std@@U?$less@K@2@V?$allocator@U?$pair@$$CBKV?$list@UtagPlusSrcInfo@@V?$allocator@UtagPlusSrcInfo@@@std@@@std@@@std@@@2@$0A@@std@@@std@@QBEPAU_Node@?$_Tree_nod@V?$_Tmap_traits@KV?$list@UtagPlusSrcInfo@@V?$allocator@UtagPlusSrcInfo@@@std@@@std@@U?$less@K@2@V?$allocator@U?$pair@$$CBKV?$list@UtagPlusSrcInfo@@V?$allocator@UtagPlusSrcInfo@@@std@@@std@@@std@@@2@$0A@@std@@@3@XZ 004126d0 f i FriendMgr.obj
 0001:000116e0       ?size@?$_Tree@V?$_Tmap_traits@V?$basic_string@DU?$char_traits@D@std@@V?$allocator@D@2@@std@@V?$list@U?$pair@EV?$basic_string@DU?$char_traits@D@std@@V?$allocator@D@2@@std@@@std@@V?$allocator@U?$pair@EV?$basic_string@DU?$char_traits@D@std@@V?$allocator@D@2@@std@@@std@@@2@@2@U_tstring_less@@V?$allocator@U?$pair@$$CBV?$basic_string@DU?$char_traits@D@std@@V?$allocator@D@2@@std@@V?$list@U?$pair@EV?$basic_string@DU?$char_traits@D@std@@V?$allocator@D@2@@std@@@std@@V?$allocator@U?$pair@EV?$basic_string@DU?$char_traits@D@std@@V?$allocator@D@2@@std@@@std@@@2@@2@@std@@@2@$0A@@std@@@std@@QBEIXZ 004126e0 f i FriendMgr.obj
 0001:000116f0       ??0?$allocator@U?$pair@$$CBV?$basic_string@DU?$char_traits@D@std@@V?$allocator@D@2@@std@@V?$list@U?$pair@EV?$basic_string@DU?$char_traits@D@std@@V?$allocator@D@2@@std@@@std@@V?$allocator@U?$pair@EV?$basic_string@DU?$char_traits@D@std@@V?$allocator@D@2@@std@@@std@@@2@@2@@std@@@std@@QAE@XZ 004126f0 f i FriendMgr.obj
 0001:00011700       ?_Nextnode@?$list@U?$pair@EV?$basic_string@DU?$char_traits@D@std@@V?$allocator@D@2@@std@@@std@@V?$allocator@U?$pair@EV?$basic_string@DU?$char_traits@D@std@@V?$allocator@D@2@@std@@@std@@@2@@std@@KAAAPAU_Node@?$_List_nod@U?$pair@EV?$basic_string@DU?$char_traits@D@std@@V?$allocator@D@2@@std@@@std@@V?$allocator@U?$pair@EV?$basic_string@DU?$char_traits@D@std@@V?$allocator@D@2@@std@@@std@@@2@@2@PAU342@@Z 00412700 f i FriendMgr.obj
 0001:00011710       ??8const_iterator@?$_Tree@V?$_Tmap_traits@V?$basic_string@DU?$char_traits@D@std@@V?$allocator@D@2@@std@@V?$list@U?$pair@EV?$basic_string@DU?$char_traits@D@std@@V?$allocator@D@2@@std@@@std@@V?$allocator@U?$pair@EV?$basic_string@DU?$char_traits@D@std@@V?$allocator@D@2@@std@@@std@@@2@@2@U_tstring_less@@V?$allocator@U?$pair@$$CBV?$basic_string@DU?$char_traits@D@std@@V?$allocator@D@2@@std@@V?$list@U?$pair@EV?$basic_string@DU?$char_traits@D@std@@V?$allocator@D@2@@std@@@std@@V?$allocator@U?$pair@EV?$basic_string@DU?$char_traits@D@std@@V?$allocator@D@2@@std@@@std@@@2@@2@@std@@@2@$0A@@std@@@std@@QBE_NABV012@@Z 00412710 f i FriendMgr.obj
 0001:00011740       ?_Mynode@const_iterator@?$_Tree@V?$_Tmap_traits@V?$basic_string@DU?$char_traits@D@std@@V?$allocator@D@2@@std@@V?$list@U?$pair@EV?$basic_string@DU?$char_traits@D@std@@V?$allocator@D@2@@std@@@std@@V?$allocator@U?$pair@EV?$basic_string@DU?$char_traits@D@std@@V?$allocator@D@2@@std@@@std@@@2@@2@U_tstring_less@@V?$allocator@U?$pair@$$CBV?$basic_string@DU?$char_traits@D@std@@V?$allocator@D@2@@std@@V?$list@U?$pair@EV?$basic_string@DU?$char_traits@D@std@@V?$allocator@D@2@@std@@@std@@V?$allocator@U?$pair@EV?$basic_string@DU?$char_traits@D@std@@V?$allocator@D@2@@std@@@std@@@2@@2@@std@@@2@$0A@@std@@@std@@QBEPAU_Node@?$_Tree_nod@V?$_Tmap_traits@V?$basic_string@DU?$char_traits@D@std@@V?$allocator@D@2@@std@@V?$list@U?$pair@EV?$basic_string@DU?$char_traits@D@std@@V?$allocator@D@2@@std@@@std@@V?$allocator@U?$pair@EV?$basic_string@DU?$char_traits@D@std@@V?$allocator@D@2@@std@@@std@@@2@@2@U_tstring_less@@V?$allocator@U?$pair@$$CBV?$basic_string@DU?$char_traits@D@std@@V?$allocator@D@2@@std@@V?$list@U?$pair@EV?$basic_string@DU?$char_traits@D@std@@V?$allocator@D@2@@std@@@std@@V?$allocator@U?$pair@EV?$basic_string@DU?$char_traits@D@std@@V?$allocator@D@2@@std@@@std@@@2@@2@@std@@@2@$0A@@std@@@3@XZ 00412740 f i FriendMgr.obj
 0001:00011750       ??8?$_Const_iterator@$00@?$list@U?$pair@EV?$basic_string@DU?$char_traits@D@std@@V?$allocator@D@2@@std@@@std@@V?$allocator@U?$pair@EV?$basic_string@DU?$char_traits@D@std@@V?$allocator@D@2@@std@@@std@@@2@@std@@QBE_NABV012@@Z 00412750 f i FriendMgr.obj
 0001:00011780       ?_Mynode@const_iterator@?$_Tree@V?$_Tmap_traits@UADDFRIENDKEY@CFriendMgr@@UADDFRIENDVALUE@2@U?$less@UADDFRIENDKEY@CFriendMgr@@@std@@V?$allocator@U?$pair@$$CBUADDFRIENDKEY@CFriendMgr@@UADDFRIENDVALUE@2@@std@@@5@$0A@@std@@@std@@QBEPAU_Node@?$_Tree_nod@V?$_Tmap_traits@UADDFRIENDKEY@CFriendMgr@@UADDFRIENDVALUE@2@U?$less@UADDFRIENDKEY@CFriendMgr@@@std@@V?$allocator@U?$pair@$$CBUADDFRIENDKEY@CFriendMgr@@UADDFRIENDVALUE@2@@std@@@5@$0A@@std@@@3@XZ 00412780 f i FriendMgr.obj
 0001:00011790       ??0?$pair@Viterator@?$_Tree@V?$_Tmap_traits@V?$basic_string@DU?$char_traits@D@std@@V?$allocator@D@2@@std@@UPLAYERINFO@CFriendMgr@@U_tstring_less@@V?$allocator@U?$pair@$$CBV?$basic_string@DU?$char_traits@D@std@@V?$allocator@D@2@@std@@UPLAYERINFO@CFriendMgr@@@std@@@2@$0A@@std@@@std@@_N@std@@QAE@ABViterator@?$_Tree@V?$_Tmap_traits@V?$basic_string@DU?$char_traits@D@std@@V?$allocator@D@2@@std@@UPLAYERINFO@CFriendMgr@@U_tstring_less@@V?$allocator@U?$pair@$$CBV?$basic_string@DU?$char_traits@D@std@@V?$allocator@D@2@@std@@UPLAYERINFO@CFriendMgr@@@std@@@2@$0A@@std@@@1@AB_N@Z 00412790 f i FriendMgr.obj
 0001:000117b0       ??E?$_Const_iterator@$00@?$list@UMEM_FRIENDRECORD@CFriendMgr@@V?$allocator@UMEM_FRIENDRECORD@CFriendMgr@@@std@@@std@@QAEAAV012@XZ 004127b0 f i FriendMgr.obj
 0001:000117e0       ??8?$_Const_iterator@$00@?$list@UMEM_FRIENDRECORD@CFriendMgr@@V?$allocator@UMEM_FRIENDRECORD@CFriendMgr@@@std@@@std@@QBE_NABV012@@Z 004127e0 f i FriendMgr.obj
 0001:00011810       ??0?$pair@Viterator@?$_Tree@V?$_Tmap_traits@V?$basic_string@DU?$char_traits@D@std@@V?$allocator@D@2@@std@@UFRIENDINFO@CFriendMgr@@U_tstring_less@@V?$allocator@U?$pair@$$CBV?$basic_string@DU?$char_traits@D@std@@V?$allocator@D@2@@std@@UFRIENDINFO@CFriendMgr@@@std@@@2@$0A@@std@@@std@@_N@std@@QAE@ABViterator@?$_Tree@V?$_Tmap_traits@V?$basic_string@DU?$char_traits@D@std@@V?$allocator@D@2@@std@@UFRIENDINFO@CFriendMgr@@U_tstring_less@@V?$allocator@U?$pair@$$CBV?$basic_string@DU?$char_traits@D@std@@V?$allocator@D@2@@std@@UFRIENDINFO@CFriendMgr@@@std@@@2@$0A@@std@@@1@AB_N@Z 00412810 f i FriendMgr.obj
 0001:00011830       ?_Nextnode@?$list@UONEPLAYER@CFriendMgr@@V?$allocator@UONEPLAYER@CFriendMgr@@@std@@@std@@KAAAPAU_Node@?$_List_nod@UONEPLAYER@CFriendMgr@@V?$allocator@UONEPLAYER@CFriendMgr@@@std@@@2@PAU342@@Z 00412830 f i FriendMgr.obj
 0001:00011840       ??0?$allocator@UONEPLAYER@CFriendMgr@@@std@@QAE@XZ 00412840 f i FriendMgr.obj
 0001:00011850       ?_Nextnode@?$list@V?$basic_string@DU?$char_traits@D@std@@V?$allocator@D@2@@std@@V?$allocator@V?$basic_string@DU?$char_traits@D@std@@V?$allocator@D@2@@std@@@2@@std@@KAAAPAU_Node@?$_List_nod@V?$basic_string@DU?$char_traits@D@std@@V?$allocator@D@2@@std@@V?$allocator@V?$basic_string@DU?$char_traits@D@std@@V?$allocator@D@2@@std@@@2@@2@PAU342@@Z 00412850 f i FriendMgr.obj
 0001:00011860       ??8?$_Const_iterator@$00@?$list@V?$basic_string@DU?$char_traits@D@std@@V?$allocator@D@2@@std@@V?$allocator@V?$basic_string@DU?$char_traits@D@std@@V?$allocator@D@2@@std@@@2@@std@@QBE_NABV012@@Z 00412860 f i FriendMgr.obj
 0001:00011890       ??8?$_Const_iterator@$00@?$list@UONEPLAYER@CFriendMgr@@V?$allocator@UONEPLAYER@CFriendMgr@@@std@@@std@@QBE_NABV012@@Z 00412890 f i FriendMgr.obj
 0001:000118c0       ?capacity@?$vector@Viterator@?$_Tree@V?$_Tmap_traits@V?$basic_string@DU?$char_traits@D@std@@V?$allocator@D@2@@std@@UPLAYERINFO@CFriendMgr@@U_tstring_less@@V?$allocator@U?$pair@$$CBV?$basic_string@DU?$char_traits@D@std@@V?$allocator@D@2@@std@@UPLAYERINFO@CFriendMgr@@@std@@@2@$0A@@std@@@std@@V?$allocator@Viterator@?$_Tree@V?$_Tmap_traits@V?$basic_string@DU?$char_traits@D@std@@V?$allocator@D@2@@std@@UPLAYERINFO@CFriendMgr@@U_tstring_less@@V?$allocator@U?$pair@$$CBV?$basic_string@DU?$char_traits@D@std@@V?$allocator@D@2@@std@@UPLAYERINFO@CFriendMgr@@@std@@@2@$0A@@std@@@std@@@3@@std@@QBEIXZ 004128c0 f i FriendMgr.obj
 0001:000118e0       ??0?$allocator@Viterator@?$_Tree@V?$_Tmap_traits@V?$basic_string@DU?$char_traits@D@std@@V?$allocator@D@2@@std@@UPLAYERINFO@CFriendMgr@@U_tstring_less@@V?$allocator@U?$pair@$$CBV?$basic_string@DU?$char_traits@D@std@@V?$allocator@D@2@@std@@UPLAYERINFO@CFriendMgr@@@std@@@2@$0A@@std@@@std@@@std@@QAE@XZ 004128e0 f i FriendMgr.obj
 0001:000118f0       ??0?$_Bidit@U?$pair@$$CBV?$basic_string@DU?$char_traits@D@std@@V?$allocator@D@2@@std@@UPLAYERINFO@CFriendMgr@@@std@@HPBU12@ABU12@@std@@QAE@XZ 004128f0 f i FriendMgr.obj
 0001:00011900       ??0?$_Bidit@UMEM_FRIENDRECORD@CFriendMgr@@HPBU12@ABU12@@std@@QAE@XZ 00412900 f i FriendMgr.obj
 0001:00011910       ??0?$allocator@V?$basic_string@DU?$char_traits@D@std@@V?$allocator@D@2@@std@@@std@@QAE@ABV01@@Z 00412910 f i FriendMgr.obj
 0001:00011920       ?_Myval@?$_Tree@V?$_Tmap_traits@V?$basic_string@DU?$char_traits@D@std@@V?$allocator@D@2@@std@@UFRIENDINFO@CFriendMgr@@U_tstring_less@@V?$allocator@U?$pair@$$CBV?$basic_string@DU?$char_traits@D@std@@V?$allocator@D@2@@std@@UFRIENDINFO@CFriendMgr@@@std@@@2@$0A@@std@@@std@@KAAAU?$pair@$$CBV?$basic_string@DU?$char_traits@D@std@@V?$allocator@D@2@@std@@UFRIENDINFO@CFriendMgr@@@2@PAU_Node@?$_Tree_nod@V?$_Tmap_traits@V?$basic_string@DU?$char_traits@D@std@@V?$allocator@D@2@@std@@UFRIENDINFO@CFriendMgr@@U_tstring_less@@V?$allocator@U?$pair@$$CBV?$basic_string@DU?$char_traits@D@std@@V?$allocator@D@2@@std@@UFRIENDINFO@CFriendMgr@@@std@@@2@$0A@@std@@@2@@Z 00412920 f i FriendMgr.obj
 0001:00011930       ?size@?$_Tree@V?$_Tmap_traits@V?$basic_string@DU?$char_traits@D@std@@V?$allocator@D@2@@std@@UFRIENDINFO@CFriendMgr@@U_tstring_less@@V?$allocator@U?$pair@$$CBV?$basic_string@DU?$char_traits@D@std@@V?$allocator@D@2@@std@@UFRIENDINFO@CFriendMgr@@@std@@@2@$0A@@std@@@std@@QBEIXZ 00412930 f i FriendMgr.obj
 0001:00011940       ?key_comp@?$_Tree@V?$_Tmap_traits@V?$basic_string@DU?$char_traits@D@std@@V?$allocator@D@2@@std@@UFRIENDINFO@CFriendMgr@@U_tstring_less@@V?$allocator@U?$pair@$$CBV?$basic_string@DU?$char_traits@D@std@@V?$allocator@D@2@@std@@UFRIENDINFO@CFriendMgr@@@std@@@2@$0A@@std@@@std@@QBE?AU_tstring_less@@XZ 00412940 f i FriendMgr.obj
 0001:00011950       ??0?$allocator@U?$pair@$$CBV?$basic_string@DU?$char_traits@D@std@@V?$allocator@D@2@@std@@UFRIENDINFO@CFriendMgr@@@std@@@std@@QAE@ABV01@@Z 00412950 f i FriendMgr.obj
 0001:00011960       ?_Color@?$_Tree@V?$_Tmap_traits@V?$basic_string@DU?$char_traits@D@std@@V?$allocator@D@2@@std@@UPLAYERINFO@CFriendMgr@@U_tstring_less@@V?$allocator@U?$pair@$$CBV?$basic_string@DU?$char_traits@D@std@@V?$allocator@D@2@@std@@UPLAYERINFO@CFriendMgr@@@std@@@2@$0A@@std@@@std@@KAAADPAU_Node@?$_Tree_nod@V?$_Tmap_traits@V?$basic_string@DU?$char_traits@D@std@@V?$allocator@D@2@@std@@UPLAYERINFO@CFriendMgr@@U_tstring_less@@V?$allocator@U?$pair@$$CBV?$basic_string@DU?$char_traits@D@std@@V?$allocator@D@2@@std@@UPLAYERINFO@CFriendMgr@@@std@@@2@$0A@@std@@@2@@Z 00412960 f i FriendMgr.obj
 0001:00011970       ?_Parent@?$_Tree@V?$_Tmap_traits@V?$basic_string@DU?$char_traits@D@std@@V?$allocator@D@2@@std@@UPLAYERINFO@CFriendMgr@@U_tstring_less@@V?$allocator@U?$pair@$$CBV?$basic_string@DU?$char_traits@D@std@@V?$allocator@D@2@@std@@UPLAYERINFO@CFriendMgr@@@std@@@2@$0A@@std@@@std@@KAAAPAU_Node@?$_Tree_nod@V?$_Tmap_traits@V?$basic_string@DU?$char_traits@D@std@@V?$allocator@D@2@@std@@UPLAYERINFO@CFriendMgr@@U_tstring_less@@V?$allocator@U?$pair@$$CBV?$basic_string@DU?$char_traits@D@std@@V?$allocator@D@2@@std@@UPLAYERINFO@CFriendMgr@@@std@@@2@$0A@@std@@@2@PAU342@@Z 00412970 f i FriendMgr.obj
 0001:00011980       ?_Myval@?$_Tree@V?$_Tmap_traits@V?$basic_string@DU?$char_traits@D@std@@V?$allocator@D@2@@std@@UPLAYERINFO@CFriendMgr@@U_tstring_less@@V?$allocator@U?$pair@$$CBV?$basic_string@DU?$char_traits@D@std@@V?$allocator@D@2@@std@@UPLAYERINFO@CFriendMgr@@@std@@@2@$0A@@std@@@std@@KAAAU?$pair@$$CBV?$basic_string@DU?$char_traits@D@std@@V?$allocator@D@2@@std@@UPLAYERINFO@CFriendMgr@@@2@PAU_Node@?$_Tree_nod@V?$_Tmap_traits@V?$basic_string@DU?$char_traits@D@std@@V?$allocator@D@2@@std@@UPLAYERINFO@CFriendMgr@@U_tstring_less@@V?$allocator@U?$pair@$$CBV?$basic_string@DU?$char_traits@D@std@@V?$allocator@D@2@@std@@UPLAYERINFO@CFriendMgr@@@std@@@2@$0A@@std@@@2@@Z 00412980 f i FriendMgr.obj
 0001:00011990       ??0?$allocator@U?$pair@$$CBV?$basic_string@DU?$char_traits@D@std@@V?$allocator@D@2@@std@@UPLAYERINFO@CFriendMgr@@@std@@@std@@QAE@ABV01@@Z 00412990 f i FriendMgr.obj
 0001:000119a0       ?deallocate@?$allocator@U_Node@?$_Tree_nod@V?$_Tmap_traits@V?$basic_string@DU?$char_traits@D@std@@V?$allocator@D@2@@std@@UPLAYERINFO@CFriendMgr@@U_tstring_less@@V?$allocator@U?$pair@$$CBV?$basic_string@DU?$char_traits@D@std@@V?$allocator@D@2@@std@@UPLAYERINFO@CFriendMgr@@@std@@@2@$0A@@std@@@std@@@std@@QAEXPAU_Node@?$_Tree_nod@V?$_Tmap_traits@V?$basic_string@DU?$char_traits@D@std@@V?$allocator@D@2@@std@@UPLAYERINFO@CFriendMgr@@U_tstring_less@@V?$allocator@U?$pair@$$CBV?$basic_string@DU?$char_traits@D@std@@V?$allocator@D@2@@std@@UPLAYERINFO@CFriendMgr@@@std@@@2@$0A@@std@@@2@I@Z 004129a0 f i FriendMgr.obj
 0001:000119b0       ?_Myval@?$_Tree@V?$_Tmap_traits@UADDFRIENDKEY@CFriendMgr@@UADDFRIENDVALUE@2@U?$less@UADDFRIENDKEY@CFriendMgr@@@std@@V?$allocator@U?$pair@$$CBUADDFRIENDKEY@CFriendMgr@@UADDFRIENDVALUE@2@@std@@@5@$0A@@std@@@std@@KAAAU?$pair@$$CBUADDFRIENDKEY@CFriendMgr@@UADDFRIENDVALUE@2@@2@PAU_Node@?$_Tree_nod@V?$_Tmap_traits@UADDFRIENDKEY@CFriendMgr@@UADDFRIENDVALUE@2@U?$less@UADDFRIENDKEY@CFriendMgr@@@std@@V?$allocator@U?$pair@$$CBUADDFRIENDKEY@CFriendMgr@@UADDFRIENDVALUE@2@@std@@@5@$0A@@std@@@2@@Z 004129b0 f i FriendMgr.obj
 0001:000119c0       ?_Kfn@?$_Tmap_traits@UADDFRIENDKEY@CFriendMgr@@UADDFRIENDVALUE@2@U?$less@UADDFRIENDKEY@CFriendMgr@@@std@@V?$allocator@U?$pair@$$CBUADDFRIENDKEY@CFriendMgr@@UADDFRIENDVALUE@2@@std@@@5@$0A@@std@@SAABUADDFRIENDKEY@CFriendMgr@@ABU?$pair@$$CBUADDFRIENDKEY@CFriendMgr@@UADDFRIENDVALUE@2@@2@@Z 004129c0 f i FriendMgr.obj
 0001:000119d0       ??0?$allocator@U?$pair@$$CBUADDFRIENDKEY@CFriendMgr@@UADDFRIENDVALUE@2@@std@@@std@@QAE@ABV01@@Z 004129d0 f i FriendMgr.obj
 0001:000119e0       ?_Prevnode@?$list@UMEM_FRIENDRECORD@CFriendMgr@@V?$allocator@UMEM_FRIENDRECORD@CFriendMgr@@@std@@@std@@KAAAPAU_Node@?$_List_nod@UMEM_FRIENDRECORD@CFriendMgr@@V?$allocator@UMEM_FRIENDRECORD@CFriendMgr@@@std@@@2@PAU342@@Z 004129e0 f i FriendMgr.obj
 0001:000119f0       ??0?$allocator@UMEM_FRIENDRECORD@CFriendMgr@@@std@@QAE@ABV01@@Z 004129f0 f i FriendMgr.obj
 0001:00011a00       ?deallocate@?$allocator@U_Node@?$_List_nod@UMEM_FRIENDRECORD@CFriendMgr@@V?$allocator@UMEM_FRIENDRECORD@CFriendMgr@@@std@@@std@@@std@@QAEXPAU_Node@?$_List_nod@UMEM_FRIENDRECORD@CFriendMgr@@V?$allocator@UMEM_FRIENDRECORD@CFriendMgr@@@std@@@2@I@Z 00412a00 f i FriendMgr.obj
 0001:00011a10       ??0const_iterator@?$_Tree@V?$_Tmap_traits@V?$basic_string@DU?$char_traits@D@std@@V?$allocator@D@2@@std@@UPLAYERINFO@CFriendMgr@@U_tstring_less@@V?$allocator@U?$pair@$$CBV?$basic_string@DU?$char_traits@D@std@@V?$allocator@D@2@@std@@UPLAYERINFO@CFriendMgr@@@std@@@2@$0A@@std@@@std@@QAE@PAU_Node@?$_Tree_nod@V?$_Tmap_traits@V?$basic_string@DU?$char_traits@D@std@@V?$allocator@D@2@@std@@UPLAYERINFO@CFriendMgr@@U_tstring_less@@V?$allocator@U?$pair@$$CBV?$basic_string@DU?$char_traits@D@std@@V?$allocator@D@2@@std@@UPLAYERINFO@CFriendMgr@@@std@@@2@$0A@@std@@@2@PBV12@@Z 00412a10 f i FriendMgr.obj
 0001:00011a40       ?_Isnil@?$_Tree@V?$_Tmap_traits@KV?$list@UtagPlusSrcInfo@@V?$allocator@UtagPlusSrcInfo@@@std@@@std@@U?$less@K@2@V?$allocator@U?$pair@$$CBKV?$list@UtagPlusSrcInfo@@V?$allocator@UtagPlusSrcInfo@@@std@@@std@@@std@@@2@$0A@@std@@@std@@KAAADPAU_Node@?$_Tree_nod@V?$_Tmap_traits@KV?$list@UtagPlusSrcInfo@@V?$allocator@UtagPlusSrcInfo@@@std@@@std@@U?$less@K@2@V?$allocator@U?$pair@$$CBKV?$list@UtagPlusSrcInfo@@V?$allocator@UtagPlusSrcInfo@@@std@@@std@@@std@@@2@$0A@@std@@@2@@Z 00412a40 f i FriendMgr.obj
 0001:00011a50       ?_Left@?$_Tree@V?$_Tmap_traits@KV?$list@UtagPlusSrcInfo@@V?$allocator@UtagPlusSrcInfo@@@std@@@std@@U?$less@K@2@V?$allocator@U?$pair@$$CBKV?$list@UtagPlusSrcInfo@@V?$allocator@UtagPlusSrcInfo@@@std@@@std@@@std@@@2@$0A@@std@@@std@@KAAAPAU_Node@?$_Tree_nod@V?$_Tmap_traits@KV?$list@UtagPlusSrcInfo@@V?$allocator@UtagPlusSrcInfo@@@std@@@std@@U?$less@K@2@V?$allocator@U?$pair@$$CBKV?$list@UtagPlusSrcInfo@@V?$allocator@UtagPlusSrcInfo@@@std@@@std@@@std@@@2@$0A@@std@@@2@PAU342@@Z 00412a50 f i FriendMgr.obj
 0001:00011a60       ?_Parent@?$_Tree@V?$_Tmap_traits@KV?$list@UtagPlusSrcInfo@@V?$allocator@UtagPlusSrcInfo@@@std@@@std@@U?$less@K@2@V?$allocator@U?$pair@$$CBKV?$list@UtagPlusSrcInfo@@V?$allocator@UtagPlusSrcInfo@@@std@@@std@@@std@@@2@$0A@@std@@@std@@KAAAPAU_Node@?$_Tree_nod@V?$_Tmap_traits@KV?$list@UtagPlusSrcInfo@@V?$allocator@UtagPlusSrcInfo@@@std@@@std@@U?$less@K@2@V?$allocator@U?$pair@$$CBKV?$list@UtagPlusSrcInfo@@V?$allocator@UtagPlusSrcInfo@@@std@@@std@@@std@@@2@$0A@@std@@@2@PAU342@@Z 00412a60 f i FriendMgr.obj
 0001:00011a70       ?_Right@?$_Tree@V?$_Tmap_traits@KV?$list@UtagPlusSrcInfo@@V?$allocator@UtagPlusSrcInfo@@@std@@@std@@U?$less@K@2@V?$allocator@U?$pair@$$CBKV?$list@UtagPlusSrcInfo@@V?$allocator@UtagPlusSrcInfo@@@std@@@std@@@std@@@2@$0A@@std@@@std@@KAAAPAU_Node@?$_Tree_nod@V?$_Tmap_traits@KV?$list@UtagPlusSrcInfo@@V?$allocator@UtagPlusSrcInfo@@@std@@@std@@U?$less@K@2@V?$allocator@U?$pair@$$CBKV?$list@UtagPlusSrcInfo@@V?$allocator@UtagPlusSrcInfo@@@std@@@std@@@std@@@2@$0A@@std@@@2@PAU342@@Z 00412a70 f i FriendMgr.obj
 0001:00011a80       ?_Myval@?$_Tree@V?$_Tmap_traits@KV?$list@UtagPlusSrcInfo@@V?$allocator@UtagPlusSrcInfo@@@std@@@std@@U?$less@K@2@V?$allocator@U?$pair@$$CBKV?$list@UtagPlusSrcInfo@@V?$allocator@UtagPlusSrcInfo@@@std@@@std@@@std@@@2@$0A@@std@@@std@@KAAAU?$pair@$$CBKV?$list@UtagPlusSrcInfo@@V?$allocator@UtagPlusSrcInfo@@@std@@@std@@@2@PAU_Node@?$_Tree_nod@V?$_Tmap_traits@KV?$list@UtagPlusSrcInfo@@V?$allocator@UtagPlusSrcInfo@@@std@@@std@@U?$less@K@2@V?$allocator@U?$pair@$$CBKV?$list@UtagPlusSrcInfo@@V?$allocator@UtagPlusSrcInfo@@@std@@@std@@@std@@@2@$0A@@std@@@2@@Z 00412a80 f i FriendMgr.obj
 0001:00011a90       ?_Rmost@?$_Tree@V?$_Tmap_traits@KV?$list@UtagPlusSrcInfo@@V?$allocator@UtagPlusSrcInfo@@@std@@@std@@U?$less@K@2@V?$allocator@U?$pair@$$CBKV?$list@UtagPlusSrcInfo@@V?$allocator@UtagPlusSrcInfo@@@std@@@std@@@std@@@2@$0A@@std@@@std@@IBEAAPAU_Node@?$_Tree_nod@V?$_Tmap_traits@KV?$list@UtagPlusSrcInfo@@V?$allocator@UtagPlusSrcInfo@@@std@@@std@@U?$less@K@2@V?$allocator@U?$pair@$$CBKV?$list@UtagPlusSrcInfo@@V?$allocator@UtagPlusSrcInfo@@@std@@@std@@@std@@@2@$0A@@std@@@2@XZ 00412a90 f i FriendMgr.obj
 0001:00011aa0       ?_Kfn@?$_Tmap_traits@KV?$list@UtagPlusSrcInfo@@V?$allocator@UtagPlusSrcInfo@@@std@@@std@@U?$less@K@2@V?$allocator@U?$pair@$$CBKV?$list@UtagPlusSrcInfo@@V?$allocator@UtagPlusSrcInfo@@@std@@@std@@@std@@@2@$0A@@std@@SAABKABU?$pair@$$CBKV?$list@UtagPlusSrcInfo@@V?$allocator@UtagPlusSrcInfo@@@std@@@std@@@2@@Z 00412aa0 f i FriendMgr.obj
 0001:00011ab0       ??0?$allocator@U?$pair@$$CBKV?$list@UtagPlusSrcInfo@@V?$allocator@UtagPlusSrcInfo@@@std@@@std@@@std@@@std@@QAE@ABV01@@Z 00412ab0 f i FriendMgr.obj
 0001:00011ac0       ?deallocate@?$allocator@U_Node@?$_Tree_nod@V?$_Tmap_traits@KV?$list@UtagPlusSrcInfo@@V?$allocator@UtagPlusSrcInfo@@@std@@@std@@U?$less@K@2@V?$allocator@U?$pair@$$CBKV?$list@UtagPlusSrcInfo@@V?$allocator@UtagPlusSrcInfo@@@std@@@std@@@std@@@2@$0A@@std@@@std@@@std@@QAEXPAU_Node@?$_Tree_nod@V?$_Tmap_traits@KV?$list@UtagPlusSrcInfo@@V?$allocator@UtagPlusSrcInfo@@@std@@@std@@U?$less@K@2@V?$allocator@U?$pair@$$CBKV?$list@UtagPlusSrcInfo@@V?$allocator@UtagPlusSrcInfo@@@std@@@std@@@std@@@2@$0A@@std@@@2@I@Z 00412ac0 f i FriendMgr.obj
 0001:00011ad0       ?_Isnil@?$_Tree@V?$_Tmap_traits@V?$basic_string@DU?$char_traits@D@std@@V?$allocator@D@2@@std@@V?$list@U?$pair@EV?$basic_string@DU?$char_traits@D@std@@V?$allocator@D@2@@std@@@std@@V?$allocator@U?$pair@EV?$basic_string@DU?$char_traits@D@std@@V?$allocator@D@2@@std@@@std@@@2@@2@U_tstring_less@@V?$allocator@U?$pair@$$CBV?$basic_string@DU?$char_traits@D@std@@V?$allocator@D@2@@std@@V?$list@U?$pair@EV?$basic_string@DU?$char_traits@D@std@@V?$allocator@D@2@@std@@@std@@V?$allocator@U?$pair@EV?$basic_string@DU?$char_traits@D@std@@V?$allocator@D@2@@std@@@std@@@2@@2@@std@@@2@$0A@@std@@@std@@KAAADPAU_Node@?$_Tree_nod@V?$_Tmap_traits@V?$basic_string@DU?$char_traits@D@std@@V?$allocator@D@2@@std@@V?$list@U?$pair@EV?$basic_string@DU?$char_traits@D@std@@V?$allocator@D@2@@std@@@std@@V?$allocator@U?$pair@EV?$basic_string@DU?$char_traits@D@std@@V?$allocator@D@2@@std@@@std@@@2@@2@U_tstring_less@@V?$allocator@U?$pair@$$CBV?$basic_string@DU?$char_traits@D@std@@V?$allocator@D@2@@std@@V?$list@U?$pair@EV?$basic_string@DU?$char_traits@D@std@@V?$allocator@D@2@@std@@@std@@V?$allocator@U?$pair@EV?$basic_string@DU?$char_traits@D@std@@V?$allocator@D@2@@std@@@std@@@2@@2@@std@@@2@$0A@@std@@@2@@Z 00412ad0 f i FriendMgr.obj
 0001:00011ae0       ?_Left@?$_Tree@V?$_Tmap_traits@V?$basic_string@DU?$char_traits@D@std@@V?$allocator@D@2@@std@@V?$list@U?$pair@EV?$basic_string@DU?$char_traits@D@std@@V?$allocator@D@2@@std@@@std@@V?$allocator@U?$pair@EV?$basic_string@DU?$char_traits@D@std@@V?$allocator@D@2@@std@@@std@@@2@@2@U_tstring_less@@V?$allocator@U?$pair@$$CBV?$basic_string@DU?$char_traits@D@std@@V?$allocator@D@2@@std@@V?$list@U?$pair@EV?$basic_string@DU?$char_traits@D@std@@V?$allocator@D@2@@std@@@std@@V?$allocator@U?$pair@EV?$basic_string@DU?$char_traits@D@std@@V?$allocator@D@2@@std@@@std@@@2@@2@@std@@@2@$0A@@std@@@std@@KAAAPAU_Node@?$_Tree_nod@V?$_Tmap_traits@V?$basic_string@DU?$char_traits@D@std@@V?$allocator@D@2@@std@@V?$list@U?$pair@EV?$basic_string@DU?$char_traits@D@std@@V?$allocator@D@2@@std@@@std@@V?$allocator@U?$pair@EV?$basic_string@DU?$char_traits@D@std@@V?$allocator@D@2@@std@@@std@@@2@@2@U_tstring_less@@V?$allocator@U?$pair@$$CBV?$basic_string@DU?$char_traits@D@std@@V?$allocator@D@2@@std@@V?$list@U?$pair@EV?$basic_string@DU?$char_traits@D@std@@V?$allocator@D@2@@std@@@std@@V?$allocator@U?$pair@EV?$basic_string@DU?$char_traits@D@std@@V?$allocator@D@2@@std@@@std@@@2@@2@@std@@@2@$0A@@std@@@2@PAU342@@Z 00412ae0 f i FriendMgr.obj
 0001:00011af0       ?_Parent@?$_Tree@V?$_Tmap_traits@V?$basic_string@DU?$char_traits@D@std@@V?$allocator@D@2@@std@@V?$list@U?$pair@EV?$basic_string@DU?$char_traits@D@std@@V?$allocator@D@2@@std@@@std@@V?$allocator@U?$pair@EV?$basic_string@DU?$char_traits@D@std@@V?$allocator@D@2@@std@@@std@@@2@@2@U_tstring_less@@V?$allocator@U?$pair@$$CBV?$basic_string@DU?$char_traits@D@std@@V?$allocator@D@2@@std@@V?$list@U?$pair@EV?$basic_string@DU?$char_traits@D@std@@V?$allocator@D@2@@std@@@std@@V?$allocator@U?$pair@EV?$basic_string@DU?$char_traits@D@std@@V?$allocator@D@2@@std@@@std@@@2@@2@@std@@@2@$0A@@std@@@std@@KAAAPAU_Node@?$_Tree_nod@V?$_Tmap_traits@V?$basic_string@DU?$char_traits@D@std@@V?$allocator@D@2@@std@@V?$list@U?$pair@EV?$basic_string@DU?$char_traits@D@std@@V?$allocator@D@2@@std@@@std@@V?$allocator@U?$pair@EV?$basic_string@DU?$char_traits@D@std@@V?$allocator@D@2@@std@@@std@@@2@@2@U_tstring_less@@V?$allocator@U?$pair@$$CBV?$basic_string@DU?$char_traits@D@std@@V?$allocator@D@2@@std@@V?$list@U?$pair@EV?$basic_string@DU?$char_traits@D@std@@V?$allocator@D@2@@std@@@std@@V?$allocator@U?$pair@EV?$basic_string@DU?$char_traits@D@std@@V?$allocator@D@2@@std@@@std@@@2@@2@@std@@@2@$0A@@std@@@2@PAU342@@Z 00412af0 f i FriendMgr.obj
 0001:00011b00       ?_Right@?$_Tree@V?$_Tmap_traits@V?$basic_string@DU?$char_traits@D@std@@V?$allocator@D@2@@std@@V?$list@U?$pair@EV?$basic_string@DU?$char_traits@D@std@@V?$allocator@D@2@@std@@@std@@V?$allocator@U?$pair@EV?$basic_string@DU?$char_traits@D@std@@V?$allocator@D@2@@std@@@std@@@2@@2@U_tstring_less@@V?$allocator@U?$pair@$$CBV?$basic_string@DU?$char_traits@D@std@@V?$allocator@D@2@@std@@V?$list@U?$pair@EV?$basic_string@DU?$char_traits@D@std@@V?$allocator@D@2@@std@@@std@@V?$allocator@U?$pair@EV?$basic_string@DU?$char_traits@D@std@@V?$allocator@D@2@@std@@@std@@@2@@2@@std@@@2@$0A@@std@@@std@@KAAAPAU_Node@?$_Tree_nod@V?$_Tmap_traits@V?$basic_string@DU?$char_traits@D@std@@V?$allocator@D@2@@std@@V?$list@U?$pair@EV?$basic_string@DU?$char_traits@D@std@@V?$allocator@D@2@@std@@@std@@V?$allocator@U?$pair@EV?$basic_string@DU?$char_traits@D@std@@V?$allocator@D@2@@std@@@std@@@2@@2@U_tstring_less@@V?$allocator@U?$pair@$$CBV?$basic_string@DU?$char_traits@D@std@@V?$allocator@D@2@@std@@V?$list@U?$pair@EV?$basic_string@DU?$char_traits@D@std@@V?$allocator@D@2@@std@@@std@@V?$allocator@U?$pair@EV?$basic_string@DU?$char_traits@D@std@@V?$allocator@D@2@@std@@@std@@@2@@2@@std@@@2@$0A@@std@@@2@PAU342@@Z 00412b00 f i FriendMgr.obj
 0001:00011b10       ?_Myval@?$_Tree@V?$_Tmap_traits@V?$basic_string@DU?$char_traits@D@std@@V?$allocator@D@2@@std@@V?$list@U?$pair@EV?$basic_string@DU?$char_traits@D@std@@V?$allocator@D@2@@std@@@std@@V?$allocator@U?$pair@EV?$basic_string@DU?$char_traits@D@std@@V?$allocator@D@2@@std@@@std@@@2@@2@U_tstring_less@@V?$allocator@U?$pair@$$CBV?$basic_string@DU?$char_traits@D@std@@V?$allocator@D@2@@std@@V?$list@U?$pair@EV?$basic_string@DU?$char_traits@D@std@@V?$allocator@D@2@@std@@@std@@V?$allocator@U?$pair@EV?$basic_string@DU?$char_traits@D@std@@V?$allocator@D@2@@std@@@std@@@2@@2@@std@@@2@$0A@@std@@@std@@KAAAU?$pair@$$CBV?$basic_string@DU?$char_traits@D@std@@V?$allocator@D@2@@std@@V?$list@U?$pair@EV?$basic_string@DU?$char_traits@D@std@@V?$allocator@D@2@@std@@@std@@V?$allocator@U?$pair@EV?$basic_string@DU?$char_traits@D@std@@V?$allocator@D@2@@std@@@std@@@2@@2@@2@PAU_Node@?$_Tree_nod@V?$_Tmap_traits@V?$basic_string@DU?$char_traits@D@std@@V?$allocator@D@2@@std@@V?$list@U?$pair@EV?$basic_string@DU?$char_traits@D@std@@V?$allocator@D@2@@std@@@std@@V?$allocator@U?$pair@EV?$basic_string@DU?$char_traits@D@std@@V?$allocator@D@2@@std@@@std@@@2@@2@U_tstring_less@@V?$allocator@U?$pair@$$CBV?$basic_string@DU?$char_traits@D@std@@V?$allocator@D@2@@std@@V?$list@U?$pair@EV?$basic_string@DU?$char_traits@D@std@@V?$allocator@D@2@@std@@@std@@V?$allocator@U?$pair@EV?$basic_string@DU?$char_traits@D@std@@V?$allocator@D@2@@std@@@std@@@2@@2@@std@@@2@$0A@@std@@@2@@Z 00412b10 f i FriendMgr.obj
 0001:00011b20       ?_Rmost@?$_Tree@V?$_Tmap_traits@V?$basic_string@DU?$char_traits@D@std@@V?$allocator@D@2@@std@@V?$list@U?$pair@EV?$basic_string@DU?$char_traits@D@std@@V?$allocator@D@2@@std@@@std@@V?$allocator@U?$pair@EV?$basic_string@DU?$char_traits@D@std@@V?$allocator@D@2@@std@@@std@@@2@@2@U_tstring_less@@V?$allocator@U?$pair@$$CBV?$basic_string@DU?$char_traits@D@std@@V?$allocator@D@2@@std@@V?$list@U?$pair@EV?$basic_string@DU?$char_traits@D@std@@V?$allocator@D@2@@std@@@std@@V?$allocator@U?$pair@EV?$basic_string@DU?$char_traits@D@std@@V?$allocator@D@2@@std@@@std@@@2@@2@@std@@@2@$0A@@std@@@std@@IBEAAPAU_Node@?$_Tree_nod@V?$_Tmap_traits@V?$basic_string@DU?$char_traits@D@std@@V?$allocator@D@2@@std@@V?$list@U?$pair@EV?$basic_string@DU?$char_traits@D@std@@V?$allocator@D@2@@std@@@std@@V?$allocator@U?$pair@EV?$basic_string@DU?$char_traits@D@std@@V?$allocator@D@2@@std@@@std@@@2@@2@U_tstring_less@@V?$allocator@U?$pair@$$CBV?$basic_string@DU?$char_traits@D@std@@V?$allocator@D@2@@std@@V?$list@U?$pair@EV?$basic_string@DU?$char_traits@D@std@@V?$allocator@D@2@@std@@@std@@V?$allocator@U?$pair@EV?$basic_string@DU?$char_traits@D@std@@V?$allocator@D@2@@std@@@std@@@2@@2@@std@@@2@$0A@@std@@@2@XZ 00412b20 f i FriendMgr.obj
 0001:00011b30       ?_Kfn@?$_Tmap_traits@V?$basic_string@DU?$char_traits@D@std@@V?$allocator@D@2@@std@@V?$list@U?$pair@EV?$basic_string@DU?$char_traits@D@std@@V?$allocator@D@2@@std@@@std@@V?$allocator@U?$pair@EV?$basic_string@DU?$char_traits@D@std@@V?$allocator@D@2@@std@@@std@@@2@@2@U_tstring_less@@V?$allocator@U?$pair@$$CBV?$basic_string@DU?$char_traits@D@std@@V?$allocator@D@2@@std@@V?$list@U?$pair@EV?$basic_string@DU?$char_traits@D@std@@V?$allocator@D@2@@std@@@std@@V?$allocator@U?$pair@EV?$basic_string@DU?$char_traits@D@std@@V?$allocator@D@2@@std@@@std@@@2@@2@@std@@@2@$0A@@std@@SAABV?$basic_string@DU?$char_traits@D@std@@V?$allocator@D@2@@2@ABU?$pair@$$CBV?$basic_string@DU?$char_traits@D@std@@V?$allocator@D@2@@std@@V?$list@U?$pair@EV?$basic_string@DU?$char_traits@D@std@@V?$allocator@D@2@@std@@@std@@V?$allocator@U?$pair@EV?$basic_string@DU?$char_traits@D@std@@V?$allocator@D@2@@std@@@std@@@2@@2@@2@@Z 00412b30 f i FriendMgr.obj
 0001:00011b40       ??0?$allocator@U?$pair@$$CBV?$basic_string@DU?$char_traits@D@std@@V?$allocator@D@2@@std@@V?$list@U?$pair@EV?$basic_string@DU?$char_traits@D@std@@V?$allocator@D@2@@std@@@std@@V?$allocator@U?$pair@EV?$basic_string@DU?$char_traits@D@std@@V?$allocator@D@2@@std@@@std@@@2@@2@@std@@@std@@QAE@ABV01@@Z 00412b40 f i FriendMgr.obj
 0001:00011b50       ?deallocate@?$allocator@U_Node@?$_Tree_nod@V?$_Tmap_traits@V?$basic_string@DU?$char_traits@D@std@@V?$allocator@D@2@@std@@V?$list@U?$pair@EV?$basic_string@DU?$char_traits@D@std@@V?$allocator@D@2@@std@@@std@@V?$allocator@U?$pair@EV?$basic_string@DU?$char_traits@D@std@@V?$allocator@D@2@@std@@@std@@@2@@2@U_tstring_less@@V?$allocator@U?$pair@$$CBV?$basic_string@DU?$char_traits@D@std@@V?$allocator@D@2@@std@@V?$list@U?$pair@EV?$basic_string@DU?$char_traits@D@std@@V?$allocator@D@2@@std@@@std@@V?$allocator@U?$pair@EV?$basic_string@DU?$char_traits@D@std@@V?$allocator@D@2@@std@@@std@@@2@@2@@std@@@2@$0A@@std@@@std@@@std@@QAEXPAU_Node@?$_Tree_nod@V?$_Tmap_traits@V?$basic_string@DU?$char_traits@D@std@@V?$allocator@D@2@@std@@V?$list@U?$pair@EV?$basic_string@DU?$char_traits@D@std@@V?$allocator@D@2@@std@@@std@@V?$allocator@U?$pair@EV?$basic_string@DU?$char_traits@D@std@@V?$allocator@D@2@@std@@@std@@@2@@2@U_tstring_less@@V?$allocator@U?$pair@$$CBV?$basic_string@DU?$char_traits@D@std@@V?$allocator@D@2@@std@@V?$list@U?$pair@EV?$basic_string@DU?$char_traits@D@std@@V?$allocator@D@2@@std@@@std@@V?$allocator@U?$pair@EV?$basic_string@DU?$char_traits@D@std@@V?$allocator@D@2@@std@@@std@@@2@@2@@std@@@2@$0A@@std@@@2@I@Z 00412b50 f i FriendMgr.obj
 0001:00011b60       ?_Prevnode@?$list@U?$pair@EV?$basic_string@DU?$char_traits@D@std@@V?$allocator@D@2@@std@@@std@@V?$allocator@U?$pair@EV?$basic_string@DU?$char_traits@D@std@@V?$allocator@D@2@@std@@@std@@@2@@std@@KAAAPAU_Node@?$_List_nod@U?$pair@EV?$basic_string@DU?$char_traits@D@std@@V?$allocator@D@2@@std@@@std@@V?$allocator@U?$pair@EV?$basic_string@DU?$char_traits@D@std@@V?$allocator@D@2@@std@@@std@@@2@@2@PAU342@@Z 00412b60 f i FriendMgr.obj
 0001:00011b70       ?_Myval@?$list@U?$pair@EV?$basic_string@DU?$char_traits@D@std@@V?$allocator@D@2@@std@@@std@@V?$allocator@U?$pair@EV?$basic_string@DU?$char_traits@D@std@@V?$allocator@D@2@@std@@@std@@@2@@std@@KAAAU?$pair@EV?$basic_string@DU?$char_traits@D@std@@V?$allocator@D@2@@std@@@2@PAU_Node@?$_List_nod@U?$pair@EV?$basic_string@DU?$char_traits@D@std@@V?$allocator@D@2@@std@@@std@@V?$allocator@U?$pair@EV?$basic_string@DU?$char_traits@D@std@@V?$allocator@D@2@@std@@@std@@@2@@2@@Z 00412b70 f i FriendMgr.obj
 0001:00011b80       ??0?$allocator@U?$pair@EV?$basic_string@DU?$char_traits@D@std@@V?$allocator@D@2@@std@@@std@@@std@@QAE@XZ 00412b80 f i FriendMgr.obj
 0001:00011b90       ??E?$_Const_iterator@$00@?$list@U?$pair@EV?$basic_string@DU?$char_traits@D@std@@V?$allocator@D@2@@std@@@std@@V?$allocator@U?$pair@EV?$basic_string@DU?$char_traits@D@std@@V?$allocator@D@2@@std@@@std@@@2@@std@@QAEAAV012@XZ 00412b90 f i FriendMgr.obj
 0001:00011bc0       ?_Mynode@?$_Const_iterator@$00@?$list@U?$pair@EV?$basic_string@DU?$char_traits@D@std@@V?$allocator@D@2@@std@@@std@@V?$allocator@U?$pair@EV?$basic_string@DU?$char_traits@D@std@@V?$allocator@D@2@@std@@@std@@@2@@std@@QBEPAU_Node@?$_List_nod@U?$pair@EV?$basic_string@DU?$char_traits@D@std@@V?$allocator@D@2@@std@@@std@@V?$allocator@U?$pair@EV?$basic_string@DU?$char_traits@D@std@@V?$allocator@D@2@@std@@@std@@@2@@3@XZ 00412bc0 f i FriendMgr.obj
 0001:00011bd0       ?_Mynode@?$_Const_iterator@$00@?$list@UMEM_FRIENDRECORD@CFriendMgr@@V?$allocator@UMEM_FRIENDRECORD@CFriendMgr@@@std@@@std@@QBEPAU_Node@?$_List_nod@UMEM_FRIENDRECORD@CFriendMgr@@V?$allocator@UMEM_FRIENDRECORD@CFriendMgr@@@std@@@3@XZ 00412bd0 f i FriendMgr.obj
 0001:00011be0       ?_Prevnode@?$list@UONEPLAYER@CFriendMgr@@V?$allocator@UONEPLAYER@CFriendMgr@@@std@@@std@@KAAAPAU_Node@?$_List_nod@UONEPLAYER@CFriendMgr@@V?$allocator@UONEPLAYER@CFriendMgr@@@std@@@2@PAU342@@Z 00412be0 f i FriendMgr.obj
 0001:00011bf0       ?_Myval@?$list@UONEPLAYER@CFriendMgr@@V?$allocator@UONEPLAYER@CFriendMgr@@@std@@@std@@KAAAUONEPLAYER@CFriendMgr@@PAU_Node@?$_List_nod@UONEPLAYER@CFriendMgr@@V?$allocator@UONEPLAYER@CFriendMgr@@@std@@@2@@Z 00412bf0 f i FriendMgr.obj
 0001:00011c00       ??0?$allocator@UONEPLAYER@CFriendMgr@@@std@@QAE@ABV01@@Z 00412c00 f i FriendMgr.obj
 0001:00011c10       ?deallocate@?$allocator@U_Node@?$_List_nod@UONEPLAYER@CFriendMgr@@V?$allocator@UONEPLAYER@CFriendMgr@@@std@@@std@@@std@@QAEXPAU_Node@?$_List_nod@UONEPLAYER@CFriendMgr@@V?$allocator@UONEPLAYER@CFriendMgr@@@std@@@2@I@Z 00412c10 f i FriendMgr.obj
 0001:00011c20       ?_Prevnode@?$list@V?$basic_string@DU?$char_traits@D@std@@V?$allocator@D@2@@std@@V?$allocator@V?$basic_string@DU?$char_traits@D@std@@V?$allocator@D@2@@std@@@2@@std@@KAAAPAU_Node@?$_List_nod@V?$basic_string@DU?$char_traits@D@std@@V?$allocator@D@2@@std@@V?$allocator@V?$basic_string@DU?$char_traits@D@std@@V?$allocator@D@2@@std@@@2@@2@PAU342@@Z 00412c20 f i FriendMgr.obj
 0001:00011c30       ?_Myval@?$list@V?$basic_string@DU?$char_traits@D@std@@V?$allocator@D@2@@std@@V?$allocator@V?$basic_string@DU?$char_traits@D@std@@V?$allocator@D@2@@std@@@2@@std@@KAAAV?$basic_string@DU?$char_traits@D@std@@V?$allocator@D@2@@2@PAU_Node@?$_List_nod@V?$basic_string@DU?$char_traits@D@std@@V?$allocator@D@2@@std@@V?$allocator@V?$basic_string@DU?$char_traits@D@std@@V?$allocator@D@2@@std@@@2@@2@@Z 00412c30 f i FriendMgr.obj
 0001:00011c40       ?deallocate@?$allocator@U_Node@?$_List_nod@V?$basic_string@DU?$char_traits@D@std@@V?$allocator@D@2@@std@@V?$allocator@V?$basic_string@DU?$char_traits@D@std@@V?$allocator@D@2@@std@@@2@@std@@@std@@QAEXPAU_Node@?$_List_nod@V?$basic_string@DU?$char_traits@D@std@@V?$allocator@D@2@@std@@V?$allocator@V?$basic_string@DU?$char_traits@D@std@@V?$allocator@D@2@@std@@@2@@2@I@Z 00412c40 f i FriendMgr.obj
 0001:00011c50       ??E?$_Const_iterator@$00@?$list@V?$basic_string@DU?$char_traits@D@std@@V?$allocator@D@2@@std@@V?$allocator@V?$basic_string@DU?$char_traits@D@std@@V?$allocator@D@2@@std@@@2@@std@@QAEAAV012@XZ 00412c50 f i FriendMgr.obj
 0001:00011c80       ?_Mynode@?$_Const_iterator@$00@?$list@V?$basic_string@DU?$char_traits@D@std@@V?$allocator@D@2@@std@@V?$allocator@V?$basic_string@DU?$char_traits@D@std@@V?$allocator@D@2@@std@@@2@@std@@QBEPAU_Node@?$_List_nod@V?$basic_string@DU?$char_traits@D@std@@V?$allocator@D@2@@std@@V?$allocator@V?$basic_string@DU?$char_traits@D@std@@V?$allocator@D@2@@std@@@2@@3@XZ 00412c80 f i FriendMgr.obj
 0001:00011c90       ??E?$_Const_iterator@$00@?$list@UONEPLAYER@CFriendMgr@@V?$allocator@UONEPLAYER@CFriendMgr@@@std@@@std@@QAEAAV012@XZ 00412c90 f i FriendMgr.obj
 0001:00011cc0       ??F?$_Const_iterator@$00@?$list@UONEPLAYER@CFriendMgr@@V?$allocator@UONEPLAYER@CFriendMgr@@@std@@@std@@QAEAAV012@XZ 00412cc0 f i FriendMgr.obj
 0001:00011cf0       ?_Mynode@?$_Const_iterator@$00@?$list@UONEPLAYER@CFriendMgr@@V?$allocator@UONEPLAYER@CFriendMgr@@@std@@@std@@QBEPAU_Node@?$_List_nod@UONEPLAYER@CFriendMgr@@V?$allocator@UONEPLAYER@CFriendMgr@@@std@@@3@XZ 00412cf0 f i FriendMgr.obj
 0001:00011d00       ??0?$allocator@Viterator@?$_Tree@V?$_Tmap_traits@V?$basic_string@DU?$char_traits@D@std@@V?$allocator@D@2@@std@@UPLAYERINFO@CFriendMgr@@U_tstring_less@@V?$allocator@U?$pair@$$CBV?$basic_string@DU?$char_traits@D@std@@V?$allocator@D@2@@std@@UPLAYERINFO@CFriendMgr@@@std@@@2@$0A@@std@@@std@@@std@@QAE@ABV01@@Z 00412d00 f i FriendMgr.obj
 0001:00011d10       ?deallocate@?$allocator@Viterator@?$_Tree@V?$_Tmap_traits@V?$basic_string@DU?$char_traits@D@std@@V?$allocator@D@2@@std@@UPLAYERINFO@CFriendMgr@@U_tstring_less@@V?$allocator@U?$pair@$$CBV?$basic_string@DU?$char_traits@D@std@@V?$allocator@D@2@@std@@UPLAYERINFO@CFriendMgr@@@std@@@2@$0A@@std@@@std@@@std@@QAEXPAViterator@?$_Tree@V?$_Tmap_traits@V?$basic_string@DU?$char_traits@D@std@@V?$allocator@D@2@@std@@UPLAYERINFO@CFriendMgr@@U_tstring_less@@V?$allocator@U?$pair@$$CBV?$basic_string@DU?$char_traits@D@std@@V?$allocator@D@2@@std@@UPLAYERINFO@CFriendMgr@@@std@@@2@$0A@@std@@@2@I@Z 00412d10 f i FriendMgr.obj
 0001:00011d20       ??0?$pair@Viterator@?$_Tree@V?$_Tmap_traits@V?$basic_string@DU?$char_traits@D@std@@V?$allocator@D@2@@std@@UFRIENDINFO@CFriendMgr@@U_tstring_less@@V?$allocator@U?$pair@$$CBV?$basic_string@DU?$char_traits@D@std@@V?$allocator@D@2@@std@@UFRIENDINFO@CFriendMgr@@@std@@@2@$0A@@std@@@std@@V123@@std@@QAE@ABViterator@?$_Tree@V?$_Tmap_traits@V?$basic_string@DU?$char_traits@D@std@@V?$allocator@D@2@@std@@UFRIENDINFO@CFriendMgr@@U_tstring_less@@V?$allocator@U?$pair@$$CBV?$basic_string@DU?$char_traits@D@std@@V?$allocator@D@2@@std@@UFRIENDINFO@CFriendMgr@@@std@@@2@$0A@@std@@@1@0@Z 00412d20 f i FriendMgr.obj
 0001:00011d50       ??0?$_Bidit@U?$pair@$$CBV?$basic_string@DU?$char_traits@D@std@@V?$allocator@D@2@@std@@UFRIENDINFO@CFriendMgr@@@std@@HPBU12@ABU12@@std@@QAE@XZ 00412d50 f i FriendMgr.obj
 0001:00011d60       ??0?$_Bidit@U?$pair@$$CBKV?$list@UtagPlusSrcInfo@@V?$allocator@UtagPlusSrcInfo@@@std@@@std@@@std@@HPBU12@ABU12@@std@@QAE@XZ 00412d60 f i FriendMgr.obj
 0001:00011d70       ??0?$_Bidit@U?$pair@$$CBV?$basic_string@DU?$char_traits@D@std@@V?$allocator@D@2@@std@@V?$list@U?$pair@EV?$basic_string@DU?$char_traits@D@std@@V?$allocator@D@2@@std@@@std@@V?$allocator@U?$pair@EV?$basic_string@DU?$char_traits@D@std@@V?$allocator@D@2@@std@@@std@@@2@@2@@std@@HPBU12@ABU12@@std@@QAE@XZ 00412d70 f i FriendMgr.obj
 0001:00011d80       ??0?$_Bidit@U?$pair@EV?$basic_string@DU?$char_traits@D@std@@V?$allocator@D@2@@std@@@std@@HPBU12@ABU12@@std@@QAE@XZ 00412d80 f i FriendMgr.obj
 0001:00011d90       ??0?$_Bidit@U?$pair@$$CBUADDFRIENDKEY@CFriendMgr@@UADDFRIENDVALUE@2@@std@@HPBU12@ABU12@@std@@QAE@XZ 00412d90 f i FriendMgr.obj
 0001:00011da0       ??0?$_Bidit@V?$basic_string@DU?$char_traits@D@std@@V?$allocator@D@2@@std@@HPBV12@ABV12@@std@@QAE@XZ 00412da0 f i FriendMgr.obj
 0001:00011db0       ??0?$_Bidit@UONEPLAYER@CFriendMgr@@HPBU12@ABU12@@std@@QAE@XZ 00412db0 f i FriendMgr.obj
 0001:00011dc0       ?max_size@?$allocator@U?$pair@$$CBV?$basic_string@DU?$char_traits@D@std@@V?$allocator@D@2@@std@@UFRIENDINFO@CFriendMgr@@@std@@@std@@QBEIXZ 00412dc0 f i FriendMgr.obj
 0001:00011dd0       ?_Max@?$_Tree@V?$_Tmap_traits@V?$basic_string@DU?$char_traits@D@std@@V?$allocator@D@2@@std@@UPLAYERINFO@CFriendMgr@@U_tstring_less@@V?$allocator@U?$pair@$$CBV?$basic_string@DU?$char_traits@D@std@@V?$allocator@D@2@@std@@UPLAYERINFO@CFriendMgr@@@std@@@2@$0A@@std@@@std@@KAPAU_Node@?$_Tree_nod@V?$_Tmap_traits@V?$basic_string@DU?$char_traits@D@std@@V?$allocator@D@2@@std@@UPLAYERINFO@CFriendMgr@@U_tstring_less@@V?$allocator@U?$pair@$$CBV?$basic_string@DU?$char_traits@D@std@@V?$allocator@D@2@@std@@UPLAYERINFO@CFriendMgr@@@std@@@2@$0A@@std@@@2@PAU342@@Z 00412dd0 f i FriendMgr.obj
 0001:00011df0       ?_Min@?$_Tree@V?$_Tmap_traits@V?$basic_string@DU?$char_traits@D@std@@V?$allocator@D@2@@std@@UPLAYERINFO@CFriendMgr@@U_tstring_less@@V?$allocator@U?$pair@$$CBV?$basic_string@DU?$char_traits@D@std@@V?$allocator@D@2@@std@@UPLAYERINFO@CFriendMgr@@@std@@@2@$0A@@std@@@std@@KAPAU_Node@?$_Tree_nod@V?$_Tmap_traits@V?$basic_string@DU?$char_traits@D@std@@V?$allocator@D@2@@std@@UPLAYERINFO@CFriendMgr@@U_tstring_less@@V?$allocator@U?$pair@$$CBV?$basic_string@DU?$char_traits@D@std@@V?$allocator@D@2@@std@@UPLAYERINFO@CFriendMgr@@@std@@@2@$0A@@std@@@2@PAU342@@Z 00412df0 f i FriendMgr.obj
 0001:00011e10       ?max_size@?$allocator@U?$pair@$$CBV?$basic_string@DU?$char_traits@D@std@@V?$allocator@D@2@@std@@UPLAYERINFO@CFriendMgr@@@std@@@std@@QBEIXZ 00412e10 f i FriendMgr.obj
 0001:00011e20       ?_Color@?$_Tree@V?$_Tmap_traits@KV?$list@UtagPlusSrcInfo@@V?$allocator@UtagPlusSrcInfo@@@std@@@std@@U?$less@K@2@V?$allocator@U?$pair@$$CBKV?$list@UtagPlusSrcInfo@@V?$allocator@UtagPlusSrcInfo@@@std@@@std@@@std@@@2@$0A@@std@@@std@@KAAADPAU_Node@?$_Tree_nod@V?$_Tmap_traits@KV?$list@UtagPlusSrcInfo@@V?$allocator@UtagPlusSrcInfo@@@std@@@std@@U?$less@K@2@V?$allocator@U?$pair@$$CBKV?$list@UtagPlusSrcInfo@@V?$allocator@UtagPlusSrcInfo@@@std@@@std@@@std@@@2@$0A@@std@@@2@@Z 00412e20 f i FriendMgr.obj
 0001:00011e30       ?_Root@?$_Tree@V?$_Tmap_traits@KV?$list@UtagPlusSrcInfo@@V?$allocator@UtagPlusSrcInfo@@@std@@@std@@U?$less@K@2@V?$allocator@U?$pair@$$CBKV?$list@UtagPlusSrcInfo@@V?$allocator@UtagPlusSrcInfo@@@std@@@std@@@std@@@2@$0A@@std@@@std@@IBEAAPAU_Node@?$_Tree_nod@V?$_Tmap_traits@KV?$list@UtagPlusSrcInfo@@V?$allocator@UtagPlusSrcInfo@@@std@@@std@@U?$less@K@2@V?$allocator@U?$pair@$$CBKV?$list@UtagPlusSrcInfo@@V?$allocator@UtagPlusSrcInfo@@@std@@@std@@@std@@@2@$0A@@std@@@2@XZ 00412e30 f i FriendMgr.obj
 0001:00011e40       ?_Rrotate@?$_Tree@V?$_Tmap_traits@KV?$list@UtagPlusSrcInfo@@V?$allocator@UtagPlusSrcInfo@@@std@@@std@@U?$less@K@2@V?$allocator@U?$pair@$$CBKV?$list@UtagPlusSrcInfo@@V?$allocator@UtagPlusSrcInfo@@@std@@@std@@@std@@@2@$0A@@std@@@std@@IAEXPAU_Node@?$_Tree_nod@V?$_Tmap_traits@KV?$list@UtagPlusSrcInfo@@V?$allocator@UtagPlusSrcInfo@@@std@@@std@@U?$less@K@2@V?$allocator@U?$pair@$$CBKV?$list@UtagPlusSrcInfo@@V?$allocator@UtagPlusSrcInfo@@@std@@@std@@@std@@@2@$0A@@std@@@2@@Z 00412e40 f i FriendMgr.obj
 0001:00011ea0       ??0const_iterator@?$_Tree@V?$_Tmap_traits@V?$basic_string@DU?$char_traits@D@std@@V?$allocator@D@2@@std@@UFRIENDINFO@CFriendMgr@@U_tstring_less@@V?$allocator@U?$pair@$$CBV?$basic_string@DU?$char_traits@D@std@@V?$allocator@D@2@@std@@UFRIENDINFO@CFriendMgr@@@std@@@2@$0A@@std@@@std@@QAE@XZ 00412ea0 f i FriendMgr.obj
 0001:00011eb0       ?_Dec@const_iterator@?$_Tree@V?$_Tmap_traits@V?$basic_string@DU?$char_traits@D@std@@V?$allocator@D@2@@std@@UFRIENDINFO@CFriendMgr@@U_tstring_less@@V?$allocator@U?$pair@$$CBV?$basic_string@DU?$char_traits@D@std@@V?$allocator@D@2@@std@@UFRIENDINFO@CFriendMgr@@@std@@@2@$0A@@std@@@std@@QAEXXZ 00412eb0 f i FriendMgr.obj
 0001:00011f40       ?_Inc@const_iterator@?$_Tree@V?$_Tmap_traits@V?$basic_string@DU?$char_traits@D@std@@V?$allocator@D@2@@std@@UFRIENDINFO@CFriendMgr@@U_tstring_less@@V?$allocator@U?$pair@$$CBV?$basic_string@DU?$char_traits@D@std@@V?$allocator@D@2@@std@@UFRIENDINFO@CFriendMgr@@@std@@@2@$0A@@std@@@std@@QAEXXZ 00412f40 f i FriendMgr.obj
 0001:00011fb0       ??0const_iterator@?$_Tree@V?$_Tmap_traits@KV?$list@UtagPlusSrcInfo@@V?$allocator@UtagPlusSrcInfo@@@std@@@std@@U?$less@K@2@V?$allocator@U?$pair@$$CBKV?$list@UtagPlusSrcInfo@@V?$allocator@UtagPlusSrcInfo@@@std@@@std@@@std@@@2@$0A@@std@@@std@@QAE@XZ 00412fb0 f i FriendMgr.obj
 0001:00011fc0       ?_Color@?$_Tree@V?$_Tmap_traits@V?$basic_string@DU?$char_traits@D@std@@V?$allocator@D@2@@std@@V?$list@U?$pair@EV?$basic_string@DU?$char_traits@D@std@@V?$allocator@D@2@@std@@@std@@V?$allocator@U?$pair@EV?$basic_string@DU?$char_traits@D@std@@V?$allocator@D@2@@std@@@std@@@2@@2@U_tstring_less@@V?$allocator@U?$pair@$$CBV?$basic_string@DU?$char_traits@D@std@@V?$allocator@D@2@@std@@V?$list@U?$pair@EV?$basic_string@DU?$char_traits@D@std@@V?$allocator@D@2@@std@@@std@@V?$allocator@U?$pair@EV?$basic_string@DU?$char_traits@D@std@@V?$allocator@D@2@@std@@@std@@@2@@2@@std@@@2@$0A@@std@@@std@@KAAADPAU_Node@?$_Tree_nod@V?$_Tmap_traits@V?$basic_string@DU?$char_traits@D@std@@V?$allocator@D@2@@std@@V?$list@U?$pair@EV?$basic_string@DU?$char_traits@D@std@@V?$allocator@D@2@@std@@@std@@V?$allocator@U?$pair@EV?$basic_string@DU?$char_traits@D@std@@V?$allocator@D@2@@std@@@std@@@2@@2@U_tstring_less@@V?$allocator@U?$pair@$$CBV?$basic_string@DU?$char_traits@D@std@@V?$allocator@D@2@@std@@V?$list@U?$pair@EV?$basic_string@DU?$char_traits@D@std@@V?$allocator@D@2@@std@@@std@@V?$allocator@U?$pair@EV?$basic_string@DU?$char_traits@D@std@@V?$allocator@D@2@@std@@@std@@@2@@2@@std@@@2@$0A@@std@@@2@@Z 00412fc0 f i FriendMgr.obj
 0001:00011fd0       ?_Root@?$_Tree@V?$_Tmap_traits@V?$basic_string@DU?$char_traits@D@std@@V?$allocator@D@2@@std@@V?$list@U?$pair@EV?$basic_string@DU?$char_traits@D@std@@V?$allocator@D@2@@std@@@std@@V?$allocator@U?$pair@EV?$basic_string@DU?$char_traits@D@std@@V?$allocator@D@2@@std@@@std@@@2@@2@U_tstring_less@@V?$allocator@U?$pair@$$CBV?$basic_string@DU?$char_traits@D@std@@V?$allocator@D@2@@std@@V?$list@U?$pair@EV?$basic_string@DU?$char_traits@D@std@@V?$allocator@D@2@@std@@@std@@V?$allocator@U?$pair@EV?$basic_string@DU?$char_traits@D@std@@V?$allocator@D@2@@std@@@std@@@2@@2@@std@@@2@$0A@@std@@@std@@IBEAAPAU_Node@?$_Tree_nod@V?$_Tmap_traits@V?$basic_string@DU?$char_traits@D@std@@V?$allocator@D@2@@std@@V?$list@U?$pair@EV?$basic_string@DU?$char_traits@D@std@@V?$allocator@D@2@@std@@@std@@V?$allocator@U?$pair@EV?$basic_string@DU?$char_traits@D@std@@V?$allocator@D@2@@std@@@std@@@2@@2@U_tstring_less@@V?$allocator@U?$pair@$$CBV?$basic_string@DU?$char_traits@D@std@@V?$allocator@D@2@@std@@V?$list@U?$pair@EV?$basic_string@DU?$char_traits@D@std@@V?$allocator@D@2@@std@@@std@@V?$allocator@U?$pair@EV?$basic_string@DU?$char_traits@D@std@@V?$allocator@D@2@@std@@@std@@@2@@2@@std@@@2@$0A@@std@@@2@XZ 00412fd0 f i FriendMgr.obj
 0001:00011fe0       ?_Rrotate@?$_Tree@V?$_Tmap_traits@V?$basic_string@DU?$char_traits@D@std@@V?$allocator@D@2@@std@@V?$list@U?$pair@EV?$basic_string@DU?$char_traits@D@std@@V?$allocator@D@2@@std@@@std@@V?$allocator@U?$pair@EV?$basic_string@DU?$char_traits@D@std@@V?$allocator@D@2@@std@@@std@@@2@@2@U_tstring_less@@V?$allocator@U?$pair@$$CBV?$basic_string@DU?$char_traits@D@std@@V?$allocator@D@2@@std@@V?$list@U?$pair@EV?$basic_string@DU?$char_traits@D@std@@V?$allocator@D@2@@std@@@std@@V?$allocator@U?$pair@EV?$basic_string@DU?$char_traits@D@std@@V?$allocator@D@2@@std@@@std@@@2@@2@@std@@@2@$0A@@std@@@std@@IAEXPAU_Node@?$_Tree_nod@V?$_Tmap_traits@V?$basic_string@DU?$char_traits@D@std@@V?$allocator@D@2@@std@@V?$list@U?$pair@EV?$basic_string@DU?$char_traits@D@std@@V?$allocator@D@2@@std@@@std@@V?$allocator@U?$pair@EV?$basic_string@DU?$char_traits@D@std@@V?$allocator@D@2@@std@@@std@@@2@@2@U_tstring_less@@V?$allocator@U?$pair@$$CBV?$basic_string@DU?$char_traits@D@std@@V?$allocator@D@2@@std@@V?$list@U?$pair@EV?$basic_string@DU?$char_traits@D@std@@V?$allocator@D@2@@std@@@std@@V?$allocator@U?$pair@EV?$basic_string@DU?$char_traits@D@std@@V?$allocator@D@2@@std@@@std@@@2@@2@@std@@@2@$0A@@std@@@2@@Z 00412fe0 f i FriendMgr.obj
 0001:00012040       ??0?$allocator@U?$pair@EV?$basic_string@DU?$char_traits@D@std@@V?$allocator@D@2@@std@@@std@@@std@@QAE@ABV01@@Z 00413040 f i FriendMgr.obj
 0001:00012050       ?deallocate@?$allocator@U_Node@?$_List_nod@U?$pair@EV?$basic_string@DU?$char_traits@D@std@@V?$allocator@D@2@@std@@@std@@V?$allocator@U?$pair@EV?$basic_string@DU?$char_traits@D@std@@V?$allocator@D@2@@std@@@std@@@2@@std@@@std@@QAEXPAU_Node@?$_List_nod@U?$pair@EV?$basic_string@DU?$char_traits@D@std@@V?$allocator@D@2@@std@@@std@@V?$allocator@U?$pair@EV?$basic_string@DU?$char_traits@D@std@@V?$allocator@D@2@@std@@@std@@@2@@2@I@Z 00413050 f i FriendMgr.obj
 0001:00012060       ??0const_iterator@?$_Tree@V?$_Tmap_traits@V?$basic_string@DU?$char_traits@D@std@@V?$allocator@D@2@@std@@V?$list@U?$pair@EV?$basic_string@DU?$char_traits@D@std@@V?$allocator@D@2@@std@@@std@@V?$allocator@U?$pair@EV?$basic_string@DU?$char_traits@D@std@@V?$allocator@D@2@@std@@@std@@@2@@2@U_tstring_less@@V?$allocator@U?$pair@$$CBV?$basic_string@DU?$char_traits@D@std@@V?$allocator@D@2@@std@@V?$list@U?$pair@EV?$basic_string@DU?$char_traits@D@std@@V?$allocator@D@2@@std@@@std@@V?$allocator@U?$pair@EV?$basic_string@DU?$char_traits@D@std@@V?$allocator@D@2@@std@@@std@@@2@@2@@std@@@2@$0A@@std@@@std@@QAE@XZ 00413060 f i FriendMgr.obj
 0001:00012070       ??0const_iterator@?$_Tree@V?$_Tmap_traits@UADDFRIENDKEY@CFriendMgr@@UADDFRIENDVALUE@2@U?$less@UADDFRIENDKEY@CFriendMgr@@@std@@V?$allocator@U?$pair@$$CBUADDFRIENDKEY@CFriendMgr@@UADDFRIENDVALUE@2@@std@@@5@$0A@@std@@@std@@QAE@XZ 00413070 f i FriendMgr.obj
 0001:00012080       ??9const_iterator@?$_Tree@V?$_Tmap_traits@UADDFRIENDKEY@CFriendMgr@@UADDFRIENDVALUE@2@U?$less@UADDFRIENDKEY@CFriendMgr@@@std@@V?$allocator@U?$pair@$$CBUADDFRIENDKEY@CFriendMgr@@UADDFRIENDVALUE@2@@std@@@5@$0A@@std@@@std@@QBE_NABV012@@Z 00413080 f i FriendMgr.obj
 0001:000120b0       ?_Inc@const_iterator@?$_Tree@V?$_Tmap_traits@UADDFRIENDKEY@CFriendMgr@@UADDFRIENDVALUE@2@U?$less@UADDFRIENDKEY@CFriendMgr@@@std@@V?$allocator@U?$pair@$$CBUADDFRIENDKEY@CFriendMgr@@UADDFRIENDVALUE@2@@std@@@5@$0A@@std@@@std@@QAEXXZ 004130b0 f i FriendMgr.obj
 0001:00012120       ?max_size@?$allocator@Viterator@?$_Tree@V?$_Tmap_traits@V?$basic_string@DU?$char_traits@D@std@@V?$allocator@D@2@@std@@UPLAYERINFO@CFriendMgr@@U_tstring_less@@V?$allocator@U?$pair@$$CBV?$basic_string@DU?$char_traits@D@std@@V?$allocator@D@2@@std@@UPLAYERINFO@CFriendMgr@@@std@@@2@$0A@@std@@@std@@@std@@QBEIXZ 00413120 f i FriendMgr.obj
 0001:00012130       ??G?$_Vector_const_iterator@Viterator@?$_Tree@V?$_Tmap_traits@V?$basic_string@DU?$char_traits@D@std@@V?$allocator@D@2@@std@@UPLAYERINFO@CFriendMgr@@U_tstring_less@@V?$allocator@U?$pair@$$CBV?$basic_string@DU?$char_traits@D@std@@V?$allocator@D@2@@std@@UPLAYERINFO@CFriendMgr@@@std@@@2@$0A@@std@@@std@@V?$allocator@Viterator@?$_Tree@V?$_Tmap_traits@V?$basic_string@DU?$char_traits@D@std@@V?$allocator@D@2@@std@@UPLAYERINFO@CFriendMgr@@U_tstring_less@@V?$allocator@U?$pair@$$CBV?$basic_string@DU?$char_traits@D@std@@V?$allocator@D@2@@std@@UPLAYERINFO@CFriendMgr@@@std@@@2@$0A@@std@@@std@@@3@@std@@QBEHABV01@@Z 00413130 f i FriendMgr.obj
 0001:00012160       ??0?$pair@Viterator@?$_Tree@V?$_Tmap_traits@UADDFRIENDKEY@CFriendMgr@@UADDFRIENDVALUE@2@U?$less@UADDFRIENDKEY@CFriendMgr@@@std@@V?$allocator@U?$pair@$$CBUADDFRIENDKEY@CFriendMgr@@UADDFRIENDVALUE@2@@std@@@5@$0A@@std@@@std@@_N@std@@QAE@ABViterator@?$_Tree@V?$_Tmap_traits@UADDFRIENDKEY@CFriendMgr@@UADDFRIENDVALUE@2@U?$less@UADDFRIENDKEY@CFriendMgr@@@std@@V?$allocator@U?$pair@$$CBUADDFRIENDKEY@CFriendMgr@@UADDFRIENDVALUE@2@@std@@@5@$0A@@std@@@1@AB_N@Z 00413160 f i FriendMgr.obj
 0001:00012180       ??0?$pair@Viterator@?$_Tree@V?$_Tmap_traits@KV?$list@UtagPlusSrcInfo@@V?$allocator@UtagPlusSrcInfo@@@std@@@std@@U?$less@K@2@V?$allocator@U?$pair@$$CBKV?$list@UtagPlusSrcInfo@@V?$allocator@UtagPlusSrcInfo@@@std@@@std@@@std@@@2@$0A@@std@@@std@@_N@std@@QAE@ABViterator@?$_Tree@V?$_Tmap_traits@KV?$list@UtagPlusSrcInfo@@V?$allocator@UtagPlusSrcInfo@@@std@@@std@@U?$less@K@2@V?$allocator@U?$pair@$$CBKV?$list@UtagPlusSrcInfo@@V?$allocator@UtagPlusSrcInfo@@@std@@@std@@@std@@@2@$0A@@std@@@1@AB_N@Z 00413180 f i FriendMgr.obj
 0001:000121a0       ??0?$pair@Viterator@?$_Tree@V?$_Tmap_traits@V?$basic_string@DU?$char_traits@D@std@@V?$allocator@D@2@@std@@V?$list@U?$pair@EV?$basic_string@DU?$char_traits@D@std@@V?$allocator@D@2@@std@@@std@@V?$allocator@U?$pair@EV?$basic_string@DU?$char_traits@D@std@@V?$allocator@D@2@@std@@@std@@@2@@2@U_tstring_less@@V?$allocator@U?$pair@$$CBV?$basic_string@DU?$char_traits@D@std@@V?$allocator@D@2@@std@@V?$list@U?$pair@EV?$basic_string@DU?$char_traits@D@std@@V?$allocator@D@2@@std@@@std@@V?$allocator@U?$pair@EV?$basic_string@DU?$char_traits@D@std@@V?$allocator@D@2@@std@@@std@@@2@@2@@std@@@2@$0A@@std@@@std@@_N@std@@QAE@ABViterator@?$_Tree@V?$_Tmap_traits@V?$basic_string@DU?$char_traits@D@std@@V?$allocator@D@2@@std@@V?$list@U?$pair@EV?$basic_string@DU?$char_traits@D@std@@V?$allocator@D@2@@std@@@std@@V?$allocator@U?$pair@EV?$basic_string@DU?$char_traits@D@std@@V?$allocator@D@2@@std@@@std@@@2@@2@U_tstring_less@@V?$allocator@U?$pair@$$CBV?$basic_string@DU?$char_traits@D@std@@V?$allocator@D@2@@std@@V?$list@U?$pair@EV?$basic_string@DU?$char_traits@D@std@@V?$allocator@D@2@@std@@@std@@V?$allocator@U?$pair@EV?$basic_string@DU?$char_traits@D@std@@V?$allocator@D@2@@std@@@std@@@2@@2@@std@@@2@$0A@@std@@@1@AB_N@Z 004131a0 f i FriendMgr.obj
 0001:000121c0       ??0?$_Ranit@Viterator@?$_Tree@V?$_Tmap_traits@V?$basic_string@DU?$char_traits@D@std@@V?$allocator@D@2@@std@@UPLAYERINFO@CFriendMgr@@U_tstring_less@@V?$allocator@U?$pair@$$CBV?$basic_string@DU?$char_traits@D@std@@V?$allocator@D@2@@std@@UPLAYERINFO@CFriendMgr@@@std@@@2@$0A@@std@@@std@@HPBV123@ABV123@@std@@QAE@XZ 004131c0 f i FriendMgr.obj
 0001:000121d0       ?max_size@?$allocator@V?$basic_string@DU?$char_traits@D@std@@V?$allocator@D@2@@std@@@std@@QBEIXZ 004131d0 f i FriendMgr.obj
 0001:000121e0       ?max_size@?$allocator@U?$pair@$$CBUADDFRIENDKEY@CFriendMgr@@UADDFRIENDVALUE@2@@std@@@std@@QBEIXZ 004131e0 f i FriendMgr.obj
 0001:000121f0       ?max_size@?$allocator@UMEM_FRIENDRECORD@CFriendMgr@@@std@@QBEIXZ 004131f0 f i FriendMgr.obj
 0001:00012200       ?_Max@?$_Tree@V?$_Tmap_traits@KV?$list@UtagPlusSrcInfo@@V?$allocator@UtagPlusSrcInfo@@@std@@@std@@U?$less@K@2@V?$allocator@U?$pair@$$CBKV?$list@UtagPlusSrcInfo@@V?$allocator@UtagPlusSrcInfo@@@std@@@std@@@std@@@2@$0A@@std@@@std@@KAPAU_Node@?$_Tree_nod@V?$_Tmap_traits@KV?$list@UtagPlusSrcInfo@@V?$allocator@UtagPlusSrcInfo@@@std@@@std@@U?$less@K@2@V?$allocator@U?$pair@$$CBKV?$list@UtagPlusSrcInfo@@V?$allocator@UtagPlusSrcInfo@@@std@@@std@@@std@@@2@$0A@@std@@@2@PAU342@@Z 00413200 f i FriendMgr.obj
 0001:00012220       ?_Min@?$_Tree@V?$_Tmap_traits@KV?$list@UtagPlusSrcInfo@@V?$allocator@UtagPlusSrcInfo@@@std@@@std@@U?$less@K@2@V?$allocator@U?$pair@$$CBKV?$list@UtagPlusSrcInfo@@V?$allocator@UtagPlusSrcInfo@@@std@@@std@@@std@@@2@$0A@@std@@@std@@KAPAU_Node@?$_Tree_nod@V?$_Tmap_traits@KV?$list@UtagPlusSrcInfo@@V?$allocator@UtagPlusSrcInfo@@@std@@@std@@U?$less@K@2@V?$allocator@U?$pair@$$CBKV?$list@UtagPlusSrcInfo@@V?$allocator@UtagPlusSrcInfo@@@std@@@std@@@std@@@2@$0A@@std@@@2@PAU342@@Z 00413220 f i FriendMgr.obj
 0001:00012240       ?max_size@?$allocator@U?$pair@$$CBKV?$list@UtagPlusSrcInfo@@V?$allocator@UtagPlusSrcInfo@@@std@@@std@@@std@@@std@@QBEIXZ 00413240 f i FriendMgr.obj
 0001:00012250       ?_Dec@const_iterator@?$_Tree@V?$_Tmap_traits@KV?$list@UtagPlusSrcInfo@@V?$allocator@UtagPlusSrcInfo@@@std@@@std@@U?$less@K@2@V?$allocator@U?$pair@$$CBKV?$list@UtagPlusSrcInfo@@V?$allocator@UtagPlusSrcInfo@@@std@@@std@@@std@@@2@$0A@@std@@@std@@QAEXXZ 00413250 f i FriendMgr.obj
 0001:000122e0       ?_Max@?$_Tree@V?$_Tmap_traits@V?$basic_string@DU?$char_traits@D@std@@V?$allocator@D@2@@std@@V?$list@U?$pair@EV?$basic_string@DU?$char_traits@D@std@@V?$allocator@D@2@@std@@@std@@V?$allocator@U?$pair@EV?$basic_string@DU?$char_traits@D@std@@V?$allocator@D@2@@std@@@std@@@2@@2@U_tstring_less@@V?$allocator@U?$pair@$$CBV?$basic_string@DU?$char_traits@D@std@@V?$allocator@D@2@@std@@V?$list@U?$pair@EV?$basic_string@DU?$char_traits@D@std@@V?$allocator@D@2@@std@@@std@@V?$allocator@U?$pair@EV?$basic_string@DU?$char_traits@D@std@@V?$allocator@D@2@@std@@@std@@@2@@2@@std@@@2@$0A@@std@@@std@@KAPAU_Node@?$_Tree_nod@V?$_Tmap_traits@V?$basic_string@DU?$char_traits@D@std@@V?$allocator@D@2@@std@@V?$list@U?$pair@EV?$basic_string@DU?$char_traits@D@std@@V?$allocator@D@2@@std@@@std@@V?$allocator@U?$pair@EV?$basic_string@DU?$char_traits@D@std@@V?$allocator@D@2@@std@@@std@@@2@@2@U_tstring_less@@V?$allocator@U?$pair@$$CBV?$basic_string@DU?$char_traits@D@std@@V?$allocator@D@2@@std@@V?$list@U?$pair@EV?$basic_string@DU?$char_traits@D@std@@V?$allocator@D@2@@std@@@std@@V?$allocator@U?$pair@EV?$basic_string@DU?$char_traits@D@std@@V?$allocator@D@2@@std@@@std@@@2@@2@@std@@@2@$0A@@std@@@2@PAU342@@Z 004132e0 f i FriendMgr.obj
 0001:00012300       ?_Min@?$_Tree@V?$_Tmap_traits@V?$basic_string@DU?$char_traits@D@std@@V?$allocator@D@2@@std@@V?$list@U?$pair@EV?$basic_string@DU?$char_traits@D@std@@V?$allocator@D@2@@std@@@std@@V?$allocator@U?$pair@EV?$basic_string@DU?$char_traits@D@std@@V?$allocator@D@2@@std@@@std@@@2@@2@U_tstring_less@@V?$allocator@U?$pair@$$CBV?$basic_string@DU?$char_traits@D@std@@V?$allocator@D@2@@std@@V?$list@U?$pair@EV?$basic_string@DU?$char_traits@D@std@@V?$allocator@D@2@@std@@@std@@V?$allocator@U?$pair@EV?$basic_string@DU?$char_traits@D@std@@V?$allocator@D@2@@std@@@std@@@2@@2@@std@@@2@$0A@@std@@@std@@KAPAU_Node@?$_Tree_nod@V?$_Tmap_traits@V?$basic_string@DU?$char_traits@D@std@@V?$allocator@D@2@@std@@V?$list@U?$pair@EV?$basic_string@DU?$char_traits@D@std@@V?$allocator@D@2@@std@@@std@@V?$allocator@U?$pair@EV?$basic_string@DU?$char_traits@D@std@@V?$allocator@D@2@@std@@@std@@@2@@2@U_tstring_less@@V?$allocator@U?$pair@$$CBV?$basic_string@DU?$char_traits@D@std@@V?$allocator@D@2@@std@@V?$list@U?$pair@EV?$basic_string@DU?$char_traits@D@std@@V?$allocator@D@2@@std@@@std@@V?$allocator@U?$pair@EV?$basic_string@DU?$char_traits@D@std@@V?$allocator@D@2@@std@@@std@@@2@@2@@std@@@2@$0A@@std@@@2@PAU342@@Z 00413300 f i FriendMgr.obj
 0001:00012320       ?max_size@?$allocator@U?$pair@$$CBV?$basic_string@DU?$char_traits@D@std@@V?$allocator@D@2@@std@@V?$list@U?$pair@EV?$basic_string@DU?$char_traits@D@std@@V?$allocator@D@2@@std@@@std@@V?$allocator@U?$pair@EV?$basic_string@DU?$char_traits@D@std@@V?$allocator@D@2@@std@@@std@@@2@@2@@std@@@std@@QBEIXZ 00413320 f i FriendMgr.obj
 0001:00012330       ?max_size@?$allocator@U?$pair@EV?$basic_string@DU?$char_traits@D@std@@V?$allocator@D@2@@std@@@std@@@std@@QBEIXZ 00413330 f i FriendMgr.obj
 0001:00012340       ?_Dec@const_iterator@?$_Tree@V?$_Tmap_traits@V?$basic_string@DU?$char_traits@D@std@@V?$allocator@D@2@@std@@V?$list@U?$pair@EV?$basic_string@DU?$char_traits@D@std@@V?$allocator@D@2@@std@@@std@@V?$allocator@U?$pair@EV?$basic_string@DU?$char_traits@D@std@@V?$allocator@D@2@@std@@@std@@@2@@2@U_tstring_less@@V?$allocator@U?$pair@$$CBV?$basic_string@DU?$char_traits@D@std@@V?$allocator@D@2@@std@@V?$list@U?$pair@EV?$basic_string@DU?$char_traits@D@std@@V?$allocator@D@2@@std@@@std@@V?$allocator@U?$pair@EV?$basic_string@DU?$char_traits@D@std@@V?$allocator@D@2@@std@@@std@@@2@@2@@std@@@2@$0A@@std@@@std@@QAEXXZ 00413340 f i FriendMgr.obj
 0001:000123d0       ?_Dec@const_iterator@?$_Tree@V?$_Tmap_traits@UADDFRIENDKEY@CFriendMgr@@UADDFRIENDVALUE@2@U?$less@UADDFRIENDKEY@CFriendMgr@@@std@@V?$allocator@U?$pair@$$CBUADDFRIENDKEY@CFriendMgr@@UADDFRIENDVALUE@2@@std@@@5@$0A@@std@@@std@@QAEXXZ 004133d0 f i FriendMgr.obj
 0001:00012460       ?max_size@?$allocator@UONEPLAYER@CFriendMgr@@@std@@QBEIXZ 00413460 f i FriendMgr.obj
 0001:00012470       ??Y?$_Vector_const_iterator@Viterator@?$_Tree@V?$_Tmap_traits@V?$basic_string@DU?$char_traits@D@std@@V?$allocator@D@2@@std@@UPLAYERINFO@CFriendMgr@@U_tstring_less@@V?$allocator@U?$pair@$$CBV?$basic_string@DU?$char_traits@D@std@@V?$allocator@D@2@@std@@UPLAYERINFO@CFriendMgr@@@std@@@2@$0A@@std@@@std@@V?$allocator@Viterator@?$_Tree@V?$_Tmap_traits@V?$basic_string@DU?$char_traits@D@std@@V?$allocator@D@2@@std@@UPLAYERINFO@CFriendMgr@@U_tstring_less@@V?$allocator@U?$pair@$$CBV?$basic_string@DU?$char_traits@D@std@@V?$allocator@D@2@@std@@UPLAYERINFO@CFriendMgr@@@std@@@2@$0A@@std@@@std@@@3@@std@@QAEAAV01@H@Z 00413470 f i FriendMgr.obj
 0001:000124b0       ??0?$_Tmap_traits@V?$basic_string@DU?$char_traits@D@std@@V?$allocator@D@2@@std@@UFRIENDINFO@CFriendMgr@@U_tstring_less@@V?$allocator@U?$pair@$$CBV?$basic_string@DU?$char_traits@D@std@@V?$allocator@D@2@@std@@UFRIENDINFO@CFriendMgr@@@std@@@2@$0A@@std@@QAE@U_tstring_less@@@Z 004134b0 f i FriendMgr.obj
 0001:000124c0       ??0?$_Tmap_traits@V?$basic_string@DU?$char_traits@D@std@@V?$allocator@D@2@@std@@UPLAYERINFO@CFriendMgr@@U_tstring_less@@V?$allocator@U?$pair@$$CBV?$basic_string@DU?$char_traits@D@std@@V?$allocator@D@2@@std@@UPLAYERINFO@CFriendMgr@@@std@@@2@$0A@@std@@QAE@U_tstring_less@@@Z 004134c0 f i FriendMgr.obj
 0001:000124d0       ??0?$_Tmap_traits@UADDFRIENDKEY@CFriendMgr@@UADDFRIENDVALUE@2@U?$less@UADDFRIENDKEY@CFriendMgr@@@std@@V?$allocator@U?$pair@$$CBUADDFRIENDKEY@CFriendMgr@@UADDFRIENDVALUE@2@@std@@@5@$0A@@std@@QAE@U?$less@UADDFRIENDKEY@CFriendMgr@@@1@@Z 004134d0 f i FriendMgr.obj
 0001:000124e0       ??0?$_Tmap_traits@KV?$list@UtagPlusSrcInfo@@V?$allocator@UtagPlusSrcInfo@@@std@@@std@@U?$less@K@2@V?$allocator@U?$pair@$$CBKV?$list@UtagPlusSrcInfo@@V?$allocator@UtagPlusSrcInfo@@@std@@@std@@@std@@@2@$0A@@std@@QAE@U?$less@K@1@@Z 004134e0 f i FriendMgr.obj
 0001:000124f0       ??0?$_Tmap_traits@V?$basic_string@DU?$char_traits@D@std@@V?$allocator@D@2@@std@@V?$list@U?$pair@EV?$basic_string@DU?$char_traits@D@std@@V?$allocator@D@2@@std@@@std@@V?$allocator@U?$pair@EV?$basic_string@DU?$char_traits@D@std@@V?$allocator@D@2@@std@@@std@@@2@@2@U_tstring_less@@V?$allocator@U?$pair@$$CBV?$basic_string@DU?$char_traits@D@std@@V?$allocator@D@2@@std@@V?$list@U?$pair@EV?$basic_string@DU?$char_traits@D@std@@V?$allocator@D@2@@std@@@std@@V?$allocator@U?$pair@EV?$basic_string@DU?$char_traits@D@std@@V?$allocator@D@2@@std@@@std@@@2@@2@@std@@@2@$0A@@std@@QAE@U_tstring_less@@@Z 004134f0 f i FriendMgr.obj
 0001:00012530       ??$_Destroy@PAU_Node@?$_Tree_nod@V?$_Tmap_traits@V?$basic_string@DU?$char_traits@D@std@@V?$allocator@D@2@@std@@UFRIENDINFO@CFriendMgr@@U_tstring_less@@V?$allocator@U?$pair@$$CBV?$basic_string@DU?$char_traits@D@std@@V?$allocator@D@2@@std@@UFRIENDINFO@CFriendMgr@@@std@@@2@$0A@@std@@@std@@@std@@YAXPAPAU_Node@?$_Tree_nod@V?$_Tmap_traits@V?$basic_string@DU?$char_traits@D@std@@V?$allocator@D@2@@std@@UFRIENDINFO@CFriendMgr@@U_tstring_less@@V?$allocator@U?$pair@$$CBV?$basic_string@DU?$char_traits@D@std@@V?$allocator@D@2@@std@@UFRIENDINFO@CFriendMgr@@@std@@@2@$0A@@std@@@0@@Z 00413530 f i FriendMgr.obj
 0001:00012540       ??$_Destroy@PAU_Node@?$_Tree_nod@V?$_Tmap_traits@V?$basic_string@DU?$char_traits@D@std@@V?$allocator@D@2@@std@@UPLAYERINFO@CFriendMgr@@U_tstring_less@@V?$allocator@U?$pair@$$CBV?$basic_string@DU?$char_traits@D@std@@V?$allocator@D@2@@std@@UPLAYERINFO@CFriendMgr@@@std@@@2@$0A@@std@@@std@@@std@@YAXPAPAU_Node@?$_Tree_nod@V?$_Tmap_traits@V?$basic_string@DU?$char_traits@D@std@@V?$allocator@D@2@@std@@UPLAYERINFO@CFriendMgr@@U_tstring_less@@V?$allocator@U?$pair@$$CBV?$basic_string@DU?$char_traits@D@std@@V?$allocator@D@2@@std@@UPLAYERINFO@CFriendMgr@@@std@@@2@$0A@@std@@@0@@Z 00413540 f i FriendMgr.obj
 0001:00012550       ??$_Destroy@PAU_Node@?$_Tree_nod@V?$_Tmap_traits@UADDFRIENDKEY@CFriendMgr@@UADDFRIENDVALUE@2@U?$less@UADDFRIENDKEY@CFriendMgr@@@std@@V?$allocator@U?$pair@$$CBUADDFRIENDKEY@CFriendMgr@@UADDFRIENDVALUE@2@@std@@@5@$0A@@std@@@std@@@std@@YAXPAPAU_Node@?$_Tree_nod@V?$_Tmap_traits@UADDFRIENDKEY@CFriendMgr@@UADDFRIENDVALUE@2@U?$less@UADDFRIENDKEY@CFriendMgr@@@std@@V?$allocator@U?$pair@$$CBUADDFRIENDKEY@CFriendMgr@@UADDFRIENDVALUE@2@@std@@@5@$0A@@std@@@0@@Z 00413550 f i FriendMgr.obj
 0001:00012560       ??$?0UMEM_FRIENDRECORD@CFriendMgr@@@?$allocator@PAU_Node@?$_List_nod@UMEM_FRIENDRECORD@CFriendMgr@@V?$allocator@UMEM_FRIENDRECORD@CFriendMgr@@@std@@@std@@@std@@QAE@ABV?$allocator@UMEM_FRIENDRECORD@CFriendMgr@@@1@@Z 00413560 f i FriendMgr.obj
 0001:00012570       ??$_Allocate@U_Node@?$_List_nod@UMEM_FRIENDRECORD@CFriendMgr@@V?$allocator@UMEM_FRIENDRECORD@CFriendMgr@@@std@@@std@@@std@@YAPAU_Node@?$_List_nod@UMEM_FRIENDRECORD@CFriendMgr@@V?$allocator@UMEM_FRIENDRECORD@CFriendMgr@@@std@@@0@IPAU120@@Z 00413570 f i FriendMgr.obj
 0001:000125d0       ??$_Construct@PAU_Node@?$_List_nod@UMEM_FRIENDRECORD@CFriendMgr@@V?$allocator@UMEM_FRIENDRECORD@CFriendMgr@@@std@@@std@@PAU123@@std@@YAXPAPAU_Node@?$_List_nod@UMEM_FRIENDRECORD@CFriendMgr@@V?$allocator@UMEM_FRIENDRECORD@CFriendMgr@@@std@@@0@ABQAU120@@Z 004135d0 f i FriendMgr.obj
 0001:000125f0       ??$_Destroy@PAU_Node@?$_List_nod@UMEM_FRIENDRECORD@CFriendMgr@@V?$allocator@UMEM_FRIENDRECORD@CFriendMgr@@@std@@@std@@@std@@YAXPAPAU_Node@?$_List_nod@UMEM_FRIENDRECORD@CFriendMgr@@V?$allocator@UMEM_FRIENDRECORD@CFriendMgr@@@std@@@0@@Z 004135f0 f i FriendMgr.obj
 0001:00012600       ??$_Destroy@PAU_Node@?$_Tree_nod@V?$_Tmap_traits@KV?$list@UtagPlusSrcInfo@@V?$allocator@UtagPlusSrcInfo@@@std@@@std@@U?$less@K@2@V?$allocator@U?$pair@$$CBKV?$list@UtagPlusSrcInfo@@V?$allocator@UtagPlusSrcInfo@@@std@@@std@@@std@@@2@$0A@@std@@@std@@@std@@YAXPAPAU_Node@?$_Tree_nod@V?$_Tmap_traits@KV?$list@UtagPlusSrcInfo@@V?$allocator@UtagPlusSrcInfo@@@std@@@std@@U?$less@K@2@V?$allocator@U?$pair@$$CBKV?$list@UtagPlusSrcInfo@@V?$allocator@UtagPlusSrcInfo@@@std@@@std@@@std@@@2@$0A@@std@@@0@@Z 00413600 f i FriendMgr.obj
 0001:00012610       ??$_Destroy@PAU_Node@?$_Tree_nod@V?$_Tmap_traits@V?$basic_string@DU?$char_traits@D@std@@V?$allocator@D@2@@std@@V?$list@U?$pair@EV?$basic_string@DU?$char_traits@D@std@@V?$allocator@D@2@@std@@@std@@V?$allocator@U?$pair@EV?$basic_string@DU?$char_traits@D@std@@V?$allocator@D@2@@std@@@std@@@2@@2@U_tstring_less@@V?$allocator@U?$pair@$$CBV?$basic_string@DU?$char_traits@D@std@@V?$allocator@D@2@@std@@V?$list@U?$pair@EV?$basic_string@DU?$char_traits@D@std@@V?$allocator@D@2@@std@@@std@@V?$allocator@U?$pair@EV?$basic_string@DU?$char_traits@D@std@@V?$allocator@D@2@@std@@@std@@@2@@2@@std@@@2@$0A@@std@@@std@@@std@@YAXPAPAU_Node@?$_Tree_nod@V?$_Tmap_traits@V?$basic_string@DU?$char_traits@D@std@@V?$allocator@D@2@@std@@V?$list@U?$pair@EV?$basic_string@DU?$char_traits@D@std@@V?$allocator@D@2@@std@@@std@@V?$allocator@U?$pair@EV?$basic_string@DU?$char_traits@D@std@@V?$allocator@D@2@@std@@@std@@@2@@2@U_tstring_less@@V?$allocator@U?$pair@$$CBV?$basic_string@DU?$char_traits@D@std@@V?$allocator@D@2@@std@@V?$list@U?$pair@EV?$basic_string@DU?$char_traits@D@std@@V?$allocator@D@2@@std@@@std@@V?$allocator@U?$pair@EV?$basic_string@DU?$char_traits@D@std@@V?$allocator@D@2@@std@@@std@@@2@@2@@std@@@2@$0A@@std@@@0@@Z 00413610 f i FriendMgr.obj
 0001:00012620       ??$?0UONEPLAYER@CFriendMgr@@@?$allocator@PAU_Node@?$_List_nod@UONEPLAYER@CFriendMgr@@V?$allocator@UONEPLAYER@CFriendMgr@@@std@@@std@@@std@@QAE@ABV?$allocator@UONEPLAYER@CFriendMgr@@@1@@Z 00413620 f i FriendMgr.obj
 0001:00012630       ??$_Allocate@U_Node@?$_List_nod@UONEPLAYER@CFriendMgr@@V?$allocator@UONEPLAYER@CFriendMgr@@@std@@@std@@@std@@YAPAU_Node@?$_List_nod@UONEPLAYER@CFriendMgr@@V?$allocator@UONEPLAYER@CFriendMgr@@@std@@@0@IPAU120@@Z 00413630 f i FriendMgr.obj
 0001:00012690       ??$_Construct@PAU_Node@?$_List_nod@UONEPLAYER@CFriendMgr@@V?$allocator@UONEPLAYER@CFriendMgr@@@std@@@std@@PAU123@@std@@YAXPAPAU_Node@?$_List_nod@UONEPLAYER@CFriendMgr@@V?$allocator@UONEPLAYER@CFriendMgr@@@std@@@0@ABQAU120@@Z 00413690 f i FriendMgr.obj
 0001:000126b0       ??$_Destroy@PAU_Node@?$_List_nod@UONEPLAYER@CFriendMgr@@V?$allocator@UONEPLAYER@CFriendMgr@@@std@@@std@@@std@@YAXPAPAU_Node@?$_List_nod@UONEPLAYER@CFriendMgr@@V?$allocator@UONEPLAYER@CFriendMgr@@@std@@@0@@Z 004136b0 f i FriendMgr.obj
 0001:000126c0       ??$?0V?$basic_string@DU?$char_traits@D@std@@V?$allocator@D@2@@std@@@?$allocator@PAU_Node@?$_List_nod@V?$basic_string@DU?$char_traits@D@std@@V?$allocator@D@2@@std@@V?$allocator@V?$basic_string@DU?$char_traits@D@std@@V?$allocator@D@2@@std@@@2@@std@@@std@@QAE@ABV?$allocator@V?$basic_string@DU?$char_traits@D@std@@V?$allocator@D@2@@std@@@1@@Z 004136c0 f i FriendMgr.obj
 0001:000126d0       ??$_Allocate@U_Node@?$_List_nod@V?$basic_string@DU?$char_traits@D@std@@V?$allocator@D@2@@std@@V?$allocator@V?$basic_string@DU?$char_traits@D@std@@V?$allocator@D@2@@std@@@2@@std@@@std@@YAPAU_Node@?$_List_nod@V?$basic_string@DU?$char_traits@D@std@@V?$allocator@D@2@@std@@V?$allocator@V?$basic_string@DU?$char_traits@D@std@@V?$allocator@D@2@@std@@@2@@0@IPAU120@@Z 004136d0 f i FriendMgr.obj
 0001:00012730       ??$_Construct@PAU_Node@?$_List_nod@V?$basic_string@DU?$char_traits@D@std@@V?$allocator@D@2@@std@@V?$allocator@V?$basic_string@DU?$char_traits@D@std@@V?$allocator@D@2@@std@@@2@@std@@PAU123@@std@@YAXPAPAU_Node@?$_List_nod@V?$basic_string@DU?$char_traits@D@std@@V?$allocator@D@2@@std@@V?$allocator@V?$basic_string@DU?$char_traits@D@std@@V?$allocator@D@2@@std@@@2@@0@ABQAU120@@Z 00413730 f i FriendMgr.obj
 0001:00012750       ??$_Destroy@PAU_Node@?$_List_nod@V?$basic_string@DU?$char_traits@D@std@@V?$allocator@D@2@@std@@V?$allocator@V?$basic_string@DU?$char_traits@D@std@@V?$allocator@D@2@@std@@@2@@std@@@std@@YAXPAPAU_Node@?$_List_nod@V?$basic_string@DU?$char_traits@D@std@@V?$allocator@D@2@@std@@V?$allocator@V?$basic_string@DU?$char_traits@D@std@@V?$allocator@D@2@@std@@@2@@0@@Z 00413750 f i FriendMgr.obj
 0001:00012760       ??$_Allocate@Viterator@?$_Tree@V?$_Tmap_traits@V?$basic_string@DU?$char_traits@D@std@@V?$allocator@D@2@@std@@UPLAYERINFO@CFriendMgr@@U_tstring_less@@V?$allocator@U?$pair@$$CBV?$basic_string@DU?$char_traits@D@std@@V?$allocator@D@2@@std@@UPLAYERINFO@CFriendMgr@@@std@@@2@$0A@@std@@@std@@@std@@YAPAViterator@?$_Tree@V?$_Tmap_traits@V?$basic_string@DU?$char_traits@D@std@@V?$allocator@D@2@@std@@UPLAYERINFO@CFriendMgr@@U_tstring_less@@V?$allocator@U?$pair@$$CBV?$basic_string@DU?$char_traits@D@std@@V?$allocator@D@2@@std@@UPLAYERINFO@CFriendMgr@@@std@@@2@$0A@@std@@@0@IPAV120@@Z 00413760 f i FriendMgr.obj
 0001:000127c0       ??$?0U?$pair@$$CBV?$basic_string@DU?$char_traits@D@std@@V?$allocator@D@2@@std@@UFRIENDINFO@CFriendMgr@@@std@@@?$allocator@PAU_Node@?$_Tree_nod@V?$_Tmap_traits@V?$basic_string@DU?$char_traits@D@std@@V?$allocator@D@2@@std@@UFRIENDINFO@CFriendMgr@@U_tstring_less@@V?$allocator@U?$pair@$$CBV?$basic_string@DU?$char_traits@D@std@@V?$allocator@D@2@@std@@UFRIENDINFO@CFriendMgr@@@std@@@2@$0A@@std@@@std@@@std@@QAE@ABV?$allocator@U?$pair@$$CBV?$basic_string@DU?$char_traits@D@std@@V?$allocator@D@2@@std@@UFRIENDINFO@CFriendMgr@@@std@@@1@@Z 004137c0 f i FriendMgr.obj
 0001:000127d0       ??$_Allocate@U_Node@?$_Tree_nod@V?$_Tmap_traits@V?$basic_string@DU?$char_traits@D@std@@V?$allocator@D@2@@std@@UFRIENDINFO@CFriendMgr@@U_tstring_less@@V?$allocator@U?$pair@$$CBV?$basic_string@DU?$char_traits@D@std@@V?$allocator@D@2@@std@@UFRIENDINFO@CFriendMgr@@@std@@@2@$0A@@std@@@std@@@std@@YAPAU_Node@?$_Tree_nod@V?$_Tmap_traits@V?$basic_string@DU?$char_traits@D@std@@V?$allocator@D@2@@std@@UFRIENDINFO@CFriendMgr@@U_tstring_less@@V?$allocator@U?$pair@$$CBV?$basic_string@DU?$char_traits@D@std@@V?$allocator@D@2@@std@@UFRIENDINFO@CFriendMgr@@@std@@@2@$0A@@std@@@0@IPAU120@@Z 004137d0 f i FriendMgr.obj
 0001:00012830       ??$?0U?$pair@$$CBV?$basic_string@DU?$char_traits@D@std@@V?$allocator@D@2@@std@@UPLAYERINFO@CFriendMgr@@@std@@@?$allocator@PAU_Node@?$_Tree_nod@V?$_Tmap_traits@V?$basic_string@DU?$char_traits@D@std@@V?$allocator@D@2@@std@@UPLAYERINFO@CFriendMgr@@U_tstring_less@@V?$allocator@U?$pair@$$CBV?$basic_string@DU?$char_traits@D@std@@V?$allocator@D@2@@std@@UPLAYERINFO@CFriendMgr@@@std@@@2@$0A@@std@@@std@@@std@@QAE@ABV?$allocator@U?$pair@$$CBV?$basic_string@DU?$char_traits@D@std@@V?$allocator@D@2@@std@@UPLAYERINFO@CFriendMgr@@@std@@@1@@Z 00413830 f i FriendMgr.obj
 0001:00012840       ??$_Allocate@U_Node@?$_Tree_nod@V?$_Tmap_traits@V?$basic_string@DU?$char_traits@D@std@@V?$allocator@D@2@@std@@UPLAYERINFO@CFriendMgr@@U_tstring_less@@V?$allocator@U?$pair@$$CBV?$basic_string@DU?$char_traits@D@std@@V?$allocator@D@2@@std@@UPLAYERINFO@CFriendMgr@@@std@@@2@$0A@@std@@@std@@@std@@YAPAU_Node@?$_Tree_nod@V?$_Tmap_traits@V?$basic_string@DU?$char_traits@D@std@@V?$allocator@D@2@@std@@UPLAYERINFO@CFriendMgr@@U_tstring_less@@V?$allocator@U?$pair@$$CBV?$basic_string@DU?$char_traits@D@std@@V?$allocator@D@2@@std@@UPLAYERINFO@CFriendMgr@@@std@@@2@$0A@@std@@@0@IPAU120@@Z 00413840 f i FriendMgr.obj
 0001:000128a0       ??$?0U?$pair@$$CBUADDFRIENDKEY@CFriendMgr@@UADDFRIENDVALUE@2@@std@@@?$allocator@PAU_Node@?$_Tree_nod@V?$_Tmap_traits@UADDFRIENDKEY@CFriendMgr@@UADDFRIENDVALUE@2@U?$less@UADDFRIENDKEY@CFriendMgr@@@std@@V?$allocator@U?$pair@$$CBUADDFRIENDKEY@CFriendMgr@@UADDFRIENDVALUE@2@@std@@@5@$0A@@std@@@std@@@std@@QAE@ABV?$allocator@U?$pair@$$CBUADDFRIENDKEY@CFriendMgr@@UADDFRIENDVALUE@2@@std@@@1@@Z 004138a0 f i FriendMgr.obj
 0001:000128b0       ??$?0UMEM_FRIENDRECORD@CFriendMgr@@@?$allocator@U_Node@?$_List_nod@UMEM_FRIENDRECORD@CFriendMgr@@V?$allocator@UMEM_FRIENDRECORD@CFriendMgr@@@std@@@std@@@std@@QAE@ABV?$allocator@UMEM_FRIENDRECORD@CFriendMgr@@@1@@Z 004138b0 f i FriendMgr.obj
 0001:000128c0       ??$?0U?$pair@$$CBKV?$list@UtagPlusSrcInfo@@V?$allocator@UtagPlusSrcInfo@@@std@@@std@@@std@@@?$allocator@PAU_Node@?$_Tree_nod@V?$_Tmap_traits@KV?$list@UtagPlusSrcInfo@@V?$allocator@UtagPlusSrcInfo@@@std@@@std@@U?$less@K@2@V?$allocator@U?$pair@$$CBKV?$list@UtagPlusSrcInfo@@V?$allocator@UtagPlusSrcInfo@@@std@@@std@@@std@@@2@$0A@@std@@@std@@@std@@QAE@ABV?$allocator@U?$pair@$$CBKV?$list@UtagPlusSrcInfo@@V?$allocator@UtagPlusSrcInfo@@@std@@@std@@@std@@@1@@Z 004138c0 f i FriendMgr.obj
 0001:000128d0       ??$?0U?$pair@$$CBV?$basic_string@DU?$char_traits@D@std@@V?$allocator@D@2@@std@@V?$list@U?$pair@EV?$basic_string@DU?$char_traits@D@std@@V?$allocator@D@2@@std@@@std@@V?$allocator@U?$pair@EV?$basic_string@DU?$char_traits@D@std@@V?$allocator@D@2@@std@@@std@@@2@@2@@std@@@?$allocator@PAU_Node@?$_Tree_nod@V?$_Tmap_traits@V?$basic_string@DU?$char_traits@D@std@@V?$allocator@D@2@@std@@V?$list@U?$pair@EV?$basic_string@DU?$char_traits@D@std@@V?$allocator@D@2@@std@@@std@@V?$allocator@U?$pair@EV?$basic_string@DU?$char_traits@D@std@@V?$allocator@D@2@@std@@@std@@@2@@2@U_tstring_less@@V?$allocator@U?$pair@$$CBV?$basic_string@DU?$char_traits@D@std@@V?$allocator@D@2@@std@@V?$list@U?$pair@EV?$basic_string@DU?$char_traits@D@std@@V?$allocator@D@2@@std@@@std@@V?$allocator@U?$pair@EV?$basic_string@DU?$char_traits@D@std@@V?$allocator@D@2@@std@@@std@@@2@@2@@std@@@2@$0A@@std@@@std@@@std@@QAE@ABV?$allocator@U?$pair@$$CBV?$basic_string@DU?$char_traits@D@std@@V?$allocator@D@2@@std@@V?$list@U?$pair@EV?$basic_string@DU?$char_traits@D@std@@V?$allocator@D@2@@std@@@std@@V?$allocator@U?$pair@EV?$basic_string@DU?$char_traits@D@std@@V?$allocator@D@2@@std@@@std@@@2@@2@@std@@@1@@Z 004138d0 f i FriendMgr.obj
 0001:000128e0       ??$?0U?$pair@EV?$basic_string@DU?$char_traits@D@std@@V?$allocator@D@2@@std@@@std@@@?$allocator@PAU_Node@?$_List_nod@U?$pair@EV?$basic_string@DU?$char_traits@D@std@@V?$allocator@D@2@@std@@@std@@V?$allocator@U?$pair@EV?$basic_string@DU?$char_traits@D@std@@V?$allocator@D@2@@std@@@std@@@2@@std@@@std@@QAE@ABV?$allocator@U?$pair@EV?$basic_string@DU?$char_traits@D@std@@V?$allocator@D@2@@std@@@std@@@1@@Z 004138e0 f i FriendMgr.obj
 0001:000128f0       ??$_Allocate@U_Node@?$_List_nod@U?$pair@EV?$basic_string@DU?$char_traits@D@std@@V?$allocator@D@2@@std@@@std@@V?$allocator@U?$pair@EV?$basic_string@DU?$char_traits@D@std@@V?$allocator@D@2@@std@@@std@@@2@@std@@@std@@YAPAU_Node@?$_List_nod@U?$pair@EV?$basic_string@DU?$char_traits@D@std@@V?$allocator@D@2@@std@@@std@@V?$allocator@U?$pair@EV?$basic_string@DU?$char_traits@D@std@@V?$allocator@D@2@@std@@@std@@@2@@0@IPAU120@@Z 004138f0 f i FriendMgr.obj
 0001:00012950       ??$_Construct@PAU_Node@?$_List_nod@U?$pair@EV?$basic_string@DU?$char_traits@D@std@@V?$allocator@D@2@@std@@@std@@V?$allocator@U?$pair@EV?$basic_string@DU?$char_traits@D@std@@V?$allocator@D@2@@std@@@std@@@2@@std@@PAU123@@std@@YAXPAPAU_Node@?$_List_nod@U?$pair@EV?$basic_string@DU?$char_traits@D@std@@V?$allocator@D@2@@std@@@std@@V?$allocator@U?$pair@EV?$basic_string@DU?$char_traits@D@std@@V?$allocator@D@2@@std@@@std@@@2@@0@ABQAU120@@Z 00413950 f i FriendMgr.obj
 0001:00012970       ??$_Destroy@PAU_Node@?$_List_nod@U?$pair@EV?$basic_string@DU?$char_traits@D@std@@V?$allocator@D@2@@std@@@std@@V?$allocator@U?$pair@EV?$basic_string@DU?$char_traits@D@std@@V?$allocator@D@2@@std@@@std@@@2@@std@@@std@@YAXPAPAU_Node@?$_List_nod@U?$pair@EV?$basic_string@DU?$char_traits@D@std@@V?$allocator@D@2@@std@@@std@@V?$allocator@U?$pair@EV?$basic_string@DU?$char_traits@D@std@@V?$allocator@D@2@@std@@@std@@@2@@0@@Z 00413970 f i FriendMgr.obj
 0001:00012980       ??$?0UONEPLAYER@CFriendMgr@@@?$allocator@U_Node@?$_List_nod@UONEPLAYER@CFriendMgr@@V?$allocator@UONEPLAYER@CFriendMgr@@@std@@@std@@@std@@QAE@ABV?$allocator@UONEPLAYER@CFriendMgr@@@1@@Z 00413980 f i FriendMgr.obj
 0001:00012990       ??$?0V?$basic_string@DU?$char_traits@D@std@@V?$allocator@D@2@@std@@@?$allocator@U_Node@?$_List_nod@V?$basic_string@DU?$char_traits@D@std@@V?$allocator@D@2@@std@@V?$allocator@V?$basic_string@DU?$char_traits@D@std@@V?$allocator@D@2@@std@@@2@@std@@@std@@QAE@ABV?$allocator@V?$basic_string@DU?$char_traits@D@std@@V?$allocator@D@2@@std@@@1@@Z 00413990 f i FriendMgr.obj
 0001:000129a0       ??$?0U?$pair@$$CBV?$basic_string@DU?$char_traits@D@std@@V?$allocator@D@2@@std@@UFRIENDINFO@CFriendMgr@@@std@@@?$allocator@U_Node@?$_Tree_nod@V?$_Tmap_traits@V?$basic_string@DU?$char_traits@D@std@@V?$allocator@D@2@@std@@UFRIENDINFO@CFriendMgr@@U_tstring_less@@V?$allocator@U?$pair@$$CBV?$basic_string@DU?$char_traits@D@std@@V?$allocator@D@2@@std@@UFRIENDINFO@CFriendMgr@@@std@@@2@$0A@@std@@@std@@@std@@QAE@ABV?$allocator@U?$pair@$$CBV?$basic_string@DU?$char_traits@D@std@@V?$allocator@D@2@@std@@UFRIENDINFO@CFriendMgr@@@std@@@1@@Z 004139a0 f i FriendMgr.obj
 0001:000129b0       ??$_Construct@PAU_Node@?$_Tree_nod@V?$_Tmap_traits@V?$basic_string@DU?$char_traits@D@std@@V?$allocator@D@2@@std@@UFRIENDINFO@CFriendMgr@@U_tstring_less@@V?$allocator@U?$pair@$$CBV?$basic_string@DU?$char_traits@D@std@@V?$allocator@D@2@@std@@UFRIENDINFO@CFriendMgr@@@std@@@2@$0A@@std@@@std@@PAU123@@std@@YAXPAPAU_Node@?$_Tree_nod@V?$_Tmap_traits@V?$basic_string@DU?$char_traits@D@std@@V?$allocator@D@2@@std@@UFRIENDINFO@CFriendMgr@@U_tstring_less@@V?$allocator@U?$pair@$$CBV?$basic_string@DU?$char_traits@D@std@@V?$allocator@D@2@@std@@UFRIENDINFO@CFriendMgr@@@std@@@2@$0A@@std@@@0@ABQAU120@@Z 004139b0 f i FriendMgr.obj
 0001:000129d0       ??$?0U?$pair@$$CBV?$basic_string@DU?$char_traits@D@std@@V?$allocator@D@2@@std@@UPLAYERINFO@CFriendMgr@@@std@@@?$allocator@U_Node@?$_Tree_nod@V?$_Tmap_traits@V?$basic_string@DU?$char_traits@D@std@@V?$allocator@D@2@@std@@UPLAYERINFO@CFriendMgr@@U_tstring_less@@V?$allocator@U?$pair@$$CBV?$basic_string@DU?$char_traits@D@std@@V?$allocator@D@2@@std@@UPLAYERINFO@CFriendMgr@@@std@@@2@$0A@@std@@@std@@@std@@QAE@ABV?$allocator@U?$pair@$$CBV?$basic_string@DU?$char_traits@D@std@@V?$allocator@D@2@@std@@UPLAYERINFO@CFriendMgr@@@std@@@1@@Z 004139d0 f i FriendMgr.obj
 0001:000129e0       ??$_Construct@PAU_Node@?$_Tree_nod@V?$_Tmap_traits@V?$basic_string@DU?$char_traits@D@std@@V?$allocator@D@2@@std@@UPLAYERINFO@CFriendMgr@@U_tstring_less@@V?$allocator@U?$pair@$$CBV?$basic_string@DU?$char_traits@D@std@@V?$allocator@D@2@@std@@UPLAYERINFO@CFriendMgr@@@std@@@2@$0A@@std@@@std@@PAU123@@std@@YAXPAPAU_Node@?$_Tree_nod@V?$_Tmap_traits@V?$basic_string@DU?$char_traits@D@std@@V?$allocator@D@2@@std@@UPLAYERINFO@CFriendMgr@@U_tstring_less@@V?$allocator@U?$pair@$$CBV?$basic_string@DU?$char_traits@D@std@@V?$allocator@D@2@@std@@UPLAYERINFO@CFriendMgr@@@std@@@2@$0A@@std@@@0@ABQAU120@@Z 004139e0 f i FriendMgr.obj
 0001:00012a00       ??$?0U?$pair@$$CBUADDFRIENDKEY@CFriendMgr@@UADDFRIENDVALUE@2@@std@@@?$allocator@U_Node@?$_Tree_nod@V?$_Tmap_traits@UADDFRIENDKEY@CFriendMgr@@UADDFRIENDVALUE@2@U?$less@UADDFRIENDKEY@CFriendMgr@@@std@@V?$allocator@U?$pair@$$CBUADDFRIENDKEY@CFriendMgr@@UADDFRIENDVALUE@2@@std@@@5@$0A@@std@@@std@@@std@@QAE@ABV?$allocator@U?$pair@$$CBUADDFRIENDKEY@CFriendMgr@@UADDFRIENDVALUE@2@@std@@@1@@Z 00413a00 f i FriendMgr.obj
 0001:00012a10       ??$_Allocate@U_Node@?$_Tree_nod@V?$_Tmap_traits@UADDFRIENDKEY@CFriendMgr@@UADDFRIENDVALUE@2@U?$less@UADDFRIENDKEY@CFriendMgr@@@std@@V?$allocator@U?$pair@$$CBUADDFRIENDKEY@CFriendMgr@@UADDFRIENDVALUE@2@@std@@@5@$0A@@std@@@std@@@std@@YAPAU_Node@?$_Tree_nod@V?$_Tmap_traits@UADDFRIENDKEY@CFriendMgr@@UADDFRIENDVALUE@2@U?$less@UADDFRIENDKEY@CFriendMgr@@@std@@V?$allocator@U?$pair@$$CBUADDFRIENDKEY@CFriendMgr@@UADDFRIENDVALUE@2@@std@@@5@$0A@@std@@@0@IPAU120@@Z 00413a10 f i FriendMgr.obj
 0001:00012a70       ??$_Construct@PAU_Node@?$_Tree_nod@V?$_Tmap_traits@UADDFRIENDKEY@CFriendMgr@@UADDFRIENDVALUE@2@U?$less@UADDFRIENDKEY@CFriendMgr@@@std@@V?$allocator@U?$pair@$$CBUADDFRIENDKEY@CFriendMgr@@UADDFRIENDVALUE@2@@std@@@5@$0A@@std@@@std@@PAU123@@std@@YAXPAPAU_Node@?$_Tree_nod@V?$_Tmap_traits@UADDFRIENDKEY@CFriendMgr@@UADDFRIENDVALUE@2@U?$less@UADDFRIENDKEY@CFriendMgr@@@std@@V?$allocator@U?$pair@$$CBUADDFRIENDKEY@CFriendMgr@@UADDFRIENDVALUE@2@@std@@@5@$0A@@std@@@0@ABQAU120@@Z 00413a70 f i FriendMgr.obj
 0001:00012a90       ??$?0U?$pair@$$CBKV?$list@UtagPlusSrcInfo@@V?$allocator@UtagPlusSrcInfo@@@std@@@std@@@std@@@?$allocator@U_Node@?$_Tree_nod@V?$_Tmap_traits@KV?$list@UtagPlusSrcInfo@@V?$allocator@UtagPlusSrcInfo@@@std@@@std@@U?$less@K@2@V?$allocator@U?$pair@$$CBKV?$list@UtagPlusSrcInfo@@V?$allocator@UtagPlusSrcInfo@@@std@@@std@@@std@@@2@$0A@@std@@@std@@@std@@QAE@ABV?$allocator@U?$pair@$$CBKV?$list@UtagPlusSrcInfo@@V?$allocator@UtagPlusSrcInfo@@@std@@@std@@@std@@@1@@Z 00413a90 f i FriendMgr.obj
 0001:00012aa0       ??$_Allocate@U_Node@?$_Tree_nod@V?$_Tmap_traits@KV?$list@UtagPlusSrcInfo@@V?$allocator@UtagPlusSrcInfo@@@std@@@std@@U?$less@K@2@V?$allocator@U?$pair@$$CBKV?$list@UtagPlusSrcInfo@@V?$allocator@UtagPlusSrcInfo@@@std@@@std@@@std@@@2@$0A@@std@@@std@@@std@@YAPAU_Node@?$_Tree_nod@V?$_Tmap_traits@KV?$list@UtagPlusSrcInfo@@V?$allocator@UtagPlusSrcInfo@@@std@@@std@@U?$less@K@2@V?$allocator@U?$pair@$$CBKV?$list@UtagPlusSrcInfo@@V?$allocator@UtagPlusSrcInfo@@@std@@@std@@@std@@@2@$0A@@std@@@0@IPAU120@@Z 00413aa0 f i FriendMgr.obj
 0001:00012b00       ??$_Construct@PAU_Node@?$_Tree_nod@V?$_Tmap_traits@KV?$list@UtagPlusSrcInfo@@V?$allocator@UtagPlusSrcInfo@@@std@@@std@@U?$less@K@2@V?$allocator@U?$pair@$$CBKV?$list@UtagPlusSrcInfo@@V?$allocator@UtagPlusSrcInfo@@@std@@@std@@@std@@@2@$0A@@std@@@std@@PAU123@@std@@YAXPAPAU_Node@?$_Tree_nod@V?$_Tmap_traits@KV?$list@UtagPlusSrcInfo@@V?$allocator@UtagPlusSrcInfo@@@std@@@std@@U?$less@K@2@V?$allocator@U?$pair@$$CBKV?$list@UtagPlusSrcInfo@@V?$allocator@UtagPlusSrcInfo@@@std@@@std@@@std@@@2@$0A@@std@@@0@ABQAU120@@Z 00413b00 f i FriendMgr.obj
 0001:00012b20       ??$?0U?$pair@$$CBV?$basic_string@DU?$char_traits@D@std@@V?$allocator@D@2@@std@@V?$list@U?$pair@EV?$basic_string@DU?$char_traits@D@std@@V?$allocator@D@2@@std@@@std@@V?$allocator@U?$pair@EV?$basic_string@DU?$char_traits@D@std@@V?$allocator@D@2@@std@@@std@@@2@@2@@std@@@?$allocator@U_Node@?$_Tree_nod@V?$_Tmap_traits@V?$basic_string@DU?$char_traits@D@std@@V?$allocator@D@2@@std@@V?$list@U?$pair@EV?$basic_string@DU?$char_traits@D@std@@V?$allocator@D@2@@std@@@std@@V?$allocator@U?$pair@EV?$basic_string@DU?$char_traits@D@std@@V?$allocator@D@2@@std@@@std@@@2@@2@U_tstring_less@@V?$allocator@U?$pair@$$CBV?$basic_string@DU?$char_traits@D@std@@V?$allocator@D@2@@std@@V?$list@U?$pair@EV?$basic_string@DU?$char_traits@D@std@@V?$allocator@D@2@@std@@@std@@V?$allocator@U?$pair@EV?$basic_string@DU?$char_traits@D@std@@V?$allocator@D@2@@std@@@std@@@2@@2@@std@@@2@$0A@@std@@@std@@@std@@QAE@ABV?$allocator@U?$pair@$$CBV?$basic_string@DU?$char_traits@D@std@@V?$allocator@D@2@@std@@V?$list@U?$pair@EV?$basic_string@DU?$char_traits@D@std@@V?$allocator@D@2@@std@@@std@@V?$allocator@U?$pair@EV?$basic_string@DU?$char_traits@D@std@@V?$allocator@D@2@@std@@@std@@@2@@2@@std@@@1@@Z 00413b20 f i FriendMgr.obj
 0001:00012b30       ??$_Allocate@U_Node@?$_Tree_nod@V?$_Tmap_traits@V?$basic_string@DU?$char_traits@D@std@@V?$allocator@D@2@@std@@V?$list@U?$pair@EV?$basic_string@DU?$char_traits@D@std@@V?$allocator@D@2@@std@@@std@@V?$allocator@U?$pair@EV?$basic_string@DU?$char_traits@D@std@@V?$allocator@D@2@@std@@@std@@@2@@2@U_tstring_less@@V?$allocator@U?$pair@$$CBV?$basic_string@DU?$char_traits@D@std@@V?$allocator@D@2@@std@@V?$list@U?$pair@EV?$basic_string@DU?$char_traits@D@std@@V?$allocator@D@2@@std@@@std@@V?$allocator@U?$pair@EV?$basic_string@DU?$char_traits@D@std@@V?$allocator@D@2@@std@@@std@@@2@@2@@std@@@2@$0A@@std@@@std@@@std@@YAPAU_Node@?$_Tree_nod@V?$_Tmap_traits@V?$basic_string@DU?$char_traits@D@std@@V?$allocator@D@2@@std@@V?$list@U?$pair@EV?$basic_string@DU?$char_traits@D@std@@V?$allocator@D@2@@std@@@std@@V?$allocator@U?$pair@EV?$basic_string@DU?$char_traits@D@std@@V?$allocator@D@2@@std@@@std@@@2@@2@U_tstring_less@@V?$allocator@U?$pair@$$CBV?$basic_string@DU?$char_traits@D@std@@V?$allocator@D@2@@std@@V?$list@U?$pair@EV?$basic_string@DU?$char_traits@D@std@@V?$allocator@D@2@@std@@@std@@V?$allocator@U?$pair@EV?$basic_string@DU?$char_traits@D@std@@V?$allocator@D@2@@std@@@std@@@2@@2@@std@@@2@$0A@@std@@@0@IPAU120@@Z 00413b30 f i FriendMgr.obj
 0001:00012ba0       ??$_Construct@PAU_Node@?$_Tree_nod@V?$_Tmap_traits@V?$basic_string@DU?$char_traits@D@std@@V?$allocator@D@2@@std@@V?$list@U?$pair@EV?$basic_string@DU?$char_traits@D@std@@V?$allocator@D@2@@std@@@std@@V?$allocator@U?$pair@EV?$basic_string@DU?$char_traits@D@std@@V?$allocator@D@2@@std@@@std@@@2@@2@U_tstring_less@@V?$allocator@U?$pair@$$CBV?$basic_string@DU?$char_traits@D@std@@V?$allocator@D@2@@std@@V?$list@U?$pair@EV?$basic_string@DU?$char_traits@D@std@@V?$allocator@D@2@@std@@@std@@V?$allocator@U?$pair@EV?$basic_string@DU?$char_traits@D@std@@V?$allocator@D@2@@std@@@std@@@2@@2@@std@@@2@$0A@@std@@@std@@PAU123@@std@@YAXPAPAU_Node@?$_Tree_nod@V?$_Tmap_traits@V?$basic_string@DU?$char_traits@D@std@@V?$allocator@D@2@@std@@V?$list@U?$pair@EV?$basic_string@DU?$char_traits@D@std@@V?$allocator@D@2@@std@@@std@@V?$allocator@U?$pair@EV?$basic_string@DU?$char_traits@D@std@@V?$allocator@D@2@@std@@@std@@@2@@2@U_tstring_less@@V?$allocator@U?$pair@$$CBV?$basic_string@DU?$char_traits@D@std@@V?$allocator@D@2@@std@@V?$list@U?$pair@EV?$basic_string@DU?$char_traits@D@std@@V?$allocator@D@2@@std@@@std@@V?$allocator@U?$pair@EV?$basic_string@DU?$char_traits@D@std@@V?$allocator@D@2@@std@@@std@@@2@@2@@std@@@2@$0A@@std@@@0@ABQAU120@@Z 00413ba0 f i FriendMgr.obj
 0001:00012bc0       ??$?0U?$pair@EV?$basic_string@DU?$char_traits@D@std@@V?$allocator@D@2@@std@@@std@@@?$allocator@U_Node@?$_List_nod@U?$pair@EV?$basic_string@DU?$char_traits@D@std@@V?$allocator@D@2@@std@@@std@@V?$allocator@U?$pair@EV?$basic_string@DU?$char_traits@D@std@@V?$allocator@D@2@@std@@@std@@@2@@std@@@std@@QAE@ABV?$allocator@U?$pair@EV?$basic_string@DU?$char_traits@D@std@@V?$allocator@D@2@@std@@@std@@@1@@Z 00413bc0 f i FriendMgr.obj
 0001:00012bd0       ??$_Iter_cat@Viterator@?$_Tree@V?$_Tmap_traits@V?$basic_string@DU?$char_traits@D@std@@V?$allocator@D@2@@std@@UFRIENDINFO@CFriendMgr@@U_tstring_less@@V?$allocator@U?$pair@$$CBV?$basic_string@DU?$char_traits@D@std@@V?$allocator@D@2@@std@@UFRIENDINFO@CFriendMgr@@@std@@@2@$0A@@std@@@std@@@std@@YA?AUbidirectional_iterator_tag@0@ABViterator@?$_Tree@V?$_Tmap_traits@V?$basic_string@DU?$char_traits@D@std@@V?$allocator@D@2@@std@@UFRIENDINFO@CFriendMgr@@U_tstring_less@@V?$allocator@U?$pair@$$CBV?$basic_string@DU?$char_traits@D@std@@V?$allocator@D@2@@std@@UFRIENDINFO@CFriendMgr@@@std@@@2@$0A@@std@@@0@@Z 00413bd0 f i FriendMgr.obj
 0001:00012be0       ??$_Ptr_cat@PAViterator@?$_Tree@V?$_Tmap_traits@V?$basic_string@DU?$char_traits@D@std@@V?$allocator@D@2@@std@@UPLAYERINFO@CFriendMgr@@U_tstring_less@@V?$allocator@U?$pair@$$CBV?$basic_string@DU?$char_traits@D@std@@V?$allocator@D@2@@std@@UPLAYERINFO@CFriendMgr@@@std@@@2@$0A@@std@@@std@@PAV123@@std@@YA?AU_Nonscalar_ptr_iterator_tag@0@AAPAViterator@?$_Tree@V?$_Tmap_traits@V?$basic_string@DU?$char_traits@D@std@@V?$allocator@D@2@@std@@UPLAYERINFO@CFriendMgr@@U_tstring_less@@V?$allocator@U?$pair@$$CBV?$basic_string@DU?$char_traits@D@std@@V?$allocator@D@2@@std@@UPLAYERINFO@CFriendMgr@@@std@@@2@$0A@@std@@@0@0@Z 00413be0 f i FriendMgr.obj
 0001:00012bf0       ??$_Iter_cat@V?$_Const_iterator@$00@?$list@UtagPlusSrcInfo@@V?$allocator@UtagPlusSrcInfo@@@std@@@std@@@std@@YA?AUbidirectional_iterator_tag@0@ABV?$_Const_iterator@$00@?$list@UtagPlusSrcInfo@@V?$allocator@UtagPlusSrcInfo@@@std@@@0@@Z 00413bf0 f i FriendMgr.obj
 0001:00012c00       ??$_Iter_cat@V?$_Const_iterator@$00@?$list@U?$pair@EV?$basic_string@DU?$char_traits@D@std@@V?$allocator@D@2@@std@@@std@@V?$allocator@U?$pair@EV?$basic_string@DU?$char_traits@D@std@@V?$allocator@D@2@@std@@@std@@@2@@std@@@std@@YA?AUbidirectional_iterator_tag@0@ABV?$_Const_iterator@$00@?$list@U?$pair@EV?$basic_string@DU?$char_traits@D@std@@V?$allocator@D@2@@std@@@std@@V?$allocator@U?$pair@EV?$basic_string@DU?$char_traits@D@std@@V?$allocator@D@2@@std@@@std@@@2@@0@@Z 00413c00 f i FriendMgr.obj
 0001:00012c10       ??$_Fill@PAViterator@?$_Tree@V?$_Tmap_traits@V?$basic_string@DU?$char_traits@D@std@@V?$allocator@D@2@@std@@UPLAYERINFO@CFriendMgr@@U_tstring_less@@V?$allocator@U?$pair@$$CBV?$basic_string@DU?$char_traits@D@std@@V?$allocator@D@2@@std@@UPLAYERINFO@CFriendMgr@@@std@@@2@$0A@@std@@@std@@V123@@std@@YAXPAViterator@?$_Tree@V?$_Tmap_traits@V?$basic_string@DU?$char_traits@D@std@@V?$allocator@D@2@@std@@UPLAYERINFO@CFriendMgr@@U_tstring_less@@V?$allocator@U?$pair@$$CBV?$basic_string@DU?$char_traits@D@std@@V?$allocator@D@2@@std@@UPLAYERINFO@CFriendMgr@@@std@@@2@$0A@@std@@@0@0ABV120@@Z 00413c10 f i FriendMgr.obj
 0001:00012c40       ??$_Iter_random@PAViterator@?$_Tree@V?$_Tmap_traits@V?$basic_string@DU?$char_traits@D@std@@V?$allocator@D@2@@std@@UPLAYERINFO@CFriendMgr@@U_tstring_less@@V?$allocator@U?$pair@$$CBV?$basic_string@DU?$char_traits@D@std@@V?$allocator@D@2@@std@@UPLAYERINFO@CFriendMgr@@@std@@@2@$0A@@std@@@std@@PAV123@@std@@YA?AUrandom_access_iterator_tag@0@ABQAViterator@?$_Tree@V?$_Tmap_traits@V?$basic_string@DU?$char_traits@D@std@@V?$allocator@D@2@@std@@UPLAYERINFO@CFriendMgr@@U_tstring_less@@V?$allocator@U?$pair@$$CBV?$basic_string@DU?$char_traits@D@std@@V?$allocator@D@2@@std@@UPLAYERINFO@CFriendMgr@@@std@@@2@$0A@@std@@@0@0@Z 00413c40 f i FriendMgr.obj
 0001:00012c50       ??$_Move_cat@PAViterator@?$_Tree@V?$_Tmap_traits@V?$basic_string@DU?$char_traits@D@std@@V?$allocator@D@2@@std@@UPLAYERINFO@CFriendMgr@@U_tstring_less@@V?$allocator@U?$pair@$$CBV?$basic_string@DU?$char_traits@D@std@@V?$allocator@D@2@@std@@UPLAYERINFO@CFriendMgr@@@std@@@2@$0A@@std@@@std@@@std@@YA?AU_Undefined_move_tag@0@ABQAViterator@?$_Tree@V?$_Tmap_traits@V?$basic_string@DU?$char_traits@D@std@@V?$allocator@D@2@@std@@UPLAYERINFO@CFriendMgr@@U_tstring_less@@V?$allocator@U?$pair@$$CBV?$basic_string@DU?$char_traits@D@std@@V?$allocator@D@2@@std@@UPLAYERINFO@CFriendMgr@@@std@@@2@$0A@@std@@@0@@Z 00413c50 f i FriendMgr.obj
 0001:00012c60       ??F?$_Const_iterator@$00@?$list@UtagPlusSrcInfo@@V?$allocator@UtagPlusSrcInfo@@@std@@@std@@QAEAAV012@XZ 00413c60 f i FriendMgr.obj
 0001:00012c90       ??F?$_Const_iterator@$00@?$list@U?$pair@EV?$basic_string@DU?$char_traits@D@std@@V?$allocator@D@2@@std@@@std@@V?$allocator@U?$pair@EV?$basic_string@DU?$char_traits@D@std@@V?$allocator@D@2@@std@@@std@@@2@@std@@QAEAAV012@XZ 00413c90 f i FriendMgr.obj
 0001:00012cc0       ??$_Checked_base@PAViterator@?$_Tree@V?$_Tmap_traits@V?$basic_string@DU?$char_traits@D@std@@V?$allocator@D@2@@std@@UPLAYERINFO@CFriendMgr@@U_tstring_less@@V?$allocator@U?$pair@$$CBV?$basic_string@DU?$char_traits@D@std@@V?$allocator@D@2@@std@@UPLAYERINFO@CFriendMgr@@@std@@@2@$0A@@std@@@std@@@std@@YAPAViterator@?$_Tree@V?$_Tmap_traits@V?$basic_string@DU?$char_traits@D@std@@V?$allocator@D@2@@std@@UPLAYERINFO@CFriendMgr@@U_tstring_less@@V?$allocator@U?$pair@$$CBV?$basic_string@DU?$char_traits@D@std@@V?$allocator@D@2@@std@@UPLAYERINFO@CFriendMgr@@@std@@@2@$0A@@std@@@0@AAPAV120@U_Unchanged_checked_iterator_base_type_tag@0@@Z 00413cc0 f i FriendMgr.obj
 0001:00012cd0       ??$_Iter_cat@V?$_Const_iterator@$00@?$list@UMEM_FRIENDRECORD@CFriendMgr@@V?$allocator@UMEM_FRIENDRECORD@CFriendMgr@@@std@@@std@@@std@@YA?AUbidirectional_iterator_tag@0@ABV?$_Const_iterator@$00@?$list@UMEM_FRIENDRECORD@CFriendMgr@@V?$allocator@UMEM_FRIENDRECORD@CFriendMgr@@@std@@@0@@Z 00413cd0 f i FriendMgr.obj
 0001:00012ce0       ??$_Construct@Viterator@?$_Tree@V?$_Tmap_traits@V?$basic_string@DU?$char_traits@D@std@@V?$allocator@D@2@@std@@UPLAYERINFO@CFriendMgr@@U_tstring_less@@V?$allocator@U?$pair@$$CBV?$basic_string@DU?$char_traits@D@std@@V?$allocator@D@2@@std@@UPLAYERINFO@CFriendMgr@@@std@@@2@$0A@@std@@@std@@V123@@std@@YAXPAViterator@?$_Tree@V?$_Tmap_traits@V?$basic_string@DU?$char_traits@D@std@@V?$allocator@D@2@@std@@UPLAYERINFO@CFriendMgr@@U_tstring_less@@V?$allocator@U?$pair@$$CBV?$basic_string@DU?$char_traits@D@std@@V?$allocator@D@2@@std@@UPLAYERINFO@CFriendMgr@@@std@@@2@$0A@@std@@@0@ABV120@@Z 00413ce0 f i FriendMgr.obj
 0001:00012d00       ??$_Destroy@Viterator@?$_Tree@V?$_Tmap_traits@V?$basic_string@DU?$char_traits@D@std@@V?$allocator@D@2@@std@@UPLAYERINFO@CFriendMgr@@U_tstring_less@@V?$allocator@U?$pair@$$CBV?$basic_string@DU?$char_traits@D@std@@V?$allocator@D@2@@std@@UPLAYERINFO@CFriendMgr@@@std@@@2@$0A@@std@@@std@@@std@@YAXPAViterator@?$_Tree@V?$_Tmap_traits@V?$basic_string@DU?$char_traits@D@std@@V?$allocator@D@2@@std@@UPLAYERINFO@CFriendMgr@@U_tstring_less@@V?$allocator@U?$pair@$$CBV?$basic_string@DU?$char_traits@D@std@@V?$allocator@D@2@@std@@UPLAYERINFO@CFriendMgr@@@std@@@2@$0A@@std@@@0@@Z 00413d00 f i FriendMgr.obj
 0001:00012d10       ??F?$_Const_iterator@$00@?$list@UMEM_FRIENDRECORD@CFriendMgr@@V?$allocator@UMEM_FRIENDRECORD@CFriendMgr@@@std@@@std@@QAEAAV012@XZ 00413d10 f i FriendMgr.obj
 0001:00012d40       ??$_Copy_backward_opt@PAViterator@?$_Tree@V?$_Tmap_traits@V?$basic_string@DU?$char_traits@D@std@@V?$allocator@D@2@@std@@UPLAYERINFO@CFriendMgr@@U_tstring_less@@V?$allocator@U?$pair@$$CBV?$basic_string@DU?$char_traits@D@std@@V?$allocator@D@2@@std@@UPLAYERINFO@CFriendMgr@@@std@@@2@$0A@@std@@@std@@PAV123@Uforward_iterator_tag@3@@std@@YAPAViterator@?$_Tree@V?$_Tmap_traits@V?$basic_string@DU?$char_traits@D@std@@V?$allocator@D@2@@std@@UPLAYERINFO@CFriendMgr@@U_tstring_less@@V?$allocator@U?$pair@$$CBV?$basic_string@DU?$char_traits@D@std@@V?$allocator@D@2@@std@@UPLAYERINFO@CFriendMgr@@@std@@@2@$0A@@std@@@0@PAV120@00Uforward_iterator_tag@0@U_Nonscalar_ptr_iterator_tag@0@U_Range_checked_iterator_tag@0@@Z 00413d40 f i FriendMgr.obj
 0001:00012d70       ??4CNetConnectDup@@QAEAAV0@ABV0@@Z 00413d70 f i FriendMgr.obj
 0001:00012dc0       ?GetPlayerCount@CFriendMgr@@QAEIXZ 00413dc0 f   FriendMgr.obj
 0001:00012df0       ?GetAFQSize@CFriendMgr@@QAEIXZ 00413df0 f   FriendMgr.obj
 0001:00012e20       ?empty@?$_Tree@V?$_Tmap_traits@KV?$list@UtagPlusSrcInfo@@V?$allocator@UtagPlusSrcInfo@@@std@@@std@@U?$less@K@2@V?$allocator@U?$pair@$$CBKV?$list@UtagPlusSrcInfo@@V?$allocator@UtagPlusSrcInfo@@@std@@@std@@@std@@@2@$0A@@std@@@std@@QBE_NXZ 00413e20 f i FriendMgr.obj
 0001:00012e30       ??9const_iterator@?$_Tree@V?$_Tmap_traits@KV?$list@UtagPlusSrcInfo@@V?$allocator@UtagPlusSrcInfo@@@std@@@std@@U?$less@K@2@V?$allocator@U?$pair@$$CBKV?$list@UtagPlusSrcInfo@@V?$allocator@UtagPlusSrcInfo@@@std@@@std@@@std@@@2@$0A@@std@@@std@@QBE_NABV012@@Z 00413e30 f i FriendMgr.obj
 0001:00012e60       ?empty@?$_Tree@V?$_Tmap_traits@V?$basic_string@DU?$char_traits@D@std@@V?$allocator@D@2@@std@@V?$list@U?$pair@EV?$basic_string@DU?$char_traits@D@std@@V?$allocator@D@2@@std@@@std@@V?$allocator@U?$pair@EV?$basic_string@DU?$char_traits@D@std@@V?$allocator@D@2@@std@@@std@@@2@@2@U_tstring_less@@V?$allocator@U?$pair@$$CBV?$basic_string@DU?$char_traits@D@std@@V?$allocator@D@2@@std@@V?$list@U?$pair@EV?$basic_string@DU?$char_traits@D@std@@V?$allocator@D@2@@std@@@std@@V?$allocator@U?$pair@EV?$basic_string@DU?$char_traits@D@std@@V?$allocator@D@2@@std@@@std@@@2@@2@@std@@@2@$0A@@std@@@std@@QBE_NXZ 00413e60 f i FriendMgr.obj
 0001:00012e70       ??9const_iterator@?$_Tree@V?$_Tmap_traits@V?$basic_string@DU?$char_traits@D@std@@V?$allocator@D@2@@std@@V?$list@U?$pair@EV?$basic_string@DU?$char_traits@D@std@@V?$allocator@D@2@@std@@@std@@V?$allocator@U?$pair@EV?$basic_string@DU?$char_traits@D@std@@V?$allocator@D@2@@std@@@std@@@2@@2@U_tstring_less@@V?$allocator@U?$pair@$$CBV?$basic_string@DU?$char_traits@D@std@@V?$allocator@D@2@@std@@V?$list@U?$pair@EV?$basic_string@DU?$char_traits@D@std@@V?$allocator@D@2@@std@@@std@@V?$allocator@U?$pair@EV?$basic_string@DU?$char_traits@D@std@@V?$allocator@D@2@@std@@@std@@@2@@2@@std@@@2@$0A@@std@@@std@@QBE_NABV012@@Z 00413e70 f i FriendMgr.obj
 0001:00012ea0       ??9?$_Const_iterator@$00@?$list@U?$pair@EV?$basic_string@DU?$char_traits@D@std@@V?$allocator@D@2@@std@@@std@@V?$allocator@U?$pair@EV?$basic_string@DU?$char_traits@D@std@@V?$allocator@D@2@@std@@@std@@@2@@std@@QBE_NABV012@@Z 00413ea0 f i FriendMgr.obj
 0001:00012ed0       ??D?$_Const_iterator@$00@?$list@UMEM_FRIENDRECORD@CFriendMgr@@V?$allocator@UMEM_FRIENDRECORD@CFriendMgr@@@std@@@std@@QBEABUMEM_FRIENDRECORD@CFriendMgr@@XZ 00413ed0 f i FriendMgr.obj
 0001:00012f00       ??E?$_Const_iterator@$00@?$list@UMEM_FRIENDRECORD@CFriendMgr@@V?$allocator@UMEM_FRIENDRECORD@CFriendMgr@@@std@@@std@@QAE?AV012@H@Z 00413f00 f i FriendMgr.obj
 0001:00012f40       ??9?$_Const_iterator@$00@?$list@UMEM_FRIENDRECORD@CFriendMgr@@V?$allocator@UMEM_FRIENDRECORD@CFriendMgr@@@std@@@std@@QBE_NABV012@@Z 00413f40 f i FriendMgr.obj
 0001:00012f70       ??9?$_Const_iterator@$00@?$list@V?$basic_string@DU?$char_traits@D@std@@V?$allocator@D@2@@std@@V?$allocator@V?$basic_string@DU?$char_traits@D@std@@V?$allocator@D@2@@std@@@2@@std@@QBE_NABV012@@Z 00413f70 f i FriendMgr.obj
 0001:00012fa0       ??9?$_Const_iterator@$00@?$list@UONEPLAYER@CFriendMgr@@V?$allocator@UONEPLAYER@CFriendMgr@@@std@@@std@@QBE_NABV012@@Z 00413fa0 f i FriendMgr.obj
 0001:00012fd0       ?_Key@?$_Tree@V?$_Tmap_traits@V?$basic_string@DU?$char_traits@D@std@@V?$allocator@D@2@@std@@UFRIENDINFO@CFriendMgr@@U_tstring_less@@V?$allocator@U?$pair@$$CBV?$basic_string@DU?$char_traits@D@std@@V?$allocator@D@2@@std@@UFRIENDINFO@CFriendMgr@@@std@@@2@$0A@@std@@@std@@KAABV?$basic_string@DU?$char_traits@D@std@@V?$allocator@D@2@@2@PAU_Node@?$_Tree_nod@V?$_Tmap_traits@V?$basic_string@DU?$char_traits@D@std@@V?$allocator@D@2@@std@@UFRIENDINFO@CFriendMgr@@U_tstring_less@@V?$allocator@U?$pair@$$CBV?$basic_string@DU?$char_traits@D@std@@V?$allocator@D@2@@std@@UFRIENDINFO@CFriendMgr@@@std@@@2@$0A@@std@@@2@@Z 00413fd0 f i FriendMgr.obj
 0001:00012fe0       ?_Lrotate@?$_Tree@V?$_Tmap_traits@V?$basic_string@DU?$char_traits@D@std@@V?$allocator@D@2@@std@@UFRIENDINFO@CFriendMgr@@U_tstring_less@@V?$allocator@U?$pair@$$CBV?$basic_string@DU?$char_traits@D@std@@V?$allocator@D@2@@std@@UFRIENDINFO@CFriendMgr@@@std@@@2@$0A@@std@@@std@@IAEXPAU_Node@?$_Tree_nod@V?$_Tmap_traits@V?$basic_string@DU?$char_traits@D@std@@V?$allocator@D@2@@std@@UFRIENDINFO@CFriendMgr@@U_tstring_less@@V?$allocator@U?$pair@$$CBV?$basic_string@DU?$char_traits@D@std@@V?$allocator@D@2@@std@@UFRIENDINFO@CFriendMgr@@@std@@@2@$0A@@std@@@2@@Z 00413fe0 f i FriendMgr.obj
 0001:00013030       ?_Key@?$_Tree@V?$_Tmap_traits@V?$basic_string@DU?$char_traits@D@std@@V?$allocator@D@2@@std@@UPLAYERINFO@CFriendMgr@@U_tstring_less@@V?$allocator@U?$pair@$$CBV?$basic_string@DU?$char_traits@D@std@@V?$allocator@D@2@@std@@UPLAYERINFO@CFriendMgr@@@std@@@2@$0A@@std@@@std@@KAABV?$basic_string@DU?$char_traits@D@std@@V?$allocator@D@2@@2@PAU_Node@?$_Tree_nod@V?$_Tmap_traits@V?$basic_string@DU?$char_traits@D@std@@V?$allocator@D@2@@std@@UPLAYERINFO@CFriendMgr@@U_tstring_less@@V?$allocator@U?$pair@$$CBV?$basic_string@DU?$char_traits@D@std@@V?$allocator@D@2@@std@@UPLAYERINFO@CFriendMgr@@@std@@@2@$0A@@std@@@2@@Z 00414030 f i FriendMgr.obj
 0001:00013040       ?_Root@?$_Tree@V?$_Tmap_traits@V?$basic_string@DU?$char_traits@D@std@@V?$allocator@D@2@@std@@UPLAYERINFO@CFriendMgr@@U_tstring_less@@V?$allocator@U?$pair@$$CBV?$basic_string@DU?$char_traits@D@std@@V?$allocator@D@2@@std@@UPLAYERINFO@CFriendMgr@@@std@@@2@$0A@@std@@@std@@IBEAAPAU_Node@?$_Tree_nod@V?$_Tmap_traits@V?$basic_string@DU?$char_traits@D@std@@V?$allocator@D@2@@std@@UPLAYERINFO@CFriendMgr@@U_tstring_less@@V?$allocator@U?$pair@$$CBV?$basic_string@DU?$char_traits@D@std@@V?$allocator@D@2@@std@@UPLAYERINFO@CFriendMgr@@@std@@@2@$0A@@std@@@2@XZ 00414040 f i FriendMgr.obj
 0001:00013050       ?_Key@?$_Tree@V?$_Tmap_traits@UADDFRIENDKEY@CFriendMgr@@UADDFRIENDVALUE@2@U?$less@UADDFRIENDKEY@CFriendMgr@@@std@@V?$allocator@U?$pair@$$CBUADDFRIENDKEY@CFriendMgr@@UADDFRIENDVALUE@2@@std@@@5@$0A@@std@@@std@@KAABUADDFRIENDKEY@CFriendMgr@@PAU_Node@?$_Tree_nod@V?$_Tmap_traits@UADDFRIENDKEY@CFriendMgr@@UADDFRIENDVALUE@2@U?$less@UADDFRIENDKEY@CFriendMgr@@@std@@V?$allocator@U?$pair@$$CBUADDFRIENDKEY@CFriendMgr@@UADDFRIENDVALUE@2@@std@@@5@$0A@@std@@@2@@Z 00414050 f i FriendMgr.obj
 0001:00013060       ?_Lrotate@?$_Tree@V?$_Tmap_traits@UADDFRIENDKEY@CFriendMgr@@UADDFRIENDVALUE@2@U?$less@UADDFRIENDKEY@CFriendMgr@@@std@@V?$allocator@U?$pair@$$CBUADDFRIENDKEY@CFriendMgr@@UADDFRIENDVALUE@2@@std@@@5@$0A@@std@@@std@@IAEXPAU_Node@?$_Tree_nod@V?$_Tmap_traits@UADDFRIENDKEY@CFriendMgr@@UADDFRIENDVALUE@2@U?$less@UADDFRIENDKEY@CFriendMgr@@@std@@V?$allocator@U?$pair@$$CBUADDFRIENDKEY@CFriendMgr@@UADDFRIENDVALUE@2@@std@@@5@$0A@@std@@@2@@Z 00414060 f i FriendMgr.obj
 0001:000130b0       ??0iterator@?$_Tree@V?$_Tmap_traits@V?$basic_string@DU?$char_traits@D@std@@V?$allocator@D@2@@std@@UPLAYERINFO@CFriendMgr@@U_tstring_less@@V?$allocator@U?$pair@$$CBV?$basic_string@DU?$char_traits@D@std@@V?$allocator@D@2@@std@@UPLAYERINFO@CFriendMgr@@@std@@@2@$0A@@std@@@std@@QAE@PAU_Node@?$_Tree_nod@V?$_Tmap_traits@V?$basic_string@DU?$char_traits@D@std@@V?$allocator@D@2@@std@@UPLAYERINFO@CFriendMgr@@U_tstring_less@@V?$allocator@U?$pair@$$CBV?$basic_string@DU?$char_traits@D@std@@V?$allocator@D@2@@std@@UPLAYERINFO@CFriendMgr@@@std@@@2@$0A@@std@@@2@PBV12@@Z 004140b0 f i FriendMgr.obj
 0001:000130e0       ??0const_iterator@?$_Tree@V?$_Tmap_traits@V?$basic_string@DU?$char_traits@D@std@@V?$allocator@D@2@@std@@UPLAYERINFO@CFriendMgr@@U_tstring_less@@V?$allocator@U?$pair@$$CBV?$basic_string@DU?$char_traits@D@std@@V?$allocator@D@2@@std@@UPLAYERINFO@CFriendMgr@@@std@@@2@$0A@@std@@@std@@QAE@XZ 004140e0 f i FriendMgr.obj
 0001:000130f0       ??Dconst_iterator@?$_Tree@V?$_Tmap_traits@V?$basic_string@DU?$char_traits@D@std@@V?$allocator@D@2@@std@@UPLAYERINFO@CFriendMgr@@U_tstring_less@@V?$allocator@U?$pair@$$CBV?$basic_string@DU?$char_traits@D@std@@V?$allocator@D@2@@std@@UPLAYERINFO@CFriendMgr@@@std@@@2@$0A@@std@@@std@@QBEABU?$pair@$$CBV?$basic_string@DU?$char_traits@D@std@@V?$allocator@D@2@@std@@UPLAYERINFO@CFriendMgr@@@2@XZ 004140f0 f i FriendMgr.obj
 0001:00013120       ?_Key@?$_Tree@V?$_Tmap_traits@KV?$list@UtagPlusSrcInfo@@V?$allocator@UtagPlusSrcInfo@@@std@@@std@@U?$less@K@2@V?$allocator@U?$pair@$$CBKV?$list@UtagPlusSrcInfo@@V?$allocator@UtagPlusSrcInfo@@@std@@@std@@@std@@@2@$0A@@std@@@std@@KAABKPAU_Node@?$_Tree_nod@V?$_Tmap_traits@KV?$list@UtagPlusSrcInfo@@V?$allocator@UtagPlusSrcInfo@@@std@@@std@@U?$less@K@2@V?$allocator@U?$pair@$$CBKV?$list@UtagPlusSrcInfo@@V?$allocator@UtagPlusSrcInfo@@@std@@@std@@@std@@@2@$0A@@std@@@2@@Z 00414120 f i FriendMgr.obj
 0001:00013130       ?_Lmost@?$_Tree@V?$_Tmap_traits@KV?$list@UtagPlusSrcInfo@@V?$allocator@UtagPlusSrcInfo@@@std@@@std@@U?$less@K@2@V?$allocator@U?$pair@$$CBKV?$list@UtagPlusSrcInfo@@V?$allocator@UtagPlusSrcInfo@@@std@@@std@@@std@@@2@$0A@@std@@@std@@IBEAAPAU_Node@?$_Tree_nod@V?$_Tmap_traits@KV?$list@UtagPlusSrcInfo@@V?$allocator@UtagPlusSrcInfo@@@std@@@std@@U?$less@K@2@V?$allocator@U?$pair@$$CBKV?$list@UtagPlusSrcInfo@@V?$allocator@UtagPlusSrcInfo@@@std@@@std@@@std@@@2@$0A@@std@@@2@XZ 00414130 f i FriendMgr.obj
 0001:00013140       ??Dconst_iterator@?$_Tree@V?$_Tmap_traits@V?$basic_string@DU?$char_traits@D@std@@V?$allocator@D@2@@std@@UFRIENDINFO@CFriendMgr@@U_tstring_less@@V?$allocator@U?$pair@$$CBV?$basic_string@DU?$char_traits@D@std@@V?$allocator@D@2@@std@@UFRIENDINFO@CFriendMgr@@@std@@@2@$0A@@std@@@std@@QBEABU?$pair@$$CBV?$basic_string@DU?$char_traits@D@std@@V?$allocator@D@2@@std@@UFRIENDINFO@CFriendMgr@@@2@XZ 00414140 f i FriendMgr.obj
 0001:00013170       ??Dconst_iterator@?$_Tree@V?$_Tmap_traits@KV?$list@UtagPlusSrcInfo@@V?$allocator@UtagPlusSrcInfo@@@std@@@std@@U?$less@K@2@V?$allocator@U?$pair@$$CBKV?$list@UtagPlusSrcInfo@@V?$allocator@UtagPlusSrcInfo@@@std@@@std@@@std@@@2@$0A@@std@@@std@@QBEABU?$pair@$$CBKV?$list@UtagPlusSrcInfo@@V?$allocator@UtagPlusSrcInfo@@@std@@@std@@@2@XZ 00414170 f i FriendMgr.obj
 0001:000131a0       ??E?$_Iterator@$00@?$list@UtagPlusSrcInfo@@V?$allocator@UtagPlusSrcInfo@@@std@@@std@@QAEAAV012@XZ 004141a0 f i FriendMgr.obj
 0001:000131d0       ?_Key@?$_Tree@V?$_Tmap_traits@V?$basic_string@DU?$char_traits@D@std@@V?$allocator@D@2@@std@@V?$list@U?$pair@EV?$basic_string@DU?$char_traits@D@std@@V?$allocator@D@2@@std@@@std@@V?$allocator@U?$pair@EV?$basic_string@DU?$char_traits@D@std@@V?$allocator@D@2@@std@@@std@@@2@@2@U_tstring_less@@V?$allocator@U?$pair@$$CBV?$basic_string@DU?$char_traits@D@std@@V?$allocator@D@2@@std@@V?$list@U?$pair@EV?$basic_string@DU?$char_traits@D@std@@V?$allocator@D@2@@std@@@std@@V?$allocator@U?$pair@EV?$basic_string@DU?$char_traits@D@std@@V?$allocator@D@2@@std@@@std@@@2@@2@@std@@@2@$0A@@std@@@std@@KAABV?$basic_string@DU?$char_traits@D@std@@V?$allocator@D@2@@2@PAU_Node@?$_Tree_nod@V?$_Tmap_traits@V?$basic_string@DU?$char_traits@D@std@@V?$allocator@D@2@@std@@V?$list@U?$pair@EV?$basic_string@DU?$char_traits@D@std@@V?$allocator@D@2@@std@@@std@@V?$allocator@U?$pair@EV?$basic_string@DU?$char_traits@D@std@@V?$allocator@D@2@@std@@@std@@@2@@2@U_tstring_less@@V?$allocator@U?$pair@$$CBV?$basic_string@DU?$char_traits@D@std@@V?$allocator@D@2@@std@@V?$list@U?$pair@EV?$basic_string@DU?$char_traits@D@std@@V?$allocator@D@2@@std@@@std@@V?$allocator@U?$pair@EV?$basic_string@DU?$char_traits@D@std@@V?$allocator@D@2@@std@@@std@@@2@@2@@std@@@2@$0A@@std@@@2@@Z 004141d0 f i FriendMgr.obj
 0001:000131e0       ?_Lmost@?$_Tree@V?$_Tmap_traits@V?$basic_string@DU?$char_traits@D@std@@V?$allocator@D@2@@std@@V?$list@U?$pair@EV?$basic_string@DU?$char_traits@D@std@@V?$allocator@D@2@@std@@@std@@V?$allocator@U?$pair@EV?$basic_string@DU?$char_traits@D@std@@V?$allocator@D@2@@std@@@std@@@2@@2@U_tstring_less@@V?$allocator@U?$pair@$$CBV?$basic_string@DU?$char_traits@D@std@@V?$allocator@D@2@@std@@V?$list@U?$pair@EV?$basic_string@DU?$char_traits@D@std@@V?$allocator@D@2@@std@@@std@@V?$allocator@U?$pair@EV?$basic_string@DU?$char_traits@D@std@@V?$allocator@D@2@@std@@@std@@@2@@2@@std@@@2@$0A@@std@@@std@@IBEAAPAU_Node@?$_Tree_nod@V?$_Tmap_traits@V?$basic_string@DU?$char_traits@D@std@@V?$allocator@D@2@@std@@V?$list@U?$pair@EV?$basic_string@DU?$char_traits@D@std@@V?$allocator@D@2@@std@@@std@@V?$allocator@U?$pair@EV?$basic_string@DU?$char_traits@D@std@@V?$allocator@D@2@@std@@@std@@@2@@2@U_tstring_less@@V?$allocator@U?$pair@$$CBV?$basic_string@DU?$char_traits@D@std@@V?$allocator@D@2@@std@@V?$list@U?$pair@EV?$basic_string@DU?$char_traits@D@std@@V?$allocator@D@2@@std@@@std@@V?$allocator@U?$pair@EV?$basic_string@DU?$char_traits@D@std@@V?$allocator@D@2@@std@@@std@@@2@@2@@std@@@2@$0A@@std@@@2@XZ 004141e0 f i FriendMgr.obj
 0001:000131f0       ??Dconst_iterator@?$_Tree@V?$_Tmap_traits@V?$basic_string@DU?$char_traits@D@std@@V?$allocator@D@2@@std@@V?$list@U?$pair@EV?$basic_string@DU?$char_traits@D@std@@V?$allocator@D@2@@std@@@std@@V?$allocator@U?$pair@EV?$basic_string@DU?$char_traits@D@std@@V?$allocator@D@2@@std@@@std@@@2@@2@U_tstring_less@@V?$allocator@U?$pair@$$CBV?$basic_string@DU?$char_traits@D@std@@V?$allocator@D@2@@std@@V?$list@U?$pair@EV?$basic_string@DU?$char_traits@D@std@@V?$allocator@D@2@@std@@@std@@V?$allocator@U?$pair@EV?$basic_string@DU?$char_traits@D@std@@V?$allocator@D@2@@std@@@std@@@2@@2@@std@@@2@$0A@@std@@@std@@QBEABU?$pair@$$CBV?$basic_string@DU?$char_traits@D@std@@V?$allocator@D@2@@std@@V?$list@U?$pair@EV?$basic_string@DU?$char_traits@D@std@@V?$allocator@D@2@@std@@@std@@V?$allocator@U?$pair@EV?$basic_string@DU?$char_traits@D@std@@V?$allocator@D@2@@std@@@std@@@2@@2@@2@XZ 004141f0 f i FriendMgr.obj
 0001:00013220       ??E?$_Iterator@$00@?$list@U?$pair@EV?$basic_string@DU?$char_traits@D@std@@V?$allocator@D@2@@std@@@std@@V?$allocator@U?$pair@EV?$basic_string@DU?$char_traits@D@std@@V?$allocator@D@2@@std@@@std@@@2@@std@@QAEAAV012@XZ 00414220 f i FriendMgr.obj
 0001:00013250       ??D?$_Const_iterator@$00@?$list@U?$pair@EV?$basic_string@DU?$char_traits@D@std@@V?$allocator@D@2@@std@@@std@@V?$allocator@U?$pair@EV?$basic_string@DU?$char_traits@D@std@@V?$allocator@D@2@@std@@@std@@@2@@std@@QBEABU?$pair@EV?$basic_string@DU?$char_traits@D@std@@V?$allocator@D@2@@std@@@2@XZ 00414250 f i FriendMgr.obj
 0001:00013280       ??Dconst_iterator@?$_Tree@V?$_Tmap_traits@UADDFRIENDKEY@CFriendMgr@@UADDFRIENDVALUE@2@U?$less@UADDFRIENDKEY@CFriendMgr@@@std@@V?$allocator@U?$pair@$$CBUADDFRIENDKEY@CFriendMgr@@UADDFRIENDVALUE@2@@std@@@5@$0A@@std@@@std@@QBEABU?$pair@$$CBUADDFRIENDKEY@CFriendMgr@@UADDFRIENDVALUE@2@@2@XZ 00414280 f i FriendMgr.obj
 0001:000132b0       ??E?$_Iterator@$00@?$list@UMEM_FRIENDRECORD@CFriendMgr@@V?$allocator@UMEM_FRIENDRECORD@CFriendMgr@@@std@@@std@@QAEAAV012@XZ 004142b0 f i FriendMgr.obj
 0001:000132e0       ??0?$_Const_iterator@$00@?$list@UMEM_FRIENDRECORD@CFriendMgr@@V?$allocator@UMEM_FRIENDRECORD@CFriendMgr@@@std@@@std@@QAE@PAU_Node@?$_List_nod@UMEM_FRIENDRECORD@CFriendMgr@@V?$allocator@UMEM_FRIENDRECORD@CFriendMgr@@@std@@@2@PBV12@@Z 004142e0 f i FriendMgr.obj
 0001:00013310       ??E?$_Iterator@$00@?$list@V?$basic_string@DU?$char_traits@D@std@@V?$allocator@D@2@@std@@V?$allocator@V?$basic_string@DU?$char_traits@D@std@@V?$allocator@D@2@@std@@@2@@std@@QAEAAV012@XZ 00414310 f i FriendMgr.obj
 0001:00013340       ??D?$_Const_iterator@$00@?$list@V?$basic_string@DU?$char_traits@D@std@@V?$allocator@D@2@@std@@V?$allocator@V?$basic_string@DU?$char_traits@D@std@@V?$allocator@D@2@@std@@@2@@std@@QBEABV?$basic_string@DU?$char_traits@D@std@@V?$allocator@D@2@@2@XZ 00414340 f i FriendMgr.obj
 0001:00013370       ??E?$_Iterator@$00@?$list@UONEPLAYER@CFriendMgr@@V?$allocator@UONEPLAYER@CFriendMgr@@@std@@@std@@QAEAAV012@XZ 00414370 f i FriendMgr.obj
 0001:000133a0       ??F?$_Iterator@$00@?$list@UONEPLAYER@CFriendMgr@@V?$allocator@UONEPLAYER@CFriendMgr@@@std@@@std@@QAEAAV012@XZ 004143a0 f i FriendMgr.obj
 0001:000133d0       ??D?$_Const_iterator@$00@?$list@UONEPLAYER@CFriendMgr@@V?$allocator@UONEPLAYER@CFriendMgr@@@std@@@std@@QBEABUONEPLAYER@CFriendMgr@@XZ 004143d0 f i FriendMgr.obj
 0001:00013400       ??0?$_Vector_val@Viterator@?$_Tree@V?$_Tmap_traits@V?$basic_string@DU?$char_traits@D@std@@V?$allocator@D@2@@std@@UPLAYERINFO@CFriendMgr@@U_tstring_less@@V?$allocator@U?$pair@$$CBV?$basic_string@DU?$char_traits@D@std@@V?$allocator@D@2@@std@@UPLAYERINFO@CFriendMgr@@@std@@@2@$0A@@std@@@std@@V?$allocator@Viterator@?$_Tree@V?$_Tmap_traits@V?$basic_string@DU?$char_traits@D@std@@V?$allocator@D@2@@std@@UPLAYERINFO@CFriendMgr@@U_tstring_less@@V?$allocator@U?$pair@$$CBV?$basic_string@DU?$char_traits@D@std@@V?$allocator@D@2@@std@@UPLAYERINFO@CFriendMgr@@@std@@@2@$0A@@std@@@std@@@3@@std@@IAE@V?$allocator@Viterator@?$_Tree@V?$_Tmap_traits@V?$basic_string@DU?$char_traits@D@std@@V?$allocator@D@2@@std@@UPLAYERINFO@CFriendMgr@@U_tstring_less@@V?$allocator@U?$pair@$$CBV?$basic_string@DU?$char_traits@D@std@@V?$allocator@D@2@@std@@UPLAYERINFO@CFriendMgr@@@std@@@2@$0A@@std@@@std@@@1@@Z 00414400 f i FriendMgr.obj
 0001:00013410       ?max_size@?$_Tree@V?$_Tmap_traits@V?$basic_string@DU?$char_traits@D@std@@V?$allocator@D@2@@std@@UFRIENDINFO@CFriendMgr@@U_tstring_less@@V?$allocator@U?$pair@$$CBV?$basic_string@DU?$char_traits@D@std@@V?$allocator@D@2@@std@@UFRIENDINFO@CFriendMgr@@@std@@@2@$0A@@std@@@std@@QBEIXZ 00414410 f i FriendMgr.obj
 0001:00013420       ?get_allocator@?$_Tree@V?$_Tmap_traits@V?$basic_string@DU?$char_traits@D@std@@V?$allocator@D@2@@std@@UFRIENDINFO@CFriendMgr@@U_tstring_less@@V?$allocator@U?$pair@$$CBV?$basic_string@DU?$char_traits@D@std@@V?$allocator@D@2@@std@@UFRIENDINFO@CFriendMgr@@@std@@@2@$0A@@std@@@std@@QBE?AV?$allocator@U?$pair@$$CBV?$basic_string@DU?$char_traits@D@std@@V?$allocator@D@2@@std@@UFRIENDINFO@CFriendMgr@@@std@@@2@XZ 00414420 f i FriendMgr.obj
 0001:00013430       ?destroy@?$allocator@PAU_Node@?$_Tree_nod@V?$_Tmap_traits@V?$basic_string@DU?$char_traits@D@std@@V?$allocator@D@2@@std@@UFRIENDINFO@CFriendMgr@@U_tstring_less@@V?$allocator@U?$pair@$$CBV?$basic_string@DU?$char_traits@D@std@@V?$allocator@D@2@@std@@UFRIENDINFO@CFriendMgr@@@std@@@2@$0A@@std@@@std@@@std@@QAEXPAPAU_Node@?$_Tree_nod@V?$_Tmap_traits@V?$basic_string@DU?$char_traits@D@std@@V?$allocator@D@2@@std@@UFRIENDINFO@CFriendMgr@@U_tstring_less@@V?$allocator@U?$pair@$$CBV?$basic_string@DU?$char_traits@D@std@@V?$allocator@D@2@@std@@UFRIENDINFO@CFriendMgr@@@std@@@2@$0A@@std@@@2@@Z 00414430 f i FriendMgr.obj
 0001:00013440       ?max_size@?$_Tree@V?$_Tmap_traits@V?$basic_string@DU?$char_traits@D@std@@V?$allocator@D@2@@std@@UPLAYERINFO@CFriendMgr@@U_tstring_less@@V?$allocator@U?$pair@$$CBV?$basic_string@DU?$char_traits@D@std@@V?$allocator@D@2@@std@@UPLAYERINFO@CFriendMgr@@@std@@@2@$0A@@std@@@std@@QBEIXZ 00414440 f i FriendMgr.obj
 0001:00013450       ?_Lrotate@?$_Tree@V?$_Tmap_traits@V?$basic_string@DU?$char_traits@D@std@@V?$allocator@D@2@@std@@UPLAYERINFO@CFriendMgr@@U_tstring_less@@V?$allocator@U?$pair@$$CBV?$basic_string@DU?$char_traits@D@std@@V?$allocator@D@2@@std@@UPLAYERINFO@CFriendMgr@@@std@@@2@$0A@@std@@@std@@IAEXPAU_Node@?$_Tree_nod@V?$_Tmap_traits@V?$basic_string@DU?$char_traits@D@std@@V?$allocator@D@2@@std@@UPLAYERINFO@CFriendMgr@@U_tstring_less@@V?$allocator@U?$pair@$$CBV?$basic_string@DU?$char_traits@D@std@@V?$allocator@D@2@@std@@UPLAYERINFO@CFriendMgr@@@std@@@2@$0A@@std@@@2@@Z 00414450 f i FriendMgr.obj
 0001:000134a0       ?_Rrotate@?$_Tree@V?$_Tmap_traits@V?$basic_string@DU?$char_traits@D@std@@V?$allocator@D@2@@std@@UPLAYERINFO@CFriendMgr@@U_tstring_less@@V?$allocator@U?$pair@$$CBV?$basic_string@DU?$char_traits@D@std@@V?$allocator@D@2@@std@@UPLAYERINFO@CFriendMgr@@@std@@@2@$0A@@std@@@std@@IAEXPAU_Node@?$_Tree_nod@V?$_Tmap_traits@V?$basic_string@DU?$char_traits@D@std@@V?$allocator@D@2@@std@@UPLAYERINFO@CFriendMgr@@U_tstring_less@@V?$allocator@U?$pair@$$CBV?$basic_string@DU?$char_traits@D@std@@V?$allocator@D@2@@std@@UPLAYERINFO@CFriendMgr@@@std@@@2@$0A@@std@@@2@@Z 004144a0 f i FriendMgr.obj
 0001:00013500       ?destroy@?$allocator@PAU_Node@?$_Tree_nod@V?$_Tmap_traits@V?$basic_string@DU?$char_traits@D@std@@V?$allocator@D@2@@std@@UPLAYERINFO@CFriendMgr@@U_tstring_less@@V?$allocator@U?$pair@$$CBV?$basic_string@DU?$char_traits@D@std@@V?$allocator@D@2@@std@@UPLAYERINFO@CFriendMgr@@@std@@@2@$0A@@std@@@std@@@std@@QAEXPAPAU_Node@?$_Tree_nod@V?$_Tmap_traits@V?$basic_string@DU?$char_traits@D@std@@V?$allocator@D@2@@std@@UPLAYERINFO@CFriendMgr@@U_tstring_less@@V?$allocator@U?$pair@$$CBV?$basic_string@DU?$char_traits@D@std@@V?$allocator@D@2@@std@@UPLAYERINFO@CFriendMgr@@@std@@@2@$0A@@std@@@2@@Z 00414500 f i FriendMgr.obj
 0001:00013510       ?destroy@?$allocator@PAU_Node@?$_Tree_nod@V?$_Tmap_traits@UADDFRIENDKEY@CFriendMgr@@UADDFRIENDVALUE@2@U?$less@UADDFRIENDKEY@CFriendMgr@@@std@@V?$allocator@U?$pair@$$CBUADDFRIENDKEY@CFriendMgr@@UADDFRIENDVALUE@2@@std@@@5@$0A@@std@@@std@@@std@@QAEXPAPAU_Node@?$_Tree_nod@V?$_Tmap_traits@UADDFRIENDKEY@CFriendMgr@@UADDFRIENDVALUE@2@U?$less@UADDFRIENDKEY@CFriendMgr@@@std@@V?$allocator@U?$pair@$$CBUADDFRIENDKEY@CFriendMgr@@UADDFRIENDVALUE@2@@std@@@5@$0A@@std@@@2@@Z 00414510 f i FriendMgr.obj
 0001:00013520       ?allocate@?$allocator@U_Node@?$_List_nod@UMEM_FRIENDRECORD@CFriendMgr@@V?$allocator@UMEM_FRIENDRECORD@CFriendMgr@@@std@@@std@@@std@@QAEPAU_Node@?$_List_nod@UMEM_FRIENDRECORD@CFriendMgr@@V?$allocator@UMEM_FRIENDRECORD@CFriendMgr@@@std@@@2@I@Z 00414520 f i FriendMgr.obj
 0001:00013540       ?construct@?$allocator@PAU_Node@?$_List_nod@UMEM_FRIENDRECORD@CFriendMgr@@V?$allocator@UMEM_FRIENDRECORD@CFriendMgr@@@std@@@std@@@std@@QAEXPAPAU_Node@?$_List_nod@UMEM_FRIENDRECORD@CFriendMgr@@V?$allocator@UMEM_FRIENDRECORD@CFriendMgr@@@std@@@2@ABQAU342@@Z 00414540 f i FriendMgr.obj
 0001:00013560       ?destroy@?$allocator@PAU_Node@?$_List_nod@UMEM_FRIENDRECORD@CFriendMgr@@V?$allocator@UMEM_FRIENDRECORD@CFriendMgr@@@std@@@std@@@std@@QAEXPAPAU_Node@?$_List_nod@UMEM_FRIENDRECORD@CFriendMgr@@V?$allocator@UMEM_FRIENDRECORD@CFriendMgr@@@std@@@2@@Z 00414560 f i FriendMgr.obj
 0001:00013570       ?_Dec@const_iterator@?$_Tree@V?$_Tmap_traits@V?$basic_string@DU?$char_traits@D@std@@V?$allocator@D@2@@std@@UPLAYERINFO@CFriendMgr@@U_tstring_less@@V?$allocator@U?$pair@$$CBV?$basic_string@DU?$char_traits@D@std@@V?$allocator@D@2@@std@@UPLAYERINFO@CFriendMgr@@@std@@@2@$0A@@std@@@std@@QAEXXZ 00414570 f i FriendMgr.obj
 0001:00013600       ?_Inc@const_iterator@?$_Tree@V?$_Tmap_traits@V?$basic_string@DU?$char_traits@D@std@@V?$allocator@D@2@@std@@UPLAYERINFO@CFriendMgr@@U_tstring_less@@V?$allocator@U?$pair@$$CBV?$basic_string@DU?$char_traits@D@std@@V?$allocator@D@2@@std@@UPLAYERINFO@CFriendMgr@@@std@@@2@$0A@@std@@@std@@QAEXXZ 00414600 f i FriendMgr.obj
 0001:00013670       ?_Lbound@?$_Tree@V?$_Tmap_traits@KV?$list@UtagPlusSrcInfo@@V?$allocator@UtagPlusSrcInfo@@@std@@@std@@U?$less@K@2@V?$allocator@U?$pair@$$CBKV?$list@UtagPlusSrcInfo@@V?$allocator@UtagPlusSrcInfo@@@std@@@std@@@std@@@2@$0A@@std@@@std@@IBEPAU_Node@?$_Tree_nod@V?$_Tmap_traits@KV?$list@UtagPlusSrcInfo@@V?$allocator@UtagPlusSrcInfo@@@std@@@std@@U?$less@K@2@V?$allocator@U?$pair@$$CBKV?$list@UtagPlusSrcInfo@@V?$allocator@UtagPlusSrcInfo@@@std@@@std@@@std@@@2@$0A@@std@@@2@ABK@Z 00414670 f i FriendMgr.obj
 0001:000136a0       ?destroy@?$allocator@PAU_Node@?$_Tree_nod@V?$_Tmap_traits@KV?$list@UtagPlusSrcInfo@@V?$allocator@UtagPlusSrcInfo@@@std@@@std@@U?$less@K@2@V?$allocator@U?$pair@$$CBKV?$list@UtagPlusSrcInfo@@V?$allocator@UtagPlusSrcInfo@@@std@@@std@@@std@@@2@$0A@@std@@@std@@@std@@QAEXPAPAU_Node@?$_Tree_nod@V?$_Tmap_traits@KV?$list@UtagPlusSrcInfo@@V?$allocator@UtagPlusSrcInfo@@@std@@@std@@U?$less@K@2@V?$allocator@U?$pair@$$CBKV?$list@UtagPlusSrcInfo@@V?$allocator@UtagPlusSrcInfo@@@std@@@std@@@std@@@2@$0A@@std@@@2@@Z 004146a0 f i FriendMgr.obj
 0001:000136b0       ??0iterator@?$_Tree@V?$_Tmap_traits@V?$basic_string@DU?$char_traits@D@std@@V?$allocator@D@2@@std@@UFRIENDINFO@CFriendMgr@@U_tstring_less@@V?$allocator@U?$pair@$$CBV?$basic_string@DU?$char_traits@D@std@@V?$allocator@D@2@@std@@UFRIENDINFO@CFriendMgr@@@std@@@2@$0A@@std@@@std@@QAE@XZ 004146b0 f i FriendMgr.obj
 0001:000136c0       ??0const_iterator@?$_Tree@V?$_Tmap_traits@V?$basic_string@DU?$char_traits@D@std@@V?$allocator@D@2@@std@@UFRIENDINFO@CFriendMgr@@U_tstring_less@@V?$allocator@U?$pair@$$CBV?$basic_string@DU?$char_traits@D@std@@V?$allocator@D@2@@std@@UFRIENDINFO@CFriendMgr@@@std@@@2@$0A@@std@@@std@@QAE@PAU_Node@?$_Tree_nod@V?$_Tmap_traits@V?$basic_string@DU?$char_traits@D@std@@V?$allocator@D@2@@std@@UFRIENDINFO@CFriendMgr@@U_tstring_less@@V?$allocator@U?$pair@$$CBV?$basic_string@DU?$char_traits@D@std@@V?$allocator@D@2@@std@@UFRIENDINFO@CFriendMgr@@@std@@@2@$0A@@std@@@2@PBV12@@Z 004146c0 f i FriendMgr.obj
 0001:000136f0       ??Econst_iterator@?$_Tree@V?$_Tmap_traits@V?$basic_string@DU?$char_traits@D@std@@V?$allocator@D@2@@std@@UFRIENDINFO@CFriendMgr@@U_tstring_less@@V?$allocator@U?$pair@$$CBV?$basic_string@DU?$char_traits@D@std@@V?$allocator@D@2@@std@@UFRIENDINFO@CFriendMgr@@@std@@@2@$0A@@std@@@std@@QAEAAV012@XZ 004146f0 f i FriendMgr.obj
 0001:00013700       ??Fconst_iterator@?$_Tree@V?$_Tmap_traits@V?$basic_string@DU?$char_traits@D@std@@V?$allocator@D@2@@std@@UFRIENDINFO@CFriendMgr@@U_tstring_less@@V?$allocator@U?$pair@$$CBV?$basic_string@DU?$char_traits@D@std@@V?$allocator@D@2@@std@@UFRIENDINFO@CFriendMgr@@@std@@@2@$0A@@std@@@std@@QAEAAV012@XZ 00414700 f i FriendMgr.obj
 0001:00013710       ??0iterator@?$_Tree@V?$_Tmap_traits@KV?$list@UtagPlusSrcInfo@@V?$allocator@UtagPlusSrcInfo@@@std@@@std@@U?$less@K@2@V?$allocator@U?$pair@$$CBKV?$list@UtagPlusSrcInfo@@V?$allocator@UtagPlusSrcInfo@@@std@@@std@@@std@@@2@$0A@@std@@@std@@QAE@XZ 00414710 f i FriendMgr.obj
 0001:00013720       ??0const_iterator@?$_Tree@V?$_Tmap_traits@KV?$list@UtagPlusSrcInfo@@V?$allocator@UtagPlusSrcInfo@@@std@@@std@@U?$less@K@2@V?$allocator@U?$pair@$$CBKV?$list@UtagPlusSrcInfo@@V?$allocator@UtagPlusSrcInfo@@@std@@@std@@@std@@@2@$0A@@std@@@std@@QAE@PAU_Node@?$_Tree_nod@V?$_Tmap_traits@KV?$list@UtagPlusSrcInfo@@V?$allocator@UtagPlusSrcInfo@@@std@@@std@@U?$less@K@2@V?$allocator@U?$pair@$$CBKV?$list@UtagPlusSrcInfo@@V?$allocator@UtagPlusSrcInfo@@@std@@@std@@@std@@@2@$0A@@std@@@2@PBV12@@Z 00414720 f i FriendMgr.obj
 0001:00013750       ?destroy@?$allocator@PAU_Node@?$_Tree_nod@V?$_Tmap_traits@V?$basic_string@DU?$char_traits@D@std@@V?$allocator@D@2@@std@@V?$list@U?$pair@EV?$basic_string@DU?$char_traits@D@std@@V?$allocator@D@2@@std@@@std@@V?$allocator@U?$pair@EV?$basic_string@DU?$char_traits@D@std@@V?$allocator@D@2@@std@@@std@@@2@@2@U_tstring_less@@V?$allocator@U?$pair@$$CBV?$basic_string@DU?$char_traits@D@std@@V?$allocator@D@2@@std@@V?$list@U?$pair@EV?$basic_string@DU?$char_traits@D@std@@V?$allocator@D@2@@std@@@std@@V?$allocator@U?$pair@EV?$basic_string@DU?$char_traits@D@std@@V?$allocator@D@2@@std@@@std@@@2@@2@@std@@@2@$0A@@std@@@std@@@std@@QAEXPAPAU_Node@?$_Tree_nod@V?$_Tmap_traits@V?$basic_string@DU?$char_traits@D@std@@V?$allocator@D@2@@std@@V?$list@U?$pair@EV?$basic_string@DU?$char_traits@D@std@@V?$allocator@D@2@@std@@@std@@V?$allocator@U?$pair@EV?$basic_string@DU?$char_traits@D@std@@V?$allocator@D@2@@std@@@std@@@2@@2@U_tstring_less@@V?$allocator@U?$pair@$$CBV?$basic_string@DU?$char_traits@D@std@@V?$allocator@D@2@@std@@V?$list@U?$pair@EV?$basic_string@DU?$char_traits@D@std@@V?$allocator@D@2@@std@@@std@@V?$allocator@U?$pair@EV?$basic_string@DU?$char_traits@D@std@@V?$allocator@D@2@@std@@@std@@@2@@2@@std@@@2@$0A@@std@@@2@@Z 00414750 f i FriendMgr.obj
 0001:00013760       ??0iterator@?$_Tree@V?$_Tmap_traits@V?$basic_string@DU?$char_traits@D@std@@V?$allocator@D@2@@std@@V?$list@U?$pair@EV?$basic_string@DU?$char_traits@D@std@@V?$allocator@D@2@@std@@@std@@V?$allocator@U?$pair@EV?$basic_string@DU?$char_traits@D@std@@V?$allocator@D@2@@std@@@std@@@2@@2@U_tstring_less@@V?$allocator@U?$pair@$$CBV?$basic_string@DU?$char_traits@D@std@@V?$allocator@D@2@@std@@V?$list@U?$pair@EV?$basic_string@DU?$char_traits@D@std@@V?$allocator@D@2@@std@@@std@@V?$allocator@U?$pair@EV?$basic_string@DU?$char_traits@D@std@@V?$allocator@D@2@@std@@@std@@@2@@2@@std@@@2@$0A@@std@@@std@@QAE@XZ 00414760 f i FriendMgr.obj
 0001:00013770       ??0const_iterator@?$_Tree@V?$_Tmap_traits@V?$basic_string@DU?$char_traits@D@std@@V?$allocator@D@2@@std@@V?$list@U?$pair@EV?$basic_string@DU?$char_traits@D@std@@V?$allocator@D@2@@std@@@std@@V?$allocator@U?$pair@EV?$basic_string@DU?$char_traits@D@std@@V?$allocator@D@2@@std@@@std@@@2@@2@U_tstring_less@@V?$allocator@U?$pair@$$CBV?$basic_string@DU?$char_traits@D@std@@V?$allocator@D@2@@std@@V?$list@U?$pair@EV?$basic_string@DU?$char_traits@D@std@@V?$allocator@D@2@@std@@@std@@V?$allocator@U?$pair@EV?$basic_string@DU?$char_traits@D@std@@V?$allocator@D@2@@std@@@std@@@2@@2@@std@@@2@$0A@@std@@@std@@QAE@PAU_Node@?$_Tree_nod@V?$_Tmap_traits@V?$basic_string@DU?$char_traits@D@std@@V?$allocator@D@2@@std@@V?$list@U?$pair@EV?$basic_string@DU?$char_traits@D@std@@V?$allocator@D@2@@std@@@std@@V?$allocator@U?$pair@EV?$basic_string@DU?$char_traits@D@std@@V?$allocator@D@2@@std@@@std@@@2@@2@U_tstring_less@@V?$allocator@U?$pair@$$CBV?$basic_string@DU?$char_traits@D@std@@V?$allocator@D@2@@std@@V?$list@U?$pair@EV?$basic_string@DU?$char_traits@D@std@@V?$allocator@D@2@@std@@@std@@V?$allocator@U?$pair@EV?$basic_string@DU?$char_traits@D@std@@V?$allocator@D@2@@std@@@std@@@2@@2@@std@@@2@$0A@@std@@@2@PBV12@@Z 00414770 f i FriendMgr.obj
 0001:000137a0       ??0?$_Const_iterator@$00@?$list@U?$pair@EV?$basic_string@DU?$char_traits@D@std@@V?$allocator@D@2@@std@@@std@@V?$allocator@U?$pair@EV?$basic_string@DU?$char_traits@D@std@@V?$allocator@D@2@@std@@@std@@@2@@std@@QAE@PAU_Node@?$_List_nod@U?$pair@EV?$basic_string@DU?$char_traits@D@std@@V?$allocator@D@2@@std@@@std@@V?$allocator@U?$pair@EV?$basic_string@DU?$char_traits@D@std@@V?$allocator@D@2@@std@@@std@@@2@@2@PBV12@@Z 004147a0 f i FriendMgr.obj
 0001:000137d0       ??0iterator@?$_Tree@V?$_Tmap_traits@UADDFRIENDKEY@CFriendMgr@@UADDFRIENDVALUE@2@U?$less@UADDFRIENDKEY@CFriendMgr@@@std@@V?$allocator@U?$pair@$$CBUADDFRIENDKEY@CFriendMgr@@UADDFRIENDVALUE@2@@std@@@5@$0A@@std@@@std@@QAE@XZ 004147d0 f i FriendMgr.obj
 0001:000137e0       ??0const_iterator@?$_Tree@V?$_Tmap_traits@UADDFRIENDKEY@CFriendMgr@@UADDFRIENDVALUE@2@U?$less@UADDFRIENDKEY@CFriendMgr@@@std@@V?$allocator@U?$pair@$$CBUADDFRIENDKEY@CFriendMgr@@UADDFRIENDVALUE@2@@std@@@5@$0A@@std@@@std@@QAE@PAU_Node@?$_Tree_nod@V?$_Tmap_traits@UADDFRIENDKEY@CFriendMgr@@UADDFRIENDVALUE@2@U?$less@UADDFRIENDKEY@CFriendMgr@@@std@@V?$allocator@U?$pair@$$CBUADDFRIENDKEY@CFriendMgr@@UADDFRIENDVALUE@2@@std@@@5@$0A@@std@@@2@PBV12@@Z 004147e0 f i FriendMgr.obj
 0001:00013810       ??Econst_iterator@?$_Tree@V?$_Tmap_traits@UADDFRIENDKEY@CFriendMgr@@UADDFRIENDVALUE@2@U?$less@UADDFRIENDKEY@CFriendMgr@@@std@@V?$allocator@U?$pair@$$CBUADDFRIENDKEY@CFriendMgr@@UADDFRIENDVALUE@2@@std@@@5@$0A@@std@@@std@@QAEAAV012@XZ 00414810 f i FriendMgr.obj
 0001:00013820       ?allocate@?$allocator@U_Node@?$_List_nod@UONEPLAYER@CFriendMgr@@V?$allocator@UONEPLAYER@CFriendMgr@@@std@@@std@@@std@@QAEPAU_Node@?$_List_nod@UONEPLAYER@CFriendMgr@@V?$allocator@UONEPLAYER@CFriendMgr@@@std@@@2@I@Z 00414820 f i FriendMgr.obj
 0001:00013840       ?construct@?$allocator@PAU_Node@?$_List_nod@UONEPLAYER@CFriendMgr@@V?$allocator@UONEPLAYER@CFriendMgr@@@std@@@std@@@std@@QAEXPAPAU_Node@?$_List_nod@UONEPLAYER@CFriendMgr@@V?$allocator@UONEPLAYER@CFriendMgr@@@std@@@2@ABQAU342@@Z 00414840 f i FriendMgr.obj
 0001:00013860       ?destroy@?$allocator@PAU_Node@?$_List_nod@UONEPLAYER@CFriendMgr@@V?$allocator@UONEPLAYER@CFriendMgr@@@std@@@std@@@std@@QAEXPAPAU_Node@?$_List_nod@UONEPLAYER@CFriendMgr@@V?$allocator@UONEPLAYER@CFriendMgr@@@std@@@2@@Z 00414860 f i FriendMgr.obj
 0001:00013870       ?allocate@?$allocator@U_Node@?$_List_nod@V?$basic_string@DU?$char_traits@D@std@@V?$allocator@D@2@@std@@V?$allocator@V?$basic_string@DU?$char_traits@D@std@@V?$allocator@D@2@@std@@@2@@std@@@std@@QAEPAU_Node@?$_List_nod@V?$basic_string@DU?$char_traits@D@std@@V?$allocator@D@2@@std@@V?$allocator@V?$basic_string@DU?$char_traits@D@std@@V?$allocator@D@2@@std@@@2@@2@I@Z 00414870 f i FriendMgr.obj
 0001:00013890       ?construct@?$allocator@PAU_Node@?$_List_nod@V?$basic_string@DU?$char_traits@D@std@@V?$allocator@D@2@@std@@V?$allocator@V?$basic_string@DU?$char_traits@D@std@@V?$allocator@D@2@@std@@@2@@std@@@std@@QAEXPAPAU_Node@?$_List_nod@V?$basic_string@DU?$char_traits@D@std@@V?$allocator@D@2@@std@@V?$allocator@V?$basic_string@DU?$char_traits@D@std@@V?$allocator@D@2@@std@@@2@@2@ABQAU342@@Z 00414890 f i FriendMgr.obj
 0001:000138b0       ?destroy@?$allocator@PAU_Node@?$_List_nod@V?$basic_string@DU?$char_traits@D@std@@V?$allocator@D@2@@std@@V?$allocator@V?$basic_string@DU?$char_traits@D@std@@V?$allocator@D@2@@std@@@2@@std@@@std@@QAEXPAPAU_Node@?$_List_nod@V?$basic_string@DU?$char_traits@D@std@@V?$allocator@D@2@@std@@V?$allocator@V?$basic_string@DU?$char_traits@D@std@@V?$allocator@D@2@@std@@@2@@2@@Z 004148b0 f i FriendMgr.obj
 0001:000138c0       ??0?$_Const_iterator@$00@?$list@V?$basic_string@DU?$char_traits@D@std@@V?$allocator@D@2@@std@@V?$allocator@V?$basic_string@DU?$char_traits@D@std@@V?$allocator@D@2@@std@@@2@@std@@QAE@PAU_Node@?$_List_nod@V?$basic_string@DU?$char_traits@D@std@@V?$allocator@D@2@@std@@V?$allocator@V?$basic_string@DU?$char_traits@D@std@@V?$allocator@D@2@@std@@@2@@2@PBV12@@Z 004148c0 f i FriendMgr.obj
 0001:000138f0       ??0?$_Const_iterator@$00@?$list@UONEPLAYER@CFriendMgr@@V?$allocator@UONEPLAYER@CFriendMgr@@@std@@@std@@QAE@PAU_Node@?$_List_nod@UONEPLAYER@CFriendMgr@@V?$allocator@UONEPLAYER@CFriendMgr@@@std@@@2@PBV12@@Z 004148f0 f i FriendMgr.obj
 0001:00013920       ?max_size@?$vector@Viterator@?$_Tree@V?$_Tmap_traits@V?$basic_string@DU?$char_traits@D@std@@V?$allocator@D@2@@std@@UPLAYERINFO@CFriendMgr@@U_tstring_less@@V?$allocator@U?$pair@$$CBV?$basic_string@DU?$char_traits@D@std@@V?$allocator@D@2@@std@@UPLAYERINFO@CFriendMgr@@@std@@@2@$0A@@std@@@std@@V?$allocator@Viterator@?$_Tree@V?$_Tmap_traits@V?$basic_string@DU?$char_traits@D@std@@V?$allocator@D@2@@std@@UPLAYERINFO@CFriendMgr@@U_tstring_less@@V?$allocator@U?$pair@$$CBV?$basic_string@DU?$char_traits@D@std@@V?$allocator@D@2@@std@@UPLAYERINFO@CFriendMgr@@@std@@@2@$0A@@std@@@std@@@3@@std@@QBEIXZ 00414920 f i FriendMgr.obj
 0001:00013930       ?allocate@?$allocator@Viterator@?$_Tree@V?$_Tmap_traits@V?$basic_string@DU?$char_traits@D@std@@V?$allocator@D@2@@std@@UPLAYERINFO@CFriendMgr@@U_tstring_less@@V?$allocator@U?$pair@$$CBV?$basic_string@DU?$char_traits@D@std@@V?$allocator@D@2@@std@@UPLAYERINFO@CFriendMgr@@@std@@@2@$0A@@std@@@std@@@std@@QAEPAViterator@?$_Tree@V?$_Tmap_traits@V?$basic_string@DU?$char_traits@D@std@@V?$allocator@D@2@@std@@UPLAYERINFO@CFriendMgr@@U_tstring_less@@V?$allocator@U?$pair@$$CBV?$basic_string@DU?$char_traits@D@std@@V?$allocator@D@2@@std@@UPLAYERINFO@CFriendMgr@@@std@@@2@$0A@@std@@@2@I@Z 00414930 f i FriendMgr.obj
 0001:00013950       ??G?$_Vector_iterator@Viterator@?$_Tree@V?$_Tmap_traits@V?$basic_string@DU?$char_traits@D@std@@V?$allocator@D@2@@std@@UPLAYERINFO@CFriendMgr@@U_tstring_less@@V?$allocator@U?$pair@$$CBV?$basic_string@DU?$char_traits@D@std@@V?$allocator@D@2@@std@@UPLAYERINFO@CFriendMgr@@@std@@@2@$0A@@std@@@std@@V?$allocator@Viterator@?$_Tree@V?$_Tmap_traits@V?$basic_string@DU?$char_traits@D@std@@V?$allocator@D@2@@std@@UPLAYERINFO@CFriendMgr@@U_tstring_less@@V?$allocator@U?$pair@$$CBV?$basic_string@DU?$char_traits@D@std@@V?$allocator@D@2@@std@@UPLAYERINFO@CFriendMgr@@@std@@@2@$0A@@std@@@std@@@3@@std@@QBEHABV?$_Vector_const_iterator@Viterator@?$_Tree@V?$_Tmap_traits@V?$basic_string@DU?$char_traits@D@std@@V?$allocator@D@2@@std@@UPLAYERINFO@CFriendMgr@@U_tstring_less@@V?$allocator@U?$pair@$$CBV?$basic_string@DU?$char_traits@D@std@@V?$allocator@D@2@@std@@UPLAYERINFO@CFriendMgr@@@std@@@2@$0A@@std@@@std@@V?$allocator@Viterator@?$_Tree@V?$_Tmap_traits@V?$basic_string@DU?$char_traits@D@std@@V?$allocator@D@2@@std@@UPLAYERINFO@CFriendMgr@@U_tstring_less@@V?$allocator@U?$pair@$$CBV?$basic_string@DU?$char_traits@D@std@@V?$allocator@D@2@@std@@UPLAYERINFO@CFriendMgr@@@std@@@2@$0A@@std@@@std@@@3@@1@@Z 00414950 f i FriendMgr.obj
 0001:00013980       ?allocate@?$allocator@U_Node@?$_Tree_nod@V?$_Tmap_traits@V?$basic_string@DU?$char_traits@D@std@@V?$allocator@D@2@@std@@UFRIENDINFO@CFriendMgr@@U_tstring_less@@V?$allocator@U?$pair@$$CBV?$basic_string@DU?$char_traits@D@std@@V?$allocator@D@2@@std@@UFRIENDINFO@CFriendMgr@@@std@@@2@$0A@@std@@@std@@@std@@QAEPAU_Node@?$_Tree_nod@V?$_Tmap_traits@V?$basic_string@DU?$char_traits@D@std@@V?$allocator@D@2@@std@@UFRIENDINFO@CFriendMgr@@U_tstring_less@@V?$allocator@U?$pair@$$CBV?$basic_string@DU?$char_traits@D@std@@V?$allocator@D@2@@std@@UFRIENDINFO@CFriendMgr@@@std@@@2@$0A@@std@@@2@I@Z 00414980 f i FriendMgr.obj
 0001:000139a0       ?allocate@?$allocator@U_Node@?$_Tree_nod@V?$_Tmap_traits@V?$basic_string@DU?$char_traits@D@std@@V?$allocator@D@2@@std@@UPLAYERINFO@CFriendMgr@@U_tstring_less@@V?$allocator@U?$pair@$$CBV?$basic_string@DU?$char_traits@D@std@@V?$allocator@D@2@@std@@UPLAYERINFO@CFriendMgr@@@std@@@2@$0A@@std@@@std@@@std@@QAEPAU_Node@?$_Tree_nod@V?$_Tmap_traits@V?$basic_string@DU?$char_traits@D@std@@V?$allocator@D@2@@std@@UPLAYERINFO@CFriendMgr@@U_tstring_less@@V?$allocator@U?$pair@$$CBV?$basic_string@DU?$char_traits@D@std@@V?$allocator@D@2@@std@@UPLAYERINFO@CFriendMgr@@@std@@@2@$0A@@std@@@2@I@Z 004149a0 f i FriendMgr.obj
 0001:000139c0       ?max_size@?$_Tree@V?$_Tmap_traits@UADDFRIENDKEY@CFriendMgr@@UADDFRIENDVALUE@2@U?$less@UADDFRIENDKEY@CFriendMgr@@@std@@V?$allocator@U?$pair@$$CBUADDFRIENDKEY@CFriendMgr@@UADDFRIENDVALUE@2@@std@@@5@$0A@@std@@@std@@QBEIXZ 004149c0 f i FriendMgr.obj
 0001:000139d0       ?max_size@?$list@UMEM_FRIENDRECORD@CFriendMgr@@V?$allocator@UMEM_FRIENDRECORD@CFriendMgr@@@std@@@std@@QBEIXZ 004149d0 f i FriendMgr.obj
 0001:000139e0       ??0?$_List_nod@UMEM_FRIENDRECORD@CFriendMgr@@V?$allocator@UMEM_FRIENDRECORD@CFriendMgr@@@std@@@std@@IAE@V?$allocator@UMEM_FRIENDRECORD@CFriendMgr@@@1@@Z 004149e0 f i FriendMgr.obj
 0001:000139f0       ?max_size@?$_Tree@V?$_Tmap_traits@KV?$list@UtagPlusSrcInfo@@V?$allocator@UtagPlusSrcInfo@@@std@@@std@@U?$less@K@2@V?$allocator@U?$pair@$$CBKV?$list@UtagPlusSrcInfo@@V?$allocator@UtagPlusSrcInfo@@@std@@@std@@@std@@@2@$0A@@std@@@std@@QBEIXZ 004149f0 f i FriendMgr.obj
 0001:00013a00       ?_Lrotate@?$_Tree@V?$_Tmap_traits@KV?$list@UtagPlusSrcInfo@@V?$allocator@UtagPlusSrcInfo@@@std@@@std@@U?$less@K@2@V?$allocator@U?$pair@$$CBKV?$list@UtagPlusSrcInfo@@V?$allocator@UtagPlusSrcInfo@@@std@@@std@@@std@@@2@$0A@@std@@@std@@IAEXPAU_Node@?$_Tree_nod@V?$_Tmap_traits@KV?$list@UtagPlusSrcInfo@@V?$allocator@UtagPlusSrcInfo@@@std@@@std@@U?$less@K@2@V?$allocator@U?$pair@$$CBKV?$list@UtagPlusSrcInfo@@V?$allocator@UtagPlusSrcInfo@@@std@@@std@@@std@@@2@$0A@@std@@@2@@Z 00414a00 f i FriendMgr.obj
 0001:00013a50       ??Fconst_iterator@?$_Tree@V?$_Tmap_traits@KV?$list@UtagPlusSrcInfo@@V?$allocator@UtagPlusSrcInfo@@@std@@@std@@U?$less@K@2@V?$allocator@U?$pair@$$CBKV?$list@UtagPlusSrcInfo@@V?$allocator@UtagPlusSrcInfo@@@std@@@std@@@std@@@2@$0A@@std@@@std@@QAEAAV012@XZ 00414a50 f i FriendMgr.obj
 0001:00013a60       ?_Inc@const_iterator@?$_Tree@V?$_Tmap_traits@KV?$list@UtagPlusSrcInfo@@V?$allocator@UtagPlusSrcInfo@@@std@@@std@@U?$less@K@2@V?$allocator@U?$pair@$$CBKV?$list@UtagPlusSrcInfo@@V?$allocator@UtagPlusSrcInfo@@@std@@@std@@@std@@@2@$0A@@std@@@std@@QAEXXZ 00414a60 f i FriendMgr.obj
 0001:00013ad0       ?max_size@?$_Tree@V?$_Tmap_traits@V?$basic_string@DU?$char_traits@D@std@@V?$allocator@D@2@@std@@V?$list@U?$pair@EV?$basic_string@DU?$char_traits@D@std@@V?$allocator@D@2@@std@@@std@@V?$allocator@U?$pair@EV?$basic_string@DU?$char_traits@D@std@@V?$allocator@D@2@@std@@@std@@@2@@2@U_tstring_less@@V?$allocator@U?$pair@$$CBV?$basic_string@DU?$char_traits@D@std@@V?$allocator@D@2@@std@@V?$list@U?$pair@EV?$basic_string@DU?$char_traits@D@std@@V?$allocator@D@2@@std@@@std@@V?$allocator@U?$pair@EV?$basic_string@DU?$char_traits@D@std@@V?$allocator@D@2@@std@@@std@@@2@@2@@std@@@2@$0A@@std@@@std@@QBEIXZ 00414ad0 f i FriendMgr.obj
 0001:00013ae0       ?_Lrotate@?$_Tree@V?$_Tmap_traits@V?$basic_string@DU?$char_traits@D@std@@V?$allocator@D@2@@std@@V?$list@U?$pair@EV?$basic_string@DU?$char_traits@D@std@@V?$allocator@D@2@@std@@@std@@V?$allocator@U?$pair@EV?$basic_string@DU?$char_traits@D@std@@V?$allocator@D@2@@std@@@std@@@2@@2@U_tstring_less@@V?$allocator@U?$pair@$$CBV?$basic_string@DU?$char_traits@D@std@@V?$allocator@D@2@@std@@V?$list@U?$pair@EV?$basic_string@DU?$char_traits@D@std@@V?$allocator@D@2@@std@@@std@@V?$allocator@U?$pair@EV?$basic_string@DU?$char_traits@D@std@@V?$allocator@D@2@@std@@@std@@@2@@2@@std@@@2@$0A@@std@@@std@@IAEXPAU_Node@?$_Tree_nod@V?$_Tmap_traits@V?$basic_string@DU?$char_traits@D@std@@V?$allocator@D@2@@std@@V?$list@U?$pair@EV?$basic_string@DU?$char_traits@D@std@@V?$allocator@D@2@@std@@@std@@V?$allocator@U?$pair@EV?$basic_string@DU?$char_traits@D@std@@V?$allocator@D@2@@std@@@std@@@2@@2@U_tstring_less@@V?$allocator@U?$pair@$$CBV?$basic_string@DU?$char_traits@D@std@@V?$allocator@D@2@@std@@V?$list@U?$pair@EV?$basic_string@DU?$char_traits@D@std@@V?$allocator@D@2@@std@@@std@@V?$allocator@U?$pair@EV?$basic_string@DU?$char_traits@D@std@@V?$allocator@D@2@@std@@@std@@@2@@2@@std@@@2@$0A@@std@@@2@@Z 00414ae0 f i FriendMgr.obj
 0001:00013b30       ?begin@?$list@U?$pair@EV?$basic_string@DU?$char_traits@D@std@@V?$allocator@D@2@@std@@@std@@V?$allocator@U?$pair@EV?$basic_string@DU?$char_traits@D@std@@V?$allocator@D@2@@std@@@std@@@2@@std@@QBE?AV?$_Const_iterator@$00@12@XZ 00414b30 f i FriendMgr.obj
 0001:00013b50       ?end@?$list@U?$pair@EV?$basic_string@DU?$char_traits@D@std@@V?$allocator@D@2@@std@@@std@@V?$allocator@U?$pair@EV?$basic_string@DU?$char_traits@D@std@@V?$allocator@D@2@@std@@@std@@@2@@std@@QBE?AV?$_Const_iterator@$00@12@XZ 00414b50 f i FriendMgr.obj
 0001:00013b60       ?max_size@?$list@U?$pair@EV?$basic_string@DU?$char_traits@D@std@@V?$allocator@D@2@@std@@@std@@V?$allocator@U?$pair@EV?$basic_string@DU?$char_traits@D@std@@V?$allocator@D@2@@std@@@std@@@2@@std@@QBEIXZ 00414b60 f i FriendMgr.obj
 0001:00013b70       ?allocate@?$allocator@U_Node@?$_List_nod@U?$pair@EV?$basic_string@DU?$char_traits@D@std@@V?$allocator@D@2@@std@@@std@@V?$allocator@U?$pair@EV?$basic_string@DU?$char_traits@D@std@@V?$allocator@D@2@@std@@@std@@@2@@std@@@std@@QAEPAU_Node@?$_List_nod@U?$pair@EV?$basic_string@DU?$char_traits@D@std@@V?$allocator@D@2@@std@@@std@@V?$allocator@U?$pair@EV?$basic_string@DU?$char_traits@D@std@@V?$allocator@D@2@@std@@@std@@@2@@2@I@Z 00414b70 f i FriendMgr.obj
 0001:00013b90       ?construct@?$allocator@PAU_Node@?$_List_nod@U?$pair@EV?$basic_string@DU?$char_traits@D@std@@V?$allocator@D@2@@std@@@std@@V?$allocator@U?$pair@EV?$basic_string@DU?$char_traits@D@std@@V?$allocator@D@2@@std@@@std@@@2@@std@@@std@@QAEXPAPAU_Node@?$_List_nod@U?$pair@EV?$basic_string@DU?$char_traits@D@std@@V?$allocator@D@2@@std@@@std@@V?$allocator@U?$pair@EV?$basic_string@DU?$char_traits@D@std@@V?$allocator@D@2@@std@@@std@@@2@@2@ABQAU342@@Z 00414b90 f i FriendMgr.obj
 0001:00013bb0       ?destroy@?$allocator@PAU_Node@?$_List_nod@U?$pair@EV?$basic_string@DU?$char_traits@D@std@@V?$allocator@D@2@@std@@@std@@V?$allocator@U?$pair@EV?$basic_string@DU?$char_traits@D@std@@V?$allocator@D@2@@std@@@std@@@2@@std@@@std@@QAEXPAPAU_Node@?$_List_nod@U?$pair@EV?$basic_string@DU?$char_traits@D@std@@V?$allocator@D@2@@std@@@std@@V?$allocator@U?$pair@EV?$basic_string@DU?$char_traits@D@std@@V?$allocator@D@2@@std@@@std@@@2@@2@@Z 00414bb0 f i FriendMgr.obj
 0001:00013bc0       ??Fconst_iterator@?$_Tree@V?$_Tmap_traits@V?$basic_string@DU?$char_traits@D@std@@V?$allocator@D@2@@std@@V?$list@U?$pair@EV?$basic_string@DU?$char_traits@D@std@@V?$allocator@D@2@@std@@@std@@V?$allocator@U?$pair@EV?$basic_string@DU?$char_traits@D@std@@V?$allocator@D@2@@std@@@std@@@2@@2@U_tstring_less@@V?$allocator@U?$pair@$$CBV?$basic_string@DU?$char_traits@D@std@@V?$allocator@D@2@@std@@V?$list@U?$pair@EV?$basic_string@DU?$char_traits@D@std@@V?$allocator@D@2@@std@@@std@@V?$allocator@U?$pair@EV?$basic_string@DU?$char_traits@D@std@@V?$allocator@D@2@@std@@@std@@@2@@2@@std@@@2@$0A@@std@@@std@@QAEAAV012@XZ 00414bc0 f i FriendMgr.obj
 0001:00013bd0       ?_Inc@const_iterator@?$_Tree@V?$_Tmap_traits@V?$basic_string@DU?$char_traits@D@std@@V?$allocator@D@2@@std@@V?$list@U?$pair@EV?$basic_string@DU?$char_traits@D@std@@V?$allocator@D@2@@std@@@std@@V?$allocator@U?$pair@EV?$basic_string@DU?$char_traits@D@std@@V?$allocator@D@2@@std@@@std@@@2@@2@U_tstring_less@@V?$allocator@U?$pair@$$CBV?$basic_string@DU?$char_traits@D@std@@V?$allocator@D@2@@std@@V?$list@U?$pair@EV?$basic_string@DU?$char_traits@D@std@@V?$allocator@D@2@@std@@@std@@V?$allocator@U?$pair@EV?$basic_string@DU?$char_traits@D@std@@V?$allocator@D@2@@std@@@std@@@2@@2@@std@@@2@$0A@@std@@@std@@QAEXXZ 00414bd0 f i FriendMgr.obj
 0001:00013c40       ??Fconst_iterator@?$_Tree@V?$_Tmap_traits@UADDFRIENDKEY@CFriendMgr@@UADDFRIENDVALUE@2@U?$less@UADDFRIENDKEY@CFriendMgr@@@std@@V?$allocator@U?$pair@$$CBUADDFRIENDKEY@CFriendMgr@@UADDFRIENDVALUE@2@@std@@@5@$0A@@std@@@std@@QAEAAV012@XZ 00414c40 f i FriendMgr.obj
 0001:00013c50       ?max_size@?$list@UONEPLAYER@CFriendMgr@@V?$allocator@UONEPLAYER@CFriendMgr@@@std@@@std@@QBEIXZ 00414c50 f i FriendMgr.obj
 0001:00013c60       ??0?$_List_nod@UONEPLAYER@CFriendMgr@@V?$allocator@UONEPLAYER@CFriendMgr@@@std@@@std@@IAE@V?$allocator@UONEPLAYER@CFriendMgr@@@1@@Z 00414c60 f i FriendMgr.obj
 0001:00013c70       ?max_size@?$list@V?$basic_string@DU?$char_traits@D@std@@V?$allocator@D@2@@std@@V?$allocator@V?$basic_string@DU?$char_traits@D@std@@V?$allocator@D@2@@std@@@2@@std@@QBEIXZ 00414c70 f i FriendMgr.obj
 0001:00013c80       ??0?$_List_nod@V?$basic_string@DU?$char_traits@D@std@@V?$allocator@D@2@@std@@V?$allocator@V?$basic_string@DU?$char_traits@D@std@@V?$allocator@D@2@@std@@@2@@std@@IAE@V?$allocator@V?$basic_string@DU?$char_traits@D@std@@V?$allocator@D@2@@std@@@1@@Z 00414c80 f i FriendMgr.obj
 0001:00013c90       ??Y?$_Vector_iterator@Viterator@?$_Tree@V?$_Tmap_traits@V?$basic_string@DU?$char_traits@D@std@@V?$allocator@D@2@@std@@UPLAYERINFO@CFriendMgr@@U_tstring_less@@V?$allocator@U?$pair@$$CBV?$basic_string@DU?$char_traits@D@std@@V?$allocator@D@2@@std@@UPLAYERINFO@CFriendMgr@@@std@@@2@$0A@@std@@@std@@V?$allocator@Viterator@?$_Tree@V?$_Tmap_traits@V?$basic_string@DU?$char_traits@D@std@@V?$allocator@D@2@@std@@UPLAYERINFO@CFriendMgr@@U_tstring_less@@V?$allocator@U?$pair@$$CBV?$basic_string@DU?$char_traits@D@std@@V?$allocator@D@2@@std@@UPLAYERINFO@CFriendMgr@@@std@@@2@$0A@@std@@@std@@@3@@std@@QAEAAV01@H@Z 00414c90 f i FriendMgr.obj
 0001:00013cd0       ??0?$_Vector_const_iterator@Viterator@?$_Tree@V?$_Tmap_traits@V?$basic_string@DU?$char_traits@D@std@@V?$allocator@D@2@@std@@UPLAYERINFO@CFriendMgr@@U_tstring_less@@V?$allocator@U?$pair@$$CBV?$basic_string@DU?$char_traits@D@std@@V?$allocator@D@2@@std@@UPLAYERINFO@CFriendMgr@@@std@@@2@$0A@@std@@@std@@V?$allocator@Viterator@?$_Tree@V?$_Tmap_traits@V?$basic_string@DU?$char_traits@D@std@@V?$allocator@D@2@@std@@UPLAYERINFO@CFriendMgr@@U_tstring_less@@V?$allocator@U?$pair@$$CBV?$basic_string@DU?$char_traits@D@std@@V?$allocator@D@2@@std@@UPLAYERINFO@CFriendMgr@@@std@@@2@$0A@@std@@@std@@@3@@std@@QAE@PAViterator@?$_Tree@V?$_Tmap_traits@V?$basic_string@DU?$char_traits@D@std@@V?$allocator@D@2@@std@@UPLAYERINFO@CFriendMgr@@U_tstring_less@@V?$allocator@U?$pair@$$CBV?$basic_string@DU?$char_traits@D@std@@V?$allocator@D@2@@std@@UPLAYERINFO@CFriendMgr@@@std@@@2@$0A@@std@@@1@PBU_Container_base@1@@Z 00414cd0 f i FriendMgr.obj
 0001:00013d10       ??0?$_Tree_nod@V?$_Tmap_traits@V?$basic_string@DU?$char_traits@D@std@@V?$allocator@D@2@@std@@UFRIENDINFO@CFriendMgr@@U_tstring_less@@V?$allocator@U?$pair@$$CBV?$basic_string@DU?$char_traits@D@std@@V?$allocator@D@2@@std@@UFRIENDINFO@CFriendMgr@@@std@@@2@$0A@@std@@@std@@IAE@ABU_tstring_less@@V?$allocator@U?$pair@$$CBV?$basic_string@DU?$char_traits@D@std@@V?$allocator@D@2@@std@@UFRIENDINFO@CFriendMgr@@@std@@@1@@Z 00414d10 f i FriendMgr.obj
 0001:00013d20       ?construct@?$allocator@PAU_Node@?$_Tree_nod@V?$_Tmap_traits@V?$basic_string@DU?$char_traits@D@std@@V?$allocator@D@2@@std@@UFRIENDINFO@CFriendMgr@@U_tstring_less@@V?$allocator@U?$pair@$$CBV?$basic_string@DU?$char_traits@D@std@@V?$allocator@D@2@@std@@UFRIENDINFO@CFriendMgr@@@std@@@2@$0A@@std@@@std@@@std@@QAEXPAPAU_Node@?$_Tree_nod@V?$_Tmap_traits@V?$basic_string@DU?$char_traits@D@std@@V?$allocator@D@2@@std@@UFRIENDINFO@CFriendMgr@@U_tstring_less@@V?$allocator@U?$pair@$$CBV?$basic_string@DU?$char_traits@D@std@@V?$allocator@D@2@@std@@UFRIENDINFO@CFriendMgr@@@std@@@2@$0A@@std@@@2@ABQAU342@@Z 00414d20 f i FriendMgr.obj
 0001:00013d40       ??0?$_Tree_nod@V?$_Tmap_traits@V?$basic_string@DU?$char_traits@D@std@@V?$allocator@D@2@@std@@UPLAYERINFO@CFriendMgr@@U_tstring_less@@V?$allocator@U?$pair@$$CBV?$basic_string@DU?$char_traits@D@std@@V?$allocator@D@2@@std@@UPLAYERINFO@CFriendMgr@@@std@@@2@$0A@@std@@@std@@IAE@ABU_tstring_less@@V?$allocator@U?$pair@$$CBV?$basic_string@DU?$char_traits@D@std@@V?$allocator@D@2@@std@@UPLAYERINFO@CFriendMgr@@@std@@@1@@Z 00414d40 f i FriendMgr.obj
 0001:00013d50       ?construct@?$allocator@PAU_Node@?$_Tree_nod@V?$_Tmap_traits@V?$basic_string@DU?$char_traits@D@std@@V?$allocator@D@2@@std@@UPLAYERINFO@CFriendMgr@@U_tstring_less@@V?$allocator@U?$pair@$$CBV?$basic_string@DU?$char_traits@D@std@@V?$allocator@D@2@@std@@UPLAYERINFO@CFriendMgr@@@std@@@2@$0A@@std@@@std@@@std@@QAEXPAPAU_Node@?$_Tree_nod@V?$_Tmap_traits@V?$basic_string@DU?$char_traits@D@std@@V?$allocator@D@2@@std@@UPLAYERINFO@CFriendMgr@@U_tstring_less@@V?$allocator@U?$pair@$$CBV?$basic_string@DU?$char_traits@D@std@@V?$allocator@D@2@@std@@UPLAYERINFO@CFriendMgr@@@std@@@2@$0A@@std@@@2@ABQAU342@@Z 00414d50 f i FriendMgr.obj
 0001:00013d70       ??0?$_Tree_nod@V?$_Tmap_traits@UADDFRIENDKEY@CFriendMgr@@UADDFRIENDVALUE@2@U?$less@UADDFRIENDKEY@CFriendMgr@@@std@@V?$allocator@U?$pair@$$CBUADDFRIENDKEY@CFriendMgr@@UADDFRIENDVALUE@2@@std@@@5@$0A@@std@@@std@@IAE@ABU?$less@UADDFRIENDKEY@CFriendMgr@@@1@V?$allocator@U?$pair@$$CBUADDFRIENDKEY@CFriendMgr@@UADDFRIENDVALUE@2@@std@@@1@@Z 00414d70 f i FriendMgr.obj
 0001:00013d80       ?allocate@?$allocator@U_Node@?$_Tree_nod@V?$_Tmap_traits@UADDFRIENDKEY@CFriendMgr@@UADDFRIENDVALUE@2@U?$less@UADDFRIENDKEY@CFriendMgr@@@std@@V?$allocator@U?$pair@$$CBUADDFRIENDKEY@CFriendMgr@@UADDFRIENDVALUE@2@@std@@@5@$0A@@std@@@std@@@std@@QAEPAU_Node@?$_Tree_nod@V?$_Tmap_traits@UADDFRIENDKEY@CFriendMgr@@UADDFRIENDVALUE@2@U?$less@UADDFRIENDKEY@CFriendMgr@@@std@@V?$allocator@U?$pair@$$CBUADDFRIENDKEY@CFriendMgr@@UADDFRIENDVALUE@2@@std@@@5@$0A@@std@@@2@I@Z 00414d80 f i FriendMgr.obj
 0001:00013da0       ?construct@?$allocator@PAU_Node@?$_Tree_nod@V?$_Tmap_traits@UADDFRIENDKEY@CFriendMgr@@UADDFRIENDVALUE@2@U?$less@UADDFRIENDKEY@CFriendMgr@@@std@@V?$allocator@U?$pair@$$CBUADDFRIENDKEY@CFriendMgr@@UADDFRIENDVALUE@2@@std@@@5@$0A@@std@@@std@@@std@@QAEXPAPAU_Node@?$_Tree_nod@V?$_Tmap_traits@UADDFRIENDKEY@CFriendMgr@@UADDFRIENDVALUE@2@U?$less@UADDFRIENDKEY@CFriendMgr@@@std@@V?$allocator@U?$pair@$$CBUADDFRIENDKEY@CFriendMgr@@UADDFRIENDVALUE@2@@std@@@5@$0A@@std@@@2@ABQAU342@@Z 00414da0 f i FriendMgr.obj
 0001:00013dc0       ??0?$_Tree_nod@V?$_Tmap_traits@KV?$list@UtagPlusSrcInfo@@V?$allocator@UtagPlusSrcInfo@@@std@@@std@@U?$less@K@2@V?$allocator@U?$pair@$$CBKV?$list@UtagPlusSrcInfo@@V?$allocator@UtagPlusSrcInfo@@@std@@@std@@@std@@@2@$0A@@std@@@std@@IAE@ABU?$less@K@1@V?$allocator@U?$pair@$$CBKV?$list@UtagPlusSrcInfo@@V?$allocator@UtagPlusSrcInfo@@@std@@@std@@@std@@@1@@Z 00414dc0 f i FriendMgr.obj
 0001:00013dd0       ?allocate@?$allocator@U_Node@?$_Tree_nod@V?$_Tmap_traits@KV?$list@UtagPlusSrcInfo@@V?$allocator@UtagPlusSrcInfo@@@std@@@std@@U?$less@K@2@V?$allocator@U?$pair@$$CBKV?$list@UtagPlusSrcInfo@@V?$allocator@UtagPlusSrcInfo@@@std@@@std@@@std@@@2@$0A@@std@@@std@@@std@@QAEPAU_Node@?$_Tree_nod@V?$_Tmap_traits@KV?$list@UtagPlusSrcInfo@@V?$allocator@UtagPlusSrcInfo@@@std@@@std@@U?$less@K@2@V?$allocator@U?$pair@$$CBKV?$list@UtagPlusSrcInfo@@V?$allocator@UtagPlusSrcInfo@@@std@@@std@@@std@@@2@$0A@@std@@@2@I@Z 00414dd0 f i FriendMgr.obj
 0001:00013df0       ?construct@?$allocator@PAU_Node@?$_Tree_nod@V?$_Tmap_traits@KV?$list@UtagPlusSrcInfo@@V?$allocator@UtagPlusSrcInfo@@@std@@@std@@U?$less@K@2@V?$allocator@U?$pair@$$CBKV?$list@UtagPlusSrcInfo@@V?$allocator@UtagPlusSrcInfo@@@std@@@std@@@std@@@2@$0A@@std@@@std@@@std@@QAEXPAPAU_Node@?$_Tree_nod@V?$_Tmap_traits@KV?$list@UtagPlusSrcInfo@@V?$allocator@UtagPlusSrcInfo@@@std@@@std@@U?$less@K@2@V?$allocator@U?$pair@$$CBKV?$list@UtagPlusSrcInfo@@V?$allocator@UtagPlusSrcInfo@@@std@@@std@@@std@@@2@$0A@@std@@@2@ABQAU342@@Z 00414df0 f i FriendMgr.obj
 0001:00013e10       ??0?$_Tree_nod@V?$_Tmap_traits@V?$basic_string@DU?$char_traits@D@std@@V?$allocator@D@2@@std@@V?$list@U?$pair@EV?$basic_string@DU?$char_traits@D@std@@V?$allocator@D@2@@std@@@std@@V?$allocator@U?$pair@EV?$basic_string@DU?$char_traits@D@std@@V?$allocator@D@2@@std@@@std@@@2@@2@U_tstring_less@@V?$allocator@U?$pair@$$CBV?$basic_string@DU?$char_traits@D@std@@V?$allocator@D@2@@std@@V?$list@U?$pair@EV?$basic_string@DU?$char_traits@D@std@@V?$allocator@D@2@@std@@@std@@V?$allocator@U?$pair@EV?$basic_string@DU?$char_traits@D@std@@V?$allocator@D@2@@std@@@std@@@2@@2@@std@@@2@$0A@@std@@@std@@IAE@ABU_tstring_less@@V?$allocator@U?$pair@$$CBV?$basic_string@DU?$char_traits@D@std@@V?$allocator@D@2@@std@@V?$list@U?$pair@EV?$basic_string@DU?$char_traits@D@std@@V?$allocator@D@2@@std@@@std@@V?$allocator@U?$pair@EV?$basic_string@DU?$char_traits@D@std@@V?$allocator@D@2@@std@@@std@@@2@@2@@std@@@1@@Z 00414e10 f i FriendMgr.obj
 0001:00013e20       ?allocate@?$allocator@U_Node@?$_Tree_nod@V?$_Tmap_traits@V?$basic_string@DU?$char_traits@D@std@@V?$allocator@D@2@@std@@V?$list@U?$pair@EV?$basic_string@DU?$char_traits@D@std@@V?$allocator@D@2@@std@@@std@@V?$allocator@U?$pair@EV?$basic_string@DU?$char_traits@D@std@@V?$allocator@D@2@@std@@@std@@@2@@2@U_tstring_less@@V?$allocator@U?$pair@$$CBV?$basic_string@DU?$char_traits@D@std@@V?$allocator@D@2@@std@@V?$list@U?$pair@EV?$basic_string@DU?$char_traits@D@std@@V?$allocator@D@2@@std@@@std@@V?$allocator@U?$pair@EV?$basic_string@DU?$char_traits@D@std@@V?$allocator@D@2@@std@@@std@@@2@@2@@std@@@2@$0A@@std@@@std@@@std@@QAEPAU_Node@?$_Tree_nod@V?$_Tmap_traits@V?$basic_string@DU?$char_traits@D@std@@V?$allocator@D@2@@std@@V?$list@U?$pair@EV?$basic_string@DU?$char_traits@D@std@@V?$allocator@D@2@@std@@@std@@V?$allocator@U?$pair@EV?$basic_string@DU?$char_traits@D@std@@V?$allocator@D@2@@std@@@std@@@2@@2@U_tstring_less@@V?$allocator@U?$pair@$$CBV?$basic_string@DU?$char_traits@D@std@@V?$allocator@D@2@@std@@V?$list@U?$pair@EV?$basic_string@DU?$char_traits@D@std@@V?$allocator@D@2@@std@@@std@@V?$allocator@U?$pair@EV?$basic_string@DU?$char_traits@D@std@@V?$allocator@D@2@@std@@@std@@@2@@2@@std@@@2@$0A@@std@@@2@I@Z 00414e20 f i FriendMgr.obj
 0001:00013e40       ?construct@?$allocator@PAU_Node@?$_Tree_nod@V?$_Tmap_traits@V?$basic_string@DU?$char_traits@D@std@@V?$allocator@D@2@@std@@V?$list@U?$pair@EV?$basic_string@DU?$char_traits@D@std@@V?$allocator@D@2@@std@@@std@@V?$allocator@U?$pair@EV?$basic_string@DU?$char_traits@D@std@@V?$allocator@D@2@@std@@@std@@@2@@2@U_tstring_less@@V?$allocator@U?$pair@$$CBV?$basic_string@DU?$char_traits@D@std@@V?$allocator@D@2@@std@@V?$list@U?$pair@EV?$basic_string@DU?$char_traits@D@std@@V?$allocator@D@2@@std@@@std@@V?$allocator@U?$pair@EV?$basic_string@DU?$char_traits@D@std@@V?$allocator@D@2@@std@@@std@@@2@@2@@std@@@2@$0A@@std@@@std@@@std@@QAEXPAPAU_Node@?$_Tree_nod@V?$_Tmap_traits@V?$basic_string@DU?$char_traits@D@std@@V?$allocator@D@2@@std@@V?$list@U?$pair@EV?$basic_string@DU?$char_traits@D@std@@V?$allocator@D@2@@std@@@std@@V?$allocator@U?$pair@EV?$basic_string@DU?$char_traits@D@std@@V?$allocator@D@2@@std@@@std@@@2@@2@U_tstring_less@@V?$allocator@U?$pair@$$CBV?$basic_string@DU?$char_traits@D@std@@V?$allocator@D@2@@std@@V?$list@U?$pair@EV?$basic_string@DU?$char_traits@D@std@@V?$allocator@D@2@@std@@@std@@V?$allocator@U?$pair@EV?$basic_string@DU?$char_traits@D@std@@V?$allocator@D@2@@std@@@std@@@2@@2@@std@@@2@$0A@@std@@@2@ABQAU342@@Z 00414e40 f i FriendMgr.obj
 0001:00013e60       ??0?$_List_nod@U?$pair@EV?$basic_string@DU?$char_traits@D@std@@V?$allocator@D@2@@std@@@std@@V?$allocator@U?$pair@EV?$basic_string@DU?$char_traits@D@std@@V?$allocator@D@2@@std@@@std@@@2@@std@@IAE@V?$allocator@U?$pair@EV?$basic_string@DU?$char_traits@D@std@@V?$allocator@D@2@@std@@@std@@@1@@Z 00414e60 f i FriendMgr.obj
 0001:00013e70       ??$_Checked_base@PAViterator@?$_Tree@V?$_Tmap_traits@V?$basic_string@DU?$char_traits@D@std@@V?$allocator@D@2@@std@@UPLAYERINFO@CFriendMgr@@U_tstring_less@@V?$allocator@U?$pair@$$CBV?$basic_string@DU?$char_traits@D@std@@V?$allocator@D@2@@std@@UPLAYERINFO@CFriendMgr@@@std@@@2@$0A@@std@@@std@@@std@@YAPAViterator@?$_Tree@V?$_Tmap_traits@V?$basic_string@DU?$char_traits@D@std@@V?$allocator@D@2@@std@@UPLAYERINFO@CFriendMgr@@U_tstring_less@@V?$allocator@U?$pair@$$CBV?$basic_string@DU?$char_traits@D@std@@V?$allocator@D@2@@std@@UPLAYERINFO@CFriendMgr@@@std@@@2@$0A@@std@@@0@AAPAV120@@Z 00414e70 f i FriendMgr.obj
 0001:00013e80       ??F?$_Iterator@$00@?$list@UtagPlusSrcInfo@@V?$allocator@UtagPlusSrcInfo@@@std@@@std@@QAEAAV012@XZ 00414e80 f i FriendMgr.obj
 0001:00013eb0       ??F?$_Iterator@$00@?$list@U?$pair@EV?$basic_string@DU?$char_traits@D@std@@V?$allocator@D@2@@std@@@std@@V?$allocator@U?$pair@EV?$basic_string@DU?$char_traits@D@std@@V?$allocator@D@2@@std@@@std@@@2@@std@@QAEAAV012@XZ 00414eb0 f i FriendMgr.obj
 0001:00013ee0       ?construct@?$allocator@Viterator@?$_Tree@V?$_Tmap_traits@V?$basic_string@DU?$char_traits@D@std@@V?$allocator@D@2@@std@@UPLAYERINFO@CFriendMgr@@U_tstring_less@@V?$allocator@U?$pair@$$CBV?$basic_string@DU?$char_traits@D@std@@V?$allocator@D@2@@std@@UPLAYERINFO@CFriendMgr@@@std@@@2@$0A@@std@@@std@@@std@@QAEXPAViterator@?$_Tree@V?$_Tmap_traits@V?$basic_string@DU?$char_traits@D@std@@V?$allocator@D@2@@std@@UPLAYERINFO@CFriendMgr@@U_tstring_less@@V?$allocator@U?$pair@$$CBV?$basic_string@DU?$char_traits@D@std@@V?$allocator@D@2@@std@@UPLAYERINFO@CFriendMgr@@@std@@@2@$0A@@std@@@2@ABV342@@Z 00414ee0 f i FriendMgr.obj
 0001:00013f00       ?destroy@?$allocator@Viterator@?$_Tree@V?$_Tmap_traits@V?$basic_string@DU?$char_traits@D@std@@V?$allocator@D@2@@std@@UPLAYERINFO@CFriendMgr@@U_tstring_less@@V?$allocator@U?$pair@$$CBV?$basic_string@DU?$char_traits@D@std@@V?$allocator@D@2@@std@@UPLAYERINFO@CFriendMgr@@@std@@@2@$0A@@std@@@std@@@std@@QAEXPAViterator@?$_Tree@V?$_Tmap_traits@V?$basic_string@DU?$char_traits@D@std@@V?$allocator@D@2@@std@@UPLAYERINFO@CFriendMgr@@U_tstring_less@@V?$allocator@U?$pair@$$CBV?$basic_string@DU?$char_traits@D@std@@V?$allocator@D@2@@std@@UPLAYERINFO@CFriendMgr@@@std@@@2@$0A@@std@@@2@@Z 00414f00 f i FriendMgr.obj
 0001:00013f10       ??$_Copy_backward_opt@PAViterator@?$_Tree@V?$_Tmap_traits@V?$basic_string@DU?$char_traits@D@std@@V?$allocator@D@2@@std@@UPLAYERINFO@CFriendMgr@@U_tstring_less@@V?$allocator@U?$pair@$$CBV?$basic_string@DU?$char_traits@D@std@@V?$allocator@D@2@@std@@UPLAYERINFO@CFriendMgr@@@std@@@2@$0A@@std@@@std@@PAV123@@std@@YAPAViterator@?$_Tree@V?$_Tmap_traits@V?$basic_string@DU?$char_traits@D@std@@V?$allocator@D@2@@std@@UPLAYERINFO@CFriendMgr@@U_tstring_less@@V?$allocator@U?$pair@$$CBV?$basic_string@DU?$char_traits@D@std@@V?$allocator@D@2@@std@@UPLAYERINFO@CFriendMgr@@@std@@@2@$0A@@std@@@0@PAV120@00Urandom_access_iterator_tag@0@U_Nonscalar_ptr_iterator_tag@0@U_Range_checked_iterator_tag@0@@Z 00414f10 f i FriendMgr.obj
 0001:00013f50       ??F?$_Iterator@$00@?$list@UMEM_FRIENDRECORD@CFriendMgr@@V?$allocator@UMEM_FRIENDRECORD@CFriendMgr@@@std@@@std@@QAEAAV012@XZ 00414f50 f i FriendMgr.obj
 0001:00013f80       ??$_Uninit_copy@PAViterator@?$_Tree@V?$_Tmap_traits@V?$basic_string@DU?$char_traits@D@std@@V?$allocator@D@2@@std@@UPLAYERINFO@CFriendMgr@@U_tstring_less@@V?$allocator@U?$pair@$$CBV?$basic_string@DU?$char_traits@D@std@@V?$allocator@D@2@@std@@UPLAYERINFO@CFriendMgr@@@std@@@2@$0A@@std@@@std@@PAV123@V?$allocator@Viterator@?$_Tree@V?$_Tmap_traits@V?$basic_string@DU?$char_traits@D@std@@V?$allocator@D@2@@std@@UPLAYERINFO@CFriendMgr@@U_tstring_less@@V?$allocator@U?$pair@$$CBV?$basic_string@DU?$char_traits@D@std@@V?$allocator@D@2@@std@@UPLAYERINFO@CFriendMgr@@@std@@@2@$0A@@std@@@std@@@3@@std@@YAPAViterator@?$_Tree@V?$_Tmap_traits@V?$basic_string@DU?$char_traits@D@std@@V?$allocator@D@2@@std@@UPLAYERINFO@CFriendMgr@@U_tstring_less@@V?$allocator@U?$pair@$$CBV?$basic_string@DU?$char_traits@D@std@@V?$allocator@D@2@@std@@UPLAYERINFO@CFriendMgr@@@std@@@2@$0A@@std@@@0@PAV120@00AAV?$allocator@Viterator@?$_Tree@V?$_Tmap_traits@V?$basic_string@DU?$char_traits@D@std@@V?$allocator@D@2@@std@@UPLAYERINFO@CFriendMgr@@U_tstring_less@@V?$allocator@U?$pair@$$CBV?$basic_string@DU?$char_traits@D@std@@V?$allocator@D@2@@std@@UPLAYERINFO@CFriendMgr@@@std@@@2@$0A@@std@@@std@@@0@U_Nonscalar_ptr_iterator_tag@0@U_Range_checked_iterator_tag@0@@Z 00414f80 f i FriendMgr.obj
 0001:00013fb0       ?begin@?$_Tree@V?$_Tmap_traits@V?$basic_string@DU?$char_traits@D@std@@V?$allocator@D@2@@std@@UPLAYERINFO@CFriendMgr@@U_tstring_less@@V?$allocator@U?$pair@$$CBV?$basic_string@DU?$char_traits@D@std@@V?$allocator@D@2@@std@@UPLAYERINFO@CFriendMgr@@@std@@@2@$0A@@std@@@std@@QAE?AViterator@12@XZ 00414fb0 f i FriendMgr.obj
 0001:00013fd0       ?end@?$_Tree@V?$_Tmap_traits@V?$basic_string@DU?$char_traits@D@std@@V?$allocator@D@2@@std@@UPLAYERINFO@CFriendMgr@@U_tstring_less@@V?$allocator@U?$pair@$$CBV?$basic_string@DU?$char_traits@D@std@@V?$allocator@D@2@@std@@UPLAYERINFO@CFriendMgr@@@std@@@2@$0A@@std@@@std@@QAE?AViterator@12@XZ 00414fd0 f i FriendMgr.obj
 0001:00013fe0       ?begin@?$list@UMEM_FRIENDRECORD@CFriendMgr@@V?$allocator@UMEM_FRIENDRECORD@CFriendMgr@@@std@@@std@@QBE?AV?$_Const_iterator@$00@12@XZ 00414fe0 f i FriendMgr.obj
 0001:00014000       ?end@?$list@UMEM_FRIENDRECORD@CFriendMgr@@V?$allocator@UMEM_FRIENDRECORD@CFriendMgr@@@std@@@std@@QBE?AV?$_Const_iterator@$00@12@XZ 00415000 f i FriendMgr.obj
 0001:00014010       ??0iterator@?$_Tree@V?$_Tmap_traits@V?$basic_string@DU?$char_traits@D@std@@V?$allocator@D@2@@std@@UPLAYERINFO@CFriendMgr@@U_tstring_less@@V?$allocator@U?$pair@$$CBV?$basic_string@DU?$char_traits@D@std@@V?$allocator@D@2@@std@@UPLAYERINFO@CFriendMgr@@@std@@@2@$0A@@std@@@std@@QAE@XZ 00415010 f i FriendMgr.obj
 0001:00014020       ??Diterator@?$_Tree@V?$_Tmap_traits@V?$basic_string@DU?$char_traits@D@std@@V?$allocator@D@2@@std@@UPLAYERINFO@CFriendMgr@@U_tstring_less@@V?$allocator@U?$pair@$$CBV?$basic_string@DU?$char_traits@D@std@@V?$allocator@D@2@@std@@UPLAYERINFO@CFriendMgr@@@std@@@2@$0A@@std@@@std@@QBEAAU?$pair@$$CBV?$basic_string@DU?$char_traits@D@std@@V?$allocator@D@2@@std@@UPLAYERINFO@CFriendMgr@@@2@XZ 00415020 f i FriendMgr.obj
 0001:00014050       ??Diterator@?$_Tree@V?$_Tmap_traits@V?$basic_string@DU?$char_traits@D@std@@V?$allocator@D@2@@std@@UFRIENDINFO@CFriendMgr@@U_tstring_less@@V?$allocator@U?$pair@$$CBV?$basic_string@DU?$char_traits@D@std@@V?$allocator@D@2@@std@@UFRIENDINFO@CFriendMgr@@@std@@@2@$0A@@std@@@std@@QBEAAU?$pair@$$CBV?$basic_string@DU?$char_traits@D@std@@V?$allocator@D@2@@std@@UFRIENDINFO@CFriendMgr@@@2@XZ 00415050 f i FriendMgr.obj
 0001:00014080       ??Diterator@?$_Tree@V?$_Tmap_traits@KV?$list@UtagPlusSrcInfo@@V?$allocator@UtagPlusSrcInfo@@@std@@@std@@U?$less@K@2@V?$allocator@U?$pair@$$CBKV?$list@UtagPlusSrcInfo@@V?$allocator@UtagPlusSrcInfo@@@std@@@std@@@std@@@2@$0A@@std@@@std@@QBEAAU?$pair@$$CBKV?$list@UtagPlusSrcInfo@@V?$allocator@UtagPlusSrcInfo@@@std@@@std@@@2@XZ 00415080 f i FriendMgr.obj
 0001:000140b0       ??D?$_Iterator@$00@?$list@UtagPlusSrcInfo@@V?$allocator@UtagPlusSrcInfo@@@std@@@std@@QBEAAUtagPlusSrcInfo@@XZ 004150b0 f i FriendMgr.obj
 0001:000140e0       ??E?$_Iterator@$00@?$list@UtagPlusSrcInfo@@V?$allocator@UtagPlusSrcInfo@@@std@@@std@@QAE?AV012@H@Z 004150e0 f i FriendMgr.obj
 0001:00014120       ??Diterator@?$_Tree@V?$_Tmap_traits@V?$basic_string@DU?$char_traits@D@std@@V?$allocator@D@2@@std@@V?$list@U?$pair@EV?$basic_string@DU?$char_traits@D@std@@V?$allocator@D@2@@std@@@std@@V?$allocator@U?$pair@EV?$basic_string@DU?$char_traits@D@std@@V?$allocator@D@2@@std@@@std@@@2@@2@U_tstring_less@@V?$allocator@U?$pair@$$CBV?$basic_string@DU?$char_traits@D@std@@V?$allocator@D@2@@std@@V?$list@U?$pair@EV?$basic_string@DU?$char_traits@D@std@@V?$allocator@D@2@@std@@@std@@V?$allocator@U?$pair@EV?$basic_string@DU?$char_traits@D@std@@V?$allocator@D@2@@std@@@std@@@2@@2@@std@@@2@$0A@@std@@@std@@QBEAAU?$pair@$$CBV?$basic_string@DU?$char_traits@D@std@@V?$allocator@D@2@@std@@V?$list@U?$pair@EV?$basic_string@DU?$char_traits@D@std@@V?$allocator@D@2@@std@@@std@@V?$allocator@U?$pair@EV?$basic_string@DU?$char_traits@D@std@@V?$allocator@D@2@@std@@@std@@@2@@2@@2@XZ 00415120 f i FriendMgr.obj
 0001:00014150       ??D?$_Iterator@$00@?$list@U?$pair@EV?$basic_string@DU?$char_traits@D@std@@V?$allocator@D@2@@std@@@std@@V?$allocator@U?$pair@EV?$basic_string@DU?$char_traits@D@std@@V?$allocator@D@2@@std@@@std@@@2@@std@@QBEAAU?$pair@EV?$basic_string@DU?$char_traits@D@std@@V?$allocator@D@2@@std@@@2@XZ 00415150 f i FriendMgr.obj
 0001:00014180       ??E?$_Iterator@$00@?$list@U?$pair@EV?$basic_string@DU?$char_traits@D@std@@V?$allocator@D@2@@std@@@std@@V?$allocator@U?$pair@EV?$basic_string@DU?$char_traits@D@std@@V?$allocator@D@2@@std@@@std@@@2@@std@@QAE?AV012@H@Z 00415180 f i FriendMgr.obj
 0001:000141c0       ??Diterator@?$_Tree@V?$_Tmap_traits@UADDFRIENDKEY@CFriendMgr@@UADDFRIENDVALUE@2@U?$less@UADDFRIENDKEY@CFriendMgr@@@std@@V?$allocator@U?$pair@$$CBUADDFRIENDKEY@CFriendMgr@@UADDFRIENDVALUE@2@@std@@@5@$0A@@std@@@std@@QBEAAU?$pair@$$CBUADDFRIENDKEY@CFriendMgr@@UADDFRIENDVALUE@2@@2@XZ 004151c0 f i FriendMgr.obj
 0001:000141f0       ??D?$_Iterator@$00@?$list@UMEM_FRIENDRECORD@CFriendMgr@@V?$allocator@UMEM_FRIENDRECORD@CFriendMgr@@@std@@@std@@QBEAAUMEM_FRIENDRECORD@CFriendMgr@@XZ 004151f0 f i FriendMgr.obj
 0001:00014220       ??E?$_Iterator@$00@?$list@UMEM_FRIENDRECORD@CFriendMgr@@V?$allocator@UMEM_FRIENDRECORD@CFriendMgr@@@std@@@std@@QAE?AV012@H@Z 00415220 f i FriendMgr.obj
 0001:00014260       ??D?$_Iterator@$00@?$list@V?$basic_string@DU?$char_traits@D@std@@V?$allocator@D@2@@std@@V?$allocator@V?$basic_string@DU?$char_traits@D@std@@V?$allocator@D@2@@std@@@2@@std@@QBEAAV?$basic_string@DU?$char_traits@D@std@@V?$allocator@D@2@@2@XZ 00415260 f i FriendMgr.obj
 0001:00014290       ??E?$_Iterator@$00@?$list@V?$basic_string@DU?$char_traits@D@std@@V?$allocator@D@2@@std@@V?$allocator@V?$basic_string@DU?$char_traits@D@std@@V?$allocator@D@2@@std@@@2@@std@@QAE?AV012@H@Z 00415290 f i FriendMgr.obj
 0001:000142d0       ??D?$_Iterator@$00@?$list@UONEPLAYER@CFriendMgr@@V?$allocator@UONEPLAYER@CFriendMgr@@@std@@@std@@QBEAAUONEPLAYER@CFriendMgr@@XZ 004152d0 f i FriendMgr.obj
 0001:00014300       ??E?$_Iterator@$00@?$list@UONEPLAYER@CFriendMgr@@V?$allocator@UONEPLAYER@CFriendMgr@@@std@@@std@@QAE?AV012@H@Z 00415300 f i FriendMgr.obj
 0001:00014340       ?_Buynode@?$list@UMEM_FRIENDRECORD@CFriendMgr@@V?$allocator@UMEM_FRIENDRECORD@CFriendMgr@@@std@@@std@@IAEPAU_Node@?$_List_nod@UMEM_FRIENDRECORD@CFriendMgr@@V?$allocator@UMEM_FRIENDRECORD@CFriendMgr@@@std@@@2@XZ 00415340 f i FriendMgr.obj
 0001:00014360       ??Econst_iterator@?$_Tree@V?$_Tmap_traits@V?$basic_string@DU?$char_traits@D@std@@V?$allocator@D@2@@std@@UPLAYERINFO@CFriendMgr@@U_tstring_less@@V?$allocator@U?$pair@$$CBV?$basic_string@DU?$char_traits@D@std@@V?$allocator@D@2@@std@@UPLAYERINFO@CFriendMgr@@@std@@@2@$0A@@std@@@std@@QAEAAV012@XZ 00415360 f i FriendMgr.obj
 0001:00014370       ??Fconst_iterator@?$_Tree@V?$_Tmap_traits@V?$basic_string@DU?$char_traits@D@std@@V?$allocator@D@2@@std@@UPLAYERINFO@CFriendMgr@@U_tstring_less@@V?$allocator@U?$pair@$$CBV?$basic_string@DU?$char_traits@D@std@@V?$allocator@D@2@@std@@UPLAYERINFO@CFriendMgr@@@std@@@2@$0A@@std@@@std@@QAEAAV012@XZ 00415370 f i FriendMgr.obj
 0001:00014380       ??0iterator@?$_Tree@V?$_Tmap_traits@V?$basic_string@DU?$char_traits@D@std@@V?$allocator@D@2@@std@@UFRIENDINFO@CFriendMgr@@U_tstring_less@@V?$allocator@U?$pair@$$CBV?$basic_string@DU?$char_traits@D@std@@V?$allocator@D@2@@std@@UFRIENDINFO@CFriendMgr@@@std@@@2@$0A@@std@@@std@@QAE@PAU_Node@?$_Tree_nod@V?$_Tmap_traits@V?$basic_string@DU?$char_traits@D@std@@V?$allocator@D@2@@std@@UFRIENDINFO@CFriendMgr@@U_tstring_less@@V?$allocator@U?$pair@$$CBV?$basic_string@DU?$char_traits@D@std@@V?$allocator@D@2@@std@@UFRIENDINFO@CFriendMgr@@@std@@@2@$0A@@std@@@2@PBV12@@Z 00415380 f i FriendMgr.obj
 0001:000143b0       ??Eiterator@?$_Tree@V?$_Tmap_traits@V?$basic_string@DU?$char_traits@D@std@@V?$allocator@D@2@@std@@UFRIENDINFO@CFriendMgr@@U_tstring_less@@V?$allocator@U?$pair@$$CBV?$basic_string@DU?$char_traits@D@std@@V?$allocator@D@2@@std@@UFRIENDINFO@CFriendMgr@@@std@@@2@$0A@@std@@@std@@QAEAAV012@XZ 004153b0 f i FriendMgr.obj
 0001:000143c0       ??Fiterator@?$_Tree@V?$_Tmap_traits@V?$basic_string@DU?$char_traits@D@std@@V?$allocator@D@2@@std@@UFRIENDINFO@CFriendMgr@@U_tstring_less@@V?$allocator@U?$pair@$$CBV?$basic_string@DU?$char_traits@D@std@@V?$allocator@D@2@@std@@UFRIENDINFO@CFriendMgr@@@std@@@2@$0A@@std@@@std@@QAEAAV012@XZ 004153c0 f i FriendMgr.obj
 0001:000143d0       ??0iterator@?$_Tree@V?$_Tmap_traits@KV?$list@UtagPlusSrcInfo@@V?$allocator@UtagPlusSrcInfo@@@std@@@std@@U?$less@K@2@V?$allocator@U?$pair@$$CBKV?$list@UtagPlusSrcInfo@@V?$allocator@UtagPlusSrcInfo@@@std@@@std@@@std@@@2@$0A@@std@@@std@@QAE@PAU_Node@?$_Tree_nod@V?$_Tmap_traits@KV?$list@UtagPlusSrcInfo@@V?$allocator@UtagPlusSrcInfo@@@std@@@std@@U?$less@K@2@V?$allocator@U?$pair@$$CBKV?$list@UtagPlusSrcInfo@@V?$allocator@UtagPlusSrcInfo@@@std@@@std@@@std@@@2@$0A@@std@@@2@PBV12@@Z 004153d0 f i FriendMgr.obj
 0001:00014400       ??0iterator@?$_Tree@V?$_Tmap_traits@V?$basic_string@DU?$char_traits@D@std@@V?$allocator@D@2@@std@@V?$list@U?$pair@EV?$basic_string@DU?$char_traits@D@std@@V?$allocator@D@2@@std@@@std@@V?$allocator@U?$pair@EV?$basic_string@DU?$char_traits@D@std@@V?$allocator@D@2@@std@@@std@@@2@@2@U_tstring_less@@V?$allocator@U?$pair@$$CBV?$basic_string@DU?$char_traits@D@std@@V?$allocator@D@2@@std@@V?$list@U?$pair@EV?$basic_string@DU?$char_traits@D@std@@V?$allocator@D@2@@std@@@std@@V?$allocator@U?$pair@EV?$basic_string@DU?$char_traits@D@std@@V?$allocator@D@2@@std@@@std@@@2@@2@@std@@@2@$0A@@std@@@std@@QAE@PAU_Node@?$_Tree_nod@V?$_Tmap_traits@V?$basic_string@DU?$char_traits@D@std@@V?$allocator@D@2@@std@@V?$list@U?$pair@EV?$basic_string@DU?$char_traits@D@std@@V?$allocator@D@2@@std@@@std@@V?$allocator@U?$pair@EV?$basic_string@DU?$char_traits@D@std@@V?$allocator@D@2@@std@@@std@@@2@@2@U_tstring_less@@V?$allocator@U?$pair@$$CBV?$basic_string@DU?$char_traits@D@std@@V?$allocator@D@2@@std@@V?$list@U?$pair@EV?$basic_string@DU?$char_traits@D@std@@V?$allocator@D@2@@std@@@std@@V?$allocator@U?$pair@EV?$basic_string@DU?$char_traits@D@std@@V?$allocator@D@2@@std@@@std@@@2@@2@@std@@@2@$0A@@std@@@2@PBV12@@Z 00415400 f i FriendMgr.obj
 0001:00014430       ??0?$_Iterator@$00@?$list@U?$pair@EV?$basic_string@DU?$char_traits@D@std@@V?$allocator@D@2@@std@@@std@@V?$allocator@U?$pair@EV?$basic_string@DU?$char_traits@D@std@@V?$allocator@D@2@@std@@@std@@@2@@std@@QAE@PAU_Node@?$_List_nod@U?$pair@EV?$basic_string@DU?$char_traits@D@std@@V?$allocator@D@2@@std@@@std@@V?$allocator@U?$pair@EV?$basic_string@DU?$char_traits@D@std@@V?$allocator@D@2@@std@@@std@@@2@@2@PBV12@@Z 00415430 f i FriendMgr.obj
 0001:00014460       ??0iterator@?$_Tree@V?$_Tmap_traits@UADDFRIENDKEY@CFriendMgr@@UADDFRIENDVALUE@2@U?$less@UADDFRIENDKEY@CFriendMgr@@@std@@V?$allocator@U?$pair@$$CBUADDFRIENDKEY@CFriendMgr@@UADDFRIENDVALUE@2@@std@@@5@$0A@@std@@@std@@QAE@PAU_Node@?$_Tree_nod@V?$_Tmap_traits@UADDFRIENDKEY@CFriendMgr@@UADDFRIENDVALUE@2@U?$less@UADDFRIENDKEY@CFriendMgr@@@std@@V?$allocator@U?$pair@$$CBUADDFRIENDKEY@CFriendMgr@@UADDFRIENDVALUE@2@@std@@@5@$0A@@std@@@2@PBV12@@Z 00415460 f i FriendMgr.obj
 0001:00014490       ??Eiterator@?$_Tree@V?$_Tmap_traits@UADDFRIENDKEY@CFriendMgr@@UADDFRIENDVALUE@2@U?$less@UADDFRIENDKEY@CFriendMgr@@@std@@V?$allocator@U?$pair@$$CBUADDFRIENDKEY@CFriendMgr@@UADDFRIENDVALUE@2@@std@@@5@$0A@@std@@@std@@QAEAAV012@XZ 00415490 f i FriendMgr.obj
 0001:000144a0       ??0?$_Iterator@$00@?$list@UMEM_FRIENDRECORD@CFriendMgr@@V?$allocator@UMEM_FRIENDRECORD@CFriendMgr@@@std@@@std@@QAE@PAU_Node@?$_List_nod@UMEM_FRIENDRECORD@CFriendMgr@@V?$allocator@UMEM_FRIENDRECORD@CFriendMgr@@@std@@@2@PBV12@@Z 004154a0 f i FriendMgr.obj
 0001:000144d0       ?_Buynode@?$list@UONEPLAYER@CFriendMgr@@V?$allocator@UONEPLAYER@CFriendMgr@@@std@@@std@@IAEPAU_Node@?$_List_nod@UONEPLAYER@CFriendMgr@@V?$allocator@UONEPLAYER@CFriendMgr@@@std@@@2@XZ 004154d0 f i FriendMgr.obj
 0001:000144f0       ?_Buynode@?$list@V?$basic_string@DU?$char_traits@D@std@@V?$allocator@D@2@@std@@V?$allocator@V?$basic_string@DU?$char_traits@D@std@@V?$allocator@D@2@@std@@@2@@std@@IAEPAU_Node@?$_List_nod@V?$basic_string@DU?$char_traits@D@std@@V?$allocator@D@2@@std@@V?$allocator@V?$basic_string@DU?$char_traits@D@std@@V?$allocator@D@2@@std@@@2@@2@XZ 004154f0 f i FriendMgr.obj
 0001:00014510       ??0?$_Iterator@$00@?$list@V?$basic_string@DU?$char_traits@D@std@@V?$allocator@D@2@@std@@V?$allocator@V?$basic_string@DU?$char_traits@D@std@@V?$allocator@D@2@@std@@@2@@std@@QAE@PAU_Node@?$_List_nod@V?$basic_string@DU?$char_traits@D@std@@V?$allocator@D@2@@std@@V?$allocator@V?$basic_string@DU?$char_traits@D@std@@V?$allocator@D@2@@std@@@2@@2@PBV12@@Z 00415510 f i FriendMgr.obj
 0001:00014540       ??0?$_Iterator@$00@?$list@UONEPLAYER@CFriendMgr@@V?$allocator@UONEPLAYER@CFriendMgr@@@std@@@std@@QAE@PAU_Node@?$_List_nod@UONEPLAYER@CFriendMgr@@V?$allocator@UONEPLAYER@CFriendMgr@@@std@@@2@PBV12@@Z 00415540 f i FriendMgr.obj
 0001:00014570       ?_Lbound@?$_Tree@V?$_Tmap_traits@V?$basic_string@DU?$char_traits@D@std@@V?$allocator@D@2@@std@@UFRIENDINFO@CFriendMgr@@U_tstring_less@@V?$allocator@U?$pair@$$CBV?$basic_string@DU?$char_traits@D@std@@V?$allocator@D@2@@std@@UFRIENDINFO@CFriendMgr@@@std@@@2@$0A@@std@@@std@@IBEPAU_Node@?$_Tree_nod@V?$_Tmap_traits@V?$basic_string@DU?$char_traits@D@std@@V?$allocator@D@2@@std@@UFRIENDINFO@CFriendMgr@@U_tstring_less@@V?$allocator@U?$pair@$$CBV?$basic_string@DU?$char_traits@D@std@@V?$allocator@D@2@@std@@UFRIENDINFO@CFriendMgr@@@std@@@2@$0A@@std@@@2@ABV?$basic_string@DU?$char_traits@D@std@@V?$allocator@D@2@@2@@Z 00415570 f i FriendMgr.obj
 0001:000145f0       ?_Lbound@?$_Tree@V?$_Tmap_traits@V?$basic_string@DU?$char_traits@D@std@@V?$allocator@D@2@@std@@UPLAYERINFO@CFriendMgr@@U_tstring_less@@V?$allocator@U?$pair@$$CBV?$basic_string@DU?$char_traits@D@std@@V?$allocator@D@2@@std@@UPLAYERINFO@CFriendMgr@@@std@@@2@$0A@@std@@@std@@IBEPAU_Node@?$_Tree_nod@V?$_Tmap_traits@V?$basic_string@DU?$char_traits@D@std@@V?$allocator@D@2@@std@@UPLAYERINFO@CFriendMgr@@U_tstring_less@@V?$allocator@U?$pair@$$CBV?$basic_string@DU?$char_traits@D@std@@V?$allocator@D@2@@std@@UPLAYERINFO@CFriendMgr@@@std@@@2@$0A@@std@@@2@ABV?$basic_string@DU?$char_traits@D@std@@V?$allocator@D@2@@2@@Z 004155f0 f i FriendMgr.obj
 0001:00014670       ?begin@?$_Tree@V?$_Tmap_traits@UADDFRIENDKEY@CFriendMgr@@UADDFRIENDVALUE@2@U?$less@UADDFRIENDKEY@CFriendMgr@@@std@@V?$allocator@U?$pair@$$CBUADDFRIENDKEY@CFriendMgr@@UADDFRIENDVALUE@2@@std@@@5@$0A@@std@@@std@@QAE?AViterator@12@XZ 00415670 f i FriendMgr.obj
 0001:00014690       ??0?$_List_ptr@UMEM_FRIENDRECORD@CFriendMgr@@V?$allocator@UMEM_FRIENDRECORD@CFriendMgr@@@std@@@std@@IAE@V?$allocator@UMEM_FRIENDRECORD@CFriendMgr@@@1@@Z 00415690 f i FriendMgr.obj
 0001:000146a0       ??Fiterator@?$_Tree@V?$_Tmap_traits@KV?$list@UtagPlusSrcInfo@@V?$allocator@UtagPlusSrcInfo@@@std@@@std@@U?$less@K@2@V?$allocator@U?$pair@$$CBKV?$list@UtagPlusSrcInfo@@V?$allocator@UtagPlusSrcInfo@@@std@@@std@@@std@@@2@$0A@@std@@@std@@QAEAAV012@XZ 004156a0 f i FriendMgr.obj
 0001:000146b0       ??Econst_iterator@?$_Tree@V?$_Tmap_traits@KV?$list@UtagPlusSrcInfo@@V?$allocator@UtagPlusSrcInfo@@@std@@@std@@U?$less@K@2@V?$allocator@U?$pair@$$CBKV?$list@UtagPlusSrcInfo@@V?$allocator@UtagPlusSrcInfo@@@std@@@std@@@std@@@2@$0A@@std@@@std@@QAEAAV012@XZ 004156b0 f i FriendMgr.obj
 0001:000146c0       ?_Lbound@?$_Tree@V?$_Tmap_traits@V?$basic_string@DU?$char_traits@D@std@@V?$allocator@D@2@@std@@V?$list@U?$pair@EV?$basic_string@DU?$char_traits@D@std@@V?$allocator@D@2@@std@@@std@@V?$allocator@U?$pair@EV?$basic_string@DU?$char_traits@D@std@@V?$allocator@D@2@@std@@@std@@@2@@2@U_tstring_less@@V?$allocator@U?$pair@$$CBV?$basic_string@DU?$char_traits@D@std@@V?$allocator@D@2@@std@@V?$list@U?$pair@EV?$basic_string@DU?$char_traits@D@std@@V?$allocator@D@2@@std@@@std@@V?$allocator@U?$pair@EV?$basic_string@DU?$char_traits@D@std@@V?$allocator@D@2@@std@@@std@@@2@@2@@std@@@2@$0A@@std@@@std@@IBEPAU_Node@?$_Tree_nod@V?$_Tmap_traits@V?$basic_string@DU?$char_traits@D@std@@V?$allocator@D@2@@std@@V?$list@U?$pair@EV?$basic_string@DU?$char_traits@D@std@@V?$allocator@D@2@@std@@@std@@V?$allocator@U?$pair@EV?$basic_string@DU?$char_traits@D@std@@V?$allocator@D@2@@std@@@std@@@2@@2@U_tstring_less@@V?$allocator@U?$pair@$$CBV?$basic_string@DU?$char_traits@D@std@@V?$allocator@D@2@@std@@V?$list@U?$pair@EV?$basic_string@DU?$char_traits@D@std@@V?$allocator@D@2@@std@@@std@@V?$allocator@U?$pair@EV?$basic_string@DU?$char_traits@D@std@@V?$allocator@D@2@@std@@@std@@@2@@2@@std@@@2@$0A@@std@@@2@ABV?$basic_string@DU?$char_traits@D@std@@V?$allocator@D@2@@2@@Z 004156c0 f i FriendMgr.obj
 0001:00014740       ?_Buynode@?$list@U?$pair@EV?$basic_string@DU?$char_traits@D@std@@V?$allocator@D@2@@std@@@std@@V?$allocator@U?$pair@EV?$basic_string@DU?$char_traits@D@std@@V?$allocator@D@2@@std@@@std@@@2@@std@@IAEPAU_Node@?$_List_nod@U?$pair@EV?$basic_string@DU?$char_traits@D@std@@V?$allocator@D@2@@std@@@std@@V?$allocator@U?$pair@EV?$basic_string@DU?$char_traits@D@std@@V?$allocator@D@2@@std@@@std@@@2@@2@XZ 00415740 f i FriendMgr.obj
 0001:00014760       ??Fiterator@?$_Tree@V?$_Tmap_traits@V?$basic_string@DU?$char_traits@D@std@@V?$allocator@D@2@@std@@V?$list@U?$pair@EV?$basic_string@DU?$char_traits@D@std@@V?$allocator@D@2@@std@@@std@@V?$allocator@U?$pair@EV?$basic_string@DU?$char_traits@D@std@@V?$allocator@D@2@@std@@@std@@@2@@2@U_tstring_less@@V?$allocator@U?$pair@$$CBV?$basic_string@DU?$char_traits@D@std@@V?$allocator@D@2@@std@@V?$list@U?$pair@EV?$basic_string@DU?$char_traits@D@std@@V?$allocator@D@2@@std@@@std@@V?$allocator@U?$pair@EV?$basic_string@DU?$char_traits@D@std@@V?$allocator@D@2@@std@@@std@@@2@@2@@std@@@2@$0A@@std@@@std@@QAEAAV012@XZ 00415760 f i FriendMgr.obj
 0001:00014770       ??Econst_iterator@?$_Tree@V?$_Tmap_traits@V?$basic_string@DU?$char_traits@D@std@@V?$allocator@D@2@@std@@V?$list@U?$pair@EV?$basic_string@DU?$char_traits@D@std@@V?$allocator@D@2@@std@@@std@@V?$allocator@U?$pair@EV?$basic_string@DU?$char_traits@D@std@@V?$allocator@D@2@@std@@@std@@@2@@2@U_tstring_less@@V?$allocator@U?$pair@$$CBV?$basic_string@DU?$char_traits@D@std@@V?$allocator@D@2@@std@@V?$list@U?$pair@EV?$basic_string@DU?$char_traits@D@std@@V?$allocator@D@2@@std@@@std@@V?$allocator@U?$pair@EV?$basic_string@DU?$char_traits@D@std@@V?$allocator@D@2@@std@@@std@@@2@@2@@std@@@2@$0A@@std@@@std@@QAEAAV012@XZ 00415770 f i FriendMgr.obj
 0001:00014780       ??Fiterator@?$_Tree@V?$_Tmap_traits@UADDFRIENDKEY@CFriendMgr@@UADDFRIENDVALUE@2@U?$less@UADDFRIENDKEY@CFriendMgr@@@std@@V?$allocator@U?$pair@$$CBUADDFRIENDKEY@CFriendMgr@@UADDFRIENDVALUE@2@@std@@@5@$0A@@std@@@std@@QAEAAV012@XZ 00415780 f i FriendMgr.obj
 0001:00014790       ??0?$_List_ptr@UONEPLAYER@CFriendMgr@@V?$allocator@UONEPLAYER@CFriendMgr@@@std@@@std@@IAE@V?$allocator@UONEPLAYER@CFriendMgr@@@1@@Z 00415790 f i FriendMgr.obj
 0001:000147a0       ??0?$_List_ptr@V?$basic_string@DU?$char_traits@D@std@@V?$allocator@D@2@@std@@V?$allocator@V?$basic_string@DU?$char_traits@D@std@@V?$allocator@D@2@@std@@@2@@std@@IAE@V?$allocator@V?$basic_string@DU?$char_traits@D@std@@V?$allocator@D@2@@std@@@1@@Z 004157a0 f i FriendMgr.obj
 0001:000147b0       ??0?$_Vector_iterator@Viterator@?$_Tree@V?$_Tmap_traits@V?$basic_string@DU?$char_traits@D@std@@V?$allocator@D@2@@std@@UPLAYERINFO@CFriendMgr@@U_tstring_less@@V?$allocator@U?$pair@$$CBV?$basic_string@DU?$char_traits@D@std@@V?$allocator@D@2@@std@@UPLAYERINFO@CFriendMgr@@@std@@@2@$0A@@std@@@std@@V?$allocator@Viterator@?$_Tree@V?$_Tmap_traits@V?$basic_string@DU?$char_traits@D@std@@V?$allocator@D@2@@std@@UPLAYERINFO@CFriendMgr@@U_tstring_less@@V?$allocator@U?$pair@$$CBV?$basic_string@DU?$char_traits@D@std@@V?$allocator@D@2@@std@@UPLAYERINFO@CFriendMgr@@@std@@@2@$0A@@std@@@std@@@3@@std@@QAE@PAViterator@?$_Tree@V?$_Tmap_traits@V?$basic_string@DU?$char_traits@D@std@@V?$allocator@D@2@@std@@UPLAYERINFO@CFriendMgr@@U_tstring_less@@V?$allocator@U?$pair@$$CBV?$basic_string@DU?$char_traits@D@std@@V?$allocator@D@2@@std@@UPLAYERINFO@CFriendMgr@@@std@@@2@$0A@@std@@@1@PBU_Container_base@1@@Z 004157b0 f i FriendMgr.obj
 0001:000147f0       ??H?$_Vector_iterator@Viterator@?$_Tree@V?$_Tmap_traits@V?$basic_string@DU?$char_traits@D@std@@V?$allocator@D@2@@std@@UPLAYERINFO@CFriendMgr@@U_tstring_less@@V?$allocator@U?$pair@$$CBV?$basic_string@DU?$char_traits@D@std@@V?$allocator@D@2@@std@@UPLAYERINFO@CFriendMgr@@@std@@@2@$0A@@std@@@std@@V?$allocator@Viterator@?$_Tree@V?$_Tmap_traits@V?$basic_string@DU?$char_traits@D@std@@V?$allocator@D@2@@std@@UPLAYERINFO@CFriendMgr@@U_tstring_less@@V?$allocator@U?$pair@$$CBV?$basic_string@DU?$char_traits@D@std@@V?$allocator@D@2@@std@@UPLAYERINFO@CFriendMgr@@@std@@@2@$0A@@std@@@std@@@3@@std@@QBE?AV01@H@Z 004157f0 f i FriendMgr.obj
 0001:00014830       ?_Ubound@?$_Tree@V?$_Tmap_traits@V?$basic_string@DU?$char_traits@D@std@@V?$allocator@D@2@@std@@UFRIENDINFO@CFriendMgr@@U_tstring_less@@V?$allocator@U?$pair@$$CBV?$basic_string@DU?$char_traits@D@std@@V?$allocator@D@2@@std@@UFRIENDINFO@CFriendMgr@@@std@@@2@$0A@@std@@@std@@IBEPAU_Node@?$_Tree_nod@V?$_Tmap_traits@V?$basic_string@DU?$char_traits@D@std@@V?$allocator@D@2@@std@@UFRIENDINFO@CFriendMgr@@U_tstring_less@@V?$allocator@U?$pair@$$CBV?$basic_string@DU?$char_traits@D@std@@V?$allocator@D@2@@std@@UFRIENDINFO@CFriendMgr@@@std@@@2@$0A@@std@@@2@ABV?$basic_string@DU?$char_traits@D@std@@V?$allocator@D@2@@2@@Z 00415830 f i FriendMgr.obj
 0001:000148b0       ?_Buynode@?$_Tree@V?$_Tmap_traits@V?$basic_string@DU?$char_traits@D@std@@V?$allocator@D@2@@std@@UFRIENDINFO@CFriendMgr@@U_tstring_less@@V?$allocator@U?$pair@$$CBV?$basic_string@DU?$char_traits@D@std@@V?$allocator@D@2@@std@@UFRIENDINFO@CFriendMgr@@@std@@@2@$0A@@std@@@std@@IAEPAU_Node@?$_Tree_nod@V?$_Tmap_traits@V?$basic_string@DU?$char_traits@D@std@@V?$allocator@D@2@@std@@UFRIENDINFO@CFriendMgr@@U_tstring_less@@V?$allocator@U?$pair@$$CBV?$basic_string@DU?$char_traits@D@std@@V?$allocator@D@2@@std@@UFRIENDINFO@CFriendMgr@@@std@@@2@$0A@@std@@@2@XZ 004158b0 f i FriendMgr.obj
 0001:000148f0       ??0?$_Tree_ptr@V?$_Tmap_traits@V?$basic_string@DU?$char_traits@D@std@@V?$allocator@D@2@@std@@UFRIENDINFO@CFriendMgr@@U_tstring_less@@V?$allocator@U?$pair@$$CBV?$basic_string@DU?$char_traits@D@std@@V?$allocator@D@2@@std@@UFRIENDINFO@CFriendMgr@@@std@@@2@$0A@@std@@@std@@IAE@ABU_tstring_less@@V?$allocator@U?$pair@$$CBV?$basic_string@DU?$char_traits@D@std@@V?$allocator@D@2@@std@@UFRIENDINFO@CFriendMgr@@@std@@@1@@Z 004158f0 f i FriendMgr.obj
 0001:00014900       ?_Buynode@?$_Tree@V?$_Tmap_traits@V?$basic_string@DU?$char_traits@D@std@@V?$allocator@D@2@@std@@UPLAYERINFO@CFriendMgr@@U_tstring_less@@V?$allocator@U?$pair@$$CBV?$basic_string@DU?$char_traits@D@std@@V?$allocator@D@2@@std@@UPLAYERINFO@CFriendMgr@@@std@@@2@$0A@@std@@@std@@IAEPAU_Node@?$_Tree_nod@V?$_Tmap_traits@V?$basic_string@DU?$char_traits@D@std@@V?$allocator@D@2@@std@@UPLAYERINFO@CFriendMgr@@U_tstring_less@@V?$allocator@U?$pair@$$CBV?$basic_string@DU?$char_traits@D@std@@V?$allocator@D@2@@std@@UPLAYERINFO@CFriendMgr@@@std@@@2@$0A@@std@@@2@XZ 00415900 f i FriendMgr.obj
 0001:00014940       ??0?$_Tree_ptr@V?$_Tmap_traits@V?$basic_string@DU?$char_traits@D@std@@V?$allocator@D@2@@std@@UPLAYERINFO@CFriendMgr@@U_tstring_less@@V?$allocator@U?$pair@$$CBV?$basic_string@DU?$char_traits@D@std@@V?$allocator@D@2@@std@@UPLAYERINFO@CFriendMgr@@@std@@@2@$0A@@std@@@std@@IAE@ABU_tstring_less@@V?$allocator@U?$pair@$$CBV?$basic_string@DU?$char_traits@D@std@@V?$allocator@D@2@@std@@UPLAYERINFO@CFriendMgr@@@std@@@1@@Z 00415940 f i FriendMgr.obj
 0001:00014950       ?_Buynode@?$_Tree@V?$_Tmap_traits@UADDFRIENDKEY@CFriendMgr@@UADDFRIENDVALUE@2@U?$less@UADDFRIENDKEY@CFriendMgr@@@std@@V?$allocator@U?$pair@$$CBUADDFRIENDKEY@CFriendMgr@@UADDFRIENDVALUE@2@@std@@@5@$0A@@std@@@std@@IAEPAU_Node@?$_Tree_nod@V?$_Tmap_traits@UADDFRIENDKEY@CFriendMgr@@UADDFRIENDVALUE@2@U?$less@UADDFRIENDKEY@CFriendMgr@@@std@@V?$allocator@U?$pair@$$CBUADDFRIENDKEY@CFriendMgr@@UADDFRIENDVALUE@2@@std@@@5@$0A@@std@@@2@XZ 00415950 f i FriendMgr.obj
 0001:00014990       ??0?$_Tree_ptr@V?$_Tmap_traits@UADDFRIENDKEY@CFriendMgr@@UADDFRIENDVALUE@2@U?$less@UADDFRIENDKEY@CFriendMgr@@@std@@V?$allocator@U?$pair@$$CBUADDFRIENDKEY@CFriendMgr@@UADDFRIENDVALUE@2@@std@@@5@$0A@@std@@@std@@IAE@ABU?$less@UADDFRIENDKEY@CFriendMgr@@@1@V?$allocator@U?$pair@$$CBUADDFRIENDKEY@CFriendMgr@@UADDFRIENDVALUE@2@@std@@@1@@Z 00415990 f i FriendMgr.obj
 0001:000149a0       ?_Buynode@?$_Tree@V?$_Tmap_traits@KV?$list@UtagPlusSrcInfo@@V?$allocator@UtagPlusSrcInfo@@@std@@@std@@U?$less@K@2@V?$allocator@U?$pair@$$CBKV?$list@UtagPlusSrcInfo@@V?$allocator@UtagPlusSrcInfo@@@std@@@std@@@std@@@2@$0A@@std@@@std@@IAEPAU_Node@?$_Tree_nod@V?$_Tmap_traits@KV?$list@UtagPlusSrcInfo@@V?$allocator@UtagPlusSrcInfo@@@std@@@std@@U?$less@K@2@V?$allocator@U?$pair@$$CBKV?$list@UtagPlusSrcInfo@@V?$allocator@UtagPlusSrcInfo@@@std@@@std@@@std@@@2@$0A@@std@@@2@XZ 004159a0 f i FriendMgr.obj
 0001:000149e0       ??0?$_Tree_ptr@V?$_Tmap_traits@KV?$list@UtagPlusSrcInfo@@V?$allocator@UtagPlusSrcInfo@@@std@@@std@@U?$less@K@2@V?$allocator@U?$pair@$$CBKV?$list@UtagPlusSrcInfo@@V?$allocator@UtagPlusSrcInfo@@@std@@@std@@@std@@@2@$0A@@std@@@std@@IAE@ABU?$less@K@1@V?$allocator@U?$pair@$$CBKV?$list@UtagPlusSrcInfo@@V?$allocator@UtagPlusSrcInfo@@@std@@@std@@@std@@@1@@Z 004159e0 f i FriendMgr.obj
 0001:000149f0       ?_Buynode@?$_Tree@V?$_Tmap_traits@V?$basic_string@DU?$char_traits@D@std@@V?$allocator@D@2@@std@@V?$list@U?$pair@EV?$basic_string@DU?$char_traits@D@std@@V?$allocator@D@2@@std@@@std@@V?$allocator@U?$pair@EV?$basic_string@DU?$char_traits@D@std@@V?$allocator@D@2@@std@@@std@@@2@@2@U_tstring_less@@V?$allocator@U?$pair@$$CBV?$basic_string@DU?$char_traits@D@std@@V?$allocator@D@2@@std@@V?$list@U?$pair@EV?$basic_string@DU?$char_traits@D@std@@V?$allocator@D@2@@std@@@std@@V?$allocator@U?$pair@EV?$basic_string@DU?$char_traits@D@std@@V?$allocator@D@2@@std@@@std@@@2@@2@@std@@@2@$0A@@std@@@std@@IAEPAU_Node@?$_Tree_nod@V?$_Tmap_traits@V?$basic_string@DU?$char_traits@D@std@@V?$allocator@D@2@@std@@V?$list@U?$pair@EV?$basic_string@DU?$char_traits@D@std@@V?$allocator@D@2@@std@@@std@@V?$allocator@U?$pair@EV?$basic_string@DU?$char_traits@D@std@@V?$allocator@D@2@@std@@@std@@@2@@2@U_tstring_less@@V?$allocator@U?$pair@$$CBV?$basic_string@DU?$char_traits@D@std@@V?$allocator@D@2@@std@@V?$list@U?$pair@EV?$basic_string@DU?$char_traits@D@std@@V?$allocator@D@2@@std@@@std@@V?$allocator@U?$pair@EV?$basic_string@DU?$char_traits@D@std@@V?$allocator@D@2@@std@@@std@@@2@@2@@std@@@2@$0A@@std@@@2@XZ 004159f0 f i FriendMgr.obj
 0001:00014a30       ??0?$_Tree_ptr@V?$_Tmap_traits@V?$basic_string@DU?$char_traits@D@std@@V?$allocator@D@2@@std@@V?$list@U?$pair@EV?$basic_string@DU?$char_traits@D@std@@V?$allocator@D@2@@std@@@std@@V?$allocator@U?$pair@EV?$basic_string@DU?$char_traits@D@std@@V?$allocator@D@2@@std@@@std@@@2@@2@U_tstring_less@@V?$allocator@U?$pair@$$CBV?$basic_string@DU?$char_traits@D@std@@V?$allocator@D@2@@std@@V?$list@U?$pair@EV?$basic_string@DU?$char_traits@D@std@@V?$allocator@D@2@@std@@@std@@V?$allocator@U?$pair@EV?$basic_string@DU?$char_traits@D@std@@V?$allocator@D@2@@std@@@std@@@2@@2@@std@@@2@$0A@@std@@@std@@IAE@ABU_tstring_less@@V?$allocator@U?$pair@$$CBV?$basic_string@DU?$char_traits@D@std@@V?$allocator@D@2@@std@@V?$list@U?$pair@EV?$basic_string@DU?$char_traits@D@std@@V?$allocator@D@2@@std@@@std@@V?$allocator@U?$pair@EV?$basic_string@DU?$char_traits@D@std@@V?$allocator@D@2@@std@@@std@@@2@@2@@std@@@1@@Z 00415a30 f i FriendMgr.obj
 0001:00014a40       ??0?$_List_ptr@U?$pair@EV?$basic_string@DU?$char_traits@D@std@@V?$allocator@D@2@@std@@@std@@V?$allocator@U?$pair@EV?$basic_string@DU?$char_traits@D@std@@V?$allocator@D@2@@std@@@std@@@2@@std@@IAE@V?$allocator@U?$pair@EV?$basic_string@DU?$char_traits@D@std@@V?$allocator@D@2@@std@@@std@@@1@@Z 00415a40 f i FriendMgr.obj
 0001:00014a50       ??Eiterator@?$_Tree@V?$_Tmap_traits@UADDFRIENDKEY@CFriendMgr@@UADDFRIENDVALUE@2@U?$less@UADDFRIENDKEY@CFriendMgr@@@std@@V?$allocator@U?$pair@$$CBUADDFRIENDKEY@CFriendMgr@@UADDFRIENDVALUE@2@@std@@@5@$0A@@std@@@std@@QAE?AV012@H@Z 00415a50 f i FriendMgr.obj
 0001:00014a70       ??$fill@PAViterator@?$_Tree@V?$_Tmap_traits@V?$basic_string@DU?$char_traits@D@std@@V?$allocator@D@2@@std@@UPLAYERINFO@CFriendMgr@@U_tstring_less@@V?$allocator@U?$pair@$$CBV?$basic_string@DU?$char_traits@D@std@@V?$allocator@D@2@@std@@UPLAYERINFO@CFriendMgr@@@std@@@2@$0A@@std@@@std@@V123@@std@@YAXPAViterator@?$_Tree@V?$_Tmap_traits@V?$basic_string@DU?$char_traits@D@std@@V?$allocator@D@2@@std@@UPLAYERINFO@CFriendMgr@@U_tstring_less@@V?$allocator@U?$pair@$$CBV?$basic_string@DU?$char_traits@D@std@@V?$allocator@D@2@@std@@UPLAYERINFO@CFriendMgr@@@std@@@2@$0A@@std@@@0@0ABV120@@Z 00415a70 f i FriendMgr.obj
 0001:00014aa0       ??$_Distance2@Viterator@?$_Tree@V?$_Tmap_traits@V?$basic_string@DU?$char_traits@D@std@@V?$allocator@D@2@@std@@UFRIENDINFO@CFriendMgr@@U_tstring_less@@V?$allocator@U?$pair@$$CBV?$basic_string@DU?$char_traits@D@std@@V?$allocator@D@2@@std@@UFRIENDINFO@CFriendMgr@@@std@@@2@$0A@@std@@@std@@I@std@@YAXViterator@?$_Tree@V?$_Tmap_traits@V?$basic_string@DU?$char_traits@D@std@@V?$allocator@D@2@@std@@UFRIENDINFO@CFriendMgr@@U_tstring_less@@V?$allocator@U?$pair@$$CBV?$basic_string@DU?$char_traits@D@std@@V?$allocator@D@2@@std@@UFRIENDINFO@CFriendMgr@@@std@@@2@$0A@@std@@@0@0AAIUbidirectional_iterator_tag@0@@Z 00415aa0 f i FriendMgr.obj
 0001:00014ae0       ??$_Uninit_fill_n@PAViterator@?$_Tree@V?$_Tmap_traits@V?$basic_string@DU?$char_traits@D@std@@V?$allocator@D@2@@std@@UPLAYERINFO@CFriendMgr@@U_tstring_less@@V?$allocator@U?$pair@$$CBV?$basic_string@DU?$char_traits@D@std@@V?$allocator@D@2@@std@@UPLAYERINFO@CFriendMgr@@@std@@@2@$0A@@std@@@std@@IV123@V?$allocator@Viterator@?$_Tree@V?$_Tmap_traits@V?$basic_string@DU?$char_traits@D@std@@V?$allocator@D@2@@std@@UPLAYERINFO@CFriendMgr@@U_tstring_less@@V?$allocator@U?$pair@$$CBV?$basic_string@DU?$char_traits@D@std@@V?$allocator@D@2@@std@@UPLAYERINFO@CFriendMgr@@@std@@@2@$0A@@std@@@std@@@3@@std@@YAXPAViterator@?$_Tree@V?$_Tmap_traits@V?$basic_string@DU?$char_traits@D@std@@V?$allocator@D@2@@std@@UPLAYERINFO@CFriendMgr@@U_tstring_less@@V?$allocator@U?$pair@$$CBV?$basic_string@DU?$char_traits@D@std@@V?$allocator@D@2@@std@@UPLAYERINFO@CFriendMgr@@@std@@@2@$0A@@std@@@0@IABV120@AAV?$allocator@Viterator@?$_Tree@V?$_Tmap_traits@V?$basic_string@DU?$char_traits@D@std@@V?$allocator@D@2@@std@@UPLAYERINFO@CFriendMgr@@U_tstring_less@@V?$allocator@U?$pair@$$CBV?$basic_string@DU?$char_traits@D@std@@V?$allocator@D@2@@std@@UPLAYERINFO@CFriendMgr@@@std@@@2@$0A@@std@@@std@@@0@U_Nonscalar_ptr_iterator_tag@0@U_Range_checked_iterator_tag@0@@Z 00415ae0 f i FriendMgr.obj
 0001:00014b10       ??$_Destroy_range@Viterator@?$_Tree@V?$_Tmap_traits@V?$basic_string@DU?$char_traits@D@std@@V?$allocator@D@2@@std@@UPLAYERINFO@CFriendMgr@@U_tstring_less@@V?$allocator@U?$pair@$$CBV?$basic_string@DU?$char_traits@D@std@@V?$allocator@D@2@@std@@UPLAYERINFO@CFriendMgr@@@std@@@2@$0A@@std@@@std@@V?$allocator@Viterator@?$_Tree@V?$_Tmap_traits@V?$basic_string@DU?$char_traits@D@std@@V?$allocator@D@2@@std@@UPLAYERINFO@CFriendMgr@@U_tstring_less@@V?$allocator@U?$pair@$$CBV?$basic_string@DU?$char_traits@D@std@@V?$allocator@D@2@@std@@UPLAYERINFO@CFriendMgr@@@std@@@2@$0A@@std@@@std@@@3@@std@@YAXPAViterator@?$_Tree@V?$_Tmap_traits@V?$basic_string@DU?$char_traits@D@std@@V?$allocator@D@2@@std@@UPLAYERINFO@CFriendMgr@@U_tstring_less@@V?$allocator@U?$pair@$$CBV?$basic_string@DU?$char_traits@D@std@@V?$allocator@D@2@@std@@UPLAYERINFO@CFriendMgr@@@std@@@2@$0A@@std@@@0@0AAV?$allocator@Viterator@?$_Tree@V?$_Tmap_traits@V?$basic_string@DU?$char_traits@D@std@@V?$allocator@D@2@@std@@UPLAYERINFO@CFriendMgr@@U_tstring_less@@V?$allocator@U?$pair@$$CBV?$basic_string@DU?$char_traits@D@std@@V?$allocator@D@2@@std@@UPLAYERINFO@CFriendMgr@@@std@@@2@$0A@@std@@@std@@@0@U_Nonscalar_ptr_iterator_tag@0@@Z 00415b10 f i FriendMgr.obj
 0001:00014b20       ??$_Move_backward_opt@PAViterator@?$_Tree@V?$_Tmap_traits@V?$basic_string@DU?$char_traits@D@std@@V?$allocator@D@2@@std@@UPLAYERINFO@CFriendMgr@@U_tstring_less@@V?$allocator@U?$pair@$$CBV?$basic_string@DU?$char_traits@D@std@@V?$allocator@D@2@@std@@UPLAYERINFO@CFriendMgr@@@std@@@2@$0A@@std@@@std@@PAV123@Urandom_access_iterator_tag@3@U_Undefined_move_tag@3@@std@@YAPAViterator@?$_Tree@V?$_Tmap_traits@V?$basic_string@DU?$char_traits@D@std@@V?$allocator@D@2@@std@@UPLAYERINFO@CFriendMgr@@U_tstring_less@@V?$allocator@U?$pair@$$CBV?$basic_string@DU?$char_traits@D@std@@V?$allocator@D@2@@std@@UPLAYERINFO@CFriendMgr@@@std@@@2@$0A@@std@@@0@PAV120@00Urandom_access_iterator_tag@0@U_Undefined_move_tag@0@U_Range_checked_iterator_tag@0@@Z 00415b20 f i FriendMgr.obj
 0001:00014b60       ?erase@?$list@UtagPlusSrcInfo@@V?$allocator@UtagPlusSrcInfo@@@std@@@std@@QAE?AV?$_Iterator@$00@12@V312@@Z 00415b60 f i FriendMgr.obj
 0001:00014bc0       ??$unchecked_uninitialized_copy@PAViterator@?$_Tree@V?$_Tmap_traits@V?$basic_string@DU?$char_traits@D@std@@V?$allocator@D@2@@std@@UPLAYERINFO@CFriendMgr@@U_tstring_less@@V?$allocator@U?$pair@$$CBV?$basic_string@DU?$char_traits@D@std@@V?$allocator@D@2@@std@@UPLAYERINFO@CFriendMgr@@@std@@@2@$0A@@std@@@std@@PAV123@V?$allocator@Viterator@?$_Tree@V?$_Tmap_traits@V?$basic_string@DU?$char_traits@D@std@@V?$allocator@D@2@@std@@UPLAYERINFO@CFriendMgr@@U_tstring_less@@V?$allocator@U?$pair@$$CBV?$basic_string@DU?$char_traits@D@std@@V?$allocator@D@2@@std@@UPLAYERINFO@CFriendMgr@@@std@@@2@$0A@@std@@@std@@@3@@stdext@@YAPAViterator@?$_Tree@V?$_Tmap_traits@V?$basic_string@DU?$char_traits@D@std@@V?$allocator@D@2@@std@@UPLAYERINFO@CFriendMgr@@U_tstring_less@@V?$allocator@U?$pair@$$CBV?$basic_string@DU?$char_traits@D@std@@V?$allocator@D@2@@std@@UPLAYERINFO@CFriendMgr@@@std@@@2@$0A@@std@@@std@@PAV123@00AAV?$allocator@Viterator@?$_Tree@V?$_Tmap_traits@V?$basic_string@DU?$char_traits@D@std@@V?$allocator@D@2@@std@@UPLAYERINFO@CFriendMgr@@U_tstring_less@@V?$allocator@U?$pair@$$CBV?$basic_string@DU?$char_traits@D@std@@V?$allocator@D@2@@std@@UPLAYERINFO@CFriendMgr@@@std@@@2@$0A@@std@@@std@@@3@@Z 00415bc0 f i FriendMgr.obj
 0001:00014bf0       ??MADDFRIENDKEY@CFriendMgr@@QBE_NABU01@@Z 00415bf0 f i FriendMgr.obj
 0001:00014c30       ?begin@?$_Tree@V?$_Tmap_traits@V?$basic_string@DU?$char_traits@D@std@@V?$allocator@D@2@@std@@UFRIENDINFO@CFriendMgr@@U_tstring_less@@V?$allocator@U?$pair@$$CBV?$basic_string@DU?$char_traits@D@std@@V?$allocator@D@2@@std@@UFRIENDINFO@CFriendMgr@@@std@@@2@$0A@@std@@@std@@QAE?AViterator@12@XZ 00415c30 f i FriendMgr.obj
 0001:00014c50       ?end@?$_Tree@V?$_Tmap_traits@V?$basic_string@DU?$char_traits@D@std@@V?$allocator@D@2@@std@@UFRIENDINFO@CFriendMgr@@U_tstring_less@@V?$allocator@U?$pair@$$CBV?$basic_string@DU?$char_traits@D@std@@V?$allocator@D@2@@std@@UFRIENDINFO@CFriendMgr@@@std@@@2@$0A@@std@@@std@@QAE?AViterator@12@XZ 00415c50 f i FriendMgr.obj
 0001:00014c60       ?end@?$_Tree@V?$_Tmap_traits@UADDFRIENDKEY@CFriendMgr@@UADDFRIENDVALUE@2@U?$less@UADDFRIENDKEY@CFriendMgr@@@std@@V?$allocator@U?$pair@$$CBUADDFRIENDKEY@CFriendMgr@@UADDFRIENDVALUE@2@@std@@@5@$0A@@std@@@std@@QAE?AViterator@12@XZ 00415c60 f i FriendMgr.obj
 0001:00014c70       ?begin@?$list@UMEM_FRIENDRECORD@CFriendMgr@@V?$allocator@UMEM_FRIENDRECORD@CFriendMgr@@@std@@@std@@QAE?AV?$_Iterator@$00@12@XZ 00415c70 f i FriendMgr.obj
 0001:00014c90       ?end@?$list@UMEM_FRIENDRECORD@CFriendMgr@@V?$allocator@UMEM_FRIENDRECORD@CFriendMgr@@@std@@@std@@QAE?AV?$_Iterator@$00@12@XZ 00415c90 f i FriendMgr.obj
 0001:00014ca0       ??Eiterator@?$_Tree@V?$_Tmap_traits@V?$basic_string@DU?$char_traits@D@std@@V?$allocator@D@2@@std@@UPLAYERINFO@CFriendMgr@@U_tstring_less@@V?$allocator@U?$pair@$$CBV?$basic_string@DU?$char_traits@D@std@@V?$allocator@D@2@@std@@UPLAYERINFO@CFriendMgr@@@std@@@2@$0A@@std@@@std@@QAEAAV012@XZ 00415ca0 f i FriendMgr.obj
 0001:00014cb0       ??Eiterator@?$_Tree@V?$_Tmap_traits@V?$basic_string@DU?$char_traits@D@std@@V?$allocator@D@2@@std@@UPLAYERINFO@CFriendMgr@@U_tstring_less@@V?$allocator@U?$pair@$$CBV?$basic_string@DU?$char_traits@D@std@@V?$allocator@D@2@@std@@UPLAYERINFO@CFriendMgr@@@std@@@2@$0A@@std@@@std@@QAE?AV012@H@Z 00415cb0 f i FriendMgr.obj
 0001:00014cd0       ??Fiterator@?$_Tree@V?$_Tmap_traits@V?$basic_string@DU?$char_traits@D@std@@V?$allocator@D@2@@std@@UPLAYERINFO@CFriendMgr@@U_tstring_less@@V?$allocator@U?$pair@$$CBV?$basic_string@DU?$char_traits@D@std@@V?$allocator@D@2@@std@@UPLAYERINFO@CFriendMgr@@@std@@@2@$0A@@std@@@std@@QAEAAV012@XZ 00415cd0 f i FriendMgr.obj
 0001:00014ce0       ?begin@?$_Tree@V?$_Tmap_traits@KV?$list@UtagPlusSrcInfo@@V?$allocator@UtagPlusSrcInfo@@@std@@@std@@U?$less@K@2@V?$allocator@U?$pair@$$CBKV?$list@UtagPlusSrcInfo@@V?$allocator@UtagPlusSrcInfo@@@std@@@std@@@std@@@2@$0A@@std@@@std@@QAE?AViterator@12@XZ 00415ce0 f i FriendMgr.obj
 0001:00014d00       ?end@?$_Tree@V?$_Tmap_traits@KV?$list@UtagPlusSrcInfo@@V?$allocator@UtagPlusSrcInfo@@@std@@@std@@U?$less@K@2@V?$allocator@U?$pair@$$CBKV?$list@UtagPlusSrcInfo@@V?$allocator@UtagPlusSrcInfo@@@std@@@std@@@std@@@2@$0A@@std@@@std@@QAE?AViterator@12@XZ 00415d00 f i FriendMgr.obj
 0001:00014d10       ??Eiterator@?$_Tree@V?$_Tmap_traits@V?$basic_string@DU?$char_traits@D@std@@V?$allocator@D@2@@std@@UFRIENDINFO@CFriendMgr@@U_tstring_less@@V?$allocator@U?$pair@$$CBV?$basic_string@DU?$char_traits@D@std@@V?$allocator@D@2@@std@@UFRIENDINFO@CFriendMgr@@@std@@@2@$0A@@std@@@std@@QAE?AV012@H@Z 00415d10 f i FriendMgr.obj
 0001:00014d30       ?begin@?$list@UtagPlusSrcInfo@@V?$allocator@UtagPlusSrcInfo@@@std@@@std@@QAE?AV?$_Iterator@$00@12@XZ 00415d30 f i FriendMgr.obj
 0001:00014d50       ?begin@?$_Tree@V?$_Tmap_traits@V?$basic_string@DU?$char_traits@D@std@@V?$allocator@D@2@@std@@V?$list@U?$pair@EV?$basic_string@DU?$char_traits@D@std@@V?$allocator@D@2@@std@@@std@@V?$allocator@U?$pair@EV?$basic_string@DU?$char_traits@D@std@@V?$allocator@D@2@@std@@@std@@@2@@2@U_tstring_less@@V?$allocator@U?$pair@$$CBV?$basic_string@DU?$char_traits@D@std@@V?$allocator@D@2@@std@@V?$list@U?$pair@EV?$basic_string@DU?$char_traits@D@std@@V?$allocator@D@2@@std@@@std@@V?$allocator@U?$pair@EV?$basic_string@DU?$char_traits@D@std@@V?$allocator@D@2@@std@@@std@@@2@@2@@std@@@2@$0A@@std@@@std@@QAE?AViterator@12@XZ 00415d50 f i FriendMgr.obj
 0001:00014d70       ?end@?$_Tree@V?$_Tmap_traits@V?$basic_string@DU?$char_traits@D@std@@V?$allocator@D@2@@std@@V?$list@U?$pair@EV?$basic_string@DU?$char_traits@D@std@@V?$allocator@D@2@@std@@@std@@V?$allocator@U?$pair@EV?$basic_string@DU?$char_traits@D@std@@V?$allocator@D@2@@std@@@std@@@2@@2@U_tstring_less@@V?$allocator@U?$pair@$$CBV?$basic_string@DU?$char_traits@D@std@@V?$allocator@D@2@@std@@V?$list@U?$pair@EV?$basic_string@DU?$char_traits@D@std@@V?$allocator@D@2@@std@@@std@@V?$allocator@U?$pair@EV?$basic_string@DU?$char_traits@D@std@@V?$allocator@D@2@@std@@@std@@@2@@2@@std@@@2@$0A@@std@@@std@@QAE?AViterator@12@XZ 00415d70 f i FriendMgr.obj
 0001:00014d80       ?begin@?$list@U?$pair@EV?$basic_string@DU?$char_traits@D@std@@V?$allocator@D@2@@std@@@std@@V?$allocator@U?$pair@EV?$basic_string@DU?$char_traits@D@std@@V?$allocator@D@2@@std@@@std@@@2@@std@@QAE?AV?$_Iterator@$00@12@XZ 00415d80 f i FriendMgr.obj
 0001:00014da0       ?end@?$list@U?$pair@EV?$basic_string@DU?$char_traits@D@std@@V?$allocator@D@2@@std@@@std@@V?$allocator@U?$pair@EV?$basic_string@DU?$char_traits@D@std@@V?$allocator@D@2@@std@@@std@@@2@@std@@QAE?AV?$_Iterator@$00@12@XZ 00415da0 f i FriendMgr.obj
 0001:00014db0       ?begin@?$list@UONEPLAYER@CFriendMgr@@V?$allocator@UONEPLAYER@CFriendMgr@@@std@@@std@@QAE?AV?$_Iterator@$00@12@XZ 00415db0 f i FriendMgr.obj
 0001:00014dd0       ?end@?$list@UONEPLAYER@CFriendMgr@@V?$allocator@UONEPLAYER@CFriendMgr@@@std@@@std@@QAE?AV?$_Iterator@$00@12@XZ 00415dd0 f i FriendMgr.obj
 0001:00014de0       ?back@?$list@UONEPLAYER@CFriendMgr@@V?$allocator@UONEPLAYER@CFriendMgr@@@std@@@std@@QAEAAUONEPLAYER@CFriendMgr@@XZ 00415de0 f i FriendMgr.obj
 0001:00014e10       ?begin@?$list@V?$basic_string@DU?$char_traits@D@std@@V?$allocator@D@2@@std@@V?$allocator@V?$basic_string@DU?$char_traits@D@std@@V?$allocator@D@2@@std@@@2@@std@@QAE?AV?$_Iterator@$00@12@XZ 00415e10 f i FriendMgr.obj
 0001:00014e30       ?end@?$list@V?$basic_string@DU?$char_traits@D@std@@V?$allocator@D@2@@std@@V?$allocator@V?$basic_string@DU?$char_traits@D@std@@V?$allocator@D@2@@std@@@2@@std@@QAE?AV?$_Iterator@$00@12@XZ 00415e30 f i FriendMgr.obj
 0001:00014e40       ?lower_bound@?$_Tree@V?$_Tmap_traits@V?$basic_string@DU?$char_traits@D@std@@V?$allocator@D@2@@std@@UFRIENDINFO@CFriendMgr@@U_tstring_less@@V?$allocator@U?$pair@$$CBV?$basic_string@DU?$char_traits@D@std@@V?$allocator@D@2@@std@@UFRIENDINFO@CFriendMgr@@@std@@@2@$0A@@std@@@std@@QAE?AViterator@12@ABV?$basic_string@DU?$char_traits@D@std@@V?$allocator@D@2@@2@@Z 00415e40 f i FriendMgr.obj
 0001:00014e70       ?lower_bound@?$_Tree@V?$_Tmap_traits@V?$basic_string@DU?$char_traits@D@std@@V?$allocator@D@2@@std@@UPLAYERINFO@CFriendMgr@@U_tstring_less@@V?$allocator@U?$pair@$$CBV?$basic_string@DU?$char_traits@D@std@@V?$allocator@D@2@@std@@UPLAYERINFO@CFriendMgr@@@std@@@2@$0A@@std@@@std@@QAE?AViterator@12@ABV?$basic_string@DU?$char_traits@D@std@@V?$allocator@D@2@@2@@Z 00415e70 f i FriendMgr.obj
 0001:00014ea0       ??R?$less@UADDFRIENDKEY@CFriendMgr@@@std@@QBE_NABUADDFRIENDKEY@CFriendMgr@@0@Z 00415ea0 f i FriendMgr.obj
 0001:00014ee0       ??0?$_List_val@UMEM_FRIENDRECORD@CFriendMgr@@V?$allocator@UMEM_FRIENDRECORD@CFriendMgr@@@std@@@std@@QAE@V?$allocator@UMEM_FRIENDRECORD@CFriendMgr@@@1@@Z 00415ee0 f i FriendMgr.obj
 0001:00014ef0       ?lower_bound@?$_Tree@V?$_Tmap_traits@KV?$list@UtagPlusSrcInfo@@V?$allocator@UtagPlusSrcInfo@@@std@@@std@@U?$less@K@2@V?$allocator@U?$pair@$$CBKV?$list@UtagPlusSrcInfo@@V?$allocator@UtagPlusSrcInfo@@@std@@@std@@@std@@@2@$0A@@std@@@std@@QAE?AViterator@12@ABK@Z 00415ef0 f i FriendMgr.obj
 0001:00014f30       ??Eiterator@?$_Tree@V?$_Tmap_traits@KV?$list@UtagPlusSrcInfo@@V?$allocator@UtagPlusSrcInfo@@@std@@@std@@U?$less@K@2@V?$allocator@U?$pair@$$CBKV?$list@UtagPlusSrcInfo@@V?$allocator@UtagPlusSrcInfo@@@std@@@std@@@std@@@2@$0A@@std@@@std@@QAEAAV012@XZ 00415f30 f i FriendMgr.obj
 0001:00014f40       ?lower_bound@?$_Tree@V?$_Tmap_traits@V?$basic_string@DU?$char_traits@D@std@@V?$allocator@D@2@@std@@V?$list@U?$pair@EV?$basic_string@DU?$char_traits@D@std@@V?$allocator@D@2@@std@@@std@@V?$allocator@U?$pair@EV?$basic_string@DU?$char_traits@D@std@@V?$allocator@D@2@@std@@@std@@@2@@2@U_tstring_less@@V?$allocator@U?$pair@$$CBV?$basic_string@DU?$char_traits@D@std@@V?$allocator@D@2@@std@@V?$list@U?$pair@EV?$basic_string@DU?$char_traits@D@std@@V?$allocator@D@2@@std@@@std@@V?$allocator@U?$pair@EV?$basic_string@DU?$char_traits@D@std@@V?$allocator@D@2@@std@@@std@@@2@@2@@std@@@2@$0A@@std@@@std@@QAE?AViterator@12@ABV?$basic_string@DU?$char_traits@D@std@@V?$allocator@D@2@@2@@Z 00415f40 f i FriendMgr.obj
 0001:00014f70       ??Eiterator@?$_Tree@V?$_Tmap_traits@V?$basic_string@DU?$char_traits@D@std@@V?$allocator@D@2@@std@@V?$list@U?$pair@EV?$basic_string@DU?$char_traits@D@std@@V?$allocator@D@2@@std@@@std@@V?$allocator@U?$pair@EV?$basic_string@DU?$char_traits@D@std@@V?$allocator@D@2@@std@@@std@@@2@@2@U_tstring_less@@V?$allocator@U?$pair@$$CBV?$basic_string@DU?$char_traits@D@std@@V?$allocator@D@2@@std@@V?$list@U?$pair@EV?$basic_string@DU?$char_traits@D@std@@V?$allocator@D@2@@std@@@std@@V?$allocator@U?$pair@EV?$basic_string@DU?$char_traits@D@std@@V?$allocator@D@2@@std@@@std@@@2@@2@@std@@@2@$0A@@std@@@std@@QAEAAV012@XZ 00415f70 f i FriendMgr.obj
 0001:00014f80       ??0?$_List_val@UONEPLAYER@CFriendMgr@@V?$allocator@UONEPLAYER@CFriendMgr@@@std@@@std@@QAE@V?$allocator@UONEPLAYER@CFriendMgr@@@1@@Z 00415f80 f i FriendMgr.obj
 0001:00014f90       ??0?$_List_val@V?$basic_string@DU?$char_traits@D@std@@V?$allocator@D@2@@std@@V?$allocator@V?$basic_string@DU?$char_traits@D@std@@V?$allocator@D@2@@std@@@2@@std@@QAE@V?$allocator@V?$basic_string@DU?$char_traits@D@std@@V?$allocator@D@2@@std@@@1@@Z 00415f90 f i FriendMgr.obj
 0001:00014fa0       ?end@?$vector@Viterator@?$_Tree@V?$_Tmap_traits@V?$basic_string@DU?$char_traits@D@std@@V?$allocator@D@2@@std@@UPLAYERINFO@CFriendMgr@@U_tstring_less@@V?$allocator@U?$pair@$$CBV?$basic_string@DU?$char_traits@D@std@@V?$allocator@D@2@@std@@UPLAYERINFO@CFriendMgr@@@std@@@2@$0A@@std@@@std@@V?$allocator@Viterator@?$_Tree@V?$_Tmap_traits@V?$basic_string@DU?$char_traits@D@std@@V?$allocator@D@2@@std@@UPLAYERINFO@CFriendMgr@@U_tstring_less@@V?$allocator@U?$pair@$$CBV?$basic_string@DU?$char_traits@D@std@@V?$allocator@D@2@@std@@UPLAYERINFO@CFriendMgr@@@std@@@2@$0A@@std@@@std@@@3@@std@@QAE?AV?$_Vector_iterator@Viterator@?$_Tree@V?$_Tmap_traits@V?$basic_string@DU?$char_traits@D@std@@V?$allocator@D@2@@std@@UPLAYERINFO@CFriendMgr@@U_tstring_less@@V?$allocator@U?$pair@$$CBV?$basic_string@DU?$char_traits@D@std@@V?$allocator@D@2@@std@@UPLAYERINFO@CFriendMgr@@@std@@@2@$0A@@std@@@std@@V?$allocator@Viterator@?$_Tree@V?$_Tmap_traits@V?$basic_string@DU?$char_traits@D@std@@V?$allocator@D@2@@std@@UPLAYERINFO@CFriendMgr@@U_tstring_less@@V?$allocator@U?$pair@$$CBV?$basic_string@DU?$char_traits@D@std@@V?$allocator@D@2@@std@@UPLAYERINFO@CFriendMgr@@@std@@@2@$0A@@std@@@std@@@3@@2@XZ 00415fa0 f i FriendMgr.obj
 0001:00014fd0       ?upper_bound@?$_Tree@V?$_Tmap_traits@V?$basic_string@DU?$char_traits@D@std@@V?$allocator@D@2@@std@@UFRIENDINFO@CFriendMgr@@U_tstring_less@@V?$allocator@U?$pair@$$CBV?$basic_string@DU?$char_traits@D@std@@V?$allocator@D@2@@std@@UFRIENDINFO@CFriendMgr@@@std@@@2@$0A@@std@@@std@@QAE?AViterator@12@ABV?$basic_string@DU?$char_traits@D@std@@V?$allocator@D@2@@2@@Z 00415fd0 f i FriendMgr.obj
 0001:00015000       ?_Init@?$_Tree@V?$_Tmap_traits@V?$basic_string@DU?$char_traits@D@std@@V?$allocator@D@2@@std@@UFRIENDINFO@CFriendMgr@@U_tstring_less@@V?$allocator@U?$pair@$$CBV?$basic_string@DU?$char_traits@D@std@@V?$allocator@D@2@@std@@UFRIENDINFO@CFriendMgr@@@std@@@2@$0A@@std@@@std@@IAEXXZ 00416000 f i FriendMgr.obj
 0001:00015030       ??0?$_Tree_val@V?$_Tmap_traits@V?$basic_string@DU?$char_traits@D@std@@V?$allocator@D@2@@std@@UFRIENDINFO@CFriendMgr@@U_tstring_less@@V?$allocator@U?$pair@$$CBV?$basic_string@DU?$char_traits@D@std@@V?$allocator@D@2@@std@@UFRIENDINFO@CFriendMgr@@@std@@@2@$0A@@std@@@std@@IAE@ABU_tstring_less@@V?$allocator@U?$pair@$$CBV?$basic_string@DU?$char_traits@D@std@@V?$allocator@D@2@@std@@UFRIENDINFO@CFriendMgr@@@std@@@1@@Z 00416030 f i FriendMgr.obj
 0001:00015040       ?_Init@?$_Tree@V?$_Tmap_traits@V?$basic_string@DU?$char_traits@D@std@@V?$allocator@D@2@@std@@UPLAYERINFO@CFriendMgr@@U_tstring_less@@V?$allocator@U?$pair@$$CBV?$basic_string@DU?$char_traits@D@std@@V?$allocator@D@2@@std@@UPLAYERINFO@CFriendMgr@@@std@@@2@$0A@@std@@@std@@IAEXXZ 00416040 f i FriendMgr.obj
 0001:00015070       ??0?$_Tree_val@V?$_Tmap_traits@V?$basic_string@DU?$char_traits@D@std@@V?$allocator@D@2@@std@@UPLAYERINFO@CFriendMgr@@U_tstring_less@@V?$allocator@U?$pair@$$CBV?$basic_string@DU?$char_traits@D@std@@V?$allocator@D@2@@std@@UPLAYERINFO@CFriendMgr@@@std@@@2@$0A@@std@@@std@@IAE@ABU_tstring_less@@V?$allocator@U?$pair@$$CBV?$basic_string@DU?$char_traits@D@std@@V?$allocator@D@2@@std@@UPLAYERINFO@CFriendMgr@@@std@@@1@@Z 00416070 f i FriendMgr.obj
 0001:00015080       ?_Init@?$_Tree@V?$_Tmap_traits@UADDFRIENDKEY@CFriendMgr@@UADDFRIENDVALUE@2@U?$less@UADDFRIENDKEY@CFriendMgr@@@std@@V?$allocator@U?$pair@$$CBUADDFRIENDKEY@CFriendMgr@@UADDFRIENDVALUE@2@@std@@@5@$0A@@std@@@std@@IAEXXZ 00416080 f i FriendMgr.obj
 0001:000150b0       ?_Lbound@?$_Tree@V?$_Tmap_traits@UADDFRIENDKEY@CFriendMgr@@UADDFRIENDVALUE@2@U?$less@UADDFRIENDKEY@CFriendMgr@@@std@@V?$allocator@U?$pair@$$CBUADDFRIENDKEY@CFriendMgr@@UADDFRIENDVALUE@2@@std@@@5@$0A@@std@@@std@@IBEPAU_Node@?$_Tree_nod@V?$_Tmap_traits@UADDFRIENDKEY@CFriendMgr@@UADDFRIENDVALUE@2@U?$less@UADDFRIENDKEY@CFriendMgr@@@std@@V?$allocator@U?$pair@$$CBUADDFRIENDKEY@CFriendMgr@@UADDFRIENDVALUE@2@@std@@@5@$0A@@std@@@2@ABUADDFRIENDKEY@CFriendMgr@@@Z 004160b0 f i FriendMgr.obj
 0001:00015130       ??0?$_Tree_val@V?$_Tmap_traits@UADDFRIENDKEY@CFriendMgr@@UADDFRIENDVALUE@2@U?$less@UADDFRIENDKEY@CFriendMgr@@@std@@V?$allocator@U?$pair@$$CBUADDFRIENDKEY@CFriendMgr@@UADDFRIENDVALUE@2@@std@@@5@$0A@@std@@@std@@IAE@ABU?$less@UADDFRIENDKEY@CFriendMgr@@@1@V?$allocator@U?$pair@$$CBUADDFRIENDKEY@CFriendMgr@@UADDFRIENDVALUE@2@@std@@@1@@Z 00416130 f i FriendMgr.obj
 0001:00015140       ?_Init@?$_Tree@V?$_Tmap_traits@KV?$list@UtagPlusSrcInfo@@V?$allocator@UtagPlusSrcInfo@@@std@@@std@@U?$less@K@2@V?$allocator@U?$pair@$$CBKV?$list@UtagPlusSrcInfo@@V?$allocator@UtagPlusSrcInfo@@@std@@@std@@@std@@@2@$0A@@std@@@std@@IAEXXZ 00416140 f i FriendMgr.obj
 0001:00015170       ??0?$_Tree_val@V?$_Tmap_traits@KV?$list@UtagPlusSrcInfo@@V?$allocator@UtagPlusSrcInfo@@@std@@@std@@U?$less@K@2@V?$allocator@U?$pair@$$CBKV?$list@UtagPlusSrcInfo@@V?$allocator@UtagPlusSrcInfo@@@std@@@std@@@std@@@2@$0A@@std@@@std@@IAE@ABU?$less@K@1@V?$allocator@U?$pair@$$CBKV?$list@UtagPlusSrcInfo@@V?$allocator@UtagPlusSrcInfo@@@std@@@std@@@std@@@1@@Z 00416170 f i FriendMgr.obj
 0001:00015180       ?_Init@?$_Tree@V?$_Tmap_traits@V?$basic_string@DU?$char_traits@D@std@@V?$allocator@D@2@@std@@V?$list@U?$pair@EV?$basic_string@DU?$char_traits@D@std@@V?$allocator@D@2@@std@@@std@@V?$allocator@U?$pair@EV?$basic_string@DU?$char_traits@D@std@@V?$allocator@D@2@@std@@@std@@@2@@2@U_tstring_less@@V?$allocator@U?$pair@$$CBV?$basic_string@DU?$char_traits@D@std@@V?$allocator@D@2@@std@@V?$list@U?$pair@EV?$basic_string@DU?$char_traits@D@std@@V?$allocator@D@2@@std@@@std@@V?$allocator@U?$pair@EV?$basic_string@DU?$char_traits@D@std@@V?$allocator@D@2@@std@@@std@@@2@@2@@std@@@2@$0A@@std@@@std@@IAEXXZ 00416180 f i FriendMgr.obj
 0001:000151b0       ??0?$_Tree_val@V?$_Tmap_traits@V?$basic_string@DU?$char_traits@D@std@@V?$allocator@D@2@@std@@V?$list@U?$pair@EV?$basic_string@DU?$char_traits@D@std@@V?$allocator@D@2@@std@@@std@@V?$allocator@U?$pair@EV?$basic_string@DU?$char_traits@D@std@@V?$allocator@D@2@@std@@@std@@@2@@2@U_tstring_less@@V?$allocator@U?$pair@$$CBV?$basic_string@DU?$char_traits@D@std@@V?$allocator@D@2@@std@@V?$list@U?$pair@EV?$basic_string@DU?$char_traits@D@std@@V?$allocator@D@2@@std@@@std@@V?$allocator@U?$pair@EV?$basic_string@DU?$char_traits@D@std@@V?$allocator@D@2@@std@@@std@@@2@@2@@std@@@2@$0A@@std@@@std@@IAE@ABU_tstring_less@@V?$allocator@U?$pair@$$CBV?$basic_string@DU?$char_traits@D@std@@V?$allocator@D@2@@std@@V?$list@U?$pair@EV?$basic_string@DU?$char_traits@D@std@@V?$allocator@D@2@@std@@@std@@V?$allocator@U?$pair@EV?$basic_string@DU?$char_traits@D@std@@V?$allocator@D@2@@std@@@std@@@2@@2@@std@@@1@@Z 004161b0 f i FriendMgr.obj
 0001:000151c0       ??0?$_List_val@U?$pair@EV?$basic_string@DU?$char_traits@D@std@@V?$allocator@D@2@@std@@@std@@V?$allocator@U?$pair@EV?$basic_string@DU?$char_traits@D@std@@V?$allocator@D@2@@std@@@std@@@2@@std@@QAE@V?$allocator@U?$pair@EV?$basic_string@DU?$char_traits@D@std@@V?$allocator@D@2@@std@@@std@@@1@@Z 004161c0 f i FriendMgr.obj
 0001:000151d0       ?begin@?$vector@Viterator@?$_Tree@V?$_Tmap_traits@V?$basic_string@DU?$char_traits@D@std@@V?$allocator@D@2@@std@@UPLAYERINFO@CFriendMgr@@U_tstring_less@@V?$allocator@U?$pair@$$CBV?$basic_string@DU?$char_traits@D@std@@V?$allocator@D@2@@std@@UPLAYERINFO@CFriendMgr@@@std@@@2@$0A@@std@@@std@@V?$allocator@Viterator@?$_Tree@V?$_Tmap_traits@V?$basic_string@DU?$char_traits@D@std@@V?$allocator@D@2@@std@@UPLAYERINFO@CFriendMgr@@U_tstring_less@@V?$allocator@U?$pair@$$CBV?$basic_string@DU?$char_traits@D@std@@V?$allocator@D@2@@std@@UPLAYERINFO@CFriendMgr@@@std@@@2@$0A@@std@@@std@@@3@@std@@QAE?AV?$_Vector_iterator@Viterator@?$_Tree@V?$_Tmap_traits@V?$basic_string@DU?$char_traits@D@std@@V?$allocator@D@2@@std@@UPLAYERINFO@CFriendMgr@@U_tstring_less@@V?$allocator@U?$pair@$$CBV?$basic_string@DU?$char_traits@D@std@@V?$allocator@D@2@@std@@UPLAYERINFO@CFriendMgr@@@std@@@2@$0A@@std@@@std@@V?$allocator@Viterator@?$_Tree@V?$_Tmap_traits@V?$basic_string@DU?$char_traits@D@std@@V?$allocator@D@2@@std@@UPLAYERINFO@CFriendMgr@@U_tstring_less@@V?$allocator@U?$pair@$$CBV?$basic_string@DU?$char_traits@D@std@@V?$allocator@D@2@@std@@UPLAYERINFO@CFriendMgr@@@std@@@2@$0A@@std@@@std@@@3@@2@XZ 004161d0 f i FriendMgr.obj
 0001:00015200       ??$_Distance@Viterator@?$_Tree@V?$_Tmap_traits@V?$basic_string@DU?$char_traits@D@std@@V?$allocator@D@2@@std@@UFRIENDINFO@CFriendMgr@@U_tstring_less@@V?$allocator@U?$pair@$$CBV?$basic_string@DU?$char_traits@D@std@@V?$allocator@D@2@@std@@UFRIENDINFO@CFriendMgr@@@std@@@2@$0A@@std@@@std@@I@std@@YAXViterator@?$_Tree@V?$_Tmap_traits@V?$basic_string@DU?$char_traits@D@std@@V?$allocator@D@2@@std@@UFRIENDINFO@CFriendMgr@@U_tstring_less@@V?$allocator@U?$pair@$$CBV?$basic_string@DU?$char_traits@D@std@@V?$allocator@D@2@@std@@UFRIENDINFO@CFriendMgr@@@std@@@2@$0A@@std@@@0@0AAI@Z 00416200 f i FriendMgr.obj
 0001:00015230       ??$unchecked_uninitialized_fill_n@PAViterator@?$_Tree@V?$_Tmap_traits@V?$basic_string@DU?$char_traits@D@std@@V?$allocator@D@2@@std@@UPLAYERINFO@CFriendMgr@@U_tstring_less@@V?$allocator@U?$pair@$$CBV?$basic_string@DU?$char_traits@D@std@@V?$allocator@D@2@@std@@UPLAYERINFO@CFriendMgr@@@std@@@2@$0A@@std@@@std@@IV123@V?$allocator@Viterator@?$_Tree@V?$_Tmap_traits@V?$basic_string@DU?$char_traits@D@std@@V?$allocator@D@2@@std@@UPLAYERINFO@CFriendMgr@@U_tstring_less@@V?$allocator@U?$pair@$$CBV?$basic_string@DU?$char_traits@D@std@@V?$allocator@D@2@@std@@UPLAYERINFO@CFriendMgr@@@std@@@2@$0A@@std@@@std@@@3@@stdext@@YAXPAViterator@?$_Tree@V?$_Tmap_traits@V?$basic_string@DU?$char_traits@D@std@@V?$allocator@D@2@@std@@UPLAYERINFO@CFriendMgr@@U_tstring_less@@V?$allocator@U?$pair@$$CBV?$basic_string@DU?$char_traits@D@std@@V?$allocator@D@2@@std@@UPLAYERINFO@CFriendMgr@@@std@@@2@$0A@@std@@@std@@IABV123@AAV?$allocator@Viterator@?$_Tree@V?$_Tmap_traits@V?$basic_string@DU?$char_traits@D@std@@V?$allocator@D@2@@std@@UPLAYERINFO@CFriendMgr@@U_tstring_less@@V?$allocator@U?$pair@$$CBV?$basic_string@DU?$char_traits@D@std@@V?$allocator@D@2@@std@@UPLAYERINFO@CFriendMgr@@@std@@@2@$0A@@std@@@std@@@3@@Z 00416230 f i FriendMgr.obj
 0001:00015260       ??$_Destroy_range@Viterator@?$_Tree@V?$_Tmap_traits@V?$basic_string@DU?$char_traits@D@std@@V?$allocator@D@2@@std@@UPLAYERINFO@CFriendMgr@@U_tstring_less@@V?$allocator@U?$pair@$$CBV?$basic_string@DU?$char_traits@D@std@@V?$allocator@D@2@@std@@UPLAYERINFO@CFriendMgr@@@std@@@2@$0A@@std@@@std@@V?$allocator@Viterator@?$_Tree@V?$_Tmap_traits@V?$basic_string@DU?$char_traits@D@std@@V?$allocator@D@2@@std@@UPLAYERINFO@CFriendMgr@@U_tstring_less@@V?$allocator@U?$pair@$$CBV?$basic_string@DU?$char_traits@D@std@@V?$allocator@D@2@@std@@UPLAYERINFO@CFriendMgr@@@std@@@2@$0A@@std@@@std@@@3@@std@@YAXPAViterator@?$_Tree@V?$_Tmap_traits@V?$basic_string@DU?$char_traits@D@std@@V?$allocator@D@2@@std@@UPLAYERINFO@CFriendMgr@@U_tstring_less@@V?$allocator@U?$pair@$$CBV?$basic_string@DU?$char_traits@D@std@@V?$allocator@D@2@@std@@UPLAYERINFO@CFriendMgr@@@std@@@2@$0A@@std@@@0@0AAV?$allocator@Viterator@?$_Tree@V?$_Tmap_traits@V?$basic_string@DU?$char_traits@D@std@@V?$allocator@D@2@@std@@UPLAYERINFO@CFriendMgr@@U_tstring_less@@V?$allocator@U?$pair@$$CBV?$basic_string@DU?$char_traits@D@std@@V?$allocator@D@2@@std@@UPLAYERINFO@CFriendMgr@@@std@@@2@$0A@@std@@@std@@@0@@Z 00416260 f i FriendMgr.obj
 0001:00015270       ??$_Unchecked_move_backward@PAViterator@?$_Tree@V?$_Tmap_traits@V?$basic_string@DU?$char_traits@D@std@@V?$allocator@D@2@@std@@UPLAYERINFO@CFriendMgr@@U_tstring_less@@V?$allocator@U?$pair@$$CBV?$basic_string@DU?$char_traits@D@std@@V?$allocator@D@2@@std@@UPLAYERINFO@CFriendMgr@@@std@@@2@$0A@@std@@@std@@PAV123@@stdext@@YAPAViterator@?$_Tree@V?$_Tmap_traits@V?$basic_string@DU?$char_traits@D@std@@V?$allocator@D@2@@std@@UPLAYERINFO@CFriendMgr@@U_tstring_less@@V?$allocator@U?$pair@$$CBV?$basic_string@DU?$char_traits@D@std@@V?$allocator@D@2@@std@@UPLAYERINFO@CFriendMgr@@@std@@@2@$0A@@std@@@std@@PAV123@00@Z 00416270 f i FriendMgr.obj
 0001:000152b0       ??1_Node@?$_List_nod@V?$basic_string@DU?$char_traits@D@std@@V?$allocator@D@2@@std@@V?$allocator@V?$basic_string@DU?$char_traits@D@std@@V?$allocator@D@2@@std@@@2@@std@@QAE@XZ 004162b0 f i FriendMgr.obj
 0001:000152e0       ??$_Uninit_move@PAViterator@?$_Tree@V?$_Tmap_traits@V?$basic_string@DU?$char_traits@D@std@@V?$allocator@D@2@@std@@UPLAYERINFO@CFriendMgr@@U_tstring_less@@V?$allocator@U?$pair@$$CBV?$basic_string@DU?$char_traits@D@std@@V?$allocator@D@2@@std@@UPLAYERINFO@CFriendMgr@@@std@@@2@$0A@@std@@@std@@PAV123@V?$allocator@Viterator@?$_Tree@V?$_Tmap_traits@V?$basic_string@DU?$char_traits@D@std@@V?$allocator@D@2@@std@@UPLAYERINFO@CFriendMgr@@U_tstring_less@@V?$allocator@U?$pair@$$CBV?$basic_string@DU?$char_traits@D@std@@V?$allocator@D@2@@std@@UPLAYERINFO@CFriendMgr@@@std@@@2@$0A@@std@@@std@@@3@U_Undefined_move_tag@3@@std@@YAPAViterator@?$_Tree@V?$_Tmap_traits@V?$basic_string@DU?$char_traits@D@std@@V?$allocator@D@2@@std@@UPLAYERINFO@CFriendMgr@@U_tstring_less@@V?$allocator@U?$pair@$$CBV?$basic_string@DU?$char_traits@D@std@@V?$allocator@D@2@@std@@UPLAYERINFO@CFriendMgr@@@std@@@2@$0A@@std@@@0@PAV120@00AAV?$allocator@Viterator@?$_Tree@V?$_Tmap_traits@V?$basic_string@DU?$char_traits@D@std@@V?$allocator@D@2@@std@@UPLAYERINFO@CFriendMgr@@U_tstring_less@@V?$allocator@U?$pair@$$CBV?$basic_string@DU?$char_traits@D@std@@V?$allocator@D@2@@std@@UPLAYERINFO@CFriendMgr@@@std@@@2@$0A@@std@@@std@@@0@U_Undefined_move_tag@0@U_Range_checked_iterator_tag@0@@Z 004162e0 f i FriendMgr.obj
 0001:00015300       ??0FRIENDINFO@CFriendMgr@@QAE@XZ 00416300 f i FriendMgr.obj
 0001:00015330       ??1?$pair@EV?$basic_string@DU?$char_traits@D@std@@V?$allocator@D@2@@std@@@std@@QAE@XZ 00416330 f i FriendMgr.obj
 0001:00015360       ??1ADDFRIENDKEY@CFriendMgr@@QAE@XZ 00416360 f i FriendMgr.obj
 0001:00015390       ??1FRIENDINFO@CFriendMgr@@QAE@XZ 00416390 f i FriendMgr.obj
 0001:000153c0       ??1?$pair@$$CBV?$basic_string@DU?$char_traits@D@std@@V?$allocator@D@2@@std@@UFRIENDINFO@CFriendMgr@@@std@@QAE@XZ 004163c0 f i FriendMgr.obj
 0001:00015410       ??0MEM_FRIENDRECORD@CFriendMgr@@QAE@XZ 00416410 f i FriendMgr.obj
 0001:00015430       ??1MEM_FRIENDRECORD@CFriendMgr@@QAE@XZ 00416430 f i FriendMgr.obj
 0001:00015480       ?find@?$_Tree@V?$_Tmap_traits@V?$basic_string@DU?$char_traits@D@std@@V?$allocator@D@2@@std@@UFRIENDINFO@CFriendMgr@@U_tstring_less@@V?$allocator@U?$pair@$$CBV?$basic_string@DU?$char_traits@D@std@@V?$allocator@D@2@@std@@UFRIENDINFO@CFriendMgr@@@std@@@2@$0A@@std@@@std@@QAE?AViterator@12@ABV?$basic_string@DU?$char_traits@D@std@@V?$allocator@D@2@@2@@Z 00416480 f i FriendMgr.obj
 0001:000154f0       ?find@?$_Tree@V?$_Tmap_traits@V?$basic_string@DU?$char_traits@D@std@@V?$allocator@D@2@@std@@UPLAYERINFO@CFriendMgr@@U_tstring_less@@V?$allocator@U?$pair@$$CBV?$basic_string@DU?$char_traits@D@std@@V?$allocator@D@2@@std@@UPLAYERINFO@CFriendMgr@@@std@@@2@$0A@@std@@@std@@QAE?AViterator@12@ABV?$basic_string@DU?$char_traits@D@std@@V?$allocator@D@2@@2@@Z 004164f0 f i FriendMgr.obj
 0001:00015560       ??0?$list@UMEM_FRIENDRECORD@CFriendMgr@@V?$allocator@UMEM_FRIENDRECORD@CFriendMgr@@@std@@@std@@QAE@XZ 00416560 f i FriendMgr.obj
 0001:00015580       ??Eiterator@?$_Tree@V?$_Tmap_traits@KV?$list@UtagPlusSrcInfo@@V?$allocator@UtagPlusSrcInfo@@@std@@@std@@U?$less@K@2@V?$allocator@U?$pair@$$CBKV?$list@UtagPlusSrcInfo@@V?$allocator@UtagPlusSrcInfo@@@std@@@std@@@std@@@2@$0A@@std@@@std@@QAE?AV012@H@Z 00416580 f i FriendMgr.obj
 0001:000155a0       ??Eiterator@?$_Tree@V?$_Tmap_traits@V?$basic_string@DU?$char_traits@D@std@@V?$allocator@D@2@@std@@V?$list@U?$pair@EV?$basic_string@DU?$char_traits@D@std@@V?$allocator@D@2@@std@@@std@@V?$allocator@U?$pair@EV?$basic_string@DU?$char_traits@D@std@@V?$allocator@D@2@@std@@@std@@@2@@2@U_tstring_less@@V?$allocator@U?$pair@$$CBV?$basic_string@DU?$char_traits@D@std@@V?$allocator@D@2@@std@@V?$list@U?$pair@EV?$basic_string@DU?$char_traits@D@std@@V?$allocator@D@2@@std@@@std@@V?$allocator@U?$pair@EV?$basic_string@DU?$char_traits@D@std@@V?$allocator@D@2@@std@@@std@@@2@@2@@std@@@2@$0A@@std@@@std@@QAE?AV012@H@Z 004165a0 f i FriendMgr.obj
 0001:000155c0       ??0?$list@UONEPLAYER@CFriendMgr@@V?$allocator@UONEPLAYER@CFriendMgr@@@std@@@std@@QAE@XZ 004165c0 f i FriendMgr.obj
 0001:000155e0       ??0?$list@V?$basic_string@DU?$char_traits@D@std@@V?$allocator@D@2@@std@@V?$allocator@V?$basic_string@DU?$char_traits@D@std@@V?$allocator@D@2@@std@@@2@@std@@QAE@XZ 004165e0 f i FriendMgr.obj
 0001:00015600       ??0ADDFRIENDVALUE@CFriendMgr@@QAE@XZ 00416600 f i FriendMgr.obj
 0001:00015620       ??1ADDFRIENDVALUE@CFriendMgr@@QAE@XZ 00416620 f i FriendMgr.obj
 0001:00015650       ??1?$pair@$$CBUADDFRIENDKEY@CFriendMgr@@UADDFRIENDVALUE@2@@std@@QAE@XZ 00416650 f i FriendMgr.obj
 0001:000156a0       ??0?$_Tree@V?$_Tmap_traits@V?$basic_string@DU?$char_traits@D@std@@V?$allocator@D@2@@std@@UFRIENDINFO@CFriendMgr@@U_tstring_less@@V?$allocator@U?$pair@$$CBV?$basic_string@DU?$char_traits@D@std@@V?$allocator@D@2@@std@@UFRIENDINFO@CFriendMgr@@@std@@@2@$0A@@std@@@std@@QAE@ABU_tstring_less@@ABV?$allocator@U?$pair@$$CBV?$basic_string@DU?$char_traits@D@std@@V?$allocator@D@2@@std@@UFRIENDINFO@CFriendMgr@@@std@@@1@@Z 004166a0 f i FriendMgr.obj
 0001:000156d0       ?equal_range@?$_Tree@V?$_Tmap_traits@V?$basic_string@DU?$char_traits@D@std@@V?$allocator@D@2@@std@@UFRIENDINFO@CFriendMgr@@U_tstring_less@@V?$allocator@U?$pair@$$CBV?$basic_string@DU?$char_traits@D@std@@V?$allocator@D@2@@std@@UFRIENDINFO@CFriendMgr@@@std@@@2@$0A@@std@@@std@@QAE?AU?$pair@Viterator@?$_Tree@V?$_Tmap_traits@V?$basic_string@DU?$char_traits@D@std@@V?$allocator@D@2@@std@@UFRIENDINFO@CFriendMgr@@U_tstring_less@@V?$allocator@U?$pair@$$CBV?$basic_string@DU?$char_traits@D@std@@V?$allocator@D@2@@std@@UFRIENDINFO@CFriendMgr@@@std@@@2@$0A@@std@@@std@@V123@@2@ABV?$basic_string@DU?$char_traits@D@std@@V?$allocator@D@2@@2@@Z 004166d0 f i FriendMgr.obj
 0001:00015720       ??0?$_Tree@V?$_Tmap_traits@V?$basic_string@DU?$char_traits@D@std@@V?$allocator@D@2@@std@@UPLAYERINFO@CFriendMgr@@U_tstring_less@@V?$allocator@U?$pair@$$CBV?$basic_string@DU?$char_traits@D@std@@V?$allocator@D@2@@std@@UPLAYERINFO@CFriendMgr@@@std@@@2@$0A@@std@@@std@@QAE@ABU_tstring_less@@ABV?$allocator@U?$pair@$$CBV?$basic_string@DU?$char_traits@D@std@@V?$allocator@D@2@@std@@UPLAYERINFO@CFriendMgr@@@std@@@1@@Z 00416720 f i FriendMgr.obj
 0001:00015750       ??0?$_Tree@V?$_Tmap_traits@UADDFRIENDKEY@CFriendMgr@@UADDFRIENDVALUE@2@U?$less@UADDFRIENDKEY@CFriendMgr@@@std@@V?$allocator@U?$pair@$$CBUADDFRIENDKEY@CFriendMgr@@UADDFRIENDVALUE@2@@std@@@5@$0A@@std@@@std@@QAE@ABU?$less@UADDFRIENDKEY@CFriendMgr@@@1@ABV?$allocator@U?$pair@$$CBUADDFRIENDKEY@CFriendMgr@@UADDFRIENDVALUE@2@@std@@@1@@Z 00416750 f i FriendMgr.obj
 0001:00015780       ?lower_bound@?$_Tree@V?$_Tmap_traits@UADDFRIENDKEY@CFriendMgr@@UADDFRIENDVALUE@2@U?$less@UADDFRIENDKEY@CFriendMgr@@@std@@V?$allocator@U?$pair@$$CBUADDFRIENDKEY@CFriendMgr@@UADDFRIENDVALUE@2@@std@@@5@$0A@@std@@@std@@QAE?AViterator@12@ABUADDFRIENDKEY@CFriendMgr@@@Z 00416780 f i FriendMgr.obj
 0001:000157b0       ??0?$_Tree@V?$_Tmap_traits@KV?$list@UtagPlusSrcInfo@@V?$allocator@UtagPlusSrcInfo@@@std@@@std@@U?$less@K@2@V?$allocator@U?$pair@$$CBKV?$list@UtagPlusSrcInfo@@V?$allocator@UtagPlusSrcInfo@@@std@@@std@@@std@@@2@$0A@@std@@@std@@QAE@ABU?$less@K@1@ABV?$allocator@U?$pair@$$CBKV?$list@UtagPlusSrcInfo@@V?$allocator@UtagPlusSrcInfo@@@std@@@std@@@std@@@1@@Z 004167b0 f i FriendMgr.obj
 0001:000157e0       ??0?$_Tree@V?$_Tmap_traits@V?$basic_string@DU?$char_traits@D@std@@V?$allocator@D@2@@std@@V?$list@U?$pair@EV?$basic_string@DU?$char_traits@D@std@@V?$allocator@D@2@@std@@@std@@V?$allocator@U?$pair@EV?$basic_string@DU?$char_traits@D@std@@V?$allocator@D@2@@std@@@std@@@2@@2@U_tstring_less@@V?$allocator@U?$pair@$$CBV?$basic_string@DU?$char_traits@D@std@@V?$allocator@D@2@@std@@V?$list@U?$pair@EV?$basic_string@DU?$char_traits@D@std@@V?$allocator@D@2@@std@@@std@@V?$allocator@U?$pair@EV?$basic_string@DU?$char_traits@D@std@@V?$allocator@D@2@@std@@@std@@@2@@2@@std@@@2@$0A@@std@@@std@@QAE@ABU_tstring_less@@ABV?$allocator@U?$pair@$$CBV?$basic_string@DU?$char_traits@D@std@@V?$allocator@D@2@@std@@V?$list@U?$pair@EV?$basic_string@DU?$char_traits@D@std@@V?$allocator@D@2@@std@@@std@@V?$allocator@U?$pair@EV?$basic_string@DU?$char_traits@D@std@@V?$allocator@D@2@@std@@@std@@@2@@2@@std@@@1@@Z 004167e0 f i FriendMgr.obj
 0001:00015810       ??0?$list@U?$pair@EV?$basic_string@DU?$char_traits@D@std@@V?$allocator@D@2@@std@@@std@@V?$allocator@U?$pair@EV?$basic_string@DU?$char_traits@D@std@@V?$allocator@D@2@@std@@@std@@@2@@std@@QAE@XZ 00416810 f i FriendMgr.obj
 0001:00015830       ?_Ufill@?$vector@Viterator@?$_Tree@V?$_Tmap_traits@V?$basic_string@DU?$char_traits@D@std@@V?$allocator@D@2@@std@@UPLAYERINFO@CFriendMgr@@U_tstring_less@@V?$allocator@U?$pair@$$CBV?$basic_string@DU?$char_traits@D@std@@V?$allocator@D@2@@std@@UPLAYERINFO@CFriendMgr@@@std@@@2@$0A@@std@@@std@@V?$allocator@Viterator@?$_Tree@V?$_Tmap_traits@V?$basic_string@DU?$char_traits@D@std@@V?$allocator@D@2@@std@@UPLAYERINFO@CFriendMgr@@U_tstring_less@@V?$allocator@U?$pair@$$CBV?$basic_string@DU?$char_traits@D@std@@V?$allocator@D@2@@std@@UPLAYERINFO@CFriendMgr@@@std@@@2@$0A@@std@@@std@@@3@@std@@IAEPAViterator@?$_Tree@V?$_Tmap_traits@V?$basic_string@DU?$char_traits@D@std@@V?$allocator@D@2@@std@@UPLAYERINFO@CFriendMgr@@U_tstring_less@@V?$allocator@U?$pair@$$CBV?$basic_string@DU?$char_traits@D@std@@V?$allocator@D@2@@std@@UPLAYERINFO@CFriendMgr@@@std@@@2@$0A@@std@@@2@PAV342@IABV342@@Z 00416830 f i FriendMgr.obj
 0001:00015870       ?_Destroy@?$vector@Viterator@?$_Tree@V?$_Tmap_traits@V?$basic_string@DU?$char_traits@D@std@@V?$allocator@D@2@@std@@UPLAYERINFO@CFriendMgr@@U_tstring_less@@V?$allocator@U?$pair@$$CBV?$basic_string@DU?$char_traits@D@std@@V?$allocator@D@2@@std@@UPLAYERINFO@CFriendMgr@@@std@@@2@$0A@@std@@@std@@V?$allocator@Viterator@?$_Tree@V?$_Tmap_traits@V?$basic_string@DU?$char_traits@D@std@@V?$allocator@D@2@@std@@UPLAYERINFO@CFriendMgr@@U_tstring_less@@V?$allocator@U?$pair@$$CBV?$basic_string@DU?$char_traits@D@std@@V?$allocator@D@2@@std@@UPLAYERINFO@CFriendMgr@@@std@@@2@$0A@@std@@@std@@@3@@std@@IAEXPAViterator@?$_Tree@V?$_Tmap_traits@V?$basic_string@DU?$char_traits@D@std@@V?$allocator@D@2@@std@@UPLAYERINFO@CFriendMgr@@U_tstring_less@@V?$allocator@U?$pair@$$CBV?$basic_string@DU?$char_traits@D@std@@V?$allocator@D@2@@std@@UPLAYERINFO@CFriendMgr@@@std@@@2@$0A@@std@@@2@0@Z 00416870 f i FriendMgr.obj
 0001:00015880       ??_G_Node@?$_List_nod@V?$basic_string@DU?$char_traits@D@std@@V?$allocator@D@2@@std@@V?$allocator@V?$basic_string@DU?$char_traits@D@std@@V?$allocator@D@2@@std@@@2@@std@@QAEPAXI@Z 00416880 f i FriendMgr.obj
 0001:000158c0       ??1_Node@?$_Tree_nod@V?$_Tmap_traits@V?$basic_string@DU?$char_traits@D@std@@V?$allocator@D@2@@std@@UFRIENDINFO@CFriendMgr@@U_tstring_less@@V?$allocator@U?$pair@$$CBV?$basic_string@DU?$char_traits@D@std@@V?$allocator@D@2@@std@@UFRIENDINFO@CFriendMgr@@@std@@@2@$0A@@std@@@std@@QAE@XZ 004168c0 f i FriendMgr.obj
 0001:00015910       ??1_Node@?$_Tree_nod@V?$_Tmap_traits@UADDFRIENDKEY@CFriendMgr@@UADDFRIENDVALUE@2@U?$less@UADDFRIENDKEY@CFriendMgr@@@std@@V?$allocator@U?$pair@$$CBUADDFRIENDKEY@CFriendMgr@@UADDFRIENDVALUE@2@@std@@@5@$0A@@std@@@std@@QAE@XZ 00416910 f i FriendMgr.obj
 0001:00015960       ??1_Node@?$_List_nod@UMEM_FRIENDRECORD@CFriendMgr@@V?$allocator@UMEM_FRIENDRECORD@CFriendMgr@@@std@@@std@@QAE@XZ 00416960 f i FriendMgr.obj
 0001:000159b0       ??1_Node@?$_List_nod@U?$pair@EV?$basic_string@DU?$char_traits@D@std@@V?$allocator@D@2@@std@@@std@@V?$allocator@U?$pair@EV?$basic_string@DU?$char_traits@D@std@@V?$allocator@D@2@@std@@@std@@@2@@std@@QAE@XZ 004169b0 f i FriendMgr.obj
 0001:000159e0       ??$_Unchecked_uninitialized_move@PAViterator@?$_Tree@V?$_Tmap_traits@V?$basic_string@DU?$char_traits@D@std@@V?$allocator@D@2@@std@@UPLAYERINFO@CFriendMgr@@U_tstring_less@@V?$allocator@U?$pair@$$CBV?$basic_string@DU?$char_traits@D@std@@V?$allocator@D@2@@std@@UPLAYERINFO@CFriendMgr@@@std@@@2@$0A@@std@@@std@@PAV123@V?$allocator@Viterator@?$_Tree@V?$_Tmap_traits@V?$basic_string@DU?$char_traits@D@std@@V?$allocator@D@2@@std@@UPLAYERINFO@CFriendMgr@@U_tstring_less@@V?$allocator@U?$pair@$$CBV?$basic_string@DU?$char_traits@D@std@@V?$allocator@D@2@@std@@UPLAYERINFO@CFriendMgr@@@std@@@2@$0A@@std@@@std@@@3@@stdext@@YAPAViterator@?$_Tree@V?$_Tmap_traits@V?$basic_string@DU?$char_traits@D@std@@V?$allocator@D@2@@std@@UPLAYERINFO@CFriendMgr@@U_tstring_less@@V?$allocator@U?$pair@$$CBV?$basic_string@DU?$char_traits@D@std@@V?$allocator@D@2@@std@@UPLAYERINFO@CFriendMgr@@@std@@@2@$0A@@std@@@std@@PAV123@00AAV?$allocator@Viterator@?$_Tree@V?$_Tmap_traits@V?$basic_string@DU?$char_traits@D@std@@V?$allocator@D@2@@std@@UPLAYERINFO@CFriendMgr@@U_tstring_less@@V?$allocator@U?$pair@$$CBV?$basic_string@DU?$char_traits@D@std@@V?$allocator@D@2@@std@@UPLAYERINFO@CFriendMgr@@@std@@@2@$0A@@std@@@std@@@3@@Z 004169e0 f i FriendMgr.obj
 0001:00015a10       ?PlayerIsFriend@CFriendMgr@@QAEHABV?$basic_string@DU?$char_traits@D@std@@V?$allocator@D@2@@std@@0H@Z 00416a10 f   FriendMgr.obj
 0001:00015b40       ?find@?$_Tree@V?$_Tmap_traits@UADDFRIENDKEY@CFriendMgr@@UADDFRIENDVALUE@2@U?$less@UADDFRIENDKEY@CFriendMgr@@@std@@V?$allocator@U?$pair@$$CBUADDFRIENDKEY@CFriendMgr@@UADDFRIENDVALUE@2@@std@@@5@$0A@@std@@@std@@QAE?AViterator@12@ABUADDFRIENDKEY@CFriendMgr@@@Z 00416b40 f i FriendMgr.obj
 0001:00015bc0       ??1?$pair@$$CBKV?$list@UtagPlusSrcInfo@@V?$allocator@UtagPlusSrcInfo@@@std@@@std@@@std@@QAE@XZ 00416bc0 f i FriendMgr.obj
 0001:00015bd0       ?_Tidy@?$vector@Viterator@?$_Tree@V?$_Tmap_traits@V?$basic_string@DU?$char_traits@D@std@@V?$allocator@D@2@@std@@UPLAYERINFO@CFriendMgr@@U_tstring_less@@V?$allocator@U?$pair@$$CBV?$basic_string@DU?$char_traits@D@std@@V?$allocator@D@2@@std@@UPLAYERINFO@CFriendMgr@@@std@@@2@$0A@@std@@@std@@V?$allocator@Viterator@?$_Tree@V?$_Tmap_traits@V?$basic_string@DU?$char_traits@D@std@@V?$allocator@D@2@@std@@UPLAYERINFO@CFriendMgr@@U_tstring_less@@V?$allocator@U?$pair@$$CBV?$basic_string@DU?$char_traits@D@std@@V?$allocator@D@2@@std@@UPLAYERINFO@CFriendMgr@@@std@@@2@$0A@@std@@@std@@@3@@std@@IAEXXZ 00416bd0 f i FriendMgr.obj
 0001:00015c00       ??0ADDFRIENDKEY@CFriendMgr@@QAE@ABU01@@Z 00416c00 f i FriendMgr.obj
 0001:00015c30       ??0ADDFRIENDVALUE@CFriendMgr@@QAE@ABU01@@Z 00416c30 f i FriendMgr.obj
 0001:00015c60       ??0?$pair@$$CBUADDFRIENDKEY@CFriendMgr@@UADDFRIENDVALUE@2@@std@@QAE@ABU01@@Z 00416c60 f i FriendMgr.obj
 0001:00015d00       ??$_Umove@PAViterator@?$_Tree@V?$_Tmap_traits@V?$basic_string@DU?$char_traits@D@std@@V?$allocator@D@2@@std@@UPLAYERINFO@CFriendMgr@@U_tstring_less@@V?$allocator@U?$pair@$$CBV?$basic_string@DU?$char_traits@D@std@@V?$allocator@D@2@@std@@UPLAYERINFO@CFriendMgr@@@std@@@2@$0A@@std@@@std@@@?$vector@Viterator@?$_Tree@V?$_Tmap_traits@V?$basic_string@DU?$char_traits@D@std@@V?$allocator@D@2@@std@@UPLAYERINFO@CFriendMgr@@U_tstring_less@@V?$allocator@U?$pair@$$CBV?$basic_string@DU?$char_traits@D@std@@V?$allocator@D@2@@std@@UPLAYERINFO@CFriendMgr@@@std@@@2@$0A@@std@@@std@@V?$allocator@Viterator@?$_Tree@V?$_Tmap_traits@V?$basic_string@DU?$char_traits@D@std@@V?$allocator@D@2@@std@@UPLAYERINFO@CFriendMgr@@U_tstring_less@@V?$allocator@U?$pair@$$CBV?$basic_string@DU?$char_traits@D@std@@V?$allocator@D@2@@std@@UPLAYERINFO@CFriendMgr@@@std@@@2@$0A@@std@@@std@@@3@@std@@IAEPAViterator@?$_Tree@V?$_Tmap_traits@V?$basic_string@DU?$char_traits@D@std@@V?$allocator@D@2@@std@@UPLAYERINFO@CFriendMgr@@U_tstring_less@@V?$allocator@U?$pair@$$CBV?$basic_string@DU?$char_traits@D@std@@V?$allocator@D@2@@std@@UPLAYERINFO@CFriendMgr@@@std@@@2@$0A@@std@@@1@PAV231@00@Z 00416d00 f i FriendMgr.obj
 0001:00015d30       ??$_Construct@V?$basic_string@DU?$char_traits@D@std@@V?$allocator@D@2@@std@@V12@@std@@YAXPAV?$basic_string@DU?$char_traits@D@std@@V?$allocator@D@2@@0@ABV10@@Z 00416d30 f i FriendMgr.obj
 0001:00015da0       ??$_Destroy@U_Node@?$_List_nod@V?$basic_string@DU?$char_traits@D@std@@V?$allocator@D@2@@std@@V?$allocator@V?$basic_string@DU?$char_traits@D@std@@V?$allocator@D@2@@std@@@2@@std@@@std@@YAXPAU_Node@?$_List_nod@V?$basic_string@DU?$char_traits@D@std@@V?$allocator@D@2@@std@@V?$allocator@V?$basic_string@DU?$char_traits@D@std@@V?$allocator@D@2@@std@@@2@@0@@Z 00416da0 f i FriendMgr.obj
 0001:00015dd0       ??_G_Node@?$_Tree_nod@V?$_Tmap_traits@V?$basic_string@DU?$char_traits@D@std@@V?$allocator@D@2@@std@@UFRIENDINFO@CFriendMgr@@U_tstring_less@@V?$allocator@U?$pair@$$CBV?$basic_string@DU?$char_traits@D@std@@V?$allocator@D@2@@std@@UFRIENDINFO@CFriendMgr@@@std@@@2@$0A@@std@@@std@@QAEPAXI@Z 00416dd0 f i FriendMgr.obj
 0001:00015e30       ??_G_Node@?$_Tree_nod@V?$_Tmap_traits@UADDFRIENDKEY@CFriendMgr@@UADDFRIENDVALUE@2@U?$less@UADDFRIENDKEY@CFriendMgr@@@std@@V?$allocator@U?$pair@$$CBUADDFRIENDKEY@CFriendMgr@@UADDFRIENDVALUE@2@@std@@@5@$0A@@std@@@std@@QAEPAXI@Z 00416e30 f i FriendMgr.obj
 0001:00015e90       ??0MEM_FRIENDRECORD@CFriendMgr@@QAE@ABU01@@Z 00416e90 f i FriendMgr.obj
 0001:00015f20       ??_G_Node@?$_List_nod@UMEM_FRIENDRECORD@CFriendMgr@@V?$allocator@UMEM_FRIENDRECORD@CFriendMgr@@@std@@@std@@QAEPAXI@Z 00416f20 f i FriendMgr.obj
 0001:00015f80       ??_G_Node@?$_List_nod@U?$pair@EV?$basic_string@DU?$char_traits@D@std@@V?$allocator@D@2@@std@@@std@@V?$allocator@U?$pair@EV?$basic_string@DU?$char_traits@D@std@@V?$allocator@D@2@@std@@@std@@@2@@std@@QAEPAXI@Z 00416f80 f i FriendMgr.obj
 0001:00015fc0       ??1_Node@?$_Tree_nod@V?$_Tmap_traits@KV?$list@UtagPlusSrcInfo@@V?$allocator@UtagPlusSrcInfo@@@std@@@std@@U?$less@K@2@V?$allocator@U?$pair@$$CBKV?$list@UtagPlusSrcInfo@@V?$allocator@UtagPlusSrcInfo@@@std@@@std@@@std@@@2@$0A@@std@@@std@@QAE@XZ 00416fc0 f i FriendMgr.obj
 0001:00015fd0       ??0ADDFRIENDKEY@CFriendMgr@@QAE@EABV?$basic_string@DU?$char_traits@D@std@@V?$allocator@D@2@@std@@@Z 00416fd0 f i FriendMgr.obj
 0001:00016000       ?SomeoneLogout@CFriendMgr@@QAEHABV?$basic_string@DU?$char_traits@D@std@@V?$allocator@D@2@@std@@@Z 00417000 f   FriendMgr.obj
 0001:000162c0       ??0?$pair@EV?$basic_string@DU?$char_traits@D@std@@V?$allocator@D@2@@std@@@std@@QAE@ABU01@@Z 004172c0 f i FriendMgr.obj
 0001:000162f0       ?NameToDBKey@CFriendMgr@@AAE?AV?$basic_string@DU?$char_traits@D@std@@V?$allocator@D@2@@std@@ABV23@@Z 004172f0 f   FriendMgr.obj
 0001:00016320       ?DB_DeleteSomeone@CFriendMgr@@AAEHABV?$basic_string@DU?$char_traits@D@std@@V?$allocator@D@2@@std@@@Z 00417320 f   FriendMgr.obj
 0001:000163f0       ?DB_StoreSomeone@CFriendMgr@@AAEHABV?$basic_string@DU?$char_traits@D@std@@V?$allocator@D@2@@std@@ABV?$list@UMEM_FRIENDRECORD@CFriendMgr@@V?$allocator@UMEM_FRIENDRECORD@CFriendMgr@@@std@@@3@@Z 004173f0 f   FriendMgr.obj
 0001:00016580       ??0?$pair@EV?$basic_string@DU?$char_traits@D@std@@V?$allocator@D@2@@std@@@std@@QAE@ABEABV?$basic_string@DU?$char_traits@D@std@@V?$allocator@D@2@@1@@Z 00417580 f i FriendMgr.obj
 0001:000165b0       ??1?$vector@Viterator@?$_Tree@V?$_Tmap_traits@V?$basic_string@DU?$char_traits@D@std@@V?$allocator@D@2@@std@@UPLAYERINFO@CFriendMgr@@U_tstring_less@@V?$allocator@U?$pair@$$CBV?$basic_string@DU?$char_traits@D@std@@V?$allocator@D@2@@std@@UPLAYERINFO@CFriendMgr@@@std@@@2@$0A@@std@@@std@@V?$allocator@Viterator@?$_Tree@V?$_Tmap_traits@V?$basic_string@DU?$char_traits@D@std@@V?$allocator@D@2@@std@@UPLAYERINFO@CFriendMgr@@U_tstring_less@@V?$allocator@U?$pair@$$CBV?$basic_string@DU?$char_traits@D@std@@V?$allocator@D@2@@std@@UPLAYERINFO@CFriendMgr@@@std@@@2@$0A@@std@@@std@@@3@@std@@QAE@XZ 004175b0 f i FriendMgr.obj
 0001:000165e0       ??0FRIENDINFO@CFriendMgr@@QAE@ABU01@@Z 004175e0 f i FriendMgr.obj
 0001:00016620       ??0?$pair@$$CBUADDFRIENDKEY@CFriendMgr@@UADDFRIENDVALUE@2@@std@@QAE@ABUADDFRIENDKEY@CFriendMgr@@ABUADDFRIENDVALUE@3@@Z 00417620 f i FriendMgr.obj
 0001:000166b0       ?_Incsize@?$list@UMEM_FRIENDRECORD@CFriendMgr@@V?$allocator@UMEM_FRIENDRECORD@CFriendMgr@@@std@@@std@@IAEXI@Z 004176b0 f i FriendMgr.obj
 0001:00016750       ?_Incsize@?$list@U?$pair@EV?$basic_string@DU?$char_traits@D@std@@V?$allocator@D@2@@std@@@std@@V?$allocator@U?$pair@EV?$basic_string@DU?$char_traits@D@std@@V?$allocator@D@2@@std@@@std@@@2@@std@@IAEXI@Z 00417750 f i FriendMgr.obj
 0001:000167f0       ?_Incsize@?$list@UONEPLAYER@CFriendMgr@@V?$allocator@UONEPLAYER@CFriendMgr@@@std@@@std@@IAEXI@Z 004177f0 f i FriendMgr.obj
 0001:00016890       ?_Incsize@?$list@V?$basic_string@DU?$char_traits@D@std@@V?$allocator@D@2@@std@@V?$allocator@V?$basic_string@DU?$char_traits@D@std@@V?$allocator@D@2@@std@@@2@@std@@IAEXI@Z 00417890 f i FriendMgr.obj
