 Heaven

 Timestamp is 507eb51b (Wed Oct 17 20:39:39 2012)

 Preferred load address is 10000000

 Start         Length     Name                   Class
 0001:00000000 0003a6c4H .text                   CODE
 0001:0003a6d0 000027a5H .text$x                 CODE
 0001:0003ce80 000000b1H .text$yc                CODE
 0001:0003cf40 0000018cH .text$yd                CODE
 0002:00000000 00000228H .idata$5                DATA
 0002:00000228 00000004H .CRT$XCA                DATA
 0002:0000022c 0000000cH .CRT$XCC                DATA
 0002:00000238 00000014H .CRT$XCU                DATA
 0002:0000024c 00000004H .CRT$XCZ                DATA
 0002:00000250 00000004H .CRT$XIA                DATA
 0002:00000254 00000014H .CRT$XIC                DATA
 0002:00000268 00000004H .CRT$XID                DATA
 0002:0000026c 00000004H .CRT$XIZ                DATA
 0002:00000270 00000004H .CRT$XPA                DATA
 0002:00000274 00000004H .CRT$XPX                DATA
 0002:00000278 00000004H .CRT$XPXA               DATA
 0002:0000027c 00000004H .CRT$XPZ                DATA
 0002:00000280 00000004H .CRT$XTA                DATA
 0002:00000284 00000004H .CRT$XTZ                DATA
 0002:00000290 00003d70H .rdata                  DATA
 0002:00004000 00000060H .rdata$debug            DATA
 0002:00004060 00001160H .rdata$r                DATA
 0002:000051c0 000002b4H .rdata$sxdata           DATA
 0002:00005474 00000004H .rtc$IAA                DATA
 0002:00005478 00000004H .rtc$IZZ                DATA
 0002:0000547c 00000004H .rtc$TAA                DATA
 0002:00005480 00000004H .rtc$TZZ                DATA
 0002:00005488 00003768H .xdata$x                DATA
 0002:00008bf0 00000004H ATL$__a                 DATA
 0002:00008bf4 00000004H ATL$__z                 DATA
 0002:00008bf8 00000064H .idata$2                DATA
 0002:00008c5c 00000014H .idata$3                DATA
 0002:00008c70 00000228H .idata$4                DATA
 0002:00008e98 000008a8H .idata$6                DATA
 0002:00009740 0000004dH .edata                  DATA
 0003:00000000 00001cb8H .data                   DATA
 0003:00001cc0 0000204cH .bss                    DATA

  Address         Publics by Value              Rva+Base       Lib:Object

 0000:00000000       __except_list              00000000     <absolute>
 0000:000000ad       ___safe_se_handler_count   000000ad     <absolute>
 0000:00000000       ___ImageBase               10000000     <linker-defined>
 0001:00000000       _DllMain@12                10001000 f   Heaven.obj
 0001:00000010       _IsEqualGUID               10001010 f i ServerStage.obj
 0001:000000b0       _==                        100010b0 f i ServerStage.obj
 0001:000000c0       ??0bad_alloc@std@@QAE@PBD@Z 100010c0 f i ServerStage.obj
 0001:000000e0       ??1bad_alloc@std@@UAE@XZ   100010e0 f i ServerStage.obj
 0001:000000f0       ??_Gbad_alloc@std@@UAEPAXI@Z 100010f0 f i ServerStage.obj
 0001:000000f0       ??_Ebad_alloc@std@@UAEPAXI@Z 100010f0 f i ServerStage.obj
 0001:00000120       ??2@YAPAXIPAX@Z            10001120 f i ServerStage.obj
 0001:00000130       ??3@YAXPAX0@Z              10001130 f i ServerStage.obj
 0001:00000140       ?assign@?$char_traits@D@std@@SAXAADABD@Z 10001140 f i ServerStage.obj
 0001:00000150       ?length@?$char_traits@D@std@@SAIPBD@Z 10001150 f i ServerStage.obj
 0001:00000170       ?_Copy_s@?$char_traits@D@std@@SAPADPADIPBDI@Z 10001170 f i ServerStage.obj
 0001:000001a0       ?_Move_s@?$char_traits@D@std@@SAPADPADIPBDI@Z 100011a0 f i ServerStage.obj
 0001:000001d0       ?to_int_type@?$char_traits@D@std@@SAHABD@Z 100011d0 f i ServerStage.obj
 0001:000001e0       ?eq_int_type@?$char_traits@D@std@@SA_NABH0@Z 100011e0 f i ServerStage.obj
 0001:00000200       ?eof@?$char_traits@D@std@@SAHXZ 10001200 f i ServerStage.obj
 0001:00000210       ??0_Iterator_base@std@@QAE@XZ 10001210 f i ServerStage.obj
 0001:00000220       ?_Getctype@_Locinfo@std@@QBE?AU_Ctypevec@@XZ 10001220 f i ServerStage.obj
 0001:00000250       ?_Getcvt@_Locinfo@std@@QBE?AU_Cvtvec@@XZ 10001250 f i ServerStage.obj
 0001:00000270       ??0id@locale@std@@QAE@I@Z  10001270 f i ServerStage.obj
 0001:00000280       ??Bid@locale@std@@QAEIXZ   10001280 f i ServerStage.obj
 0001:000002c0       ?_Incref@facet@locale@std@@QAEXXZ 100012c0 f i ServerStage.obj
 0001:000002f0       ?_Decref@facet@locale@std@@QAEPAV123@XZ 100012f0 f i ServerStage.obj
 0001:00000330       ?_Register@facet@locale@std@@QAEXXZ 10001330 f i ServerStage.obj
 0001:00000340       ??1facet@locale@std@@UAE@XZ 10001340 f i ServerStage.obj
 0001:00000350       ??0facet@locale@std@@IAE@I@Z 10001350 f i ServerStage.obj
 0001:00000370       ??0locale@std@@QAE@XZ      10001370 f i ServerStage.obj
 0001:000003b0       ??0locale@std@@QAE@ABV01@@Z 100013b0 f i ServerStage.obj
 0001:000003f0       ??1locale@std@@QAE@XZ      100013f0 f i ServerStage.obj
 0001:00000440       ?_Getfacet@locale@std@@QBEPBVfacet@12@I@Z 10001440 f i ServerStage.obj
 0001:00000480       ??_Gfacet@locale@std@@UAEPAXI@Z 10001480 f i ServerStage.obj
 0001:00000480       ??_Efacet@locale@std@@UAEPAXI@Z 10001480 f i ServerStage.obj
 0001:000004a0       ??0ctype_base@std@@QAE@I@Z 100014a0 f i ServerStage.obj
 0001:000004c0       ??1ctype_base@std@@UAE@XZ  100014c0 f i ServerStage.obj
 0001:000004d0       ??_Gctype_base@std@@UAEPAXI@Z 100014d0 f i ServerStage.obj
 0001:000004d0       ??_Ectype_base@std@@UAEPAXI@Z 100014d0 f i ServerStage.obj
 0001:000004f0       ?widen@?$ctype@D@std@@QBEDD@Z 100014f0 f i ServerStage.obj
 0001:00000500       ?_Init@?$ctype@D@std@@IAEXABV_Locinfo@2@@Z 10001500 f i ServerStage.obj
 0001:00000540       ?_Tidy@?$ctype@D@std@@IAEXXZ 10001540 f i ServerStage.obj
 0001:00000570       ?rdstate@ios_base@std@@QBEHXZ 10001570 f i ServerStage.obj
 0001:00000580       ?good@ios_base@std@@QBE_NXZ 10001580 f i ServerStage.obj
 0001:00000590       ?fail@ios_base@std@@QBE_NXZ 10001590 f i ServerStage.obj
 0001:000005a0       ?flags@ios_base@std@@QBEHXZ 100015a0 f i ServerStage.obj
 0001:000005b0       ?getloc@ios_base@std@@QBE?AVlocale@2@XZ 100015b0 f i ServerStage.obj
 0001:000005f0       ??1ios_base@std@@UAE@XZ    100015f0 f i ServerStage.obj
 0001:00000600       ??0ios_base@std@@IAE@XZ    10001600 f i ServerStage.obj
 0001:00000610       ??_Gios_base@std@@UAEPAXI@Z 10001610 f i ServerStage.obj
 0001:00000610       ??_Eios_base@std@@UAEPAXI@Z 10001610 f i ServerStage.obj
 0001:00000640       ??0Thank_you@Define_the_symbol__ATL_MIXED@@QAE@XZ 10001640 f i ServerStage.obj
 0001:00000650       ?one@Thank_you@Define_the_symbol__ATL_MIXED@@UAEXXZ 10001650 f i ServerStage.obj
 0001:00000660       ?_AtlGetConversionACP@ATL@@YGIXZ 10001660 f i ServerStage.obj
 0001:00000670       ??0IUnknown@@QAE@XZ        10001670 f i ServerStage.obj
 0001:00000680       ?Enter@CCriticalSection@Win32@OnlineGameLib@@QAEXXZ 10001680 f i ServerStage.obj
 0001:00000690       ?Leave@CCriticalSection@Win32@OnlineGameLib@@QAEXXZ 10001690 f i ServerStage.obj
 0001:000006a0       ??0CCriticalSection@Win32@OnlineGameLib@@QAE@XZ 100016a0 f i ServerStage.obj
 0001:000006b0       ??1CCriticalSection@Win32@OnlineGameLib@@QAE@XZ 100016b0 f i ServerStage.obj
 0001:000006c0       ??0Owner@CCriticalSection@Win32@OnlineGameLib@@QAE@AAV123@@Z 100016c0 f i ServerStage.obj
 0001:000006e0       ??1Owner@CCriticalSection@Win32@OnlineGameLib@@QAE@XZ 100016e0 f i ServerStage.obj
 0001:000006f0       ?GetUserPtr@COpaqueUserData@OnlineGameLib@@QBEPAXXZ 100016f0 f i ServerStage.obj
 0001:00000700       ?SetUserPtr@COpaqueUserData@OnlineGameLib@@QAEXPAX@Z 10001700 f i ServerStage.obj
 0001:00000710       ?SetUserData@COpaqueUserData@OnlineGameLib@@QAEXK@Z 10001710 f i ServerStage.obj
 0001:00000720       ?_trace@@YAXPBDZZ          10001720 f i ServerStage.obj
 0001:00000730       ?GetUsed@CIOBuffer@Win32@OnlineGameLib@@QBEIXZ 10001730 f i ServerStage.obj
 0001:00000740       ?GetSize@CIOBuffer@Win32@OnlineGameLib@@QBEIXZ 10001740 f i ServerStage.obj
 0001:00000750       ?GetBuffer@CIOBuffer@Win32@OnlineGameLib@@QBEPBEXZ 10001750 f i ServerStage.obj
 0001:00000760       ?SetMessageCallback@Socket@CSocketServer@Win32@OnlineGameLib@@QAEXPAUIMessageProcess@@@Z 10001760 f i ServerStage.obj
 0001:00000770       ?GetMessageCallback@Socket@CSocketServer@Win32@OnlineGameLib@@QBEPAUIMessageProcess@@XZ 10001770 f i ServerStage.obj
 0001:00000790       ?KSG_DecodeBuf@@YAHIPAEPAI@Z 10001790 f i ServerStage.obj
 0001:000007c0       ?KSG_EncodeBuf@@YAHIPAEPAI@Z 100017c0 f i ServerStage.obj
 0001:000007f0       ?SetConnectionFirstParam@CPerConnectionData@@QAEXI@Z 100017f0 f i ServerStage.obj
 0001:00000800       ?GetConnectionFirstParam@CPerConnectionData@@QBEIXZ 10001800 f i ServerStage.obj
 0001:00000810       ?GetConnectionSecondParam@CPerConnectionData@@QBEJXZ 10001810 f i ServerStage.obj
 0001:00000870       ??0IServer@@QAE@XZ         10001870 f i ServerStage.obj
 0001:00000880       ??0tagClientNode@CIOCPServer@@QAE@XZ 10001880 f i ServerStage.obj
 0001:000008a0       ??1tagClientNode@CIOCPServer@@QAE@XZ 100018a0 f i ServerStage.obj
 0001:000008c0       ?RegisterMsgFilter@CIOCPServer@@UAGJPAXP6GX0ABK1@Z@Z 100018c0 f   ServerStage.obj
 0001:000008e0       ?PreparePackSink@CIOCPServer@@UAGJXZ 100018e0 f   ServerStage.obj
 0001:000008f0       ?QueryInterface@CIOCPServer@@UAGJABU_GUID@@PAPAX@Z 100018f0 f   ServerStage.obj
 0001:00000950       ?AddRef@CIOCPServer@@UAGKXZ 10001950 f   ServerStage.obj
 0001:00000970       ?Release@CIOCPServer@@UAGKXZ 10001970 f   ServerStage.obj
 0001:000009b0       ?OnConnectionClosing@CIOCPServer@@MAE_NPAVSocket@CSocketServer@Win32@OnlineGameLib@@@Z 100019b0 f   ServerStage.obj
 0001:000009d0       ?GetMinimumMessageSize@CIOCPServer@@IAEIXZ 100019d0 f   ServerStage.obj
 0001:000009e0       ?GetMessageSize@CIOCPServer@@IAEIPBVCIOBuffer@Win32@OnlineGameLib@@@Z 100019e0 f   ServerStage.obj
 0001:000009f0       ??0IServerFactory@@QAE@XZ  100019f0 f i ServerStage.obj
 0001:00000a00       ??1CServerFactory@@UAE@XZ  10001a00 f   ServerStage.obj
 0001:00000a10       ?SetEnvironment@CServerFactory@@UAGJABI000@Z 10001a10 f   ServerStage.obj
 0001:00000a40       ?QueryInterface@CServerFactory@@UAGJABU_GUID@@PAPAX@Z 10001a40 f   ServerStage.obj
 0001:00000aa0       ?AddRef@CServerFactory@@UAGKXZ 10001aa0 f   ServerStage.obj
 0001:00000ac0       ?Release@CServerFactory@@UAGKXZ 10001ac0 f   ServerStage.obj
 0001:00000b00       ?size@?$basic_string@DU?$char_traits@D@std@@V?$allocator@D@2@@std@@QBEIXZ 10001b00 f i ServerStage.obj
 0001:00000b10       ??1?$basic_ostream@DU?$char_traits@D@std@@@std@@UAE@XZ 10001b10 f i ServerStage.obj
 0001:00000b20       ??1?$basic_ios@DU?$char_traits@D@std@@@std@@UAE@XZ 10001b20 f i ServerStage.obj
 0001:00000b30       ?rdbuf@?$basic_ios@DU?$char_traits@D@std@@@std@@QBEPAV?$basic_streambuf@DU?$char_traits@D@std@@@2@XZ 10001b30 f i ServerStage.obj
 0001:00000b40       ??0?$basic_ios@DU?$char_traits@D@std@@@std@@IAE@XZ 10001b40 f i ServerStage.obj
 0001:00000b50       ??1?$basic_istream@DU?$char_traits@D@std@@@std@@UAE@XZ 10001b50 f i ServerStage.obj
 0001:00000b60       ?eback@?$basic_streambuf@DU?$char_traits@D@std@@@std@@IBEPADXZ 10001b60 f i ServerStage.obj
 0001:00000b70       ?gptr@?$basic_streambuf@DU?$char_traits@D@std@@@std@@IBEPADXZ 10001b70 f i ServerStage.obj
 0001:00000b80       ?pbase@?$basic_streambuf@DU?$char_traits@D@std@@@std@@IBEPADXZ 10001b80 f i ServerStage.obj
 0001:00000b90       ?pptr@?$basic_streambuf@DU?$char_traits@D@std@@@std@@IBEPADXZ 10001b90 f i ServerStage.obj
 0001:00000ba0       ?setg@?$basic_streambuf@DU?$char_traits@D@std@@@std@@IAEXPAD00@Z 10001ba0 f i ServerStage.obj
 0001:00000bc0       ?epptr@?$basic_streambuf@DU?$char_traits@D@std@@@std@@IBEPADXZ 10001bc0 f i ServerStage.obj
 0001:00000bd0       ?setp@?$basic_streambuf@DU?$char_traits@D@std@@@std@@IAEXPAD0@Z 10001bd0 f i ServerStage.obj
 0001:00000bf0       ?setp@?$basic_streambuf@DU?$char_traits@D@std@@@std@@IAEXPAD00@Z 10001bf0 f i ServerStage.obj
 0001:00000c10       ?_Pninc@?$basic_streambuf@DU?$char_traits@D@std@@@std@@IAEPADXZ 10001c10 f i ServerStage.obj
 0001:00000c30       ?_Init@?$basic_streambuf@DU?$char_traits@D@std@@@std@@IAEXXZ 10001c30 f i ServerStage.obj
 0001:00000c90       ??1?$basic_iostream@DU?$char_traits@D@std@@@std@@UAE@XZ 10001c90 f i ServerStage.obj
 0001:00000cd0       ?size@?$list@IV?$allocator@I@std@@@std@@QBEIXZ 10001cd0 f i ServerStage.obj
 0001:00000ce0       ??_E?$basic_ios@DU?$char_traits@D@std@@@std@@UAEPAXI@Z 10001ce0 f i ServerStage.obj
 0001:00000ce0       ??_G?$basic_ios@DU?$char_traits@D@std@@@std@@UAEPAXI@Z 10001ce0 f i ServerStage.obj
 0001:00000d10       ??_Glocale@std@@QAEPAXI@Z  10001d10 f i ServerStage.obj
 0001:00000d80       ??_D?$basic_ostream@DU?$char_traits@D@std@@@std@@QAEXXZ 10001d80 f i ServerStage.obj
 0001:00000da0       ??_D?$basic_istream@DU?$char_traits@D@std@@@std@@QAEXXZ 10001da0 f i ServerStage.obj
 0001:00000dc0       ??_D?$basic_iostream@DU?$char_traits@D@std@@@std@@QAEXXZ 10001dc0 f i ServerStage.obj
 0001:00000e10       ?_Myptr@?$basic_string@DU?$char_traits@D@std@@V?$allocator@D@2@@std@@IBEPBDXZ 10001e10 f i ServerStage.obj
 0001:00000e20       ??0?$allocator@D@std@@QAE@XZ 10001e20 f i ServerStage.obj
 0001:00000e30       ??0?$basic_ostream@DU?$char_traits@D@std@@@std@@QAE@W4_Uninitialized@1@_N@Z 10001e30 f i ServerStage.obj
 0001:00000ec0       ?pubsync@?$basic_streambuf@DU?$char_traits@D@std@@@std@@QAEHXZ 10001ec0 f i ServerStage.obj
 0001:00000ed0       ?_Unlock@?$basic_streambuf@DU?$char_traits@D@std@@@std@@QAEXXZ 10001ed0 f i ServerStage.obj
 0001:00000ee0       ?_Pnavail@?$basic_streambuf@DU?$char_traits@D@std@@@std@@IBEHXZ 10001ee0 f i ServerStage.obj
 0001:00000f00       ??R?$less@I@std@@QBE_NABI0@Z 10001f00 f i ServerStage.obj
 0001:00000f20       ??0?$allocator@I@std@@QAE@XZ 10001f20 f i ServerStage.obj
 0001:00000f30       ??0?$allocator@U?$pair@$$CBIPAUtagClientNode@CIOCPServer@@@std@@@std@@QAE@XZ 10001f30 f i ServerStage.obj
 0001:00000f40       ?empty@?$deque@IV?$allocator@I@std@@@std@@QBE_NXZ 10001f40 f i ServerStage.obj
 0001:00000f50       ?_Nextnode@?$list@IV?$allocator@I@std@@@std@@KAAAPAU_Node@?$_List_nod@IV?$allocator@I@std@@@2@PAU342@@Z 10001f50 f i ServerStage.obj
 0001:00000f60       ?empty@?$deque@PAXV?$allocator@PAX@std@@@std@@QBE_NXZ 10001f60 f i ServerStage.obj
 0001:00000f70       ??8?$_Const_iterator@$00@?$list@IV?$allocator@I@std@@@std@@QBE_NABV012@@Z 10001f70 f i ServerStage.obj
 0001:00000fa0       ??8const_iterator@?$_Tree@V?$_Tmap_traits@IPAUtagClientNode@CIOCPServer@@U?$less@I@std@@V?$allocator@U?$pair@$$CBIPAUtagClientNode@CIOCPServer@@@std@@@4@$0A@@std@@@std@@QBE_NABV012@@Z 10001fa0 f i ServerStage.obj
 0001:00000fd0       ?_Mynode@const_iterator@?$_Tree@V?$_Tmap_traits@IPAUtagClientNode@CIOCPServer@@U?$less@I@std@@V?$allocator@U?$pair@$$CBIPAUtagClientNode@CIOCPServer@@@std@@@4@$0A@@std@@@std@@QBEPAU_Node@?$_Tree_nod@V?$_Tmap_traits@IPAUtagClientNode@CIOCPServer@@U?$less@I@std@@V?$allocator@U?$pair@$$CBIPAUtagClientNode@CIOCPServer@@@std@@@4@$0A@@std@@@3@XZ 10001fd0 f i ServerStage.obj
 0001:00000fe0       ??0?$pair@$$CBIPAUtagClientNode@CIOCPServer@@@std@@QAE@ABIABQAUtagClientNode@CIOCPServer@@@Z 10001fe0 f i ServerStage.obj
 0001:00001000       ??Bsentry@?$basic_ostream@DU?$char_traits@D@std@@@std@@QBE_NXZ 10002000 f i ServerStage.obj
 0001:00001010       ??0?$_Bidit@IHPBIABI@std@@QAE@XZ 10002010 f i ServerStage.obj
 0001:00001020       ??0?$_Bidit@U?$pair@$$CBIPAUtagClientNode@CIOCPServer@@@std@@HPBU12@ABU12@@std@@QAE@XZ 10002020 f i ServerStage.obj
 0001:00001030       ?_Myptr@?$basic_string@DU?$char_traits@D@std@@V?$allocator@D@2@@std@@IAEPADXZ 10002030 f i ServerStage.obj
 0001:00001040       ??0?$allocator@D@std@@QAE@ABV01@@Z 10002040 f i ServerStage.obj
 0001:00001050       ?deallocate@?$allocator@D@std@@QAEXPADI@Z 10002050 f i ServerStage.obj
 0001:00001060       ?tie@?$basic_ios@DU?$char_traits@D@std@@@std@@QBEPAV?$basic_ostream@DU?$char_traits@D@std@@@2@XZ 10002060 f i ServerStage.obj
 0001:00001070       ?_Lock@?$basic_streambuf@DU?$char_traits@D@std@@@std@@QAEXXZ 10002070 f i ServerStage.obj
 0001:00001080       ??0?$allocator@I@std@@QAE@ABV01@@Z 10002080 f i ServerStage.obj
 0001:00001090       ?deallocate@?$allocator@I@std@@QAEXPAII@Z 10002090 f i ServerStage.obj
 0001:000010a0       ?_Color@?$_Tree@V?$_Tmap_traits@IPAUtagClientNode@CIOCPServer@@U?$less@I@std@@V?$allocator@U?$pair@$$CBIPAUtagClientNode@CIOCPServer@@@std@@@4@$0A@@std@@@std@@KAAADPAU_Node@?$_Tree_nod@V?$_Tmap_traits@IPAUtagClientNode@CIOCPServer@@U?$less@I@std@@V?$allocator@U?$pair@$$CBIPAUtagClientNode@CIOCPServer@@@std@@@4@$0A@@std@@@2@@Z 100020a0 f i ServerStage.obj
 0001:000010b0       ?_Isnil@?$_Tree@V?$_Tmap_traits@IPAUtagClientNode@CIOCPServer@@U?$less@I@std@@V?$allocator@U?$pair@$$CBIPAUtagClientNode@CIOCPServer@@@std@@@4@$0A@@std@@@std@@KAAADPAU_Node@?$_Tree_nod@V?$_Tmap_traits@IPAUtagClientNode@CIOCPServer@@U?$less@I@std@@V?$allocator@U?$pair@$$CBIPAUtagClientNode@CIOCPServer@@@std@@@4@$0A@@std@@@2@@Z 100020b0 f i ServerStage.obj
 0001:000010c0       ?_Left@?$_Tree@V?$_Tmap_traits@IPAUtagClientNode@CIOCPServer@@U?$less@I@std@@V?$allocator@U?$pair@$$CBIPAUtagClientNode@CIOCPServer@@@std@@@4@$0A@@std@@@std@@KAAAPAU_Node@?$_Tree_nod@V?$_Tmap_traits@IPAUtagClientNode@CIOCPServer@@U?$less@I@std@@V?$allocator@U?$pair@$$CBIPAUtagClientNode@CIOCPServer@@@std@@@4@$0A@@std@@@2@PAU342@@Z 100020c0 f i ServerStage.obj
 0001:000010d0       ?_Parent@?$_Tree@V?$_Tmap_traits@IPAUtagClientNode@CIOCPServer@@U?$less@I@std@@V?$allocator@U?$pair@$$CBIPAUtagClientNode@CIOCPServer@@@std@@@4@$0A@@std@@@std@@KAAAPAU_Node@?$_Tree_nod@V?$_Tmap_traits@IPAUtagClientNode@CIOCPServer@@U?$less@I@std@@V?$allocator@U?$pair@$$CBIPAUtagClientNode@CIOCPServer@@@std@@@4@$0A@@std@@@2@PAU342@@Z 100020d0 f i ServerStage.obj
 0001:000010e0       ?_Right@?$_Tree@V?$_Tmap_traits@IPAUtagClientNode@CIOCPServer@@U?$less@I@std@@V?$allocator@U?$pair@$$CBIPAUtagClientNode@CIOCPServer@@@std@@@4@$0A@@std@@@std@@KAAAPAU_Node@?$_Tree_nod@V?$_Tmap_traits@IPAUtagClientNode@CIOCPServer@@U?$less@I@std@@V?$allocator@U?$pair@$$CBIPAUtagClientNode@CIOCPServer@@@std@@@4@$0A@@std@@@2@PAU342@@Z 100020e0 f i ServerStage.obj
 0001:000010f0       ?_Myval@?$_Tree@V?$_Tmap_traits@IPAUtagClientNode@CIOCPServer@@U?$less@I@std@@V?$allocator@U?$pair@$$CBIPAUtagClientNode@CIOCPServer@@@std@@@4@$0A@@std@@@std@@KAAAU?$pair@$$CBIPAUtagClientNode@CIOCPServer@@@2@PAU_Node@?$_Tree_nod@V?$_Tmap_traits@IPAUtagClientNode@CIOCPServer@@U?$less@I@std@@V?$allocator@U?$pair@$$CBIPAUtagClientNode@CIOCPServer@@@std@@@4@$0A@@std@@@2@@Z 100020f0 f i ServerStage.obj
 0001:00001100       ?size@?$_Tree@V?$_Tmap_traits@IPAUtagClientNode@CIOCPServer@@U?$less@I@std@@V?$allocator@U?$pair@$$CBIPAUtagClientNode@CIOCPServer@@@std@@@4@$0A@@std@@@std@@QBEIXZ 10002100 f i ServerStage.obj
 0001:00001110       ?_Max@?$_Tree@V?$_Tmap_traits@IPAUtagClientNode@CIOCPServer@@U?$less@I@std@@V?$allocator@U?$pair@$$CBIPAUtagClientNode@CIOCPServer@@@std@@@4@$0A@@std@@@std@@KAPAU_Node@?$_Tree_nod@V?$_Tmap_traits@IPAUtagClientNode@CIOCPServer@@U?$less@I@std@@V?$allocator@U?$pair@$$CBIPAUtagClientNode@CIOCPServer@@@std@@@4@$0A@@std@@@2@PAU342@@Z 10002110 f i ServerStage.obj
 0001:00001130       ?_Min@?$_Tree@V?$_Tmap_traits@IPAUtagClientNode@CIOCPServer@@U?$less@I@std@@V?$allocator@U?$pair@$$CBIPAUtagClientNode@CIOCPServer@@@std@@@4@$0A@@std@@@std@@KAPAU_Node@?$_Tree_nod@V?$_Tmap_traits@IPAUtagClientNode@CIOCPServer@@U?$less@I@std@@V?$allocator@U?$pair@$$CBIPAUtagClientNode@CIOCPServer@@@std@@@4@$0A@@std@@@2@PAU342@@Z 10002130 f i ServerStage.obj
 0001:00001150       ?_Rmost@?$_Tree@V?$_Tmap_traits@IPAUtagClientNode@CIOCPServer@@U?$less@I@std@@V?$allocator@U?$pair@$$CBIPAUtagClientNode@CIOCPServer@@@std@@@4@$0A@@std@@@std@@IBEAAPAU_Node@?$_Tree_nod@V?$_Tmap_traits@IPAUtagClientNode@CIOCPServer@@U?$less@I@std@@V?$allocator@U?$pair@$$CBIPAUtagClientNode@CIOCPServer@@@std@@@4@$0A@@std@@@2@XZ 10002150 f i ServerStage.obj
 0001:00001160       ?_Root@?$_Tree@V?$_Tmap_traits@IPAUtagClientNode@CIOCPServer@@U?$less@I@std@@V?$allocator@U?$pair@$$CBIPAUtagClientNode@CIOCPServer@@@std@@@4@$0A@@std@@@std@@IBEAAPAU_Node@?$_Tree_nod@V?$_Tmap_traits@IPAUtagClientNode@CIOCPServer@@U?$less@I@std@@V?$allocator@U?$pair@$$CBIPAUtagClientNode@CIOCPServer@@@std@@@4@$0A@@std@@@2@XZ 10002160 f i ServerStage.obj
 0001:00001170       ?_Rrotate@?$_Tree@V?$_Tmap_traits@IPAUtagClientNode@CIOCPServer@@U?$less@I@std@@V?$allocator@U?$pair@$$CBIPAUtagClientNode@CIOCPServer@@@std@@@4@$0A@@std@@@std@@IAEXPAU_Node@?$_Tree_nod@V?$_Tmap_traits@IPAUtagClientNode@CIOCPServer@@U?$less@I@std@@V?$allocator@U?$pair@$$CBIPAUtagClientNode@CIOCPServer@@@std@@@4@$0A@@std@@@2@@Z 10002170 f i ServerStage.obj
 0001:000011d0       ?_Kfn@?$_Tmap_traits@IPAUtagClientNode@CIOCPServer@@U?$less@I@std@@V?$allocator@U?$pair@$$CBIPAUtagClientNode@CIOCPServer@@@std@@@4@$0A@@std@@SAABIABU?$pair@$$CBIPAUtagClientNode@CIOCPServer@@@2@@Z 100021d0 f i ServerStage.obj
 0001:000011e0       ??0?$allocator@U?$pair@$$CBIPAUtagClientNode@CIOCPServer@@@std@@@std@@QAE@ABV01@@Z 100021e0 f i ServerStage.obj
 0001:000011f0       ?deallocate@?$allocator@U_Node@?$_Tree_nod@V?$_Tmap_traits@IPAUtagClientNode@CIOCPServer@@U?$less@I@std@@V?$allocator@U?$pair@$$CBIPAUtagClientNode@CIOCPServer@@@std@@@4@$0A@@std@@@std@@@std@@QAEXPAU_Node@?$_Tree_nod@V?$_Tmap_traits@IPAUtagClientNode@CIOCPServer@@U?$less@I@std@@V?$allocator@U?$pair@$$CBIPAUtagClientNode@CIOCPServer@@@std@@@4@$0A@@std@@@2@I@Z 100021f0 f i ServerStage.obj
 0001:00001200       ?deallocate@?$allocator@PAI@std@@QAEXPAPAII@Z 10002200 f i ServerStage.obj
 0001:00001210       ?_Prevnode@?$list@IV?$allocator@I@std@@@std@@KAAAPAU_Node@?$_List_nod@IV?$allocator@I@std@@@2@PAU342@@Z 10002210 f i ServerStage.obj
 0001:00001220       ?_Myval@?$list@IV?$allocator@I@std@@@std@@KAAAIPAU_Node@?$_List_nod@IV?$allocator@I@std@@@2@@Z 10002220 f i ServerStage.obj
 0001:00001230       ?deallocate@?$allocator@U_Node@?$_List_nod@IV?$allocator@I@std@@@std@@@std@@QAEXPAU_Node@?$_List_nod@IV?$allocator@I@std@@@2@I@Z 10002230 f i ServerStage.obj
 0001:00001240       ??0?$allocator@PAX@std@@QAE@XZ 10002240 f i ServerStage.obj
 0001:00001250       ?deallocate@?$allocator@PAX@std@@QAEXPAPAXI@Z 10002250 f i ServerStage.obj
 0001:00001260       ?deallocate@?$allocator@PAPAX@std@@QAEXPAPAPAXI@Z 10002260 f i ServerStage.obj
 0001:00001270       ??0?$_Const_iterator@$00@?$list@IV?$allocator@I@std@@@std@@QAE@PAU_Node@?$_List_nod@IV?$allocator@I@std@@@2@PBV12@@Z 10002270 f i ServerStage.obj
 0001:000012a0       ??E?$_Const_iterator@$00@?$list@IV?$allocator@I@std@@@std@@QAEAAV012@XZ 100022a0 f i ServerStage.obj
 0001:000012d0       ?_Mynode@?$_Const_iterator@$00@?$list@IV?$allocator@I@std@@@std@@QBEPAU_Node@?$_List_nod@IV?$allocator@I@std@@@3@XZ 100022d0 f i ServerStage.obj
 0001:000012e0       ??0const_iterator@?$_Tree@V?$_Tmap_traits@IPAUtagClientNode@CIOCPServer@@U?$less@I@std@@V?$allocator@U?$pair@$$CBIPAUtagClientNode@CIOCPServer@@@std@@@4@$0A@@std@@@std@@QAE@PAU_Node@?$_Tree_nod@V?$_Tmap_traits@IPAUtagClientNode@CIOCPServer@@U?$less@I@std@@V?$allocator@U?$pair@$$CBIPAUtagClientNode@CIOCPServer@@@std@@@4@$0A@@std@@@2@PBV12@@Z 100022e0 f i ServerStage.obj
 0001:00001310       ??0_Sentry_base@?$basic_ostream@DU?$char_traits@D@std@@@std@@QAE@AAV12@@Z 10002310 f i ServerStage.obj
 0001:00001340       ??1_Sentry_base@?$basic_ostream@DU?$char_traits@D@std@@@std@@QAE@XZ 10002340 f i ServerStage.obj
 0001:00001360       ?_Inside@?$basic_string@DU?$char_traits@D@std@@V?$allocator@D@2@@std@@IAE_NPBD@Z 10002360 f i ServerStage.obj
 0001:000013a0       ??0?$allocator@PAX@std@@QAE@ABV01@@Z 100023a0 f i ServerStage.obj
 0001:000013b0       ?_Inc@const_iterator@?$_Tree@V?$_Tmap_traits@IPAUtagClientNode@CIOCPServer@@U?$less@I@std@@V?$allocator@U?$pair@$$CBIPAUtagClientNode@CIOCPServer@@@std@@@4@$0A@@std@@@std@@QAEXXZ 100023b0 f i ServerStage.obj
 0001:00001420       ??0?$pair@Viterator@?$_Tree@V?$_Tmap_traits@IPAUtagClientNode@CIOCPServer@@U?$less@I@std@@V?$allocator@U?$pair@$$CBIPAUtagClientNode@CIOCPServer@@@std@@@4@$0A@@std@@@std@@_N@std@@QAE@ABViterator@?$_Tree@V?$_Tmap_traits@IPAUtagClientNode@CIOCPServer@@U?$less@I@std@@V?$allocator@U?$pair@$$CBIPAUtagClientNode@CIOCPServer@@@std@@@4@$0A@@std@@@1@AB_N@Z 10002420 f i ServerStage.obj
 0001:00001440       ??D?$_Deque_const_iterator@IV?$allocator@I@std@@$00@std@@QBEABIXZ 10002440 f i ServerStage.obj
 0001:00001490       ??D?$_Deque_const_iterator@PAXV?$allocator@PAX@std@@$00@std@@QBEABQAXXZ 10002490 f i ServerStage.obj
 0001:000014e0       ??0?$_Ranit@PAXHPBQAXABQAX@std@@QAE@XZ 100024e0 f i ServerStage.obj
 0001:000014f0       ?max_size@?$allocator@D@std@@QBEIXZ 100024f0 f i ServerStage.obj
 0001:00001500       ?max_size@?$allocator@I@std@@QBEIXZ 10002500 f i ServerStage.obj
 0001:00001510       ?max_size@?$allocator@U?$pair@$$CBIPAUtagClientNode@CIOCPServer@@@std@@@std@@QBEIXZ 10002510 f i ServerStage.obj
 0001:00001520       ?max_size@?$allocator@PAX@std@@QBEIXZ 10002520 f i ServerStage.obj
 0001:00001530       ?_Dec@const_iterator@?$_Tree@V?$_Tmap_traits@IPAUtagClientNode@CIOCPServer@@U?$less@I@std@@V?$allocator@U?$pair@$$CBIPAUtagClientNode@CIOCPServer@@@std@@@4@$0A@@std@@@std@@QAEXXZ 10002530 f i ServerStage.obj
 0001:000015c0       ??0?$_Deque_const_iterator@PAXV?$allocator@PAX@std@@$00@std@@QAE@IPBU_Container_base@1@@Z 100025c0 f i ServerStage.obj
 0001:00001600       ??0_Node@?$_Tree_nod@V?$_Tmap_traits@IPAUtagClientNode@CIOCPServer@@U?$less@I@std@@V?$allocator@U?$pair@$$CBIPAUtagClientNode@CIOCPServer@@@std@@@4@$0A@@std@@@std@@QAE@PAU012@00ABU?$pair@$$CBIPAUtagClientNode@CIOCPServer@@@2@D@Z 10002600 f i ServerStage.obj
 0001:00001640       ??0?$_Ranit@IHPBIABI@std@@QAE@XZ 10002640 f i ServerStage.obj
 0001:00001650       ??0?$_Tmap_traits@IPAUtagClientNode@CIOCPServer@@U?$less@I@std@@V?$allocator@U?$pair@$$CBIPAUtagClientNode@CIOCPServer@@@std@@@4@$0A@@std@@QAE@U?$less@I@1@@Z 10002650 f i ServerStage.obj
 0001:00001660       ??Y?$_Deque_const_iterator@PAXV?$allocator@PAX@std@@$00@std@@QAEAAV01@H@Z 10002660 f i ServerStage.obj
 0001:000016a0       ??$swap@D@std@@YAXAAD0@Z   100026a0 f i ServerStage.obj
 0001:000016c0       ??$_Allocate@I@std@@YAPAIIPAI@Z 100026c0 f i ServerStage.obj
 0001:00001720       ??$_Construct@II@std@@YAXPAIABI@Z 10002720 f i ServerStage.obj
 0001:00001740       ??$_Destroy@I@std@@YAXPAI@Z 10002740 f i ServerStage.obj
 0001:00001750       ??$_Destroy@U_Node@?$_Tree_nod@V?$_Tmap_traits@IPAUtagClientNode@CIOCPServer@@U?$less@I@std@@V?$allocator@U?$pair@$$CBIPAUtagClientNode@CIOCPServer@@@std@@@4@$0A@@std@@@std@@@std@@YAXPAU_Node@?$_Tree_nod@V?$_Tmap_traits@IPAUtagClientNode@CIOCPServer@@U?$less@I@std@@V?$allocator@U?$pair@$$CBIPAUtagClientNode@CIOCPServer@@@std@@@4@$0A@@std@@@0@@Z 10002750 f i ServerStage.obj
 0001:00001760       ??$_Destroy@PAU_Node@?$_Tree_nod@V?$_Tmap_traits@IPAUtagClientNode@CIOCPServer@@U?$less@I@std@@V?$allocator@U?$pair@$$CBIPAUtagClientNode@CIOCPServer@@@std@@@4@$0A@@std@@@std@@@std@@YAXPAPAU_Node@?$_Tree_nod@V?$_Tmap_traits@IPAUtagClientNode@CIOCPServer@@U?$less@I@std@@V?$allocator@U?$pair@$$CBIPAUtagClientNode@CIOCPServer@@@std@@@4@$0A@@std@@@0@@Z 10002760 f i ServerStage.obj
 0001:00001770       ??$_Destroy@PAI@std@@YAXPAPAI@Z 10002770 f i ServerStage.obj
 0001:00001780       ??$?0I@?$allocator@PAU_Node@?$_List_nod@IV?$allocator@I@std@@@std@@@std@@QAE@ABV?$allocator@I@1@@Z 10002780 f i ServerStage.obj
 0001:00001790       ??$_Allocate@U_Node@?$_List_nod@IV?$allocator@I@std@@@std@@@std@@YAPAU_Node@?$_List_nod@IV?$allocator@I@std@@@0@IPAU120@@Z 10002790 f i ServerStage.obj
 0001:000017f0       ??$_Destroy@U_Node@?$_List_nod@IV?$allocator@I@std@@@std@@@std@@YAXPAU_Node@?$_List_nod@IV?$allocator@I@std@@@0@@Z 100027f0 f i ServerStage.obj
 0001:00001800       ??$_Construct@PAU_Node@?$_List_nod@IV?$allocator@I@std@@@std@@PAU123@@std@@YAXPAPAU_Node@?$_List_nod@IV?$allocator@I@std@@@0@ABQAU120@@Z 10002800 f i ServerStage.obj
 0001:00001820       ??$_Destroy@PAU_Node@?$_List_nod@IV?$allocator@I@std@@@std@@@std@@YAXPAPAU_Node@?$_List_nod@IV?$allocator@I@std@@@0@@Z 10002820 f i ServerStage.obj
 0001:00001830       ??$_Allocate@PAX@std@@YAPAPAXIPAPAX@Z 10002830 f i ServerStage.obj
 0001:00001890       ??$_Construct@PAXPAX@std@@YAXPAPAXABQAX@Z 10002890 f i ServerStage.obj
 0001:000018b0       ??$_Destroy@PAX@std@@YAXPAPAX@Z 100028b0 f i ServerStage.obj
 0001:000018c0       ??$_Destroy@PAPAX@std@@YAXPAPAPAX@Z 100028c0 f i ServerStage.obj
 0001:000018d0       ??$?0U?$pair@$$CBIPAUtagClientNode@CIOCPServer@@@std@@@?$allocator@PAU_Node@?$_Tree_nod@V?$_Tmap_traits@IPAUtagClientNode@CIOCPServer@@U?$less@I@std@@V?$allocator@U?$pair@$$CBIPAUtagClientNode@CIOCPServer@@@std@@@4@$0A@@std@@@std@@@std@@QAE@ABV?$allocator@U?$pair@$$CBIPAUtagClientNode@CIOCPServer@@@std@@@1@@Z 100028d0 f i ServerStage.obj
 0001:000018e0       ??$?0I@?$allocator@PAI@std@@QAE@ABV?$allocator@I@1@@Z 100028e0 f i ServerStage.obj
 0001:000018f0       ??$_Allocate@PAI@std@@YAPAPAIIPAPAI@Z 100028f0 f i ServerStage.obj
 0001:00001950       ??$?0I@?$allocator@U_Node@?$_List_nod@IV?$allocator@I@std@@@std@@@std@@QAE@ABV?$allocator@I@1@@Z 10002950 f i ServerStage.obj
 0001:00001960       ??$?0PAX@?$allocator@PAPAX@std@@QAE@ABV?$allocator@PAX@1@@Z 10002960 f i ServerStage.obj
 0001:00001970       ??$_Allocate@PAPAX@std@@YAPAPAPAXIPAPAPAX@Z 10002970 f i ServerStage.obj
 0001:000019d0       ??$_Allocate@D@std@@YAPADIPAD@Z 100029d0 f i ServerStage.obj
 0001:00001a30       ??$?0U?$pair@$$CBIPAUtagClientNode@CIOCPServer@@@std@@@?$allocator@U_Node@?$_Tree_nod@V?$_Tmap_traits@IPAUtagClientNode@CIOCPServer@@U?$less@I@std@@V?$allocator@U?$pair@$$CBIPAUtagClientNode@CIOCPServer@@@std@@@4@$0A@@std@@@std@@@std@@QAE@ABV?$allocator@U?$pair@$$CBIPAUtagClientNode@CIOCPServer@@@std@@@1@@Z 10002a30 f i ServerStage.obj
 0001:00001a40       ??$_Allocate@U_Node@?$_Tree_nod@V?$_Tmap_traits@IPAUtagClientNode@CIOCPServer@@U?$less@I@std@@V?$allocator@U?$pair@$$CBIPAUtagClientNode@CIOCPServer@@@std@@@4@$0A@@std@@@std@@@std@@YAPAU_Node@?$_Tree_nod@V?$_Tmap_traits@IPAUtagClientNode@CIOCPServer@@U?$less@I@std@@V?$allocator@U?$pair@$$CBIPAUtagClientNode@CIOCPServer@@@std@@@4@$0A@@std@@@0@IPAU120@@Z 10002a40 f i ServerStage.obj
 0001:00001aa0       ??$_Construct@PAU_Node@?$_Tree_nod@V?$_Tmap_traits@IPAUtagClientNode@CIOCPServer@@U?$less@I@std@@V?$allocator@U?$pair@$$CBIPAUtagClientNode@CIOCPServer@@@std@@@4@$0A@@std@@@std@@PAU123@@std@@YAXPAPAU_Node@?$_Tree_nod@V?$_Tmap_traits@IPAUtagClientNode@CIOCPServer@@U?$less@I@std@@V?$allocator@U?$pair@$$CBIPAUtagClientNode@CIOCPServer@@@std@@@4@$0A@@std@@@0@ABQAU120@@Z 10002aa0 f i ServerStage.obj
 0001:00001ac0       ??0bad_alloc@std@@QAE@ABV01@@Z 10002ac0 f i ServerStage.obj
 0001:00001ae0       ??6?$basic_ostream@DU?$char_traits@D@std@@@std@@QAEAAV01@P6AAAV01@AAV01@@Z@Z 10002ae0 f i ServerStage.obj
 0001:00001af0       ?fill@?$basic_ios@DU?$char_traits@D@std@@@std@@QBEDXZ 10002af0 f i ServerStage.obj
 0001:00001b00       ?put@?$num_put@DV?$ostreambuf_iterator@DU?$char_traits@D@std@@@std@@@std@@QBE?AV?$ostreambuf_iterator@DU?$char_traits@D@std@@@2@V32@AAVios_base@2@DK@Z 10002b00 f i ServerStage.obj
 0001:00001b40       ?failed@?$ostreambuf_iterator@DU?$char_traits@D@std@@@std@@QBE_NXZ 10002b40 f i ServerStage.obj
 0001:00001b50       ??0?$_Iterator_with_base@Uoutput_iterator_tag@std@@XXXXU_Iterator_base@2@@std@@QAE@XZ 10002b50 f i ServerStage.obj
 0001:00001b60       ??$_Char_traits_cat@U?$char_traits@D@std@@@std@@YA?AU_Secure_char_traits_tag@0@XZ 10002b60 f i ServerStage.obj
 0001:00001b70       ??$copy_s@U?$char_traits@D@std@@@_Traits_helper@std@@YAPADPADIPBDIU_Secure_char_traits_tag@1@@Z 10002b70 f i ServerStage.obj
 0001:00001ba0       ??$move_s@U?$char_traits@D@std@@@_Traits_helper@std@@YAPADPADIPBDIU_Secure_char_traits_tag@1@@Z 10002ba0 f i ServerStage.obj
 0001:00001bd0       ??$_Ptr_cat@PAPAIPAPAI@std@@YA?AU_Scalar_ptr_iterator_tag@0@AAPAPAI0@Z 10002bd0 f i ServerStage.obj
 0001:00001be0       ??$_Uninit_copy@PAPAIPAPAIV?$allocator@PAI@std@@@std@@YAPAPAIPAPAI00AAV?$allocator@PAI@0@U_Scalar_ptr_iterator_tag@0@U_Range_checked_iterator_tag@0@@Z 10002be0 f i ServerStage.obj
 0001:00001c10       ??$_Destroy_range@PAIV?$allocator@PAI@std@@@std@@YAXPAPAI0AAV?$allocator@PAI@0@U_Scalar_ptr_iterator_tag@0@@Z 10002c10 f i ServerStage.obj
 0001:00001c20       ??$_Ptr_cat@PAPAPAXPAPAPAX@std@@YA?AU_Scalar_ptr_iterator_tag@0@AAPAPAPAX0@Z 10002c20 f i ServerStage.obj
 0001:00001c30       ??$_Uninit_copy@PAPAPAXPAPAPAXV?$allocator@PAPAX@std@@@std@@YAPAPAPAXPAPAPAX00AAV?$allocator@PAPAX@0@U_Scalar_ptr_iterator_tag@0@U_Range_checked_iterator_tag@0@@Z 10002c30 f i ServerStage.obj
 0001:00001c60       ??$_Destroy_range@PAPAXV?$allocator@PAPAX@std@@@std@@YAXPAPAPAX0AAV?$allocator@PAPAX@0@U_Scalar_ptr_iterator_tag@0@@Z 10002c60 f i ServerStage.obj
 0001:00001c70       ?_Init@?$num_put@DV?$ostreambuf_iterator@DU?$char_traits@D@std@@@std@@@std@@IAEXABV_Locinfo@2@@Z 10002c70 f i ServerStage.obj
 0001:00001c90       ??$_Checked_base@PAPAI@std@@YAPAPAIAAPAPAIU_Unchanged_checked_iterator_base_type_tag@0@@Z 10002c90 f i ServerStage.obj
 0001:00001ca0       ??$_Checked_base@PAPAPAX@std@@YAPAPAPAXAAPAPAPAXU_Unchanged_checked_iterator_base_type_tag@0@@Z 10002ca0 f i ServerStage.obj
 0001:00001cb0       ??$_Iter_cat@PAPAI@std@@YA?AUrandom_access_iterator_tag@0@ABQAPAI@Z 10002cb0 f i ServerStage.obj
 0001:00001cc0       ??$_Iter_cat@PAPAPAX@std@@YA?AUrandom_access_iterator_tag@0@ABQAPAPAX@Z 10002cc0 f i ServerStage.obj
 0001:00001cd0       ??$_Fill_n@PAPAIIPAI@std@@YAXPAPAIIABQAIU_Range_checked_iterator_tag@0@@Z 10002cd0 f i ServerStage.obj
 0001:00001d00       ??$_Fill_n@PAPAPAXIPAPAX@std@@YAXPAPAPAXIABQAPAXU_Range_checked_iterator_tag@0@@Z 10002d00 f i ServerStage.obj
 0001:00001d30       ?freeze@strstreambuf@std@@QAEX_N@Z 10002d30 f i ServerStage.obj
 0001:00001d90       ?str@strstreambuf@std@@QAEPADXZ 10002d90 f i ServerStage.obj
 0001:00001dd0       ?_Init@strstreambuf@std@@IAEXHPAD0H@Z 10002dd0 f i ServerStage.obj
 0001:00001ea0       ?_Tidy@strstreambuf@std@@IAEXXZ 10002ea0 f i ServerStage.obj
 0001:00001ef0       ?freeze@strstream@std@@QAEX_N@Z 10002ef0 f i ServerStage.obj
 0001:00001f00       ?str@strstream@std@@QAEPADXZ 10002f00 f i ServerStage.obj
 0001:00001f40       ??_GtagClientNode@CIOCPServer@@QAEPAXI@Z 10002f40 f i ServerStage.obj
 0001:00001f70       ?GetClientCount@CIOCPServer@@UAGIXZ 10002f70 f   ServerStage.obj
 0001:00001f80       ??0CServerFactory@@QAE@XZ  10002f80 f   ServerStage.obj
 0001:00001fa0       ??_GCServerFactory@@UAEPAXI@Z 10002fa0 f i ServerStage.obj
 0001:00001fa0       ??_ECServerFactory@@UAEPAXI@Z 10002fa0 f i ServerStage.obj
 0001:00001fc0       ?c_str@?$basic_string@DU?$char_traits@D@std@@V?$allocator@D@2@@std@@QBEPBDXZ 10002fc0 f i ServerStage.obj
 0001:00001fd0       ??0?$basic_streambuf@DU?$char_traits@D@std@@@std@@IAE@XZ 10002fd0 f i ServerStage.obj
 0001:00002080       ?to_char_type@?$char_traits@D@std@@SADABH@Z 10003080 f i ServerStage.obj
 0001:00002090       ?gbump@?$basic_streambuf@DU?$char_traits@D@std@@@std@@IAEXH@Z 10003090 f i ServerStage.obj
 0001:000020b0       ?pbump@?$basic_streambuf@DU?$char_traits@D@std@@@std@@IAEXH@Z 100030b0 f i ServerStage.obj
 0001:000020d0       ?overflow@?$basic_streambuf@DU?$char_traits@D@std@@@std@@MAEHH@Z 100030d0 f i ServerStage.obj
 0001:000020e0       ?pbackfail@?$basic_streambuf@DU?$char_traits@D@std@@@std@@MAEHH@Z 100030e0 f i ServerStage.obj
 0001:000020f0       ?showmanyc@?$basic_streambuf@DU?$char_traits@D@std@@@std@@MAEHXZ 100030f0 f i ServerStage.obj
 0001:00002100       ?underflow@?$basic_streambuf@DU?$char_traits@D@std@@@std@@MAEHXZ 10003100 f i ServerStage.obj
 0001:00002110       ?xsgetn@?$basic_streambuf@DU?$char_traits@D@std@@@std@@MAEHPADH@Z 10003110 f i ServerStage.obj
 0001:00002130       ?setbuf@?$basic_streambuf@DU?$char_traits@D@std@@@std@@MAEPAV12@PADH@Z 10003130 f i ServerStage.obj
 0001:00002140       ?sync@?$basic_streambuf@DU?$char_traits@D@std@@@std@@MAEHXZ 10003140 f i ServerStage.obj
 0001:00002150       ?imbue@?$basic_streambuf@DU?$char_traits@D@std@@@std@@MAEXABVlocale@2@@Z 10003150 f i ServerStage.obj
 0001:00002160       ??0?$fpos@H@std@@QAE@J@Z   10003160 f i ServerStage.obj
 0001:00002180       ?_Gninc@?$basic_streambuf@DU?$char_traits@D@std@@@std@@IAEPADXZ 10003180 f i ServerStage.obj
 0001:000021a0       ?_Gnavail@?$basic_streambuf@DU?$char_traits@D@std@@@std@@IBEHXZ 100031a0 f i ServerStage.obj
 0001:000021c0       ??1?$basic_streambuf@DU?$char_traits@D@std@@@std@@UAE@XZ 100031c0 f i ServerStage.obj
 0001:00002240       ?uflow@?$basic_streambuf@DU?$char_traits@D@std@@@std@@MAEHXZ 10003240 f i ServerStage.obj
 0001:00002270       ?seekoff@?$basic_streambuf@DU?$char_traits@D@std@@@std@@MAE?AV?$fpos@H@2@JHH@Z 10003270 f i ServerStage.obj
 0001:00002290       ?seekpos@?$basic_streambuf@DU?$char_traits@D@std@@@std@@MAE?AV?$fpos@H@2@V32@H@Z 10003290 f i ServerStage.obj
 0001:000022b0       ?empty@?$queue@IV?$deque@IV?$allocator@I@std@@@std@@@std@@QBE_NXZ 100032b0 f i ServerStage.obj
 0001:000022c0       ?empty@?$stack@PAXV?$deque@PAXV?$allocator@PAX@std@@@std@@@std@@QBE_NXZ 100032c0 f i ServerStage.obj
 0001:000022d0       ??9?$_Const_iterator@$00@?$list@IV?$allocator@I@std@@@std@@QBE_NABV012@@Z 100032d0 f i ServerStage.obj
 0001:00002300       ??9const_iterator@?$_Tree@V?$_Tmap_traits@IPAUtagClientNode@CIOCPServer@@U?$less@I@std@@V?$allocator@U?$pair@$$CBIPAUtagClientNode@CIOCPServer@@@std@@@4@$0A@@std@@@std@@QBE_NABV012@@Z 10003300 f i ServerStage.obj
 0001:00002330       ??_E?$basic_ostream@DU?$char_traits@D@std@@@std@@UAEPAXI@Z 10003330 f i ServerStage.obj
 0001:00002330       ??_G?$basic_ostream@DU?$char_traits@D@std@@@std@@UAEPAXI@Z 10003330 f i ServerStage.obj
 0001:00002370       ??_G?$basic_istream@DU?$char_traits@D@std@@@std@@UAEPAXI@Z 10003370 f i ServerStage.obj
 0001:00002370       ??_E?$basic_istream@DU?$char_traits@D@std@@@std@@UAEPAXI@Z 10003370 f i ServerStage.obj
 0001:000023b0       ??_E?$basic_streambuf@DU?$char_traits@D@std@@@std@@UAEPAXI@Z 100033b0 f i ServerStage.obj
 0001:000023b0       ??_G?$basic_streambuf@DU?$char_traits@D@std@@@std@@UAEPAXI@Z 100033b0 f i ServerStage.obj
 0001:000023d0       ??_E?$basic_iostream@DU?$char_traits@D@std@@@std@@UAEPAXI@Z 100033d0 f i ServerStage.obj
 0001:000023d0       ??_G?$basic_iostream@DU?$char_traits@D@std@@@std@@UAEPAXI@Z 100033d0 f i ServerStage.obj
 0001:00002440       ??0?$_String_val@DV?$allocator@D@std@@@std@@IAE@V?$allocator@D@1@@Z 10003440 f i ServerStage.obj
 0001:00002450       ??0?$_String_val@DV?$allocator@D@std@@@std@@QAE@ABV01@@Z 10003450 f i ServerStage.obj
 0001:00002460       ?sputc@?$basic_streambuf@DU?$char_traits@D@std@@@std@@QAEHD@Z 10003460 f i ServerStage.obj
 0001:000024a0       ?_Key@?$_Tree@V?$_Tmap_traits@IPAUtagClientNode@CIOCPServer@@U?$less@I@std@@V?$allocator@U?$pair@$$CBIPAUtagClientNode@CIOCPServer@@@std@@@4@$0A@@std@@@std@@KAABIPAU_Node@?$_Tree_nod@V?$_Tmap_traits@IPAUtagClientNode@CIOCPServer@@U?$less@I@std@@V?$allocator@U?$pair@$$CBIPAUtagClientNode@CIOCPServer@@@std@@@4@$0A@@std@@@2@@Z 100034a0 f i ServerStage.obj
 0001:000024b0       ?_Lmost@?$_Tree@V?$_Tmap_traits@IPAUtagClientNode@CIOCPServer@@U?$less@I@std@@V?$allocator@U?$pair@$$CBIPAUtagClientNode@CIOCPServer@@@std@@@4@$0A@@std@@@std@@IBEAAPAU_Node@?$_Tree_nod@V?$_Tmap_traits@IPAUtagClientNode@CIOCPServer@@U?$less@I@std@@V?$allocator@U?$pair@$$CBIPAUtagClientNode@CIOCPServer@@@std@@@4@$0A@@std@@@2@XZ 100034b0 f i ServerStage.obj
 0001:000024c0       ??0?$_Iterator@$00@?$list@IV?$allocator@I@std@@@std@@QAE@PAU_Node@?$_List_nod@IV?$allocator@I@std@@@2@PBV12@@Z 100034c0 f i ServerStage.obj
 0001:000024f0       ??E?$_Iterator@$00@?$list@IV?$allocator@I@std@@@std@@QAEAAV012@XZ 100034f0 f i ServerStage.obj
 0001:00002520       ??0?$_Const_iterator@$00@?$list@IV?$allocator@I@std@@@std@@QAE@XZ 10003520 f i ServerStage.obj
 0001:00002530       ??D?$_Const_iterator@$00@?$list@IV?$allocator@I@std@@@std@@QBEABIXZ 10003530 f i ServerStage.obj
 0001:00002560       ??0iterator@?$_Tree@V?$_Tmap_traits@IPAUtagClientNode@CIOCPServer@@U?$less@I@std@@V?$allocator@U?$pair@$$CBIPAUtagClientNode@CIOCPServer@@@std@@@4@$0A@@std@@@std@@QAE@PAU_Node@?$_Tree_nod@V?$_Tmap_traits@IPAUtagClientNode@CIOCPServer@@U?$less@I@std@@V?$allocator@U?$pair@$$CBIPAUtagClientNode@CIOCPServer@@@std@@@4@$0A@@std@@@2@PBV12@@Z 10003560 f i ServerStage.obj
 0001:00002590       ??0const_iterator@?$_Tree@V?$_Tmap_traits@IPAUtagClientNode@CIOCPServer@@U?$less@I@std@@V?$allocator@U?$pair@$$CBIPAUtagClientNode@CIOCPServer@@@std@@@4@$0A@@std@@@std@@QAE@XZ 10003590 f i ServerStage.obj
 0001:000025a0       ??Dconst_iterator@?$_Tree@V?$_Tmap_traits@IPAUtagClientNode@CIOCPServer@@U?$less@I@std@@V?$allocator@U?$pair@$$CBIPAUtagClientNode@CIOCPServer@@@std@@@4@$0A@@std@@@std@@QBEABU?$pair@$$CBIPAUtagClientNode@CIOCPServer@@@2@XZ 100035a0 f i ServerStage.obj
 0001:000025d0       ?_Eos@?$basic_string@DU?$char_traits@D@std@@V?$allocator@D@2@@std@@IAEXI@Z 100035d0 f i ServerStage.obj
 0001:000025f0       ?allocate@?$allocator@I@std@@QAEPAII@Z 100035f0 f i ServerStage.obj
 0001:00002610       ?construct@?$allocator@I@std@@QAEXPAIABI@Z 10003610 f i ServerStage.obj
 0001:00002630       ?destroy@?$allocator@I@std@@QAEXPAI@Z 10003630 f i ServerStage.obj
 0001:00002640       ?_Lbound@?$_Tree@V?$_Tmap_traits@IPAUtagClientNode@CIOCPServer@@U?$less@I@std@@V?$allocator@U?$pair@$$CBIPAUtagClientNode@CIOCPServer@@@std@@@4@$0A@@std@@@std@@IBEPAU_Node@?$_Tree_nod@V?$_Tmap_traits@IPAUtagClientNode@CIOCPServer@@U?$less@I@std@@V?$allocator@U?$pair@$$CBIPAUtagClientNode@CIOCPServer@@@std@@@4@$0A@@std@@@2@ABI@Z 10003640 f i ServerStage.obj
 0001:00002670       ?_Lrotate@?$_Tree@V?$_Tmap_traits@IPAUtagClientNode@CIOCPServer@@U?$less@I@std@@V?$allocator@U?$pair@$$CBIPAUtagClientNode@CIOCPServer@@@std@@@4@$0A@@std@@@std@@IAEXPAU_Node@?$_Tree_nod@V?$_Tmap_traits@IPAUtagClientNode@CIOCPServer@@U?$less@I@std@@V?$allocator@U?$pair@$$CBIPAUtagClientNode@CIOCPServer@@@std@@@4@$0A@@std@@@2@@Z 10003670 f i ServerStage.obj
 0001:000026c0       ?destroy@?$allocator@U_Node@?$_Tree_nod@V?$_Tmap_traits@IPAUtagClientNode@CIOCPServer@@U?$less@I@std@@V?$allocator@U?$pair@$$CBIPAUtagClientNode@CIOCPServer@@@std@@@4@$0A@@std@@@std@@@std@@QAEXPAU_Node@?$_Tree_nod@V?$_Tmap_traits@IPAUtagClientNode@CIOCPServer@@U?$less@I@std@@V?$allocator@U?$pair@$$CBIPAUtagClientNode@CIOCPServer@@@std@@@4@$0A@@std@@@2@@Z 100036c0 f i ServerStage.obj
 0001:000026d0       ?destroy@?$allocator@PAU_Node@?$_Tree_nod@V?$_Tmap_traits@IPAUtagClientNode@CIOCPServer@@U?$less@I@std@@V?$allocator@U?$pair@$$CBIPAUtagClientNode@CIOCPServer@@@std@@@4@$0A@@std@@@std@@@std@@QAEXPAPAU_Node@?$_Tree_nod@V?$_Tmap_traits@IPAUtagClientNode@CIOCPServer@@U?$less@I@std@@V?$allocator@U?$pair@$$CBIPAUtagClientNode@CIOCPServer@@@std@@@4@$0A@@std@@@2@@Z 100036d0 f i ServerStage.obj
 0001:000026e0       ?pop_back@?$deque@IV?$allocator@I@std@@@std@@QAEXXZ 100036e0 f i ServerStage.obj
 0001:00002700       ?destroy@?$allocator@PAI@std@@QAEXPAPAI@Z 10003700 f i ServerStage.obj
 0001:00002710       ?allocate@?$allocator@U_Node@?$_List_nod@IV?$allocator@I@std@@@std@@@std@@QAEPAU_Node@?$_List_nod@IV?$allocator@I@std@@@2@I@Z 10003710 f i ServerStage.obj
 0001:00002730       ?destroy@?$allocator@U_Node@?$_List_nod@IV?$allocator@I@std@@@std@@@std@@QAEXPAU_Node@?$_List_nod@IV?$allocator@I@std@@@2@@Z 10003730 f i ServerStage.obj
 0001:00002740       ?construct@?$allocator@PAU_Node@?$_List_nod@IV?$allocator@I@std@@@std@@@std@@QAEXPAPAU_Node@?$_List_nod@IV?$allocator@I@std@@@2@ABQAU342@@Z 10003740 f i ServerStage.obj
 0001:00002760       ?destroy@?$allocator@PAU_Node@?$_List_nod@IV?$allocator@I@std@@@std@@@std@@QAEXPAPAU_Node@?$_List_nod@IV?$allocator@I@std@@@2@@Z 10003760 f i ServerStage.obj
 0001:00002770       ?allocate@?$allocator@PAX@std@@QAEPAPAXI@Z 10003770 f i ServerStage.obj
 0001:00002790       ?construct@?$allocator@PAX@std@@QAEXPAPAXABQAX@Z 10003790 f i ServerStage.obj
 0001:000027b0       ?destroy@?$allocator@PAX@std@@QAEXPAPAX@Z 100037b0 f i ServerStage.obj
 0001:000027c0       ?destroy@?$allocator@PAPAX@std@@QAEXPAPAPAX@Z 100037c0 f i ServerStage.obj
 0001:000027d0       ??Econst_iterator@?$_Tree@V?$_Tmap_traits@IPAUtagClientNode@CIOCPServer@@U?$less@I@std@@V?$allocator@U?$pair@$$CBIPAUtagClientNode@CIOCPServer@@@std@@@4@$0A@@std@@@std@@QAEAAV012@XZ 100037d0 f i ServerStage.obj
 0001:000027e0       ??D?$_Deque_iterator@IV?$allocator@I@std@@$00@std@@QBEAAIXZ 100037e0 f i ServerStage.obj
 0001:00002830       ??D?$_Deque_iterator@PAXV?$allocator@PAX@std@@$00@std@@QBEAAPAXXZ 10003830 f i ServerStage.obj
 0001:00002880       ?max_size@?$basic_string@DU?$char_traits@D@std@@V?$allocator@D@2@@std@@QBEIXZ 10003880 f i ServerStage.obj
 0001:00002890       ?max_size@?$_Tree@V?$_Tmap_traits@IPAUtagClientNode@CIOCPServer@@U?$less@I@std@@V?$allocator@U?$pair@$$CBIPAUtagClientNode@CIOCPServer@@@std@@@4@$0A@@std@@@std@@QBEIXZ 10003890 f i ServerStage.obj
 0001:000028a0       ?max_size@?$deque@IV?$allocator@I@std@@@std@@QBEIXZ 100038a0 f i ServerStage.obj
 0001:000028b0       ??0?$_Deque_map@IV?$allocator@I@std@@@std@@IAE@V?$allocator@I@1@@Z 100038b0 f i ServerStage.obj
 0001:000028c0       ?allocate@?$allocator@PAI@std@@QAEPAPAII@Z 100038c0 f i ServerStage.obj
 0001:000028e0       ?max_size@?$list@IV?$allocator@I@std@@@std@@QBEIXZ 100038e0 f i ServerStage.obj
 0001:000028f0       ??0?$_List_nod@IV?$allocator@I@std@@@std@@IAE@V?$allocator@I@1@@Z 100038f0 f i ServerStage.obj
 0001:00002900       ?max_size@?$deque@PAXV?$allocator@PAX@std@@@std@@QBEIXZ 10003900 f i ServerStage.obj
 0001:00002910       ??0?$_Deque_map@PAXV?$allocator@PAX@std@@@std@@IAE@V?$allocator@PAX@1@@Z 10003910 f i ServerStage.obj
 0001:00002920       ?allocate@?$allocator@PAPAX@std@@QAEPAPAPAXI@Z 10003920 f i ServerStage.obj
 0001:00002940       ??Fconst_iterator@?$_Tree@V?$_Tmap_traits@IPAUtagClientNode@CIOCPServer@@U?$less@I@std@@V?$allocator@U?$pair@$$CBIPAUtagClientNode@CIOCPServer@@@std@@@4@$0A@@std@@@std@@QAEAAV012@XZ 10003940 f i ServerStage.obj
 0001:00002950       ??0?$_Deque_iterator@PAXV?$allocator@PAX@std@@$00@std@@QAE@IPBU_Container_base@1@@Z 10003950 f i ServerStage.obj
 0001:00002990       ??0?$_Deque_const_iterator@PAXV?$allocator@PAX@std@@$00@std@@QAE@ABV01@@Z 10003990 f i ServerStage.obj
 0001:000029b0       ?allocate@?$allocator@D@std@@QAEPADI@Z 100039b0 f i ServerStage.obj
 0001:000029d0       ??0?$_Tree_nod@V?$_Tmap_traits@IPAUtagClientNode@CIOCPServer@@U?$less@I@std@@V?$allocator@U?$pair@$$CBIPAUtagClientNode@CIOCPServer@@@std@@@4@$0A@@std@@@std@@IAE@ABU?$less@I@1@V?$allocator@U?$pair@$$CBIPAUtagClientNode@CIOCPServer@@@std@@@1@@Z 100039d0 f i ServerStage.obj
 0001:000029e0       ?allocate@?$allocator@U_Node@?$_Tree_nod@V?$_Tmap_traits@IPAUtagClientNode@CIOCPServer@@U?$less@I@std@@V?$allocator@U?$pair@$$CBIPAUtagClientNode@CIOCPServer@@@std@@@4@$0A@@std@@@std@@@std@@QAEPAU_Node@?$_Tree_nod@V?$_Tmap_traits@IPAUtagClientNode@CIOCPServer@@U?$less@I@std@@V?$allocator@U?$pair@$$CBIPAUtagClientNode@CIOCPServer@@@std@@@4@$0A@@std@@@2@I@Z 100039e0 f i ServerStage.obj
 0001:00002a00       ?construct@?$allocator@PAU_Node@?$_Tree_nod@V?$_Tmap_traits@IPAUtagClientNode@CIOCPServer@@U?$less@I@std@@V?$allocator@U?$pair@$$CBIPAUtagClientNode@CIOCPServer@@@std@@@4@$0A@@std@@@std@@@std@@QAEXPAPAU_Node@?$_Tree_nod@V?$_Tmap_traits@IPAUtagClientNode@CIOCPServer@@U?$less@I@std@@V?$allocator@U?$pair@$$CBIPAUtagClientNode@CIOCPServer@@@std@@@4@$0A@@std@@@2@ABQAU342@@Z 10003a00 f i ServerStage.obj
 0001:00002a20       ??0?$_Deque_const_iterator@IV?$allocator@I@std@@$00@std@@QAE@IPBU_Container_base@1@@Z 10003a20 f i ServerStage.obj
 0001:00002a60       ??Y?$_Deque_iterator@PAXV?$allocator@PAX@std@@$00@std@@QAEAAV01@H@Z 10003a60 f i ServerStage.obj
 0001:00002aa0       ??$copy_s@U?$char_traits@D@std@@@_Traits_helper@std@@YAPADPADIPBDI@Z 10003aa0 f i ServerStage.obj
 0001:00002ad0       ??$move_s@U?$char_traits@D@std@@@_Traits_helper@std@@YAPADPADIPBDI@Z 10003ad0 f i ServerStage.obj
 0001:00002b00       ??$_Destroy_range@PAIV?$allocator@PAI@std@@@std@@YAXPAPAI0AAV?$allocator@PAI@0@@Z 10003b00 f i ServerStage.obj
 0001:00002b10       ??$_Destroy_range@PAPAXV?$allocator@PAPAX@std@@@std@@YAXPAPAPAX0AAV?$allocator@PAPAX@0@@Z 10003b10 f i ServerStage.obj
 0001:00002b20       ??0?$_Outit_with_base@U_Iterator_base@std@@@std@@QAE@XZ 10003b20 f i ServerStage.obj
 0001:00002b30       ??$_Checked_base@PAPAI@std@@YAPAPAIAAPAPAI@Z 10003b30 f i ServerStage.obj
 0001:00002b40       ??$_Checked_base@PAPAPAX@std@@YAPAPAPAXAAPAPAPAX@Z 10003b40 f i ServerStage.obj
 0001:00002b50       ??$_Fill_n@PAPAIIPAI@std@@YAXPAPAIIABQAIUrandom_access_iterator_tag@0@U_Range_checked_iterator_tag@0@@Z 10003b50 f i ServerStage.obj
 0001:00002b80       ??$_Fill_n@PAPAPAXIPAPAX@std@@YAXPAPAPAXIABQAPAXUrandom_access_iterator_tag@0@U_Range_checked_iterator_tag@0@@Z 10003b80 f i ServerStage.obj
 0001:00002bb0       ??0strstreambuf@std@@QAE@H@Z 10003bb0 f i ServerStage.obj
 0001:00002c00       ?egptr@?$basic_streambuf@DU?$char_traits@D@std@@@std@@IBEPADXZ 10003c00 f i ServerStage.obj
 0001:00002c10       ??B?$fpos@H@std@@QBEJXZ    10003c10 f i ServerStage.obj
 0001:00002c20       ?overflow@strstreambuf@std@@MAEHH@Z 10003c20 f i ServerStage.obj
 0001:00002de0       ?pbackfail@strstreambuf@std@@MAEHH@Z 10003de0 f i ServerStage.obj
 0001:00002e30       ?underflow@strstreambuf@std@@MAEHXZ 10003e30 f i ServerStage.obj
 0001:00002e90       ?seekoff@strstreambuf@std@@MAE?AV?$fpos@H@2@JHH@Z 10003e90 f i ServerStage.obj
 0001:00002ff0       ?seekpos@strstreambuf@std@@MAE?AV?$fpos@H@2@V32@H@Z 10003ff0 f i ServerStage.obj
 0001:000030c0       ??1strstreambuf@std@@UAE@XZ 100040c0 f i ServerStage.obj
 0001:00003150       ??_Estrstreambuf@std@@UAEPAXI@Z 10004150 f i ServerStage.obj
 0001:00003150       ??_Gstrstreambuf@std@@UAEPAXI@Z 10004150 f i ServerStage.obj
 0001:00003170       ??1strstream@std@@UAE@XZ   10004170 f i ServerStage.obj
 0001:00003200       ??_Dstrstream@std@@QAEXXZ  10004200 f i ServerStage.obj
 0001:00003220       _CreateInterface@8         10004220 f   ServerStage.obj
 0001:00003280       ?_Xsgetn_s@?$basic_streambuf@DU?$char_traits@D@std@@@std@@MAEHPADIH@Z 10004280 f i ServerStage.obj
 0001:00003320       ?xsputn@?$basic_streambuf@DU?$char_traits@D@std@@@std@@MAEHPBDH@Z 10004320 f i ServerStage.obj
 0001:000033c0       ?begin@?$_Tree@V?$_Tmap_traits@IPAUtagClientNode@CIOCPServer@@U?$less@I@std@@V?$allocator@U?$pair@$$CBIPAUtagClientNode@CIOCPServer@@@std@@@4@$0A@@std@@@std@@QAE?AViterator@12@XZ 100043c0 f i ServerStage.obj
 0001:000033e0       ?end@?$_Tree@V?$_Tmap_traits@IPAUtagClientNode@CIOCPServer@@U?$less@I@std@@V?$allocator@U?$pair@$$CBIPAUtagClientNode@CIOCPServer@@@std@@@4@$0A@@std@@@std@@QAE?AViterator@12@XZ 100043e0 f i ServerStage.obj
 0001:000033f0       ?begin@?$list@IV?$allocator@I@std@@@std@@QAE?AV?$_Iterator@$00@12@XZ 100043f0 f i ServerStage.obj
 0001:00003410       ?end@?$list@IV?$allocator@I@std@@@std@@QAE?AV?$_Iterator@$00@12@XZ 10004410 f i ServerStage.obj
 0001:00003420       ??0?$_Iterator@$00@?$list@IV?$allocator@I@std@@@std@@QAE@XZ 10004420 f i ServerStage.obj
 0001:00003430       ??D?$_Iterator@$00@?$list@IV?$allocator@I@std@@@std@@QBEAAIXZ 10004430 f i ServerStage.obj
 0001:00003460       ??E?$_Iterator@$00@?$list@IV?$allocator@I@std@@@std@@QAE?AV012@H@Z 10004460 f i ServerStage.obj
 0001:000034a0       ??0iterator@?$_Tree@V?$_Tmap_traits@IPAUtagClientNode@CIOCPServer@@U?$less@I@std@@V?$allocator@U?$pair@$$CBIPAUtagClientNode@CIOCPServer@@@std@@@4@$0A@@std@@@std@@QAE@XZ 100044a0 f i ServerStage.obj
 0001:000034b0       ??Diterator@?$_Tree@V?$_Tmap_traits@IPAUtagClientNode@CIOCPServer@@U?$less@I@std@@V?$allocator@U?$pair@$$CBIPAUtagClientNode@CIOCPServer@@@std@@@4@$0A@@std@@@std@@QBEAAU?$pair@$$CBIPAUtagClientNode@CIOCPServer@@@2@XZ 100044b0 f i ServerStage.obj
 0001:000034e0       ?_Tidy@?$basic_string@DU?$char_traits@D@std@@V?$allocator@D@2@@std@@IAEX_NI@Z 100044e0 f i ServerStage.obj
 0001:00003530       ?lower_bound@?$_Tree@V?$_Tmap_traits@IPAUtagClientNode@CIOCPServer@@U?$less@I@std@@V?$allocator@U?$pair@$$CBIPAUtagClientNode@CIOCPServer@@@std@@@4@$0A@@std@@@std@@QAE?AViterator@12@ABI@Z 10004530 f i ServerStage.obj
 0001:00003570       ?pop_front@?$deque@IV?$allocator@I@std@@@std@@QAEXXZ 10004570 f i ServerStage.obj
 0001:000035b0       ?_Tidy@?$deque@IV?$allocator@I@std@@@std@@IAEXXZ 100045b0 f i ServerStage.obj
 0001:00003620       ?erase@?$list@IV?$allocator@I@std@@@std@@QAE?AV?$_Iterator@$00@12@V312@@Z 10004620 f i ServerStage.obj
 0001:00003680       ?clear@?$list@IV?$allocator@I@std@@@std@@QAEXXZ 10004680 f i ServerStage.obj
 0001:000036c0       ?_Buynode@?$list@IV?$allocator@I@std@@@std@@IAEPAU_Node@?$_List_nod@IV?$allocator@I@std@@@2@XZ 100046c0 f i ServerStage.obj
 0001:000036e0       ?_Tidy@?$list@IV?$allocator@I@std@@@std@@IAEXXZ 100046e0 f i ServerStage.obj
 0001:00003730       ?pop_back@?$deque@PAXV?$allocator@PAX@std@@@std@@QAEXXZ 10004730 f i ServerStage.obj
 0001:00003750       ?_Tidy@?$deque@PAXV?$allocator@PAX@std@@@std@@IAEXXZ 10004750 f i ServerStage.obj
 0001:000037c0       ??Eiterator@?$_Tree@V?$_Tmap_traits@IPAUtagClientNode@CIOCPServer@@U?$less@I@std@@V?$allocator@U?$pair@$$CBIPAUtagClientNode@CIOCPServer@@@std@@@4@$0A@@std@@@std@@QAEAAV012@XZ 100047c0 f i ServerStage.obj
 0001:000037d0       ?erase@?$basic_string@DU?$char_traits@D@std@@V?$allocator@D@2@@std@@QAEAAV12@II@Z 100047d0 f i ServerStage.obj
 0001:00003860       ?_Erase@?$_Tree@V?$_Tmap_traits@IPAUtagClientNode@CIOCPServer@@U?$less@I@std@@V?$allocator@U?$pair@$$CBIPAUtagClientNode@CIOCPServer@@@std@@@4@$0A@@std@@@std@@IAEXPAU_Node@?$_Tree_nod@V?$_Tmap_traits@IPAUtagClientNode@CIOCPServer@@U?$less@I@std@@V?$allocator@U?$pair@$$CBIPAUtagClientNode@CIOCPServer@@@std@@@4@$0A@@std@@@2@@Z 10004860 f i ServerStage.obj
 0001:000038a0       ??0?$_Deque_val@IV?$allocator@I@std@@@std@@IAE@V?$allocator@I@1@@Z 100048a0 f i ServerStage.obj
 0001:000038b0       ?_Buynode@?$list@IV?$allocator@I@std@@@std@@IAEPAU_Node@?$_List_nod@IV?$allocator@I@std@@@2@PAU342@0ABI@Z 100048b0 f i ServerStage.obj
 0001:000038f0       ??0?$_List_ptr@IV?$allocator@I@std@@@std@@IAE@V?$allocator@I@1@@Z 100048f0 f i ServerStage.obj
 0001:00003900       ?end@?$deque@PAXV?$allocator@PAX@std@@@std@@QAE?AV?$_Deque_iterator@PAXV?$allocator@PAX@std@@$00@2@XZ 10004900 f i ServerStage.obj
 0001:00003930       ??0?$_Deque_val@PAXV?$allocator@PAX@std@@@std@@IAE@V?$allocator@PAX@1@@Z 10004930 f i ServerStage.obj
 0001:00003940       ??Fiterator@?$_Tree@V?$_Tmap_traits@IPAUtagClientNode@CIOCPServer@@U?$less@I@std@@V?$allocator@U?$pair@$$CBIPAUtagClientNode@CIOCPServer@@@std@@@4@$0A@@std@@@std@@QAEAAV012@XZ 10004940 f i ServerStage.obj
 0001:00003950       ??0?$_Deque_iterator@PAXV?$allocator@PAX@std@@$00@std@@QAE@ABV01@@Z 10004950 f i ServerStage.obj
 0001:00003970       ?_Copy@?$basic_string@DU?$char_traits@D@std@@V?$allocator@D@2@@std@@IAEXII@Z 10004970 f i ServerStage.obj
 0001:00003ac0       ?_Buynode@?$_Tree@V?$_Tmap_traits@IPAUtagClientNode@CIOCPServer@@U?$less@I@std@@V?$allocator@U?$pair@$$CBIPAUtagClientNode@CIOCPServer@@@std@@@4@$0A@@std@@@std@@IAEPAU_Node@?$_Tree_nod@V?$_Tmap_traits@IPAUtagClientNode@CIOCPServer@@U?$less@I@std@@V?$allocator@U?$pair@$$CBIPAUtagClientNode@CIOCPServer@@@std@@@4@$0A@@std@@@2@XZ 10004ac0 f i ServerStage.obj
 0001:00003b00       ?_Buynode@?$_Tree@V?$_Tmap_traits@IPAUtagClientNode@CIOCPServer@@U?$less@I@std@@V?$allocator@U?$pair@$$CBIPAUtagClientNode@CIOCPServer@@@std@@@4@$0A@@std@@@std@@IAEPAU_Node@?$_Tree_nod@V?$_Tmap_traits@IPAUtagClientNode@CIOCPServer@@U?$less@I@std@@V?$allocator@U?$pair@$$CBIPAUtagClientNode@CIOCPServer@@@std@@@4@$0A@@std@@@2@PAU342@00ABU?$pair@$$CBIPAUtagClientNode@CIOCPServer@@@2@D@Z 10004b00 f i ServerStage.obj
 0001:00003b40       ??0?$_Tree_ptr@V?$_Tmap_traits@IPAUtagClientNode@CIOCPServer@@U?$less@I@std@@V?$allocator@U?$pair@$$CBIPAUtagClientNode@CIOCPServer@@@std@@@4@$0A@@std@@@std@@IAE@ABU?$less@I@1@V?$allocator@U?$pair@$$CBIPAUtagClientNode@CIOCPServer@@@std@@@1@@Z 10004b40 f i ServerStage.obj
 0001:00003b50       ??0?$_Deque_iterator@IV?$allocator@I@std@@$00@std@@QAE@IPBU_Container_base@1@@Z 10004b50 f i ServerStage.obj
 0001:00003b90       ??Z?$_Deque_iterator@PAXV?$allocator@PAX@std@@$00@std@@QAEAAV01@H@Z 10004b90 f i ServerStage.obj
 0001:00003bd0       ??$unchecked_uninitialized_copy@PAPAIPAPAIV?$allocator@PAI@std@@@stdext@@YAPAPAIPAPAI00AAV?$allocator@PAI@std@@@Z 10004bd0 f i ServerStage.obj
 0001:00003c00       ??$unchecked_uninitialized_copy@PAPAPAXPAPAPAXV?$allocator@PAPAX@std@@@stdext@@YAPAPAPAXPAPAPAX00AAV?$allocator@PAPAX@std@@@Z 10004c00 f i ServerStage.obj
 0001:00003c30       ??0?$ostreambuf_iterator@DU?$char_traits@D@std@@@std@@QAE@PAV?$basic_streambuf@DU?$char_traits@D@std@@@1@@Z 10004c30 f i ServerStage.obj
 0001:00003c50       ??$unchecked_fill_n@PAPAIIPAI@stdext@@YAXPAPAIIABQAI@Z 10004c50 f i ServerStage.obj
 0001:00003c80       ??$unchecked_fill_n@PAPAPAXIPAPAX@stdext@@YAXPAPAPAXIABQAPAX@Z 10004c80 f i ServerStage.obj
 0001:00003cb0       ??_Gstrstream@std@@UAEPAXI@Z 10004cb0 f i ServerStage.obj
 0001:00003cb0       ??_Estrstream@std@@UAEPAXI@Z 10004cb0 f i ServerStage.obj
 0001:00003cf0       ??0?$basic_string@DU?$char_traits@D@std@@V?$allocator@D@2@@std@@QAE@XZ 10004cf0 f i ServerStage.obj
 0001:00003d10       ??1?$basic_string@DU?$char_traits@D@std@@V?$allocator@D@2@@std@@QAE@XZ 10004d10 f i ServerStage.obj
 0001:00003d40       ?pop@?$queue@IV?$deque@IV?$allocator@I@std@@@std@@@std@@QAEXXZ 10004d40 f i ServerStage.obj
 0001:00003d80       ??1?$deque@IV?$allocator@I@std@@@std@@QAE@XZ 10004d80 f i ServerStage.obj
 0001:00003d90       ??1?$list@IV?$allocator@I@std@@@std@@QAE@XZ 10004d90 f i ServerStage.obj
 0001:00003da0       ?erase@?$list@IV?$allocator@I@std@@@std@@QAE?AV?$_Iterator@$00@12@V312@0@Z 10004da0 f i ServerStage.obj
 0001:00003e70       ?remove@?$list@IV?$allocator@I@std@@@std@@QAEXABI@Z 10004e70 f i ServerStage.obj
 0001:00003f10       ?pop@?$stack@PAXV?$deque@PAXV?$allocator@PAX@std@@@std@@@std@@QAEXXZ 10004f10 f i ServerStage.obj
 0001:00003f30       ??1?$deque@PAXV?$allocator@PAX@std@@@std@@QAE@XZ 10004f30 f i ServerStage.obj
 0001:00003f40       ??Eiterator@?$_Tree@V?$_Tmap_traits@IPAUtagClientNode@CIOCPServer@@U?$less@I@std@@V?$allocator@U?$pair@$$CBIPAUtagClientNode@CIOCPServer@@@std@@@4@$0A@@std@@@std@@QAE?AV012@H@Z 10004f40 f i ServerStage.obj
 0001:00003f60       ?clear@?$_Tree@V?$_Tmap_traits@IPAUtagClientNode@CIOCPServer@@U?$less@I@std@@V?$allocator@U?$pair@$$CBIPAUtagClientNode@CIOCPServer@@@std@@@4@$0A@@std@@@std@@QAEXXZ 10004f60 f i ServerStage.obj
 0001:00003f90       ??0?$deque@IV?$allocator@I@std@@@std@@QAE@XZ 10004f90 f i ServerStage.obj
 0001:00003fb0       ??0?$_List_val@IV?$allocator@I@std@@@std@@QAE@V?$allocator@I@1@@Z 10004fb0 f i ServerStage.obj
 0001:00003fc0       ??0?$deque@PAXV?$allocator@PAX@std@@@std@@QAE@XZ 10004fc0 f i ServerStage.obj
 0001:00003fe0       ?_Grow@?$basic_string@DU?$char_traits@D@std@@V?$allocator@D@2@@std@@IAE_NI_N@Z 10004fe0 f i ServerStage.obj
 0001:000040a0       ?_Init@?$_Tree@V?$_Tmap_traits@IPAUtagClientNode@CIOCPServer@@U?$less@I@std@@V?$allocator@U?$pair@$$CBIPAUtagClientNode@CIOCPServer@@@std@@@4@$0A@@std@@@std@@IAEXXZ 100050a0 f i ServerStage.obj
 0001:000040d0       ??0?$_Tree_val@V?$_Tmap_traits@IPAUtagClientNode@CIOCPServer@@U?$less@I@std@@V?$allocator@U?$pair@$$CBIPAUtagClientNode@CIOCPServer@@@std@@@4@$0A@@std@@@std@@IAE@ABU?$less@I@1@V?$allocator@U?$pair@$$CBIPAUtagClientNode@CIOCPServer@@@std@@@1@@Z 100050d0 f i ServerStage.obj
 0001:000040e0       ?begin@?$deque@IV?$allocator@I@std@@@std@@QAE?AV?$_Deque_iterator@IV?$allocator@I@std@@$00@2@XZ 100050e0 f i ServerStage.obj
 0001:00004110       ??G?$_Deque_iterator@PAXV?$allocator@PAX@std@@$00@std@@QBE?AV01@H@Z 10005110 f i ServerStage.obj
 0001:00004160       ?append@?$basic_string@DU?$char_traits@D@std@@V?$allocator@D@2@@std@@QAEAAV12@ABV12@II@Z 10005160 f i ServerStage.obj
 0001:00004260       ?append@?$basic_string@DU?$char_traits@D@std@@V?$allocator@D@2@@std@@QAEAAV12@PBDI@Z 10005260 f i ServerStage.obj
 0001:00004350       ??$_Uninit_fill_n@PAPAIIPAIV?$allocator@PAI@std@@@std@@YAXPAPAIIABQAIAAV?$allocator@PAI@0@U_Scalar_ptr_iterator_tag@0@U_Range_checked_iterator_tag@0@@Z 10005350 f i ServerStage.obj
 0001:00004380       ??$_Uninit_fill_n@PAPAPAXIPAPAXV?$allocator@PAPAX@std@@@std@@YAXPAPAPAXIABQAPAXAAV?$allocator@PAPAX@0@U_Scalar_ptr_iterator_tag@0@U_Range_checked_iterator_tag@0@@Z 10005380 f i ServerStage.obj
 0001:000043b0       ??1logic_error@std@@UAE@XZ 100053b0 f i ServerStage.obj
 0001:000043f0       ?what@logic_error@std@@UBEPBDXZ 100053f0 f i ServerStage.obj
 0001:00004400       ??_Glogic_error@std@@UAEPAXI@Z 10005400 f i ServerStage.obj
 0001:00004400       ??_Elogic_error@std@@UAEPAXI@Z 10005400 f i ServerStage.obj
 0001:00004450       ??1runtime_error@std@@UAE@XZ 10005450 f i ServerStage.obj
 0001:00004490       ?what@runtime_error@std@@UBEPBDXZ 10005490 f i ServerStage.obj
 0001:000044a0       ??_Eruntime_error@std@@UAEPAXI@Z 100054a0 f i ServerStage.obj
 0001:000044a0       ??_Gruntime_error@std@@UAEPAXI@Z 100054a0 f i ServerStage.obj
 0001:000044f0       ??1_Locinfo@std@@QAE@XZ    100054f0 f i ServerStage.obj
 0001:000045d0       ??1?$stack@PAXV?$deque@PAXV?$allocator@PAX@std@@@std@@@std@@QAE@XZ 100055d0 f i ServerStage.obj
 0001:000045e0       ??1?$queue@IV?$deque@IV?$allocator@I@std@@@std@@@std@@QAE@XZ 100055e0 f i ServerStage.obj
 0001:000045f0       ??1CSocketAddress@Win32@OnlineGameLib@@QAE@XZ 100055f0 f i ServerStage.obj
 0001:00004620       ??1CPerConnectionData@@QAE@XZ 10005620 f i ServerStage.obj
 0001:00004650       ??0?$queue@IV?$deque@IV?$allocator@I@std@@@std@@@std@@QAE@XZ 10005650 f i ServerStage.obj
 0001:00004670       ??0?$list@IV?$allocator@I@std@@@std@@QAE@XZ 10005670 f i ServerStage.obj
 0001:00004690       ??0?$stack@PAXV?$deque@PAXV?$allocator@PAX@std@@@std@@@std@@QAE@XZ 10005690 f i ServerStage.obj
 0001:000046b0       ?assign@?$basic_string@DU?$char_traits@D@std@@V?$allocator@D@2@@std@@QAEAAV12@ABV12@II@Z 100056b0 f i ServerStage.obj
 0001:00004790       ??0?$_Tree@V?$_Tmap_traits@IPAUtagClientNode@CIOCPServer@@U?$less@I@std@@V?$allocator@U?$pair@$$CBIPAUtagClientNode@CIOCPServer@@@std@@@4@$0A@@std@@@std@@QAE@ABU?$less@I@1@ABV?$allocator@U?$pair@$$CBIPAUtagClientNode@CIOCPServer@@@std@@@1@@Z 10005790 f i ServerStage.obj
 0001:000047c0       ?front@?$deque@IV?$allocator@I@std@@@std@@QAEAAIXZ 100057c0 f i ServerStage.obj
 0001:00004810       ?back@?$deque@PAXV?$allocator@PAX@std@@@std@@QAEAAPAXXZ 10005810 f i ServerStage.obj
 0001:00004870       ?assign@?$basic_string@DU?$char_traits@D@std@@V?$allocator@D@2@@std@@QAEAAV12@PBDI@Z 10005870 f i ServerStage.obj
 0001:00004940       ??$unchecked_uninitialized_fill_n@PAPAIIPAIV?$allocator@PAI@std@@@stdext@@YAXPAPAIIABQAIAAV?$allocator@PAI@std@@@Z 10005940 f i ServerStage.obj
 0001:00004970       ??$unchecked_uninitialized_fill_n@PAPAPAXIPAPAXV?$allocator@PAPAX@std@@@stdext@@YAXPAPAPAXIABQAPAXAAV?$allocator@PAPAX@std@@@Z 10005970 f i ServerStage.obj
 0001:000049a0       ?append@?$basic_string@DU?$char_traits@D@std@@V?$allocator@D@2@@std@@QAEAAV12@ABV12@@Z 100059a0 f i ServerStage.obj
 0001:000049c0       ?append@?$basic_string@DU?$char_traits@D@std@@V?$allocator@D@2@@std@@QAEAAV12@PBD@Z 100059c0 f i ServerStage.obj
 0001:000049f0       ??1CTaskQueue@CIOCPServer@@QAE@XZ 100059f0 f   ServerStage.obj
 0001:00004a40       ??0CTaskQueue@CIOCPServer@@QAE@XZ 10005a40 f i ServerStage.obj
 0001:00004a60       ??_GCPerConnectionData@@QAEPAXI@Z 10005a60 f i ServerStage.obj
 0001:00004aa0       ??0?$basic_string@DU?$char_traits@D@std@@V?$allocator@D@2@@std@@QAE@ABV01@@Z 10005aa0 f i ServerStage.obj
 0001:00004ad0       ?front@?$queue@IV?$deque@IV?$allocator@I@std@@@std@@@std@@QAEAAIXZ 10005ad0 f i ServerStage.obj
 0001:00004b20       ?top@?$stack@PAXV?$deque@PAXV?$allocator@PAX@std@@@std@@@std@@QAEAAPAXXZ 10005b20 f i ServerStage.obj
 0001:00004b30       ?assign@?$basic_string@DU?$char_traits@D@std@@V?$allocator@D@2@@std@@QAEAAV12@PBD@Z 10005b30 f i ServerStage.obj
 0001:00004b60       ??Y?$basic_string@DU?$char_traits@D@std@@V?$allocator@D@2@@std@@QAEAAV01@ABV01@@Z 10005b60 f i ServerStage.obj
 0001:00004b80       ??Y?$basic_string@DU?$char_traits@D@std@@V?$allocator@D@2@@std@@QAEAAV01@PBD@Z 10005b80 f i ServerStage.obj
 0001:00004bb0       ??0logic_error@std@@QAE@ABV?$basic_string@DU?$char_traits@D@std@@V?$allocator@D@2@@1@@Z 10005bb0 f i ServerStage.obj
 0001:00004c20       ??0length_error@std@@QAE@ABV?$basic_string@DU?$char_traits@D@std@@V?$allocator@D@2@@1@@Z 10005c20 f i ServerStage.obj
 0001:00004c40       ??1length_error@std@@UAE@XZ 10005c40 f i ServerStage.obj
 0001:00004c80       ??_Elength_error@std@@UAEPAXI@Z 10005c80 f i ServerStage.obj
 0001:00004c80       ??_Glength_error@std@@UAEPAXI@Z 10005c80 f i ServerStage.obj
 0001:00004cd0       ??0out_of_range@std@@QAE@ABV?$basic_string@DU?$char_traits@D@std@@V?$allocator@D@2@@1@@Z 10005cd0 f i ServerStage.obj
 0001:00004cf0       ??1out_of_range@std@@UAE@XZ 10005cf0 f i ServerStage.obj
 0001:00004d30       ??_Gout_of_range@std@@UAEPAXI@Z 10005d30 f i ServerStage.obj
 0001:00004d30       ??_Eout_of_range@std@@UAEPAXI@Z 10005d30 f i ServerStage.obj
 0001:00004d80       ??0runtime_error@std@@QAE@ABV?$basic_string@DU?$char_traits@D@std@@V?$allocator@D@2@@1@@Z 10005d80 f i ServerStage.obj
 0001:00004df0       ??0failure@ios_base@std@@QAE@ABV?$basic_string@DU?$char_traits@D@std@@V?$allocator@D@2@@2@@Z 10005df0 f i ServerStage.obj
 0001:00004e10       ??1failure@ios_base@std@@UAE@XZ 10005e10 f i ServerStage.obj
 0001:00004e50       ??_Gfailure@ios_base@std@@UAEPAXI@Z 10005e50 f i ServerStage.obj
 0001:00004e50       ??_Efailure@ios_base@std@@UAEPAXI@Z 10005e50 f i ServerStage.obj
 0001:00004ea0       ??0CPerConnectionData@@QAE@ABV?$basic_string@DU?$char_traits@D@std@@V?$allocator@D@2@@std@@IABJ@Z 10005ea0 f i ServerStage.obj
 0001:00004ee0       ?GetConnectionDetails@CPerConnectionData@@QBE?AV?$basic_string@DU?$char_traits@D@std@@V?$allocator@D@2@@std@@XZ 10005ee0 f i ServerStage.obj
 0001:00004f10       ?Pop@CTaskQueue@CIOCPServer@@QAEPAXXZ 10005f10 f   ServerStage.obj
 0001:00004f60       ??0?$basic_string@DU?$char_traits@D@std@@V?$allocator@D@2@@std@@QAE@PBD@Z 10005f60 f i ServerStage.obj
 0001:00004fa0       ??4?$basic_string@DU?$char_traits@D@std@@V?$allocator@D@2@@std@@QAEAAV01@PBD@Z 10005fa0 f i ServerStage.obj
 0001:00004fd0       ?erase@?$_Tree@V?$_Tmap_traits@IPAUtagClientNode@CIOCPServer@@U?$less@I@std@@V?$allocator@U?$pair@$$CBIPAUtagClientNode@CIOCPServer@@@std@@@4@$0A@@std@@@std@@QAE?AViterator@12@V312@@Z 10005fd0 f i ServerStage.obj
 0001:00005290       ??0logic_error@std@@QAE@ABV01@@Z 10006290 f i ServerStage.obj
 0001:00005310       ?_Insert@?$_Tree@V?$_Tmap_traits@IPAUtagClientNode@CIOCPServer@@U?$less@I@std@@V?$allocator@U?$pair@$$CBIPAUtagClientNode@CIOCPServer@@@std@@@4@$0A@@std@@@std@@IAE?AViterator@12@_NPAU_Node@?$_Tree_nod@V?$_Tmap_traits@IPAUtagClientNode@CIOCPServer@@U?$less@I@std@@V?$allocator@U?$pair@$$CBIPAUtagClientNode@CIOCPServer@@@std@@@4@$0A@@std@@@2@ABU?$pair@$$CBIPAUtagClientNode@CIOCPServer@@@2@@Z 10006310 f i ServerStage.obj
 0001:00005510       ?_Incsize@?$list@IV?$allocator@I@std@@@std@@IAEXI@Z 10006510 f i ServerStage.obj
 0001:000055b0       ??0length_error@std@@QAE@ABV01@@Z 100065b0 f i ServerStage.obj
 0001:000055d0       ?_Xlen@?$deque@IV?$allocator@I@std@@@std@@KAXXZ 100065d0 f i ServerStage.obj
 0001:00005650       ?_Xlen@?$deque@PAXV?$allocator@PAX@std@@@std@@KAXXZ 10006650 f i ServerStage.obj
 0001:000056d0       ??$?HDU?$char_traits@D@std@@V?$allocator@D@1@@std@@YA?AV?$basic_string@DU?$char_traits@D@std@@V?$allocator@D@2@@0@PBDABV10@@Z 100066d0 f i ServerStage.obj
 0001:00005790       ??$?HDU?$char_traits@D@std@@V?$allocator@D@1@@std@@YA?AV?$basic_string@DU?$char_traits@D@std@@V?$allocator@D@2@@0@ABV10@PBD@Z 10006790 f i ServerStage.obj
 0001:00005850       ??$?HDU?$char_traits@D@std@@V?$allocator@D@1@@std@@YA?AV?$basic_string@DU?$char_traits@D@std@@V?$allocator@D@2@@0@ABV10@0@Z 10006850 f i ServerStage.obj
 0001:00005900       ??0_Locinfo@std@@QAE@PBD@Z 10006900 f i ServerStage.obj
 0001:000059d0       ??0runtime_error@std@@QAE@ABV01@@Z 100069d0 f i ServerStage.obj
 0001:00005a50       ??0out_of_range@std@@QAE@ABV01@@Z 10006a50 f i ServerStage.obj
 0001:00005a70       ??0?$ctype@D@std@@QAE@PBF_NI@Z 10006a70 f i ServerStage.obj
 0001:00005b70       ?do_tolower@?$ctype@D@std@@MBEDD@Z 10006b70 f i ServerStage.obj
 0001:00005b90       ?do_tolower@?$ctype@D@std@@MBEPBDPADPBD@Z 10006b90 f i ServerStage.obj
 0001:00005bc0       ?do_toupper@?$ctype@D@std@@MBEDD@Z 10006bc0 f i ServerStage.obj
 0001:00005be0       ?do_toupper@?$ctype@D@std@@MBEPBDPADPBD@Z 10006be0 f i ServerStage.obj
 0001:00005c10       ?do_widen@?$ctype@D@std@@MBEDD@Z 10006c10 f i ServerStage.obj
 0001:00005c20       ?do_widen@?$ctype@D@std@@MBEPBDPBD0PAD@Z 10006c20 f i ServerStage.obj
 0001:00005c50       ?_Do_widen_s@?$ctype@D@std@@MBEPBDPBD0PADI@Z 10006c50 f i ServerStage.obj
 0001:00005c90       ?do_narrow@?$ctype@D@std@@MBEDDD@Z 10006c90 f i ServerStage.obj
 0001:00005ca0       ?do_narrow@?$ctype@D@std@@MBEPBDPBD0DPAD@Z 10006ca0 f i ServerStage.obj
 0001:00005cd0       ?_Do_narrow_s@?$ctype@D@std@@MBEPBDPBD0DPADI@Z 10006cd0 f i ServerStage.obj
 0001:00005d10       ??1?$ctype@D@std@@MAE@XZ   10006d10 f i ServerStage.obj
 0001:00005d50       ??_G?$ctype@D@std@@MAEPAXI@Z 10006d50 f i ServerStage.obj
 0001:00005d50       ??_E?$ctype@D@std@@MAEPAXI@Z 10006d50 f i ServerStage.obj
 0001:00005da0       ?_Getcat@?$ctype@D@std@@SAIPAPBVfacet@locale@2@@Z 10006da0 f i ServerStage.obj
 0001:00005e20       ?clear@ios_base@std@@QAEXH_N@Z 10006e20 f i ServerStage.obj
 0001:00005f50       ??0failure@ios_base@std@@QAE@ABV012@@Z 10006f50 f i ServerStage.obj
 0001:00005f70       ?clear@ios_base@std@@QAEXH@Z 10006f70 f i ServerStage.obj
 0001:00005f80       ?_Init@ios_base@std@@IAEXXZ 10006f80 f i ServerStage.obj
 0001:00006000       ?Startup@CIOCPServer@@UAGJXZ 10007000 f   ServerStage.obj
 0001:00006130       ?Cleanup@CIOCPServer@@UAGJXZ 10007130 f   ServerStage.obj
 0001:00006260       ?OpenServiceA@CIOCPServer@@UAGJABKABG@Z 10007260 f   ServerStage.obj
 0001:000063a0       ?CloseService@CIOCPServer@@UAGJXZ 100073a0 f   ServerStage.obj
 0001:000064d0       ?_SendDataEx@CIOCPServer@@AAE_NPAUtagClientNode@1@QBXABI@Z 100074d0 f   ServerStage.obj
 0001:000066b0       ?erase@?$_Tree@V?$_Tmap_traits@IPAUtagClientNode@CIOCPServer@@U?$less@I@std@@V?$allocator@U?$pair@$$CBIPAUtagClientNode@CIOCPServer@@@std@@@4@$0A@@std@@@std@@QAE?AViterator@12@V312@0@Z 100076b0 f i ServerStage.obj
 0001:00006780       ?clear@?$basic_ios@DU?$char_traits@D@std@@@std@@QAEXH_N@Z 10007780 f i ServerStage.obj
 0001:000067a0       ?_Tidy@?$_Tree@V?$_Tmap_traits@IPAUtagClientNode@CIOCPServer@@U?$less@I@std@@V?$allocator@U?$pair@$$CBIPAUtagClientNode@CIOCPServer@@@std@@@4@$0A@@std@@@std@@IAEXXZ 100077a0 f i ServerStage.obj
 0001:000067e0       ?_Insert@?$list@IV?$allocator@I@std@@@std@@QAEXV?$_Iterator@$00@12@ABI@Z 100077e0 f i ServerStage.obj
 0001:00006820       ?insert@?$_Tree@V?$_Tmap_traits@IPAUtagClientNode@CIOCPServer@@U?$less@I@std@@V?$allocator@U?$pair@$$CBIPAUtagClientNode@CIOCPServer@@@std@@@4@$0A@@std@@@std@@QAE?AU?$pair@Viterator@?$_Tree@V?$_Tmap_traits@IPAUtagClientNode@CIOCPServer@@U?$less@I@std@@V?$allocator@U?$pair@$$CBIPAUtagClientNode@CIOCPServer@@@std@@@4@$0A@@std@@@std@@_N@2@ABU?$pair@$$CBIPAUtagClientNode@CIOCPServer@@@2@@Z 10007820 f i ServerStage.obj
 0001:000068e0       ?_Growmap@?$deque@IV?$allocator@I@std@@@std@@IAEXI@Z 100078e0 f i ServerStage.obj
 0001:00006a40       ?_Growmap@?$deque@PAXV?$allocator@PAX@std@@@std@@IAEXI@Z 10007a40 f i ServerStage.obj
 0001:00006ba0       ??$use_facet@V?$ctype@D@std@@@std@@YAABV?$ctype@D@0@ABVlocale@0@@Z 10007ba0 f i ServerStage.obj
 0001:00006cd0       ??0?$num_put@DV?$ostreambuf_iterator@DU?$char_traits@D@std@@@std@@@std@@QAE@I@Z 10007cd0 f i ServerStage.obj
 0001:00006d70       ?assign@?$char_traits@D@std@@SAPADPADID@Z 10007d70 f i ServerStage.obj
 0001:00006d90       ?_Getlconv@_Locinfo@std@@QBEPBUlconv@@XZ 10007d90 f i ServerStage.obj
 0001:00006da0       ?_Getfalse@_Locinfo@std@@QBEPBDXZ 10007da0 f i ServerStage.obj
 0001:00006db0       ?_Gettrue@_Locinfo@std@@QBEPBDXZ 10007db0 f i ServerStage.obj
 0001:00006dc0       ?precision@ios_base@std@@QBEHXZ 10007dc0 f i ServerStage.obj
 0001:00006dd0       ?width@ios_base@std@@QBEHXZ 10007dd0 f i ServerStage.obj
 0001:00006de0       ?width@ios_base@std@@QAEHH@Z 10007de0 f i ServerStage.obj
 0001:00006df0       ??1?$num_put@DV?$ostreambuf_iterator@DU?$char_traits@D@std@@@std@@@std@@MAE@XZ 10007df0 f i ServerStage.obj
 0001:00006e00       ??_E?$num_put@DV?$ostreambuf_iterator@DU?$char_traits@D@std@@@std@@@std@@MAEPAXI@Z 10007e00 f i ServerStage.obj
 0001:00006e00       ??_G?$num_put@DV?$ostreambuf_iterator@DU?$char_traits@D@std@@@std@@@std@@MAEPAXI@Z 10007e00 f i ServerStage.obj
 0001:00006e20       ?_Ffmt@?$num_put@DV?$ostreambuf_iterator@DU?$char_traits@D@std@@@std@@@std@@ABAPADPADDH@Z 10007e20 f i ServerStage.obj
 0001:00006e90       ?_Ifmt@?$num_put@DV?$ostreambuf_iterator@DU?$char_traits@D@std@@@std@@@std@@ABAPADPADPBDH@Z 10007e90 f i ServerStage.obj
 0001:00006f30       ??A?$basic_string@DU?$char_traits@D@std@@V?$allocator@D@2@@std@@QAEAADI@Z 10007f30 f i ServerStage.obj
 0001:00006f60       ??D?$ostreambuf_iterator@DU?$char_traits@D@std@@@std@@QAEAAV01@XZ 10007f60 f i ServerStage.obj
 0001:00006f70       ??E?$ostreambuf_iterator@DU?$char_traits@D@std@@@std@@QAEAAV01@XZ 10007f70 f i ServerStage.obj
 0001:00006f80       ?decimal_point@?$numpunct@D@std@@QBEDXZ 10007f80 f i ServerStage.obj
 0001:00006f90       ?thousands_sep@?$numpunct@D@std@@QBEDXZ 10007f90 f i ServerStage.obj
 0001:00006fa0       ?_Tidy@?$numpunct@D@std@@AAEXXZ 10007fa0 f i ServerStage.obj
 0001:00006fd0       ?_Chassign@?$basic_string@DU?$char_traits@D@std@@V?$allocator@D@2@@std@@IAEXIID@Z 10007fd0 f i ServerStage.obj
 0001:00007030       ??$_Maklocchr@D@std@@YADDPADABU_Cvtvec@@@Z 10008030 f i ServerStage.obj
 0001:00007040       ??$_Maklocstr@D@std@@YAPADPBDPADABU_Cvtvec@@@Z 10008040 f i ServerStage.obj
 0001:00007090       ??4?$ostreambuf_iterator@DU?$char_traits@D@std@@@std@@QAEAAV01@D@Z 10008090 f i ServerStage.obj
 0001:000070e0       ?_Init@?$numpunct@D@std@@IAEXABV_Locinfo@2@@Z 100080e0 f i ServerStage.obj
 0001:000071c0       ?_Put@?$num_put@DV?$ostreambuf_iterator@DU?$char_traits@D@std@@@std@@@std@@ABA?AV?$ostreambuf_iterator@DU?$char_traits@D@std@@@2@V32@PBDI@Z 100081c0 f i ServerStage.obj
 0001:00007240       ?_Rep@?$num_put@DV?$ostreambuf_iterator@DU?$char_traits@D@std@@@std@@@std@@ABA?AV?$ostreambuf_iterator@DU?$char_traits@D@std@@@2@V32@DI@Z 10008240 f i ServerStage.obj
 0001:000072c0       ?_Putc@?$num_put@DV?$ostreambuf_iterator@DU?$char_traits@D@std@@@std@@@std@@ABA?AV?$ostreambuf_iterator@DU?$char_traits@D@std@@@2@V32@PBDI@Z 100082c0 f i ServerStage.obj
 0001:00007340       ?_Putgrouped@?$num_put@DV?$ostreambuf_iterator@DU?$char_traits@D@std@@@std@@@std@@ABA?AV?$ostreambuf_iterator@DU?$char_traits@D@std@@@2@V32@PBDID@Z 10008340 f i ServerStage.obj
 0001:00007410       ?falsename@?$numpunct@D@std@@QBE?AV?$basic_string@DU?$char_traits@D@std@@V?$allocator@D@2@@2@XZ 10008410 f i ServerStage.obj
 0001:00007430       ?truename@?$numpunct@D@std@@QBE?AV?$basic_string@DU?$char_traits@D@std@@V?$allocator@D@2@@2@XZ 10008430 f i ServerStage.obj
 0001:00007450       ?append@?$basic_string@DU?$char_traits@D@std@@V?$allocator@D@2@@std@@QAEAAV12@ID@Z 10008450 f i ServerStage.obj
 0001:00007500       ?insert@?$basic_string@DU?$char_traits@D@std@@V?$allocator@D@2@@std@@QAEAAV12@IID@Z 10008500 f i ServerStage.obj
 0001:00007600       ?grouping@?$numpunct@D@std@@QBE?AV?$basic_string@DU?$char_traits@D@std@@V?$allocator@D@2@@2@XZ 10008600 f i ServerStage.obj
 0001:00007620       ?assign@?$basic_string@DU?$char_traits@D@std@@V?$allocator@D@2@@std@@QAEAAV12@ABV12@@Z 10008620 f i ServerStage.obj
 0001:00007640       ??0?$numpunct@D@std@@QAE@I@Z 10008640 f i ServerStage.obj
 0001:00007700       ?do_decimal_point@?$numpunct@D@std@@MBEDXZ 10008700 f i ServerStage.obj
 0001:00007710       ?do_thousands_sep@?$numpunct@D@std@@MBEDXZ 10008710 f i ServerStage.obj
 0001:00007720       ??1?$numpunct@D@std@@MAE@XZ 10008720 f i ServerStage.obj
 0001:00007750       ??_E?$numpunct@D@std@@MAEPAXI@Z 10008750 f i ServerStage.obj
 0001:00007750       ??_G?$numpunct@D@std@@MAEPAXI@Z 10008750 f i ServerStage.obj
 0001:000077a0       ?do_grouping@?$numpunct@D@std@@MBE?AV?$basic_string@DU?$char_traits@D@std@@V?$allocator@D@2@@2@XZ 100087a0 f i ServerStage.obj
 0001:000077f0       ?do_falsename@?$numpunct@D@std@@MBE?AV?$basic_string@DU?$char_traits@D@std@@V?$allocator@D@2@@2@XZ 100087f0 f i ServerStage.obj
 0001:00007840       ?do_truename@?$numpunct@D@std@@MBE?AV?$basic_string@DU?$char_traits@D@std@@V?$allocator@D@2@@2@XZ 10008840 f i ServerStage.obj
 0001:00007890       ?setstate@?$basic_ios@DU?$char_traits@D@std@@@std@@QAEXH_N@Z 10008890 f i ServerStage.obj
 0001:000078c0       ??1?$_Tree@V?$_Tmap_traits@IPAUtagClientNode@CIOCPServer@@U?$less@I@std@@V?$allocator@U?$pair@$$CBIPAUtagClientNode@CIOCPServer@@@std@@@4@$0A@@std@@@std@@QAE@XZ 100088c0 f i ServerStage.obj
 0001:00007900       ?push_back@?$list@IV?$allocator@I@std@@@std@@QAEXABI@Z 10008900 f i ServerStage.obj
 0001:00007940       ?insert@?$_Tree@V?$_Tmap_traits@IPAUtagClientNode@CIOCPServer@@U?$less@I@std@@V?$allocator@U?$pair@$$CBIPAUtagClientNode@CIOCPServer@@@std@@@4@$0A@@std@@@std@@QAE?AViterator@12@V312@ABU?$pair@$$CBIPAUtagClientNode@CIOCPServer@@@2@@Z 10008940 f i ServerStage.obj
 0001:00007b00       ?push_back@?$deque@IV?$allocator@I@std@@@std@@QAEXABI@Z 10008b00 f i ServerStage.obj
 0001:00007b80       ?push_back@?$deque@PAXV?$allocator@PAX@std@@@std@@QAEXABQAX@Z 10008b80 f i ServerStage.obj
 0001:00007c00       ?widen@?$basic_ios@DU?$char_traits@D@std@@@std@@QBEDD@Z 10008c00 f i ServerStage.obj
 0001:00007cc0       ?_Getcat@?$num_put@DV?$ostreambuf_iterator@DU?$char_traits@D@std@@@std@@@std@@SAIPAPBVfacet@locale@2@@Z 10008cc0 f i ServerStage.obj
 0001:00007d30       ?_Getcat@?$numpunct@D@std@@SAIPAPBVfacet@locale@2@@Z 10008d30 f i ServerStage.obj
 0001:00007da0       ??1?$map@IPAUtagClientNode@CIOCPServer@@U?$less@I@std@@V?$allocator@U?$pair@$$CBIPAUtagClientNode@CIOCPServer@@@std@@@4@@std@@QAE@XZ 10008da0 f i ServerStage.obj
 0001:00007de0       ??1CIOCPServer@@UAE@XZ     10008de0 f   ServerStage.obj
 0001:000080c0       ?OnStartAcceptingConnections@CSocketServer@Win32@OnlineGameLib@@EAEXXZ 100090c0 f i ServerStage.obj
 0001:000080d0       ?OnStopAcceptingConnections@CSocketServer@Win32@OnlineGameLib@@EAEXXZ 100090d0 f i ServerStage.obj
 0001:000080e0       ?OnShutdownInitiated@CSocketServer@Win32@OnlineGameLib@@EAEXXZ 100090e0 f i ServerStage.obj
 0001:000080f0       ?OnShutdownComplete@CSocketServer@Win32@OnlineGameLib@@EAEXXZ 100090f0 f i ServerStage.obj
 0001:00008100       ?OnConnectionCreated@CSocketServer@Win32@OnlineGameLib@@EAEXXZ 10009100 f i ServerStage.obj
 0001:00008110       ?OnConnectionClientClose@CSocketServer@Win32@OnlineGameLib@@EAEXPAVSocket@123@@Z 10009110 f i ServerStage.obj
 0001:00008120       ?OnConnectionReset@CSocketServer@Win32@OnlineGameLib@@EAEXPAVSocket@123@@Z 10009120 f i ServerStage.obj
 0001:00008130       ?OnConnectionDestroyed@CSocketServer@Win32@OnlineGameLib@@EAEXXZ 10009130 f i ServerStage.obj
 0001:00008140       ?OnBufferCreated@CSocketServer@Win32@OnlineGameLib@@EAEXXZ 10009140 f i ServerStage.obj
 0001:00008150       ?OnBufferAllocated@CSocketServer@Win32@OnlineGameLib@@EAEXXZ 10009150 f i ServerStage.obj
 0001:00008160       ?OnBufferReleased@CSocketServer@Win32@OnlineGameLib@@EAEXXZ 10009160 f i ServerStage.obj
 0001:00008170       ?OnThreadCreated@CSocketServer@Win32@OnlineGameLib@@EAEXXZ 10009170 f i ServerStage.obj
 0001:00008180       ?OnThreadDestroyed@CSocketServer@Win32@OnlineGameLib@@EAEXXZ 10009180 f i ServerStage.obj
 0001:00008190       ??_ECIOCPServer@@W3AEPAXI@Z 10009190 f i ServerStage.obj
 0001:000081a0       ??_ECIOCPServer@@WM@AEPAXI@Z 100091a0 f i ServerStage.obj
 0001:000081b0       ?flush@?$basic_ostream@DU?$char_traits@D@std@@@std@@QAEAAV12@XZ 100091b0 f i ServerStage.obj
 0001:00008200       ??0?$map@IPAUtagClientNode@CIOCPServer@@U?$less@I@std@@V?$allocator@U?$pair@$$CBIPAUtagClientNode@CIOCPServer@@@std@@@4@@std@@QAE@XZ 10009200 f i ServerStage.obj
 0001:00008230       ??A?$map@IPAUtagClientNode@CIOCPServer@@U?$less@I@std@@V?$allocator@U?$pair@$$CBIPAUtagClientNode@CIOCPServer@@@std@@@4@@std@@QAEAAPAUtagClientNode@CIOCPServer@@ABI@Z 10009230 f i ServerStage.obj
 0001:000082b0       ?push@?$queue@IV?$deque@IV?$allocator@I@std@@@std@@@std@@QAEXABI@Z 100092b0 f i ServerStage.obj
 0001:000082c0       ?push@?$stack@PAXV?$deque@PAXV?$allocator@PAX@std@@@std@@@std@@QAEXABQAX@Z 100092c0 f i ServerStage.obj
 0001:000082d0       ?init@?$basic_ios@DU?$char_traits@D@std@@@std@@IAEXPAV?$basic_streambuf@DU?$char_traits@D@std@@@2@_N@Z 100092d0 f i ServerStage.obj
 0001:00008330       ??0sentry@?$basic_ostream@DU?$char_traits@D@std@@@std@@QAE@AAV12@@Z 10009330 f i ServerStage.obj
 0001:000083c0       ?_Osfx@?$basic_ostream@DU?$char_traits@D@std@@@std@@QAEXXZ 100093c0 f i ServerStage.obj
 0001:00008420       ??$use_facet@V?$num_put@DV?$ostreambuf_iterator@DU?$char_traits@D@std@@@std@@@std@@@std@@YAABV?$num_put@DV?$ostreambuf_iterator@DU?$char_traits@D@std@@@std@@@0@ABVlocale@0@@Z 10009420 f i ServerStage.obj
 0001:00008550       ??$use_facet@V?$numpunct@D@std@@@std@@YAABV?$numpunct@D@0@ABVlocale@0@@Z 10009550 f i ServerStage.obj
 0001:00008680       ?Push@CTaskQueue@CIOCPServer@@QAEXPAX@Z 10009680 f   ServerStage.obj
 0001:000086e0       ??_GCIOCPServer@@UAEPAXI@Z 100096e0 f i ServerStage.obj
 0001:000086e0       ??_ECIOCPServer@@UAEPAXI@Z 100096e0 f i ServerStage.obj
 0001:00008700       ?PackDataToClient@CIOCPServer@@UAGJABKQBXABI@Z 10009700 f   ServerStage.obj
 0001:00008900       ?SendPackToClient@CIOCPServer@@UAGJABK@Z 10009900 f   ServerStage.obj
 0001:00008bd0       ?SendData@CIOCPServer@@UAGJABKQBXABI@Z 10009bd0 f   ServerStage.obj
 0001:00008e00       ?ShutdownClient@CIOCPServer@@UAGJABK@Z 10009e00 f   ServerStage.obj
 0001:00008ec0       ?GetClientInfo@CIOCPServer@@UAGPBDABK@Z 10009ec0 f   ServerStage.obj
 0001:00008fb0       ?OnConnectionEstablished@CIOCPServer@@MAEXPAVSocket@CSocketServer@Win32@OnlineGameLib@@PAVCIOBuffer@45@@Z 10009fb0 f   ServerStage.obj
 0001:000090f0       ?OnConnectionClosed@CIOCPServer@@MAEXPAVSocket@CSocketServer@Win32@OnlineGameLib@@@Z 1000a0f0 f   ServerStage.obj
 0001:00009130       ?ProcessCommand@CIOCPServer@@IAEXPAVSocket@CSocketServer@Win32@OnlineGameLib@@PBVCIOBuffer@45@@Z 1000a130 f   ServerStage.obj
 0001:00009200       ?RegisterMsgFilter@CIOCPServer@@UAGJKPAUIMessageProcess@@@Z 1000a200 f   ServerStage.obj
 0001:000092a0       ?ProcessMessage@CIOCPServer@@IAEXPAVSocket@CSocketServer@Win32@OnlineGameLib@@PAVCIOBuffer@45@@Z 1000a2a0 f   ServerStage.obj
 0001:00009420       ??0?$basic_istream@DU?$char_traits@D@std@@@std@@QAE@PAV?$basic_streambuf@DU?$char_traits@D@std@@@1@_N@Z 1000a420 f i ServerStage.obj
 0001:000094b0       ??0?$basic_iostream@DU?$char_traits@D@std@@@std@@QAE@PAV?$basic_streambuf@DU?$char_traits@D@std@@@1@@Z 1000a4b0 f i ServerStage.obj
 0001:00009590       ??1sentry@?$basic_ostream@DU?$char_traits@D@std@@@std@@QAE@XZ 1000a590 f i ServerStage.obj
 0001:00009600       ??6?$basic_ostream@DU?$char_traits@D@std@@@std@@QAEAAV01@I@Z 1000a600 f i ServerStage.obj
 0001:00009760       ??6?$basic_ostream@DU?$char_traits@D@std@@@std@@QAEAAV01@K@Z 1000a760 f i ServerStage.obj
 0001:000098c0       ?do_put@?$num_put@DV?$ostreambuf_iterator@DU?$char_traits@D@std@@@std@@@std@@MBE?AV?$ostreambuf_iterator@DU?$char_traits@D@std@@@2@V32@AAVios_base@2@D_N@Z 1000a8c0 f i ServerStage.obj
 0001:00009b10       ?_Fput@?$num_put@DV?$ostreambuf_iterator@DU?$char_traits@D@std@@@std@@@std@@ABA?AV?$ostreambuf_iterator@DU?$char_traits@D@std@@@2@V32@AAVios_base@2@DPBDIIII@Z 1000ab10 f i ServerStage.obj
 0001:0000a220       ?_Iput@?$num_put@DV?$ostreambuf_iterator@DU?$char_traits@D@std@@@std@@@std@@ABA?AV?$ostreambuf_iterator@DU?$char_traits@D@std@@@2@V32@AAVios_base@2@DPADI@Z 1000b220 f i ServerStage.obj
 0001:0000a580       ??0strstream@std@@QAE@XZ   1000b580 f i ServerStage.obj
 0001:0000a640       ?ReadCompleted@CIOCPServer@@MAEXPAVSocket@CSocketServer@Win32@OnlineGameLib@@PAVCIOBuffer@45@@Z 1000b640 f   ServerStage.obj
 0001:0000a830       ?ProcessDataStream@CIOCPServer@@IAEPAVCIOBuffer@Win32@OnlineGameLib@@PAVSocket@CSocketServer@34@PAV234@@Z 1000b830 f   ServerStage.obj
 0001:0000a9a0       ?put@?$basic_ostream@DU?$char_traits@D@std@@@std@@QAEAAV12@D@Z 1000b9a0 f i ServerStage.obj
 0001:0000aad0       ?do_put@?$num_put@DV?$ostreambuf_iterator@DU?$char_traits@D@std@@@std@@@std@@MBE?AV?$ostreambuf_iterator@DU?$char_traits@D@std@@@2@V32@AAVios_base@2@DJ@Z 1000bad0 f i ServerStage.obj
 0001:0000ab70       ?do_put@?$num_put@DV?$ostreambuf_iterator@DU?$char_traits@D@std@@@std@@@std@@MBE?AV?$ostreambuf_iterator@DU?$char_traits@D@std@@@2@V32@AAVios_base@2@DK@Z 1000bb70 f i ServerStage.obj
 0001:0000ac10       ?do_put@?$num_put@DV?$ostreambuf_iterator@DU?$char_traits@D@std@@@std@@@std@@MBE?AV?$ostreambuf_iterator@DU?$char_traits@D@std@@@2@V32@AAVios_base@2@D_J@Z 1000bc10 f i ServerStage.obj
 0001:0000acb0       ?do_put@?$num_put@DV?$ostreambuf_iterator@DU?$char_traits@D@std@@@std@@@std@@MBE?AV?$ostreambuf_iterator@DU?$char_traits@D@std@@@2@V32@AAVios_base@2@D_K@Z 1000bcb0 f i ServerStage.obj
 0001:0000ad50       ?do_put@?$num_put@DV?$ostreambuf_iterator@DU?$char_traits@D@std@@@std@@@std@@MBE?AV?$ostreambuf_iterator@DU?$char_traits@D@std@@@2@V32@AAVios_base@2@DN@Z 1000bd50 f i ServerStage.obj
 0001:0000af40       ?do_put@?$num_put@DV?$ostreambuf_iterator@DU?$char_traits@D@std@@@std@@@std@@MBE?AV?$ostreambuf_iterator@DU?$char_traits@D@std@@@2@V32@AAVios_base@2@DO@Z 1000bf40 f i ServerStage.obj
 0001:0000b130       ?do_put@?$num_put@DV?$ostreambuf_iterator@DU?$char_traits@D@std@@@std@@@std@@MBE?AV?$ostreambuf_iterator@DU?$char_traits@D@std@@@2@V32@AAVios_base@2@DPBX@Z 1000c130 f i ServerStage.obj
 0001:0000b1b0       ?ends@std@@YAAAV?$basic_ostream@DU?$char_traits@D@std@@@1@AAV21@@Z 1000c1b0 f i ServerStage.obj
 0001:0000b1d0       ?GetPackFromClient@CIOCPServer@@UAGPBXABKAAI@Z 1000c1d0 f   ServerStage.obj
 0001:0000b2c0       ??$ToString@K@Win32@OnlineGameLib@@YA?AV?$basic_string@DU?$char_traits@D@std@@V?$allocator@D@2@@std@@K@Z 1000c2c0 f i ServerStage.obj
 0001:0000b410       ??$ToString@I@Win32@OnlineGameLib@@YA?AV?$basic_string@DU?$char_traits@D@std@@V?$allocator@D@2@@std@@I@Z 1000c410 f i ServerStage.obj
 0001:0000b560       ?_HelperAddClient@CIOCPServer@@AAE_NXZ 1000c560 f   ServerStage.obj
 0001:0000ba40       ?_HelperDelClient@CIOCPServer@@AAE_NXZ 1000ca40 f   ServerStage.obj
 0001:0000bdf0       ?_HelperThreadFunction@CIOCPServer@@AAEIXZ 1000cdf0 f   ServerStage.obj
 0001:0000be40       ?HelperThreadFunction@CIOCPServer@@CGIPAX@Z 1000ce40 f   ServerStage.obj
 0001:0000bea0       ??0CIOCPServer@@QAE@IIIIIIII@Z 1000cea0 f   ServerStage.obj
 0001:0000c1e0       ??1CException@Win32@OnlineGameLib@@UAE@XZ 1000d1e0 f i ServerStage.obj
 0001:0000c230       ??_ECException@Win32@OnlineGameLib@@UAEPAXI@Z 1000d230 f i ServerStage.obj
 0001:0000c230       ??_GCException@Win32@OnlineGameLib@@UAEPAXI@Z 1000d230 f i ServerStage.obj
 0001:0000c250       ??1CWin32Exception@Win32@OnlineGameLib@@UAE@XZ 1000d250 f i ServerStage.obj
 0001:0000c260       ??0CException@Win32@OnlineGameLib@@QAE@ABV012@@Z 1000d260 f i ServerStage.obj
 0001:0000c2f0       ??0CWin32Exception@Win32@OnlineGameLib@@QAE@ABV012@@Z 1000d2f0 f i ServerStage.obj
 0001:0000c320       ??_GCWin32Exception@Win32@OnlineGameLib@@UAEPAXI@Z 1000d320 f i ServerStage.obj
 0001:0000c320       ??_ECWin32Exception@Win32@OnlineGameLib@@UAEPAXI@Z 1000d320 f i ServerStage.obj
 0001:0000c340       ?CreateServerInterface@CServerFactory@@UAGJABU_GUID@@PAPAX@Z 1000d340 f   ServerStage.obj
 0001:0000c450       _EnterCriticalSection@4    1000d450 f   kernel32:KERNEL32.dll
 0001:0000c456       _LeaveCriticalSection@4    1000d456 f   kernel32:KERNEL32.dll
 0001:0000c45c       _InitializeCriticalSection@4 1000d45c f   kernel32:KERNEL32.dll
 0001:0000c462       _DeleteCriticalSection@4   1000d462 f   kernel32:KERNEL32.dll
 0001:0000c468       _InterlockedExchange@8     1000d468 f   kernel32:KERNEL32.dll
 0001:0000c46e       _InterlockedIncrement@4    1000d46e f   kernel32:KERNEL32.dll
 0001:0000c474       _InterlockedDecrement@4    1000d474 f   kernel32:KERNEL32.dll
 0001:0000c47a       _TerminateThread@8         1000d47a f   kernel32:KERNEL32.dll
 0001:0000c480       _WaitForSingleObject@8     1000d480 f   kernel32:KERNEL32.dll
 0001:0000c486       _Sleep@4                   1000d486 f   kernel32:KERNEL32.dll
 0001:0000c48c       _GetLastError@0            1000d48c f   kernel32:KERNEL32.dll
 0001:0000c4a0       ?KSG_DecodeEncode@@YAHIPAEPAI@Z 1000d4a0 f   common:KSG_EncodeDecode.obj
 0001:0000c500       ?KSG_DecodeEncode_ASM@@YAHIPAEPAI@Z 1000d500 f   common:KSG_EncodeDecode.obj
 0001:0000c560       ?Next@Node@CNodeList@OnlineGameLib@@QBEPAV123@XZ 1000d560 f i common:SocketServer.obj
 0001:0000c570       ?Head@CNodeList@OnlineGameLib@@QBEPAVNode@12@XZ 1000d570 f i common:SocketServer.obj
 0001:0000c580       ?Count@CNodeList@OnlineGameLib@@QBEIXZ 1000d580 f i common:SocketServer.obj
 0001:0000c590       ?Empty@CNodeList@OnlineGameLib@@QBE_NXZ 1000d590 f i common:SocketServer.obj
 0001:0000c5a0       ??0COpaqueUserData@OnlineGameLib@@IAE@XZ 1000d5a0 f i common:SocketServer.obj
 0001:0000c5b0       ??1COpaqueUserData@OnlineGameLib@@IAE@XZ 1000d5b0 f i common:SocketServer.obj
 0001:0000c5c0       ?GetWSABUF@CIOBuffer@Win32@OnlineGameLib@@QBEPAU_WSABUF@@XZ 1000d5c0 f i common:SocketServer.obj
 0001:0000c5d0       ?Use@CIOBuffer@Win32@OnlineGameLib@@QAEXI@Z 1000d5d0 f i common:SocketServer.obj
 0001:0000c5e0       ?AddRef@CIOBuffer@Win32@OnlineGameLib@@QAEXXZ 1000d5e0 f i common:SocketServer.obj
 0001:0000c5f0       ?GetOperation@CIOBuffer@Win32@OnlineGameLib@@QBEIXZ 1000d5f0 f i common:SocketServer.obj
 0001:0000c600       ?SetOperation@CIOBuffer@Win32@OnlineGameLib@@QAEXI@Z 1000d600 f i common:SocketServer.obj
 0001:0000c610       ?SetSequenceNumber@CIOBuffer@Win32@OnlineGameLib@@QAEXI@Z 1000d610 f i common:SocketServer.obj
 0001:0000c620       ?SetupZeroByteRead@CIOBuffer@Win32@OnlineGameLib@@QAEXXZ 1000d620 f i common:SocketServer.obj
 0001:0000c630       ?SetupRead@CIOBuffer@Win32@OnlineGameLib@@QAEXXZ 1000d630 f i common:SocketServer.obj
 0001:0000c660       ?SetupWrite@CIOBuffer@Win32@OnlineGameLib@@QAEXXZ 1000d660 f i common:SocketServer.obj
 0001:0000c680       ?GetEvent@CEvent@Win32@OnlineGameLib@@QBEPAXXZ 1000d680 f i common:SocketServer.obj
 0001:0000c690       ?GetServerDataPtr@Socket@CSocketServer@Win32@OnlineGameLib@@ABEPAXXZ 1000d690 f i common:SocketServer.obj
 0001:0000c6a0       ?SetServerDataPtr@Socket@CSocketServer@Win32@OnlineGameLib@@AAEXPAX@Z 1000d6a0 f i common:SocketServer.obj
 0001:0000c6c0       ??0CSystemInfo@Win32@OnlineGameLib@@QAE@XZ 1000d6c0 f i common:SocketServer.obj
 0001:0000c6f0       ??0?$TNodeList@VSocket@CSocketServer@Win32@OnlineGameLib@@@OnlineGameLib@@QAE@XZ 1000d6f0 f i common:SocketServer.obj
 0001:0000c700       ??1CManualResetEvent@Win32@OnlineGameLib@@UAE@XZ 1000d700 f i common:SocketServer.obj
 0001:0000c710       ??1CSocketServer@Win32@OnlineGameLib@@UAE@XZ 1000d710 f   common:SocketServer.obj
 0001:0000c7d0       ?OnConnectionClosing@CSocketServer@Win32@OnlineGameLib@@EAE_NPAVSocket@123@@Z 1000d7d0 f i common:SocketServer.obj
 0001:0000c7e0       ?OnConnectionClosed@CSocketServer@Win32@OnlineGameLib@@EAEXPAVSocket@123@@Z 1000d7e0 f i common:SocketServer.obj
 0001:0000c7f0       ?Open@CSocketServer@Win32@OnlineGameLib@@IAEXKG@Z 1000d7f0 f   common:SocketServer.obj
 0001:0000c810       ?StartAcceptingConnections@CSocketServer@Win32@OnlineGameLib@@QAEXXZ 1000d810 f   common:SocketServer.obj
 0001:0000c850       ?OnError@CSocketServer@Win32@OnlineGameLib@@EAEXABV?$basic_string@DU?$char_traits@D@std@@V?$allocator@D@2@@std@@@Z 1000d850 f   common:SocketServer.obj
 0001:0000c860       ?SetServerDataPtr@CSocketServer@Win32@OnlineGameLib@@KAXPAVSocket@123@PAX@Z 1000d860 f   common:SocketServer.obj
 0001:0000c880       ?GetServerDataPtr@CSocketServer@Win32@OnlineGameLib@@KAPAXPBVSocket@123@@Z 1000d880 f   common:SocketServer.obj
 0001:0000c8a0       ?FilterSocketShutdown@CSocketServer@Win32@OnlineGameLib@@EAE_NPAVSocket@123@H@Z 1000d8a0 f   common:SocketServer.obj
 0001:0000c8b0       ?FilterSocketClose@CSocketServer@Win32@OnlineGameLib@@EAE_NPAVSocket@123@@Z 1000d8b0 f   common:SocketServer.obj
 0001:0000c8c0       ?GetServer@CSocketServer@Win32@OnlineGameLib@@KAAAV123@PAVSocket@123@@Z 1000d8c0 f   common:SocketServer.obj
 0001:0000c8d0       ??0UserData@CSocketServer@Win32@OnlineGameLib@@QAE@XZ 1000d8d0 f i common:SocketServer.obj
 0001:0000c8e0       ??1UserData@CSocketServer@Win32@OnlineGameLib@@QAE@XZ 1000d8e0 f i common:SocketServer.obj
 0001:0000c8f0       ??0ServerData@CSocketServer@Win32@OnlineGameLib@@QAE@XZ 1000d8f0 f i common:SocketServer.obj
 0001:0000c900       ??1ServerData@CSocketServer@Win32@OnlineGameLib@@QAE@XZ 1000d900 f i common:SocketServer.obj
 0001:0000c910       ?AddRef@Socket@CSocketServer@Win32@OnlineGameLib@@QAEXXZ 1000d910 f   common:SocketServer.obj
 0001:0000c920       ?IsConnected@Socket@CSocketServer@Win32@OnlineGameLib@@QBE_NH@Z 1000d920 f   common:SocketServer.obj
 0001:0000c970       ?WritePending@Socket@CSocketServer@Win32@OnlineGameLib@@AAE_NXZ 1000d970 f   common:SocketServer.obj
 0001:0000c990       ?GetSequenceNumber@Socket@CSocketServer@Win32@OnlineGameLib@@AAEJW4enumSequenceType@1234@@Z 1000d990 f   common:SocketServer.obj
 0001:0000c9b0       ?GetNextBuffer@Socket@CSocketServer@Win32@OnlineGameLib@@AAEPAVCIOBuffer@34@PAV534@@Z 1000d9b0 f   common:SocketServer.obj
 0001:0000c9e0       ?IsValid@Socket@CSocketServer@Win32@OnlineGameLib@@AAE_NXZ 1000d9e0 f   common:SocketServer.obj
 0001:0000ca10       ?Reset@SequenceData@Socket@CSocketServer@Win32@OnlineGameLib@@QAEXXZ 1000da10 f   common:SocketServer.obj
 0001:0000ca30       ??0WorkerThread@CSocketServer@Win32@OnlineGameLib@@QAE@AAV123@AAVCIOCompletionPort@23@@Z 1000da30 f   common:SocketServer.obj
 0001:0000caa0       ??1WorkerThread@CSocketServer@Win32@OnlineGameLib@@UAE@XZ 1000daa0 f   common:SocketServer.obj
 0001:0000cb20       ?InitiateShutdown@WorkerThread@CSocketServer@Win32@OnlineGameLib@@QAEXXZ 1000db20 f   common:SocketServer.obj
 0001:0000cb30       ?WaitForShutdownToComplete@WorkerThread@CSocketServer@Win32@OnlineGameLib@@QAEXXZ 1000db30 f   common:SocketServer.obj
 0001:0000cb40       ?capacity@?$vector@PAVWorkerThread@CSocketServer@Win32@OnlineGameLib@@V?$allocator@PAVWorkerThread@CSocketServer@Win32@OnlineGameLib@@@std@@@std@@QBEIXZ 1000db40 f i common:SocketServer.obj
 0001:0000cb60       ?size@?$vector@PAVWorkerThread@CSocketServer@Win32@OnlineGameLib@@V?$allocator@PAVWorkerThread@CSocketServer@Win32@OnlineGameLib@@@std@@@std@@QBEIXZ 1000db60 f i common:SocketServer.obj
 0001:0000cb80       ??0?$allocator@PAVWorkerThread@CSocketServer@Win32@OnlineGameLib@@@std@@QAE@XZ 1000db80 f i common:SocketServer.obj
 0001:0000cb90       ?deallocate@?$allocator@PAVWorkerThread@CSocketServer@Win32@OnlineGameLib@@@std@@QAEXPAPAVWorkerThread@CSocketServer@Win32@OnlineGameLib@@I@Z 1000db90 f i common:SocketServer.obj
 0001:0000cba0       ?_Left@?$_Tree@V?$_Tmap_traits@IPAVCIOBuffer@Win32@OnlineGameLib@@U?$less@I@std@@V?$allocator@U?$pair@$$CBIPAVCIOBuffer@Win32@OnlineGameLib@@@std@@@5@$0A@@std@@@std@@KAAAPAU_Node@?$_Tree_nod@V?$_Tmap_traits@IPAVCIOBuffer@Win32@OnlineGameLib@@U?$less@I@std@@V?$allocator@U?$pair@$$CBIPAVCIOBuffer@Win32@OnlineGameLib@@@std@@@5@$0A@@std@@@2@PAU342@@Z 1000dba0 f i common:SocketServer.obj
 0001:0000cbb0       ?_Parent@?$_Tree@V?$_Tmap_traits@IPAVCIOBuffer@Win32@OnlineGameLib@@U?$less@I@std@@V?$allocator@U?$pair@$$CBIPAVCIOBuffer@Win32@OnlineGameLib@@@std@@@5@$0A@@std@@@std@@KAAAPAU_Node@?$_Tree_nod@V?$_Tmap_traits@IPAVCIOBuffer@Win32@OnlineGameLib@@U?$less@I@std@@V?$allocator@U?$pair@$$CBIPAVCIOBuffer@Win32@OnlineGameLib@@@std@@@5@$0A@@std@@@2@PAU342@@Z 1000dbb0 f i common:SocketServer.obj
 0001:0000cbc0       ?_Right@?$_Tree@V?$_Tmap_traits@IPAVCIOBuffer@Win32@OnlineGameLib@@U?$less@I@std@@V?$allocator@U?$pair@$$CBIPAVCIOBuffer@Win32@OnlineGameLib@@@std@@@5@$0A@@std@@@std@@KAAAPAU_Node@?$_Tree_nod@V?$_Tmap_traits@IPAVCIOBuffer@Win32@OnlineGameLib@@U?$less@I@std@@V?$allocator@U?$pair@$$CBIPAVCIOBuffer@Win32@OnlineGameLib@@@std@@@5@$0A@@std@@@2@PAU342@@Z 1000dbc0 f i common:SocketServer.obj
 0001:0000cbd0       ?deallocate@?$allocator@U_Node@?$_Tree_nod@V?$_Tmap_traits@IPAVCIOBuffer@Win32@OnlineGameLib@@U?$less@I@std@@V?$allocator@U?$pair@$$CBIPAVCIOBuffer@Win32@OnlineGameLib@@@std@@@5@$0A@@std@@@std@@@std@@QAEXPAU_Node@?$_Tree_nod@V?$_Tmap_traits@IPAVCIOBuffer@Win32@OnlineGameLib@@U?$less@I@std@@V?$allocator@U?$pair@$$CBIPAVCIOBuffer@Win32@OnlineGameLib@@@std@@@5@$0A@@std@@@2@I@Z 1000dbd0 f i common:SocketServer.obj
 0001:0000cbe0       ??0?$allocator@PAVWorkerThread@CSocketServer@Win32@OnlineGameLib@@@std@@QAE@ABV01@@Z 1000dbe0 f i common:SocketServer.obj
 0001:0000cbf0       ?max_size@?$allocator@PAVWorkerThread@CSocketServer@Win32@OnlineGameLib@@@std@@QBEIXZ 1000dbf0 f i common:SocketServer.obj
 0001:0000cc00       ?_Lmost@?$_Tree@V?$_Tmap_traits@IPAVCIOBuffer@Win32@OnlineGameLib@@U?$less@I@std@@V?$allocator@U?$pair@$$CBIPAVCIOBuffer@Win32@OnlineGameLib@@@std@@@5@$0A@@std@@@std@@IBEAAPAU_Node@?$_Tree_nod@V?$_Tmap_traits@IPAVCIOBuffer@Win32@OnlineGameLib@@U?$less@I@std@@V?$allocator@U?$pair@$$CBIPAVCIOBuffer@Win32@OnlineGameLib@@@std@@@5@$0A@@std@@@2@XZ 1000dc00 f i common:SocketServer.obj
 0001:0000cc10       ??G?$_Vector_const_iterator@PAVWorkerThread@CSocketServer@Win32@OnlineGameLib@@V?$allocator@PAVWorkerThread@CSocketServer@Win32@OnlineGameLib@@@std@@@std@@QBEHABV01@@Z 1000dc10 f i common:SocketServer.obj
 0001:0000cc40       ??8const_iterator@?$_Tree@V?$_Tmap_traits@IPAVCIOBuffer@Win32@OnlineGameLib@@U?$less@I@std@@V?$allocator@U?$pair@$$CBIPAVCIOBuffer@Win32@OnlineGameLib@@@std@@@5@$0A@@std@@@std@@QBE_NABV012@@Z 1000dc40 f i common:SocketServer.obj
 0001:0000cc70       ??9const_iterator@?$_Tree@V?$_Tmap_traits@IPAVCIOBuffer@Win32@OnlineGameLib@@U?$less@I@std@@V?$allocator@U?$pair@$$CBIPAVCIOBuffer@Win32@OnlineGameLib@@@std@@@5@$0A@@std@@@std@@QBE_NABV012@@Z 1000dc70 f i common:SocketServer.obj
 0001:0000cca0       ??0?$_Ranit@PAVWorkerThread@CSocketServer@Win32@OnlineGameLib@@HPBQAV1234@ABQAV1234@@std@@QAE@XZ 1000dca0 f i common:SocketServer.obj
 0001:0000ccb0       ?_Color@?$_Tree@V?$_Tmap_traits@IPAVCIOBuffer@Win32@OnlineGameLib@@U?$less@I@std@@V?$allocator@U?$pair@$$CBIPAVCIOBuffer@Win32@OnlineGameLib@@@std@@@5@$0A@@std@@@std@@KAAADPAU_Node@?$_Tree_nod@V?$_Tmap_traits@IPAVCIOBuffer@Win32@OnlineGameLib@@U?$less@I@std@@V?$allocator@U?$pair@$$CBIPAVCIOBuffer@Win32@OnlineGameLib@@@std@@@5@$0A@@std@@@2@@Z 1000dcb0 f i common:SocketServer.obj
 0001:0000ccc0       ?_Isnil@?$_Tree@V?$_Tmap_traits@IPAVCIOBuffer@Win32@OnlineGameLib@@U?$less@I@std@@V?$allocator@U?$pair@$$CBIPAVCIOBuffer@Win32@OnlineGameLib@@@std@@@5@$0A@@std@@@std@@KAAADPAU_Node@?$_Tree_nod@V?$_Tmap_traits@IPAVCIOBuffer@Win32@OnlineGameLib@@U?$less@I@std@@V?$allocator@U?$pair@$$CBIPAVCIOBuffer@Win32@OnlineGameLib@@@std@@@5@$0A@@std@@@2@@Z 1000dcc0 f i common:SocketServer.obj
 0001:0000ccd0       ?_Max@?$_Tree@V?$_Tmap_traits@IPAVCIOBuffer@Win32@OnlineGameLib@@U?$less@I@std@@V?$allocator@U?$pair@$$CBIPAVCIOBuffer@Win32@OnlineGameLib@@@std@@@5@$0A@@std@@@std@@KAPAU_Node@?$_Tree_nod@V?$_Tmap_traits@IPAVCIOBuffer@Win32@OnlineGameLib@@U?$less@I@std@@V?$allocator@U?$pair@$$CBIPAVCIOBuffer@Win32@OnlineGameLib@@@std@@@5@$0A@@std@@@2@PAU342@@Z 1000dcd0 f i common:SocketServer.obj
 0001:0000ccf0       ?_Min@?$_Tree@V?$_Tmap_traits@IPAVCIOBuffer@Win32@OnlineGameLib@@U?$less@I@std@@V?$allocator@U?$pair@$$CBIPAVCIOBuffer@Win32@OnlineGameLib@@@std@@@5@$0A@@std@@@std@@KAPAU_Node@?$_Tree_nod@V?$_Tmap_traits@IPAVCIOBuffer@Win32@OnlineGameLib@@U?$less@I@std@@V?$allocator@U?$pair@$$CBIPAVCIOBuffer@Win32@OnlineGameLib@@@std@@@5@$0A@@std@@@2@PAU342@@Z 1000dcf0 f i common:SocketServer.obj
 0001:0000cd10       ?_Rmost@?$_Tree@V?$_Tmap_traits@IPAVCIOBuffer@Win32@OnlineGameLib@@U?$less@I@std@@V?$allocator@U?$pair@$$CBIPAVCIOBuffer@Win32@OnlineGameLib@@@std@@@5@$0A@@std@@@std@@IBEAAPAU_Node@?$_Tree_nod@V?$_Tmap_traits@IPAVCIOBuffer@Win32@OnlineGameLib@@U?$less@I@std@@V?$allocator@U?$pair@$$CBIPAVCIOBuffer@Win32@OnlineGameLib@@@std@@@5@$0A@@std@@@2@XZ 1000dd10 f i common:SocketServer.obj
 0001:0000cd20       ?_Root@?$_Tree@V?$_Tmap_traits@IPAVCIOBuffer@Win32@OnlineGameLib@@U?$less@I@std@@V?$allocator@U?$pair@$$CBIPAVCIOBuffer@Win32@OnlineGameLib@@@std@@@5@$0A@@std@@@std@@IBEAAPAU_Node@?$_Tree_nod@V?$_Tmap_traits@IPAVCIOBuffer@Win32@OnlineGameLib@@U?$less@I@std@@V?$allocator@U?$pair@$$CBIPAVCIOBuffer@Win32@OnlineGameLib@@@std@@@5@$0A@@std@@@2@XZ 1000dd20 f i common:SocketServer.obj
 0001:0000cd30       ?_Rrotate@?$_Tree@V?$_Tmap_traits@IPAVCIOBuffer@Win32@OnlineGameLib@@U?$less@I@std@@V?$allocator@U?$pair@$$CBIPAVCIOBuffer@Win32@OnlineGameLib@@@std@@@5@$0A@@std@@@std@@IAEXPAU_Node@?$_Tree_nod@V?$_Tmap_traits@IPAVCIOBuffer@Win32@OnlineGameLib@@U?$less@I@std@@V?$allocator@U?$pair@$$CBIPAVCIOBuffer@Win32@OnlineGameLib@@@std@@@5@$0A@@std@@@2@@Z 1000dd30 f i common:SocketServer.obj
 0001:0000cd90       ??Y?$_Vector_const_iterator@PAVWorkerThread@CSocketServer@Win32@OnlineGameLib@@V?$allocator@PAVWorkerThread@CSocketServer@Win32@OnlineGameLib@@@std@@@std@@QAEAAV01@H@Z 1000dd90 f i common:SocketServer.obj
 0001:0000cdd0       ?_Mynode@const_iterator@?$_Tree@V?$_Tmap_traits@IPAVCIOBuffer@Win32@OnlineGameLib@@U?$less@I@std@@V?$allocator@U?$pair@$$CBIPAVCIOBuffer@Win32@OnlineGameLib@@@std@@@5@$0A@@std@@@std@@QBEPAU_Node@?$_Tree_nod@V?$_Tmap_traits@IPAVCIOBuffer@Win32@OnlineGameLib@@U?$less@I@std@@V?$allocator@U?$pair@$$CBIPAVCIOBuffer@Win32@OnlineGameLib@@@std@@@5@$0A@@std@@@3@XZ 1000ddd0 f i common:SocketServer.obj
 0001:0000cde0       ??0?$_Bidit@U?$pair@$$CBIPAVCIOBuffer@Win32@OnlineGameLib@@@std@@HPBU12@ABU12@@std@@QAE@XZ 1000dde0 f i common:SocketServer.obj
 0001:0000cdf0       ?_Inc@const_iterator@?$_Tree@V?$_Tmap_traits@IPAVCIOBuffer@Win32@OnlineGameLib@@U?$less@I@std@@V?$allocator@U?$pair@$$CBIPAVCIOBuffer@Win32@OnlineGameLib@@@std@@@5@$0A@@std@@@std@@QAEXXZ 1000ddf0 f i common:SocketServer.obj
 0001:0000ce60       ?PopNode@?$TNodeList@VSocket@CSocketServer@Win32@OnlineGameLib@@@OnlineGameLib@@QAEPAVSocket@CSocketServer@Win32@2@XZ 1000de60 f i common:SocketServer.obj
 0001:0000ce70       ?Head@?$TNodeList@VSocket@CSocketServer@Win32@OnlineGameLib@@@OnlineGameLib@@QBEPAVSocket@CSocketServer@Win32@2@XZ 1000de70 f i common:SocketServer.obj
 0001:0000ce80       ?Next@?$TNodeList@VSocket@CSocketServer@Win32@OnlineGameLib@@@OnlineGameLib@@SAPAVSocket@CSocketServer@Win32@2@PBV3452@@Z 1000de80 f i common:SocketServer.obj
 0001:0000ce90       ??$_Allocate@PAVWorkerThread@CSocketServer@Win32@OnlineGameLib@@@std@@YAPAPAVWorkerThread@CSocketServer@Win32@OnlineGameLib@@IPAPAV1234@@Z 1000de90 f i common:SocketServer.obj
 0001:0000cef0       ??$_Destroy@PAU_Node@?$_Tree_nod@V?$_Tmap_traits@IPAVCIOBuffer@Win32@OnlineGameLib@@U?$less@I@std@@V?$allocator@U?$pair@$$CBIPAVCIOBuffer@Win32@OnlineGameLib@@@std@@@5@$0A@@std@@@std@@@std@@YAXPAPAU_Node@?$_Tree_nod@V?$_Tmap_traits@IPAVCIOBuffer@Win32@OnlineGameLib@@U?$less@I@std@@V?$allocator@U?$pair@$$CBIPAVCIOBuffer@Win32@OnlineGameLib@@@std@@@5@$0A@@std@@@0@@Z 1000def0 f i common:SocketServer.obj
 0001:0000cf00       ??$_Destroy@U_Node@?$_Tree_nod@V?$_Tmap_traits@IPAVCIOBuffer@Win32@OnlineGameLib@@U?$less@I@std@@V?$allocator@U?$pair@$$CBIPAVCIOBuffer@Win32@OnlineGameLib@@@std@@@5@$0A@@std@@@std@@@std@@YAXPAU_Node@?$_Tree_nod@V?$_Tmap_traits@IPAVCIOBuffer@Win32@OnlineGameLib@@U?$less@I@std@@V?$allocator@U?$pair@$$CBIPAVCIOBuffer@Win32@OnlineGameLib@@@std@@@5@$0A@@std@@@0@@Z 1000df00 f i common:SocketServer.obj
 0001:0000cf10       ??$_Ptr_cat@PAPAVWorkerThread@CSocketServer@Win32@OnlineGameLib@@PAPAV1234@@std@@YA?AU_Scalar_ptr_iterator_tag@0@AAPAPAVWorkerThread@CSocketServer@Win32@OnlineGameLib@@0@Z 1000df10 f i common:SocketServer.obj
 0001:0000cf20       ??$_Destroy_range@PAVWorkerThread@CSocketServer@Win32@OnlineGameLib@@V?$allocator@PAVWorkerThread@CSocketServer@Win32@OnlineGameLib@@@std@@@std@@YAXPAPAVWorkerThread@CSocketServer@Win32@OnlineGameLib@@0AAV?$allocator@PAVWorkerThread@CSocketServer@Win32@OnlineGameLib@@@0@U_Scalar_ptr_iterator_tag@0@@Z 1000df20 f i common:SocketServer.obj
 0001:0000cf30       ??$_Fill@PAPAVWorkerThread@CSocketServer@Win32@OnlineGameLib@@PAV1234@@std@@YAXPAPAVWorkerThread@CSocketServer@Win32@OnlineGameLib@@0ABQAV1234@@Z 1000df30 f i common:SocketServer.obj
 0001:0000cf50       ??$_Iter_random@PAPAVWorkerThread@CSocketServer@Win32@OnlineGameLib@@PAPAV1234@@std@@YA?AUrandom_access_iterator_tag@0@ABQAPAVWorkerThread@CSocketServer@Win32@OnlineGameLib@@0@Z 1000df50 f i common:SocketServer.obj
 0001:0000cf60       ??$_Move_cat@PAPAVWorkerThread@CSocketServer@Win32@OnlineGameLib@@@std@@YA?AU_Undefined_move_tag@0@ABQAPAVWorkerThread@CSocketServer@Win32@OnlineGameLib@@@Z 1000df60 f i common:SocketServer.obj
 0001:0000cf70       ??$_Checked_base@PAPAVWorkerThread@CSocketServer@Win32@OnlineGameLib@@@std@@YAPAPAVWorkerThread@CSocketServer@Win32@OnlineGameLib@@AAPAPAV1234@U_Unchanged_checked_iterator_base_type_tag@0@@Z 1000df70 f i common:SocketServer.obj
 0001:0000cf80       ??$_Copy_backward_opt@PAPAVWorkerThread@CSocketServer@Win32@OnlineGameLib@@PAPAV1234@Urandom_access_iterator_tag@std@@@std@@YAPAPAVWorkerThread@CSocketServer@Win32@OnlineGameLib@@PAPAV1234@00Urandom_access_iterator_tag@0@U_Scalar_ptr_iterator_tag@0@U_Range_checked_iterator_tag@0@@Z 1000df80 f i common:SocketServer.obj
 0001:0000cfb0       ??$_Iter_cat@PAPAVWorkerThread@CSocketServer@Win32@OnlineGameLib@@@std@@YA?AUrandom_access_iterator_tag@0@ABQAPAVWorkerThread@CSocketServer@Win32@OnlineGameLib@@@Z 1000dfb0 f i common:SocketServer.obj
 0001:0000cfc0       ?_Checked_iterator_base@?$_Vector_iterator@PAVWorkerThread@CSocketServer@Win32@OnlineGameLib@@V?$allocator@PAVWorkerThread@CSocketServer@Win32@OnlineGameLib@@@std@@@std@@QBEPAPAVWorkerThread@CSocketServer@Win32@OnlineGameLib@@XZ 1000dfc0 f i common:SocketServer.obj
 0001:0000cfd0       ??$_Uninit_copy@PAPAVWorkerThread@CSocketServer@Win32@OnlineGameLib@@PAPAV1234@V?$allocator@PAVWorkerThread@CSocketServer@Win32@OnlineGameLib@@@std@@@std@@YAPAPAVWorkerThread@CSocketServer@Win32@OnlineGameLib@@PAPAV1234@00AAV?$allocator@PAVWorkerThread@CSocketServer@Win32@OnlineGameLib@@@0@U_Scalar_ptr_iterator_tag@0@U_Range_checked_iterator_tag@0@@Z 1000dfd0 f i common:SocketServer.obj
 0001:0000d000       ??$_Fill_n@PAPAVWorkerThread@CSocketServer@Win32@OnlineGameLib@@IPAV1234@@std@@YAXPAPAVWorkerThread@CSocketServer@Win32@OnlineGameLib@@IABQAV1234@U_Range_checked_iterator_tag@0@@Z 1000e000 f i common:SocketServer.obj
 0001:0000d030       ??_ECSocketServer@Win32@OnlineGameLib@@W7AEPAXI@Z 1000e030 f i common:SocketServer.obj
 0001:0000d040       ??0CSocketServer@Win32@OnlineGameLib@@IAE@IIII_N0@Z 1000e040 f   common:SocketServer.obj
 0001:0000d150       ??_ECSocketServer@Win32@OnlineGameLib@@UAEPAXI@Z 1000e150 f i common:SocketServer.obj
 0001:0000d150       ??_GCSocketServer@Win32@OnlineGameLib@@UAEPAXI@Z 1000e150 f i common:SocketServer.obj
 0001:0000d170       ?CreateWorkerThread@CSocketServer@Win32@OnlineGameLib@@EAEPAVWorkerThread@123@AAVCIOCompletionPort@23@@Z 1000e170 f   common:SocketServer.obj
 0001:0000d1f0       ?PostIoOperation@CSocketServer@Win32@OnlineGameLib@@AAEXPAVSocket@123@PAVCIOBuffer@23@W4enumIO_Operation@123@@Z 1000e1f0 f   common:SocketServer.obj
 0001:0000d230       ??_GWorkerThread@CSocketServer@Win32@OnlineGameLib@@UAEPAXI@Z 1000e230 f i common:SocketServer.obj
 0001:0000d230       ??_EWorkerThread@CSocketServer@Win32@OnlineGameLib@@UAEPAXI@Z 1000e230 f i common:SocketServer.obj
 0001:0000d250       ??A?$vector@PAVWorkerThread@CSocketServer@Win32@OnlineGameLib@@V?$allocator@PAVWorkerThread@CSocketServer@Win32@OnlineGameLib@@@std@@@std@@QAEAAPAVWorkerThread@CSocketServer@Win32@OnlineGameLib@@I@Z 1000e250 f i common:SocketServer.obj
 0001:0000d280       ?max_size@?$vector@PAVWorkerThread@CSocketServer@Win32@OnlineGameLib@@V?$allocator@PAVWorkerThread@CSocketServer@Win32@OnlineGameLib@@@std@@@std@@QBEIXZ 1000e280 f i common:SocketServer.obj
 0001:0000d290       ??0?$_Vector_val@PAVWorkerThread@CSocketServer@Win32@OnlineGameLib@@V?$allocator@PAVWorkerThread@CSocketServer@Win32@OnlineGameLib@@@std@@@std@@IAE@V?$allocator@PAVWorkerThread@CSocketServer@Win32@OnlineGameLib@@@1@@Z 1000e290 f i common:SocketServer.obj
 0001:0000d2a0       ?allocate@?$allocator@PAVWorkerThread@CSocketServer@Win32@OnlineGameLib@@@std@@QAEPAPAVWorkerThread@CSocketServer@Win32@OnlineGameLib@@I@Z 1000e2a0 f i common:SocketServer.obj
 0001:0000d2c0       ?destroy@?$allocator@PAU_Node@?$_Tree_nod@V?$_Tmap_traits@IPAVCIOBuffer@Win32@OnlineGameLib@@U?$less@I@std@@V?$allocator@U?$pair@$$CBIPAVCIOBuffer@Win32@OnlineGameLib@@@std@@@5@$0A@@std@@@std@@@std@@QAEXPAPAU_Node@?$_Tree_nod@V?$_Tmap_traits@IPAVCIOBuffer@Win32@OnlineGameLib@@U?$less@I@std@@V?$allocator@U?$pair@$$CBIPAVCIOBuffer@Win32@OnlineGameLib@@@std@@@5@$0A@@std@@@2@@Z 1000e2c0 f i common:SocketServer.obj
 0001:0000d2d0       ??G?$_Vector_iterator@PAVWorkerThread@CSocketServer@Win32@OnlineGameLib@@V?$allocator@PAVWorkerThread@CSocketServer@Win32@OnlineGameLib@@@std@@@std@@QBEHABV?$_Vector_const_iterator@PAVWorkerThread@CSocketServer@Win32@OnlineGameLib@@V?$allocator@PAVWorkerThread@CSocketServer@Win32@OnlineGameLib@@@std@@@1@@Z 1000e2d0 f i common:SocketServer.obj
 0001:0000d300       ??Y?$_Vector_iterator@PAVWorkerThread@CSocketServer@Win32@OnlineGameLib@@V?$allocator@PAVWorkerThread@CSocketServer@Win32@OnlineGameLib@@@std@@@std@@QAEAAV01@H@Z 1000e300 f i common:SocketServer.obj
 0001:0000d340       ??0?$_Vector_const_iterator@PAVWorkerThread@CSocketServer@Win32@OnlineGameLib@@V?$allocator@PAVWorkerThread@CSocketServer@Win32@OnlineGameLib@@@std@@@std@@QAE@PAPAVWorkerThread@CSocketServer@Win32@OnlineGameLib@@PBU_Container_base@1@@Z 1000e340 f i common:SocketServer.obj
 0001:0000d380       ?_Lrotate@?$_Tree@V?$_Tmap_traits@IPAVCIOBuffer@Win32@OnlineGameLib@@U?$less@I@std@@V?$allocator@U?$pair@$$CBIPAVCIOBuffer@Win32@OnlineGameLib@@@std@@@5@$0A@@std@@@std@@IAEXPAU_Node@?$_Tree_nod@V?$_Tmap_traits@IPAVCIOBuffer@Win32@OnlineGameLib@@U?$less@I@std@@V?$allocator@U?$pair@$$CBIPAVCIOBuffer@Win32@OnlineGameLib@@@std@@@5@$0A@@std@@@2@@Z 1000e380 f i common:SocketServer.obj
 0001:0000d3d0       ?destroy@?$allocator@U_Node@?$_Tree_nod@V?$_Tmap_traits@IPAVCIOBuffer@Win32@OnlineGameLib@@U?$less@I@std@@V?$allocator@U?$pair@$$CBIPAVCIOBuffer@Win32@OnlineGameLib@@@std@@@5@$0A@@std@@@std@@@std@@QAEXPAU_Node@?$_Tree_nod@V?$_Tmap_traits@IPAVCIOBuffer@Win32@OnlineGameLib@@U?$less@I@std@@V?$allocator@U?$pair@$$CBIPAVCIOBuffer@Win32@OnlineGameLib@@@std@@@5@$0A@@std@@@2@@Z 1000e3d0 f i common:SocketServer.obj
 0001:0000d3e0       ??0const_iterator@?$_Tree@V?$_Tmap_traits@IPAVCIOBuffer@Win32@OnlineGameLib@@U?$less@I@std@@V?$allocator@U?$pair@$$CBIPAVCIOBuffer@Win32@OnlineGameLib@@@std@@@5@$0A@@std@@@std@@QAE@PAU_Node@?$_Tree_nod@V?$_Tmap_traits@IPAVCIOBuffer@Win32@OnlineGameLib@@U?$less@I@std@@V?$allocator@U?$pair@$$CBIPAVCIOBuffer@Win32@OnlineGameLib@@@std@@@5@$0A@@std@@@2@PBV12@@Z 1000e3e0 f i common:SocketServer.obj
 0001:0000d410       ??Econst_iterator@?$_Tree@V?$_Tmap_traits@IPAVCIOBuffer@Win32@OnlineGameLib@@U?$less@I@std@@V?$allocator@U?$pair@$$CBIPAVCIOBuffer@Win32@OnlineGameLib@@@std@@@5@$0A@@std@@@std@@QAEAAV012@XZ 1000e410 f i common:SocketServer.obj
 0001:0000d420       ??$_Destroy_range@PAVWorkerThread@CSocketServer@Win32@OnlineGameLib@@V?$allocator@PAVWorkerThread@CSocketServer@Win32@OnlineGameLib@@@std@@@std@@YAXPAPAVWorkerThread@CSocketServer@Win32@OnlineGameLib@@0AAV?$allocator@PAVWorkerThread@CSocketServer@Win32@OnlineGameLib@@@0@@Z 1000e420 f i common:SocketServer.obj
 0001:0000d430       ??$_Checked_base@PAPAVWorkerThread@CSocketServer@Win32@OnlineGameLib@@@std@@YAPAPAVWorkerThread@CSocketServer@Win32@OnlineGameLib@@AAPAPAV1234@@Z 1000e430 f i common:SocketServer.obj
 0001:0000d440       ??$_Move_backward_opt@PAPAVWorkerThread@CSocketServer@Win32@OnlineGameLib@@PAPAV1234@Urandom_access_iterator_tag@std@@U_Undefined_move_tag@6@@std@@YAPAPAVWorkerThread@CSocketServer@Win32@OnlineGameLib@@PAPAV1234@00Urandom_access_iterator_tag@0@U_Undefined_move_tag@0@U_Range_checked_iterator_tag@0@@Z 1000e440 f i common:SocketServer.obj
 0001:0000d470       ??$_Checked_base@V?$_Vector_iterator@PAVWorkerThread@CSocketServer@Win32@OnlineGameLib@@V?$allocator@PAVWorkerThread@CSocketServer@Win32@OnlineGameLib@@@std@@@std@@U_Different_checked_iterator_base_type_tag@2@@std@@YAPAPAVWorkerThread@CSocketServer@Win32@OnlineGameLib@@AAV?$_Vector_iterator@PAVWorkerThread@CSocketServer@Win32@OnlineGameLib@@V?$allocator@PAVWorkerThread@CSocketServer@Win32@OnlineGameLib@@@std@@@0@U_Different_checked_iterator_base_type_tag@0@@Z 1000e470 f i common:SocketServer.obj
 0001:0000d480       ??$unchecked_uninitialized_copy@PAPAVWorkerThread@CSocketServer@Win32@OnlineGameLib@@PAPAV1234@V?$allocator@PAVWorkerThread@CSocketServer@Win32@OnlineGameLib@@@std@@@stdext@@YAPAPAVWorkerThread@CSocketServer@Win32@OnlineGameLib@@PAPAV1234@00AAV?$allocator@PAVWorkerThread@CSocketServer@Win32@OnlineGameLib@@@std@@@Z 1000e480 f i common:SocketServer.obj
 0001:0000d4b0       ??$_Fill_n@PAPAVWorkerThread@CSocketServer@Win32@OnlineGameLib@@IPAV1234@@std@@YAXPAPAVWorkerThread@CSocketServer@Win32@OnlineGameLib@@IABQAV1234@Urandom_access_iterator_tag@0@U_Range_checked_iterator_tag@0@@Z 1000e4b0 f i common:SocketServer.obj
 0001:0000d4e0       ?_Destroy@?$vector@PAVWorkerThread@CSocketServer@Win32@OnlineGameLib@@V?$allocator@PAVWorkerThread@CSocketServer@Win32@OnlineGameLib@@@std@@@std@@IAEXPAPAVWorkerThread@CSocketServer@Win32@OnlineGameLib@@0@Z 1000e4e0 f i common:SocketServer.obj
 0001:0000d4f0       ?_Tidy@?$vector@PAVWorkerThread@CSocketServer@Win32@OnlineGameLib@@V?$allocator@PAVWorkerThread@CSocketServer@Win32@OnlineGameLib@@@std@@@std@@IAEXXZ 1000e4f0 f i common:SocketServer.obj
 0001:0000d520       ??0?$_Vector_iterator@PAVWorkerThread@CSocketServer@Win32@OnlineGameLib@@V?$allocator@PAVWorkerThread@CSocketServer@Win32@OnlineGameLib@@@std@@@std@@QAE@PAPAVWorkerThread@CSocketServer@Win32@OnlineGameLib@@PBU_Container_base@1@@Z 1000e520 f i common:SocketServer.obj
 0001:0000d560       ??H?$_Vector_iterator@PAVWorkerThread@CSocketServer@Win32@OnlineGameLib@@V?$allocator@PAVWorkerThread@CSocketServer@Win32@OnlineGameLib@@@std@@@std@@QBE?AV01@H@Z 1000e560 f i common:SocketServer.obj
 0001:0000d5a0       ??0iterator@?$_Tree@V?$_Tmap_traits@IPAVCIOBuffer@Win32@OnlineGameLib@@U?$less@I@std@@V?$allocator@U?$pair@$$CBIPAVCIOBuffer@Win32@OnlineGameLib@@@std@@@5@$0A@@std@@@std@@QAE@PAU_Node@?$_Tree_nod@V?$_Tmap_traits@IPAVCIOBuffer@Win32@OnlineGameLib@@U?$less@I@std@@V?$allocator@U?$pair@$$CBIPAVCIOBuffer@Win32@OnlineGameLib@@@std@@@5@$0A@@std@@@2@PBV12@@Z 1000e5a0 f i common:SocketServer.obj
 0001:0000d5d0       ?_Erase@?$_Tree@V?$_Tmap_traits@IPAVCIOBuffer@Win32@OnlineGameLib@@U?$less@I@std@@V?$allocator@U?$pair@$$CBIPAVCIOBuffer@Win32@OnlineGameLib@@@std@@@5@$0A@@std@@@std@@IAEXPAU_Node@?$_Tree_nod@V?$_Tmap_traits@IPAVCIOBuffer@Win32@OnlineGameLib@@U?$less@I@std@@V?$allocator@U?$pair@$$CBIPAVCIOBuffer@Win32@OnlineGameLib@@@std@@@5@$0A@@std@@@2@@Z 1000e5d0 f i common:SocketServer.obj
 0001:0000d610       ??Eiterator@?$_Tree@V?$_Tmap_traits@IPAVCIOBuffer@Win32@OnlineGameLib@@U?$less@I@std@@V?$allocator@U?$pair@$$CBIPAVCIOBuffer@Win32@OnlineGameLib@@@std@@@5@$0A@@std@@@std@@QAEAAV012@XZ 1000e610 f i common:SocketServer.obj
 0001:0000d620       ??$fill@PAPAVWorkerThread@CSocketServer@Win32@OnlineGameLib@@PAV1234@@std@@YAXPAPAVWorkerThread@CSocketServer@Win32@OnlineGameLib@@0ABQAV1234@@Z 1000e620 f i common:SocketServer.obj
 0001:0000d640       ??$_Unchecked_move_backward@PAPAVWorkerThread@CSocketServer@Win32@OnlineGameLib@@PAPAV1234@@stdext@@YAPAPAVWorkerThread@CSocketServer@Win32@OnlineGameLib@@PAPAV1234@00@Z 1000e640 f i common:SocketServer.obj
 0001:0000d670       ??$_Checked_base@V?$_Vector_iterator@PAVWorkerThread@CSocketServer@Win32@OnlineGameLib@@V?$allocator@PAVWorkerThread@CSocketServer@Win32@OnlineGameLib@@@std@@@std@@@std@@YAPAPAVWorkerThread@CSocketServer@Win32@OnlineGameLib@@AAV?$_Vector_iterator@PAVWorkerThread@CSocketServer@Win32@OnlineGameLib@@V?$allocator@PAVWorkerThread@CSocketServer@Win32@OnlineGameLib@@@std@@@0@@Z 1000e670 f i common:SocketServer.obj
 0001:0000d680       ??$_Uninit_move@PAPAVWorkerThread@CSocketServer@Win32@OnlineGameLib@@PAPAV1234@V?$allocator@PAVWorkerThread@CSocketServer@Win32@OnlineGameLib@@@std@@U_Undefined_move_tag@6@@std@@YAPAPAVWorkerThread@CSocketServer@Win32@OnlineGameLib@@PAPAV1234@00AAV?$allocator@PAVWorkerThread@CSocketServer@Win32@OnlineGameLib@@@0@U_Undefined_move_tag@0@U_Range_checked_iterator_tag@0@@Z 1000e680 f i common:SocketServer.obj
 0001:0000d6b0       ??$unchecked_fill_n@PAPAVWorkerThread@CSocketServer@Win32@OnlineGameLib@@IPAV1234@@stdext@@YAXPAPAVWorkerThread@CSocketServer@Win32@OnlineGameLib@@IABQAV1234@@Z 1000e6b0 f i common:SocketServer.obj
 0001:0000d6e0       ??1?$vector@PAVWorkerThread@CSocketServer@Win32@OnlineGameLib@@V?$allocator@PAVWorkerThread@CSocketServer@Win32@OnlineGameLib@@@std@@@std@@QAE@XZ 1000e6e0 f i common:SocketServer.obj
 0001:0000d710       ?begin@?$vector@PAVWorkerThread@CSocketServer@Win32@OnlineGameLib@@V?$allocator@PAVWorkerThread@CSocketServer@Win32@OnlineGameLib@@@std@@@std@@QAE?AV?$_Vector_iterator@PAVWorkerThread@CSocketServer@Win32@OnlineGameLib@@V?$allocator@PAVWorkerThread@CSocketServer@Win32@OnlineGameLib@@@std@@@2@XZ 1000e710 f i common:SocketServer.obj
 0001:0000d740       ?end@?$vector@PAVWorkerThread@CSocketServer@Win32@OnlineGameLib@@V?$allocator@PAVWorkerThread@CSocketServer@Win32@OnlineGameLib@@@std@@@std@@QAE?AV?$_Vector_iterator@PAVWorkerThread@CSocketServer@Win32@OnlineGameLib@@V?$allocator@PAVWorkerThread@CSocketServer@Win32@OnlineGameLib@@@std@@@2@XZ 1000e740 f i common:SocketServer.obj
 0001:0000d770       ?begin@?$_Tree@V?$_Tmap_traits@IPAVCIOBuffer@Win32@OnlineGameLib@@U?$less@I@std@@V?$allocator@U?$pair@$$CBIPAVCIOBuffer@Win32@OnlineGameLib@@@std@@@5@$0A@@std@@@std@@QAE?AViterator@12@XZ 1000e770 f i common:SocketServer.obj
 0001:0000d790       ?end@?$_Tree@V?$_Tmap_traits@IPAVCIOBuffer@Win32@OnlineGameLib@@U?$less@I@std@@V?$allocator@U?$pair@$$CBIPAVCIOBuffer@Win32@OnlineGameLib@@@std@@@5@$0A@@std@@@std@@QAE?AViterator@12@XZ 1000e790 f i common:SocketServer.obj
 0001:0000d7a0       ?clear@?$_Tree@V?$_Tmap_traits@IPAVCIOBuffer@Win32@OnlineGameLib@@U?$less@I@std@@V?$allocator@U?$pair@$$CBIPAVCIOBuffer@Win32@OnlineGameLib@@@std@@@5@$0A@@std@@@std@@QAEXXZ 1000e7a0 f i common:SocketServer.obj
 0001:0000d7d0       ??Eiterator@?$_Tree@V?$_Tmap_traits@IPAVCIOBuffer@Win32@OnlineGameLib@@U?$less@I@std@@V?$allocator@U?$pair@$$CBIPAVCIOBuffer@Win32@OnlineGameLib@@@std@@@5@$0A@@std@@@std@@QAE?AV012@H@Z 1000e7d0 f i common:SocketServer.obj
 0001:0000d7f0       ??$_Unchecked_uninitialized_move@V?$_Vector_iterator@PAVWorkerThread@CSocketServer@Win32@OnlineGameLib@@V?$allocator@PAVWorkerThread@CSocketServer@Win32@OnlineGameLib@@@std@@@std@@PAPAVWorkerThread@CSocketServer@Win32@OnlineGameLib@@V?$allocator@PAVWorkerThread@CSocketServer@Win32@OnlineGameLib@@@2@@stdext@@YAPAPAVWorkerThread@CSocketServer@Win32@OnlineGameLib@@V?$_Vector_iterator@PAVWorkerThread@CSocketServer@Win32@OnlineGameLib@@V?$allocator@PAVWorkerThread@CSocketServer@Win32@OnlineGameLib@@@std@@@std@@0PAPAV1234@AAV?$allocator@PAVWorkerThread@CSocketServer@Win32@OnlineGameLib@@@6@@Z 1000e7f0 f i common:SocketServer.obj
 0001:0000d820       ??$_Uninit_fill_n@PAPAVWorkerThread@CSocketServer@Win32@OnlineGameLib@@IPAV1234@V?$allocator@PAVWorkerThread@CSocketServer@Win32@OnlineGameLib@@@std@@@std@@YAXPAPAVWorkerThread@CSocketServer@Win32@OnlineGameLib@@IABQAV1234@AAV?$allocator@PAVWorkerThread@CSocketServer@Win32@OnlineGameLib@@@0@U_Scalar_ptr_iterator_tag@0@U_Range_checked_iterator_tag@0@@Z 1000e820 f i common:SocketServer.obj
 0001:0000d850       ??$_Unchecked_uninitialized_move@PAPAVWorkerThread@CSocketServer@Win32@OnlineGameLib@@PAPAV1234@V?$allocator@PAVWorkerThread@CSocketServer@Win32@OnlineGameLib@@@std@@@stdext@@YAPAPAVWorkerThread@CSocketServer@Win32@OnlineGameLib@@PAPAV1234@00AAV?$allocator@PAVWorkerThread@CSocketServer@Win32@OnlineGameLib@@@std@@@Z 1000e850 f i common:SocketServer.obj
 0001:0000d880       ?OnConnectionError@CSocketServer@Win32@OnlineGameLib@@EAEXW4enumConnectionErrorSource@123@PAVSocket@123@PAVCIOBuffer@23@K@Z 1000e880 f   common:SocketServer.obj
 0001:0000d8d0       ??$_Umove@V?$_Vector_iterator@PAVWorkerThread@CSocketServer@Win32@OnlineGameLib@@V?$allocator@PAVWorkerThread@CSocketServer@Win32@OnlineGameLib@@@std@@@std@@@?$vector@PAVWorkerThread@CSocketServer@Win32@OnlineGameLib@@V?$allocator@PAVWorkerThread@CSocketServer@Win32@OnlineGameLib@@@std@@@std@@IAEPAPAVWorkerThread@CSocketServer@Win32@OnlineGameLib@@V?$_Vector_iterator@PAVWorkerThread@CSocketServer@Win32@OnlineGameLib@@V?$allocator@PAVWorkerThread@CSocketServer@Win32@OnlineGameLib@@@std@@@1@0PAPAV2345@@Z 1000e8d0 f i common:SocketServer.obj
 0001:0000d900       ??$unchecked_uninitialized_fill_n@PAPAVWorkerThread@CSocketServer@Win32@OnlineGameLib@@IPAV1234@V?$allocator@PAVWorkerThread@CSocketServer@Win32@OnlineGameLib@@@std@@@stdext@@YAXPAPAVWorkerThread@CSocketServer@Win32@OnlineGameLib@@IABQAV1234@AAV?$allocator@PAVWorkerThread@CSocketServer@Win32@OnlineGameLib@@@std@@@Z 1000e900 f i common:SocketServer.obj
 0001:0000d930       ??$_Umove@PAPAVWorkerThread@CSocketServer@Win32@OnlineGameLib@@@?$vector@PAVWorkerThread@CSocketServer@Win32@OnlineGameLib@@V?$allocator@PAVWorkerThread@CSocketServer@Win32@OnlineGameLib@@@std@@@std@@IAEPAPAVWorkerThread@CSocketServer@Win32@OnlineGameLib@@PAPAV2345@00@Z 1000e930 f i common:SocketServer.obj
 0001:0000d960       ?_Ufill@?$vector@PAVWorkerThread@CSocketServer@Win32@OnlineGameLib@@V?$allocator@PAVWorkerThread@CSocketServer@Win32@OnlineGameLib@@@std@@@std@@IAEPAPAVWorkerThread@CSocketServer@Win32@OnlineGameLib@@PAPAV3456@IABQAV3456@@Z 1000e960 f i common:SocketServer.obj
 0001:0000d990       ?_Xlen@?$vector@PAVWorkerThread@CSocketServer@Win32@OnlineGameLib@@V?$allocator@PAVWorkerThread@CSocketServer@Win32@OnlineGameLib@@@std@@@std@@KAXXZ 1000e990 f i common:SocketServer.obj
 0001:0000da10       ?_Insert_n@?$vector@PAVWorkerThread@CSocketServer@Win32@OnlineGameLib@@V?$allocator@PAVWorkerThread@CSocketServer@Win32@OnlineGameLib@@@std@@@std@@IAEXV?$_Vector_iterator@PAVWorkerThread@CSocketServer@Win32@OnlineGameLib@@V?$allocator@PAVWorkerThread@CSocketServer@Win32@OnlineGameLib@@@std@@@2@IABQAVWorkerThread@CSocketServer@Win32@OnlineGameLib@@@Z 1000ea10 f i common:SocketServer.obj
 0001:0000dbd0       ?erase@?$_Tree@V?$_Tmap_traits@IPAVCIOBuffer@Win32@OnlineGameLib@@U?$less@I@std@@V?$allocator@U?$pair@$$CBIPAVCIOBuffer@Win32@OnlineGameLib@@@std@@@5@$0A@@std@@@std@@QAE?AViterator@12@V312@@Z 1000ebd0 f i common:SocketServer.obj
 0001:0000de90       ?StopAcceptingConnections@CSocketServer@Win32@OnlineGameLib@@QAEXXZ 1000ee90 f   common:SocketServer.obj
 0001:0000dfa0       ?CreateListeningSocket@CSocketServer@Win32@OnlineGameLib@@EAEIKG@Z 1000efa0 f   common:SocketServer.obj
 0001:0000e0d0       ?WriteCompleted@CSocketServer@Win32@OnlineGameLib@@EAEXPAVSocket@123@PAVCIOBuffer@23@@Z 1000f0d0 f   common:SocketServer.obj
 0001:0000e170       ?Attach@Socket@CSocketServer@Win32@OnlineGameLib@@AAEXI@Z 1000f170 f   common:SocketServer.obj
 0001:0000e260       ?Shutdown@Socket@CSocketServer@Win32@OnlineGameLib@@QAEXH@Z 1000f260 f   common:SocketServer.obj
 0001:0000e390       ?WriteCompleted@Socket@CSocketServer@Win32@OnlineGameLib@@AAEXXZ 1000f390 f   common:SocketServer.obj
 0001:0000e3c0       ?OnClientClose@Socket@CSocketServer@Win32@OnlineGameLib@@AAEXXZ 1000f3c0 f   common:SocketServer.obj
 0001:0000e3f0       ?InternalClose@Socket@CSocketServer@Win32@OnlineGameLib@@AAEXXZ 1000f3f0 f   common:SocketServer.obj
 0001:0000e500       ?Read@Socket@CSocketServer@Win32@OnlineGameLib@@QAE_NPAVCIOBuffer@34@_N@Z 1000f500 f   common:SocketServer.obj
 0001:0000e620       ?Write@Socket@CSocketServer@Win32@OnlineGameLib@@QAE_NPBEI_N@Z 1000f620 f   common:SocketServer.obj
 0001:0000e7b0       ?Write@Socket@CSocketServer@Win32@OnlineGameLib@@QAE_NPAVCIOBuffer@34@_N@Z 1000f7b0 f   common:SocketServer.obj
 0001:0000e920       ?Run@WorkerThread@CSocketServer@Win32@OnlineGameLib@@MAEHXZ 1000f920 f   common:SocketServer.obj
 0001:0000eae0       ?reserve@?$vector@PAVWorkerThread@CSocketServer@Win32@OnlineGameLib@@V?$allocator@PAVWorkerThread@CSocketServer@Win32@OnlineGameLib@@@std@@@std@@QAEXI@Z 1000fae0 f i common:SocketServer.obj
 0001:0000eb90       ?insert@?$vector@PAVWorkerThread@CSocketServer@Win32@OnlineGameLib@@V?$allocator@PAVWorkerThread@CSocketServer@Win32@OnlineGameLib@@@std@@@std@@QAE?AV?$_Vector_iterator@PAVWorkerThread@CSocketServer@Win32@OnlineGameLib@@V?$allocator@PAVWorkerThread@CSocketServer@Win32@OnlineGameLib@@@std@@@2@V32@ABQAVWorkerThread@CSocketServer@Win32@OnlineGameLib@@@Z 1000fb90 f i common:SocketServer.obj
 0001:0000ec20       ?_Buy@?$vector@PAVWorkerThread@CSocketServer@Win32@OnlineGameLib@@V?$allocator@PAVWorkerThread@CSocketServer@Win32@OnlineGameLib@@@std@@@std@@IAE_NI@Z 1000fc20 f i common:SocketServer.obj
 0001:0000ec70       ?erase@?$_Tree@V?$_Tmap_traits@IPAVCIOBuffer@Win32@OnlineGameLib@@U?$less@I@std@@V?$allocator@U?$pair@$$CBIPAVCIOBuffer@Win32@OnlineGameLib@@@std@@@5@$0A@@std@@@std@@QAE?AViterator@12@V312@0@Z 1000fc70 f i common:SocketServer.obj
 0001:0000ed40       ?WriteCompleted@CSocketServer@Win32@OnlineGameLib@@KAXPAVSocket@123@@Z 1000fd40 f   common:SocketServer.obj
 0001:0000ed50       ?Close@Socket@CSocketServer@Win32@OnlineGameLib@@QAEXXZ 1000fd50 f   common:SocketServer.obj
 0001:0000edd0       ?AbortiveClose@Socket@CSocketServer@Win32@OnlineGameLib@@QAEXXZ 1000fdd0 f   common:SocketServer.obj
 0001:0000eed0       ?OnConnectionReset@Socket@CSocketServer@Win32@OnlineGameLib@@AAEXXZ 1000fed0 f   common:SocketServer.obj
 0001:0000ef50       ?Write@Socket@CSocketServer@Win32@OnlineGameLib@@QAE_NPBDI_N@Z 1000ff50 f   common:SocketServer.obj
 0001:0000ef60       ?OnConnectionError@Socket@CSocketServer@Win32@OnlineGameLib@@AAEXW4enumConnectionErrorSource@234@PAVCIOBuffer@34@K@Z 1000ff60 f   common:SocketServer.obj
 0001:0000efc0       ??0?$vector@PAVWorkerThread@CSocketServer@Win32@OnlineGameLib@@V?$allocator@PAVWorkerThread@CSocketServer@Win32@OnlineGameLib@@@std@@@std@@QAE@XZ 1000ffc0 f i common:SocketServer.obj
 0001:0000efd0       ?push_back@?$vector@PAVWorkerThread@CSocketServer@Win32@OnlineGameLib@@V?$allocator@PAVWorkerThread@CSocketServer@Win32@OnlineGameLib@@@std@@@std@@QAEXABQAVWorkerThread@CSocketServer@Win32@OnlineGameLib@@@Z 1000ffd0 f i common:SocketServer.obj
 0001:0000f040       ?_Tidy@?$_Tree@V?$_Tmap_traits@IPAVCIOBuffer@Win32@OnlineGameLib@@U?$less@I@std@@V?$allocator@U?$pair@$$CBIPAVCIOBuffer@Win32@OnlineGameLib@@@std@@@5@$0A@@std@@@std@@IAEXXZ 10010040 f i common:SocketServer.obj
 0001:0000f080       ?InitiateShutdown@CSocketServer@Win32@OnlineGameLib@@QAEXXZ 10010080 f   common:SocketServer.obj
 0001:0000f130       ??1?$_Tree@V?$_Tmap_traits@IPAVCIOBuffer@Win32@OnlineGameLib@@U?$less@I@std@@V?$allocator@U?$pair@$$CBIPAVCIOBuffer@Win32@OnlineGameLib@@@std@@@5@$0A@@std@@@std@@QAE@XZ 10010130 f i common:SocketServer.obj
 0001:0000f170       ??1?$map@IPAVCIOBuffer@Win32@OnlineGameLib@@U?$less@I@std@@V?$allocator@U?$pair@$$CBIPAVCIOBuffer@Win32@OnlineGameLib@@@std@@@5@@std@@QAE@XZ 10010170 f i common:SocketServer.obj
 0001:0000f1b0       ??1InOrderBufferList@CIOBuffer@Win32@OnlineGameLib@@QAE@XZ 100101b0 f i common:SocketServer.obj
 0001:0000f1f0       ??0SequenceData@Socket@CSocketServer@Win32@OnlineGameLib@@QAE@AAVCCriticalSection@34@@Z 100101f0 f   common:SocketServer.obj
 0001:0000f220       ??0Socket@CSocketServer@Win32@OnlineGameLib@@AAE@AAV123@I_N@Z 10010220 f   common:SocketServer.obj
 0001:0000f380       ??1SequenceData@Socket@CSocketServer@Win32@OnlineGameLib@@QAE@XZ 10010380 f i common:SocketServer.obj
 0001:0000f3c0       ?AllocateSocket@CSocketServer@Win32@OnlineGameLib@@AAEPAVSocket@123@I@Z 100103c0 f   common:SocketServer.obj
 0001:0000f4b0       ??_GSequenceData@Socket@CSocketServer@Win32@OnlineGameLib@@QAEPAXI@Z 100104b0 f i common:SocketServer.obj
 0001:0000f500       ??1Socket@CSocketServer@Win32@OnlineGameLib@@AAE@XZ 10010500 f   common:SocketServer.obj
 0001:0000f5c0       ??_GSocket@CSocketServer@Win32@OnlineGameLib@@AAEPAXI@Z 100105c0 f i common:SocketServer.obj
 0001:0000f5e0       ?DestroySocket@CSocketServer@Win32@OnlineGameLib@@AAEXPAVSocket@123@@Z 100105e0 f   common:SocketServer.obj
 0001:0000f610       ?ReleaseSocket@CSocketServer@Win32@OnlineGameLib@@AAEXPAVSocket@123@@Z 10010610 f   common:SocketServer.obj
 0001:0000f730       ?Release@Socket@CSocketServer@Win32@OnlineGameLib@@QAEXXZ 10010730 f   common:SocketServer.obj
 0001:0000f790       ?ZeroByteRead@WorkerThread@CSocketServer@Win32@OnlineGameLib@@ABEXPAVSocket@234@PAVCIOBuffer@34@@Z 10010790 f   common:SocketServer.obj
 0001:0000f820       ?Read@WorkerThread@CSocketServer@Win32@OnlineGameLib@@ABEXPAVSocket@234@PAVCIOBuffer@34@@Z 10010820 f   common:SocketServer.obj
 0001:0000f920       ?Write@WorkerThread@CSocketServer@Win32@OnlineGameLib@@ABEXPAVSocket@234@PAVCIOBuffer@34@@Z 10010920 f   common:SocketServer.obj
 0001:0000fa20       ?ReleaseSockets@CSocketServer@Win32@OnlineGameLib@@AAEXXZ 10010a20 f   common:SocketServer.obj
 0001:0000fb30       ?WaitForShutdownToComplete@CSocketServer@Win32@OnlineGameLib@@QAEXXZ 10010b30 f   common:SocketServer.obj
 0001:0000fb50       ?Run@CSocketServer@Win32@OnlineGameLib@@MAEHXZ 10010b50 f   common:SocketServer.obj
 0001:0000fff0       ?HandleOperation@WorkerThread@CSocketServer@Win32@OnlineGameLib@@MAEXPAVSocket@234@PAVCIOBuffer@34@K_N@Z 10010ff0 f   common:SocketServer.obj
 0001:000101d0       ?T2A@@YAPADPAD@Z           100111d0 f i common:Utils.obj
 0001:000101e0       ?Message@Win32@OnlineGameLib@@YAXQBD@Z 100111e0 f   common:Utils.obj
 0001:00010210       ?Output@Win32@OnlineGameLib@@YAXABV?$basic_string@DU?$char_traits@D@std@@V?$allocator@D@2@@std@@@Z 10011210 f   common:Utils.obj
 0001:00010220       ?Trace@Win32@OnlineGameLib@@YAXABV?$basic_string@DU?$char_traits@D@std@@V?$allocator@D@2@@std@@0@Z 10011220 f   common:Utils.obj
 0001:00010230       ?HexStringToDWORD@Win32@OnlineGameLib@@YAKPBD@Z 10011230 f   common:Utils.obj
 0001:000102a0       ?HashStr2ID@Win32@OnlineGameLib@@YAKQBD@Z 100112a0 f   common:Utils.obj
 0001:00010300       ?net_aton@Win32@OnlineGameLib@@YAKPBD@Z 10011300 f   common:Utils.obj
 0001:00010390       ?net_ntoa@Win32@OnlineGameLib@@YAPBDK@Z 10011390 f   common:Utils.obj
 0001:000103d0       ?GetLocalName@Win32@OnlineGameLib@@YA_NPADI@Z 100113d0 f   common:Utils.obj
 0001:000104d0       ?GetLocalAddress@Win32@OnlineGameLib@@YA_NPADIH@Z 100114d0 f   common:Utils.obj
 0001:00010610       ?length@?$basic_string@DU?$char_traits@D@std@@V?$allocator@D@2@@std@@QBEIXZ 10011610 f i common:Utils.obj
 0001:00010620       ??0?$auto_ptr@D@std@@QAE@PAD@Z 10011620 f i common:Utils.obj
 0001:00010630       ??1?$auto_ptr@D@std@@QAE@XZ 10011630 f i common:Utils.obj
 0001:00010640       ?get@?$auto_ptr@D@std@@QBEPADXZ 10011640 f i common:Utils.obj
 0001:00010650       ??0?$auto_ptr@E@std@@QAE@PAE@Z 10011650 f i common:Utils.obj
 0001:00010660       ??1?$auto_ptr@E@std@@QAE@XZ 10011660 f i common:Utils.obj
 0001:00010670       ?get@?$auto_ptr@E@std@@QBEPAEXZ 10011670 f i common:Utils.obj
 0001:00010680       ?is_open@?$basic_filebuf@DU?$char_traits@D@std@@@std@@QBE_NXZ 10011680 f i common:Utils.obj
 0001:00010690       ?_Init@?$basic_streambuf@DU?$char_traits@D@std@@@std@@IAEXPAPAD0PAH001@Z 10011690 f i common:Utils.obj
 0001:000106c0       ??D?$_String_const_iterator@DU?$char_traits@D@std@@V?$allocator@D@2@@std@@QBEABDXZ 100116c0 f i common:Utils.obj
 0001:00010700       ?unshift@?$codecvt@DDH@std@@QBEHAAHPAD1AAPAD@Z 10011700 f i common:Utils.obj
 0001:00010710       ??0?$_Ranit_base@DHPBDABDU_Iterator_base@std@@@std@@QAE@XZ 10011710 f i common:Utils.obj
 0001:00010720       ??A?$basic_string@DU?$char_traits@D@std@@V?$allocator@D@2@@std@@QBEABDI@Z 10011720 f i common:Utils.obj
 0001:00010750       ?is_open@?$basic_fstream@DU?$char_traits@D@std@@@std@@QBE_NXZ 10011750 f i common:Utils.obj
 0001:00010760       ?_Init@?$basic_filebuf@DU?$char_traits@D@std@@@std@@IAEXPAU_iobuf@@W4_Initfl@12@@Z 10011760 f i common:Utils.obj
 0001:000107b0       ??D?$_String_iterator@DU?$char_traits@D@std@@V?$allocator@D@2@@std@@QBEAADXZ 100117b0 f i common:Utils.obj
 0001:000107f0       ??0?$_String_const_iterator@DU?$char_traits@D@std@@V?$allocator@D@2@@std@@QAE@PBDPBU_Container_base@1@@Z 100117f0 f i common:Utils.obj
 0001:00010850       ??0?$basic_filebuf@DU?$char_traits@D@std@@@std@@QAE@PAU_iobuf@@@Z 10011850 f i common:Utils.obj
 0001:000108b0       ?not_eof@?$char_traits@D@std@@SAHABH@Z 100118b0 f i common:Utils.obj
 0001:000108d0       ??0codecvt_base@std@@QAE@I@Z 100118d0 f i common:Utils.obj
 0001:000108f0       ?always_noconv@codecvt_base@std@@QBE_NXZ 100118f0 f i common:Utils.obj
 0001:00010900       ??1codecvt_base@std@@UAE@XZ 10011900 f i common:Utils.obj
 0001:00010910       ?do_always_noconv@codecvt_base@std@@MBE_NXZ 10011910 f i common:Utils.obj
 0001:00010920       ?do_max_length@codecvt_base@std@@MBEHXZ 10011920 f i common:Utils.obj
 0001:00010930       ?do_encoding@codecvt_base@std@@MBEHXZ 10011930 f i common:Utils.obj
 0001:00010940       ??_Ecodecvt_base@std@@UAEPAXI@Z 10011940 f i common:Utils.obj
 0001:00010940       ??_Gcodecvt_base@std@@UAEPAXI@Z 10011940 f i common:Utils.obj
 0001:00010960       ??$_Fgetc@D@std@@YA_NAADPAU_iobuf@@@Z 10011960 f i common:Utils.obj
 0001:00010980       ??$_Fputc@D@std@@YA_NDPAU_iobuf@@@Z 10011980 f i common:Utils.obj
 0001:000109a0       ??$_Ungetc@D@std@@YA_NABDPAU_iobuf@@@Z 100119a0 f i common:Utils.obj
 0001:000109c0       ?underflow@?$basic_filebuf@DU?$char_traits@D@std@@@std@@MAEHXZ 100119c0 f i common:Utils.obj
 0001:00010a10       ?sync@?$basic_filebuf@DU?$char_traits@D@std@@@std@@MAEHXZ 10011a10 f i common:Utils.obj
 0001:00010a40       ?_Gndec@?$basic_streambuf@DU?$char_traits@D@std@@@std@@IAEPADXZ 10011a40 f i common:Utils.obj
 0001:00010a60       ??0?$fpos@H@std@@QAE@H_J@Z 10011a60 f i common:Utils.obj
 0001:00010a80       ?state@?$fpos@H@std@@QBEHXZ 10011a80 f i common:Utils.obj
 0001:00010a90       ?seekpos@?$fpos@H@std@@QBE_JXZ 10011a90 f i common:Utils.obj
 0001:00010aa0       ?_Initcvt@?$basic_filebuf@DU?$char_traits@D@std@@@std@@IAEXPAV?$codecvt@DDH@2@@Z 10011aa0 f i common:Utils.obj
 0001:00010ad0       ?in@?$codecvt@DDH@std@@QBEHAAHPBD1AAPBDPAD3AAPAD@Z 10011ad0 f i common:Utils.obj
 0001:00010ae0       ?out@?$codecvt@DDH@std@@QBEHAAHPBD1AAPBDPAD3AAPAD@Z 10011ae0 f i common:Utils.obj
 0001:00010af0       ?_Init@?$codecvt@DDH@std@@IAEXABV_Locinfo@2@@Z 10011af0 f i common:Utils.obj
 0001:00010b00       ?pbackfail@?$basic_filebuf@DU?$char_traits@D@std@@@std@@MAEHH@Z 10011b00 f i common:Utils.obj
 0001:00010b70       ?setbuf@?$basic_filebuf@DU?$char_traits@D@std@@@std@@MAEPAV?$basic_streambuf@DU?$char_traits@D@std@@@2@PADH@Z 10011b70 f i common:Utils.obj
 0001:00010bf0       ??0?$_String_iterator@DU?$char_traits@D@std@@V?$allocator@D@2@@std@@QAE@PADPBU_Container_base@1@@Z 10011bf0 f i common:Utils.obj
 0001:00010c10       ?begin@?$basic_string@DU?$char_traits@D@std@@V?$allocator@D@2@@std@@QAE?AV?$_String_iterator@DU?$char_traits@D@std@@V?$allocator@D@2@@2@XZ 10011c10 f i common:Utils.obj
 0001:00010c50       ?assign@?$basic_string@DU?$char_traits@D@std@@V?$allocator@D@2@@std@@QAEAAV12@ID@Z 10011c50 f i common:Utils.obj
 0001:00010ce0       ??Y?$basic_string@DU?$char_traits@D@std@@V?$allocator@D@2@@std@@QAEAAV01@D@Z 10011ce0 f i common:Utils.obj
 0001:00010cf0       ?uflow@?$basic_filebuf@DU?$char_traits@D@std@@@std@@MAEHXZ 10011cf0 f i common:Utils.obj
 0001:00011050       ??0?$basic_string@DU?$char_traits@D@std@@V?$allocator@D@2@@std@@QAE@ABV01@II@Z 10012050 f i common:Utils.obj
 0001:00011080       ??0?$basic_string@DU?$char_traits@D@std@@V?$allocator@D@2@@std@@QAE@ID@Z 10012080 f i common:Utils.obj
 0001:000110b0       ?_Endwrite@?$basic_filebuf@DU?$char_traits@D@std@@@std@@IAE_NXZ 100120b0 f i common:Utils.obj
 0001:000113d0       ?HexToString@Win32@OnlineGameLib@@YA?AV?$basic_string@DU?$char_traits@D@std@@V?$allocator@D@2@@std@@PBEI@Z 100123d0 f   common:Utils.obj
 0001:00011490       ?substr@?$basic_string@DU?$char_traits@D@std@@V?$allocator@D@2@@std@@QBE?AV12@II@Z 10012490 f i common:Utils.obj
 0001:000114d0       ?overflow@?$basic_filebuf@DU?$char_traits@D@std@@@std@@MAEHH@Z 100124d0 f i common:Utils.obj
 0001:000118a0       ?seekoff@?$basic_filebuf@DU?$char_traits@D@std@@@std@@MAE?AV?$fpos@H@2@JHH@Z 100128a0 f i common:Utils.obj
 0001:00011980       ?seekpos@?$basic_filebuf@DU?$char_traits@D@std@@@std@@MAE?AV?$fpos@H@2@V32@H@Z 10012980 f i common:Utils.obj
 0001:00011a70       ?close@?$basic_filebuf@DU?$char_traits@D@std@@@std@@QAEPAV12@XZ 10012a70 f i common:Utils.obj
 0001:00011ac0       ?GetLastErrorMessage@Win32@OnlineGameLib@@YA?AV?$basic_string@DU?$char_traits@D@std@@V?$allocator@D@2@@std@@K@Z 10012ac0 f   common:Utils.obj
 0001:00011b80       ?StringToHex@Win32@OnlineGameLib@@YAXABV?$basic_string@DU?$char_traits@D@std@@V?$allocator@D@2@@std@@PAEI@Z 10012b80 f   common:Utils.obj
 0001:00011cc0       ?GetCurrentDirectoryA@Win32@OnlineGameLib@@YA?AV?$basic_string@DU?$char_traits@D@std@@V?$allocator@D@2@@std@@XZ 10012cc0 f   common:Utils.obj
 0001:00011de0       ?GetAppFullPath@Win32@OnlineGameLib@@YA?AV?$basic_string@DU?$char_traits@D@std@@V?$allocator@D@2@@std@@PAUHINSTANCE__@@@Z 10012de0 f   common:Utils.obj
 0001:00011ef0       ?GetDateStamp@Win32@OnlineGameLib@@YA?AV?$basic_string@DU?$char_traits@D@std@@V?$allocator@D@2@@std@@XZ 10012ef0 f   common:Utils.obj
 0001:00011f80       ?GetTimeStamp@Win32@OnlineGameLib@@YA?AV?$basic_string@DU?$char_traits@D@std@@V?$allocator@D@2@@std@@XZ 10012f80 f   common:Utils.obj
 0001:00012000       ?ToHex@Win32@OnlineGameLib@@YA?AV?$basic_string@DU?$char_traits@D@std@@V?$allocator@D@2@@std@@E@Z 10013000 f   common:Utils.obj
 0001:00012060       ?DumpData@Win32@OnlineGameLib@@YA?AV?$basic_string@DU?$char_traits@D@std@@V?$allocator@D@2@@std@@QBEII@Z 10013060 f   common:Utils.obj
 0001:000123c0       ?GetComputerNameA@Win32@OnlineGameLib@@YA?AV?$basic_string@DU?$char_traits@D@std@@V?$allocator@D@2@@std@@XZ 100133c0 f   common:Utils.obj
 0001:000124e0       ?GetModuleFileNameA@Win32@OnlineGameLib@@YA?AV?$basic_string@DU?$char_traits@D@std@@V?$allocator@D@2@@std@@PAUHINSTANCE__@@@Z 100134e0 f   common:Utils.obj
 0001:00012610       ?GetUserNameA@Win32@OnlineGameLib@@YA?AV?$basic_string@DU?$char_traits@D@std@@V?$allocator@D@2@@std@@XZ 10013610 f   common:Utils.obj
 0001:00012740       ?StripLeading@Win32@OnlineGameLib@@YA?AV?$basic_string@DU?$char_traits@D@std@@V?$allocator@D@2@@std@@ABV34@D@Z 10013740 f   common:Utils.obj
 0001:000127b0       ?StripTrailing@Win32@OnlineGameLib@@YA?AV?$basic_string@DU?$char_traits@D@std@@V?$allocator@D@2@@std@@ABV34@D@Z 100137b0 f   common:Utils.obj
 0001:00012810       ?GetFileVersion@Win32@OnlineGameLib@@YA?AV?$basic_string@DU?$char_traits@D@std@@V?$allocator@D@2@@std@@XZ 10013810 f   common:Utils.obj
 0001:00012a40       ??1?$basic_filebuf@DU?$char_traits@D@std@@@std@@UAE@XZ 10013a40 f i common:Utils.obj
 0001:00012ab0       ??_G?$basic_filebuf@DU?$char_traits@D@std@@@std@@UAEPAXI@Z 10013ab0 f i common:Utils.obj
 0001:00012ab0       ??_E?$basic_filebuf@DU?$char_traits@D@std@@@std@@UAEPAXI@Z 10013ab0 f i common:Utils.obj
 0001:00012ad0       ??0?$codecvt@DDH@std@@QAE@I@Z 10013ad0 f i common:Utils.obj
 0001:00012b60       ??1?$codecvt@DDH@std@@MAE@XZ 10013b60 f i common:Utils.obj
 0001:00012b70       ?do_in@?$codecvt@DDH@std@@MBEHAAHPBD1AAPBDPAD3AAPAD@Z 10013b70 f i common:Utils.obj
 0001:00012b90       ?do_out@?$codecvt@DDH@std@@MBEHAAHPBD1AAPBDPAD3AAPAD@Z 10013b90 f i common:Utils.obj
 0001:00012bb0       ?do_unshift@?$codecvt@DDH@std@@MBEHAAHPAD1AAPAD@Z 10013bb0 f i common:Utils.obj
 0001:00012bd0       ?do_length@?$codecvt@DDH@std@@MBEHABHPBD1I@Z 10013bd0 f i common:Utils.obj
 0001:00012bf0       ??_E?$codecvt@DDH@std@@MAEPAXI@Z 10013bf0 f i common:Utils.obj
 0001:00012bf0       ??_G?$codecvt@DDH@std@@MAEPAXI@Z 10013bf0 f i common:Utils.obj
 0001:00012c10       ??1?$basic_fstream@DU?$char_traits@D@std@@@std@@UAE@XZ 10013c10 f i common:Utils.obj
 0001:00012ca0       ?close@?$basic_fstream@DU?$char_traits@D@std@@@std@@QAEXXZ 10013ca0 f i common:Utils.obj
 0001:00012cd0       ?_Getcat@?$codecvt@DDH@std@@SAIPAPBVfacet@locale@2@@Z 10013cd0 f i common:Utils.obj
 0001:00012d40       ??_D?$basic_fstream@DU?$char_traits@D@std@@@std@@QAEXXZ 10013d40 f i common:Utils.obj
 0001:00012d60       ?SetLogFileName@Win32@OnlineGameLib@@YAXABV?$basic_string@DU?$char_traits@D@std@@V?$allocator@D@2@@std@@@Z 10013d60 f   common:Utils.obj
 0001:00012de0       ??_G?$basic_fstream@DU?$char_traits@D@std@@@std@@UAEPAXI@Z 10013de0 f i common:Utils.obj
 0001:00012de0       ??_E?$basic_fstream@DU?$char_traits@D@std@@@std@@UAEPAXI@Z 10013de0 f i common:Utils.obj
 0001:00012e20       ??$use_facet@V?$codecvt@DDH@std@@@std@@YAABV?$codecvt@DDH@0@ABVlocale@0@@Z 10013e20 f i common:Utils.obj
 0001:00012f50       ??0?$basic_fstream@DU?$char_traits@D@std@@@std@@QAE@XZ 10013f50 f i common:Utils.obj
 0001:00013010       ?imbue@?$basic_filebuf@DU?$char_traits@D@std@@@std@@MAEXABVlocale@2@@Z 10014010 f i common:Utils.obj
 0001:00013050       ??0CThread@Win32@OnlineGameLib@@QAE@XZ 10014050 f   common:Thread.obj
 0001:00013060       ??1CThread@Win32@OnlineGameLib@@UAE@XZ 10014060 f   common:Thread.obj
 0001:00013080       ?GetHandle@CThread@Win32@OnlineGameLib@@QBEPAXXZ 10014080 f   common:Thread.obj
 0001:00013090       ?ThreadFunction@CThread@Win32@OnlineGameLib@@CGIPAX@Z 10014090 f   common:Thread.obj
 0001:00013110       ?Terminate@CThread@Win32@OnlineGameLib@@QAEXK@Z 10014110 f   common:Thread.obj
 0001:00013140       ??_GCThread@Win32@OnlineGameLib@@UAEPAXI@Z 10014140 f i common:Thread.obj
 0001:00013140       ??_ECThread@Win32@OnlineGameLib@@UAEPAXI@Z 10014140 f i common:Thread.obj
 0001:00013160       ?Start@CThread@Win32@OnlineGameLib@@QAEXXZ 10014160 f   common:Thread.obj
 0001:000132a0       ?Wait@CThread@Win32@OnlineGameLib@@QBE_NK@Z 100142a0 f   common:Thread.obj
 0001:00013350       ?Wait@CThread@Win32@OnlineGameLib@@QBEXXZ 10014350 f   common:Thread.obj
 0001:00013410       ?GetSequenceNumber@CIOBuffer@Win32@OnlineGameLib@@QBEIXZ 10014410 f i common:IOBuffer.obj
 0001:00013420       ??1CIOBuffer@Win32@OnlineGameLib@@AAE@XZ 10014420 f   common:IOBuffer.obj
 0001:00013450       ?Empty@CIOBuffer@Win32@OnlineGameLib@@QAEXXZ 10014450 f   common:IOBuffer.obj
 0001:00013470       ??2CIOBuffer@Win32@OnlineGameLib@@CAPAXII@Z 10014470 f   common:IOBuffer.obj
 0001:00013480       ??3CIOBuffer@Win32@OnlineGameLib@@CAXPAXI@Z 10014480 f   common:IOBuffer.obj
 0001:00013490       ?RemoveBuffer@CIOBuffer@Win32@OnlineGameLib@@QAEXI@Z 10014490 f   common:IOBuffer.obj
 0001:000134c0       ??0?$TNodeList@VCIOBuffer@Win32@OnlineGameLib@@@OnlineGameLib@@QAE@XZ 100144c0 f i common:IOBuffer.obj
 0001:000134d0       ??_GCIOBuffer@Win32@OnlineGameLib@@AAEPAXI@Z 100144d0 f i common:IOBuffer.obj
 0001:000134f0       ?ProcessBuffer@InOrderBufferList@CIOBuffer@Win32@OnlineGameLib@@QAEXXZ 100144f0 f   common:IOBuffer.obj
 0001:00013510       ??0?$pair@$$CBIPAVCIOBuffer@Win32@OnlineGameLib@@@std@@QAE@ABIABQAVCIOBuffer@Win32@OnlineGameLib@@@Z 10014510 f i common:IOBuffer.obj
 0001:00013530       ?size@?$_Tree@V?$_Tmap_traits@IPAVCIOBuffer@Win32@OnlineGameLib@@U?$less@I@std@@V?$allocator@U?$pair@$$CBIPAVCIOBuffer@Win32@OnlineGameLib@@@std@@@5@$0A@@std@@@std@@QBEIXZ 10014530 f i common:IOBuffer.obj
 0001:00013540       ?_Kfn@?$_Tmap_traits@IPAVCIOBuffer@Win32@OnlineGameLib@@U?$less@I@std@@V?$allocator@U?$pair@$$CBIPAVCIOBuffer@Win32@OnlineGameLib@@@std@@@5@$0A@@std@@SAABIABU?$pair@$$CBIPAVCIOBuffer@Win32@OnlineGameLib@@@2@@Z 10014540 f i common:IOBuffer.obj
 0001:00013550       ??0?$allocator@U?$pair@$$CBIPAVCIOBuffer@Win32@OnlineGameLib@@@std@@@std@@QAE@XZ 10014550 f i common:IOBuffer.obj
 0001:00013560       ??0?$pair@Viterator@?$_Tree@V?$_Tmap_traits@IPAVCIOBuffer@Win32@OnlineGameLib@@U?$less@I@std@@V?$allocator@U?$pair@$$CBIPAVCIOBuffer@Win32@OnlineGameLib@@@std@@@5@$0A@@std@@@std@@_N@std@@QAE@ABViterator@?$_Tree@V?$_Tmap_traits@IPAVCIOBuffer@Win32@OnlineGameLib@@U?$less@I@std@@V?$allocator@U?$pair@$$CBIPAVCIOBuffer@Win32@OnlineGameLib@@@std@@@5@$0A@@std@@@1@AB_N@Z 10014560 f i common:IOBuffer.obj
 0001:00013580       ?_Myval@?$_Tree@V?$_Tmap_traits@IPAVCIOBuffer@Win32@OnlineGameLib@@U?$less@I@std@@V?$allocator@U?$pair@$$CBIPAVCIOBuffer@Win32@OnlineGameLib@@@std@@@5@$0A@@std@@@std@@KAAAU?$pair@$$CBIPAVCIOBuffer@Win32@OnlineGameLib@@@2@PAU_Node@?$_Tree_nod@V?$_Tmap_traits@IPAVCIOBuffer@Win32@OnlineGameLib@@U?$less@I@std@@V?$allocator@U?$pair@$$CBIPAVCIOBuffer@Win32@OnlineGameLib@@@std@@@5@$0A@@std@@@2@@Z 10014580 f i common:IOBuffer.obj
 0001:00013590       ??0?$allocator@U?$pair@$$CBIPAVCIOBuffer@Win32@OnlineGameLib@@@std@@@std@@QAE@ABV01@@Z 10014590 f i common:IOBuffer.obj
 0001:000135a0       ??Dconst_iterator@?$_Tree@V?$_Tmap_traits@IPAVCIOBuffer@Win32@OnlineGameLib@@U?$less@I@std@@V?$allocator@U?$pair@$$CBIPAVCIOBuffer@Win32@OnlineGameLib@@@std@@@5@$0A@@std@@@std@@QBEABU?$pair@$$CBIPAVCIOBuffer@Win32@OnlineGameLib@@@2@XZ 100145a0 f i common:IOBuffer.obj
 0001:000135d0       ?max_size@?$allocator@U?$pair@$$CBIPAVCIOBuffer@Win32@OnlineGameLib@@@std@@@std@@QBEIXZ 100145d0 f i common:IOBuffer.obj
 0001:000135e0       ?_Dec@const_iterator@?$_Tree@V?$_Tmap_traits@IPAVCIOBuffer@Win32@OnlineGameLib@@U?$less@I@std@@V?$allocator@U?$pair@$$CBIPAVCIOBuffer@Win32@OnlineGameLib@@@std@@@5@$0A@@std@@@std@@QAEXXZ 100145e0 f i common:IOBuffer.obj
 0001:00013670       ??0_Node@?$_Tree_nod@V?$_Tmap_traits@IPAVCIOBuffer@Win32@OnlineGameLib@@U?$less@I@std@@V?$allocator@U?$pair@$$CBIPAVCIOBuffer@Win32@OnlineGameLib@@@std@@@5@$0A@@std@@@std@@QAE@PAU012@00ABU?$pair@$$CBIPAVCIOBuffer@Win32@OnlineGameLib@@@2@D@Z 10014670 f i common:IOBuffer.obj
 0001:000136b0       ??0?$_Tmap_traits@IPAVCIOBuffer@Win32@OnlineGameLib@@U?$less@I@std@@V?$allocator@U?$pair@$$CBIPAVCIOBuffer@Win32@OnlineGameLib@@@std@@@5@$0A@@std@@QAE@U?$less@I@1@@Z 100146b0 f i common:IOBuffer.obj
 0001:000136c0       ?PopNode@?$TNodeList@VCIOBuffer@Win32@OnlineGameLib@@@OnlineGameLib@@QAEPAVCIOBuffer@Win32@2@XZ 100146c0 f i common:IOBuffer.obj
 0001:000136d0       ??$?0U?$pair@$$CBIPAVCIOBuffer@Win32@OnlineGameLib@@@std@@@?$allocator@PAU_Node@?$_Tree_nod@V?$_Tmap_traits@IPAVCIOBuffer@Win32@OnlineGameLib@@U?$less@I@std@@V?$allocator@U?$pair@$$CBIPAVCIOBuffer@Win32@OnlineGameLib@@@std@@@5@$0A@@std@@@std@@@std@@QAE@ABV?$allocator@U?$pair@$$CBIPAVCIOBuffer@Win32@OnlineGameLib@@@std@@@1@@Z 100146d0 f i common:IOBuffer.obj
 0001:000136e0       ??$_Allocate@U_Node@?$_Tree_nod@V?$_Tmap_traits@IPAVCIOBuffer@Win32@OnlineGameLib@@U?$less@I@std@@V?$allocator@U?$pair@$$CBIPAVCIOBuffer@Win32@OnlineGameLib@@@std@@@5@$0A@@std@@@std@@@std@@YAPAU_Node@?$_Tree_nod@V?$_Tmap_traits@IPAVCIOBuffer@Win32@OnlineGameLib@@U?$less@I@std@@V?$allocator@U?$pair@$$CBIPAVCIOBuffer@Win32@OnlineGameLib@@@std@@@5@$0A@@std@@@0@IPAU120@@Z 100146e0 f i common:IOBuffer.obj
 0001:00013740       ??$?0U?$pair@$$CBIPAVCIOBuffer@Win32@OnlineGameLib@@@std@@@?$allocator@U_Node@?$_Tree_nod@V?$_Tmap_traits@IPAVCIOBuffer@Win32@OnlineGameLib@@U?$less@I@std@@V?$allocator@U?$pair@$$CBIPAVCIOBuffer@Win32@OnlineGameLib@@@std@@@5@$0A@@std@@@std@@@std@@QAE@ABV?$allocator@U?$pair@$$CBIPAVCIOBuffer@Win32@OnlineGameLib@@@std@@@1@@Z 10014740 f i common:IOBuffer.obj
 0001:00013750       ??$_Construct@PAU_Node@?$_Tree_nod@V?$_Tmap_traits@IPAVCIOBuffer@Win32@OnlineGameLib@@U?$less@I@std@@V?$allocator@U?$pair@$$CBIPAVCIOBuffer@Win32@OnlineGameLib@@@std@@@5@$0A@@std@@@std@@PAU123@@std@@YAXPAPAU_Node@?$_Tree_nod@V?$_Tmap_traits@IPAVCIOBuffer@Win32@OnlineGameLib@@U?$less@I@std@@V?$allocator@U?$pair@$$CBIPAVCIOBuffer@Win32@OnlineGameLib@@@std@@@5@$0A@@std@@@0@ABQAU120@@Z 10014750 f i common:IOBuffer.obj
 0001:00013770       ??0CIOBuffer@Win32@OnlineGameLib@@AAE@AAVAllocator@012@I@Z 10014770 f   common:IOBuffer.obj
 0001:00013810       ??0Allocator@CIOBuffer@Win32@OnlineGameLib@@QAE@II@Z 10014810 f   common:IOBuffer.obj
 0001:00013850       ?OnBufferCreated@Allocator@CIOBuffer@Win32@OnlineGameLib@@EAEXXZ 10014850 f i common:IOBuffer.obj
 0001:00013860       ?OnBufferAllocated@Allocator@CIOBuffer@Win32@OnlineGameLib@@EAEXXZ 10014860 f i common:IOBuffer.obj
 0001:00013870       ?OnBufferReleased@Allocator@CIOBuffer@Win32@OnlineGameLib@@EAEXXZ 10014870 f i common:IOBuffer.obj
 0001:00013880       ?DestroyBuffer@Allocator@CIOBuffer@Win32@OnlineGameLib@@AAEXPAV234@@Z 10014880 f   common:IOBuffer.obj
 0001:000138f0       ?Flush@Allocator@CIOBuffer@Win32@OnlineGameLib@@IAEXXZ 100148f0 f   common:IOBuffer.obj
 0001:00013990       ?empty@?$_Tree@V?$_Tmap_traits@IPAVCIOBuffer@Win32@OnlineGameLib@@U?$less@I@std@@V?$allocator@U?$pair@$$CBIPAVCIOBuffer@Win32@OnlineGameLib@@@std@@@5@$0A@@std@@@std@@QBE_NXZ 10014990 f i common:IOBuffer.obj
 0001:000139a0       ?_Key@?$_Tree@V?$_Tmap_traits@IPAVCIOBuffer@Win32@OnlineGameLib@@U?$less@I@std@@V?$allocator@U?$pair@$$CBIPAVCIOBuffer@Win32@OnlineGameLib@@@std@@@5@$0A@@std@@@std@@KAABIPAU_Node@?$_Tree_nod@V?$_Tmap_traits@IPAVCIOBuffer@Win32@OnlineGameLib@@U?$less@I@std@@V?$allocator@U?$pair@$$CBIPAVCIOBuffer@Win32@OnlineGameLib@@@std@@@5@$0A@@std@@@2@@Z 100149a0 f i common:IOBuffer.obj
 0001:000139b0       ??Diterator@?$_Tree@V?$_Tmap_traits@IPAVCIOBuffer@Win32@OnlineGameLib@@U?$less@I@std@@V?$allocator@U?$pair@$$CBIPAVCIOBuffer@Win32@OnlineGameLib@@@std@@@5@$0A@@std@@@std@@QBEAAU?$pair@$$CBIPAVCIOBuffer@Win32@OnlineGameLib@@@2@XZ 100149b0 f i common:IOBuffer.obj
 0001:000139e0       ??0const_iterator@?$_Tree@V?$_Tmap_traits@IPAVCIOBuffer@Win32@OnlineGameLib@@U?$less@I@std@@V?$allocator@U?$pair@$$CBIPAVCIOBuffer@Win32@OnlineGameLib@@@std@@@5@$0A@@std@@@std@@QAE@XZ 100149e0 f i common:IOBuffer.obj
 0001:000139f0       ?max_size@?$_Tree@V?$_Tmap_traits@IPAVCIOBuffer@Win32@OnlineGameLib@@U?$less@I@std@@V?$allocator@U?$pair@$$CBIPAVCIOBuffer@Win32@OnlineGameLib@@@std@@@5@$0A@@std@@@std@@QBEIXZ 100149f0 f i common:IOBuffer.obj
 0001:00013a00       ??Fconst_iterator@?$_Tree@V?$_Tmap_traits@IPAVCIOBuffer@Win32@OnlineGameLib@@U?$less@I@std@@V?$allocator@U?$pair@$$CBIPAVCIOBuffer@Win32@OnlineGameLib@@@std@@@5@$0A@@std@@@std@@QAEAAV012@XZ 10014a00 f i common:IOBuffer.obj
 0001:00013a10       ?allocate@?$allocator@U_Node@?$_Tree_nod@V?$_Tmap_traits@IPAVCIOBuffer@Win32@OnlineGameLib@@U?$less@I@std@@V?$allocator@U?$pair@$$CBIPAVCIOBuffer@Win32@OnlineGameLib@@@std@@@5@$0A@@std@@@std@@@std@@QAEPAU_Node@?$_Tree_nod@V?$_Tmap_traits@IPAVCIOBuffer@Win32@OnlineGameLib@@U?$less@I@std@@V?$allocator@U?$pair@$$CBIPAVCIOBuffer@Win32@OnlineGameLib@@@std@@@5@$0A@@std@@@2@I@Z 10014a10 f i common:IOBuffer.obj
 0001:00013a30       ??0?$_Tree_nod@V?$_Tmap_traits@IPAVCIOBuffer@Win32@OnlineGameLib@@U?$less@I@std@@V?$allocator@U?$pair@$$CBIPAVCIOBuffer@Win32@OnlineGameLib@@@std@@@5@$0A@@std@@@std@@IAE@ABU?$less@I@1@V?$allocator@U?$pair@$$CBIPAVCIOBuffer@Win32@OnlineGameLib@@@std@@@1@@Z 10014a30 f i common:IOBuffer.obj
 0001:00013a40       ?construct@?$allocator@PAU_Node@?$_Tree_nod@V?$_Tmap_traits@IPAVCIOBuffer@Win32@OnlineGameLib@@U?$less@I@std@@V?$allocator@U?$pair@$$CBIPAVCIOBuffer@Win32@OnlineGameLib@@@std@@@5@$0A@@std@@@std@@@std@@QAEXPAPAU_Node@?$_Tree_nod@V?$_Tmap_traits@IPAVCIOBuffer@Win32@OnlineGameLib@@U?$less@I@std@@V?$allocator@U?$pair@$$CBIPAVCIOBuffer@Win32@OnlineGameLib@@@std@@@5@$0A@@std@@@2@ABQAU342@@Z 10014a40 f i common:IOBuffer.obj
 0001:00013a60       ??1Allocator@CIOBuffer@Win32@OnlineGameLib@@UAE@XZ 10014a60 f   common:IOBuffer.obj
 0001:00013ad0       ?Reset@InOrderBufferList@CIOBuffer@Win32@OnlineGameLib@@QAEXXZ 10014ad0 f   common:IOBuffer.obj
 0001:00013ae0       ??0iterator@?$_Tree@V?$_Tmap_traits@IPAVCIOBuffer@Win32@OnlineGameLib@@U?$less@I@std@@V?$allocator@U?$pair@$$CBIPAVCIOBuffer@Win32@OnlineGameLib@@@std@@@5@$0A@@std@@@std@@QAE@XZ 10014ae0 f i common:IOBuffer.obj
 0001:00013af0       ??Citerator@?$_Tree@V?$_Tmap_traits@IPAVCIOBuffer@Win32@OnlineGameLib@@U?$less@I@std@@V?$allocator@U?$pair@$$CBIPAVCIOBuffer@Win32@OnlineGameLib@@@std@@@5@$0A@@std@@@std@@QBEPAU?$pair@$$CBIPAVCIOBuffer@Win32@OnlineGameLib@@@2@XZ 10014af0 f i common:IOBuffer.obj
 0001:00013b20       ??Fiterator@?$_Tree@V?$_Tmap_traits@IPAVCIOBuffer@Win32@OnlineGameLib@@U?$less@I@std@@V?$allocator@U?$pair@$$CBIPAVCIOBuffer@Win32@OnlineGameLib@@@std@@@5@$0A@@std@@@std@@QAEAAV012@XZ 10014b20 f i common:IOBuffer.obj
 0001:00013b30       ?_Buynode@?$_Tree@V?$_Tmap_traits@IPAVCIOBuffer@Win32@OnlineGameLib@@U?$less@I@std@@V?$allocator@U?$pair@$$CBIPAVCIOBuffer@Win32@OnlineGameLib@@@std@@@5@$0A@@std@@@std@@IAEPAU_Node@?$_Tree_nod@V?$_Tmap_traits@IPAVCIOBuffer@Win32@OnlineGameLib@@U?$less@I@std@@V?$allocator@U?$pair@$$CBIPAVCIOBuffer@Win32@OnlineGameLib@@@std@@@5@$0A@@std@@@2@PAU342@00ABU?$pair@$$CBIPAVCIOBuffer@Win32@OnlineGameLib@@@2@D@Z 10014b30 f i common:IOBuffer.obj
 0001:00013b70       ?_Buynode@?$_Tree@V?$_Tmap_traits@IPAVCIOBuffer@Win32@OnlineGameLib@@U?$less@I@std@@V?$allocator@U?$pair@$$CBIPAVCIOBuffer@Win32@OnlineGameLib@@@std@@@5@$0A@@std@@@std@@IAEPAU_Node@?$_Tree_nod@V?$_Tmap_traits@IPAVCIOBuffer@Win32@OnlineGameLib@@U?$less@I@std@@V?$allocator@U?$pair@$$CBIPAVCIOBuffer@Win32@OnlineGameLib@@@std@@@5@$0A@@std@@@2@XZ 10014b70 f i common:IOBuffer.obj
 0001:00013bb0       ??0?$_Tree_ptr@V?$_Tmap_traits@IPAVCIOBuffer@Win32@OnlineGameLib@@U?$less@I@std@@V?$allocator@U?$pair@$$CBIPAVCIOBuffer@Win32@OnlineGameLib@@@std@@@5@$0A@@std@@@std@@IAE@ABU?$less@I@1@V?$allocator@U?$pair@$$CBIPAVCIOBuffer@Win32@OnlineGameLib@@@std@@@1@@Z 10014bb0 f i common:IOBuffer.obj
 0001:00013bc0       ??_GAllocator@CIOBuffer@Win32@OnlineGameLib@@UAEPAXI@Z 10014bc0 f i common:IOBuffer.obj
 0001:00013bc0       ??_EAllocator@CIOBuffer@Win32@OnlineGameLib@@UAEPAXI@Z 10014bc0 f i common:IOBuffer.obj
 0001:00013be0       ?_Init@?$_Tree@V?$_Tmap_traits@IPAVCIOBuffer@Win32@OnlineGameLib@@U?$less@I@std@@V?$allocator@U?$pair@$$CBIPAVCIOBuffer@Win32@OnlineGameLib@@@std@@@5@$0A@@std@@@std@@IAEXXZ 10014be0 f i common:IOBuffer.obj
 0001:00013c10       ??0?$_Tree_val@V?$_Tmap_traits@IPAVCIOBuffer@Win32@OnlineGameLib@@U?$less@I@std@@V?$allocator@U?$pair@$$CBIPAVCIOBuffer@Win32@OnlineGameLib@@@std@@@5@$0A@@std@@@std@@IAE@ABU?$less@I@1@V?$allocator@U?$pair@$$CBIPAVCIOBuffer@Win32@OnlineGameLib@@@std@@@1@@Z 10014c10 f i common:IOBuffer.obj
 0001:00013c20       ??0?$_Tree@V?$_Tmap_traits@IPAVCIOBuffer@Win32@OnlineGameLib@@U?$less@I@std@@V?$allocator@U?$pair@$$CBIPAVCIOBuffer@Win32@OnlineGameLib@@@std@@@5@$0A@@std@@@std@@QAE@ABU?$less@I@1@ABV?$allocator@U?$pair@$$CBIPAVCIOBuffer@Win32@OnlineGameLib@@@std@@@1@@Z 10014c20 f i common:IOBuffer.obj
 0001:00013c50       ?_Insert@?$_Tree@V?$_Tmap_traits@IPAVCIOBuffer@Win32@OnlineGameLib@@U?$less@I@std@@V?$allocator@U?$pair@$$CBIPAVCIOBuffer@Win32@OnlineGameLib@@@std@@@5@$0A@@std@@@std@@IAE?AViterator@12@_NPAU_Node@?$_Tree_nod@V?$_Tmap_traits@IPAVCIOBuffer@Win32@OnlineGameLib@@U?$less@I@std@@V?$allocator@U?$pair@$$CBIPAVCIOBuffer@Win32@OnlineGameLib@@@std@@@5@$0A@@std@@@2@ABU?$pair@$$CBIPAVCIOBuffer@Win32@OnlineGameLib@@@2@@Z 10014c50 f i common:IOBuffer.obj
 0001:00013e50       ?AddData@CIOBuffer@Win32@OnlineGameLib@@QAEXQBDI@Z 10014e50 f   common:IOBuffer.obj
 0001:00013f40       ?AddData@CIOBuffer@Win32@OnlineGameLib@@QAEXQBEI@Z 10014f40 f   common:IOBuffer.obj
 0001:00013f50       ?AddData@CIOBuffer@Win32@OnlineGameLib@@QAEXE@Z 10014f50 f   common:IOBuffer.obj
 0001:00013f60       ?Allocate@Allocator@CIOBuffer@Win32@OnlineGameLib@@QAEPAV234@XZ 10014f60 f   common:IOBuffer.obj
 0001:000140c0       ?Release@Allocator@CIOBuffer@Win32@OnlineGameLib@@AAEXPAV234@@Z 100150c0 f   common:IOBuffer.obj
 0001:000141e0       ?ProcessAndGetNext@InOrderBufferList@CIOBuffer@Win32@OnlineGameLib@@QAEPAV234@XZ 100151e0 f   common:IOBuffer.obj
 0001:00014290       ?GetNext@InOrderBufferList@CIOBuffer@Win32@OnlineGameLib@@QAEPAV234@XZ 10015290 f   common:IOBuffer.obj
 0001:00014340       ?insert@?$_Tree@V?$_Tmap_traits@IPAVCIOBuffer@Win32@OnlineGameLib@@U?$less@I@std@@V?$allocator@U?$pair@$$CBIPAVCIOBuffer@Win32@OnlineGameLib@@@std@@@5@$0A@@std@@@std@@QAE?AU?$pair@Viterator@?$_Tree@V?$_Tmap_traits@IPAVCIOBuffer@Win32@OnlineGameLib@@U?$less@I@std@@V?$allocator@U?$pair@$$CBIPAVCIOBuffer@Win32@OnlineGameLib@@@std@@@5@$0A@@std@@@std@@_N@2@ABU?$pair@$$CBIPAVCIOBuffer@Win32@OnlineGameLib@@@2@@Z 10015340 f i common:IOBuffer.obj
 0001:00014400       ?SplitBuffer@CIOBuffer@Win32@OnlineGameLib@@QAEPAV123@I@Z 10015400 f   common:IOBuffer.obj
 0001:00014440       ?AllocateNewBuffer@CIOBuffer@Win32@OnlineGameLib@@QBEPAV123@XZ 10015440 f   common:IOBuffer.obj
 0001:00014450       ?Release@CIOBuffer@Win32@OnlineGameLib@@QAEXXZ 10015450 f   common:IOBuffer.obj
 0001:00014530       ?AddBuffer@InOrderBufferList@CIOBuffer@Win32@OnlineGameLib@@QAEXPAV234@@Z 10015530 f   common:IOBuffer.obj
 0001:000145b0       ?GetNext@InOrderBufferList@CIOBuffer@Win32@OnlineGameLib@@QAEPAV234@PAV234@@Z 100155b0 f   common:IOBuffer.obj
 0001:00014690       ??0?$map@IPAVCIOBuffer@Win32@OnlineGameLib@@U?$less@I@std@@V?$allocator@U?$pair@$$CBIPAVCIOBuffer@Win32@OnlineGameLib@@@std@@@5@@std@@QAE@XZ 10015690 f i common:IOBuffer.obj
 0001:000146c0       ??0InOrderBufferList@CIOBuffer@Win32@OnlineGameLib@@QAE@AAVCCriticalSection@23@@Z 100156c0 f   common:IOBuffer.obj
 0001:00014710       ??1CEvent@Win32@OnlineGameLib@@UAE@XZ 10015710 f   common:Event.obj
 0001:00014730       ??_GCEvent@Win32@OnlineGameLib@@UAEPAXI@Z 10015730 f i common:Event.obj
 0001:00014730       ??_ECEvent@Win32@OnlineGameLib@@UAEPAXI@Z 10015730 f i common:Event.obj
 0001:000147f0       ??0CEvent@Win32@OnlineGameLib@@QAE@PAU_SECURITY_ATTRIBUTES@@_N1@Z 100157f0 f   common:Event.obj
 0001:00014820       ??0CEvent@Win32@OnlineGameLib@@QAE@PAU_SECURITY_ATTRIBUTES@@_N1PBD@Z 10015820 f   common:Event.obj
 0001:00014850       ?Wait@CEvent@Win32@OnlineGameLib@@QBE_NK@Z 10015850 f   common:Event.obj
 0001:00014910       ?Reset@CEvent@Win32@OnlineGameLib@@QAEXXZ 10015910 f   common:Event.obj
 0001:000149a0       ?Set@CEvent@Win32@OnlineGameLib@@QAEXXZ 100159a0 f   common:Event.obj
 0001:00014a30       ?Pulse@CEvent@Win32@OnlineGameLib@@QAEXXZ 10015a30 f   common:Event.obj
 0001:00014ac0       ?Wait@CEvent@Win32@OnlineGameLib@@QBEXXZ 10015ac0 f   common:Event.obj
 0001:00014b80       ?A2T@@YAPADPAD@Z           10015b80 f i common:SocketAddress.obj
 0001:00014b90       ?GetAsString@CSocketAddress@Win32@OnlineGameLib@@QBE?AV?$basic_string@DU?$char_traits@D@std@@V?$allocator@D@2@@std@@XZ 10015b90 f   common:SocketAddress.obj
 0001:00014bc0       ??6?$basic_ostream@DU?$char_traits@D@std@@@std@@QAEAAV01@G@Z 10015bc0 f i common:SocketAddress.obj
 0001:00014d20       ??$ToString@G@Win32@OnlineGameLib@@YA?AV?$basic_string@DU?$char_traits@D@std@@V?$allocator@D@2@@std@@G@Z 10015d20 f i common:SocketAddress.obj
 0001:00014fe0       ??0CSocketAddress@Win32@OnlineGameLib@@QAE@PBUsockaddr@@@Z 10015fe0 f   common:SocketAddress.obj
 0001:00015000       ??0CWin32Exception@Win32@OnlineGameLib@@QAE@ABV?$basic_string@DU?$char_traits@D@std@@V?$allocator@D@2@@std@@K@Z 10016000 f   common:Win32Exception.obj
 0001:00015090       ?MessageBoxA@CException@Win32@OnlineGameLib@@QBEXPAUHWND__@@@Z 10016090 f   common:Exception.obj
 0001:00015160       ??0CException@Win32@OnlineGameLib@@QAE@ABV?$basic_string@DU?$char_traits@D@std@@V?$allocator@D@2@@std@@0@Z 10016160 f   common:Exception.obj
 0001:000151f0       ?GetWhere@CException@Win32@OnlineGameLib@@UBE?AV?$basic_string@DU?$char_traits@D@std@@V?$allocator@D@2@@std@@XZ 100161f0 f   common:Exception.obj
 0001:00015220       ?GetMessageA@CException@Win32@OnlineGameLib@@UBE?AV?$basic_string@DU?$char_traits@D@std@@V?$allocator@D@2@@std@@XZ 10016220 f   common:Exception.obj
 0001:00015250       ?Next@Node@CNodeList@OnlineGameLib@@QAEXPAV123@@Z 10016250 f i common:NodeList.obj
 0001:00015260       ??0CNodeList@OnlineGameLib@@QAE@XZ 10016260 f   common:NodeList.obj
 0001:00015270       ??0Node@CNodeList@OnlineGameLib@@IAE@XZ 10016270 f   common:NodeList.obj
 0001:00015280       ?AddToList@Node@CNodeList@OnlineGameLib@@QAEXPAV23@@Z 10016280 f   common:NodeList.obj
 0001:00015290       ?Unlink@Node@CNodeList@OnlineGameLib@@AAEXXZ 10016290 f   common:NodeList.obj
 0001:000152c0       ?PushNode@CNodeList@OnlineGameLib@@QAEXPAVNode@12@@Z 100162c0 f   common:NodeList.obj
 0001:000152e0       ?RemoveNode@CNodeList@OnlineGameLib@@AAEXPAVNode@12@@Z 100162e0 f   common:NodeList.obj
 0001:00015300       ?RemoveFromList@Node@CNodeList@OnlineGameLib@@QAEXXZ 10016300 f   common:NodeList.obj
 0001:00015310       ?PopNode@CNodeList@OnlineGameLib@@QAEPAVNode@12@XZ 10016310 f   common:NodeList.obj
 0001:00015330       ??1Node@CNodeList@OnlineGameLib@@IAE@XZ 10016330 f   common:NodeList.obj
 0001:00015350       ??1CUsesWinsock@Win32@OnlineGameLib@@QAE@XZ 10016350 f   common:UsesWinsock.obj
 0001:00015360       ??0CUsesWinsock@Win32@OnlineGameLib@@QAE@XZ 10016360 f   common:UsesWinsock.obj
 0001:00015400       ??1CIOCompletionPort@Win32@OnlineGameLib@@QAE@XZ 10016400 f   common:IOCompletionPort.obj
 0001:00015420       ?GetStatus@CIOCompletionPort@Win32@OnlineGameLib@@QAEKPAK0PAPAU_OVERLAPPED@@@Z 10016420 f   common:IOCompletionPort.obj
 0001:00015450       ?GetStatus@CIOCompletionPort@Win32@OnlineGameLib@@QAEKPAK0PAPAU_OVERLAPPED@@K@Z 10016450 f   common:IOCompletionPort.obj
 0001:00015490       ??0CIOCompletionPort@Win32@OnlineGameLib@@QAE@I@Z 10016490 f   common:IOCompletionPort.obj
 0001:00015530       ?AssociateDevice@CIOCompletionPort@Win32@OnlineGameLib@@QAEXPAXK@Z 10016530 f   common:IOCompletionPort.obj
 0001:000155e0       ?PostStatus@CIOCompletionPort@Win32@OnlineGameLib@@QAEXKKPAU_OVERLAPPED@@@Z 100165e0 f   common:IOCompletionPort.obj
 0001:00015680       ??0CManualResetEvent@Win32@OnlineGameLib@@QAE@_N@Z 10016680 f   common:ManualResetEvent.obj
 0001:000156a0       ??0CManualResetEvent@Win32@OnlineGameLib@@QAE@PBD_N@Z 100166a0 f   common:ManualResetEvent.obj
 0001:000156d0       ??_GCManualResetEvent@Win32@OnlineGameLib@@UAEPAXI@Z 100166d0 f i common:ManualResetEvent.obj
 0001:000156d0       ??_ECManualResetEvent@Win32@OnlineGameLib@@UAEPAXI@Z 100166d0 f i common:ManualResetEvent.obj
 0001:000156f0       ??0CSocket@Win32@OnlineGameLib@@QAE@XZ 100166f0 f   common:Socket.obj
 0001:00015700       ?Detatch@CSocket@Win32@OnlineGameLib@@QAEIXZ 10016700 f   common:Socket.obj
 0001:00015710       ??0InternetAddress@CSocket@Win32@OnlineGameLib@@QAE@KG@Z 10016710 f   common:Socket.obj
 0001:00015740       ??0InternetAddress@CSocket@Win32@OnlineGameLib@@QAE@ABV?$basic_string@DU?$char_traits@D@std@@V?$allocator@D@2@@std@@G@Z 10016740 f   common:Socket.obj
 0001:00015790       ??0Exception@CSocket@Win32@OnlineGameLib@@AAE@ABV?$basic_string@DU?$char_traits@D@std@@V?$allocator@D@2@@std@@K@Z 10016790 f   common:Socket.obj
 0001:000157b0       ??1Exception@CSocket@Win32@OnlineGameLib@@UAE@XZ 100167b0 f i common:Socket.obj
 0001:000157c0       ??_EException@CSocket@Win32@OnlineGameLib@@UAEPAXI@Z 100167c0 f i common:Socket.obj
 0001:000157c0       ??_GException@CSocket@Win32@OnlineGameLib@@UAEPAXI@Z 100167c0 f i common:Socket.obj
 0001:000157e0       ??0CSocket@Win32@OnlineGameLib@@QAE@I@Z 100167e0 f   common:Socket.obj
 0001:00015880       ?Close@CSocket@Win32@OnlineGameLib@@QAEXXZ 10016880 f   common:Socket.obj
 0001:00015920       ?AbortiveClose@CSocket@Win32@OnlineGameLib@@QAEXXZ 10016920 f   common:Socket.obj
 0001:000159e0       ?Shutdown@CSocket@Win32@OnlineGameLib@@QAEXH@Z 100169e0 f   common:Socket.obj
 0001:00015a80       ?Listen@CSocket@Win32@OnlineGameLib@@QAEXH@Z 10016a80 f   common:Socket.obj
 0001:00015b20       ?Bind@CSocket@Win32@OnlineGameLib@@QAEXABUsockaddr_in@@@Z 10016b20 f   common:Socket.obj
 0001:00015bc0       ?Bind@CSocket@Win32@OnlineGameLib@@QAEXABUsockaddr@@I@Z 10016bc0 f   common:Socket.obj
 0001:00015c60       ?Connect@CSocket@Win32@OnlineGameLib@@QAEXABUsockaddr_in@@@Z 10016c60 f   common:Socket.obj
 0001:00015d00       ?Connect@CSocket@Win32@OnlineGameLib@@QAEXABUsockaddr@@I@Z 10016d00 f   common:Socket.obj
 0001:00015da0       ??0Exception@CSocket@Win32@OnlineGameLib@@QAE@ABV0123@@Z 10016da0 f i common:Socket.obj
 0001:00015dd0       ??1CSocket@Win32@OnlineGameLib@@QAE@XZ 10016dd0 f   common:Socket.obj
 0001:00015e30       ?Attach@CSocket@Win32@OnlineGameLib@@QAEXI@Z 10016e30 f   common:Socket.obj
 0001:00015e42       ??3@YAXPAX@Z               10016e42 f   LIBCMT:delete.obj
 0001:00015e47       ??0exception@std@@QAE@XZ   10016e47 f   LIBCMT:stdexcpt.obj
 0001:00015e58       ??0exception@std@@QAE@ABQBD@Z 10016e58 f   LIBCMT:stdexcpt.obj
 0001:00015ea6       ??0exception@std@@QAE@ABQBDH@Z 10016ea6 f   LIBCMT:stdexcpt.obj
 0001:00015ebe       ??0exception@std@@QAE@ABV01@@Z 10016ebe f   LIBCMT:stdexcpt.obj
 0001:00015f16       ??4exception@std@@QAEAAV01@ABV01@@Z 10016f16 f   LIBCMT:stdexcpt.obj
 0001:00015f6c       ??1exception@std@@UAE@XZ   10016f6c f   LIBCMT:stdexcpt.obj
 0001:00015f82       ?what@exception@std@@UBEPBDXZ 10016f82 f   LIBCMT:stdexcpt.obj
 0001:00015f8f       ??0bad_cast@std@@QAE@PBD@Z 10016f8f f   LIBCMT:stdexcpt.obj
 0001:00015fa8       ??0bad_cast@std@@QAE@ABV01@@Z 10016fa8 f   LIBCMT:stdexcpt.obj
 0001:00015fc0       ??1bad_cast@std@@UAE@XZ    10016fc0 f   LIBCMT:stdexcpt.obj
 0001:00015fcb       ??0bad_typeid@std@@QAE@PBD@Z 10016fcb f   LIBCMT:stdexcpt.obj
 0001:00015fe4       ??0bad_typeid@std@@QAE@ABV01@@Z 10016fe4 f   LIBCMT:stdexcpt.obj
 0001:00015ffc       ??1bad_typeid@std@@UAE@XZ  10016ffc f   LIBCMT:stdexcpt.obj
 0001:00016007       ??0__non_rtti_object@std@@QAE@PBD@Z 10017007 f   LIBCMT:stdexcpt.obj
 0001:0001601f       ??0__non_rtti_object@std@@QAE@ABV01@@Z 1001701f f   LIBCMT:stdexcpt.obj
 0001:00016037       ??1__non_rtti_object@std@@UAE@XZ 10017037 f   LIBCMT:stdexcpt.obj
 0001:00016042       ??_Eexception@std@@UAEPAXI@Z 10017042 f i LIBCMT:stdexcpt.obj
 0001:00016042       ??_Gexception@std@@UAEPAXI@Z 10017042 f i LIBCMT:stdexcpt.obj
 0001:0001605e       ??_Ebad_cast@std@@UAEPAXI@Z 1001705e f i LIBCMT:stdexcpt.obj
 0001:0001605e       ??_Gbad_cast@std@@UAEPAXI@Z 1001705e f i LIBCMT:stdexcpt.obj
 0001:00016080       ??_Ebad_typeid@std@@UAEPAXI@Z 10017080 f i LIBCMT:stdexcpt.obj
 0001:00016080       ??_Gbad_typeid@std@@UAEPAXI@Z 10017080 f i LIBCMT:stdexcpt.obj
 0001:000160a2       ??_G__non_rtti_object@std@@UAEPAXI@Z 100170a2 f i LIBCMT:stdexcpt.obj
 0001:000160a2       ??_E__non_rtti_object@std@@UAEPAXI@Z 100170a2 f i LIBCMT:stdexcpt.obj
 0001:000160c4       ?name@type_info@@QBEPBDPAU__type_info_node@@@Z 100170c4 f   LIBCMT:typinfo.obj
 0001:000160d3       ??1type_info@@UAE@XZ       100170d3 f   LIBCMT:typinfo.obj
 0001:000160e1       ??_Etype_info@@UAEPAXI@Z   100170e1 f i LIBCMT:typinfo.obj
 0001:000160e1       ??_Gtype_info@@UAEPAXI@Z   100170e1 f i LIBCMT:typinfo.obj
 0001:000160fd       ?_name_internal_method@type_info@@QBEPBDPAU__type_info_node@@@Z 100170fd f   LIBCMT:typinfo.obj
 0001:0001610c       ?_type_info_dtor_internal_method@type_info@@QAEXXZ 1001710c f   LIBCMT:typinfo.obj
 0001:00016114       ??8type_info@@QBE_NABV0@@Z 10017114 f   LIBCMT:typinfo.obj
 0001:0001612f       ??9type_info@@QBE_NABV0@@Z 1001712f f   LIBCMT:typinfo.obj
 0001:0001614b       ?before@type_info@@QBEHABV1@@Z 1001714b f   LIBCMT:typinfo.obj
 0001:0001616a       ?raw_name@type_info@@QBEPBDXZ 1001716a f   LIBCMT:typinfo.obj
 0001:0001616e       ??0type_info@@AAE@ABV0@@Z  1001716e f   LIBCMT:typinfo.obj
 0001:00016179       ??4type_info@@AAEAAV0@ABV0@@Z 10017179 f   LIBCMT:typinfo.obj
 0001:0001617e       _memcpy_s                  1001717e f   LIBCMT:memcpy_s.obj
 0001:000161f9       _memmove_s                 100171f9 f   LIBCMT:memmove_s.obj
 0001:00016254       ??_V@YAXPAX@Z              10017254 f   LIBCMT:delete2.obj
 0001:00016259       _free                      10017259 f   LIBCMT:free.obj
 0001:000162e7       __time64                   100172e7 f   LIBCMT:time64.obj
 0001:00016323       ?_JumpToContinuation@@YGXPAXPAUEHRegistrationNode@@@Z 10017323 f   LIBCMT:trnsctrl.obj
 0001:00016353       ?_CallMemberFunction0@@YGXPAX0@Z 10017353 f   LIBCMT:trnsctrl.obj
 0001:0001635a       ?_CallMemberFunction1@@YGXPAX00@Z 1001735a f   LIBCMT:trnsctrl.obj
 0001:00016361       ?_CallMemberFunction2@@YGXPAX00H@Z 10017361 f   LIBCMT:trnsctrl.obj
 0001:00016368       ?_UnwindNestedFrames@@YGXPAUEHRegistrationNode@@PAUEHExceptionRecord@@@Z 10017368 f   LIBCMT:trnsctrl.obj
 0001:000163ba       ___CxxFrameHandler         100173ba f   LIBCMT:trnsctrl.obj
 0001:000163f0       ___CxxFrameHandler3        100173f0 f   LIBCMT:trnsctrl.obj
 0001:00016426       ___CxxFrameHandler2        10017426 f   LIBCMT:trnsctrl.obj
 0001:0001645c       ___CxxLongjmpUnwind@4      1001745c f   LIBCMT:trnsctrl.obj
 0001:000164a6       ?_CallSETranslator@@YAHPAUEHExceptionRecord@@PAUEHRegistrationNode@@PAX2PBU_s_FuncInfo@@H1@Z 100174a6 f   LIBCMT:trnsctrl.obj
 0001:00016618       ?_GetRangeOfTrysToCheck@@YAPBU_s_TryBlockMapEntry@@PBU_s_FuncInfo@@HHPAI1@Z 10017618 f   LIBCMT:trnsctrl.obj
 0001:0001668b       __CreateFrameInfo          1001768b f   LIBCMT:trnsctrl.obj
 0001:000166b3       __IsExceptionObjectToBeDestroyed 100176b3 f   LIBCMT:trnsctrl.obj
 0001:000166d4       __FindAndUnlinkFrame       100176d4 f   LIBCMT:trnsctrl.obj
 0001:00016720       ?_CallCatchBlock2@@YAPAXPAUEHRegistrationNode@@PBU_s_FuncInfo@@PAXHK@Z 10017720 f   LIBCMT:trnsctrl.obj
 0001:0001677e       @__security_check_cookie@4 1001777e f   LIBCMT:secchk.obj
 0001:0001678d       __initp_misc_invarg        1001778d f   LIBCMT:invarg.obj
 0001:00016797       __invoke_watson            10017797 f   LIBCMT:invarg.obj
 0001:00016893       __set_invalid_parameter_handler 10017893 f   LIBCMT:invarg.obj
 0001:000168b5       __get_invalid_parameter_handler 100178b5 f   LIBCMT:invarg.obj
 0001:000168c2       ?_invoke_watson@@YAXPBG00II@Z 100178c2 f   LIBCMT:invarg.obj
 0001:000168cb       __invalid_parameter        100178cb f   LIBCMT:invarg.obj
 0001:000168ef       __invalid_parameter_noinfo 100178ef f   LIBCMT:invarg.obj
 0001:000168ff       ?_invalid_parameter@@YAXPBG00II@Z 100178ff f   LIBCMT:invarg.obj
 0001:00016908       ??0bad_alloc@std@@QAE@XZ   10017908 f i LIBCMT:new.obj
 0001:00016921       ??2@YAPAXI@Z               10017921 f   LIBCMT:new.obj
 0001:0001698b       __CxxThrowException@8      1001798b f   LIBCMT:throw.obj
 0001:000169d5       ??_U@YAPAXI@Z              100179d5 f   LIBCMT:new2.obj
 0001:000169e0       _memset                    100179e0 f   LIBCMT:memset.obj
 0001:00016a5a       _localeconv                10017a5a f   LIBCMT:lconv.obj
 0001:00016a80       _memchr                    10017a80 f   LIBCMT:memchr.obj
 0001:00016b30       _strcspn                   10017b30 f   LIBCMT:strcspn.obj
 0001:00016b76       _sprintf                   10017b76 f   LIBCMT:sprintf.obj
 0001:00016bf1       __sprintf_l                10017bf1 f   LIBCMT:sprintf.obj
 0001:00016c0b       _sprintf_s                 10017c0b f   LIBCMT:sprintf.obj
 0001:00016c27       __sprintf_s_l              10017c27 f   LIBCMT:sprintf.obj
 0001:00016c44       __snprintf_s               10017c44 f   LIBCMT:sprintf.obj
 0001:00016c63       __snprintf_s_l             10017c63 f   LIBCMT:sprintf.obj
 0001:00016c83       __sprintf_p                10017c83 f   LIBCMT:sprintf.obj
 0001:00016c9f       __sprintf_p_l              10017c9f f   LIBCMT:sprintf.obj
 0001:00016cbc       __scprintf                 10017cbc f   LIBCMT:sprintf.obj
 0001:00016ccd       __scprintf_p               10017ccd f   LIBCMT:sprintf.obj
 0001:00016cde       __scprintf_l               10017cde f   LIBCMT:sprintf.obj
 0001:00016cf4       __scprintf_p_l             10017cf4 f   LIBCMT:sprintf.obj
 0001:00016d0a       __fpclear                  10017d0a f   LIBCMT:fpinit.obj
 0001:00016d0b       __cfltcvt_init             10017d0b f   LIBCMT:fpinit.obj
 0001:00016d6b       ___setfflag                10017d6b f   LIBCMT:fpinit.obj
 0001:00016d7b       __fpmath                   10017d7b f   LIBCMT:fpinit.obj
 0001:00016d99       __endthreadex              10017d99 f   LIBCMT:threadex.obj
 0001:00016e93       __beginthreadex            10017e93 f   LIBCMT:threadex.obj
 0001:00016f41       __set_osplatform           10017f41 f i LIBCMT:dllcrt0.obj
 0001:00016f4b       __set_osver                10017f4b f i LIBCMT:dllcrt0.obj
 0001:00016f55       __set_winver               10017f55 f i LIBCMT:dllcrt0.obj
 0001:00016f5f       __set_winmajor             10017f5f f i LIBCMT:dllcrt0.obj
 0001:00016f69       __set_winminor             10017f69 f i LIBCMT:dllcrt0.obj
 0001:00016f73       __CRT_INIT@12              10017f73 f   LIBCMT:dllcrt0.obj
 0001:00017242       __DllMainCRTStartup@12     10018242 f   LIBCMT:dllcrt0.obj
 0001:00017263       __purecall                 10018263 f   LIBCMT:purevirt.obj
 0001:0001728d       __set_purecall_handler     1001828d f   LIBCMT:purevirt.obj
 0001:000172af       __get_purecall_handler     100182af f   LIBCMT:purevirt.obj
 0001:000172bc       _atol                      100182bc f   LIBCMT:atox.obj
 0001:000172cd       __atol_l                   100182cd f   LIBCMT:atox.obj
 0001:000172e2       _atoi                      100182e2 f   LIBCMT:atox.obj
 0001:000172e7       __atoi_l                   100182e7 f   LIBCMT:atox.obj
 0001:000172ec       __atoi64                   100182ec f   LIBCMT:atox.obj
 0001:000172fd       __atoi64_l                 100182fd f   LIBCMT:atox.obj
 0001:00017312       _strtok                    10018312 f   LIBCMT:strtok.obj
 0001:000173e0       _memcpy                    100183e0 f   LIBCMT:memcpy.obj
 0001:00017745       _fgetc                     10018745 f   LIBCMT:fgetc.obj
 0001:0001787c       _getc                      1001887c f   LIBCMT:fgetc.obj
 0001:000179b3       __getc_nolock              100189b3 f   LIBCMT:fgetc.obj
 0001:000179cd       _fputc                     100189cd f   LIBCMT:fputc.obj
 0001:00017b0c       _putc                      10018b0c f   LIBCMT:fputc.obj
 0001:00017c4b       __ungetc_nolock            10018c4b f   LIBCMT:ungetc.obj
 0001:00017d69       _ungetc                    10018d69 f   LIBCMT:ungetc.obj
 0001:00017ddb       __flush                    10018ddb f   LIBCMT:fflush.obj
 0001:00017e3d       __fflush_nolock            10018e3d f   LIBCMT:fflush.obj
 0001:00017f59       _fflush                    10018f59 f   LIBCMT:fflush.obj
 0001:00017fac       __flushall                 10018fac f   LIBCMT:fflush.obj
 0001:00017fb5       _setvbuf                   10018fb5 f   LIBCMT:setvbuf.obj
 0001:000180b3       __fwrite_nolock            100190b3 f   LIBCMT:fwrite.obj
 0001:00018212       _fwrite                    10019212 f   LIBCMT:fwrite.obj
 0001:00018294       _fgetpos                   10019294 f   LIBCMT:fgetpos.obj
 0001:000182ff       __fseek_nolock             100192ff f   LIBCMT:fseek.obj
 0001:00018386       _fseek                     10019386 f   LIBCMT:fseek.obj
 0001:0001840b       _fsetpos                   1001940b f   LIBCMT:fsetpos.obj
 0001:0001844d       __fclose_nolock            1001944d f   LIBCMT:fclose.obj
 0001:000184bf       _fclose                    100194bf f   LIBCMT:fclose.obj
 0001:0001853b       ??0_LocaleUpdate@@QAE@PAUlocaleinfo_struct@@@Z 1001953b f i LIBCMT:toupper.obj
 0001:000185bd       ??1_LocaleUpdate@@QAE@XZ   100195bd f i LIBCMT:toupper.obj
 0001:000185cb       ?GetLocaleT@_LocaleUpdate@@QAEPAUlocaleinfo_struct@@XZ 100195cb f i LIBCMT:toupper.obj
 0001:000185ce       __toupper                  100195ce f   LIBCMT:toupper.obj
 0001:000185d6       __toupper_l                100195d6 f   LIBCMT:toupper.obj
 0001:000186ee       _toupper                   100196ee f   LIBCMT:toupper.obj
 0001:00018715       __isalpha_l                10019715 f i LIBCMT:_ctype.obj
 0001:00018769       _isalpha                   10019769 f i LIBCMT:_ctype.obj
 0001:00018794       __isupper_l                10019794 f i LIBCMT:_ctype.obj
 0001:000187e3       _isupper                   100197e3 f i LIBCMT:_ctype.obj
 0001:0001880c       __islower_l                1001980c f i LIBCMT:_ctype.obj
 0001:0001885b       _islower                   1001985b f i LIBCMT:_ctype.obj
 0001:00018884       __isdigit_l                10019884 f i LIBCMT:_ctype.obj
 0001:000188d3       _isdigit                   100198d3 f i LIBCMT:_ctype.obj
 0001:000188fc       __isxdigit_l               100198fc f i LIBCMT:_ctype.obj
 0001:00018950       _isxdigit                  10019950 f i LIBCMT:_ctype.obj
 0001:0001897b       __isspace_l                1001997b f i LIBCMT:_ctype.obj
 0001:000189ca       _isspace                   100199ca f i LIBCMT:_ctype.obj
 0001:000189f3       __ispunct_l                100199f3 f i LIBCMT:_ctype.obj
 0001:00018a42       _ispunct                   10019a42 f i LIBCMT:_ctype.obj
 0001:00018a6b       __isalnum_l                10019a6b f i LIBCMT:_ctype.obj
 0001:00018abf       _isalnum                   10019abf f i LIBCMT:_ctype.obj
 0001:00018aea       __isprint_l                10019aea f i LIBCMT:_ctype.obj
 0001:00018b3e       _isprint                   10019b3e f i LIBCMT:_ctype.obj
 0001:00018b69       __isgraph_l                10019b69 f i LIBCMT:_ctype.obj
 0001:00018bbd       _isgraph                   10019bbd f i LIBCMT:_ctype.obj
 0001:00018be8       __iscntrl_l                10019be8 f i LIBCMT:_ctype.obj
 0001:00018c37       _iscntrl                   10019c37 f i LIBCMT:_ctype.obj
 0001:00018c60       ___isascii                 10019c60 f i LIBCMT:_ctype.obj
 0001:00018c6d       ___toascii                 10019c6d f i LIBCMT:_ctype.obj
 0001:00018c75       __iscsymf_l                10019c75 f i LIBCMT:_ctype.obj
 0001:00018c94       ___iscsymf                 10019c94 f i LIBCMT:_ctype.obj
 0001:00018cae       __iscsym_l                 10019cae f i LIBCMT:_ctype.obj
 0001:00018ccd       ___iscsym                  10019ccd f i LIBCMT:_ctype.obj
 0001:00018da2       ___onexitinit              10019da2 f   LIBCMT:onexit.obj
 0001:00018dd1       __onexit                   10019dd1 f   LIBCMT:onexit.obj
 0001:00018e0d       _atexit                    10019e0d f   LIBCMT:onexit.obj
 0001:00018e20       _memmove                   10019e20 f   LIBCMT:memmove.obj
 0001:00019185       _strcpy_s                  1001a185 f   LIBCMT:strcpy_s.obj
 0001:000191ea       _V6_HeapAlloc              1001a1ea f   LIBCMT:malloc.obj
 0001:00019239       __heap_alloc               1001a239 f i LIBCMT:malloc.obj
 0001:000192ae       _malloc                    1001a2ae f   LIBCMT:malloc.obj
 0001:00019380       _strlen                    1001a380 f   LIBCMT:strlen.obj
 0001:0001940b       __invoke_watson_if_error   1001a40b f i LIBCMT:typname.obj
 0001:0001942d       ?_Type_info_dtor@type_info@@CAXPAV1@@Z 1001a42d f   LIBCMT:typname.obj
 0001:0001949d       ?_Name_base@type_info@@CAPBDPBV1@PAU__type_info_node@@@Z 1001a49d f   LIBCMT:typname.obj
 0001:00019592       ?_Type_info_dtor_internal@type_info@@CAXPAV1@@Z 1001a592 f   LIBCMT:typname.obj
 0001:00019602       ___unDNameHelper           1001a602 f   LIBCMT:typname.obj
 0001:00019633       ?_Name_base_internal@type_info@@CAPBDPBV1@PAU__type_info_node@@@Z 1001a633 f   LIBCMT:typname.obj
 0001:0001971e       ___clean_type_info_names_internal 1001a71e f   LIBCMT:typname.obj
 0001:00019780       _strcmp                    1001a780 f   LIBCMT:strcmp.obj
 0001:00019808       __get_errno_from_oserr     1001a808 f   LIBCMT:dosmap.obj
 0001:00019843       __errno                    1001a843 f   LIBCMT:dosmap.obj
 0001:00019856       ___doserrno                1001a856 f   LIBCMT:dosmap.obj
 0001:00019869       __dosmaperr                1001a869 f   LIBCMT:dosmap.obj
 0001:00019887       __set_errno                1001a887 f   LIBCMT:dosmap.obj
 0001:000198a2       __get_errno                1001a8a2 f   LIBCMT:dosmap.obj
 0001:000198cc       __set_doserrno             1001a8cc f   LIBCMT:dosmap.obj
 0001:000198e7       __get_doserrno             1001a8e7 f   LIBCMT:dosmap.obj
 0001:00019911       ___heap_select             1001a911 f   LIBCMT:heapinit.obj
 0001:0001996c       __heap_init                1001a96c f   LIBCMT:heapinit.obj
 0001:000199c6       __heap_term                1001a9c6 f   LIBCMT:heapinit.obj
 0001:00019a3a       __get_heap_handle          1001aa3a f   LIBCMT:heapinit.obj
 0001:00019a40       __mtinitlocks              1001aa40 f   LIBCMT:mlock.obj
 0001:00019a89       __mtdeletelocks            1001aa89 f   LIBCMT:mlock.obj
 0001:00019ade       __unlock                   1001aade f   LIBCMT:mlock.obj
 0001:00019af3       __lockerr_exit             1001aaf3 f   LIBCMT:mlock.obj
 0001:00019b0b       __mtinitlocknum            1001ab0b f   LIBCMT:mlock.obj
 0001:00019bce       __lock                     1001abce f   LIBCMT:mlock.obj
 0001:00019bff       __get_sbh_threshold        1001abff f   LIBCMT:sbheap.obj
 0001:00019c20       __set_amblksiz             1001ac20 f   LIBCMT:sbheap.obj
 0001:00019c66       __get_amblksiz             1001ac66 f   LIBCMT:sbheap.obj
 0001:00019ca2       ___sbh_heap_init           1001aca2 f   LIBCMT:sbheap.obj
 0001:00019cea       ___sbh_find_block          1001acea f   LIBCMT:sbheap.obj
 0001:00019d15       ___sbh_free_block          1001ad15 f   LIBCMT:sbheap.obj
 0001:0001a029       ___sbh_alloc_new_region    1001b029 f   LIBCMT:sbheap.obj
 0001:0001a0d9       ___sbh_alloc_new_group     1001b0d9 f   LIBCMT:sbheap.obj
 0001:0001a1df       ___sbh_resize_block        1001b1df f   LIBCMT:sbheap.obj
 0001:0001a4be       ___sbh_heapmin             1001b4be f   LIBCMT:sbheap.obj
 0001:0001a58b       ___sbh_heap_check          1001b58b f   LIBCMT:sbheap.obj
 0001:0001a86d       __set_sbh_threshold        1001b86d f   LIBCMT:sbheap.obj
 0001:0001a915       ___sbh_alloc_block         1001b915 f   LIBCMT:sbheap.obj
 0001:0001abf8       __SEH_prolog4              1001bbf8 f   LIBCMT:sehprolg4.obj
 0001:0001ac3d       __SEH_epilog4              1001bc3d f   LIBCMT:sehprolg4.obj
 0001:0001ac90       __except_handler4          1001bc90 f   LIBCMT:chandler4.obj
 0001:0001ae30       __aulldiv                  1001be30 f   LIBCMT:ulldiv.obj
 0001:0001ae98       ??0bad_exception@std@@QAE@PBD@Z 1001be98 f i LIBCMT:frame.obj
 0001:0001aeb1       ??1bad_exception@std@@UAE@XZ 1001beb1 f i LIBCMT:frame.obj
 0001:0001aebc       ??_Ebad_exception@std@@UAEPAXI@Z 1001bebc f i LIBCMT:frame.obj
 0001:0001aebc       ??_Gbad_exception@std@@UAEPAXI@Z 1001bebc f i LIBCMT:frame.obj
 0001:0001aede       ___TypeMatch               1001bede f   LIBCMT:frame.obj
 0001:0001af3a       ___FrameUnwindFilter       1001bf3a f   LIBCMT:frame.obj
 0001:0001af7e       ___FrameUnwindToState      1001bf7e f   LIBCMT:frame.obj
 0001:0001b0a4       ___DestructExceptionObject 1001c0a4 f   LIBCMT:frame.obj
 0001:0001b0f8       ___AdjustPointer           1001c0f8 f   LIBCMT:frame.obj
 0001:0001b11d       ?__uncaught_exception@@YA_NXZ 1001c11d f   LIBCMT:frame.obj
 0001:0001b130       ___CxxRegisterExceptionObject 1001c130 f   LIBCMT:frame.obj
 0001:0001b1e3       ___CxxDetectRethrow        1001c1e3 f   LIBCMT:frame.obj
 0001:0001b22f       ___CxxUnregisterExceptionObject 1001c22f f   LIBCMT:frame.obj
 0001:0001b368       ___CxxQueryExceptionSize   1001c368 f   LIBCMT:frame.obj
 0001:0001b36c       ___CxxCallUnwindDtor       1001c36c f   LIBCMT:frame.obj
 0001:0001b39e       ___CxxCallUnwindDelDtor    1001c39e f   LIBCMT:frame.obj
 0001:0001b3d1       ___CxxCallUnwindStdDelDtor 1001c3d1 f   LIBCMT:frame.obj
 0001:0001b403       ___CxxCallUnwindVecDtor    1001c403 f   LIBCMT:frame.obj
 0001:0001b530       ?_is_exception_typeof@@YAHABVtype_info@@PAU_EXCEPTION_POINTERS@@@Z 1001c530 f   LIBCMT:frame.obj
 0001:0001b74e       ___BuildCatchObjectHelper  1001c74e f   LIBCMT:frame.obj
 0001:0001b8cd       ___BuildCatchObject        1001c8cd f   LIBCMT:frame.obj
 0001:0001b95e       ___CxxExceptionFilter      1001c95e f   LIBCMT:frame.obj
 0001:0001bf55       ??0bad_exception@std@@QAE@ABV01@@Z 1001cf55 f i LIBCMT:frame.obj
 0001:0001bf6d       ___InternalCxxFrameHandler 1001cf6d f   LIBCMT:frame.obj
 0001:0001c0bd       __encode_pointer           1001d0bd f   LIBCMT:tidtable.obj
 0001:0001c12b       __encoded_null             1001d12b f   LIBCMT:tidtable.obj
 0001:0001c134       __decode_pointer           1001d134 f   LIBCMT:tidtable.obj
 0001:0001c1a2       ___crtTlsAlloc@4           1001d1a2 f   LIBCMT:tidtable.obj
 0001:0001c1ab       ___fls_getvalue@4          1001d1ab f   LIBCMT:tidtable.obj
 0001:0001c1c0       ___get_flsindex            1001d1c0 f   LIBCMT:tidtable.obj
 0001:0001c1c6       ___set_flsgetvalue         1001d1c6 f   LIBCMT:tidtable.obj
 0001:0001c1f8       ___fls_setvalue@8          1001d1f8 f   LIBCMT:tidtable.obj
 0001:0001c211       __mtterm                   1001d211 f   LIBCMT:tidtable.obj
 0001:0001c24e       __initptd                  1001d24e f   LIBCMT:tidtable.obj
 0001:0001c30d       __getptd_noexit            1001d30d f   LIBCMT:tidtable.obj
 0001:0001c384       __getptd                   1001d384 f   LIBCMT:tidtable.obj
 0001:0001c39c       __freefls@4                1001d39c f   LIBCMT:tidtable.obj
 0001:0001c4bd       __freeptd                  1001d4bd f   LIBCMT:tidtable.obj
 0001:0001c526       ___threadid                1001d526 f   LIBCMT:tidtable.obj
 0001:0001c52c       ___threadhandle            1001d52c f   LIBCMT:tidtable.obj
 0001:0001c532       __mtinit                   1001d532 f   LIBCMT:tidtable.obj
 0001:0001c6b6       ?terminate@@YAXXZ          1001d6b6 f   LIBCMT:hooks.obj
 0001:0001c6ef       ?unexpected@@YAXXZ         1001d6ef f   LIBCMT:hooks.obj
 0001:0001c702       ?_inconsistency@@YAXXZ     1001d702 f   LIBCMT:hooks.obj
 0001:0001c739       __initp_eh_hooks           1001d739 f   LIBCMT:hooks.obj
 0001:0001c750       __CallSettingFrame@12      1001d750 f   LIBCMT:lowhelpr.obj
 0001:0001c777       __NLG_Return               1001d777     LIBCMT:lowhelpr.obj
 0001:0001c79c       ___report_gsfailure        1001d79c f   LIBCMT:gs_report.obj
 0001:0001c8a0       __crt_debugger_hook        1001d8a0 f   LIBCMT:dbghook.obj
 0001:0001c8a8       __initp_heap_handler       1001d8a8 f   LIBCMT:handler.obj
 0001:0001c8b2       ?_set_new_handler@@YAP6AHI@ZP6AHI@Z@Z 1001d8b2 f   LIBCMT:handler.obj
 0001:0001c8e3       ?_set_new_handler@@YAP6AHI@ZH@Z 1001d8e3 f   LIBCMT:handler.obj
 0001:0001c8ec       ?_query_new_handler@@YAP6AHI@ZXZ 1001d8ec f   LIBCMT:handler.obj
 0001:0001c8f9       __callnewh                 1001d8f9 f   LIBCMT:handler.obj
 0001:0001c972       __VEC_memzero              1001d972 f   LIBCMT:p4_memset.obj
 0001:0001ca01       __sse2_mathfcns_init       1001da01 f   LIBCMT:mathfcns.obj
 0001:0001ca15       __set_SSE2_enable          1001da15 f   LIBCMT:mathfcns.obj
 0001:0001ca29       ____setlc_active_func      1001da29 f   LIBCMT:setlocal.obj
 0001:0001ca2f       ____unguarded_readlc_active_add_func 1001da2f f   LIBCMT:setlocal.obj
 0001:0001ca35       ___freetlocinfo            1001da35 f   LIBCMT:setlocal.obj
 0001:0001cb75       ___addlocaleref            1001db75 f   LIBCMT:setlocal.obj
 0001:0001cbfb       ___removelocaleref         1001dbfb f   LIBCMT:setlocal.obj
 0001:0001cce9       ___updatetlocinfo          1001dce9 f   LIBCMT:setlocal.obj
 0001:0001cd5f       __configthreadlocale       1001dd5f f   LIBCMT:setlocal.obj
 0001:0001ce18       __free_locale              1001de18 f   LIBCMT:setlocal.obj
 0001:0001ceae       ___free_locale             1001deae f   LIBCMT:setlocal.obj
 0001:0001ceb3       __get_current_locale       1001deb3 f   LIBCMT:setlocal.obj
 0001:0001cf3b       ___get_current_locale      1001df3b f   LIBCMT:setlocal.obj
 0001:0001cf40       ___init_dummy              1001df40 f   LIBCMT:setlocal.obj
 0001:0001cf43       __strcats                  1001df43 f   LIBCMT:setlocal.obj
 0001:0001cf81       ___lc_strtolc              1001df81 f   LIBCMT:setlocal.obj
 0001:0001d0aa       ___lc_lctostr              1001e0aa f   LIBCMT:setlocal.obj
 0001:0001d286       __expandlocale             1001e286 f   LIBCMT:setlocal.obj
 0001:0001d91e       __create_locale            1001e91e f   LIBCMT:setlocal.obj
 0001:0001da11       ___create_locale           1001ea11 f   LIBCMT:setlocal.obj
 0001:0001da16       _setlocale                 1001ea16 f   LIBCMT:setlocal.obj
 0001:0001db86       __flsbuf                   1001eb86 f   LIBCMT:_flsbuf.obj
 0001:0001dd87       _get_int_arg               1001ed87 f i LIBCMT:output.obj
 0001:0001dd94       _get_int64_arg             1001ed94 f i LIBCMT:output.obj
 0001:0001dda4       _get_short_arg             1001eda4 f i LIBCMT:output.obj
 0001:0001ddb2       __output_l                 1001edb2 f   LIBCMT:output.obj
 0001:0001e746       __vsprintf_l               1001f746 f   LIBCMT:vsprintf.obj
 0001:0001e7c2       _vsprintf                  1001f7c2 f   LIBCMT:vsprintf.obj
 0001:0001e7d9       __vscprintf_helper         1001f7d9 f   LIBCMT:vsprintf.obj
 0001:0001e82e       __vscprintf                1001f82e f   LIBCMT:vsprintf.obj
 0001:0001e846       __vscprintf_l              1001f846 f   LIBCMT:vsprintf.obj
 0001:0001e860       __vscprintf_p              1001f860 f   LIBCMT:vsprintf.obj
 0001:0001e878       __vscprintf_p_l            1001f878 f   LIBCMT:vsprintf.obj
 0001:0001e892       __vsnprintf_helper         1001f892 f   LIBCMT:vsnprnc.obj
 0001:0001e95c       __vsnprintf_c              1001f95c f   LIBCMT:vsnprnc.obj
 0001:0001e983       __vsnprintf_c_l            1001f983 f   LIBCMT:vsnprnc.obj
 0001:0001e9ab       __vsprintf_s_l             1001f9ab f   LIBCMT:vsnprnc.obj
 0001:0001ea31       _vsprintf_s                1001fa31 f   LIBCMT:vsnprnc.obj
 0001:0001ea4c       __vsnprintf_s_l            1001fa4c f   LIBCMT:vsnprnc.obj
 0001:0001eb51       __vsnprintf_s              1001fb51 f   LIBCMT:vsnprnc.obj
 0001:0001eb6f       __vsprintf_p               1001fb6f f   LIBCMT:vsnprnc.obj
 0001:0001eb96       __vsprintf_p_l             1001fb96 f   LIBCMT:vsnprnc.obj
 0001:0001ebbe       ?strrchr@@YAPADPADH@Z      1001fbbe f i LIBCMT:cvt.obj
 0001:0001ebc3       __forcdecpt_l              1001fbc3 f   LIBCMT:cvt.obj
 0001:0001ec34       __cropzeros_l              1001fc34 f   LIBCMT:cvt.obj
 0001:0001ecb4       __positive                 1001fcb4 f   LIBCMT:cvt.obj
 0001:0001ecca       __fassign_l                1001fcca f   LIBCMT:cvt.obj
 0001:0001ed0a       __fassign                  1001fd0a f   LIBCMT:cvt.obj
 0001:0001ed3e       __forcdecpt                1001fd3e f   LIBCMT:cvt.obj
 0001:0001ed4c       __cropzeros                1001fd4c f   LIBCMT:cvt.obj
 0001:0001eec7       __cftoe_l                  1001fec7 f   LIBCMT:cvt.obj
 0001:0001ef95       __cftoe                    1001ff95 f   LIBCMT:cvt.obj
 0001:0001efb3       __cftoa_l                  1001ffb3 f   LIBCMT:cvt.obj
 0001:0001f324       __cftoa                    10020324 f   LIBCMT:cvt.obj
 0001:0001f437       __cftof_l                  10020437 f   LIBCMT:cvt.obj
 0001:0001f4f0       __cftof                    100204f0 f   LIBCMT:cvt.obj
 0001:0001f50b       __cftog_l                  1002050b f   LIBCMT:cvt.obj
 0001:0001f603       __cftog                    10020603 f   LIBCMT:cvt.obj
 0001:0001f621       __cfltcvt_l                10020621 f   LIBCMT:cvt.obj
 0001:0001f6a7       __cfltcvt                  100206a7 f   LIBCMT:cvt.obj
 0001:0001f6c8       __initp_misc_cfltcvt_tab   100206c8 f   LIBCMT:cmiscdat.obj
 0001:0001f6e7       __setdefaultprecision      100206e7 f   LIBCMT:fp8.obj
 0001:0001f710       __ms_p5_test_fdiv          10020710 f   LIBCMT:testfdiv.obj
 0001:0001f74c       __ms_p5_mp_test_fdiv       1002074c f   LIBCMT:testfdiv.obj
 0001:0001f780       __ValidateImageBase        10020780 f   LIBCMT:pesect.obj
 0001:0001f7b0       __FindPESection            100207b0 f   LIBCMT:pesect.obj
 0001:0001f800       __IsNonwritableInCurrentImage 10020800 f   LIBCMT:pesect.obj
 0001:0001f8bb       __amsg_exit                100208bb f   LIBCMT:crt0dat.obj
 0001:0001f8df       ___crtCorExitProcess       100208df f   LIBCMT:crt0dat.obj
 0001:0001f905       ___crtExitProcess          10020905 f   LIBCMT:crt0dat.obj
 0001:0001f91a       __lockexit                 1002091a f   LIBCMT:crt0dat.obj
 0001:0001f923       __unlockexit               10020923 f   LIBCMT:crt0dat.obj
 0001:0001f944       __initterm_e               10020944 f   LIBCMT:crt0dat.obj
 0001:0001f964       __get_osplatform           10020964 f   LIBCMT:crt0dat.obj
 0001:0001f99b       __get_osver                1002099b f   LIBCMT:crt0dat.obj
 0001:0001f9d7       __get_winver               100209d7 f   LIBCMT:crt0dat.obj
 0001:0001fa13       __get_winmajor             10020a13 f   LIBCMT:crt0dat.obj
 0001:0001fa4f       __get_winminor             10020a4f f   LIBCMT:crt0dat.obj
 0001:0001fa8b       __get_wpgmptr              10020a8b f   LIBCMT:crt0dat.obj
 0001:0001fac2       __get_pgmptr               10020ac2 f   LIBCMT:crt0dat.obj
 0001:0001faf9       __cinit                    10020af9 f   LIBCMT:crt0dat.obj
 0001:0001fc6d       _exit                      10020c6d f   LIBCMT:crt0dat.obj
 0001:0001fc7e       __exit                     10020c7e f   LIBCMT:crt0dat.obj
 0001:0001fc8f       __cexit                    10020c8f f   LIBCMT:crt0dat.obj
 0001:0001fc9e       __c_exit                   10020c9e f   LIBCMT:crt0dat.obj
 0001:0001fcad       __init_pointers            10020cad f   LIBCMT:crt0dat.obj
 0001:0001fcf9       __initp_misc_winxfltr      10020cf9 f   LIBCMT:winxfltr.obj
 0001:0001fd2c       __XcptFilter               10020d2c f   LIBCMT:winxfltr.obj
 0001:0001fe8a       ___CppXcptFilter           10020e8a f   LIBCMT:winxfltr.obj
 0001:0001fea5       _wait_a_bit                10020ea5 f i LIBCMT:crtheap.obj
 0001:0001fec6       __set_malloc_crt_max_wait  10020ec6 f   LIBCMT:crtheap.obj
 0001:0001fed6       __malloc_crt               10020ed6 f   LIBCMT:crtheap.obj
 0001:0001ff16       __calloc_crt               10020f16 f   LIBCMT:crtheap.obj
 0001:0001ff5e       __realloc_crt              10020f5e f   LIBCMT:crtheap.obj
 0001:0001ffa9       __recalloc_crt             10020fa9 f   LIBCMT:crtheap.obj
 0001:0001fff9       @_malloc_crt_fastcall@4    10020ff9 f   LIBCMT:crtheap.obj
 0001:00020001       @_calloc_crt_fastcall@8    10021001 f   LIBCMT:crtheap.obj
 0001:0002000b       @_realloc_crt_fastcall@8   1002100b f   LIBCMT:crtheap.obj
 0001:00020015       __ioinit                   10021015 f   LIBCMT:ioinit.obj
 0001:00020255       __ioterm                   10021255 f   LIBCMT:ioinit.obj
 0001:000202a1       __setenvp                  100212a1 f   LIBCMT:stdenvp.obj
 0001:0002037c       __set_pgmptr               1002137c f i LIBCMT:stdargv.obj
 0001:0002051e       __setargv                  1002151e f   LIBCMT:stdargv.obj
 0001:000205d7       ___crtGetEnvironmentStringsA 100215d7 f   LIBCMT:a_env.obj
 0001:0002070c       __RTC_Initialize           1002170c f   LIBCMT:initsect.obj
 0001:00020730       __RTC_Terminate            10021730 f   LIBCMT:initsect.obj
 0001:00020754       ___security_init_cookie    10021754 f   LIBCMT:gs_support.obj
 0001:000207e8       _abort                     100217e8 f   LIBCMT:abort.obj
 0001:000208db       __set_abort_behavior       100218db f   LIBCMT:abort.obj
 0001:000208f9       __NMSG_WRITE               100218f9 f   LIBCMT:crt0msg.obj
 0001:00020a99       __GET_RTERRMSG             10021a99 f   LIBCMT:crt0msg.obj
 0001:00020ab9       __FF_MSGBANNER             10021ab9 f   LIBCMT:crt0msg.obj
 0001:00020af2       ___getlocaleinfo           10021af2 f   LIBCMT:inithelp.obj
 0001:00020c4c       __initp_misc_purevirt      10021c4c f   LIBCMT:inithelp.obj
 0001:00020e81       _strtol                    10021e81 f   LIBCMT:strtol.obj
 0001:00020eaa       __strtol_l                 10021eaa f   LIBCMT:strtol.obj
 0001:00020ec5       _strtoul                   10021ec5 f   LIBCMT:strtol.obj
 0001:00020eef       __strtoul_l                10021eef f   LIBCMT:strtol.obj
 0001:0002119e       __strtoi64                 1002219e f   LIBCMT:strtoq.obj
 0001:000211c7       __strtoi64_l               100221c7 f   LIBCMT:strtoq.obj
 0001:000211e2       __strtoui64                100221e2 f   LIBCMT:strtoq.obj
 0001:0002120c       __strtoui64_l              1002220c f   LIBCMT:strtoq.obj
 0001:000212ae       __VEC_memcpy               100222ae f   LIBCMT:p4_memcpy.obj
 0001:00021391       ___iob_func                10022391 f   LIBCMT:_file.obj
 0001:00021397       ___initstdio               10022397 f   LIBCMT:_file.obj
 0001:00021448       ___endstdio                10022448 f   LIBCMT:_file.obj
 0001:00021468       __lock_file                10022468 f   LIBCMT:_file.obj
 0001:000214a4       __lock_file2               100224a4 f   LIBCMT:_file.obj
 0001:000214d2       __unlock_file              100224d2 f   LIBCMT:_file.obj
 0001:00021508       __unlock_file2             10022508 f   LIBCMT:_file.obj
 0001:00021532       __filbuf                   10022532 f   LIBCMT:_filbuf.obj
 0001:00021652       __fileno                   10022652 f   LIBCMT:fileno.obj
 0001:0002167f       __getbuf                   1002267f f   LIBCMT:_getbuf.obj
 0001:000216c3       __write_nolock             100226c3 f   LIBCMT:write.obj
 0001:00021c89       __write                    10022c89 f   LIBCMT:write.obj
 0001:00021d65       __commit                   10022d65 f   LIBCMT:commit.obj
 0001:00021e46       __freebuf                  10022e46 f   LIBCMT:_freebuf.obj
 0001:00021e72       __ftelli64_nolock          10022e72 f   LIBCMT:ftelli64.obj
 0001:0002214e       __ftelli64                 1002314e f   LIBCMT:ftelli64.obj
 0001:00022198       __lseek_nolock             10023198 f   LIBCMT:lseek.obj
 0001:0002220a       __lseek                    1002320a f   LIBCMT:lseek.obj
 0001:000222e6       __ftell_nolock             100232e6 f   LIBCMT:ftell.obj
 0001:0002247e       _ftell                     1002347e f   LIBCMT:ftell.obj
 0001:000224ec       __fseeki64_nolock          100234ec f   LIBCMT:fseeki64.obj
 0001:00022585       __fseeki64                 10023585 f   LIBCMT:fseeki64.obj
 0001:000225d4       __close_nolock             100235d4 f   LIBCMT:close.obj
 0001:00022668       __close                    10023668 f   LIBCMT:close.obj
 0001:00022943       ___updatetmbcinfo          10023943 f   LIBCMT:mbctype.obj
 0001:00022a61       __setmbcp_nolock           10023a61 f   LIBCMT:mbctype.obj
 0001:00022c3a       __getmbcp                  10023c3a f   LIBCMT:mbctype.obj
 0001:00022c76       __setmbcp                  10023c76 f   LIBCMT:mbctype.obj
 0001:00022e10       ___initmbctable            10023e10 f   LIBCMT:mbctype.obj
 0001:00022e2e       __MarkAllocaS              10023e2e f i LIBCMT:a_map.obj
 0001:00022e40       __freea                    10023e40 f i LIBCMT:a_map.obj
 0001:00023217       ___crtLCMapStringA         10024217 f   LIBCMT:a_map.obj
 0001:0002325a       __isleadbyte_l             1002425a f i LIBCMT:_wctype.obj
 0001:00023290       _isleadbyte                10024290 f i LIBCMT:_wctype.obj
 0001:0002329e       __iswalpha_l               1002429e f i LIBCMT:_wctype.obj
 0001:000232b4       _iswalpha                  100242b4 f i LIBCMT:_wctype.obj
 0001:000232c5       __iswupper_l               100242c5 f i LIBCMT:_wctype.obj
 0001:000232d8       _iswupper                  100242d8 f i LIBCMT:_wctype.obj
 0001:000232e6       __iswlower_l               100242e6 f i LIBCMT:_wctype.obj
 0001:000232f9       _iswlower                  100242f9 f i LIBCMT:_wctype.obj
 0001:00023307       __iswdigit_l               10024307 f i LIBCMT:_wctype.obj
 0001:0002331a       _iswdigit                  1002431a f i LIBCMT:_wctype.obj
 0001:00023328       __iswxdigit_l              10024328 f i LIBCMT:_wctype.obj
 0001:0002333e       _iswxdigit                 1002433e f i LIBCMT:_wctype.obj
 0001:0002334f       __iswspace_l               1002434f f i LIBCMT:_wctype.obj
 0001:00023362       _iswspace                  10024362 f i LIBCMT:_wctype.obj
 0001:00023370       __iswpunct_l               10024370 f i LIBCMT:_wctype.obj
 0001:00023383       _iswpunct                  10024383 f i LIBCMT:_wctype.obj
 0001:00023391       __iswalnum_l               10024391 f i LIBCMT:_wctype.obj
 0001:000233a7       _iswalnum                  100243a7 f i LIBCMT:_wctype.obj
 0001:000233b8       __iswprint_l               100243b8 f i LIBCMT:_wctype.obj
 0001:000233ce       _iswprint                  100243ce f i LIBCMT:_wctype.obj
 0001:000233df       __iswgraph_l               100243df f i LIBCMT:_wctype.obj
 0001:000233f5       _iswgraph                  100243f5 f i LIBCMT:_wctype.obj
 0001:00023406       __iswcntrl_l               10024406 f i LIBCMT:_wctype.obj
 0001:00023419       _iswcntrl                  10024419 f i LIBCMT:_wctype.obj
 0001:00023427       _iswascii                  10024427 f i LIBCMT:_wctype.obj
 0001:00023433       __iswcsym_l                10024433 f i LIBCMT:_wctype.obj
 0001:00023459       ___iswcsym                 10024459 f i LIBCMT:_wctype.obj
 0001:0002347a       __iswcsymf_l               1002447a f i LIBCMT:_wctype.obj
 0001:000234a0       ___iswcsymf                100244a0 f i LIBCMT:_wctype.obj
 0001:000234c1       __isctype_l                100244c1 f   LIBCMT:isctype.obj
 0001:00023577       __isctype                  10024577 f   LIBCMT:isctype.obj
 0001:000235a6       __msize                    100245a6 f   LIBCMT:msize.obj
 0001:00023649       ??0Block@HeapManager@@QAE@XZ 10024649 f i LIBCMT:undname.obj
 0001:0002364f       ?Constructor@HeapManager@@QAEXP6APAXI@ZP6AXPAX@Z@Z 1002464f f i LIBCMT:undname.obj
 0001:0002366a       ?Destructor@HeapManager@@QAEXXZ 1002466a f i LIBCMT:undname.obj
 0001:00023690       ?getNumberOfDimensions@UnDecorator@@CAHXZ 10024690 f   LIBCMT:undname.obj
 0001:000236f3       ?getTypeEncoding@UnDecorator@@CAHXZ 100246f3 f i LIBCMT:undname.obj
 0001:00023b67       ?doUnderScore@UnDecorator@@SAHXZ 10024b67 f i LIBCMT:undname.obj
 0001:00023b72       ?doMSKeywords@UnDecorator@@SAHXZ 10024b72 f i LIBCMT:undname.obj
 0001:00023b7f       ?doPtr64@UnDecorator@@SAHXZ 10024b7f f i LIBCMT:undname.obj
 0001:00023b8d       ?doFunctionReturns@UnDecorator@@SAHXZ 10024b8d f i LIBCMT:undname.obj
 0001:00023b9b       ?doAllocationModel@UnDecorator@@SAHXZ 10024b9b f i LIBCMT:undname.obj
 0001:00023ba9       ?doAllocationLanguage@UnDecorator@@SAHXZ 10024ba9 f i LIBCMT:undname.obj
 0001:00023bb7       ?doThisTypes@UnDecorator@@SAHXZ 10024bb7 f i LIBCMT:undname.obj
 0001:00023bc9       ?doAccessSpecifiers@UnDecorator@@SAHXZ 10024bc9 f i LIBCMT:undname.obj
 0001:00023bd7       ?doThrowTypes@UnDecorator@@SAHXZ 10024bd7 f i LIBCMT:undname.obj
 0001:00023be5       ?doMemberTypes@UnDecorator@@SAHXZ 10024be5 f i LIBCMT:undname.obj
 0001:00023bf3       ?doNameOnly@UnDecorator@@SAHXZ 10024bf3 f i LIBCMT:undname.obj
 0001:00023bfe       ?doTypeOnly@UnDecorator@@SAHXZ 10024bfe f i LIBCMT:undname.obj
 0001:00023c09       ?haveTemplateParameters@UnDecorator@@SAHXZ 10024c09 f i LIBCMT:undname.obj
 0001:00023c14       ?doEcsu@UnDecorator@@SAHXZ 10024c14 f i LIBCMT:undname.obj
 0001:00023c22       ?doNoIdentCharCheck@UnDecorator@@SAHXZ 10024c22 f i LIBCMT:undname.obj
 0001:00023c2d       ?doEllipsis@UnDecorator@@SAHXZ 10024c2d f i LIBCMT:undname.obj
 0001:00023c3b       ?UScore@UnDecorator@@SAPBDW4Tokens@@@Z 10024c3b f   LIBCMT:undname.obj
 0001:00023c54       ?getMemory@HeapManager@@QAEPAXIH@Z 10024c54 f   LIBCMT:undname.obj
 0001:00023cd8       ??0DName@@QAE@XZ           10024cd8 f i LIBCMT:undname.obj
 0001:00023ce5       ??0DName@@QAE@PAVDNameNode@@@Z 10024ce5 f i LIBCMT:undname.obj
 0001:00023cf7       ??0DName@@QAE@ABV0@@Z      10024cf7 f i LIBCMT:undname.obj
 0001:00023d93       ?status@DName@@QBE?AW4DNameStatus@@XZ 10024d93 f i LIBCMT:undname.obj
 0001:00023d9d       ?clearStatus@DName@@QAEXXZ 10024d9d f i LIBCMT:undname.obj
 0001:00023da2       ?setPtrRef@DName@@QAEAAV1@XZ 10024da2 f i LIBCMT:undname.obj
 0001:00023da9       ?isPtrRef@DName@@QBEHXZ    10024da9 f i LIBCMT:undname.obj
 0001:00023db3       ?setIsArray@DName@@QAEXXZ  10024db3 f i LIBCMT:undname.obj
 0001:00023dbb       ?isArray@DName@@QBEHXZ     10024dbb f i LIBCMT:undname.obj
 0001:00023dc5       ?isNoTE@DName@@QBEHXZ      10024dc5 f i LIBCMT:undname.obj
 0001:00023dcf       ?setIsNoTE@DName@@QAEXXZ   10024dcf f i LIBCMT:undname.obj
 0001:00023dd7       ?isPinPtr@DName@@QBEHXZ    10024dd7 f i LIBCMT:undname.obj
 0001:00023de1       ?setIsPinPtr@DName@@QAEXXZ 10024de1 f i LIBCMT:undname.obj
 0001:00023de9       ?isComArray@DName@@QBEHXZ  10024de9 f i LIBCMT:undname.obj
 0001:00023df3       ?setIsComArray@DName@@QAEXXZ 10024df3 f i LIBCMT:undname.obj
 0001:00023dfb       ?isVCallThunk@DName@@QBEHXZ 10024dfb f i LIBCMT:undname.obj
 0001:00023e05       ?setIsVCallThunk@DName@@QAEXXZ 10024e05 f i LIBCMT:undname.obj
 0001:00023e0d       ??4DName@@QAEAAV0@ABV0@@Z  10024e0d f   LIBCMT:undname.obj
 0001:00023e88       ?isFull@Replicator@@QBEHXZ 10024e88 f i LIBCMT:undname.obj
 0001:00023e91       ??AReplicator@@QBEABVDName@@H@Z 10024e91 f   LIBCMT:undname.obj
 0001:00023eb6       ??0DNameNode@@IAE@XZ       10024eb6 f   LIBCMT:undname.obj
 0001:00023ec3       ?nextNode@DNameNode@@QBEPAV1@XZ 10024ec3 f i LIBCMT:undname.obj
 0001:00023ec7       ??YDNameNode@@QAEAAV0@PAV0@@Z 10024ec7 f   LIBCMT:undname.obj
 0001:00023ef0       ??0charNode@@QAE@D@Z       10024ef0 f   LIBCMT:undname.obj
 0001:00023f06       ?length@charNode@@UBEHXZ   10024f06 f i LIBCMT:undname.obj
 0001:00023f0a       ?getLastChar@charNode@@UBEDXZ 10024f0a f i LIBCMT:undname.obj
 0001:00023f0e       ?getString@charNode@@UBEPADPADH@Z 10024f0e f   LIBCMT:undname.obj
 0001:00023f29       ?length@pcharNode@@UBEHXZ  10024f29 f i LIBCMT:undname.obj
 0001:00023f2d       ??0pDNameNode@@QAE@PAVDName@@@Z 10024f2d f   LIBCMT:undname.obj
 0001:00023f5c       ??0DNameStatusNode@@QAE@W4DNameStatus@@@Z 10024f5c f   LIBCMT:undname.obj
 0001:00023f81       ?length@DNameStatusNode@@UBEHXZ 10024f81 f i LIBCMT:undname.obj
 0001:00023f85       ?getLastChar@DNameStatusNode@@UBEDXZ 10024f85 f i LIBCMT:undname.obj
 0001:00023fe5       ?getDataIndirectType@UnDecorator@@CA?AVDName@@XZ 10024fe5 f i LIBCMT:undname.obj
 0001:00024018       ?getThisType@UnDecorator@@CA?AVDName@@XZ 10025018 f i LIBCMT:undname.obj
 0001:0002404c       ??2@YAPAXIAAVHeapManager@@H@Z 1002504c f i LIBCMT:undname.obj
 0001:0002405f       ??0DName@@QAE@PAV0@@Z      1002505f f   LIBCMT:undname.obj
 0001:000240b5       ??0DName@@QAE@W4DNameStatus@@@Z 100250b5 f   LIBCMT:undname.obj
 0001:00024116       ?isValid@DName@@QBEHXZ     10025116 f   LIBCMT:undname.obj
 0001:0002412d       ?isEmpty@DName@@QBEHXZ     1002512d f   LIBCMT:undname.obj
 0001:00024142       ?isUDC@DName@@QBEHXZ       10025142 f i LIBCMT:undname.obj
 0001:00024156       ?setIsUDC@DName@@QAEXXZ    10025156 f i LIBCMT:undname.obj
 0001:00024164       ?isUDTThunk@DName@@QBEHXZ  10025164 f i LIBCMT:undname.obj
 0001:00024178       ?length@DName@@QBEHXZ      10025178 f   LIBCMT:undname.obj
 0001:0002419d       ?getLastChar@DName@@QBEDXZ 1002519d f   LIBCMT:undname.obj
 0001:000241d5       ?getString@DName@@QBEPADPADH@Z 100251d5 f   LIBCMT:undname.obj
 0001:00024266       ??_5DName@@QAEAAV0@ABV0@@Z 10025266 f   LIBCMT:undname.obj
 0001:0002429b       ??4DName@@QAEAAV0@W4DNameStatus@@@Z 1002529b f   LIBCMT:undname.obj
 0001:0002431c       ??0Replicator@@QAE@XZ      1002531c f i LIBCMT:undname.obj
 0001:0002433a       ??YReplicator@@QAEAAV0@ABVDName@@@Z 1002533a f   LIBCMT:undname.obj
 0001:00024381       ?clone@DNameNode@@QAEPAV1@XZ 10025381 f   LIBCMT:undname.obj
 0001:000243c8       ??0pcharNode@@QAE@PBDH@Z   100253c8 f   LIBCMT:undname.obj
 0001:0002442d       ?getLastChar@pcharNode@@UBEDXZ 1002542d f i LIBCMT:undname.obj
 0001:0002443f       ?getString@pcharNode@@UBEPADPADH@Z 1002543f f   LIBCMT:undname.obj
 0001:00024470       ?length@pDNameNode@@UBEHXZ 10025470 f i LIBCMT:undname.obj
 0001:0002447f       ?getLastChar@pDNameNode@@UBEDXZ 1002547f f i LIBCMT:undname.obj
 0001:0002448e       ?getString@pDNameNode@@UBEPADPADH@Z 1002548e f   LIBCMT:undname.obj
 0001:000244ab       ?getString@DNameStatusNode@@UBEPADPADH@Z 100254ab f   LIBCMT:undname.obj
 0001:000244de       ??0UnDecorator@@QAE@PADPBDHP6APADJ@ZK@Z 100254de f i LIBCMT:undname.obj
 0001:00024551       ?getReturnType@UnDecorator@@CA?AVDName@@PAV2@@Z 10025551 f   LIBCMT:undname.obj
 0001:00024580       ?getStorageConvention@UnDecorator@@CA?AVDName@@XZ 10025580 f i LIBCMT:undname.obj
 0001:0002458f       ??YDName@@QAEAAV0@W4DNameStatus@@@Z 1002558f f   LIBCMT:undname.obj
 0001:00024608       ??4DName@@QAEAAV0@PAV0@@Z  10025608 f   LIBCMT:undname.obj
 0001:00024670       ?doPchar@DName@@AAEXPBDH@Z 10025670 f   LIBCMT:undname.obj
 0001:00024716       ??0DName@@QAE@D@Z          10025716 f   LIBCMT:undname.obj
 0001:0002473c       ??0DName@@QAE@PBD@Z        1002573c f   LIBCMT:undname.obj
 0001:0002476d       ??0DName@@QAE@AAPBDD@Z     1002576d f   LIBCMT:undname.obj
 0001:0002483d       ??0DName@@QAE@_K@Z         1002583d f   LIBCMT:undname.obj
 0001:000248a6       ??0DName@@QAE@_J@Z         100258a6 f   LIBCMT:undname.obj
 0001:0002493c       ??HDName@@QBE?AV0@W4DNameStatus@@@Z 1002593c f   LIBCMT:undname.obj
 0001:0002496a       ??YDName@@QAEAAV0@ABV0@@Z  1002596a f   LIBCMT:undname.obj
 0001:000249cc       ??YDName@@QAEAAV0@PAV0@@Z  100259cc f   LIBCMT:undname.obj
 0001:00024a57       ??4DName@@QAEAAV0@D@Z      10025a57 f   LIBCMT:undname.obj
 0001:00024a73       ??4DName@@QAEAAV0@PBD@Z    10025a73 f   LIBCMT:undname.obj
 0001:00024a9d       ?getCallingConvention@UnDecorator@@CA?AVDName@@XZ 10025a9d f   LIBCMT:undname.obj
 0001:00024b43       ?getVCallThunkType@UnDecorator@@CA?AVDName@@XZ 10025b43 f i LIBCMT:undname.obj
 0001:00024b7a       ??HDName@@QBE?AV0@ABV0@@Z  10025b7a f   LIBCMT:undname.obj
 0001:00024bcb       ??HDName@@QBE?AV0@PAV0@@Z  10025bcb f   LIBCMT:undname.obj
 0001:00024bf9       ??YDName@@QAEAAV0@D@Z      10025bf9 f   LIBCMT:undname.obj
 0001:00024c63       ??YDName@@QAEAAV0@PBD@Z    10025c63 f   LIBCMT:undname.obj
 0001:00024ccf       ?getArgumentList@UnDecorator@@CA?AVDName@@XZ 10025ccf f   LIBCMT:undname.obj
 0001:00024daf       ?getVdispMapType@UnDecorator@@CA?AVDName@@ABV2@@Z 10025daf f i LIBCMT:undname.obj
 0001:00024dfe       ??H@YA?AVDName@@DABV0@@Z   10025dfe f i LIBCMT:undname.obj
 0001:00024e20       ??H@YA?AVDName@@W4DNameStatus@@ABV0@@Z 10025e20 f i LIBCMT:undname.obj
 0001:00024e42       ??H@YA?AVDName@@PBDABV0@@Z 10025e42 f i LIBCMT:undname.obj
 0001:00024e64       ??HDName@@QBE?AV0@D@Z      10025e64 f   LIBCMT:undname.obj
 0001:00024e92       ??HDName@@QBE?AV0@PBD@Z    10025e92 f   LIBCMT:undname.obj
 0001:00024ec0       ?getDimension@UnDecorator@@CA?AVDName@@_N@Z 10025ec0 f   LIBCMT:undname.obj
 0001:00025001       ?getEnumType@UnDecorator@@CA?AVDName@@XZ 10026001 f i LIBCMT:undname.obj
 0001:000250d5       ?getArgumentTypes@UnDecorator@@CA?AVDName@@XZ 100260d5 f   LIBCMT:undname.obj
 0001:00025199       ?getThrowTypes@UnDecorator@@CA?AVDName@@XZ 10026199 f   LIBCMT:undname.obj
 0001:00025217       ?getExtendedDataIndirectType@UnDecorator@@CA?AVDName@@AADAA_NH@Z 10026217 f   LIBCMT:undname.obj
 0001:0002533c       ?getArrayType@UnDecorator@@CA?AVDName@@ABV2@@Z 1002633c f i LIBCMT:undname.obj
 0001:0002549b       ?getLexicalFrame@UnDecorator@@CA?AVDName@@XZ 1002649b f i LIBCMT:undname.obj
 0001:000254cc       ?getDisplacement@UnDecorator@@CA?AVDName@@XZ 100264cc f i LIBCMT:undname.obj
 0001:000254de       ?getCallIndex@UnDecorator@@CA?AVDName@@XZ 100264de f i LIBCMT:undname.obj
 0001:000254f0       ?getGuardNumber@UnDecorator@@CA?AVDName@@XZ 100264f0 f i LIBCMT:undname.obj
 0001:00025502       ?getVfTableType@UnDecorator@@CA?AVDName@@ABV2@@Z 10026502 f i LIBCMT:undname.obj
 0001:00025652       ?getStringEncoding@UnDecorator@@CA?AVDName@@PADH@Z 10026652 f   LIBCMT:undname.obj
 0001:000256f2       ?getSignedDimension@UnDecorator@@CA?AVDName@@XZ 100266f2 f   LIBCMT:undname.obj
 0001:00025742       ?getTemplateConstant@UnDecorator@@CA?AVDName@@XZ 10026742 f   LIBCMT:undname.obj
 0001:000259fd       ?getPtrRefDataType@UnDecorator@@CA?AVDName@@ABV2@H@Z 100269fd f i LIBCMT:undname.obj
 0001:00025ad6       ?getVbTableType@UnDecorator@@CA?AVDName@@ABV2@@Z 10026ad6 f i LIBCMT:undname.obj
 0001:00025aea       ?getTemplateArgumentList@UnDecorator@@CA?AVDName@@XZ 10026aea f   LIBCMT:undname.obj
 0001:00025ca2       ?getOperatorName@UnDecorator@@CA?AVDName@@_NPA_N@Z 10026ca2 f i LIBCMT:undname.obj
 0001:00026211       ?getTemplateName@UnDecorator@@CA?AVDName@@_N@Z 10027211 f   LIBCMT:undname.obj
 0001:00026364       ?getZName@UnDecorator@@CA?AVDName@@_N@Z 10027364 f   LIBCMT:undname.obj
 0001:0002654e       ?getScopedName@UnDecorator@@CA?AVDName@@XZ 1002754e f   LIBCMT:undname.obj
 0001:00026632       ?getECSUName@UnDecorator@@CA?AVDName@@XZ 10027632 f i LIBCMT:undname.obj
 0001:00026641       ?getECSUDataType@UnDecorator@@CA?AVDName@@XZ 10027641 f   LIBCMT:undname.obj
 0001:00026741       ?getSymbolName@UnDecorator@@CA?AVDName@@XZ 10027741 f i LIBCMT:undname.obj
 0001:00026787       ?getBasedType@UnDecorator@@CA?AVDName@@XZ 10027787 f   LIBCMT:undname.obj
 0001:00026819       ?composeDeclaration@UnDecorator@@CA?AVDName@@ABV2@@Z 10027819 f i LIBCMT:undname.obj
 0001:0002735b       ?getDecoratedName@UnDecorator@@CA?AVDName@@XZ 1002835b f   LIBCMT:undname.obj
 0001:0002756c       ?getScope@UnDecorator@@CA?AVDName@@XZ 1002856c f   LIBCMT:undname.obj
 0001:000277f7       ?getFunctionIndirectType@UnDecorator@@CA?AVDName@@ABV2@@Z 100287f7 f   LIBCMT:undname.obj
 0001:00027b38       ?getDataIndirectType@UnDecorator@@CA?AVDName@@ABV2@D0H@Z 10028b38 f   LIBCMT:undname.obj
 0001:0002801c       ??BUnDecorator@@QAEPADXZ   1002901c f i LIBCMT:undname.obj
 0001:00028168       ?getPtrRefType@UnDecorator@@CA?AVDName@@ABV2@0D@Z 10029168 f   LIBCMT:undname.obj
 0001:0002827e       ?getPointerType@UnDecorator@@CA?AVDName@@ABV2@0@Z 1002927e f i LIBCMT:undname.obj
 0001:00028299       ?getPointerTypeArray@UnDecorator@@CA?AVDName@@ABV2@0@Z 10029299 f i LIBCMT:undname.obj
 0001:000282b4       ?getReferenceType@UnDecorator@@CA?AVDName@@ABV2@0@Z 100292b4 f i LIBCMT:undname.obj
 0001:000282cf       ___unDName                 100292cf f   LIBCMT:undname.obj
 0001:00028372       ___unDNameEx               10029372 f   LIBCMT:undname.obj
 0001:00028415       ?getBasicDataType@UnDecorator@@CA?AVDName@@ABV2@@Z 10029415 f   LIBCMT:undname.obj
 0001:0002879c       ?getPrimaryDataType@UnDecorator@@CA?AVDName@@ABV2@@Z 1002979c f   LIBCMT:undname.obj
 0001:000288da       ?getDataType@UnDecorator@@CA?AVDName@@PAV2@@Z 100298da f   LIBCMT:undname.obj
 0001:0002898b       ?getExternalDataType@UnDecorator@@CA?AVDName@@ABV2@@Z 1002998b f i LIBCMT:undname.obj
 0001:000289ef       __initp_misc_initcrit      100299ef f   LIBCMT:initcrit.obj
 0001:00028a09       ___crtInitCritSecAndSpinCount 10029a09 f   LIBCMT:initcrit.obj
 0001:00028ad0       __local_unwind4            10029ad0 f   LIBCMT:exsup4.obj
 0001:00028ba6       __seh_longjmp_unwind4@4    10029ba6 f   LIBCMT:exsup4.obj
 0001:00028bc2       @_EH4_CallFilterFunc@8     10029bc2 f   LIBCMT:exsup4.obj
 0001:00028bd9       @_EH4_TransferToHandler@8  10029bd9 f   LIBCMT:exsup4.obj
 0001:00028bf2       @_EH4_GlobalUnwind@4       10029bf2 f   LIBCMT:exsup4.obj
 0001:00028c0c       @_EH4_LocalUnwind@16       10029c0c f   LIBCMT:exsup4.obj
 0001:00028c23       __EH_prolog3               10029c23 f   LIBCMT:ehprolg3.obj
 0001:00028c56       __EH_prolog3_catch         10029c56 f   LIBCMT:ehprolg3.obj
 0001:00028c8c       __EH_prolog3_GS            10029c8c f   LIBCMT:ehprolg3.obj
 0001:00028cc2       __EH_prolog3_catch_GS      10029cc2 f   LIBCMT:ehprolg3.obj
 0001:00028cfb       __EH_epilog3               10029cfb f   LIBCMT:ehprolg3.obj
 0001:00028d0f       __EH_epilog3_GS            10029d0f f   LIBCMT:ehprolg3.obj
 0001:00028d1e       __EH_epilog3_catch_GS      10029d1e f   LIBCMT:ehprolg3.obj
 0001:00028d2d       ?_ValidateRead@@YAHPBXI@Z  10029d2d f   LIBCMT:validate.obj
 0001:00028d3a       ?_ValidateWrite@@YAHPAXI@Z 10029d3a f   LIBCMT:validate.obj
 0001:00028d47       ?_ValidateExecute@@YAHP6GHXZ@Z 10029d47 f   LIBCMT:validate.obj
 0001:00028d54       __global_unwind2           10029d54 f   LIBCMT:exsup.obj
 0001:00028db9       __local_unwind2            10029db9 f   LIBCMT:exsup.obj
 0001:00028e3d       __abnormal_termination     10029e3d f   LIBCMT:exsup.obj
 0001:00028e60       __NLG_Notify1              10029e60 f   LIBCMT:exsup.obj
 0001:00028e69       __NLG_Notify               10029e69 f   LIBCMT:exsup.obj
 0001:00028e80       __NLG_Dispatch             10029e80     LIBCMT:exsup.obj
 0001:00028e80       __NLG_Dispatch2            10029e80     LIBCMT:exsup.obj
 0001:00028e88       __NLG_Call                 10029e88 f   LIBCMT:exsup.obj
 0001:00028e8a       __NLG_Return2              10029e8a     LIBCMT:exsup.obj
 0001:00028edb       __get_sse2_info            10029edb f   LIBCMT:cpu_disp.obj
 0001:00028f3b       ___sse2_available_init     10029f3b f   LIBCMT:cpu_disp.obj
 0001:00028f48       ___pwctype_func            10029f48 f   LIBCMT:ctype.obj
 0001:00028f4e       ___pctype_func             10029f4e f   LIBCMT:ctype.obj
 0001:00029390       ___free_lc_time            1002a390 f   LIBCMT:inittime.obj
 0001:00029520       ___init_time               1002a520 f   LIBCMT:inittime.obj
 0001:000295c6       ___free_lconv_num          1002a5c6 f   LIBCMT:initnum.obj
 0001:00029606       ___init_numeric            1002a606 f   LIBCMT:initnum.obj
 0001:00029801       ___free_lconv_mon          1002a801 f   LIBCMT:initmon.obj
 0001:0002988a       ___init_monetary           1002a88a f   LIBCMT:initmon.obj
 0001:00029b4e       ___init_ctype              1002ab4e f   LIBCMT:initctyp.obj
 0001:00029ee3       ____mb_cur_max_func        1002aee3 f   LIBCMT:initctyp.obj
 0001:00029f0c       ____mb_cur_max_l_func      1002af0c f   LIBCMT:initctyp.obj
 0001:00029f22       ____lc_codepage_func       1002af22 f   LIBCMT:initctyp.obj
 0001:00029f48       ____lc_collate_cp_func     1002af48 f   LIBCMT:initctyp.obj
 0001:00029f6e       ____lc_handle_func         1002af6e f   LIBCMT:initctyp.obj
 0001:00029f94       ___init_collate            1002af94 f   LIBCMT:initcoll.obj
 0001:00029f97       __Getdays_l                1002af97 f   LIBCMT:strftime.obj
 0001:0002a095       __Getdays                  1002b095 f   LIBCMT:strftime.obj
 0001:0002a09e       __Getmonths_l              1002b09e f   LIBCMT:strftime.obj
 0001:0002a19c       __Getmonths                1002b19c f   LIBCMT:strftime.obj
 0001:0002a1a5       __Gettnames_l              1002b1a5 f   LIBCMT:strftime.obj
 0001:0002a4fa       __Gettnames                1002b4fa f   LIBCMT:strftime.obj
 0001:0002ae15       __Strftime_l               1002be15 f   LIBCMT:strftime.obj
 0001:0002afc4       __strftime_l               1002bfc4 f   LIBCMT:strftime.obj
 0001:0002afe2       _strftime                  1002bfe2 f   LIBCMT:strftime.obj
 0001:0002afff       __Strftime                 1002bfff f   LIBCMT:strftime.obj
 0001:0002b01d       _strcat_s                  1002c01d f   LIBCMT:strcat_s.obj
 0001:0002b08e       _strncpy_s                 1002c08e f   LIBCMT:strncpy_s.obj
 0001:0002b6fb       ___get_qualified_locale    1002c6fb f   LIBCMT:getqloc.obj
 0001:0002ce50       _memcmp                    1002de50 f   LIBCMT:memcmp.obj
 0001:0002e688       ___crtGetStringTypeA       1002f688 f   LIBCMT:a_str.obj
 0001:0002e6c8       _strncmp                   1002f6c8 f   LIBCMT:strncmp.obj
 0001:0002e790       _strpbrk                   1002f790 f   LIBCMT:strpbrk.obj
 0001:0002e7d0       __lseeki64_nolock          1002f7d0 f   LIBCMT:lseeki64.obj
 0001:0002e853       __lseeki64                 1002f853 f   LIBCMT:lseeki64.obj
 0001:0002e96c       __isatty                   1002f96c f   LIBCMT:isatty.obj
 0001:0002e9ca       _printf                    1002f9ca f   LIBCMT:printf.obj
 0001:0002ea79       __printf_l                 1002fa79 f   LIBCMT:printf.obj
 0001:0002ea8f       __printf_s_l               1002fa8f f   LIBCMT:printf.obj
 0001:0002eaa5       _printf_s                  1002faa5 f   LIBCMT:printf.obj
 0001:0002eab9       __printf_p_l               1002fab9 f   LIBCMT:printf.obj
 0001:0002eacf       __printf_p                 1002facf f   LIBCMT:printf.obj
 0001:0002eae3       __set_printf_count_output  1002fae3 f   LIBCMT:printf.obj
 0001:0002eb08       __get_printf_count_output  1002fb08 f   LIBCMT:printf.obj
 0001:0002eb1e       __wctomb_s_l               1002fb1e f   LIBCMT:wctomb.obj
 0001:0002ec7d       _wctomb_s                  1002fc7d f   LIBCMT:wctomb.obj
 0001:0002ec98       __wctomb_l                 1002fc98 f   LIBCMT:wctomb.obj
 0001:0002ece7       _wctomb                    1002fce7 f   LIBCMT:wctomb.obj
 0001:0002ed20       __aulldvrm                 1002fd20 f   LIBCMT:ulldvrm.obj
 0001:0002edb5       __validate_param_reuseA    1002fdb5 f   LIBCMT:outputp.obj
 0001:0002ef7f       _get_crtdouble_arg         1002ff7f f i LIBCMT:outputp.obj
 0001:0002ef8f       __output_p_l               1002ff8f f   LIBCMT:outputp.obj
 0001:0002ffb8       __output_s_l               10030fb8 f   LIBCMT:outputs.obj
 0001:00030970       _strrchr                   10031970 f   LIBCMT:strrchr.obj
 0001:0003099d       __tolower                  1003199d f   LIBCMT:tolower.obj
 0001:000309a5       __tolower_l                100319a5 f   LIBCMT:tolower.obj
 0001:00030abc       _tolower                   10031abc f   LIBCMT:tolower.obj
 0001:00030ae3       __atodbl_l                 10031ae3 f   LIBCMT:atodbl.obj
 0001:00030b89       __atodbl                   10031b89 f   LIBCMT:atodbl.obj
 0001:00030b9c       __atoldbl_l                10031b9c f   LIBCMT:atodbl.obj
 0001:00030c43       __atoldbl                  10031c43 f   LIBCMT:atodbl.obj
 0001:00030c56       __atoflt_l                 10031c56 f   LIBCMT:atodbl.obj
 0001:00030cfc       __atoflt                   10031cfc f   LIBCMT:atodbl.obj
 0001:00030d0f       __set_output_format        10031d0f f   LIBCMT:outputformat.obj
 0001:00030d46       __get_output_format        10031d46 f   LIBCMT:outputformat.obj
 0001:00030d4c       __fptostr                  10031d4c f   LIBCMT:_fptostr.obj
 0001:00030e09       ___dtold                   10031e09 f   LIBCMT:cfout.obj
 0001:00030ec4       __fltout2                  10031ec4 f   LIBCMT:cfout.obj
 0001:00030f60       __alldvrm                  10031f60 f   LIBCMT:lldvrm.obj
 0001:00031040       __aullshr                  10032040 f   LIBCMT:ullshr.obj
 0001:0003105f       __fptrap                   1003205f f   LIBCMT:crt0fp.obj
 0001:00031068       __controlfp_s              10032068 f   LIBCMT:contrlfp.obj
 0001:000310d2       __initp_misc_winsig        100320d2 f   LIBCMT:winsig.obj
 0001:000311ba       ___get_sigabrt             100321ba f   LIBCMT:winsig.obj
 0001:000311c7       ___fpecode                 100321c7 f   LIBCMT:winsig.obj
 0001:000311d0       ___pxcptinfoptrs           100321d0 f   LIBCMT:winsig.obj
 0001:000311d9       _signal                    100321d9 f   LIBCMT:winsig.obj
 0001:00031416       _raise                     10032416 f   LIBCMT:winsig.obj
 0001:000315c6       __initp_misc_rand_s        100325c6 f   LIBCMT:rand_s.obj
 0001:000315d0       _rand_s                    100325d0 f   LIBCMT:rand_s.obj
 0001:000316d4       __calloc_impl              100326d4 f   LIBCMT:calloc.obj
 0001:000317f2       _calloc                    100327f2 f   LIBCMT:calloc.obj
 0001:00031831       _realloc                   10032831 f   LIBCMT:realloc.obj
 0001:00031a4c       __recalloc                 10032a4c f   LIBCMT:realloc.obj
 0001:00031b16       __ismbbkalnum_l            10032b16 f   LIBCMT:ismbbyte.obj
 0001:00031b2b       __ismbbkalnum              10032b2b f   LIBCMT:ismbbyte.obj
 0001:00031b3e       __ismbbkprint_l            10032b3e f   LIBCMT:ismbbyte.obj
 0001:00031b53       __ismbbkprint              10032b53 f   LIBCMT:ismbbyte.obj
 0001:00031b66       __ismbbkpunct_l            10032b66 f   LIBCMT:ismbbyte.obj
 0001:00031b7b       __ismbbkpunct              10032b7b f   LIBCMT:ismbbyte.obj
 0001:00031b8e       __ismbbalnum_l             10032b8e f   LIBCMT:ismbbyte.obj
 0001:00031ba6       __ismbbalnum               10032ba6 f   LIBCMT:ismbbyte.obj
 0001:00031bbc       __ismbbalpha_l             10032bbc f   LIBCMT:ismbbyte.obj
 0001:00031bd4       __ismbbalpha               10032bd4 f   LIBCMT:ismbbyte.obj
 0001:00031bea       __ismbbgraph_l             10032bea f   LIBCMT:ismbbyte.obj
 0001:00031c02       __ismbbgraph               10032c02 f   LIBCMT:ismbbyte.obj
 0001:00031c18       __ismbbprint_l             10032c18 f   LIBCMT:ismbbyte.obj
 0001:00031c30       __ismbbprint               10032c30 f   LIBCMT:ismbbyte.obj
 0001:00031c46       __ismbbpunct_l             10032c46 f   LIBCMT:ismbbyte.obj
 0001:00031c5b       __ismbbpunct               10032c5b f   LIBCMT:ismbbyte.obj
 0001:00031c6e       __ismbblead_l              10032c6e f   LIBCMT:ismbbyte.obj
 0001:00031c83       __ismbblead                10032c83 f   LIBCMT:ismbbyte.obj
 0001:00031c96       __ismbbtrail_l             10032c96 f   LIBCMT:ismbbyte.obj
 0001:00031cab       __ismbbtrail               10032cab f   LIBCMT:ismbbyte.obj
 0001:00031cbe       __ismbbkana_l              10032cbe f   LIBCMT:ismbbyte.obj
 0001:00031d11       __ismbbkana                10032d11 f   LIBCMT:ismbbyte.obj
 0001:00031d1f       ___crtMessageBoxA          10032d1f f   LIBCMT:crtmbox.obj
 0001:00031edc       __set_error_mode           10032edc f   LIBCMT:errmode.obj
 0001:00031f22       ___set_app_type            10032f22 f   LIBCMT:errmode.obj
 0001:00031f2c       ___get_app_type            10032f2c f   LIBCMT:errmode.obj
 0001:0003206d       ___crtGetLocaleInfoW       1003306d f   LIBCMT:w_loc.obj
 0001:000321e5       ___crtGetLocaleInfoA       100331e5 f   LIBCMT:a_loc.obj
 0001:00032220       __allmul                   10033220 f   LIBCMT:llmul.obj
 0001:00032254       __fcloseall                10033254 f   LIBCMT:closeall.obj
 0001:000322f3       __read_nolock              100332f3 f   LIBCMT:read.obj
 0001:000328b4       __read                     100338b4 f   LIBCMT:read.obj
 0001:000329b1       __putwch_nolock            100339b1 f   LIBCMT:putwch.obj
 0001:00032a73       __cputws                   10033a73 f   LIBCMT:putwch.obj
 0001:00032b0e       __putwch                   10033b0e f   LIBCMT:putwch.obj
 0001:00032b54       __mbtowc_l                 10033b54 f   LIBCMT:mbtowc.obj
 0001:00032c67       _mbtowc                    10033c67 f   LIBCMT:mbtowc.obj
 0001:00032c7e       __set_osfhnd               10033c7e f   LIBCMT:osfinfo.obj
 0001:00032cfb       __free_osfhnd              10033cfb f   LIBCMT:osfinfo.obj
 0001:00032d7c       __get_osfhandle            10033d7c f   LIBCMT:osfinfo.obj
 0001:00032ded       ___lock_fhandle            10033ded f   LIBCMT:osfinfo.obj
 0001:00032e8d       __unlock_fhandle           10033e8d f   LIBCMT:osfinfo.obj
 0001:00032eaf       __alloc_osfhnd             10033eaf f   LIBCMT:osfinfo.obj
 0001:0003304e       __open_osfhandle           1003404e f   LIBCMT:osfinfo.obj
 0001:00033170       __alloca_probe             10034170     LIBCMT:chkstk.obj
 0001:00033170       __chkstk                   10034170 f   LIBCMT:chkstk.obj
 0001:0003319b       ___ansicp                  1003419b f   LIBCMT:convrtcp.obj
 0001:000331e2       ___convertcp               100341e2 f   LIBCMT:convrtcp.obj
 0001:000333a0       __alloca_probe_16          100343a0 f   LIBCMT:alloca16.obj
 0001:000333b6       __alloca_probe_8           100343b6     LIBCMT:alloca16.obj
 0001:000333cc       __iswctype_l               100343cc f   LIBCMT:iswctype.obj
 0001:0003344e       _iswctype                  1003444e f   LIBCMT:iswctype.obj
 0001:000334bc       _is_wctype                 100344bc f   LIBCMT:iswctype.obj
 0001:000334c1       __get_daylight             100344c1 f   LIBCMT:timeset.obj
 0001:000334f5       __get_dstbias              100344f5 f   LIBCMT:timeset.obj
 0001:00033529       __get_timezone             10034529 f   LIBCMT:timeset.obj
 0001:0003355d       __get_tzname               1003455d f   LIBCMT:timeset.obj
 0001:000335ff       ___daylight                100345ff f   LIBCMT:timeset.obj
 0001:00033605       ___dstbias                 10034605 f   LIBCMT:timeset.obj
 0001:0003360b       ___timezone                1003460b f   LIBCMT:timeset.obj
 0001:00033611       ___tzname                  10034611 f   LIBCMT:timeset.obj
 0001:00033617       __set_daylight             10034617 f i LIBCMT:tzset.obj
 0001:00033623       __set_dstbias              10034623 f i LIBCMT:tzset.obj
 0001:0003362f       __set_timezone             1003462f f i LIBCMT:tzset.obj
 0001:00033d27       ___tzset                   10034d27 f   LIBCMT:tzset.obj
 0001:00033d76       __tzset                    10034d76 f   LIBCMT:tzset.obj
 0001:00033dae       __isindst                  10034dae f   LIBCMT:tzset.obj
 0001:00033def       ___ascii_stricmp           10034def f   LIBCMT:stricmp.obj
 0001:00033e24       __stricmp_l                10034e24 f   LIBCMT:stricmp.obj
 0001:00033ef7       __stricmp                  10034ef7 f   LIBCMT:stricmp.obj
 0001:00033f47       __strnicmp_l               10034f47 f   LIBCMT:strnicmp.obj
 0001:00034037       __strnicmp                 10035037 f   LIBCMT:strnicmp.obj
 0001:0003416e       __itoa_s                   1003516e f   LIBCMT:xtoas.obj
 0001:00034196       __ltoa_s                   10035196 f   LIBCMT:xtoas.obj
 0001:000341bb       __ultoa_s                  100351bb f   LIBCMT:xtoas.obj
 0001:000342c9       __i64toa_s                 100352c9 f   LIBCMT:xtoas.obj
 0001:000342fc       __ui64toa_s                100352fc f   LIBCMT:xtoas.obj
 0001:00034319       __stbuf                    10035319 f   LIBCMT:_sftbuf.obj
 0001:000343af       __ftbuf                    100353af f   LIBCMT:_sftbuf.obj
 0001:000343de       _vprintf_helper            100353de f   LIBCMT:vprintf.obj
 0001:0003446e       __vprintf_l                1003546e f   LIBCMT:vprintf.obj
 0001:00034488       __vprintf_s_l              10035488 f   LIBCMT:vprintf.obj
 0001:000344a2       __vprintf_p_l              100354a2 f   LIBCMT:vprintf.obj
 0001:000344bc       _vprintf                   100354bc f   LIBCMT:vprintf.obj
 0001:000344d4       _vprintf_s                 100354d4 f   LIBCMT:vprintf.obj
 0001:000344ec       __vprintf_p                100354ec f   LIBCMT:vprintf.obj
 0001:00034504       ___addl                    10035504 f i LIBCMT:intrncvt.obj
 0001:00034525       __ZeroTail                 10035525 f i LIBCMT:intrncvt.obj
 0001:0003456a       __IncMan                   1003556a f i LIBCMT:intrncvt.obj
 0001:000345d4       __RoundMan                 100355d4 f i LIBCMT:intrncvt.obj
 0001:000346c2       __CopyMan                  100356c2 f i LIBCMT:intrncvt.obj
 0001:000346dd       __FillZeroMan              100356dd f i LIBCMT:intrncvt.obj
 0001:000346e9       __IsZeroMan                100356e9 f i LIBCMT:intrncvt.obj
 0001:00034702       __ShrMan                   10035702 f i LIBCMT:intrncvt.obj
 0001:0003479a       __ld12cvt                  1003579a f i LIBCMT:intrncvt.obj
 0001:00034cc3       __ld12tod                  10035cc3 f   LIBCMT:intrncvt.obj
 0001:00035205       __ld12tof                  10036205 f   LIBCMT:intrncvt.obj
 0001:00035747       __ld12told                 10036747 f   LIBCMT:intrncvt.obj
 0001:00035809       ___shl_12                  10036809 f i LIBCMT:strgtold.obj
 0001:00035837       ___shr_12                  10036837 f i LIBCMT:strgtold.obj
 0001:00035864       ___ld12mul                 10036864 f i LIBCMT:strgtold.obj
 0001:00035ad8       ___multtenpow12            10036ad8 f i LIBCMT:strgtold.obj
 0001:00035de1       ___strgtold12_l            10036de1 f   LIBCMT:strgtold.obj
 0001:000364a1       ___STRINGTOLD_L            100374a1 f   LIBCMT:strgtold.obj
 0001:000364fa       ___add_12                  100374fa f i LIBCMT:x10fout.obj
 0001:00036567       _$I10_OUTPUT               10037567 f   LIBCMT:x10fout.obj
 0001:00036e2d       __set_controlfp            10037e2d f   LIBCMT:ieee87.obj
 0001:00037183       __statusfp                 10038183 f   LIBCMT:ieee87.obj
 0001:00037213       __fpreset                  10038213 f   LIBCMT:ieee87.obj
 0001:00037443       __statusfp2                10038443 f   LIBCMT:ieee87.obj
 0001:0003749b       __clearfp                  1003849b f   LIBCMT:ieee87.obj
 0001:00037572       ___control87_2             10038572 f   LIBCMT:ieee87.obj
 0001:0003787c       __control87                1003887c f i LIBCMT:ieee87.obj
 0001:00037b7f       __controlfp                10038b7f f   LIBCMT:ieee87.obj
 0001:00037e88       ___initconin               10038e88 f   LIBCMT:initcon.obj
 0001:00037ea7       ___initconout              10038ea7 f   LIBCMT:initcon.obj
 0001:00037ec6       ___termcon                 10038ec6 f   LIBCMT:initcon.obj
 0001:00037ef3       _wcslen                    10038ef3 f   LIBCMT:wcslen.obj
 0001:0003812d       ___crtGetStringTypeW       1003912d f   LIBCMT:w_str.obj
 0001:0003816b       __getenv_helper_nolock     1003916b f   LIBCMT:getenv.obj
 0001:00038321       _getenv                    10039321 f   LIBCMT:getenv.obj
 0001:000383a4       _getenv_s                  100393a4 f   LIBCMT:getenv.obj
 0001:0003847c       __dupenv_s                 1003947c f   LIBCMT:getenv.obj
 0001:00038570       ___ascii_strnicmp          10039570 f   LIBCMT:_strnicm.obj
 0001:000385d1       ___mtold12                 100395d1 f   LIBCMT:mantold.obj
 0001:0003879d       __statfp                   1003979d f   LIBCMT:fpctrl.obj
 0001:000387a8       __clrfp                    100397a8 f   LIBCMT:fpctrl.obj
 0001:000387b4       __ctrlfp                   100397b4 f   LIBCMT:fpctrl.obj
 0001:000387db       __set_statfp               100397db f   LIBCMT:fpctrl.obj
 0001:00038831       ___get_fpsr_sse2           10039831 f   LIBCMT:fpctrl.obj
 0001:0003884d       ___set_fpsr_sse2           1003984d f   LIBCMT:fpctrl.obj
 0001:000388bf       ___fclrf_sse2              100398bf f   LIBCMT:fpctrl.obj
 0001:000388d7       ___statfp_sse2             100398d7 f   LIBCMT:fpctrl.obj
 0001:000388ea       ___clrfp_sse2              100398ea f   LIBCMT:fpctrl.obj
 0001:00038902       ___ctrlfp_sse2             10039902 f   LIBCMT:fpctrl.obj
 0001:00038936       ___set_statfp_sse2         10039936 f   LIBCMT:fpctrl.obj
 0001:0003894c       __mbsnbicoll_l             1003994c f   LIBCMT:mbsnbico.obj
 0001:00038a38       __mbsnbicoll               10039a38 f   LIBCMT:mbsnbico.obj
 0001:00038a4f       ___wtomb_environ           10039a4f f   LIBCMT:wtombenv.obj
 0001:00038ae4       _strnlen                   10039ae4 f   LIBCMT:strlen_s.obj
 0001:00038ea1       ___crtCompareStringA       10039ea1 f   LIBCMT:a_cmp.obj
 0001:00038ee1       __strnicoll_l              10039ee1 f   LIBCMT:strnicol.obj
 0001:00038fd9       __strnicoll                10039fd9 f   LIBCMT:strnicol.obj
 0001:000390aa       ___crtsetenv               1003a0aa f   LIBCMT:setenv.obj
 0001:000392f6       __strdup                   1003a2f6 f   LIBCMT:strdup.obj
 0001:00039346       __mbschr_l                 1003a346 f   LIBCMT:mbschr.obj
 0001:00039400       __mbschr                   1003a400 f   LIBCMT:mbschr.obj
 0001:00039430       _strchr                    1003a430 f   LIBCMT:strchr.obj
 0001:00039436       ___from_strstr_to_strchr   1003a436     LIBCMT:strchr.obj
 0001:000394ee       _WSAGetLastError@0         1003a4ee f   ws2_32:WS2_32.dll
 0001:000394f4       _closesocket@4             1003a4f4 f   ws2_32:WS2_32.dll
 0001:000394fa       _WSASocketA@24             1003a4fa f   ws2_32:WS2_32.dll
 0001:00039500       _shutdown@8                1003a500 f   ws2_32:WS2_32.dll
 0001:00039506       _setsockopt@20             1003a506 f   ws2_32:WS2_32.dll
 0001:0003950c       _WSARecv@28                1003a50c f   ws2_32:WS2_32.dll
 0001:00039512       _WSASend@28                1003a512 f   ws2_32:WS2_32.dll
 0001:00039518       _WSAAccept@20              1003a518 f   ws2_32:WS2_32.dll
 0001:0003951e       _gethostbyname@4           1003a51e f   ws2_32:WS2_32.dll
 0001:00039524       _gethostname@8             1003a524 f   ws2_32:WS2_32.dll
 0001:0003952a       _htons@4                   1003a52a f   ws2_32:WS2_32.dll
 0001:00039530       _inet_ntoa@4               1003a530 f   ws2_32:WS2_32.dll
 0001:00039536       _WSACleanup@0              1003a536 f   ws2_32:WS2_32.dll
 0001:0003953c       _WSAStartup@8              1003a53c f   ws2_32:WS2_32.dll
 0001:00039542       _htonl@4                   1003a542 f   ws2_32:WS2_32.dll
 0001:00039548       _inet_addr@4               1003a548 f   ws2_32:WS2_32.dll
 0001:0003954e       _listen@8                  1003a54e f   ws2_32:WS2_32.dll
 0001:00039554       _bind@12                   1003a554 f   ws2_32:WS2_32.dll
 0001:0003955a       _connect@12                1003a55a f   ws2_32:WS2_32.dll
 0001:00039560       __Tolower                  1003a560 f   libcpmt:_tolower.obj
 0001:0003966f       __Getctype                 1003a66f f   libcpmt:_tolower.obj
 0001:000396ca       __Wcrtomb                  1003a6ca f   libcpmt:xwctomb.obj
 0001:0003974b       __Getcvt                   1003a74b f   libcpmt:xwctomb.obj
 0001:0003975f       ___Wcrtomb_lk              1003a75f f   libcpmt:xwctomb.obj
 0001:00039764       ??0_Init_locks@std@@QAE@XZ 1003a764 f   libcpmt:xlock.obj
 0001:00039793       ??1_Init_locks@std@@QAE@XZ 1003a793 f   libcpmt:xlock.obj
 0001:000397bc       ?_Init_locks_ctor@_Init_locks@std@@CAXPAV12@@Z 1003a7bc f   libcpmt:xlock.obj
 0001:000397e5       ?_Init_locks_dtor@_Init_locks@std@@CAXPAV12@@Z 1003a7e5 f   libcpmt:xlock.obj
 0001:0003980e       ??0_Lockit@std@@QAE@XZ     1003a80e f   libcpmt:xlock.obj
 0001:00039823       ??0_Lockit@std@@QAE@H@Z    1003a823 f   libcpmt:xlock.obj
 0001:00039844       ??1_Lockit@std@@QAE@XZ     1003a844 f   libcpmt:xlock.obj
 0001:00039856       ?_Lockit_ctor@_Lockit@std@@CAXPAV12@@Z 1003a856 f   libcpmt:xlock.obj
 0001:00039862       ?_Lockit_ctor@_Lockit@std@@CAXPAV12@H@Z 1003a862 f   libcpmt:xlock.obj
 0001:0003987f       ?_Lockit_dtor@_Lockit@std@@CAXPAV12@@Z 1003a87f f   libcpmt:xlock.obj
 0001:00039895       ?_Lockit_ctor@_Lockit@std@@SAXH@Z 1003a895 f   libcpmt:xlock.obj
 0001:000398ac       ?_Lockit_dtor@_Lockit@std@@SAXH@Z 1003a8ac f   libcpmt:xlock.obj
 0001:000398c3       ??0locale@std@@QAE@W4_Uninitialized@1@@Z 1003a8c3 f i libcpmt:locale0.obj
 0001:000398c8       ??0locale@std@@AAE@PAV_Locimp@01@@Z 1003a8c8 f i libcpmt:locale0.obj
 0001:000398d3       ??0_Fac_node@std@@QAE@PAU01@PAVfacet@locale@1@@Z 1003a8d3 f i libcpmt:locale0.obj
 0001:000398e5       ??1_Fac_node@std@@QAE@XZ   1003a8e5 f i libcpmt:locale0.obj
 0001:000398fa       ??_G_Fac_node@std@@QAEPAXI@Z 1003a8fa f i libcpmt:locale0.obj
 0001:00039916       __Deletegloballocale       1003a916 f   libcpmt:locale0.obj
 0001:0003995c       ?_Getgloballocale@locale@std@@CAPAV_Locimp@12@XZ 1003a95c f   libcpmt:locale0.obj
 0001:00039962       ?_Setgloballocale@locale@std@@CAXPAX@Z 1003a962 f   libcpmt:locale0.obj
 0001:00039987       ?_Clocptr_func@_Locimp@locale@std@@CAAAPAV123@XZ 1003a987 f   libcpmt:locale0.obj
 0001:0003998d       ?_Id_cnt_func@id@locale@std@@CAAAHXZ 1003a98d f   libcpmt:locale0.obj
 0001:00039993       ?_Id_func@?$ctype@D@std@@SAAAVid@locale@2@XZ 1003a993 f   libcpmt:locale0.obj
 0001:00039999       ?_Id_func@?$ctype@_W@std@@SAAAVid@locale@2@XZ 1003a999 f   libcpmt:locale0.obj
 0001:0003999f       ?_Id_func@?$codecvt@_WDH@std@@SAAAVid@locale@2@XZ 1003a99f f   libcpmt:locale0.obj
 0001:000399a5       ?_Id_func@?$ctype@G@std@@SAAAVid@locale@2@XZ 1003a9a5 f   libcpmt:locale0.obj
 0001:000399ab       ?_Id_func@?$codecvt@GDH@std@@SAAAVid@locale@2@XZ 1003a9ab f   libcpmt:locale0.obj
 0001:000399b1       ?_Locimp_dtor@_Locimp@locale@std@@CAXPAV123@@Z 1003a9b1 f   libcpmt:locale0.obj
 0001:00039a11       __Fac_tidy                 1003aa11 f   libcpmt:locale0.obj
 0001:00039a54       ?facet_Register@facet@locale@std@@CAXPAV123@@Z 1003aa54 f   libcpmt:locale0.obj
 0001:00039a8d       ?_Locinfo_dtor@_Locinfo@std@@SAXPAV12@@Z 1003aa8d f   libcpmt:locale0.obj
 0001:00039ab0       ??0_Locimp@locale@std@@AAE@_N@Z 1003aab0 f i libcpmt:locale0.obj
 0001:00039af9       ??1_Locimp@locale@std@@MAE@XZ 1003aaf9 f i libcpmt:locale0.obj
 0001:00039b36       ??_G_Locimp@locale@std@@MAEPAXI@Z 1003ab36 f i libcpmt:locale0.obj
 0001:00039b36       ??_E_Locimp@locale@std@@MAEPAXI@Z 1003ab36 f i libcpmt:locale0.obj
 0001:00039b52       ?_Init@locale@std@@CAPAV_Locimp@12@XZ 1003ab52 f   libcpmt:locale0.obj
 0001:00039bec       ?_Locinfo_ctor@_Locinfo@std@@SAXPAV12@PBD@Z 1003abec f   libcpmt:locale0.obj
 0001:00039c36       ?classic@locale@std@@SAABV12@XZ 1003ac36 f   libcpmt:locale0.obj
 0001:00039c41       ?empty@locale@std@@SA?AV12@XZ 1003ac41 f   libcpmt:locale0.obj
 0001:00039c83       ?_Callfns@ios_base@std@@AAEXW4event@12@@Z 1003ac83 f i libcpmt:ios.obj
 0001:00039ca5       ?_Tidy@ios_base@std@@AAAXXZ 1003aca5 f i libcpmt:ios.obj
 0001:00039ceb       ?_Fpz_func@std@@YAAA_JXZ   1003aceb f   libcpmt:ios.obj
 0001:00039cf1       ?_BADOFF_func@std@@YAABJXZ 1003acf1 f   libcpmt:ios.obj
 0001:00039cf7       ?_Index_func@ios_base@std@@CAAAHXZ 1003acf7 f   libcpmt:ios.obj
 0001:00039cfd       ?_Sync_func@ios_base@std@@CAAA_NXZ 1003acfd f   libcpmt:ios.obj
 0001:00039d03       ?_Addstd@ios_base@std@@SAXPAV12@@Z 1003ad03 f   libcpmt:ios.obj
 0001:00039d53       ?_Ios_base_dtor@ios_base@std@@CAXPAV12@@Z 1003ad53 f   libcpmt:ios.obj
 0001:00039d91       ??0_Mutex@std@@QAE@XZ      1003ad91 f   libcpmt:xmutex.obj
 0001:00039da9       ??1_Mutex@std@@QAE@XZ      1003ada9 f   libcpmt:xmutex.obj
 0001:00039dbe       ?_Lock@_Mutex@std@@QAEXXZ  1003adbe f   libcpmt:xmutex.obj
 0001:00039dc7       ?_Unlock@_Mutex@std@@QAEXXZ 1003adc7 f   libcpmt:xmutex.obj
 0001:00039dd0       ?_Mutex_ctor@_Mutex@std@@CAXPAV12@@Z 1003add0 f   libcpmt:xmutex.obj
 0001:00039de6       ?_Mutex_dtor@_Mutex@std@@CAXPAV12@@Z 1003ade6 f   libcpmt:xmutex.obj
 0001:00039dfd       ?_Mutex_Lock@_Mutex@std@@CAXPAV12@@Z 1003adfd f   libcpmt:xmutex.obj
 0001:00039e0a       ?_Mutex_Unlock@_Mutex@std@@CAXPAV12@@Z 1003ae0a f   libcpmt:xmutex.obj
 0001:00039e17       ??0invalid_argument@std@@QAE@ABV?$basic_string@DU?$char_traits@D@std@@V?$allocator@D@2@@1@@Z 1003ae17 f i libcpmt:string.obj
 0001:00039e2f       ??1invalid_argument@std@@UAE@XZ 1003ae2f f i libcpmt:string.obj
 0001:00039e3a       ??_Einvalid_argument@std@@UAEPAXI@Z 1003ae3a f i libcpmt:string.obj
 0001:00039e3a       ??_Ginvalid_argument@std@@UAEPAXI@Z 1003ae3a f i libcpmt:string.obj
 0001:00039e5c       ?_Xlen@_String_base@std@@SAXXZ 1003ae5c f   libcpmt:string.obj
 0001:00039e9b       ?_Xran@_String_base@std@@SAXXZ 1003ae9b f   libcpmt:string.obj
 0001:00039eda       ?_Xinvarg@_String_base@std@@SAXXZ 1003aeda f   libcpmt:string.obj
 0001:00039f19       ??0invalid_argument@std@@QAE@ABV01@@Z 1003af19 f i libcpmt:string.obj
 0001:00039f31       __Toupper                  1003af31 f   libcpmt:_toupper.obj
 0001:0003a045       ?uncaught_exception@std@@YA_NXZ 1003b045 f   libcpmt:uncaught.obj
 0001:0003a08a       __GetLocaleForCP           1003b08a f   libcpmt:xmbtowc.obj
 0001:0003a16d       __Mbrtowc                  1003b16d f   libcpmt:xmbtowc.obj
 0001:0003a2de       __Once                     1003b2de f   libcpmt:xmtx.obj
 0001:0003a315       __Mtxinit                  1003b315 f   libcpmt:xmtx.obj
 0001:0003a320       __Mtxdst                   1003b320 f   libcpmt:xmtx.obj
 0001:0003a32b       __Mtxlock                  1003b32b f   libcpmt:xmtx.obj
 0001:0003a336       __Mtxunlock                1003b336 f   libcpmt:xmtx.obj
 0001:0003a341       ?_Atexit@@YAXP6AXXZ@Z      1003b341 f   libcpmt:iosptrs.obj
 0001:0003a361       ??1_Init_atexit@@QAE@XZ    1003b361 f i libcpmt:iosptrs.obj
 0001:0003a386       ?InterlockedExchangePointer@@YGPAXPAPAXPAX@Z 1003b386 f i atls:atltrace.obj
 0001:0003a38c       ?_AtlGetThreadACPFake@ATL@@YGIXZ 1003b38c f i atls:atltrace.obj
 0001:0003a3f1       ?_AtlGetThreadACPReal@ATL@@YGIXZ 1003b3f1 f i atls:atltrace.obj
 0001:0003a3f5       ?_AtlGetThreadACPThunk@ATL@@YGIXZ 1003b3f5 f i atls:atltrace.obj
 0001:0003a45a       _VerQueryValueA@16         1003b45a f   Version:VERSION.dll
 0001:0003a460       _GetFileVersionInfoA@16    1003b460 f   Version:VERSION.dll
 0001:0003a466       _GetFileVersionInfoSizeA@8 1003b466 f   Version:VERSION.dll
 0001:0003a46c       _GetSystemInfo@4           1003b46c f   kernel32:KERNEL32.dll
 0001:0003a472       _WaitForMultipleObjects@16 1003b472 f   kernel32:KERNEL32.dll
 0001:0003a478       _SetLastError@4            1003b478 f   kernel32:KERNEL32.dll
 0001:0003a47e       _FormatMessageA@28         1003b47e f   kernel32:KERNEL32.dll
 0001:0003a484       _GetCurrentDirectoryA@8    1003b484 f   kernel32:KERNEL32.dll
 0001:0003a48a       _GetModuleFileNameA@12     1003b48a f   kernel32:KERNEL32.dll
 0001:0003a490       _GetSystemTime@4           1003b490 f   kernel32:KERNEL32.dll
 0001:0003a496       _GetLocalTime@4            1003b496 f   kernel32:KERNEL32.dll
 0001:0003a49c       _GetComputerNameA@8        1003b49c f   kernel32:KERNEL32.dll
 0001:0003a4a2       _CloseHandle@4             1003b4a2 f   kernel32:KERNEL32.dll
 0001:0003a4a8       _CreateEventA@16           1003b4a8 f   kernel32:KERNEL32.dll
 0001:0003a4ae       _ResetEvent@4              1003b4ae f   kernel32:KERNEL32.dll
 0001:0003a4b4       _SetEvent@4                1003b4b4 f   kernel32:KERNEL32.dll
 0001:0003a4ba       _PulseEvent@4              1003b4ba f   kernel32:KERNEL32.dll
 0001:0003a4c0       _GetQueuedCompletionStatus@20 1003b4c0 f   kernel32:KERNEL32.dll
 0001:0003a4c6       _CreateIoCompletionPort@16 1003b4c6 f   kernel32:KERNEL32.dll
 0001:0003a4cc       _PostQueuedCompletionStatus@16 1003b4cc f   kernel32:KERNEL32.dll
 0001:0003a4d2       _HeapFree@12               1003b4d2 f   kernel32:KERNEL32.dll
 0001:0003a4d8       _GetSystemTimeAsFileTime@4 1003b4d8 f   kernel32:KERNEL32.dll
 0001:0003a4de       _RtlUnwind@16              1003b4de f   kernel32:KERNEL32.dll
 0001:0003a4e4       _TerminateProcess@8        1003b4e4 f   kernel32:KERNEL32.dll
 0001:0003a4ea       _GetCurrentProcess@0       1003b4ea f   kernel32:KERNEL32.dll
 0001:0003a4f0       _UnhandledExceptionFilter@4 1003b4f0 f   kernel32:KERNEL32.dll
 0001:0003a4f6       _SetUnhandledExceptionFilter@4 1003b4f6 f   kernel32:KERNEL32.dll
 0001:0003a4fc       _IsDebuggerPresent@0       1003b4fc f   kernel32:KERNEL32.dll
 0001:0003a502       _RaiseException@16         1003b502 f   kernel32:KERNEL32.dll
 0001:0003a508       _ExitThread@4              1003b508 f   kernel32:KERNEL32.dll
 0001:0003a50e       _GetCurrentThreadId@0      1003b50e f   kernel32:KERNEL32.dll
 0001:0003a514       _CreateThread@24           1003b514 f   kernel32:KERNEL32.dll
 0001:0003a51a       _GetCommandLineA@0         1003b51a f   kernel32:KERNEL32.dll
 0001:0003a520       _GetVersionExA@4           1003b520 f   kernel32:KERNEL32.dll
 0001:0003a526       _HeapAlloc@12              1003b526 f   kernel32:KERNEL32.dll
 0001:0003a52c       _GetProcessHeap@0          1003b52c f   kernel32:KERNEL32.dll
 0001:0003a532       _HeapDestroy@4             1003b532 f   kernel32:KERNEL32.dll
 0001:0003a538       _HeapCreate@12             1003b538 f   kernel32:KERNEL32.dll
 0001:0003a53e       _VirtualFree@12            1003b53e f   kernel32:KERNEL32.dll
 0001:0003a544       _FatalAppExitA@8           1003b544 f   kernel32:KERNEL32.dll
 0001:0003a54a       _VirtualAlloc@16           1003b54a f   kernel32:KERNEL32.dll
 0001:0003a550       _HeapReAlloc@16            1003b550 f   kernel32:KERNEL32.dll
 0001:0003a556       _GetModuleHandleA@4        1003b556 f   kernel32:KERNEL32.dll
 0001:0003a55c       _GetProcAddress@8          1003b55c f   kernel32:KERNEL32.dll
 0001:0003a562       _TlsGetValue@4             1003b562 f   kernel32:KERNEL32.dll
 0001:0003a568       _TlsAlloc@0                1003b568 f   kernel32:KERNEL32.dll
 0001:0003a56e       _TlsSetValue@8             1003b56e f   kernel32:KERNEL32.dll
 0001:0003a574       _TlsFree@4                 1003b574 f   kernel32:KERNEL32.dll
 0001:0003a57a       _GetCurrentThread@0        1003b57a f   kernel32:KERNEL32.dll
 0001:0003a580       _ExitProcess@4             1003b580 f   kernel32:KERNEL32.dll
 0001:0003a586       _SetHandleCount@4          1003b586 f   kernel32:KERNEL32.dll
 0001:0003a58c       _GetStdHandle@4            1003b58c f   kernel32:KERNEL32.dll
 0001:0003a592       _GetFileType@4             1003b592 f   kernel32:KERNEL32.dll
 0001:0003a598       _GetStartupInfoA@4         1003b598 f   kernel32:KERNEL32.dll
 0001:0003a59e       _FreeEnvironmentStringsA@4 1003b59e f   kernel32:KERNEL32.dll
 0001:0003a5a4       _GetEnvironmentStrings@0   1003b5a4 f   kernel32:KERNEL32.dll
 0001:0003a5aa       _FreeEnvironmentStringsW@4 1003b5aa f   kernel32:KERNEL32.dll
 0001:0003a5b0       _WideCharToMultiByte@32    1003b5b0 f   kernel32:KERNEL32.dll
 0001:0003a5b6       _GetEnvironmentStringsW@0  1003b5b6 f   kernel32:KERNEL32.dll
 0001:0003a5bc       _QueryPerformanceCounter@4 1003b5bc f   kernel32:KERNEL32.dll
 0001:0003a5c2       _GetTickCount@0            1003b5c2 f   kernel32:KERNEL32.dll
 0001:0003a5c8       _GetCurrentProcessId@0     1003b5c8 f   kernel32:KERNEL32.dll
 0001:0003a5ce       _WriteFile@20              1003b5ce f   kernel32:KERNEL32.dll
 0001:0003a5d4       _GetConsoleCP@0            1003b5d4 f   kernel32:KERNEL32.dll
 0001:0003a5da       _GetConsoleMode@8          1003b5da f   kernel32:KERNEL32.dll
 0001:0003a5e0       _FlushFileBuffers@4        1003b5e0 f   kernel32:KERNEL32.dll
 0001:0003a5e6       _ReadFile@20               1003b5e6 f   kernel32:KERNEL32.dll
 0001:0003a5ec       _SetFilePointer@16         1003b5ec f   kernel32:KERNEL32.dll
 0001:0003a5f2       _GetCPInfo@8               1003b5f2 f   kernel32:KERNEL32.dll
 0001:0003a5f8       _GetACP@0                  1003b5f8 f   kernel32:KERNEL32.dll
 0001:0003a5fe       _GetOEMCP@0                1003b5fe f   kernel32:KERNEL32.dll
 0001:0003a604       _IsValidCodePage@4         1003b604 f   kernel32:KERNEL32.dll
 0001:0003a60a       _LCMapStringA@24           1003b60a f   kernel32:KERNEL32.dll
 0001:0003a610       _MultiByteToWideChar@24    1003b610 f   kernel32:KERNEL32.dll
 0001:0003a616       _LCMapStringW@24           1003b616 f   kernel32:KERNEL32.dll
 0001:0003a61c       _HeapSize@12               1003b61c f   kernel32:KERNEL32.dll
 0001:0003a622       _GetTimeFormatA@24         1003b622 f   kernel32:KERNEL32.dll
 0001:0003a628       _GetDateFormatA@24         1003b628 f   kernel32:KERNEL32.dll
 0001:0003a62e       _GetUserDefaultLCID@0      1003b62e f   kernel32:KERNEL32.dll
 0001:0003a634       _GetLocaleInfoA@16         1003b634 f   kernel32:KERNEL32.dll
 0001:0003a63a       _EnumSystemLocalesA@8      1003b63a f   kernel32:KERNEL32.dll
 0001:0003a640       _IsValidLocale@8           1003b640 f   kernel32:KERNEL32.dll
 0001:0003a646       _GetStringTypeA@20         1003b646 f   kernel32:KERNEL32.dll
 0001:0003a64c       _GetStringTypeW@16         1003b64c f   kernel32:KERNEL32.dll
 0001:0003a652       _SetConsoleCtrlHandler@8   1003b652 f   kernel32:KERNEL32.dll
 0001:0003a658       _FreeLibrary@4             1003b658 f   kernel32:KERNEL32.dll
 0001:0003a65e       _LoadLibraryA@4            1003b65e f   kernel32:KERNEL32.dll
 0001:0003a664       _GetLocaleInfoW@16         1003b664 f   kernel32:KERNEL32.dll
 0001:0003a66a       _WriteConsoleA@20          1003b66a f   kernel32:KERNEL32.dll
 0001:0003a670       _GetConsoleOutputCP@0      1003b670 f   kernel32:KERNEL32.dll
 0001:0003a676       _WriteConsoleW@20          1003b676 f   kernel32:KERNEL32.dll
 0001:0003a67c       _SetStdHandle@8            1003b67c f   kernel32:KERNEL32.dll
 0001:0003a682       _GetTimeZoneInformation@4  1003b682 f   kernel32:KERNEL32.dll
 0001:0003a688       _CreateFileA@28            1003b688 f   kernel32:KERNEL32.dll
 0001:0003a68e       _CompareStringA@24         1003b68e f   kernel32:KERNEL32.dll
 0001:0003a694       _CompareStringW@24         1003b694 f   kernel32:KERNEL32.dll
 0001:0003a69a       _SetEnvironmentVariableA@8 1003b69a f   kernel32:KERNEL32.dll
 0001:0003a6a0       _InterlockedCompareExchange@12 1003b6a0 f   kernel32:KERNEL32.dll
 0001:0003a6a6       _GetThreadLocale@0         1003b6a6 f   kernel32:KERNEL32.dll
 0001:0003a6ac       _MessageBoxA@16            1003b6ac f   user32:USER32.dll
 0001:0003a6b2       _MessageBeep@4             1003b6b2 f   user32:USER32.dll
 0001:0003a6b8       _wsprintfA                 1003b6b8 f   user32:USER32.dll
 0001:0003a6be       _GetUserNameA@8            1003b6be f   advapi32:ADVAPI32.dll
 0002:00000000       __imp__GetUserNameA@8      1003f000     advapi32:ADVAPI32.dll
 0002:00000004       \177ADVAPI32_NULL_THUNK_DATA 1003f004     advapi32:ADVAPI32.dll
 0002:00000008       __imp__InitializeCriticalSection@4 1003f008     kernel32:KERNEL32.dll
 0002:0000000c       __imp__DeleteCriticalSection@4 1003f00c     kernel32:KERNEL32.dll
 0002:00000010       __imp__InterlockedExchange@8 1003f010     kernel32:KERNEL32.dll
 0002:00000014       __imp__InterlockedIncrement@4 1003f014     kernel32:KERNEL32.dll
 0002:00000018       __imp__LeaveCriticalSection@4 1003f018     kernel32:KERNEL32.dll
 0002:0000001c       __imp__TerminateThread@8   1003f01c     kernel32:KERNEL32.dll
 0002:00000020       __imp__WaitForSingleObject@8 1003f020     kernel32:KERNEL32.dll
 0002:00000024       __imp__Sleep@4             1003f024     kernel32:KERNEL32.dll
 0002:00000028       __imp__GetLastError@0      1003f028     kernel32:KERNEL32.dll
 0002:0000002c       __imp__InterlockedDecrement@4 1003f02c     kernel32:KERNEL32.dll
 0002:00000030       __imp__GetThreadLocale@0   1003f030     kernel32:KERNEL32.dll
 0002:00000034       __imp__InterlockedCompareExchange@12 1003f034     kernel32:KERNEL32.dll
 0002:00000038       __imp__SetEnvironmentVariableA@8 1003f038     kernel32:KERNEL32.dll
 0002:0000003c       __imp__CompareStringW@24   1003f03c     kernel32:KERNEL32.dll
 0002:00000040       __imp__CompareStringA@24   1003f040     kernel32:KERNEL32.dll
 0002:00000044       __imp__CreateFileA@28      1003f044     kernel32:KERNEL32.dll
 0002:00000048       __imp__GetTimeZoneInformation@4 1003f048     kernel32:KERNEL32.dll
 0002:0000004c       __imp__SetStdHandle@8      1003f04c     kernel32:KERNEL32.dll
 0002:00000050       __imp__WriteConsoleW@20    1003f050     kernel32:KERNEL32.dll
 0002:00000054       __imp__GetConsoleOutputCP@0 1003f054     kernel32:KERNEL32.dll
 0002:00000058       __imp__WriteConsoleA@20    1003f058     kernel32:KERNEL32.dll
 0002:0000005c       __imp__GetLocaleInfoW@16   1003f05c     kernel32:KERNEL32.dll
 0002:00000060       __imp__LoadLibraryA@4      1003f060     kernel32:KERNEL32.dll
 0002:00000064       __imp__FreeLibrary@4       1003f064     kernel32:KERNEL32.dll
 0002:00000068       __imp__SetConsoleCtrlHandler@8 1003f068     kernel32:KERNEL32.dll
 0002:0000006c       __imp__GetStringTypeW@16   1003f06c     kernel32:KERNEL32.dll
 0002:00000070       __imp__GetStringTypeA@20   1003f070     kernel32:KERNEL32.dll
 0002:00000074       __imp__IsValidLocale@8     1003f074     kernel32:KERNEL32.dll
 0002:00000078       __imp__EnumSystemLocalesA@8 1003f078     kernel32:KERNEL32.dll
 0002:0000007c       __imp__GetLocaleInfoA@16   1003f07c     kernel32:KERNEL32.dll
 0002:00000080       __imp__GetUserDefaultLCID@0 1003f080     kernel32:KERNEL32.dll
 0002:00000084       __imp__GetDateFormatA@24   1003f084     kernel32:KERNEL32.dll
 0002:00000088       __imp__GetTimeFormatA@24   1003f088     kernel32:KERNEL32.dll
 0002:0000008c       __imp__GetSystemInfo@4     1003f08c     kernel32:KERNEL32.dll
 0002:00000090       __imp__WaitForMultipleObjects@16 1003f090     kernel32:KERNEL32.dll
 0002:00000094       __imp__SetLastError@4      1003f094     kernel32:KERNEL32.dll
 0002:00000098       __imp__FormatMessageA@28   1003f098     kernel32:KERNEL32.dll
 0002:0000009c       __imp__GetCurrentDirectoryA@8 1003f09c     kernel32:KERNEL32.dll
 0002:000000a0       __imp__GetModuleFileNameA@12 1003f0a0     kernel32:KERNEL32.dll
 0002:000000a4       __imp__GetSystemTime@4     1003f0a4     kernel32:KERNEL32.dll
 0002:000000a8       __imp__GetLocalTime@4      1003f0a8     kernel32:KERNEL32.dll
 0002:000000ac       __imp__GetComputerNameA@8  1003f0ac     kernel32:KERNEL32.dll
 0002:000000b0       __imp__CloseHandle@4       1003f0b0     kernel32:KERNEL32.dll
 0002:000000b4       __imp__CreateEventA@16     1003f0b4     kernel32:KERNEL32.dll
 0002:000000b8       __imp__ResetEvent@4        1003f0b8     kernel32:KERNEL32.dll
 0002:000000bc       __imp__SetEvent@4          1003f0bc     kernel32:KERNEL32.dll
 0002:000000c0       __imp__PulseEvent@4        1003f0c0     kernel32:KERNEL32.dll
 0002:000000c4       __imp__GetQueuedCompletionStatus@20 1003f0c4     kernel32:KERNEL32.dll
 0002:000000c8       __imp__CreateIoCompletionPort@16 1003f0c8     kernel32:KERNEL32.dll
 0002:000000cc       __imp__PostQueuedCompletionStatus@16 1003f0cc     kernel32:KERNEL32.dll
 0002:000000d0       __imp__HeapFree@12         1003f0d0     kernel32:KERNEL32.dll
 0002:000000d4       __imp__GetSystemTimeAsFileTime@4 1003f0d4     kernel32:KERNEL32.dll
 0002:000000d8       __imp__RtlUnwind@16        1003f0d8     kernel32:KERNEL32.dll
 0002:000000dc       __imp__TerminateProcess@8  1003f0dc     kernel32:KERNEL32.dll
 0002:000000e0       __imp__GetCurrentProcess@0 1003f0e0     kernel32:KERNEL32.dll
 0002:000000e4       __imp__UnhandledExceptionFilter@4 1003f0e4     kernel32:KERNEL32.dll
 0002:000000e8       __imp__SetUnhandledExceptionFilter@4 1003f0e8     kernel32:KERNEL32.dll
 0002:000000ec       __imp__IsDebuggerPresent@0 1003f0ec     kernel32:KERNEL32.dll
 0002:000000f0       __imp__RaiseException@16   1003f0f0     kernel32:KERNEL32.dll
 0002:000000f4       __imp__ExitThread@4        1003f0f4     kernel32:KERNEL32.dll
 0002:000000f8       __imp__GetCurrentThreadId@0 1003f0f8     kernel32:KERNEL32.dll
 0002:000000fc       __imp__CreateThread@24     1003f0fc     kernel32:KERNEL32.dll
 0002:00000100       __imp__GetCommandLineA@0   1003f100     kernel32:KERNEL32.dll
 0002:00000104       __imp__GetVersionExA@4     1003f104     kernel32:KERNEL32.dll
 0002:00000108       __imp__HeapAlloc@12        1003f108     kernel32:KERNEL32.dll
 0002:0000010c       __imp__GetProcessHeap@0    1003f10c     kernel32:KERNEL32.dll
 0002:00000110       __imp__HeapDestroy@4       1003f110     kernel32:KERNEL32.dll
 0002:00000114       __imp__HeapCreate@12       1003f114     kernel32:KERNEL32.dll
 0002:00000118       __imp__VirtualFree@12      1003f118     kernel32:KERNEL32.dll
 0002:0000011c       __imp__FatalAppExitA@8     1003f11c     kernel32:KERNEL32.dll
 0002:00000120       __imp__VirtualAlloc@16     1003f120     kernel32:KERNEL32.dll
 0002:00000124       __imp__HeapReAlloc@16      1003f124     kernel32:KERNEL32.dll
 0002:00000128       __imp__GetModuleHandleA@4  1003f128     kernel32:KERNEL32.dll
 0002:0000012c       __imp__GetProcAddress@8    1003f12c     kernel32:KERNEL32.dll
 0002:00000130       __imp__TlsGetValue@4       1003f130     kernel32:KERNEL32.dll
 0002:00000134       __imp__TlsAlloc@0          1003f134     kernel32:KERNEL32.dll
 0002:00000138       __imp__TlsSetValue@8       1003f138     kernel32:KERNEL32.dll
 0002:0000013c       __imp__TlsFree@4           1003f13c     kernel32:KERNEL32.dll
 0002:00000140       __imp__GetCurrentThread@0  1003f140     kernel32:KERNEL32.dll
 0002:00000144       __imp__ExitProcess@4       1003f144     kernel32:KERNEL32.dll
 0002:00000148       __imp__SetHandleCount@4    1003f148     kernel32:KERNEL32.dll
 0002:0000014c       __imp__GetStdHandle@4      1003f14c     kernel32:KERNEL32.dll
 0002:00000150       __imp__GetFileType@4       1003f150     kernel32:KERNEL32.dll
 0002:00000154       __imp__GetStartupInfoA@4   1003f154     kernel32:KERNEL32.dll
 0002:00000158       __imp__FreeEnvironmentStringsA@4 1003f158     kernel32:KERNEL32.dll
 0002:0000015c       __imp__GetEnvironmentStrings@0 1003f15c     kernel32:KERNEL32.dll
 0002:00000160       __imp__FreeEnvironmentStringsW@4 1003f160     kernel32:KERNEL32.dll
 0002:00000164       __imp__WideCharToMultiByte@32 1003f164     kernel32:KERNEL32.dll
 0002:00000168       __imp__GetEnvironmentStringsW@0 1003f168     kernel32:KERNEL32.dll
 0002:0000016c       __imp__QueryPerformanceCounter@4 1003f16c     kernel32:KERNEL32.dll
 0002:00000170       __imp__GetTickCount@0      1003f170     kernel32:KERNEL32.dll
 0002:00000174       __imp__GetCurrentProcessId@0 1003f174     kernel32:KERNEL32.dll
 0002:00000178       __imp__WriteFile@20        1003f178     kernel32:KERNEL32.dll
 0002:0000017c       __imp__GetConsoleCP@0      1003f17c     kernel32:KERNEL32.dll
 0002:00000180       __imp__GetConsoleMode@8    1003f180     kernel32:KERNEL32.dll
 0002:00000184       __imp__FlushFileBuffers@4  1003f184     kernel32:KERNEL32.dll
 0002:00000188       __imp__ReadFile@20         1003f188     kernel32:KERNEL32.dll
 0002:0000018c       __imp__SetFilePointer@16   1003f18c     kernel32:KERNEL32.dll
 0002:00000190       __imp__GetCPInfo@8         1003f190     kernel32:KERNEL32.dll
 0002:00000194       __imp__GetACP@0            1003f194     kernel32:KERNEL32.dll
 0002:00000198       __imp__GetOEMCP@0          1003f198     kernel32:KERNEL32.dll
 0002:0000019c       __imp__IsValidCodePage@4   1003f19c     kernel32:KERNEL32.dll
 0002:000001a0       __imp__LCMapStringA@24     1003f1a0     kernel32:KERNEL32.dll
 0002:000001a4       __imp__MultiByteToWideChar@24 1003f1a4     kernel32:KERNEL32.dll
 0002:000001a8       __imp__LCMapStringW@24     1003f1a8     kernel32:KERNEL32.dll
 0002:000001ac       __imp__HeapSize@12         1003f1ac     kernel32:KERNEL32.dll
 0002:000001b0       __imp__EnterCriticalSection@4 1003f1b0     kernel32:KERNEL32.dll
 0002:000001b4       \177KERNEL32_NULL_THUNK_DATA 1003f1b4     kernel32:KERNEL32.dll
 0002:000001b8       __imp__MessageBeep@4       1003f1b8     user32:USER32.dll
 0002:000001bc       __imp__wsprintfA           1003f1bc     user32:USER32.dll
 0002:000001c0       __imp__MessageBoxA@16      1003f1c0     user32:USER32.dll
 0002:000001c4       \177USER32_NULL_THUNK_DATA 1003f1c4     user32:USER32.dll
 0002:000001c8       __imp__VerQueryValueA@16   1003f1c8     Version:VERSION.dll
 0002:000001cc       __imp__GetFileVersionInfoA@16 1003f1cc     Version:VERSION.dll
 0002:000001d0       __imp__GetFileVersionInfoSizeA@8 1003f1d0     Version:VERSION.dll
 0002:000001d4       \177VERSION_NULL_THUNK_DATA 1003f1d4     Version:VERSION.dll
 0002:000001d8       __imp__htonl@4             1003f1d8     ws2_32:WS2_32.dll
 0002:000001dc       __imp__WSAStartup@8        1003f1dc     ws2_32:WS2_32.dll
 0002:000001e0       __imp__WSACleanup@0        1003f1e0     ws2_32:WS2_32.dll
 0002:000001e4       __imp__inet_ntoa@4         1003f1e4     ws2_32:WS2_32.dll
 0002:000001e8       __imp__htons@4             1003f1e8     ws2_32:WS2_32.dll
 0002:000001ec       __imp__inet_addr@4         1003f1ec     ws2_32:WS2_32.dll
 0002:000001f0       __imp__gethostbyname@4     1003f1f0     ws2_32:WS2_32.dll
 0002:000001f4       __imp__WSAAccept@20        1003f1f4     ws2_32:WS2_32.dll
 0002:000001f8       __imp__WSASend@28          1003f1f8     ws2_32:WS2_32.dll
 0002:000001fc       __imp__WSARecv@28          1003f1fc     ws2_32:WS2_32.dll
 0002:00000200       __imp__setsockopt@20       1003f200     ws2_32:WS2_32.dll
 0002:00000204       __imp__shutdown@8          1003f204     ws2_32:WS2_32.dll
 0002:00000208       __imp__WSASocketA@24       1003f208     ws2_32:WS2_32.dll
 0002:0000020c       __imp__closesocket@4       1003f20c     ws2_32:WS2_32.dll
 0002:00000210       __imp__listen@8            1003f210     ws2_32:WS2_32.dll
 0002:00000214       __imp__bind@12             1003f214     ws2_32:WS2_32.dll
 0002:00000218       __imp__connect@12          1003f218     ws2_32:WS2_32.dll
 0002:0000021c       __imp__WSAGetLastError@0   1003f21c     ws2_32:WS2_32.dll
 0002:00000220       __imp__gethostname@8       1003f220     ws2_32:WS2_32.dll
 0002:00000224       \177WS2_32_NULL_THUNK_DATA 1003f224     ws2_32:WS2_32.dll
 0002:00000228       ___xc_a                    1003f228     LIBCMT:crt0init.obj
 0002:0000024c       ___xc_z                    1003f24c     LIBCMT:crt0init.obj
 0002:00000250       ___xi_a                    1003f250     LIBCMT:crt0init.obj
 0002:0000026c       ___xi_z                    1003f26c     LIBCMT:crt0init.obj
 0002:00000270       ___xp_a                    1003f270     LIBCMT:crt0init.obj
 0002:0000027c       ___xp_z                    1003f27c     LIBCMT:crt0init.obj
 0002:00000280       ___xt_a                    1003f280     LIBCMT:crt0init.obj
 0002:00000284       ___xt_z                    1003f284     LIBCMT:crt0init.obj
 0002:000002ac       _IID_IIOCPServer           1003f2ac     IServer.obj
 0002:000002bc       _IID_IServerFactory        1003f2bc     IServer.obj
 0002:000002cc       ??_C@_07KJLOKDKB@TypeLib?$AA@ 1003f2cc     ServerStage.obj
 0002:000002d4       ??_C@_08KEKAJNJI@Software?$AA@ 1003f2d4     ServerStage.obj
 0002:000002e0       ??_C@_06FDHFNJBJ@SYSTEM?$AA@ 1003f2e0     ServerStage.obj
 0002:000002e8       ??_C@_08LOPHEHKG@SECURITY?$AA@ 1003f2e8     ServerStage.obj
 0002:000002f4       ??_C@_03DDIMFGBA@SAM?$AA@  1003f2f4     ServerStage.obj
 0002:000002f8       ??_C@_04IHBFOLAC@Mime?$AA@ 1003f2f8     ServerStage.obj
 0002:00000300       ??_C@_08PPIOJEA@Hardware?$AA@ 1003f300     ServerStage.obj
 0002:0000030c       ??_C@_09JKPGEJCH@Interface?$AA@ 1003f30c     ServerStage.obj
 0002:00000318       ??_C@_08PICKODJL@FileType?$AA@ 1003f318     ServerStage.obj
 0002:00000324       ??_C@_0BF@HDDNNDFH@Component?5Categories?$AA@ 1003f324     ServerStage.obj
 0002:0000033c       ??_C@_05GIBEAPNE@CLSID?$AA@ 1003f33c     ServerStage.obj
 0002:00000344       ??_C@_05PDIKPLII@AppID?$AA@ 1003f344     ServerStage.obj
 0002:0000034c       ??_C@_06JBKGCNBB@Delete?$AA@ 1003f34c     ServerStage.obj
 0002:00000354       ??_C@_08KAAPDIAN@NoRemove?$AA@ 1003f354     ServerStage.obj
 0002:00000360       ??_C@_0M@DBGDLGLL@ForceRemove?$AA@ 1003f360     ServerStage.obj
 0002:0000036c       ??_C@_03LAIAPFCB@Val?$AA@  1003f36c     ServerStage.obj
 0002:00000370       ??_C@_01HMGJMAIH@B?$AA@    1003f370     ServerStage.obj
 0002:00000374       ??_C@_01CKDDGHAB@D?$AA@    1003f374     ServerStage.obj
 0002:00000378       ??_C@_01PLPBNMEI@M?$AA@    1003f378     ServerStage.obj
 0002:0000037c       ??_C@_01CPLAODJH@S?$AA@    1003f37c     ServerStage.obj
 0002:00000380       ??_C@_0P@GHFPNOJB@bad?5allocation?$AA@ 1003f380     ServerStage.obj
 0002:00000390       ?collate@?$_Locbase@H@std@@2HB 1003f390     ServerStage.obj
 0002:00000394       ?ctype@?$_Locbase@H@std@@2HB 1003f394     ServerStage.obj
 0002:00000398       ?monetary@?$_Locbase@H@std@@2HB 1003f398     ServerStage.obj
 0002:0000039c       ?numeric@?$_Locbase@H@std@@2HB 1003f39c     ServerStage.obj
 0002:000003a0       ?time@?$_Locbase@H@std@@2HB 1003f3a0     ServerStage.obj
 0002:000003a4       ?messages@?$_Locbase@H@std@@2HB 1003f3a4     ServerStage.obj
 0002:000003a8       ?all@?$_Locbase@H@std@@2HB 1003f3a8     ServerStage.obj
 0002:000003ac       ?none@?$_Locbase@H@std@@2HB 1003f3ac     ServerStage.obj
 0002:000003b0       ?table_size@?$ctype@D@std@@2IB 1003f3b0     ServerStage.obj
 0002:000003b4       ?skipws@?$_Iosb@H@std@@2W4_Fmtflags@12@B 1003f3b4     ServerStage.obj
 0002:000003b8       ?unitbuf@?$_Iosb@H@std@@2W4_Fmtflags@12@B 1003f3b8     ServerStage.obj
 0002:000003bc       ?uppercase@?$_Iosb@H@std@@2W4_Fmtflags@12@B 1003f3bc     ServerStage.obj
 0002:000003c0       ?showbase@?$_Iosb@H@std@@2W4_Fmtflags@12@B 1003f3c0     ServerStage.obj
 0002:000003c4       ?showpoint@?$_Iosb@H@std@@2W4_Fmtflags@12@B 1003f3c4     ServerStage.obj
 0002:000003c8       ?showpos@?$_Iosb@H@std@@2W4_Fmtflags@12@B 1003f3c8     ServerStage.obj
 0002:000003cc       ?left@?$_Iosb@H@std@@2W4_Fmtflags@12@B 1003f3cc     ServerStage.obj
 0002:000003d0       ?right@?$_Iosb@H@std@@2W4_Fmtflags@12@B 1003f3d0     ServerStage.obj
 0002:000003d4       ?internal@?$_Iosb@H@std@@2W4_Fmtflags@12@B 1003f3d4     ServerStage.obj
 0002:000003d8       ?dec@?$_Iosb@H@std@@2W4_Fmtflags@12@B 1003f3d8     ServerStage.obj
 0002:000003dc       ?oct@?$_Iosb@H@std@@2W4_Fmtflags@12@B 1003f3dc     ServerStage.obj
 0002:000003e0       ?hex@?$_Iosb@H@std@@2W4_Fmtflags@12@B 1003f3e0     ServerStage.obj
 0002:000003e4       ?scientific@?$_Iosb@H@std@@2W4_Fmtflags@12@B 1003f3e4     ServerStage.obj
 0002:000003e8       ?fixed@?$_Iosb@H@std@@2W4_Fmtflags@12@B 1003f3e8     ServerStage.obj
 0002:000003ec       ?boolalpha@?$_Iosb@H@std@@2W4_Fmtflags@12@B 1003f3ec     ServerStage.obj
 0002:000003f0       ?_Stdio@?$_Iosb@H@std@@2W4_Fmtflags@12@B 1003f3f0     ServerStage.obj
 0002:000003f4       ?adjustfield@?$_Iosb@H@std@@2W4_Fmtflags@12@B 1003f3f4     ServerStage.obj
 0002:000003f8       ?basefield@?$_Iosb@H@std@@2W4_Fmtflags@12@B 1003f3f8     ServerStage.obj
 0002:000003fc       ?floatfield@?$_Iosb@H@std@@2W4_Fmtflags@12@B 1003f3fc     ServerStage.obj
 0002:00000400       ?goodbit@?$_Iosb@H@std@@2W4_Iostate@12@B 1003f400     ServerStage.obj
 0002:00000404       ?eofbit@?$_Iosb@H@std@@2W4_Iostate@12@B 1003f404     ServerStage.obj
 0002:00000408       ?failbit@?$_Iosb@H@std@@2W4_Iostate@12@B 1003f408     ServerStage.obj
 0002:0000040c       ?badbit@?$_Iosb@H@std@@2W4_Iostate@12@B 1003f40c     ServerStage.obj
 0002:00000410       ?_Hardfail@?$_Iosb@H@std@@2W4_Iostate@12@B 1003f410     ServerStage.obj
 0002:00000414       ?in@?$_Iosb@H@std@@2W4_Openmode@12@B 1003f414     ServerStage.obj
 0002:00000418       ?out@?$_Iosb@H@std@@2W4_Openmode@12@B 1003f418     ServerStage.obj
 0002:0000041c       ?ate@?$_Iosb@H@std@@2W4_Openmode@12@B 1003f41c     ServerStage.obj
 0002:00000420       ?app@?$_Iosb@H@std@@2W4_Openmode@12@B 1003f420     ServerStage.obj
 0002:00000424       ?trunc@?$_Iosb@H@std@@2W4_Openmode@12@B 1003f424     ServerStage.obj
 0002:00000428       ?_Nocreate@?$_Iosb@H@std@@2W4_Openmode@12@B 1003f428     ServerStage.obj
 0002:0000042c       ?_Noreplace@?$_Iosb@H@std@@2W4_Openmode@12@B 1003f42c     ServerStage.obj
 0002:00000430       ?binary@?$_Iosb@H@std@@2W4_Openmode@12@B 1003f430     ServerStage.obj
 0002:00000434       ?beg@?$_Iosb@H@std@@2W4_Seekdir@12@B 1003f434     ServerStage.obj
 0002:00000438       ?cur@?$_Iosb@H@std@@2W4_Seekdir@12@B 1003f438     ServerStage.obj
 0002:0000043c       ?end@?$_Iosb@H@std@@2W4_Seekdir@12@B 1003f43c     ServerStage.obj
 0002:00000440       ?_Min@?$AtlLimits@H@ATL@@2HB 1003f440     ServerStage.obj
 0002:00000444       ?_Max@?$AtlLimits@H@ATL@@2HB 1003f444     ServerStage.obj
 0002:00000448       ?_Min@?$AtlLimits@I@ATL@@2IB 1003f448     ServerStage.obj
 0002:0000044c       ?_Max@?$AtlLimits@I@ATL@@2IB 1003f44c     ServerStage.obj
 0002:00000450       ?_Min@?$AtlLimits@J@ATL@@2JB 1003f450     ServerStage.obj
 0002:00000454       ?_Max@?$AtlLimits@J@ATL@@2JB 1003f454     ServerStage.obj
 0002:00000458       ?_Min@?$AtlLimits@K@ATL@@2KB 1003f458     ServerStage.obj
 0002:0000045c       ?_Max@?$AtlLimits@K@ATL@@2KB 1003f45c     ServerStage.obj
 0002:00000460       ?_Min@?$AtlLimits@_J@ATL@@2_JB 1003f460     ServerStage.obj
 0002:00000468       ?_Max@?$AtlLimits@_J@ATL@@2_JB 1003f468     ServerStage.obj
 0002:00000470       ?_Min@?$AtlLimits@_K@ATL@@2_KB 1003f470     ServerStage.obj
 0002:00000478       ?_Max@?$AtlLimits@_K@ATL@@2_KB 1003f478     ServerStage.obj
 0002:00000480       ?VT@?$CVarTypeInfo@D@ATL@@2GB 1003f480     ServerStage.obj
 0002:00000484       ?pmField@?$CVarTypeInfo@D@ATL@@2QQtagVARIANT@@DQ3@ 1003f484     ServerStage.obj
 0002:00000488       ?VT@?$CVarTypeInfo@E@ATL@@2GB 1003f488     ServerStage.obj
 0002:0000048c       ?pmField@?$CVarTypeInfo@E@ATL@@2QQtagVARIANT@@EQ3@ 1003f48c     ServerStage.obj
 0002:00000490       ?VT@?$CVarTypeInfo@PAD@ATL@@2GB 1003f490     ServerStage.obj
 0002:00000494       ?pmField@?$CVarTypeInfo@PAD@ATL@@2QQtagVARIANT@@PADQ3@ 1003f494     ServerStage.obj
 0002:00000498       ?VT@?$CVarTypeInfo@PAE@ATL@@2GB 1003f498     ServerStage.obj
 0002:0000049c       ?pmField@?$CVarTypeInfo@PAE@ATL@@2QQtagVARIANT@@PAEQ3@ 1003f49c     ServerStage.obj
 0002:000004a0       ?VT@?$CVarTypeInfo@F@ATL@@2GB 1003f4a0     ServerStage.obj
 0002:000004a4       ?pmField@?$CVarTypeInfo@F@ATL@@2QQtagVARIANT@@FQ3@ 1003f4a4     ServerStage.obj
 0002:000004a8       ?VT@?$CVarTypeInfo@PAF@ATL@@2GB 1003f4a8     ServerStage.obj
 0002:000004ac       ?pmField@?$CVarTypeInfo@PAF@ATL@@2QQtagVARIANT@@PAFQ3@ 1003f4ac     ServerStage.obj
 0002:000004b0       ?VT@?$CVarTypeInfo@G@ATL@@2GB 1003f4b0     ServerStage.obj
 0002:000004b4       ?pmField@?$CVarTypeInfo@G@ATL@@2QQtagVARIANT@@GQ3@ 1003f4b4     ServerStage.obj
 0002:000004b8       ?VT@?$CVarTypeInfo@PAG@ATL@@2GB 1003f4b8     ServerStage.obj
 0002:000004bc       ?pmField@?$CVarTypeInfo@PAG@ATL@@2QQtagVARIANT@@PAGQ3@ 1003f4bc     ServerStage.obj
 0002:000004c0       ?VT@?$CVarTypeInfo@H@ATL@@2GB 1003f4c0     ServerStage.obj
 0002:000004c4       ?pmField@?$CVarTypeInfo@H@ATL@@2QQtagVARIANT@@HQ3@ 1003f4c4     ServerStage.obj
 0002:000004c8       ?VT@?$CVarTypeInfo@PAH@ATL@@2GB 1003f4c8     ServerStage.obj
 0002:000004cc       ?pmField@?$CVarTypeInfo@PAH@ATL@@2QQtagVARIANT@@PAHQ3@ 1003f4cc     ServerStage.obj
 0002:000004d0       ?VT@?$CVarTypeInfo@I@ATL@@2GB 1003f4d0     ServerStage.obj
 0002:000004d4       ?pmField@?$CVarTypeInfo@I@ATL@@2QQtagVARIANT@@IQ3@ 1003f4d4     ServerStage.obj
 0002:000004d8       ?VT@?$CVarTypeInfo@PAI@ATL@@2GB 1003f4d8     ServerStage.obj
 0002:000004dc       ?pmField@?$CVarTypeInfo@PAI@ATL@@2QQtagVARIANT@@PAIQ3@ 1003f4dc     ServerStage.obj
 0002:000004e0       ?VT@?$CVarTypeInfo@J@ATL@@2GB 1003f4e0     ServerStage.obj
 0002:000004e4       ?pmField@?$CVarTypeInfo@J@ATL@@2QQtagVARIANT@@JQ3@ 1003f4e4     ServerStage.obj
 0002:000004e8       ?VT@?$CVarTypeInfo@PAJ@ATL@@2GB 1003f4e8     ServerStage.obj
 0002:000004ec       ?pmField@?$CVarTypeInfo@PAJ@ATL@@2QQtagVARIANT@@PAJQ3@ 1003f4ec     ServerStage.obj
 0002:000004f0       ?VT@?$CVarTypeInfo@K@ATL@@2GB 1003f4f0     ServerStage.obj
 0002:000004f4       ?pmField@?$CVarTypeInfo@K@ATL@@2QQtagVARIANT@@KQ3@ 1003f4f4     ServerStage.obj
 0002:000004f8       ?VT@?$CVarTypeInfo@PAK@ATL@@2GB 1003f4f8     ServerStage.obj
 0002:000004fc       ?pmField@?$CVarTypeInfo@PAK@ATL@@2QQtagVARIANT@@PAKQ3@ 1003f4fc     ServerStage.obj
 0002:00000500       ?VT@?$CVarTypeInfo@_J@ATL@@2GB 1003f500     ServerStage.obj
 0002:00000504       ?pmField@?$CVarTypeInfo@_J@ATL@@2QQtagVARIANT@@_JQ3@ 1003f504     ServerStage.obj
 0002:00000508       ?VT@?$CVarTypeInfo@PA_J@ATL@@2GB 1003f508     ServerStage.obj
 0002:0000050c       ?pmField@?$CVarTypeInfo@PA_J@ATL@@2QQtagVARIANT@@PA_JQ3@ 1003f50c     ServerStage.obj
 0002:00000510       ?VT@?$CVarTypeInfo@_K@ATL@@2GB 1003f510     ServerStage.obj
 0002:00000514       ?pmField@?$CVarTypeInfo@_K@ATL@@2QQtagVARIANT@@_KQ3@ 1003f514     ServerStage.obj
 0002:00000518       ?VT@?$CVarTypeInfo@PA_K@ATL@@2GB 1003f518     ServerStage.obj
 0002:0000051c       ?pmField@?$CVarTypeInfo@PA_K@ATL@@2QQtagVARIANT@@PA_KQ3@ 1003f51c     ServerStage.obj
 0002:00000520       ?VT@?$CVarTypeInfo@M@ATL@@2GB 1003f520     ServerStage.obj
 0002:00000524       ?pmField@?$CVarTypeInfo@M@ATL@@2QQtagVARIANT@@MQ3@ 1003f524     ServerStage.obj
 0002:00000528       ?VT@?$CVarTypeInfo@PAM@ATL@@2GB 1003f528     ServerStage.obj
 0002:0000052c       ?pmField@?$CVarTypeInfo@PAM@ATL@@2QQtagVARIANT@@PAMQ3@ 1003f52c     ServerStage.obj
 0002:00000530       ?VT@?$CVarTypeInfo@N@ATL@@2GB 1003f530     ServerStage.obj
 0002:00000534       ?pmField@?$CVarTypeInfo@N@ATL@@2QQtagVARIANT@@NQ3@ 1003f534     ServerStage.obj
 0002:00000538       ?VT@?$CVarTypeInfo@PAN@ATL@@2GB 1003f538     ServerStage.obj
 0002:0000053c       ?pmField@?$CVarTypeInfo@PAN@ATL@@2QQtagVARIANT@@PANQ3@ 1003f53c     ServerStage.obj
 0002:00000540       ?VT@?$CVarTypeInfo@UtagVARIANT@@@ATL@@2GB 1003f540     ServerStage.obj
 0002:00000544       ?VT@?$CVarTypeInfo@PA_W@ATL@@2GB 1003f544     ServerStage.obj
 0002:00000548       ?pmField@?$CVarTypeInfo@PA_W@ATL@@2QQtagVARIANT@@PA_WQ3@ 1003f548     ServerStage.obj
 0002:0000054c       ?VT@?$CVarTypeInfo@PAPA_W@ATL@@2GB 1003f54c     ServerStage.obj
 0002:00000550       ?pmField@?$CVarTypeInfo@PAPA_W@ATL@@2QQtagVARIANT@@PAPA_WQ3@ 1003f550     ServerStage.obj
 0002:00000554       ?VT@?$CVarTypeInfo@PAUIUnknown@@@ATL@@2GB 1003f554     ServerStage.obj
 0002:00000558       ?pmField@?$CVarTypeInfo@PAUIUnknown@@@ATL@@2QQtagVARIANT@@PAUIUnknown@@Q3@ 1003f558     ServerStage.obj
 0002:0000055c       ?VT@?$CVarTypeInfo@PAPAUIUnknown@@@ATL@@2GB 1003f55c     ServerStage.obj
 0002:00000560       ?pmField@?$CVarTypeInfo@PAPAUIUnknown@@@ATL@@2QQtagVARIANT@@PAPAUIUnknown@@Q3@ 1003f560     ServerStage.obj
 0002:00000564       ?VT@?$CVarTypeInfo@PAUIDispatch@@@ATL@@2GB 1003f564     ServerStage.obj
 0002:00000568       ?pmField@?$CVarTypeInfo@PAUIDispatch@@@ATL@@2QQtagVARIANT@@PAUIDispatch@@Q3@ 1003f568     ServerStage.obj
 0002:0000056c       ?VT@?$CVarTypeInfo@PAPAUIDispatch@@@ATL@@2GB 1003f56c     ServerStage.obj
 0002:00000570       ?pmField@?$CVarTypeInfo@PAPAUIDispatch@@@ATL@@2QQtagVARIANT@@PAPAUIDispatch@@Q3@ 1003f570     ServerStage.obj
 0002:00000574       ?VT@?$CVarTypeInfo@TtagCY@@@ATL@@2GB 1003f574     ServerStage.obj
 0002:00000578       ?pmField@?$CVarTypeInfo@TtagCY@@@ATL@@2QQtagVARIANT@@TtagCY@@Q3@ 1003f578     ServerStage.obj
 0002:0000057c       ?VT@?$CVarTypeInfo@PATtagCY@@@ATL@@2GB 1003f57c     ServerStage.obj
 0002:00000580       ?pmField@?$CVarTypeInfo@PATtagCY@@@ATL@@2QQtagVARIANT@@PATtagCY@@Q3@ 1003f580     ServerStage.obj
 0002:00000584       _LIBID_ATLLib              1003f584     ServerStage.obj
 0002:00000594       _CLSID_Registrar           1003f594     ServerStage.obj
 0002:000005a4       _IID_IRegistrar            1003f5a4     ServerStage.obj
 0002:000005b4       _IID_IAxWinHostWindow      1003f5b4     ServerStage.obj
 0002:000005c4       _IID_IAxWinAmbientDispatch 1003f5c4     ServerStage.obj
 0002:000005d4       _IID_IInternalConnection   1003f5d4     ServerStage.obj
 0002:000005e4       _IID_IDocHostUIHandlerDispatch 1003f5e4     ServerStage.obj
 0002:000005f4       _IID_IAxWinHostWindowLic   1003f5f4     ServerStage.obj
 0002:00000604       _IID_IAxWinAmbientDispatchEx 1003f604     ServerStage.obj
 0002:00000634       ?MAX_VALUE@CRegParser@ATL@@1HB 1003f634     ServerStage.obj
 0002:00000638       ?MAX_TYPE@CRegParser@ATL@@1HB 1003f638     ServerStage.obj
 0002:0000063c       ?rgszNeverDelete@CRegParser@ATL@@1QBQBDB 1003f63c     ServerStage.obj
 0002:0000066c       ?cbNeverDelete@CRegParser@ATL@@1HB 1003f66c     ServerStage.obj
 0002:00000670       ?_EEM_DS@?$deque@IV?$allocator@I@std@@@std@@2HB 1003f670     ServerStage.obj
 0002:00000674       ?_EEM_DS@?$deque@PAXV?$allocator@PAX@std@@@std@@2HB 1003f674     ServerStage.obj
 0002:0000067c       ??_7bad_alloc@std@@6B@     1003f67c     ServerStage.obj
 0002:00000688       ??_7facet@locale@std@@6B@  1003f688     ServerStage.obj
 0002:00000690       ??_7ctype_base@std@@6B@    1003f690     ServerStage.obj
 0002:00000698       ??_7ios_base@std@@6B@      1003f698     ServerStage.obj
 0002:000006a0       ??_7Thank_you@Define_the_symbol__ATL_MIXED@@6B@ 1003f6a0     ServerStage.obj
 0002:000006a8       ??_7CServerFactory@@6B@    1003f6a8     ServerStage.obj
 0002:000006c4       ??_7?$basic_ostream@DU?$char_traits@D@std@@@std@@6B@ 1003f6c4     ServerStage.obj
 0002:000006cc       ??_7?$basic_ios@DU?$char_traits@D@std@@@std@@6B@ 1003f6cc     ServerStage.obj
 0002:000006d4       ??_7?$basic_istream@DU?$char_traits@D@std@@@std@@6B@ 1003f6d4     ServerStage.obj
 0002:000006dc       ??_7?$basic_iostream@DU?$char_traits@D@std@@@std@@6B@ 1003f6dc     ServerStage.obj
 0002:000006e0       ??_8?$basic_ostream@DU?$char_traits@D@std@@@std@@7B@ 1003f6e0     ServerStage.obj
 0002:000006ec       ??_7?$basic_streambuf@DU?$char_traits@D@std@@@std@@6B@ 1003f6ec     ServerStage.obj
 0002:00000728       ??_7strstreambuf@std@@6B@  1003f728     ServerStage.obj
 0002:00000764       ??_7strstream@std@@6B@     1003f764     ServerStage.obj
 0002:0000076c       ??_7logic_error@std@@6B@   1003f76c     ServerStage.obj
 0002:00000778       ??_7runtime_error@std@@6B@ 1003f778     ServerStage.obj
 0002:00000784       ??_7length_error@std@@6B@  1003f784     ServerStage.obj
 0002:00000790       ??_7out_of_range@std@@6B@  1003f790     ServerStage.obj
 0002:0000079c       ??_7failure@ios_base@std@@6B@ 1003f79c     ServerStage.obj
 0002:000007a4       ??_C@_0BM@PAPJHAGI@invalid?5map?1set?$DMT?$DO?5iterator?$AA@ 1003f7a4     ServerStage.obj
 0002:000007c0       ??_C@_0BE@JONHPENG@map?1set?$DMT?$DO?5too?5long?$AA@ 1003f7c0     ServerStage.obj
 0002:000007d4       ??_C@_0BB@MOGOBHAF@list?$DMT?$DO?5too?5long?$AA@ 1003f7d4     ServerStage.obj
 0002:000007e8       ??_C@_0BC@KBDMBKEH@deque?$DMT?$DO?5too?5long?$AA@ 1003f7e8     ServerStage.obj
 0002:000007fc       ??_C@_0BA@ELKIONDK@bad?5locale?5name?$AA@ 1003f7fc     ServerStage.obj
 0002:00000810       ??_7?$ctype@D@std@@6B@     1003f810     ServerStage.obj
 0002:0000083c       ??_C@_01GFHCPBMG@C?$AA@    1003f83c     ServerStage.obj
 0002:00000840       ??_C@_0BF@OOHOMBOF@ios_base?3?3eofbit?5set?$AA@ 1003f840     ServerStage.obj
 0002:00000858       ??_C@_0BG@FMKFHCIL@ios_base?3?3failbit?5set?$AA@ 1003f858     ServerStage.obj
 0002:00000870       ??_C@_0BF@PHHKMMFD@ios_base?3?3badbit?5set?$AA@ 1003f870     ServerStage.obj
 0002:00000888       ??_C@_0CM@BJIOPHAA@CIOCPServer?3?3Startup?5?9?5Unexpecte@ 1003f888     ServerStage.obj
 0002:000008b4       ??_C@_03NLJIHOMM@?5?9?5?$AA@ 1003f8b4     ServerStage.obj
 0002:000008b8       ??_C@_0CB@FOINDEPH@CIOCPServer?3?3Startup?5Exception?3?5@ 1003f8b8     ServerStage.obj
 0002:000008dc       ??_C@_0CM@LAGLKHGI@CIOCPServer?3?3Cleanup?5?9?5Unexpecte@ 1003f8dc     ServerStage.obj
 0002:00000908       ??_C@_0CB@PJFPCIBA@CIOCPServer?3?3Cleanup?5Exception?3?5@ 1003f908     ServerStage.obj
 0002:0000092c       ??_C@_0DA@OLFMOPAM@CIOCPServer?3?3OpenService?5?9?5Unexp@ 1003f92c     ServerStage.obj
 0002:0000095c       ??_C@_0CF@IBJEIHAG@CIOCPServer?3?3OpenService?5Excepti@ 1003f95c     ServerStage.obj
 0002:00000984       ??_C@_0DB@MKECGLDM@CIOCPServer?3?3CloseService?5?9?5Unex@ 1003f984     ServerStage.obj
 0002:000009b8       ??_C@_0CG@NOJOJJDB@CIOCPServer?3?3CloseService?5Except@ 1003f9b8     ServerStage.obj
 0002:000009e0       ??_C@_0DA@OGLJDCOE@CIOCPServer?3?3_SendDataEx?5?9?5Unexp@ 1003f9e0     ServerStage.obj
 0002:00000a10       ??_C@_0CF@HIJKEOMG@CIOCPServer?3?3_SendDataEx?5Excepti@ 1003fa10     ServerStage.obj
 0002:00000a38       ??_C@_08EPJLHIJG@bad?5cast?$AA@ 1003fa38     ServerStage.obj
 0002:00000a48       ??_7?$num_put@DV?$ostreambuf_iterator@DU?$char_traits@D@std@@@std@@@std@@6B@ 1003fa48     ServerStage.obj
 0002:00000a6c       ??_C@_05LAPONLG@false?$AA@ 1003fa6c     ServerStage.obj
 0002:00000a74       ??_C@_04LOAJBDKD@true?$AA@ 1003fa74     ServerStage.obj
 0002:00000a80       ??_7?$numpunct@D@std@@6B@  1003fa80     ServerStage.obj
 0002:00000a9c       ??_7CIOCPServer@@6BAllocator@CIOBuffer@Win32@OnlineGameLib@@@ 1003fa9c     ServerStage.obj
 0002:00000ab4       ??_7CIOCPServer@@6BCThread@Win32@OnlineGameLib@@@ 1003fab4     ServerStage.obj
 0002:00000b14       ??_7CIOCPServer@@6B@       1003fb14     ServerStage.obj
 0002:00000b58       ??_C@_0DF@PCNJCILB@CIOCPServer?3?3PackDataToClient?5?9?5@ 1003fb58     ServerStage.obj
 0002:00000b90       ??_C@_0CK@OMOLLJDN@CIOCPServer?3?3PackDataToClient?5Ex@ 1003fb90     ServerStage.obj
 0002:00000bbc       ??_C@_0DF@LCNFLKJH@CIOCPServer?3?3SendPackToClient?5?9?5@ 1003fbbc     ServerStage.obj
 0002:00000bf4       ??_C@_0CK@EMODEKMG@CIOCPServer?3?3SendPackToClient?5Ex@ 1003fbf4     ServerStage.obj
 0002:00000c20       ??_8?$basic_istream@DU?$char_traits@D@std@@@std@@7B@ 1003fc20     ServerStage.obj
 0002:00000c28       ??_8?$basic_iostream@DU?$char_traits@D@std@@@std@@7B?$basic_ostream@DU?$char_traits@D@std@@@1@@ 1003fc28     ServerStage.obj
 0002:00000c30       ??_8?$basic_iostream@DU?$char_traits@D@std@@@std@@7B?$basic_istream@DU?$char_traits@D@std@@@1@@ 1003fc30     ServerStage.obj
 0002:00000c38       ??_C@_01KGKMHCOC@e?$AA@    1003fc38     ServerStage.obj
 0002:00000c3c       ??_C@_01DDCIFGEA@E?$AA@    1003fc3c     ServerStage.obj
 0002:00000c40       ??_8strstream@std@@7B?$basic_ostream@DU?$char_traits@D@std@@@1@@ 1003fc40     ServerStage.obj
 0002:00000c48       ??_8strstream@std@@7B?$basic_istream@DU?$char_traits@D@std@@@1@@ 1003fc48     ServerStage.obj
 0002:00000c50       ??_C@_0CF@BIMENOIK@ReadCompleted?5?9?5Unexpected?5excep@ 1003fc50     ServerStage.obj
 0002:00000c78       ??_C@_0BN@EBCMFPJB@ReadCompleted?5?9?5Exception?5?9?5?$AA@ 1003fc78     ServerStage.obj
 0002:00000c98       ??_C@_0BM@BOPLFMLK@Got?5message?5plus?5extra?5data?$AA@ 1003fc98     ServerStage.obj
 0002:00000cb4       ??_C@_0CP@GOBFEPNJ@Got?5a?5complete?5message?5and?5begin@ 1003fcb4     ServerStage.obj
 0002:00000ce4       ??_C@_0DC@BFGDCFMH@Too?5much?5data?$CB?5found?5error?5and?5c@ 1003fce4     ServerStage.obj
 0002:00000d18       ??_C@_02EAOCLKAK@ld?$AA@   1003fd18     ServerStage.obj
 0002:00000d1c       ??_C@_02BDDLJJBK@lu?$AA@   1003fd1c     ServerStage.obj
 0002:00000d20       ??_C@_02HIKPPMOK@Ld?$AA@   1003fd20     ServerStage.obj
 0002:00000d24       ??_C@_02CLHGNPPK@Lu?$AA@   1003fd24     ServerStage.obj
 0002:00000d28       __real@38aa95a5b7f87a0f    1003fd28     ServerStage.obj
 0002:00000d30       __real@4202a05f20000000    1003fd30     ServerStage.obj
 0002:00000d38       __real@4733426172c74d82    1003fd38     ServerStage.obj
 0002:00000d40       __real@0000000000000000    1003fd40     ServerStage.obj
 0002:00000d48       ??_C@_02BBAHNLBA@?$CFp?$AA@ 1003fd48     ServerStage.obj
 0002:00000d4b       ??_C@_00CNPNBAHC@?$AA@     1003fd4b     ServerStage.obj
 0002:00000d4c       ??_C@_0BG@PCLLJKNE@?$FN?5?9?5Current?5total?5is?5?$AA@ 1003fd4c     ServerStage.obj
 0002:00000d64       ??_C@_0BD@IOFDCMCJ@?5Add?5a?5client?5?$FLID?3?$AA@ 1003fd64     ServerStage.obj
 0002:00000d78       ??_C@_0BD@JOBMBJMC@?5Del?5a?5client?5?$FLID?3?$AA@ 1003fd78     ServerStage.obj
 0002:00000d8c       ??_C@_0CM@BHLANHDI@CIOCPServer?3?3CIOCPServer?$CI?$CJ?5?9?5_be@ 1003fd8c     ServerStage.obj
 0002:00000dbc       ??_7CException@Win32@OnlineGameLib@@6B@ 1003fdbc     ServerStage.obj
 0002:00000dcc       ??_7CWin32Exception@Win32@OnlineGameLib@@6B@ 1003fdcc     ServerStage.obj
 0002:00000dd8       _IID_IClassFactory         1003fdd8     uuid:unknwn_i.obj
 0002:00000de8       _IID_AsyncIUnknown         1003fde8     uuid:unknwn_i.obj
 0002:00000df8       _IID_IUnknown              1003fdf8     uuid:unknwn_i.obj
 0002:00000e2c       ??_7CSocketServer@Win32@OnlineGameLib@@6BAllocator@CIOBuffer@12@@ 1003fe2c     common:SocketServer.obj
 0002:00000e44       ??_7CSocketServer@Win32@OnlineGameLib@@6BCThread@12@@ 1003fe44     common:SocketServer.obj
 0002:00000ea4       ??_7WorkerThread@CSocketServer@Win32@OnlineGameLib@@6B@ 1003fea4     common:SocketServer.obj
 0002:00000eb0       ??_C@_0BD@OLBABOEK@vector?$DMT?$DO?5too?5long?$AA@ 1003feb0     common:SocketServer.obj
 0002:00000ec4       ??_C@_0DL@LECDPBLG@CSocketServer?3?3StopAcceptingConn@ 1003fec4     common:SocketServer.obj
 0002:00000f00       ??_C@_0CB@PMPAGMDN@CSocket?3?3CreateListeningSocket?$CI?$CJ@ 1003ff00     common:SocketServer.obj
 0002:00000f28       ??_C@_0FK@IIKPINMG@CSocketServer?3?3WorkerThread?3?3Wri@ 1003ff28     common:SocketServer.obj
 0002:00000f84       ??_C@_0CA@NGBNCGGI@CSocketServer?3?3Socket?3?3Attach?$CI?$CJ?$AA@ 1003ff84     common:SocketServer.obj
 0002:00000fa4       ??_C@_0BI@ILDNDIGD@Socket?5already?5attached?$AA@ 1003ffa4     common:SocketServer.obj
 0002:00000fbc       ??_C@_0CF@GMDCJBKL@CSocketServer?3?3Server?3?3Shutdown?$CI@ 1003ffbc     common:SocketServer.obj
 0002:00000fe4       ??_C@_0DI@GGEFPGHD@CSocketServer?3?3Socket?3?3InternalC@ 1003ffe4     common:SocketServer.obj
 0002:0000101c       ??_C@_0BO@EFEJCHKL@CSocketServer?3?3Socket?3?3Read?$CI?$CJ?$AA@ 1004001c     common:SocketServer.obj
 0002:0000103c       ??_C@_0BB@EPDLOHJO@Socket?5is?5closed?$AA@ 1004003c     common:SocketServer.obj
 0002:00001050       ??_C@_0BD@GHCMLGIK@Socket?5is?5shutdown?$AA@ 10040050     common:SocketServer.obj
 0002:00001064       ??_C@_0BP@LJBPPLA@CSocketServer?3?3Socket?3?3Write?$CI?$CJ?$AA@ 10040064     common:SocketServer.obj
 0002:00001084       ??_C@_0DK@NNAIEDFF@CSocketServer?3?3WorkerThread?3?3Run@ 10040084     common:SocketServer.obj
 0002:000010c0       ??_C@_0DB@KEEIMMHJ@CSocketServer?3?3WorkerThread?3?3Run@ 100400c0     common:SocketServer.obj
 0002:000010f4       ??_C@_0DL@JGELPKEM@CIOCompletionPort?3?3GetStatus?$CI?$CJ?5?9@ 100400f4     common:SocketServer.obj
 0002:00001130       ??_C@_0EE@FKNNDMCF@CSocketServer?3?3Socket?3?3AbortiveC@ 10040130     common:SocketServer.obj
 0002:00001174       ??_C@_0CA@ODJHPNED@CSocketServer?3?3Socket?3?3Socket?$CI?$CJ?$AA@ 10040174     common:SocketServer.obj
 0002:00001194       ??_C@_0P@OGBIOPLJ@Invalid?5socket?$AA@ 10040194     common:SocketServer.obj
 0002:000011a4       ??_C@_0BP@JDAKJPMG@CSocketServer?3?3ReleaseSocket?$CI?$CJ?$AA@ 100401a4     common:SocketServer.obj
 0002:000011c4       ??_C@_0BA@NIEIKKPH@pSocket?5is?5null?$AA@ 100401c4     common:SocketServer.obj
 0002:000011d4       ??_C@_0DB@IGNJDKKL@CSocketServer?3?3ReleaseSockets?$CI?$CJ?5@ 100401d4     common:SocketServer.obj
 0002:00001208       ??_C@_0CM@OEDAFPMI@CSocketServer?3?3Run?$CI?$CJ?5?9?5Unexpecte@ 10040208     common:SocketServer.obj
 0002:00001234       ??_C@_0CD@KHDLHPIA@CSocketServer?3?3Run?$CI?$CJ?5?9?5Exception@ 10040234     common:SocketServer.obj
 0002:00001258       ??_C@_0DA@HDCIOOHK@CSocketServer?3?3Run?$CI?$CJ?5?9?5WaitForMu@ 10040258     common:SocketServer.obj
 0002:00001288       ??_C@_0CC@GDPFLKJG@CSocketServer?3?3Run?$CI?$CJ?5?9?5WSAAccept@ 10040288     common:SocketServer.obj
 0002:000012ac       ??_C@_0DP@IGJHHAOP@CSocketServer?3?3WorkerThread?3?3Run@ 100402ac     common:SocketServer.obj
 0002:000012ec       ??_C@_0DK@NNGOALHN@CSocketServer?3?3WorkerThread?3?3Run@ 100402ec     common:SocketServer.obj
 0002:00001348       ??_C@_04BJPIHCBA@Info?$AA@ 10040348     common:Utils.obj
 0002:00001350       ??_C@_0M@CDHNGIPM@?$CFu?4?$CFu?4?$CFu?4?$CFu?$AA@ 10040350     common:Utils.obj
 0002:00001360       ??_7?$basic_filebuf@DU?$char_traits@D@std@@@std@@6B@ 10040360     common:Utils.obj
 0002:0000139c       ??_7codecvt_base@std@@6B@  1004039c     common:Utils.obj
 0002:000013ac       ??_C@_0BG@FEDMODFP@GetCurrentDirectory?$CI?$CJ?$AA@ 100403ac     common:Utils.obj
 0002:000013c4       ??_C@_0CA@EKPOOGMI@Failed?5to?5get?5current?5directory?$AA@ 100403c4     common:Utils.obj
 0002:000013e4       ??_C@_0N@NMLPILGG@?$CF02d?$CF02d?$CF02d?$AA@ 100403e4     common:Utils.obj
 0002:000013f4       ??_C@_0P@PLMNPDMB@?$CF02d?3?$CF02d?3?$CF02d?$AA@ 100403f4     common:Utils.obj
 0002:00001404       ??_C@_04JFFKLGJF@?$CF02X?$AA@ 10040404     common:Utils.obj
 0002:0000140c       ??_C@_01EEMJAFIK@?6?$AA@   1004040c     common:Utils.obj
 0002:00001410       ??_C@_03NDEAONJP@?5?5?5?$AA@ 10040410     common:Utils.obj
 0002:00001414       ??_C@_01CLKCMJKC@?5?$AA@   10040414     common:Utils.obj
 0002:00001418       ??_C@_0M@DIMCGEGC@UNAVAILABLE?$AA@ 10040418     common:Utils.obj
 0002:00001424       ??_C@_0CF@HNBACNBO@?2StringFileInfo?2?$CF04x?$CF04x?2FileVer@ 10040424     common:Utils.obj
 0002:0000144c       ??_C@_0BJ@KPNNKBCP@?2VarFileInfo?2Translation?$AA@ 1004044c     common:Utils.obj
 0002:0000146c       ??_7?$codecvt@DDH@std@@6B@ 1004046c     common:Utils.obj
 0002:00001490       ??_7?$basic_fstream@DU?$char_traits@D@std@@@std@@6B@ 10040490     common:Utils.obj
 0002:00001494       ??_8?$basic_fstream@DU?$char_traits@D@std@@@std@@7B?$basic_ostream@DU?$char_traits@D@std@@@1@@ 10040494     common:Utils.obj
 0002:0000149c       ??_8?$basic_fstream@DU?$char_traits@D@std@@@std@@7B?$basic_istream@DU?$char_traits@D@std@@@1@@ 1004049c     common:Utils.obj
 0002:000014a4       ??_C@_0M@JLHFKIMF@?2common?4log?$AA@ 100404a4     common:Utils.obj
 0002:000014b4       ??_7CThread@Win32@OnlineGameLib@@6B@ 100404b4     common:Thread.obj
 0002:000014bc       ??_C@_0BB@DDILGOEF@CThread?3?3Start?$CI?$CJ?$AA@ 100404bc     common:Thread.obj
 0002:000014d0       ??_C@_0DJ@HNAIABIO@Thread?5already?5running?5?9?5you?5can@ 100404d0     common:Thread.obj
 0002:0000150c       ??_C@_0CC@KJOLDJOE@CThread?3?3Start?$CI?$CJ?5?9?5_beginthreade@ 1004050c     common:Thread.obj
 0002:00001530       ??_C@_0CG@EIMLOMLK@CThread?3?3Wait?$CI?$CJ?5?9?5WaitForSingleO@ 10040530     common:Thread.obj
 0002:00001558       ??_C@_0BA@EDDHNLC@CThread?3?3Wait?$CI?$CJ?$AA@ 10040558     common:Thread.obj
 0002:00001568       ??_C@_0CE@FNEEFDAP@Unexpected?5timeout?5on?5infinite?5w@ 10040568     common:Thread.obj
 0002:000015b0       ??_7Allocator@CIOBuffer@Win32@OnlineGameLib@@6B@ 100405b0     common:IOBuffer.obj
 0002:000015c0       ??_C@_0BD@IOMCKPME@CIOBuffer?3?3AddData?$AA@ 100405c0     common:IOBuffer.obj
 0002:000015d4       ??_C@_0BL@LAEGIPOC@Not?5enough?5space?5in?5buffer?$AA@ 100405d4     common:IOBuffer.obj
 0002:000015f0       ??_C@_0CB@ICEPLOEJ@CIOBuffer?3?3Allocator?3?3Allocate?$CI?$CJ@ 100405f0     common:IOBuffer.obj
 0002:00001614       ??_C@_0O@NALGGDJF@Out?5of?5memory?$AA@ 10040614     common:IOBuffer.obj
 0002:00001624       ??_C@_0CA@BPKGLJAF@CIOBuffer?3?3Allocator?3?3Release?$CI?$CJ?$AA@ 10040624     common:IOBuffer.obj
 0002:00001644       ??_C@_0BA@BPMKMKBN@pBuffer?5is?5null?$AA@ 10040644     common:IOBuffer.obj
 0002:00001654       ??_C@_0BF@MHGIOGDA@CIOBuffer?3?3Release?$CI?$CJ?$AA@ 10040654     common:IOBuffer.obj
 0002:0000166c       ??_C@_0BG@LJGOFAJE@m_ref?5is?5already?5zero?$AA@ 1004066c     common:IOBuffer.obj
 0002:00001688       ??_7CEvent@Win32@OnlineGameLib@@6B@ 10040688     common:Event.obj
 0002:0000168c       ??_C@_0BB@EHIAEGNH@CEvent?3?3Create?$CI?$CJ?$AA@ 1004068c     common:Event.obj
 0002:000016a0       ??_C@_0CF@OJNFELIB@CEvent?3?3Wait?$CI?$CJ?5?9?5WaitForSingleOb@ 100406a0     common:Event.obj
 0002:000016c8       ??_C@_0BA@CDAFMLOD@CEvent?3?3Reset?$CI?$CJ?$AA@ 100406c8     common:Event.obj
 0002:000016d8       ??_C@_0O@GODIEGGL@CEvent?3?3Set?$CI?$CJ?$AA@ 100406d8     common:Event.obj
 0002:000016e8       ??_C@_0BA@PDHLLCMG@CEvent?3?3Pulse?$CI?$CJ?$AA@ 100406e8     common:Event.obj
 0002:000016f8       ??_C@_0P@OJPPPAGG@CEvent?3?3Wait?$CI?$CJ?$AA@ 100406f8     common:Event.obj
 0002:00001728       ??_C@_03MCPBMLDJ@?5?3?5?$AA@ 10040728     common:SocketAddress.obj
 0002:0000172c       ??_C@_0CK@DBOIOAFF@We?5only?5handle?5AF_INET?5address?5a@ 1004072c     common:SocketAddress.obj
 0002:00001778       ??_C@_0BN@EGJAKOPG@CUsesWinsock?3?3CUsesWinsock?$CI?$CJ?$AA@ 10040778     common:UsesWinsock.obj
 0002:00001798       ??_C@_0EA@IBOIFDLL@CIOCompletionPort?3?3CIOCompletion@ 10040798     common:IOCompletionPort.obj
 0002:000017d8       ??_C@_0DO@KDDMOKEK@CIOCompletionPort?3?3AssociateDevi@ 100407d8     common:IOCompletionPort.obj
 0002:00001818       ??_C@_0DN@KCBFDOCI@CIOCompletionPort?3?3PostStatus?$CI?$CJ?5@ 10040818     common:IOCompletionPort.obj
 0002:0000185c       ??_7CManualResetEvent@Win32@OnlineGameLib@@6B@ 1004085c     common:ManualResetEvent.obj
 0002:00001864       ??_7Exception@CSocket@Win32@OnlineGameLib@@6B@ 10040864     common:Socket.obj
 0002:00001870       ??_C@_0BD@OCKOLELA@CSocket?3?3CSocket?$CI?$CJ?$AA@ 10040870     common:Socket.obj
 0002:00001884       ??_C@_0BB@DOJNCMIM@CSocket?3?3Close?$CI?$CJ?$AA@ 10040884     common:Socket.obj
 0002:00001898       ??_C@_0BJ@IIBBBIL@CSocket?3?3AbortiveClose?$CI?$CJ?$AA@ 10040898     common:Socket.obj
 0002:000018b4       ??_C@_0BF@IIGHPAFN@?5CSocket?3?3Shutdown?$CI?$CJ?$AA@ 100408b4     common:Socket.obj
 0002:000018cc       ??_C@_0BC@DFOJKHKN@CSocket?3?3Listen?$CI?$CJ?$AA@ 100408cc     common:Socket.obj
 0002:000018e0       ??_C@_0BA@NGKEDMMI@CSocket?3?3Bind?$CI?$CJ?$AA@ 100408e0     common:Socket.obj
 0002:000018f0       ??_C@_0BD@DCJMHCPI@CSocket?3?3Connect?$CI?$CJ?$AA@ 100408f0     common:Socket.obj
 0002:00001908       ??_7exception@std@@6B@     10040908     LIBCMT:stdexcpt.obj
 0002:00001910       ??_C@_0BC@EOODALEL@Unknown?5exception?$AA@ 10040910     LIBCMT:stdexcpt.obj
 0002:00001928       ??_7bad_cast@std@@6B@      10040928     LIBCMT:stdexcpt.obj
 0002:00001934       ??_7bad_typeid@std@@6B@    10040934     LIBCMT:stdexcpt.obj
 0002:00001940       ??_7__non_rtti_object@std@@6B@ 10040940     LIBCMT:stdexcpt.obj
 0002:0000194c       ??_7type_info@@6B@         1004094c     LIBCMT:typinfo.obj
 0002:00001950       ?ProcessDetach@NativeDll@<CrtImplementationDetails>@@0IB 10040950     LIBCMT:trnsctrl.obj
 0002:00001954       ?ProcessAttach@NativeDll@<CrtImplementationDetails>@@0IB 10040954     LIBCMT:trnsctrl.obj
 0002:00001958       ?ThreadAttach@NativeDll@<CrtImplementationDetails>@@0IB 10040958     LIBCMT:trnsctrl.obj
 0002:0000195c       ?ThreadDetach@NativeDll@<CrtImplementationDetails>@@0IB 1004095c     LIBCMT:trnsctrl.obj
 0002:00001960       ?ProcessVerifier@NativeDll@<CrtImplementationDetails>@@0IB 10040960     LIBCMT:trnsctrl.obj
 0002:00001984       __FPinit                   10040984     LIBCMT:fpinit.obj
 0002:00001988       __FPmtinit                 10040988     LIBCMT:fpinit.obj
 0002:0000198c       __FPmtterm                 1004098c     LIBCMT:fpinit.obj
 0002:00001990       __pRawDllMain              10040990     LIBCMT:dllcrt0.obj
 0002:00001990       __pDefaultRawDllMain       10040990     LIBCMT:dllcrt0.obj
 0002:00001994       __pDestructExceptionObject 10040994     LIBCMT:frame.obj
 0002:0000199c       ??_7bad_exception@std@@6B@ 1004099c     LIBCMT:frame.obj
 0002:000019a4       ??_C@_0O@DPKOEFFH@bad?5exception?$AA@ 100409a4     LIBCMT:frame.obj
 0002:000019b4       ??_C@_07EPKMNAGK@?4mixcrt?$AA@ 100409b4     LIBCMT:tidtable.obj
 0002:000019bc       ??_C@_0O@NLDKAIKN@EncodePointer?$AA@ 100409bc     LIBCMT:tidtable.obj
 0002:000019cc       ??_C@_0N@NHGLKGEC@KERNEL32?4DLL?$AA@ 100409cc     LIBCMT:tidtable.obj
 0002:000019dc       ??_C@_0O@KBPMFGHI@DecodePointer?$AA@ 100409dc     LIBCMT:tidtable.obj
 0002:000019ec       ??_C@_07PEJMOBNF@FlsFree?$AA@ 100409ec     LIBCMT:tidtable.obj
 0002:000019f4       ??_C@_0M@JCPCPOEF@FlsSetValue?$AA@ 100409f4     LIBCMT:tidtable.obj
 0002:00001a00       ??_C@_0M@GDNOONDI@FlsGetValue?$AA@ 10040a00     LIBCMT:tidtable.obj
 0002:00001a0c       ??_C@_08KNHFBNJ@FlsAlloc?$AA@ 10040a0c     LIBCMT:tidtable.obj
 0002:00001a20       ??_C@_07LCBHPJJN@LC_TIME?$AA@ 10040a20     LIBCMT:setlocal.obj
 0002:00001a28       ??_C@_0L@DLHIECNL@LC_NUMERIC?$AA@ 10040a28     LIBCMT:setlocal.obj
 0002:00001a34       ??_C@_0M@MIENIKLA@LC_MONETARY?$AA@ 10040a34     LIBCMT:setlocal.obj
 0002:00001a40       ??_C@_08EADHIDAD@LC_CTYPE?$AA@ 10040a40     LIBCMT:setlocal.obj
 0002:00001a4c       ??_C@_0L@KFJHEKIK@LC_COLLATE?$AA@ 10040a4c     LIBCMT:setlocal.obj
 0002:00001a58       ??_C@_06NEFDFEKB@LC_ALL?$AA@ 10040a58     LIBCMT:setlocal.obj
 0002:00001a60       ___lc_category             10040a60     LIBCMT:setlocal.obj
 0002:00001b28       ??_C@_03EGDHDPFD@_?4?0?$AA@ 10040b28     LIBCMT:setlocal.obj
 0002:00001b2c       ??_C@_01LFCBOECM@?4?$AA@   10040b2c     LIBCMT:setlocal.obj
 0002:00001b30       ??_C@_01IDAFKMJL@_?$AA@    10040b30     LIBCMT:setlocal.obj
 0002:00001b34       ??_C@_01ICJEACDI@?$DL?$AA@ 10040b34     LIBCMT:setlocal.obj
 0002:00001b38       ??_C@_01NEMOKFLO@?$DN?$AA@ 10040b38     LIBCMT:setlocal.obj
 0002:00001b3c       ??_C@_02BALPLPBG@?$DN?$DL?$AA@ 10040b3c     LIBCMT:setlocal.obj
 0002:00001b40       ??_C@_1O@CEDCILHN@?$AA?$CI?$AAn?$AAu?$AAl?$AAl?$AA?$CJ?$AA?$AA@ 10040b40     LIBCMT:output.obj
 0002:00001b50       ??_C@_06OJHGLDPL@?$CInull?$CJ?$AA@ 10040b50     LIBCMT:output.obj
 0002:00001b58       ___lookuptable             10040b58     LIBCMT:output.obj
 0002:00001bb4       ??_C@_05KLBDPFGC@e?$CL000?$AA@ 10040bb4     LIBCMT:cvt.obj
 0002:00001bc0       __real@3ff0000000000000    10040bc0     LIBCMT:testfdiv.obj
 0002:00001bc8       __real@4150017ec0000000    10040bc8     LIBCMT:testfdiv.obj
 0002:00001bd0       __real@4147ffff80000000    10040bd0     LIBCMT:testfdiv.obj
 0002:00001bd8       ??_C@_0BK@NHEOCAHP@IsProcessorFeaturePresent?$AA@ 10040bd8     LIBCMT:testfdiv.obj
 0002:00001bf4       ??_C@_08CPNIBGIE@KERNEL32?$AA@ 10040bf4     LIBCMT:testfdiv.obj
 0002:00001c00       ??_C@_0P@MIGLKIOC@CorExitProcess?$AA@ 10040c00     LIBCMT:crt0dat.obj
 0002:00001c10       ??_C@_0M@MBOPBNBK@mscoree?4dll?$AA@ 10040c10     LIBCMT:crt0dat.obj
 0002:00001c1c       ??_C@_0P@GGKDKEEG@runtime?5error?5?$AA@ 10040c1c     LIBCMT:crt0msg.obj
 0002:00001c2c       ??_C@_02PCIJFNDE@?$AN?6?$AA@ 10040c2c     LIBCMT:crt0msg.obj
 0002:00001c30       ??_C@_0O@MJNIPGOH@TLOSS?5error?$AN?6?$AA@ 10040c30     LIBCMT:crt0msg.obj
 0002:00001c40       ??_C@_0N@BONNPDHF@SING?5error?$AN?6?$AA@ 10040c40     LIBCMT:crt0msg.obj
 0002:00001c50       ??_C@_0P@MBDAJNE@DOMAIN?5error?$AN?6?$AA@ 10040c50     LIBCMT:crt0msg.obj
 0002:00001c60       ??_C@_0JL@DFDOOABL@R6034?$AN?6An?5application?5has?5made?5a@ 10040c60     LIBCMT:crt0msg.obj
 0002:00001d00       ??_C@_0PH@EPAFIJ@R6033?$AN?6?9?5Attempt?5to?5use?5MSIL?5cod@ 10040d00     LIBCMT:crt0msg.obj
 0002:00001df8       ??_C@_0DD@BKEEABMM@R6032?$AN?6?9?5not?5enough?5space?5for?5lo@ 10040df8     LIBCMT:crt0msg.obj
 0002:00001e30       ??_C@_0GD@OFKILIED@R6031?$AN?6?9?5Attempt?5to?5initialize?5t@ 10040e30     LIBCMT:crt0msg.obj
 0002:00001e94       ??_C@_0BP@LPMHJOKI@R6030?$AN?6?9?5CRT?5not?5initialized?$AN?6?$AA@ 10040e94     LIBCMT:crt0msg.obj
 0002:00001eb4       ??_C@_0CF@KJDAIALP@R6028?$AN?6?9?5unable?5to?5initialize?5he@ 10040eb4     LIBCMT:crt0msg.obj
 0002:00001edc       ??_C@_0DF@GAKBPDFP@R6027?$AN?6?9?5not?5enough?5space?5for?5lo@ 10040edc     LIBCMT:crt0msg.obj
 0002:00001f14       ??_C@_0DF@IBLNNAIG@R6026?$AN?6?9?5not?5enough?5space?5for?5st@ 10040f14     LIBCMT:crt0msg.obj
 0002:00001f4c       ??_C@_0CG@IOHKGFNJ@R6025?$AN?6?9?5pure?5virtual?5function?5c@ 10040f4c     LIBCMT:crt0msg.obj
 0002:00001f74       ??_C@_0DF@JIJJFJDC@R6024?$AN?6?9?5not?5enough?5space?5for?5_o@ 10040f74     LIBCMT:crt0msg.obj
 0002:00001fac       ??_C@_0CJ@EGEJHFME@R6019?$AN?6?9?5unable?5to?5open?5console?5@ 10040fac     LIBCMT:crt0msg.obj
 0002:00001fd8       ??_C@_0CB@GNHNIELH@R6018?$AN?6?9?5unexpected?5heap?5error?$AN?6@ 10040fd8     LIBCMT:crt0msg.obj
 0002:00001ffc       ??_C@_0CN@FOLDKNG@R6017?$AN?6?9?5unexpected?5multithread?5@ 10040ffc     LIBCMT:crt0msg.obj
 0002:0000202c       ??_C@_0CM@FAHFJNHO@R6016?$AN?6?9?5not?5enough?5space?5for?5th@ 1004102c     LIBCMT:crt0msg.obj
 0002:00002058       ??_C@_0JG@LBKMGKLD@?$AN?6This?5application?5has?5requested@ 10041058     LIBCMT:crt0msg.obj
 0002:000020f0       ??_C@_0CM@FLCNIPKK@R6009?$AN?6?9?5not?5enough?5space?5for?5en@ 100410f0     LIBCMT:crt0msg.obj
 0002:0000211c       ??_C@_0CK@KMMJOAPP@R6008?$AN?6?9?5not?5enough?5space?5for?5ar@ 1004111c     LIBCMT:crt0msg.obj
 0002:00002148       ??_C@_0CN@LEKKICBM@R6002?$AN?6?9?5floating?5point?5support?5@ 10041148     LIBCMT:crt0msg.obj
 0002:00002178       ??_C@_0CF@GOGNBNAK@Microsoft?5Visual?5C?$CL?$CL?5Runtime?5Lib@ 10041178     LIBCMT:crt0msg.obj
 0002:000021a0       ??_C@_02PHMGELLB@?6?6?$AA@ 100411a0     LIBCMT:crt0msg.obj
 0002:000021a4       ??_C@_03KHICJKCI@?4?4?4?$AA@ 100411a4     LIBCMT:crt0msg.obj
 0002:000021a8       ??_C@_0BH@DNAGHKFM@?$DMprogram?5name?5unknown?$DO?$AA@ 100411a8     LIBCMT:crt0msg.obj
 0002:000021c0       ??_C@_0BK@OFGJDLJJ@Runtime?5Error?$CB?6?6Program?3?5?$AA@ 100411c0     LIBCMT:crt0msg.obj
 0002:000021dc       ??_C@_13NOLLCAOD@?$AA?$AA?$AA?$AA@ 100411dc     LIBCMT:a_map.obj
 0002:000021e0       ??_C@_0BK@CFCOFLF@?5Complete?5Object?5Locator?8?$AA@ 100411e0     LIBCMT:undname.obj
 0002:000021fc       ??_C@_0BN@MECKDCOJ@?5Class?5Hierarchy?5Descriptor?8?$AA@ 100411fc     LIBCMT:undname.obj
 0002:0000221c       ??_C@_0BD@LGICGFMM@?5Base?5Class?5Array?8?$AA@ 1004121c     LIBCMT:undname.obj
 0002:00002230       ??_C@_0BM@LDKODKLH@?5Base?5Class?5Descriptor?5at?5?$CI?$AA@ 10041230     LIBCMT:undname.obj
 0002:0000224c       ??_C@_0BC@DAFEJGAK@?5Type?5Descriptor?8?$AA@ 1004124c     LIBCMT:undname.obj
 0002:00002260       ??_C@_0BM@PMGGMLDN@?$GAlocal?5static?5thread?5guard?8?$AA@ 10041260     LIBCMT:undname.obj
 0002:0000227c       ??_C@_0CL@FGIJHLCE@?$GAmanaged?5vector?5copy?5constructor@ 1004127c     LIBCMT:undname.obj
 0002:000022a8       ??_C@_0CJ@GJELGAMM@?$GAvector?5vbase?5copy?5constructor?5i@ 100412a8     LIBCMT:undname.obj
 0002:000022d4       ??_C@_0CD@CGAJBKEJ@?$GAvector?5copy?5constructor?5iterato@ 100412d4     LIBCMT:undname.obj
 0002:000022f8       ??_C@_0CB@PDBIFEP@?$GAdynamic?5atexit?5destructor?5for?5?8@ 100412f8     LIBCMT:undname.obj
 0002:0000231c       ??_C@_0BL@CLIPGLGB@?$GAdynamic?5initializer?5for?5?8?$AA@ 1004131c     LIBCMT:undname.obj
 0002:00002338       ??_C@_0CM@FCBBDIGB@?$GAeh?5vector?5vbase?5copy?5constructo@ 10041338     LIBCMT:undname.obj
 0002:00002364       ??_C@_0CG@HLDDJMAG@?$GAeh?5vector?5copy?5constructor?5iter@ 10041364     LIBCMT:undname.obj
 0002:0000238c       ??_C@_0CF@IMGKMJNO@?$GAmanaged?5vector?5destructor?5itera@ 1004138c     LIBCMT:undname.obj
 0002:000023b4       ??_C@_0CG@CFDHKGGD@?$GAmanaged?5vector?5constructor?5iter@ 100413b4     LIBCMT:undname.obj
 0002:000023dc       ??_C@_0BN@CKNJLHMB@?$GAplacement?5delete?$FL?$FN?5closure?8?$AA@ 100413dc     LIBCMT:undname.obj
 0002:000023fc       ??_C@_0BL@CNOONJFP@?$GAplacement?5delete?5closure?8?$AA@ 100413fc     LIBCMT:undname.obj
 0002:00002418       ??_C@_0P@HJKNJFNN@?$GAomni?5callsig?8?$AA@ 10041418     LIBCMT:undname.obj
 0002:00002428       ??_C@_09LBNFPBCA@?5delete?$FL?$FN?$AA@ 10041428     LIBCMT:undname.obj
 0002:00002434       ??_C@_06FHBGPFGH@?5new?$FL?$FN?$AA@ 10041434     LIBCMT:undname.obj
 0002:0000243c       ??_C@_0CE@IIHCMGGL@?$GAlocal?5vftable?5constructor?5closu@ 1004143c     LIBCMT:undname.obj
 0002:00002460       ??_C@_0BA@KKLDJDLB@?$GAlocal?5vftable?8?$AA@ 10041460     LIBCMT:undname.obj
 0002:00002470       ??_C@_05KHLCHHI@?$GARTTI?$AA@ 10041470     LIBCMT:undname.obj
 0002:00002478       ??_C@_03KLGMFNMG@?$GAEH?$AA@ 10041478     LIBCMT:undname.obj
 0002:0000247c       ??_C@_0BA@KBCDOMBN@?$GAudt?5returning?8?$AA@ 1004147c     LIBCMT:undname.obj
 0002:0000248c       ??_C@_0BL@LLKPOHJI@?$GAcopy?5constructor?5closure?8?$AA@ 1004148c     LIBCMT:undname.obj
 0002:000024a8       ??_C@_0CH@OOJPLCPH@?$GAeh?5vector?5vbase?5constructor?5ite@ 100414a8     LIBCMT:undname.obj
 0002:000024d0       ??_C@_0CA@GCEOPDGL@?$GAeh?5vector?5destructor?5iterator?8?$AA@ 100414d0     LIBCMT:undname.obj
 0002:000024f0       ??_C@_0CB@JONCMFFK@?$GAeh?5vector?5constructor?5iterator?8@ 100414f0     LIBCMT:undname.obj
 0002:00002514       ??_C@_0BL@NILFHHPC@?$GAvirtual?5displacement?5map?8?$AA@ 10041514     LIBCMT:undname.obj
 0002:00002530       ??_C@_0CE@IKBNEHA@?$GAvector?5vbase?5constructor?5iterat@ 10041530     LIBCMT:undname.obj
 0002:00002554       ??_C@_0BN@LFPFMEDL@?$GAvector?5destructor?5iterator?8?$AA@ 10041554     LIBCMT:undname.obj
 0002:00002574       ??_C@_0BO@PFGOCPJJ@?$GAvector?5constructor?5iterator?8?$AA@ 10041574     LIBCMT:undname.obj
 0002:00002594       ??_C@_0BN@IMDCHIKM@?$GAscalar?5deleting?5destructor?8?$AA@ 10041594     LIBCMT:undname.obj
 0002:000025b4       ??_C@_0BO@OBMKPJIG@?$GAdefault?5constructor?5closure?8?$AA@ 100415b4     LIBCMT:undname.obj
 0002:000025d4       ??_C@_0BN@DEGPLNFK@?$GAvector?5deleting?5destructor?8?$AA@ 100415d4     LIBCMT:undname.obj
 0002:000025f4       ??_C@_0BD@JDLKDPAB@?$GAvbase?5destructor?8?$AA@ 100415f4     LIBCMT:undname.obj
 0002:00002608       ??_C@_08OBABFOLI@?$GAstring?8?$AA@ 10041608     LIBCMT:undname.obj
 0002:00002614       ??_C@_0BF@KDPPACIK@?$GAlocal?5static?5guard?8?$AA@ 10041614     LIBCMT:undname.obj
 0002:0000262c       ??_C@_08LLFFHHDJ@?$GAtypeof?8?$AA@ 1004162c     LIBCMT:undname.obj
 0002:00002638       ??_C@_07FEEIOKP@?$GAvcall?8?$AA@ 10041638     LIBCMT:undname.obj
 0002:00002640       ??_C@_09BLBHBJP@?$GAvbtable?8?$AA@ 10041640     LIBCMT:undname.obj
 0002:0000264c       ??_C@_09IFPLHPGF@?$GAvftable?8?$AA@ 1004164c     LIBCMT:undname.obj
 0002:00002658       ??_C@_02MHEGNOJ@?$FO?$DN?$AA@ 10041658     LIBCMT:undname.obj
 0002:0000265c       ??_C@_02DHLNPPGH@?$HM?$DN?$AA@ 1004165c     LIBCMT:undname.obj
 0002:00002660       ??_C@_02FGJGFEAB@?$CG?$DN?$AA@ 10041660     LIBCMT:undname.obj
 0002:00002664       ??_C@_03CDNPDDLA@?$DM?$DM?$DN?$AA@ 10041664     LIBCMT:undname.obj
 0002:00002668       ??_C@_03IKFCCPFF@?$DO?$DO?$DN?$AA@ 10041668     LIBCMT:undname.obj
 0002:0000266c       ??_C@_02FENAOKFI@?$CF?$DN?$AA@ 1004166c     LIBCMT:undname.obj
 0002:00002670       ??_C@_02FJEHGPIO@?1?$DN?$AA@ 10041670     LIBCMT:undname.obj
 0002:00002674       ??_C@_02FKMDLLOA@?9?$DN?$AA@ 10041674     LIBCMT:undname.obj
 0002:00002678       ??_C@_02FOEOMHFC@?$CL?$DN?$AA@ 10041678     LIBCMT:undname.obj
 0002:0000267c       ??_C@_02FPIMKNGF@?$CK?$DN?$AA@ 1004167c     LIBCMT:undname.obj
 0002:00002680       ??_C@_02NONPIBCD@?$HM?$HM?$AA@ 10041680     LIBCMT:undname.obj
 0002:00002684       ??_C@_02PPKAJPJL@?$CG?$CG?$AA@ 10041684     LIBCMT:undname.obj
 0002:00002688       ??_C@_01DNKMNLPK@?$HM?$AA@ 10041688     LIBCMT:undname.obj
 0002:0000268c       ??_C@_01JKBOJNNK@?$FO?$AA@ 1004168c     LIBCMT:undname.obj
 0002:00002690       ??_C@_01PJKLJHI@?$HO?$AA@  10041690     LIBCMT:undname.obj
 0002:00002694       ??_C@_02HCKGKOFO@?$CI?$CJ?$AA@ 10041694     LIBCMT:undname.obj
 0002:00002698       ??_C@_01IHBHIGKO@?0?$AA@   10041698     LIBCMT:undname.obj
 0002:0000269c       ??_C@_02EEKDKGMJ@?$DO?$DN?$AA@ 1004169c     LIBCMT:undname.obj
 0002:000026a0       ??_C@_01PPODPGHN@?$DO?$AA@ 100416a0     LIBCMT:undname.obj
 0002:000026a4       ??_C@_02EHCHHCKH@?$DM?$DN?$AA@ 100416a4     LIBCMT:undname.obj
 0002:000026a8       ??_C@_01MNNFJEPP@?$DM?$AA@ 100416a8     LIBCMT:undname.obj
 0002:000026ac       ??_C@_01FGNFDNOH@?$CF?$AA@ 100416ac     LIBCMT:undname.obj
 0002:000026b0       ??_C@_01KMDKNFGN@?1?$AA@   100416b0     LIBCMT:undname.obj
 0002:000026b4       ??_C@_03MNHNFDLC@?9?$DO?$CK?$AA@ 100416b4     LIBCMT:undname.obj
 0002:000026b8       ??_C@_01HNPIGOCE@?$CG?$AA@ 100416b8     LIBCMT:undname.obj
 0002:000026bc       ??_C@_01MIFGBAGJ@?$CL?$AA@ 100416bc     LIBCMT:undname.obj
 0002:000026c0       ??_C@_01JOAMLHOP@?9?$AA@   100416c0     LIBCMT:undname.obj
 0002:000026c4       ??_C@_02BAABKJLB@?9?9?$AA@ 100416c4     LIBCMT:undname.obj
 0002:000026c8       ??_C@_02ECNGHCIF@?$CL?$CL?$AA@ 100416c8     LIBCMT:undname.obj
 0002:000026cc       ??_C@_01NBENCBCI@?$CK?$AA@ 100416cc     LIBCMT:undname.obj
 0002:000026d0       ??_C@_02HBOOOICD@?9?$DO?$AA@ 100416d0     LIBCMT:undname.obj
 0002:000026d4       ??_C@_08LHJFAFGD@operator?$AA@ 100416d4     LIBCMT:undname.obj
 0002:000026e0       ??_C@_02GPECMEKF@?$FL?$FN?$AA@ 100416e0     LIBCMT:undname.obj
 0002:000026e4       ??_C@_02FDNJECIE@?$CB?$DN?$AA@ 100416e4     LIBCMT:undname.obj
 0002:000026e8       ??_C@_02EGOFBIJA@?$DN?$DN?$AA@ 100416e8     LIBCMT:undname.obj
 0002:000026ec       ??_C@_01DCLJPIOD@?$CB?$AA@ 100416ec     LIBCMT:undname.obj
 0002:000026f0       ??_C@_02FODMEDOG@?$DM?$DM?$AA@ 100416f0     LIBCMT:undname.obj
 0002:000026f4       ??_C@_02GPIOPFAK@?$DO?$DO?$AA@ 100416f4     LIBCMT:undname.obj
 0002:000026f8       ??_C@_07FPCDHGMM@?5delete?$AA@ 100416f8     LIBCMT:undname.obj
 0002:00002700       ??_C@_04NIHEBCM@?5new?$AA@ 10041700     LIBCMT:undname.obj
 0002:00002708       ??_C@_0M@GFIIJFMG@__unaligned?$AA@ 10041708     LIBCMT:undname.obj
 0002:00002714       ??_C@_0L@PILCLIHE@__restrict?$AA@ 10041714     LIBCMT:undname.obj
 0002:00002720       ??_C@_07JOMMBBKO@__ptr64?$AA@ 10041720     LIBCMT:undname.obj
 0002:00002728       ??_C@_09HIJEGCPM@__clrcall?$AA@ 10041728     LIBCMT:undname.obj
 0002:00002734       ??_C@_0L@JMKHOMEK@__fastcall?$AA@ 10041734     LIBCMT:undname.obj
 0002:00002740       ??_C@_0L@NPHFGOKO@__thiscall?$AA@ 10041740     LIBCMT:undname.obj
 0002:0000274c       ??_C@_09IFJBGAPI@__stdcall?$AA@ 1004174c     LIBCMT:undname.obj
 0002:00002758       ??_C@_08GHMPAG@__pascal?$AA@ 10041758     LIBCMT:undname.obj
 0002:00002764       ??_C@_07KOLFKCDI@__cdecl?$AA@ 10041764     LIBCMT:undname.obj
 0002:0000276c       ??_C@_08EHJDFFNH@__based?$CI?$AA@ 1004176c     LIBCMT:undname.obj
 0002:000028fc       ??_7DNameNode@@6B@         100418fc     LIBCMT:undname.obj
 0002:0000290c       ??_7charNode@@6B@          1004190c     LIBCMT:undname.obj
 0002:0000291c       ??_7pDNameNode@@6B@        1004191c     LIBCMT:undname.obj
 0002:0000292c       ??_7DNameStatusNode@@6B@   1004192c     LIBCMT:undname.obj
 0002:0000293c       ??_7pcharNode@@6B@         1004193c     LIBCMT:undname.obj
 0002:00002948       ??_C@_04OKOHEJBO@?5?$DP?$DP?5?$AA@ 10041948     LIBCMT:undname.obj
 0002:00002950       ??_C@_06EEGAIFAK@?$HLflat?$HN?$AA@ 10041950     LIBCMT:undname.obj
 0002:00002958       ??_C@_05JIBOFOHK@?$HLfor?5?$AA@ 10041958     LIBCMT:undname.obj
 0002:00002960       ??_C@_0BN@IBLMMFAP@?$GAnon?9type?9template?9parameter?$AA@ 10041960     LIBCMT:undname.obj
 0002:00002980       ??_C@_09EBBEKKIH@unsigned?5?$AA@ 10041980     LIBCMT:undname.obj
 0002:0000298c       ??_C@_05CJIMAING@long?5?$AA@ 1004198c     LIBCMT:undname.obj
 0002:00002994       ??_C@_04LAHKHJMA@int?5?$AA@ 10041994     LIBCMT:undname.obj
 0002:0000299c       ??_C@_06EHJMALKF@short?5?$AA@ 1004199c     LIBCMT:undname.obj
 0002:000029a4       ??_C@_05CIHEBHNO@char?5?$AA@ 100419a4     LIBCMT:undname.obj
 0002:000029ac       ??_C@_04GKJNKENE@void?$AA@ 100419ac     LIBCMT:undname.obj
 0002:000029b4       ??_C@_0L@EGPHHEKN@?$DMellipsis?$DO?$AA@ 100419b4     LIBCMT:undname.obj
 0002:000029c0       ??_C@_0M@ELJOJFFH@?0?$DMellipsis?$DO?$AA@ 100419c0     LIBCMT:undname.obj
 0002:000029cc       ??_C@_04EENFHACM@?0?4?4?4?$AA@ 100419cc     LIBCMT:undname.obj
 0002:000029d4       ??_C@_07HDJPLPEK@?5throw?$CI?$AA@ 100419d4     LIBCMT:undname.obj
 0002:000029dc       ??_C@_02GOGNNPBN@?$CJ?$FL?$AA@ 100419dc     LIBCMT:undname.obj
 0002:000029e0       ??_C@_02MDINNEEG@s?5?$AA@  100419e0     LIBCMT:undname.obj
 0002:000029e4       ??_C@_0BE@EODMJLIF@?$GAtemplate?9parameter?$AA@ 100419e4     LIBCMT:undname.obj
 0002:000029f8       ??_C@_01GEODFPGF@?8?$AA@   100419f8     LIBCMT:undname.obj
 0002:000029fc       ??_C@_04HIBGFPH@NULL?$AA@  100419fc     LIBCMT:undname.obj
 0002:00002a04       ??_C@_0O@GKABPPIF@cli?3?3pin_ptr?$DM?$AA@ 10041a04     LIBCMT:undname.obj
 0002:00002a14       ??_C@_0M@EALIELKG@cli?3?3array?$DM?$AA@ 10041a14     LIBCMT:undname.obj
 0002:00002a20       ??_C@_05BEFAKPML@void?5?$AA@ 10041a20     LIBCMT:undname.obj
 0002:00002a28       ??_C@_02OHHJMEON@?8?8?$AA@ 10041a28     LIBCMT:undname.obj
 0002:00002a2c       ??_C@_0BG@JNJLAMPM@?$GAanonymous?5namespace?8?$AA@ 10041a2c     LIBCMT:undname.obj
 0002:00002a44       ??_C@_01NLNLIGKH@?$GA?$AA@ 10041a44     LIBCMT:undname.obj
 0002:00002a48       ??_C@_0O@KHGCOMHP@generic?9type?9?$AA@ 10041a48     LIBCMT:undname.obj
 0002:00002a58       ??_C@_0BE@JAEOCHPE@template?9parameter?9?$AA@ 10041a58     LIBCMT:undname.obj
 0002:00002a6c       ??_C@_02MOLJINC@?3?3?$AA@  10041a6c     LIBCMT:undname.obj
 0002:00002a70       ??_C@_0P@GCIFDJCJ@?$GAunknown?5ecsu?8?$AA@ 10041a70     LIBCMT:undname.obj
 0002:00002a80       ??_C@_06MOJHIBMG@union?5?$AA@ 10041a80     LIBCMT:undname.obj
 0002:00002a88       ??_C@_07DIBCDNGL@struct?5?$AA@ 10041a88     LIBCMT:undname.obj
 0002:00002a90       ??_C@_06LJBABKPM@class?5?$AA@ 10041a90     LIBCMT:undname.obj
 0002:00002a98       ??_C@_05LJGMCFOG@enum?5?$AA@ 10041a98     LIBCMT:undname.obj
 0002:00002aa0       ??_C@_08KOFANOFK@coclass?5?$AA@ 10041aa0     LIBCMT:undname.obj
 0002:00002aac       ??_C@_0N@DLIEFKNA@cointerface?5?$AA@ 10041aac     LIBCMT:undname.obj
 0002:00002abc       ??_C@_02KCKGHPCA@?$CJ?5?$AA@ 10041abc     LIBCMT:undname.obj
 0002:00002ac0       ??_C@_0M@DHNBOJMP@extern?5?$CCC?$CC?5?$AA@ 10041ac0     LIBCMT:undname.obj
 0002:00002acc       ??_C@_08KJLFOPNE@?$FLthunk?$FN?3?$AA@ 10041acc     LIBCMT:undname.obj
 0002:00002ad8       ??_C@_08GPDDCMKI@public?3?5?$AA@ 10041ad8     LIBCMT:undname.obj
 0002:00002ae4       ??_C@_0M@GAIFPFIP@protected?3?5?$AA@ 10041ae4     LIBCMT:undname.obj
 0002:00002af0       ??_C@_09LAPHOOG@private?3?5?$AA@ 10041af0     LIBCMT:undname.obj
 0002:00002afc       ??_C@_08NIEOINHE@virtual?5?$AA@ 10041afc     LIBCMT:undname.obj
 0002:00002b08       ??_C@_07PGOEDBHP@static?5?$AA@ 10041b08     LIBCMT:undname.obj
 0002:00002b10       ??_C@_0DA@HGFJFBBE@?$GAtemplate?5static?5data?5member?5des@ 10041b10     LIBCMT:undname.obj
 0002:00002b40       ??_C@_0DB@ILEFOCIJ@?$GAtemplate?5static?5data?5member?5con@ 10041b40     LIBCMT:undname.obj
 0002:00002b74       ??_C@_0CB@KJDOOODE@?$GAlocal?5static?5destructor?5helper?8@ 10041b74     LIBCMT:undname.obj
 0002:00002b98       ??_C@_0L@HNGCOGAE@?$GAadjustor?$HL?$AA@ 10041b98     LIBCMT:undname.obj
 0002:00002ba4       ??_C@_0L@GHPFDFH@?$GAvtordisp?$HL?$AA@ 10041ba4     LIBCMT:undname.obj
 0002:00002bb0       ??_C@_0N@CBHHHENL@?$GAvtordispex?$HL?$AA@ 10041bb0     LIBCMT:undname.obj
 0002:00002bc0       ??_C@_02IGFCGPIL@?$HN?8?$AA@ 10041bc0     LIBCMT:undname.obj
 0002:00002bc4       ??_C@_03OPGICMGF@?$HN?8?5?$AA@ 10041bc4     LIBCMT:undname.obj
 0002:00002bc8       ??_C@_06LIJLOJAG@const?5?$AA@ 10041bc8     LIBCMT:undname.obj
 0002:00002bd0       ??_C@_09GAIEOBLP@volatile?5?$AA@ 10041bd0     LIBCMT:undname.obj
 0002:00002bdc       ??_C@_04HEJADOOB@CV?3?5?$AA@ 10041bdc     LIBCMT:undname.obj
 0002:00002be4       ??_C@_08PABEKFH@volatile?$AA@ 10041be4     LIBCMT:undname.obj
 0002:00002bf0       ??_C@_09EFNPDFFP@?5volatile?$AA@ 10041bf0     LIBCMT:undname.obj
 0002:00002bfc       ??_C@_05BNCCCJPP@const?$AA@ 10041bfc     LIBCMT:undname.obj
 0002:00002c04       ??_C@_07EDHNAJHC@signed?5?$AA@ 10041c04     LIBCMT:undname.obj
 0002:00002c0c       ??_C@_06BNJCAIGJ@double?$AA@ 10041c0c     LIBCMT:undname.obj
 0002:00002c14       ??_C@_04DDKJGDCM@bool?$AA@ 10041c14     LIBCMT:undname.obj
 0002:00002c1c       ??_C@_07CLGGIAMF@wchar_t?$AA@ 10041c1c     LIBCMT:undname.obj
 0002:00002c24       ??_C@_07NFANNNEC@UNKNOWN?$AA@ 10041c24     LIBCMT:undname.obj
 0002:00002c2c       ??_C@_08GAHOLHEO@__int128?$AA@ 10041c2c     LIBCMT:undname.obj
 0002:00002c38       ??_C@_07OFLPPHGP@__int32?$AA@ 10041c38     LIBCMT:undname.obj
 0002:00002c40       ??_C@_07LFCOJCAC@__int64?$AA@ 10041c40     LIBCMT:undname.obj
 0002:00002c48       ??_C@_07ICFHOGAF@__int16?$AA@ 10041c48     LIBCMT:undname.obj
 0002:00002c50       ??_C@_06GCICPBLB@__w64?5?$AA@ 10041c50     LIBCMT:undname.obj
 0002:00002c58       ??_C@_06EBGKOKIG@__int8?$AA@ 10041c58     LIBCMT:undname.obj
 0002:00002c60       ??_C@_05KNFBNCOH@float?$AA@ 10041c60     LIBCMT:undname.obj
 0002:00002c68       ??_C@_04GOKPGOLB@long?$AA@ 10041c68     LIBCMT:undname.obj
 0002:00002c70       ??_C@_03JBIPMCLC@int?$AA@  10041c70     LIBCMT:undname.obj
 0002:00002c74       ??_C@_05BFKKPKCG@short?$AA@ 10041c74     LIBCMT:undname.obj
 0002:00002c7c       ??_C@_04ENMBGAPA@char?$AA@ 10041c7c     LIBCMT:undname.obj
 0002:00002c84       ??_C@_0CG@PKBDLMEO@InitializeCriticalSectionAndSpin@ 10041c84     LIBCMT:initcrit.obj
 0002:00002cac       ??_C@_0N@MDJJJHMB@kernel32?4dll?$AA@ 10041cac     LIBCMT:initcrit.obj
 0002:00002cc0       ___newctype                10041cc0     LIBCMT:ctype.obj
 0002:00002fc0       __wctype                   10041fc0     LIBCMT:ctype.obj
 0002:000031c8       ___newclmap                100421c8     LIBCMT:ctype.obj
 0002:00003348       ___newcumap                10042348     LIBCMT:ctype.obj
 0002:000034c8       ??_C@_08JCCMCCIL@HH?3mm?3ss?$AA@ 100424c8     LIBCMT:strftime.obj
 0002:000034d4       ??_C@_0BE@CKGJFCPC@dddd?0?5MMMM?5dd?0?5yyyy?$AA@ 100424d4     LIBCMT:strftime.obj
 0002:000034e8       ??_C@_08BPBNCDIB@MM?1dd?1yy?$AA@ 100424e8     LIBCMT:strftime.obj
 0002:000034f4       ??_C@_02CJNFDJBF@PM?$AA@   100424f4     LIBCMT:strftime.obj
 0002:000034f8       ??_C@_02DEDBPAFC@AM?$AA@   100424f8     LIBCMT:strftime.obj
 0002:000034fc       ??_C@_08EDHMEBNP@December?$AA@ 100424fc     LIBCMT:strftime.obj
 0002:00003508       ??_C@_08HCHEGEOA@November?$AA@ 10042508     LIBCMT:strftime.obj
 0002:00003514       ??_C@_07JJNFCEND@October?$AA@ 10042514     LIBCMT:strftime.obj
 0002:0000351c       ??_C@_09BHHEALKD@September?$AA@ 1004251c     LIBCMT:strftime.obj
 0002:00003528       ??_C@_06LBBHFDDG@August?$AA@ 10042528     LIBCMT:strftime.obj
 0002:00003530       ??_C@_04MIEPOIFP@July?$AA@ 10042530     LIBCMT:strftime.obj
 0002:00003538       ??_C@_04CNLMGBGM@June?$AA@ 10042538     LIBCMT:strftime.obj
 0002:00003540       ??_C@_05DMJDNLEJ@April?$AA@ 10042540     LIBCMT:strftime.obj
 0002:00003548       ??_C@_05HPCKOFNC@March?$AA@ 10042548     LIBCMT:strftime.obj
 0002:00003550       ??_C@_08GNJGEPFN@February?$AA@ 10042550     LIBCMT:strftime.obj
 0002:0000355c       ??_C@_07CGJPFGJA@January?$AA@ 1004255c     LIBCMT:strftime.obj
 0002:00003564       ??_C@_03MKABNOCG@Dec?$AA@  10042564     LIBCMT:strftime.obj
 0002:00003568       ??_C@_03JPJOFNIA@Nov?$AA@  10042568     LIBCMT:strftime.obj
 0002:0000356c       ??_C@_03BMAOKBAD@Oct?$AA@  1004256c     LIBCMT:strftime.obj
 0002:00003570       ??_C@_03GGCAPAJC@Sep?$AA@  10042570     LIBCMT:strftime.obj
 0002:00003574       ??_C@_03IFJFEIGA@Aug?$AA@  10042574     LIBCMT:strftime.obj
 0002:00003578       ??_C@_03LBGABGKK@Jul?$AA@  10042578     LIBCMT:strftime.obj
 0002:0000357c       ??_C@_03IDFGHECI@Jun?$AA@  1004257c     LIBCMT:strftime.obj
 0002:00003580       ??_C@_03CNMDKL@May?$AA@    10042580     LIBCMT:strftime.obj
 0002:00003584       ??_C@_03LEOLGMJP@Apr?$AA@  10042584     LIBCMT:strftime.obj
 0002:00003588       ??_C@_03ODNJBKGA@Mar?$AA@  10042588     LIBCMT:strftime.obj
 0002:0000358c       ??_C@_03HJBDCHOM@Feb?$AA@  1004258c     LIBCMT:strftime.obj
 0002:00003590       ??_C@_03JIHJHPIE@Jan?$AA@  10042590     LIBCMT:strftime.obj
 0002:00003594       ??_C@_08INBOOONO@Saturday?$AA@ 10042594     LIBCMT:strftime.obj
 0002:000035a0       ??_C@_06JECMNKMI@Friday?$AA@ 100425a0     LIBCMT:strftime.obj
 0002:000035a8       ??_C@_08HACCIKIA@Thursday?$AA@ 100425a8     LIBCMT:strftime.obj
 0002:000035b4       ??_C@_09DLIGFAKA@Wednesday?$AA@ 100425b4     LIBCMT:strftime.obj
 0002:000035c0       ??_C@_07BAAGCFCM@Tuesday?$AA@ 100425c0     LIBCMT:strftime.obj
 0002:000035c8       ??_C@_06JLEDEDGH@Monday?$AA@ 100425c8     LIBCMT:strftime.obj
 0002:000035d0       ??_C@_06OOPIFAJ@Sunday?$AA@ 100425d0     LIBCMT:strftime.obj
 0002:000035d8       ??_C@_03FEFJNEK@Sat?$AA@   100425d8     LIBCMT:strftime.obj
 0002:000035dc       ??_C@_03IDIOELNC@Fri?$AA@  100425dc     LIBCMT:strftime.obj
 0002:000035e0       ??_C@_03IOFIKPDN@Thu?$AA@  100425e0     LIBCMT:strftime.obj
 0002:000035e4       ??_C@_03MHOMLAJA@Wed?$AA@  100425e4     LIBCMT:strftime.obj
 0002:000035e8       ??_C@_03NAGEINEP@Tue?$AA@  100425e8     LIBCMT:strftime.obj
 0002:000035ec       ??_C@_03PDAGKDH@Mon?$AA@   100425ec     LIBCMT:strftime.obj
 0002:000035f0       ??_C@_03KOEHGMDN@Sun?$AA@  100425f0     LIBCMT:strftime.obj
 0002:000035f4       ??_C@_03EBAPMIKO@a?1p?$AA@ 100425f4     LIBCMT:strftime.obj
 0002:000035f8       ??_C@_05JAMEPDIN@am?1pm?$AA@ 100425f8     LIBCMT:strftime.obj
 0002:00003600       ??_C@_0O@FMJNFNKE@united?9states?$AA@ 10042600     LIBCMT:getqloc.obj
 0002:00003610       ??_C@_0P@NDHFFKCA@united?9kingdom?$AA@ 10042610     LIBCMT:getqloc.obj
 0002:00003620       ??_C@_0BC@HHDADLGF@trinidad?5?$CG?5tobago?$AA@ 10042620     LIBCMT:getqloc.obj
 0002:00003634       ??_C@_0M@IOAEBDAC@south?9korea?$AA@ 10042634     LIBCMT:getqloc.obj
 0002:00003640       ??_C@_0N@FIELFKIJ@south?9africa?$AA@ 10042640     LIBCMT:getqloc.obj
 0002:00003650       ??_C@_0M@OPNDHCMC@south?5korea?$AA@ 10042650     LIBCMT:getqloc.obj
 0002:0000365c       ??_C@_0N@MDEOEPFI@south?5africa?$AA@ 1004265c     LIBCMT:getqloc.obj
 0002:0000366c       ??_C@_06FKAPCJLB@slovak?$AA@ 1004266c     LIBCMT:getqloc.obj
 0002:00003674       ??_C@_0M@EFJANOAL@puerto?9rico?$AA@ 10042674     LIBCMT:getqloc.obj
 0002:00003680       ??_C@_08PGOJKDAI@pr?9china?$AA@ 10042680     LIBCMT:getqloc.obj
 0002:0000368c       ??_C@_08JHDOMCMI@pr?5china?$AA@ 1004268c     LIBCMT:getqloc.obj
 0002:00003698       ??_C@_02JHCHFBLL@nz?$AA@   10042698     LIBCMT:getqloc.obj
 0002:0000369c       ??_C@_0M@LINHDHKP@new?9zealand?$AA@ 1004269c     LIBCMT:getqloc.obj
 0002:000036a8       ??_C@_09IIIPPBDB@hong?9kong?$AA@ 100426a8     LIBCMT:getqloc.obj
 0002:000036b4       ??_C@_07HJLCKBG@holland?$AA@ 100426b4     LIBCMT:getqloc.obj
 0002:000036bc       ??_C@_0O@LEHGMHAG@great?5britain?$AA@ 100426bc     LIBCMT:getqloc.obj
 0002:000036cc       ??_C@_07FACOMELA@england?$AA@ 100426cc     LIBCMT:getqloc.obj
 0002:000036d4       ??_C@_05JIHCEICB@czech?$AA@ 100426d4     LIBCMT:getqloc.obj
 0002:000036dc       ??_C@_05BBJOBLGB@china?$AA@ 100426dc     LIBCMT:getqloc.obj
 0002:000036e4       ??_C@_07GPKPHICP@britain?$AA@ 100426e4     LIBCMT:getqloc.obj
 0002:000036ec       ??_C@_07MHIPBHMG@america?$AA@ 100426ec     LIBCMT:getqloc.obj
 0002:000036f4       ??_C@_03KIALPMKC@usa?$AA@  100426f4     LIBCMT:getqloc.obj
 0002:000036f8       ??_C@_02FGJGKGGD@us?$AA@   100426f8     LIBCMT:getqloc.obj
 0002:000036fc       ??_C@_02NEINDODK@uk?$AA@   100426fc     LIBCMT:getqloc.obj
 0002:00003700       ??_C@_05JMPCFJFJ@swiss?$AA@ 10042700     LIBCMT:getqloc.obj
 0002:00003708       ??_C@_0BA@HLOCPIOD@swedish?9finland?$AA@ 10042708     LIBCMT:getqloc.obj
 0002:00003718       ??_C@_0BC@PKCNIABK@spanish?9venezuela?$AA@ 10042718     LIBCMT:getqloc.obj
 0002:0000372c       ??_C@_0BA@GBHHMIJI@spanish?9uruguay?$AA@ 1004272c     LIBCMT:getqloc.obj
 0002:0000373c       ??_C@_0BE@BHDOHPMC@spanish?9puerto?5rico?$AA@ 1004273c     LIBCMT:getqloc.obj
 0002:00003750       ??_C@_0N@KMOIDGGN@spanish?9peru?$AA@ 10042750     LIBCMT:getqloc.obj
 0002:00003760       ??_C@_0BB@HMHLPGPH@spanish?9paraguay?$AA@ 10042760     LIBCMT:getqloc.obj
 0002:00003774       ??_C@_0P@MCPKNGFD@spanish?9panama?$AA@ 10042774     LIBCMT:getqloc.obj
 0002:00003784       ??_C@_0BC@IHOHGAIL@spanish?9nicaragua?$AA@ 10042784     LIBCMT:getqloc.obj
 0002:00003798       ??_C@_0P@KLMJDNFJ@spanish?9modern?$AA@ 10042798     LIBCMT:getqloc.obj
 0002:000037a8       ??_C@_0BA@BPAPGBCM@spanish?9mexican?$AA@ 100427a8     LIBCMT:getqloc.obj
 0002:000037b8       ??_C@_0BB@PDECHHHE@spanish?9honduras?$AA@ 100427b8     LIBCMT:getqloc.obj
 0002:000037cc       ??_C@_0BC@KLHKFGDB@spanish?9guatemala?$AA@ 100427cc     LIBCMT:getqloc.obj
 0002:000037e0       ??_C@_0BE@MFOOKJAI@spanish?9el?5salvador?$AA@ 100427e0     LIBCMT:getqloc.obj
 0002:000037f4       ??_C@_0BA@FCOKFPFC@spanish?9ecuador?$AA@ 100427f4     LIBCMT:getqloc.obj
 0002:00003804       ??_C@_0BL@PLMGIMOO@spanish?9dominican?5republic?$AA@ 10042804     LIBCMT:getqloc.obj
 0002:00003820       ??_C@_0BD@HLGDNMHB@spanish?9costa?5rica?$AA@ 10042820     LIBCMT:getqloc.obj
 0002:00003834       ??_C@_0BB@PKCBKCPE@spanish?9colombia?$AA@ 10042834     LIBCMT:getqloc.obj
 0002:00003848       ??_C@_0O@MCBIJGNE@spanish?9chile?$AA@ 10042848     LIBCMT:getqloc.obj
 0002:00003858       ??_C@_0BA@BEFEIGJJ@spanish?9bolivia?$AA@ 10042858     LIBCMT:getqloc.obj
 0002:00003868       ??_C@_0BC@EMECMPD@spanish?9argentina?$AA@ 10042868     LIBCMT:getqloc.obj
 0002:0000387c       ??_C@_0BF@EALFLENP@portuguese?9brazilian?$AA@ 1004287c     LIBCMT:getqloc.obj
 0002:00003894       ??_C@_0BC@HBLEBLNN@norwegian?9nynorsk?$AA@ 10042894     LIBCMT:getqloc.obj
 0002:000038a8       ??_C@_0BB@HMACDDCK@norwegian?9bokmal?$AA@ 100428a8     LIBCMT:getqloc.obj
 0002:000038bc       ??_C@_09BAFFPPHE@norwegian?$AA@ 100428bc     LIBCMT:getqloc.obj
 0002:000038c8       ??_C@_0O@EAJFJDFG@italian?9swiss?$AA@ 100428c8     LIBCMT:getqloc.obj
 0002:000038d8       ??_C@_0O@CNOMPGD@irish?9english?$AA@ 100428d8     LIBCMT:getqloc.obj
 0002:000038e8       ??_C@_0N@EDHBGCKG@german?9swiss?$AA@ 100428e8     LIBCMT:getqloc.obj
 0002:000038f8       ??_C@_0BC@JACMHNBP@german?9luxembourg?$AA@ 100428f8     LIBCMT:getqloc.obj
 0002:0000390c       ??_C@_0BE@HBGMGFEG@german?9lichtenstein?$AA@ 1004290c     LIBCMT:getqloc.obj
 0002:00003920       ??_C@_0BA@HKKBIBKL@german?9austrian?$AA@ 10042920     LIBCMT:getqloc.obj
 0002:00003930       ??_C@_0N@GCAEPEBK@french?9swiss?$AA@ 10042930     LIBCMT:getqloc.obj
 0002:00003940       ??_C@_0BC@DJFJJCK@french?9luxembourg?$AA@ 10042940     LIBCMT:getqloc.obj
 0002:00003954       ??_C@_0BA@NNCEDFIC@french?9canadian?$AA@ 10042954     LIBCMT:getqloc.obj
 0002:00003964       ??_C@_0P@CMPOCLM@french?9belgian?$AA@ 10042964     LIBCMT:getqloc.obj
 0002:00003974       ??_C@_0M@GHHDJOK@english?9usa?$AA@ 10042974     LIBCMT:getqloc.obj
 0002:00003980       ??_C@_0L@PLDJKEIL@english?9us?$AA@ 10042980     LIBCMT:getqloc.obj
 0002:0000398c       ??_C@_0L@HJCCDMNC@english?9uk?$AA@ 1004298c     LIBCMT:getqloc.obj
 0002:00003998       ??_C@_0BK@CKLIAGJB@english?9trinidad?5y?5tobago?$AA@ 10042998     LIBCMT:getqloc.obj
 0002:000039b4       ??_C@_0BF@JMJMGNNF@english?9south?5africa?$AA@ 100429b4     LIBCMT:getqloc.obj
 0002:000039cc       ??_C@_0L@DKIIFDFD@english?9nz?$AA@ 100429cc     LIBCMT:getqloc.obj
 0002:000039d8       ??_C@_0BA@ONHGJCLH@english?9jamaica?$AA@ 100429d8     LIBCMT:getqloc.obj
 0002:000039e8       ??_C@_0M@HJBGHOPO@english?9ire?$AA@ 100429e8     LIBCMT:getqloc.obj
 0002:000039f4       ??_C@_0BC@LFEKMIFB@english?9caribbean?$AA@ 100429f4     LIBCMT:getqloc.obj
 0002:00003a08       ??_C@_0M@OLDPFKHI@english?9can?$AA@ 10042a08     LIBCMT:getqloc.obj
 0002:00003a14       ??_C@_0P@OMDEHBMP@english?9belize?$AA@ 10042a14     LIBCMT:getqloc.obj
 0002:00003a24       ??_C@_0M@KFHFPFED@english?9aus?$AA@ 10042a24     LIBCMT:getqloc.obj
 0002:00003a30       ??_C@_0BB@MNMBKDFE@english?9american?$AA@ 10042a30     LIBCMT:getqloc.obj
 0002:00003a44       ??_C@_0O@KIDLNNBA@dutch?9belgian?$AA@ 10042a44     LIBCMT:getqloc.obj
 0002:00003a54       ??_C@_0BE@JBKABBMH@chinese?9traditional?$AA@ 10042a54     LIBCMT:getqloc.obj
 0002:00003a68       ??_C@_0BC@MJJMPKCG@chinese?9singapore?$AA@ 10042a68     LIBCMT:getqloc.obj
 0002:00003a7c       ??_C@_0BD@FDKADDCP@chinese?9simplified?$AA@ 10042a7c     LIBCMT:getqloc.obj
 0002:00003a90       ??_C@_0BB@DBEFDDME@chinese?9hongkong?$AA@ 10042a90     LIBCMT:getqloc.obj
 0002:00003aa4       ??_C@_07DHNMFMCI@chinese?$AA@ 10042aa4     LIBCMT:getqloc.obj
 0002:00003aac       ??_C@_03FNDDCHI@chi?$AA@   10042aac     LIBCMT:getqloc.obj
 0002:00003ab0       ??_C@_03BMMIADDJ@chh?$AA@  10042ab0     LIBCMT:getqloc.obj
 0002:00003ab4       ??_C@_08OAIPJDGI@canadian?$AA@ 10042ab4     LIBCMT:getqloc.obj
 0002:00003ac0       ??_C@_07HBPMNPNJ@belgian?$AA@ 10042ac0     LIBCMT:getqloc.obj
 0002:00003ac8       ??_C@_0L@OEKOPBEL@australian?$AA@ 10042ac8     LIBCMT:getqloc.obj
 0002:00003ad4       ??_C@_0BB@MEIMBEDG@american?9english?$AA@ 10042ad4     LIBCMT:getqloc.obj
 0002:00003ae8       ??_C@_0BB@DFMDPDGB@american?5english?$AA@ 10042ae8     LIBCMT:getqloc.obj
 0002:00003afc       ??_C@_08IJLOKOLL@american?$AA@ 10042afc     LIBCMT:getqloc.obj
 0002:00003b08       ___rg_language             10042b08     LIBCMT:getqloc.obj
 0002:00003d10       ___rg_country              10042d10     LIBCMT:getqloc.obj
 0002:00003dc8       ___rglangidNotDefault      10042dc8     LIBCMT:getqloc.obj
 0002:00003ddc       ??_C@_03NFKLAGEF@OCP?$AA@  10042ddc     LIBCMT:getqloc.obj
 0002:00003de0       ??_C@_03DFHEHBHG@ACP?$AA@  10042de0     LIBCMT:getqloc.obj
 0002:00003de4       ??_C@_0BC@NFIEMBLL@Norwegian?9Nynorsk?$AA@ 10042de4     LIBCMT:getqloc.obj
 0002:00003df8       ___lookuptable_s           10042df8     LIBCMT:outputs.obj
 0002:00003e54       ??_C@_0BC@JEAENNKH@SystemFunction036?$AA@ 10042e54     LIBCMT:rand_s.obj
 0002:00003e68       ??_C@_0N@JJPEKNFO@ADVAPI32?4DLL?$AA@ 10042e68     LIBCMT:rand_s.obj
 0002:00003e78       ??_C@_0BI@DFKBFLJE@GetProcessWindowStation?$AA@ 10042e78     LIBCMT:crtmbox.obj
 0002:00003e90       ??_C@_0BK@CIDNPOGP@GetUserObjectInformationA?$AA@ 10042e90     LIBCMT:crtmbox.obj
 0002:00003eac       ??_C@_0BD@HHGDFDBJ@GetLastActivePopup?$AA@ 10042eac     LIBCMT:crtmbox.obj
 0002:00003ec0       ??_C@_0BA@HNOPNCHB@GetActiveWindow?$AA@ 10042ec0     LIBCMT:crtmbox.obj
 0002:00003ed0       ??_C@_0M@CHKKJDAI@MessageBoxA?$AA@ 10042ed0     LIBCMT:crtmbox.obj
 0002:00003edc       ??_C@_0L@NDEGIDAG@USER32?4DLL?$AA@ 10042edc     LIBCMT:crtmbox.obj
 0002:00003ee8       ___dnames                  10042ee8     LIBCMT:timeset.obj
 0002:00003f00       ___mnames                  10042f00     LIBCMT:timeset.obj
 0002:00003f28       ??_C@_02CLFPBFFP@TZ?$AA@   10042f28     LIBCMT:tzset.obj
 0002:00003f2c       ??_C@_06IMKFLFPG@1?$CDQNAN?$AA@ 10042f2c     LIBCMT:x10fout.obj
 0002:00003f34       ??_C@_05DNEBIAHO@1?$CDINF?$AA@ 10042f34     LIBCMT:x10fout.obj
 0002:00003f3c       ??_C@_05PHHOCPM@1?$CDIND?$AA@ 10042f3c     LIBCMT:x10fout.obj
 0002:00003f44       ??_C@_06PGGFOGJG@1?$CDSNAN?$AA@ 10042f44     LIBCMT:x10fout.obj
 0002:00003f4c       ??_C@_06GDENEHCP@CONIN$?$AA@ 10042f4c     LIBCMT:initcon.obj
 0002:00003f54       ??_C@_07GPDNMNG@CONOUT$?$AA@ 10042f54     LIBCMT:initcon.obj
 0002:00003f60       ??_7_Locimp@locale@std@@6B@ 10042f60     libcpmt:locale0.obj
 0002:00003f64       ?_BADOFF@std@@3JB          10042f64     libcpmt:ios.obj
 0002:00003f6c       ??_7invalid_argument@std@@6B@ 10042f6c     libcpmt:string.obj
 0002:00003f74       ??_C@_0BA@JFNIOLAK@string?5too?5long?$AA@ 10042f74     libcpmt:string.obj
 0002:00003f84       ??_C@_0BI@CFPLBAOH@invalid?5string?5position?$AA@ 10042f84     libcpmt:string.obj
 0002:00003f9c       ??_C@_0BI@ILCMCLF@invalid?5string?5argument?$AA@ 10042f9c     libcpmt:string.obj
 0002:00003fb8       __load_config_used         10042fb8     LIBCMT:loadcfg.obj
 0002:00004060       ??_R4bad_alloc@std@@6B@    10043060     ServerStage.obj
 0002:00004074       ??_R3bad_alloc@std@@8      10043074     ServerStage.obj
 0002:00004084       ??_R2bad_alloc@std@@8      10043084     ServerStage.obj
 0002:00004090       ??_R1A@?0A@EA@bad_alloc@std@@8 10043090     ServerStage.obj
 0002:000040ac       ??_R1A@?0A@EA@exception@std@@8 100430ac     ServerStage.obj
 0002:000040c8       ??_R3exception@std@@8      100430c8     ServerStage.obj
 0002:000040d8       ??_R2exception@std@@8      100430d8     ServerStage.obj
 0002:000040e0       ??_R4facet@locale@std@@6B@ 100430e0     ServerStage.obj
 0002:000040f4       ??_R3facet@locale@std@@8   100430f4     ServerStage.obj
 0002:00004104       ??_R2facet@locale@std@@8   10043104     ServerStage.obj
 0002:0000410c       ??_R1A@?0A@EA@facet@locale@std@@8 1004310c     ServerStage.obj
 0002:00004128       ??_R4ctype_base@std@@6B@   10043128     ServerStage.obj
 0002:0000413c       ??_R3ctype_base@std@@8     1004313c     ServerStage.obj
 0002:0000414c       ??_R2ctype_base@std@@8     1004314c     ServerStage.obj
 0002:00004158       ??_R1A@?0A@EA@ctype_base@std@@8 10043158     ServerStage.obj
 0002:00004174       ??_R4ios_base@std@@6B@     10043174     ServerStage.obj
 0002:00004188       ??_R3ios_base@std@@8       10043188     ServerStage.obj
 0002:00004198       ??_R2ios_base@std@@8       10043198     ServerStage.obj
 0002:000041a4       ??_R1A@?0A@EA@ios_base@std@@8 100431a4     ServerStage.obj
 0002:000041c0       ??_R13?0A@EA@?$_Iosb@H@std@@8 100431c0     ServerStage.obj
 0002:000041dc       ??_R3?$_Iosb@H@std@@8      100431dc     ServerStage.obj
 0002:000041ec       ??_R2?$_Iosb@H@std@@8      100431ec     ServerStage.obj
 0002:000041f4       ??_R1A@?0A@EA@?$_Iosb@H@std@@8 100431f4     ServerStage.obj
 0002:00004210       ??_R4Thank_you@Define_the_symbol__ATL_MIXED@@6B@ 10043210     ServerStage.obj
 0002:00004224       ??_R3Thank_you@Define_the_symbol__ATL_MIXED@@8 10043224     ServerStage.obj
 0002:00004234       ??_R2Thank_you@Define_the_symbol__ATL_MIXED@@8 10043234     ServerStage.obj
 0002:0000423c       ??_R1A@?0A@EA@Thank_you@Define_the_symbol__ATL_MIXED@@8 1004323c     ServerStage.obj
 0002:00004258       ??_R4CServerFactory@@6B@   10043258     ServerStage.obj
 0002:0000426c       ??_R3CServerFactory@@8     1004326c     ServerStage.obj
 0002:0000427c       ??_R2CServerFactory@@8     1004327c     ServerStage.obj
 0002:0000428c       ??_R1A@?0A@EA@CServerFactory@@8 1004328c     ServerStage.obj
 0002:000042a8       ??_R1A@?0A@EA@IServerFactory@@8 100432a8     ServerStage.obj
 0002:000042c4       ??_R3IServerFactory@@8     100432c4     ServerStage.obj
 0002:000042d4       ??_R2IServerFactory@@8     100432d4     ServerStage.obj
 0002:000042e0       ??_R1A@?0A@EA@IUnknown@@8  100432e0     ServerStage.obj
 0002:000042fc       ??_R3IUnknown@@8           100432fc     ServerStage.obj
 0002:0000430c       ??_R2IUnknown@@8           1004330c     ServerStage.obj
 0002:00004314       ??_R4?$basic_ostream@DU?$char_traits@D@std@@@std@@6B@ 10043314     ServerStage.obj
 0002:00004328       ??_R3?$basic_ostream@DU?$char_traits@D@std@@@std@@8 10043328     ServerStage.obj
 0002:00004338       ??_R2?$basic_ostream@DU?$char_traits@D@std@@@std@@8 10043338     ServerStage.obj
 0002:0000434c       ??_R1A@?0A@EA@?$basic_ostream@DU?$char_traits@D@std@@@std@@8 1004334c     ServerStage.obj
 0002:00004368       ??_R1A@A@3FA@?$basic_ios@DU?$char_traits@D@std@@@std@@8 10043368     ServerStage.obj
 0002:00004384       ??_R3?$basic_ios@DU?$char_traits@D@std@@@std@@8 10043384     ServerStage.obj
 0002:00004394       ??_R2?$basic_ios@DU?$char_traits@D@std@@@std@@8 10043394     ServerStage.obj
 0002:000043a4       ??_R1A@?0A@EA@?$basic_ios@DU?$char_traits@D@std@@@std@@8 100433a4     ServerStage.obj
 0002:000043c0       ??_R1A@A@3EA@ios_base@std@@8 100433c0     ServerStage.obj
 0002:000043dc       ??_R13A@3EA@?$_Iosb@H@std@@8 100433dc     ServerStage.obj
 0002:000043f8       ??_R4?$basic_ios@DU?$char_traits@D@std@@@std@@6B@ 100433f8     ServerStage.obj
 0002:0000440c       ??_R4?$basic_istream@DU?$char_traits@D@std@@@std@@6B@ 1004340c     ServerStage.obj
 0002:00004420       ??_R3?$basic_istream@DU?$char_traits@D@std@@@std@@8 10043420     ServerStage.obj
 0002:00004430       ??_R2?$basic_istream@DU?$char_traits@D@std@@@std@@8 10043430     ServerStage.obj
 0002:00004444       ??_R1A@?0A@EA@?$basic_istream@DU?$char_traits@D@std@@@std@@8 10043444     ServerStage.obj
 0002:00004460       ??_R4?$basic_iostream@DU?$char_traits@D@std@@@std@@6B@ 10043460     ServerStage.obj
 0002:00004474       ??_R3?$basic_iostream@DU?$char_traits@D@std@@@std@@8 10043474     ServerStage.obj
 0002:00004484       ??_R2?$basic_iostream@DU?$char_traits@D@std@@@std@@8 10043484     ServerStage.obj
 0002:000044ac       ??_R1A@?0A@EA@?$basic_iostream@DU?$char_traits@D@std@@@std@@8 100434ac     ServerStage.obj
 0002:000044c8       ??_R17?0A@EA@?$basic_ostream@DU?$char_traits@D@std@@@std@@8 100434c8     ServerStage.obj
 0002:000044e4       ??_R4?$basic_streambuf@DU?$char_traits@D@std@@@std@@6B@ 100434e4     ServerStage.obj
 0002:000044f8       ??_R3?$basic_streambuf@DU?$char_traits@D@std@@@std@@8 100434f8     ServerStage.obj
 0002:00004508       ??_R2?$basic_streambuf@DU?$char_traits@D@std@@@std@@8 10043508     ServerStage.obj
 0002:00004510       ??_R1A@?0A@EA@?$basic_streambuf@DU?$char_traits@D@std@@@std@@8 10043510     ServerStage.obj
 0002:0000452c       ??_R4strstreambuf@std@@6B@ 1004352c     ServerStage.obj
 0002:00004540       ??_R3strstreambuf@std@@8   10043540     ServerStage.obj
 0002:00004550       ??_R2strstreambuf@std@@8   10043550     ServerStage.obj
 0002:0000455c       ??_R1A@?0A@EA@strstreambuf@std@@8 1004355c     ServerStage.obj
 0002:00004578       ??_R4strstream@std@@6B@    10043578     ServerStage.obj
 0002:0000458c       ??_R3strstream@std@@8      1004358c     ServerStage.obj
 0002:0000459c       ??_R2strstream@std@@8      1004359c     ServerStage.obj
 0002:000045c8       ??_R1A@?0A@EA@strstream@std@@8 100435c8     ServerStage.obj
 0002:000045e4       ??_R4logic_error@std@@6B@  100435e4     ServerStage.obj
 0002:000045f8       ??_R3logic_error@std@@8    100435f8     ServerStage.obj
 0002:00004608       ??_R2logic_error@std@@8    10043608     ServerStage.obj
 0002:00004614       ??_R1A@?0A@EA@logic_error@std@@8 10043614     ServerStage.obj
 0002:00004630       ??_R4runtime_error@std@@6B@ 10043630     ServerStage.obj
 0002:00004644       ??_R3runtime_error@std@@8  10043644     ServerStage.obj
 0002:00004654       ??_R2runtime_error@std@@8  10043654     ServerStage.obj
 0002:00004660       ??_R1A@?0A@EA@runtime_error@std@@8 10043660     ServerStage.obj
 0002:0000467c       ??_R4length_error@std@@6B@ 1004367c     ServerStage.obj
 0002:00004690       ??_R3length_error@std@@8   10043690     ServerStage.obj
 0002:000046a0       ??_R2length_error@std@@8   100436a0     ServerStage.obj
 0002:000046b0       ??_R1A@?0A@EA@length_error@std@@8 100436b0     ServerStage.obj
 0002:000046cc       ??_R4out_of_range@std@@6B@ 100436cc     ServerStage.obj
 0002:000046e0       ??_R3out_of_range@std@@8   100436e0     ServerStage.obj
 0002:000046f0       ??_R2out_of_range@std@@8   100436f0     ServerStage.obj
 0002:00004700       ??_R1A@?0A@EA@out_of_range@std@@8 10043700     ServerStage.obj
 0002:0000471c       ??_R4failure@ios_base@std@@6B@ 1004371c     ServerStage.obj
 0002:00004730       ??_R3failure@ios_base@std@@8 10043730     ServerStage.obj
 0002:00004740       ??_R2failure@ios_base@std@@8 10043740     ServerStage.obj
 0002:00004750       ??_R1A@?0A@EA@failure@ios_base@std@@8 10043750     ServerStage.obj
 0002:0000476c       ??_R4?$ctype@D@std@@6B@    1004376c     ServerStage.obj
 0002:00004780       ??_R3?$ctype@D@std@@8      10043780     ServerStage.obj
 0002:00004790       ??_R2?$ctype@D@std@@8      10043790     ServerStage.obj
 0002:000047a0       ??_R1A@?0A@EA@?$ctype@D@std@@8 100437a0     ServerStage.obj
 0002:000047bc       ??_R4?$num_put@DV?$ostreambuf_iterator@DU?$char_traits@D@std@@@std@@@std@@6B@ 100437bc     ServerStage.obj
 0002:000047d0       ??_R3?$num_put@DV?$ostreambuf_iterator@DU?$char_traits@D@std@@@std@@@std@@8 100437d0     ServerStage.obj
 0002:000047e0       ??_R2?$num_put@DV?$ostreambuf_iterator@DU?$char_traits@D@std@@@std@@@std@@8 100437e0     ServerStage.obj
 0002:000047ec       ??_R1A@?0A@EA@?$num_put@DV?$ostreambuf_iterator@DU?$char_traits@D@std@@@std@@@std@@8 100437ec     ServerStage.obj
 0002:00004808       ??_R4?$numpunct@D@std@@6B@ 10043808     ServerStage.obj
 0002:0000481c       ??_R3?$numpunct@D@std@@8   1004381c     ServerStage.obj
 0002:0000482c       ??_R2?$numpunct@D@std@@8   1004382c     ServerStage.obj
 0002:00004838       ??_R1A@?0A@EA@?$numpunct@D@std@@8 10043838     ServerStage.obj
 0002:00004854       ??_R4CIOCPServer@@6B@      10043854     ServerStage.obj
 0002:00004868       ??_R3CIOCPServer@@8        10043868     ServerStage.obj
 0002:00004878       ??_R2CIOCPServer@@8        10043878     ServerStage.obj
 0002:00004898       ??_R1A@?0A@EA@CIOCPServer@@8 10043898     ServerStage.obj
 0002:000048b4       ??_R1A@?0A@EA@IServer@@8   100438b4     ServerStage.obj
 0002:000048d0       ??_R3IServer@@8            100438d0     ServerStage.obj
 0002:000048e0       ??_R2IServer@@8            100438e0     ServerStage.obj
 0002:000048ec       ??_R13?0A@EA@CSocketServer@Win32@OnlineGameLib@@8 100438ec     ServerStage.obj
 0002:00004908       ??_R3CSocketServer@Win32@OnlineGameLib@@8 10043908     ServerStage.obj
 0002:00004918       ??_R2CSocketServer@Win32@OnlineGameLib@@8 10043918     ServerStage.obj
 0002:0000492c       ??_R1A@?0A@EA@CSocketServer@Win32@OnlineGameLib@@8 1004392c     ServerStage.obj
 0002:00004948       ??_R1A@?0A@EN@CThread@Win32@OnlineGameLib@@8 10043948     ServerStage.obj
 0002:00004964       ??_R3CThread@Win32@OnlineGameLib@@8 10043964     ServerStage.obj
 0002:00004974       ??_R2CThread@Win32@OnlineGameLib@@8 10043974     ServerStage.obj
 0002:0000497c       ??_R1A@?0A@EA@CThread@Win32@OnlineGameLib@@8 1004397c     ServerStage.obj
 0002:00004998       ??_R1DM@?0A@EN@CUsesWinsock@Win32@OnlineGameLib@@8 10043998     ServerStage.obj
 0002:000049b4       ??_R3CUsesWinsock@Win32@OnlineGameLib@@8 100439b4     ServerStage.obj
 0002:000049c4       ??_R2CUsesWinsock@Win32@OnlineGameLib@@8 100439c4     ServerStage.obj
 0002:000049cc       ??_R1A@?0A@EA@CUsesWinsock@Win32@OnlineGameLib@@8 100439cc     ServerStage.obj
 0002:000049e8       ??_R17?0A@EN@Allocator@CIOBuffer@Win32@OnlineGameLib@@8 100439e8     ServerStage.obj
 0002:00004a04       ??_R3Allocator@CIOBuffer@Win32@OnlineGameLib@@8 10043a04     ServerStage.obj
 0002:00004a14       ??_R2Allocator@CIOBuffer@Win32@OnlineGameLib@@8 10043a14     ServerStage.obj
 0002:00004a1c       ??_R1A@?0A@EA@Allocator@CIOBuffer@Win32@OnlineGameLib@@8 10043a1c     ServerStage.obj
 0002:00004a38       ??_R13?0A@EN@CThread@Win32@OnlineGameLib@@8 10043a38     ServerStage.obj
 0002:00004a54       ??_R1EA@?0A@EN@CUsesWinsock@Win32@OnlineGameLib@@8 10043a54     ServerStage.obj
 0002:00004a70       ??_R1M@?0A@EN@Allocator@CIOBuffer@Win32@OnlineGameLib@@8 10043a70     ServerStage.obj
 0002:00004a8c       ??_R4CIOCPServer@@6BCThread@Win32@OnlineGameLib@@@ 10043a8c     ServerStage.obj
 0002:00004aa0       ??_R4CIOCPServer@@6BAllocator@CIOBuffer@Win32@OnlineGameLib@@@ 10043aa0     ServerStage.obj
 0002:00004ab4       ??_R4CException@Win32@OnlineGameLib@@6B@ 10043ab4     ServerStage.obj
 0002:00004ac8       ??_R3CException@Win32@OnlineGameLib@@8 10043ac8     ServerStage.obj
 0002:00004ad8       ??_R2CException@Win32@OnlineGameLib@@8 10043ad8     ServerStage.obj
 0002:00004ae0       ??_R1A@?0A@EA@CException@Win32@OnlineGameLib@@8 10043ae0     ServerStage.obj
 0002:00004afc       ??_R4CWin32Exception@Win32@OnlineGameLib@@6B@ 10043afc     ServerStage.obj
 0002:00004b10       ??_R3CWin32Exception@Win32@OnlineGameLib@@8 10043b10     ServerStage.obj
 0002:00004b20       ??_R2CWin32Exception@Win32@OnlineGameLib@@8 10043b20     ServerStage.obj
 0002:00004b2c       ??_R1A@?0A@EA@CWin32Exception@Win32@OnlineGameLib@@8 10043b2c     ServerStage.obj
 0002:00004b48       ??_R4CSocketServer@Win32@OnlineGameLib@@6BCThread@12@@ 10043b48     common:SocketServer.obj
 0002:00004b5c       ??_R4CSocketServer@Win32@OnlineGameLib@@6BAllocator@CIOBuffer@12@@ 10043b5c     common:SocketServer.obj
 0002:00004b70       ??_R4WorkerThread@CSocketServer@Win32@OnlineGameLib@@6B@ 10043b70     common:SocketServer.obj
 0002:00004b84       ??_R3WorkerThread@CSocketServer@Win32@OnlineGameLib@@8 10043b84     common:SocketServer.obj
 0002:00004b94       ??_R2WorkerThread@CSocketServer@Win32@OnlineGameLib@@8 10043b94     common:SocketServer.obj
 0002:00004ba0       ??_R1A@?0A@EA@WorkerThread@CSocketServer@Win32@OnlineGameLib@@8 10043ba0     common:SocketServer.obj
 0002:00004bbc       ??_R4?$basic_filebuf@DU?$char_traits@D@std@@@std@@6B@ 10043bbc     common:Utils.obj
 0002:00004bd0       ??_R3?$basic_filebuf@DU?$char_traits@D@std@@@std@@8 10043bd0     common:Utils.obj
 0002:00004be0       ??_R2?$basic_filebuf@DU?$char_traits@D@std@@@std@@8 10043be0     common:Utils.obj
 0002:00004bec       ??_R1A@?0A@EA@?$basic_filebuf@DU?$char_traits@D@std@@@std@@8 10043bec     common:Utils.obj
 0002:00004c08       ??_R4codecvt_base@std@@6B@ 10043c08     common:Utils.obj
 0002:00004c1c       ??_R3codecvt_base@std@@8   10043c1c     common:Utils.obj
 0002:00004c2c       ??_R2codecvt_base@std@@8   10043c2c     common:Utils.obj
 0002:00004c38       ??_R1A@?0A@EA@codecvt_base@std@@8 10043c38     common:Utils.obj
 0002:00004c54       ??_R4?$codecvt@DDH@std@@6B@ 10043c54     common:Utils.obj
 0002:00004c68       ??_R3?$codecvt@DDH@std@@8  10043c68     common:Utils.obj
 0002:00004c78       ??_R2?$codecvt@DDH@std@@8  10043c78     common:Utils.obj
 0002:00004c88       ??_R1A@?0A@EA@?$codecvt@DDH@std@@8 10043c88     common:Utils.obj
 0002:00004ca4       ??_R4?$basic_fstream@DU?$char_traits@D@std@@@std@@6B@ 10043ca4     common:Utils.obj
 0002:00004cb8       ??_R3?$basic_fstream@DU?$char_traits@D@std@@@std@@8 10043cb8     common:Utils.obj
 0002:00004cc8       ??_R2?$basic_fstream@DU?$char_traits@D@std@@@std@@8 10043cc8     common:Utils.obj
 0002:00004cf4       ??_R1A@?0A@EA@?$basic_fstream@DU?$char_traits@D@std@@@std@@8 10043cf4     common:Utils.obj
 0002:00004d10       ??_R4CThread@Win32@OnlineGameLib@@6B@ 10043d10     common:Thread.obj
 0002:00004d24       ??_R4Allocator@CIOBuffer@Win32@OnlineGameLib@@6B@ 10043d24     common:IOBuffer.obj
 0002:00004d38       ??_R4CEvent@Win32@OnlineGameLib@@6B@ 10043d38     common:Event.obj
 0002:00004d4c       ??_R3CEvent@Win32@OnlineGameLib@@8 10043d4c     common:Event.obj
 0002:00004d5c       ??_R2CEvent@Win32@OnlineGameLib@@8 10043d5c     common:Event.obj
 0002:00004d64       ??_R1A@?0A@EA@CEvent@Win32@OnlineGameLib@@8 10043d64     common:Event.obj
 0002:00004d80       ??_R4CManualResetEvent@Win32@OnlineGameLib@@6B@ 10043d80     common:ManualResetEvent.obj
 0002:00004d94       ??_R3CManualResetEvent@Win32@OnlineGameLib@@8 10043d94     common:ManualResetEvent.obj
 0002:00004da4       ??_R2CManualResetEvent@Win32@OnlineGameLib@@8 10043da4     common:ManualResetEvent.obj
 0002:00004db0       ??_R1A@?0A@EA@CManualResetEvent@Win32@OnlineGameLib@@8 10043db0     common:ManualResetEvent.obj
 0002:00004dcc       ??_R4Exception@CSocket@Win32@OnlineGameLib@@6B@ 10043dcc     common:Socket.obj
 0002:00004de0       ??_R3Exception@CSocket@Win32@OnlineGameLib@@8 10043de0     common:Socket.obj
 0002:00004df0       ??_R2Exception@CSocket@Win32@OnlineGameLib@@8 10043df0     common:Socket.obj
 0002:00004e00       ??_R1A@?0A@EA@Exception@CSocket@Win32@OnlineGameLib@@8 10043e00     common:Socket.obj
 0002:00004e1c       ??_R4exception@std@@6B@    10043e1c     LIBCMT:stdexcpt.obj
 0002:00004e30       ??_R4bad_cast@std@@6B@     10043e30     LIBCMT:stdexcpt.obj
 0002:00004e44       ??_R3bad_cast@std@@8       10043e44     LIBCMT:stdexcpt.obj
 0002:00004e54       ??_R2bad_cast@std@@8       10043e54     LIBCMT:stdexcpt.obj
 0002:00004e60       ??_R1A@?0A@EA@bad_cast@std@@8 10043e60     LIBCMT:stdexcpt.obj
 0002:00004e7c       ??_R4bad_typeid@std@@6B@   10043e7c     LIBCMT:stdexcpt.obj
 0002:00004e90       ??_R3bad_typeid@std@@8     10043e90     LIBCMT:stdexcpt.obj
 0002:00004ea0       ??_R2bad_typeid@std@@8     10043ea0     LIBCMT:stdexcpt.obj
 0002:00004eac       ??_R1A@?0A@EA@bad_typeid@std@@8 10043eac     LIBCMT:stdexcpt.obj
 0002:00004ec8       ??_R4__non_rtti_object@std@@6B@ 10043ec8     LIBCMT:stdexcpt.obj
 0002:00004edc       ??_R3__non_rtti_object@std@@8 10043edc     LIBCMT:stdexcpt.obj
 0002:00004eec       ??_R2__non_rtti_object@std@@8 10043eec     LIBCMT:stdexcpt.obj
 0002:00004efc       ??_R1A@?0A@EA@__non_rtti_object@std@@8 10043efc     LIBCMT:stdexcpt.obj
 0002:00004f18       ??_R4type_info@@6B@        10043f18     LIBCMT:typinfo.obj
 0002:00004f2c       ??_R3type_info@@8          10043f2c     LIBCMT:typinfo.obj
 0002:00004f3c       ??_R2type_info@@8          10043f3c     LIBCMT:typinfo.obj
 0002:00004f44       ??_R1A@?0A@EA@type_info@@8 10043f44     LIBCMT:typinfo.obj
 0002:00004f60       ??_R4bad_exception@std@@6B@ 10043f60     LIBCMT:frame.obj
 0002:00004f74       ??_R3bad_exception@std@@8  10043f74     LIBCMT:frame.obj
 0002:00004f84       ??_R2bad_exception@std@@8  10043f84     LIBCMT:frame.obj
 0002:00004f90       ??_R1A@?0A@EA@bad_exception@std@@8 10043f90     LIBCMT:frame.obj
 0002:00004fac       ??_R4DNameNode@@6B@        10043fac     LIBCMT:undname.obj
 0002:00004fc0       ??_R3DNameNode@@8          10043fc0     LIBCMT:undname.obj
 0002:00004fd0       ??_R2DNameNode@@8          10043fd0     LIBCMT:undname.obj
 0002:00004fd8       ??_R1A@?0A@EA@DNameNode@@8 10043fd8     LIBCMT:undname.obj
 0002:00004ff4       ??_R4charNode@@6B@         10043ff4     LIBCMT:undname.obj
 0002:00005008       ??_R3charNode@@8           10044008     LIBCMT:undname.obj
 0002:00005018       ??_R2charNode@@8           10044018     LIBCMT:undname.obj
 0002:00005024       ??_R1A@?0A@EA@charNode@@8  10044024     LIBCMT:undname.obj
 0002:00005040       ??_R4pDNameNode@@6B@       10044040     LIBCMT:undname.obj
 0002:00005054       ??_R3pDNameNode@@8         10044054     LIBCMT:undname.obj
 0002:00005064       ??_R2pDNameNode@@8         10044064     LIBCMT:undname.obj
 0002:00005070       ??_R1A@?0A@EA@pDNameNode@@8 10044070     LIBCMT:undname.obj
 0002:0000508c       ??_R4DNameStatusNode@@6B@  1004408c     LIBCMT:undname.obj
 0002:000050a0       ??_R3DNameStatusNode@@8    100440a0     LIBCMT:undname.obj
 0002:000050b0       ??_R2DNameStatusNode@@8    100440b0     LIBCMT:undname.obj
 0002:000050bc       ??_R1A@?0A@EA@DNameStatusNode@@8 100440bc     LIBCMT:undname.obj
 0002:000050d8       ??_R4pcharNode@@6B@        100440d8     LIBCMT:undname.obj
 0002:000050ec       ??_R3pcharNode@@8          100440ec     LIBCMT:undname.obj
 0002:000050fc       ??_R2pcharNode@@8          100440fc     LIBCMT:undname.obj
 0002:00005108       ??_R1A@?0A@EA@pcharNode@@8 10044108     LIBCMT:undname.obj
 0002:00005124       ??_R4_Locimp@locale@std@@6B@ 10044124     libcpmt:locale0.obj
 0002:00005138       ??_R3_Locimp@locale@std@@8 10044138     libcpmt:locale0.obj
 0002:00005148       ??_R2_Locimp@locale@std@@8 10044148     libcpmt:locale0.obj
 0002:00005154       ??_R1A@?0A@EA@_Locimp@locale@std@@8 10044154     libcpmt:locale0.obj
 0002:00005170       ??_R4invalid_argument@std@@6B@ 10044170     libcpmt:string.obj
 0002:00005184       ??_R3invalid_argument@std@@8 10044184     libcpmt:string.obj
 0002:00005194       ??_R2invalid_argument@std@@8 10044194     libcpmt:string.obj
 0002:000051a4       ??_R1A@?0A@EA@invalid_argument@std@@8 100441a4     libcpmt:string.obj
 0002:000051c0       ___safe_se_handler_table   100441c0     <linker-defined>
 0002:00005474       ___rtc_iaa                 10044474     LIBCMT:initsect.obj
 0002:00005478       ___rtc_izz                 10044478     LIBCMT:initsect.obj
 0002:0000547c       ___rtc_taa                 1004447c     LIBCMT:initsect.obj
 0002:00005480       ___rtc_tzz                 10044480     LIBCMT:initsect.obj
 0002:000054b4       __TI2?AVbad_alloc@std@@    100444b4     ServerStage.obj
 0002:000054c4       __CTA2?AVbad_alloc@std@@   100444c4     ServerStage.obj
 0002:000054d0       __CT??_R0?AVbad_alloc@std@@@8??0bad_alloc@std@@QAE@ABV01@@Z12 100444d0     ServerStage.obj
 0002:000054ec       __CT??_R0?AVexception@std@@@8??0exception@std@@QAE@ABV01@@Z12 100444ec     ServerStage.obj
 0002:000056bc       __TI3?AVout_of_range@std@@ 100446bc     ServerStage.obj
 0002:000056f8       __CTA3?AVout_of_range@std@@ 100446f8     ServerStage.obj
 0002:00005708       __CT??_R0?AVout_of_range@std@@@8??0out_of_range@std@@QAE@ABV01@@Z40 10044708     ServerStage.obj
 0002:00005724       __CT??_R0?AVlogic_error@std@@@8??0logic_error@std@@QAE@ABV01@@Z40 10044724     ServerStage.obj
 0002:0000576c       __TI3?AVlength_error@std@@ 1004476c     ServerStage.obj
 0002:000057a8       __CTA3?AVlength_error@std@@ 100447a8     ServerStage.obj
 0002:000057b8       __CT??_R0?AVlength_error@std@@@8??0length_error@std@@QAE@ABV01@@Z40 100447b8     ServerStage.obj
 0002:000058dc       __TI2?AVruntime_error@std@@ 100448dc     ServerStage.obj
 0002:00005940       __CTA2?AVruntime_error@std@@ 10044940     ServerStage.obj
 0002:0000594c       __CT??_R0?AVruntime_error@std@@@8??0runtime_error@std@@QAE@ABV01@@Z40 1004494c     ServerStage.obj
 0002:000059ec       __TI3?AVfailure@ios_base@std@@ 100449ec     ServerStage.obj
 0002:00005a38       __CTA3?AVfailure@ios_base@std@@ 10044a38     ServerStage.obj
 0002:00005a48       __CT??_R0?AVfailure@ios_base@std@@@8??0failure@ios_base@std@@QAE@ABV012@@Z40 10044a48     ServerStage.obj
 0002:00005d5c       __TI2?AVbad_cast@std@@     10044d5c     ServerStage.obj
 0002:00005d98       __CTA2?AVbad_cast@std@@    10044d98     ServerStage.obj
 0002:00005da4       __CT??_R0?AVbad_cast@std@@@8??0bad_cast@std@@QAE@ABV01@@Z12 10044da4     ServerStage.obj
 0002:000069f4       __TI2?AVCWin32Exception@Win32@OnlineGameLib@@ 100459f4     ServerStage.obj
 0002:00006a90       __CTA2?AVCWin32Exception@Win32@OnlineGameLib@@ 10045a90     ServerStage.obj
 0002:00006a9c       __CT??_R0?AVCWin32Exception@Win32@OnlineGameLib@@@8??0CWin32Exception@Win32@OnlineGameLib@@QAE@ABV012@@Z64 10045a9c     ServerStage.obj
 0002:00006ab8       __CT??_R0?AVCException@Win32@OnlineGameLib@@@8??0CException@Win32@OnlineGameLib@@QAE@ABV012@@Z60 10045ab8     ServerStage.obj
 0002:00006dac       __TI1?AVCException@Win32@OnlineGameLib@@ 10045dac     common:SocketServer.obj
 0002:00006df0       __CTA1?AVCException@Win32@OnlineGameLib@@ 10045df0     common:SocketServer.obj
 0002:00007d74       __TI3?AVException@CSocket@Win32@OnlineGameLib@@ 10046d74     common:Socket.obj
 0002:00007db0       __CTA3?AVException@CSocket@Win32@OnlineGameLib@@ 10046db0     common:Socket.obj
 0002:00007dc0       __CT??_R0?AVException@CSocket@Win32@OnlineGameLib@@@8??0Exception@CSocket@Win32@OnlineGameLib@@QAE@ABV0123@@Z64 10046dc0     common:Socket.obj
 0002:000083e4       __TI2?AVbad_exception@std@@ 100473e4     LIBCMT:frame.obj
 0002:000083f4       __CTA2?AVbad_exception@std@@ 100473f4     LIBCMT:frame.obj
 0002:00008400       __CT??_R0?AVbad_exception@std@@@8??0bad_exception@std@@QAE@ABV01@@Z12 10047400     LIBCMT:frame.obj
 0002:00008b88       __TI3?AVinvalid_argument@std@@ 10047b88     libcpmt:string.obj
 0002:00008bc4       __CTA3?AVinvalid_argument@std@@ 10047bc4     libcpmt:string.obj
 0002:00008bd4       __CT??_R0?AVinvalid_argument@std@@@8??0invalid_argument@std@@QAE@ABV01@@Z40 10047bd4     libcpmt:string.obj
 0002:00008bf0       ___pobjMapEntryFirst       10047bf0     ServerStage.obj
 0002:00008bf4       ___pobjMapEntryLast        10047bf4     ServerStage.obj
 0002:00008bf8       __IMPORT_DESCRIPTOR_KERNEL32 10047bf8     kernel32:KERNEL32.dll
 0002:00008c0c       __IMPORT_DESCRIPTOR_WS2_32 10047c0c     ws2_32:WS2_32.dll
 0002:00008c20       __IMPORT_DESCRIPTOR_VERSION 10047c20     Version:VERSION.dll
 0002:00008c34       __IMPORT_DESCRIPTOR_USER32 10047c34     user32:USER32.dll
 0002:00008c48       __IMPORT_DESCRIPTOR_ADVAPI32 10047c48     advapi32:ADVAPI32.dll
 0002:00008c5c       __NULL_IMPORT_DESCRIPTOR   10047c5c     kernel32:KERNEL32.dll
 0003:00000004       ??_R0?AVbad_alloc@std@@@8  10049004     ServerStage.obj
 0003:00000020       ??_R0?AVexception@std@@@8  10049020     ServerStage.obj
 0003:0000003c       ??_R0?AVfacet@locale@std@@@8 1004903c     ServerStage.obj
 0003:0000005c       ??_R0?AUctype_base@std@@@8 1004905c     ServerStage.obj
 0003:0000007c       ??_R0?AVios_base@std@@@8   1004907c     ServerStage.obj
 0003:00000098       ??_R0?AV?$_Iosb@H@std@@@8  10049098     ServerStage.obj
 0003:000000b4       ??_R0?AUThank_you@Define_the_symbol__ATL_MIXED@@@8 100490b4     ServerStage.obj
 0003:000000f0       ??_R0?AVCServerFactory@@@8 100490f0     ServerStage.obj
 0003:00000110       ??_R0?AUIServerFactory@@@8 10049110     ServerStage.obj
 0003:00000130       ??_R0?AUIUnknown@@@8       10049130     ServerStage.obj
 0003:00000148       ??_R0?AV?$basic_ostream@DU?$char_traits@D@std@@@std@@@8 10049148     ServerStage.obj
 0003:00000184       ??_R0?AV?$basic_ios@DU?$char_traits@D@std@@@std@@@8 10049184     ServerStage.obj
 0003:000001bc       ??_R0?AV?$basic_istream@DU?$char_traits@D@std@@@std@@@8 100491bc     ServerStage.obj
 0003:000001f8       ??_R0?AV?$basic_iostream@DU?$char_traits@D@std@@@std@@@8 100491f8     ServerStage.obj
 0003:00000234       ??_R0?AV?$basic_streambuf@DU?$char_traits@D@std@@@std@@@8 10049234     ServerStage.obj
 0003:00000270       ??_R0?AVstrstreambuf@std@@@8 10049270     ServerStage.obj
 0003:00000290       ??_R0?AVstrstream@std@@@8  10049290     ServerStage.obj
 0003:000002ac       ??_R0?AVlogic_error@std@@@8 100492ac     ServerStage.obj
 0003:000002cc       ??_R0?AVruntime_error@std@@@8 100492cc     ServerStage.obj
 0003:000002ec       ??_R0?AVlength_error@std@@@8 100492ec     ServerStage.obj
 0003:0000030c       ??_R0?AVout_of_range@std@@@8 1004930c     ServerStage.obj
 0003:0000032c       ??_R0?AVfailure@ios_base@std@@@8 1004932c     ServerStage.obj
 0003:00000350       ??_R0?AV?$ctype@D@std@@@8  10049350     ServerStage.obj
 0003:0000036c       ??_R0?AVCException@Win32@OnlineGameLib@@@8 1004936c     ServerStage.obj
 0003:0000039c       ??_R0?AVbad_cast@std@@@8   1004939c     ServerStage.obj
 0003:000003b8       ??_R0?AV?$num_put@DV?$ostreambuf_iterator@DU?$char_traits@D@std@@@std@@@std@@@8 100493b8     ServerStage.obj
 0003:0000040c       ??_R0?AV?$numpunct@D@std@@@8 1004940c     ServerStage.obj
 0003:0000042c       ??_R0?AVCIOCPServer@@@8    1004942c     ServerStage.obj
 0003:00000448       ??_R0?AUIServer@@@8        10049448     ServerStage.obj
 0003:00000460       ??_R0?AVCSocketServer@Win32@OnlineGameLib@@@8 10049460     ServerStage.obj
 0003:00000490       ??_R0?AVCThread@Win32@OnlineGameLib@@@8 10049490     ServerStage.obj
 0003:000004bc       ??_R0?AVCUsesWinsock@Win32@OnlineGameLib@@@8 100494bc     ServerStage.obj
 0003:000004ec       ??_R0?AVAllocator@CIOBuffer@Win32@OnlineGameLib@@@8 100494ec     ServerStage.obj
 0003:00000528       ??_R0?AVCWin32Exception@Win32@OnlineGameLib@@@8 10049528     ServerStage.obj
 0003:0000055c       ?clash@Define_the_symbol__ATL_MIXED@@3UThank_you@1@A 1004955c     ServerStage.obj
 0003:00000564       ??_R0?AVWorkerThread@CSocketServer@Win32@OnlineGameLib@@@8 10049564     common:SocketServer.obj
 0003:000005c8       ??_R0?AV?$basic_filebuf@DU?$char_traits@D@std@@@std@@@8 100495c8     common:Utils.obj
 0003:00000604       ??_R0?AVcodecvt_base@std@@@8 10049604     common:Utils.obj
 0003:00000624       ??_R0?AV?$codecvt@DDH@std@@@8 10049624     common:Utils.obj
 0003:00000644       ??_R0?AV?$basic_fstream@DU?$char_traits@D@std@@@std@@@8 10049644     common:Utils.obj
 0003:0000068c       ??_R0?AVCEvent@Win32@OnlineGameLib@@@8 1004968c     common:Event.obj
 0003:000006cc       ??_R0?AVCManualResetEvent@Win32@OnlineGameLib@@@8 100496cc     common:ManualResetEvent.obj
 0003:00000704       ??_R0?AVException@CSocket@Win32@OnlineGameLib@@@8 10049704     common:Socket.obj
 0003:0000073c       ??_R0?AVbad_typeid@std@@@8 1004973c     LIBCMT:stdexcpt.obj
 0003:0000075c       ??_R0?AV__non_rtti_object@std@@@8 1004975c     LIBCMT:stdexcpt.obj
 0003:00000784       ??_R0?AVtype_info@@@8      10049784     LIBCMT:typinfo.obj
 0003:0000079c       ___security_cookie         1004979c     LIBCMT:gs_cookie.obj
 0003:000007a0       ___security_cookie_complement 100497a0     LIBCMT:gs_cookie.obj
 0003:000007b0       ___lconv_static_decimal    100497b0     LIBCMT:lconv.obj
 0003:000007b4       ___lconv_c                 100497b4     LIBCMT:lconv.obj
 0003:000007e4       ___lconv                   100497e4     LIBCMT:lconv.obj
 0003:000007f0       __fltused                  100497f0     LIBCMT:fpinit.obj
 0003:000007f4       __ldused                   100497f4     LIBCMT:fpinit.obj
 0003:00000980       __amblksiz                 10049980     LIBCMT:heapinit.obj
 0003:00000ab4       ??_R0?AVbad_exception@std@@@8 10049ab4     LIBCMT:frame.obj
 0003:00000ad4       ___flsindex                10049ad4     LIBCMT:tidtable.obj
 0003:00000ad8       ___getvalueindex           10049ad8     LIBCMT:tidtable.obj
 0003:00000ae4       ___globallocalestatus      10049ae4     LIBCMT:glstatus.obj
 0003:00000ae8       ___clocalestr              10049ae8     LIBCMT:nlsdata2.obj
 0003:00000af0       ___initiallocinfo          10049af0     LIBCMT:nlsdata2.obj
 0003:00000bc8       ___ptlocinfo               10049bc8     LIBCMT:nlsdata2.obj
 0003:00000bcc       ___lc_clike                10049bcc     LIBCMT:nlsdata2.obj
 0003:00000bd0       ___initiallocalestructinfo 10049bd0     LIBCMT:nlsdata2.obj
 0003:00000bd8       ___nullstring              10049bd8     LIBCMT:output.obj
 0003:00000bdc       ___wnullstring             10049bdc     LIBCMT:output.obj
 0003:00000be0       __cfltcvt_tab              10049be0     LIBCMT:cmiscdat.obj
 0003:00000c08       __aexit_rtn                10049c08     LIBCMT:crt0dat.obj
 0003:00000c10       __XcptActTab               10049c10     LIBCMT:winxfltr.obj
 0003:00000c88       __First_FPE_Indx           10049c88     LIBCMT:winxfltr.obj
 0003:00000c8c       __Num_FPE                  10049c8c     LIBCMT:winxfltr.obj
 0003:00000c90       __XcptActTabSize           10049c90     LIBCMT:winxfltr.obj
 0003:00000c94       __XcptActTabCount          10049c94     LIBCMT:winxfltr.obj
 0003:00000c98       ___badioinfo               10049c98     LIBCMT:ioinit.obj
 0003:00000cd0       ___abort_behavior          10049cd0     LIBCMT:abort.obj
 0003:00000d90       __iob                      10049d90     LIBCMT:_file.obj
 0003:00001010       ___initialmbcinfo          1004a010     LIBCMT:mbctype.obj
 0003:00001230       __mbctype                  1004a230     LIBCMT:mbctype.obj
 0003:00001338       __mbcasemap                1004a338     LIBCMT:mbctype.obj
 0003:00001438       ___ptmbcinfo               1004a438     LIBCMT:mbctype.obj
 0003:00001530       ??_R0?AVDNameNode@@@8      1004a530     LIBCMT:undname.obj
 0003:00001548       ??_R0?AVcharNode@@@8       1004a548     LIBCMT:undname.obj
 0003:00001560       ??_R0?AVpDNameNode@@@8     1004a560     LIBCMT:undname.obj
 0003:0000157c       ??_R0?AVDNameStatusNode@@@8 1004a57c     LIBCMT:undname.obj
 0003:0000159c       ??_R0?AVpcharNode@@@8      1004a59c     LIBCMT:undname.obj
 0003:000015b4       __NLG_Destination          1004a5b4     LIBCMT:exsup.obj
 0003:000015c4       __pctype                   1004a5c4     LIBCMT:ctype.obj
 0003:000015c8       __pwctype                  1004a5c8     LIBCMT:ctype.obj
 0003:000015d0       ___lc_time_c               1004a5d0     LIBCMT:strftime.obj
 0003:00001688       ___lc_time_curr            1004a688     LIBCMT:strftime.obj
 0003:0000168c       ___mb_cur_max              1004a68c     LIBCMT:nlsdata1.obj
 0003:00001690       ___decimal_point           1004a690     LIBCMT:nlsdata1.obj
 0003:00001694       ___decimal_point_length    1004a694     LIBCMT:nlsdata1.obj
 0003:000016a0       __lookuptrailbytes         1004a6a0     LIBCMT:read.obj
 0003:000017b0       __timezone                 1004a7b0     LIBCMT:timeset.obj
 0003:000017b4       __daylight                 1004a7b4     LIBCMT:timeset.obj
 0003:000017b8       __dstbias                  1004a7b8     LIBCMT:timeset.obj
 0003:00001840       __tzname                   1004a840     LIBCMT:timeset.obj
 0003:00001890       __coninpfh                 1004a890     LIBCMT:initcon.obj
 0003:00001894       __confh                    1004a894     LIBCMT:initcon.obj
 0003:00001898       __lpdays                   1004a898     LIBCMT:days.obj
 0003:000018cc       __days                     1004a8cc     LIBCMT:days.obj
 0003:00001900       __pow10pos                 1004a900     LIBCMT:constpow.obj
 0003:00001a60       __pow10neg                 1004aa60     LIBCMT:constpow.obj
 0003:00001be8       ??_R0?AV_Locimp@locale@std@@@8 1004abe8     libcpmt:locale0.obj
 0003:00001c10       ?_Sync@ios_base@std@@0_NA  1004ac10     libcpmt:ios.obj
 0003:00001c18       ??_R0?AVinvalid_argument@std@@@8 1004ac18     libcpmt:string.obj
 0003:00001c48       ?_PJP_CPP_Copyright@@3PADA 1004ac48     libcpmt:iosptrs.obj
 0003:00001ca4       ?g_pfnGetThreadACP@ATL@@3P6GIXZA 1004aca4     atls:atltrace.obj
 0003:00001ca8       ?rcDefault@CWindow@ATL@@2UtagRECT@@A 1004aca8     atls:atltrace.obj
 0003:00001cc0       ?_pAtlAutoThreadModule@ATL@@3PAUIAtlAutoThreadModule@1@A 1004acc0     ServerStage.obj
 0003:00001cc4       ?m_bInitFailed@CAtlBaseModule@ATL@@2_NA 1004acc4     ServerStage.obj
 0003:00001cc8       ?_pPerfRegFunc@ATL@@3P6AJPAUHINSTANCE__@@@ZA 1004acc8     ServerStage.obj
 0003:00001ccc       ?_pPerfUnRegFunc@ATL@@3P6AJXZA 1004accc     ServerStage.obj
 0003:00001cd0       ?_pAtlModule@ATL@@3PAVCAtlModule@1@A 1004acd0     ServerStage.obj
 0003:00001cd4       ?m_libid@CAtlModule@ATL@@2U_GUID@@A 1004acd4     ServerStage.obj
 0003:00001ce4       ?_pModule@ATL@@3PAVCComModule@1@A 1004ace4     ServerStage.obj
 0003:00001ce8       ?ATL_CREATE_OBJECT@CComApartment@ATL@@2IA 1004ace8     ServerStage.obj
 0003:00001cec       ?_Psave@?$_Facetptr@V?$ctype@D@std@@@std@@2PBVfacet@locale@2@B 1004acec     ServerStage.obj
 0003:00001cf0       ?_Psave@?$_Facetptr@V?$num_put@DV?$ostreambuf_iterator@DU?$char_traits@D@std@@@std@@@std@@@std@@2PBVfacet@locale@2@B 1004acf0     ServerStage.obj
 0003:00001cf4       ?_Psave@?$_Facetptr@V?$numpunct@D@std@@@std@@2PBVfacet@locale@2@B 1004acf4     ServerStage.obj
 0003:00001cf8       ?clash@Inconsistent_definition_of_symbol__ATL_MIXED@@3U_Please_define_it_the_same_throughout_your_project@1@A 1004acf8     ServerStage.obj
 0003:00001d00       ?id@?$num_put@DV?$ostreambuf_iterator@DU?$char_traits@D@std@@@std@@@std@@2V0locale@2@A 1004ad00     ServerStage.obj
 0003:00001d04       ?id@?$numpunct@D@std@@2V0locale@2@A 1004ad04     ServerStage.obj
 0003:00001d28       ?_Stinit@?1??_Init@?$basic_filebuf@DU?$char_traits@D@std@@@std@@IAEXPAU_iobuf@@W4_Initfl@23@@Z@4HA 1004ad28     common:Utils.obj
 0003:00001df0       ?_Psave@?$_Facetptr@V?$codecvt@DDH@std@@@std@@2PBVfacet@locale@2@B 1004adf0     common:Utils.obj
 0003:00001df4       ?id@?$codecvt@DDH@std@@2V0locale@2@A 1004adf4     common:Utils.obj
 0003:00001df8       ?s_criticalSection@Win32@OnlineGameLib@@3VCCriticalSection@12@A 1004adf8     common:Utils.obj
 0003:00001ea0       ___pInvalidArgHandler      1004aea0     LIBCMT:invarg.obj
 0003:00001eb4       ___lconv_static_null       1004aeb4     LIBCMT:lconv.obj
 0003:00001eb8       ___fastflag                1004aeb8     LIBCMT:fpinit.obj
 0003:00001ebc       __adjust_fdiv              1004aebc     LIBCMT:fpinit.obj
 0003:00001ec4       __aenvptr                  1004aec4     LIBCMT:dllcrt0.obj
 0003:00001ec8       __wenvptr                  1004aec8     LIBCMT:dllcrt0.obj
 0003:00001ecc       ___error_mode              1004aecc     LIBCMT:dllcrt0.obj
 0003:00001ed0       ___app_type                1004aed0     LIBCMT:dllcrt0.obj
 0003:00001edc       __crtheap                  1004aedc     LIBCMT:heapinit.obj
 0003:00002030       ___sbh_pHeaderDefer        1004b030     LIBCMT:sbheap.obj
 0003:00002034       _gpFlsAlloc                1004b034     LIBCMT:tidtable.obj
 0003:00002038       _gpFlsGetValue             1004b038     LIBCMT:tidtable.obj
 0003:0000203c       _gpFlsSetValue             1004b03c     LIBCMT:tidtable.obj
 0003:00002040       _gpFlsFree                 1004b040     LIBCMT:tidtable.obj
 0003:00002044       ?__pInconsistency@@3P6AXXZA 1004b044     LIBCMT:hooks.obj
 0003:0000236c       ?_pnhHeap@@3P6AHI@ZA       1004b36c     LIBCMT:handler.obj
 0003:00002370       ___locale_changed          1004b370     LIBCMT:setlocal.obj
 0003:00002374       ___lc_handle               1004b374     LIBCMT:nlsdata2.obj
 0003:0000238c       ___lc_codepage             1004b38c     LIBCMT:nlsdata2.obj
 0003:00002390       ___lc_collate_cp           1004b390     LIBCMT:nlsdata2.obj
 0003:00002394       __umaskval                 1004b394     LIBCMT:crt0dat.obj
 0003:00002398       __osplatform               1004b398     LIBCMT:crt0dat.obj
 0003:0000239c       __osver                    1004b39c     LIBCMT:crt0dat.obj
 0003:000023a0       __winver                   1004b3a0     LIBCMT:crt0dat.obj
 0003:000023a4       __winmajor                 1004b3a4     LIBCMT:crt0dat.obj
 0003:000023a8       __winminor                 1004b3a8     LIBCMT:crt0dat.obj
 0003:000023ac       ___argc                    1004b3ac     LIBCMT:crt0dat.obj
 0003:000023b0       ___argv                    1004b3b0     LIBCMT:crt0dat.obj
 0003:000023b4       ___wargv                   1004b3b4     LIBCMT:crt0dat.obj
 0003:000023b8       __environ                  1004b3b8     LIBCMT:crt0dat.obj
 0003:000023bc       ___initenv                 1004b3bc     LIBCMT:crt0dat.obj
 0003:000023c0       __wenviron                 1004b3c0     LIBCMT:crt0dat.obj
 0003:000023c4       ___winitenv                1004b3c4     LIBCMT:crt0dat.obj
 0003:000023c8       __pgmptr                   1004b3c8     LIBCMT:crt0dat.obj
 0003:000023cc       __wpgmptr                  1004b3cc     LIBCMT:crt0dat.obj
 0003:000023d0       __exitflag                 1004b3d0     LIBCMT:crt0dat.obj
 0003:000023d4       __C_Termination_Done       1004b3d4     LIBCMT:crt0dat.obj
 0003:000023d8       __C_Exit_Done              1004b3d8     LIBCMT:crt0dat.obj
 0003:000023dc       __maxwait                  1004b3dc     LIBCMT:crtheap.obj
 0003:0000280c       ___pPurecall               1004b80c     LIBCMT:inithelp.obj
 0003:00002810       __cflush                   1004b810     LIBCMT:_file.obj
 0003:00002818       ___mbulinfo                1004b818     LIBCMT:mbctype.obj
 0003:00002824       ___mbcodepage              1004b824     LIBCMT:mbctype.obj
 0003:00002828       ___ismbcodepage            1004b828     LIBCMT:mbctype.obj
 0003:0000282c       ___mblcid                  1004b82c     LIBCMT:mbctype.obj
 0003:00002834       __newmode                  1004b834     LIBCMT:_newmode.obj
 0003:0000284c       ?pArgList@UnDecorator@@0PAVReplicator@@A 1004b84c     LIBCMT:undname.obj
 0003:00002850       ?pZNameList@UnDecorator@@0PAVReplicator@@A 1004b850     LIBCMT:undname.obj
 0003:00002854       ?pTemplateArgList@UnDecorator@@0PAVReplicator@@A 1004b854     LIBCMT:undname.obj
 0003:00002858       ?gName@UnDecorator@@0PBDB  1004b858     LIBCMT:undname.obj
 0003:0000285c       ?name@UnDecorator@@0PBDB   1004b85c     LIBCMT:undname.obj
 0003:00002860       ?outputString@UnDecorator@@0PADA 1004b860     LIBCMT:undname.obj
 0003:00002864       ?maxStringLength@UnDecorator@@0HA 1004b864     LIBCMT:undname.obj
 0003:00002868       ?disableFlags@UnDecorator@@0KA 1004b868     LIBCMT:undname.obj
 0003:0000286c       ?m_pGetParameter@UnDecorator@@0P6APADJ@ZA 1004b86c     LIBCMT:undname.obj
 0003:00002870       ?fExplicitTemplateParams@UnDecorator@@0_NA 1004b870     LIBCMT:undname.obj
 0003:00002871       ?fGetTemplateArgumentList@UnDecorator@@0_NA 1004b871     LIBCMT:undname.obj
 0003:00002880       __outputformat             1004b880     LIBCMT:outputformat.obj
 0003:00002970       __stdbuf                   1004b970     LIBCMT:_sftbuf.obj
 0003:000029ec       ?_Clocptr@_Locimp@locale@std@@0PAV123@A 1004b9ec     libcpmt:locale0.obj
 0003:000029f0       ?_Id_cnt@id@locale@std@@0HA 1004b9f0     libcpmt:locale0.obj
 0003:000029f4       ?id@?$ctype@D@std@@2V0locale@2@A 1004b9f4     libcpmt:locale0.obj
 0003:000029f8       ?id@?$codecvt@GDH@std@@2V0locale@2@A 1004b9f8     libcpmt:locale0.obj
 0003:000029fc       ?id@?$ctype@_W@std@@2V0locale@2@A 1004b9fc     libcpmt:locale0.obj
 0003:00002a00       ?id@?$codecvt@_WDH@std@@2V0locale@2@A 1004ba00     libcpmt:locale0.obj
 0003:00002a08       ?id@?$ctype@G@std@@2V0locale@2@A 1004ba08     libcpmt:locale0.obj
 0003:00002a10       ?_Fpz@std@@3_JA            1004ba10     libcpmt:ios.obj
 0003:00002a18       ?_Index@ios_base@std@@0HA  1004ba18     libcpmt:ios.obj
 0003:00002b48       ?_Ptr_cin@std@@3PAV?$basic_istream@DU?$char_traits@D@std@@@1@A 1004bb48     libcpmt:iosptrs.obj
 0003:00002b4c       ?_Ptr_cout@std@@3PAV?$basic_ostream@DU?$char_traits@D@std@@@1@A 1004bb4c     libcpmt:iosptrs.obj
 0003:00002b50       ?_Ptr_cerr@std@@3PAV?$basic_ostream@DU?$char_traits@D@std@@@1@A 1004bb50     libcpmt:iosptrs.obj
 0003:00002b54       ?_Ptr_clog@std@@3PAV?$basic_ostream@DU?$char_traits@D@std@@@1@A 1004bb54     libcpmt:iosptrs.obj
 0003:00002b58       ?_Ptr_wcin@std@@3PAV?$basic_istream@_WU?$char_traits@_W@std@@@1@A 1004bb58     libcpmt:iosptrs.obj
 0003:00002b5c       ?_Ptr_wcout@std@@3PAV?$basic_ostream@_WU?$char_traits@_W@std@@@1@A 1004bb5c     libcpmt:iosptrs.obj
 0003:00002b60       ?_Ptr_wcerr@std@@3PAV?$basic_ostream@_WU?$char_traits@_W@std@@@1@A 1004bb60     libcpmt:iosptrs.obj
 0003:00002b64       ?_Ptr_wclog@std@@3PAV?$basic_ostream@_WU?$char_traits@_W@std@@@1@A 1004bb64     libcpmt:iosptrs.obj
 0003:00002b94       ___piob                    1004bb94     <common>
 0003:00002ba0       __bufin                    1004bba0     <common>
 0003:00003ba0       __nstream                  1004cba0     <common>
 0003:00003ba4       __nhandle                  1004cba4     <common>
 0003:00003bc0       ___pioinfo                 1004cbc0     <common>
 0003:00003cc0       ___env_initialized         1004ccc0     <common>
 0003:00003cc4       ___onexitend               1004ccc4     <common>
 0003:00003cc8       ___onexitbegin             1004ccc8     <common>
 0003:00003ccc       ___mbctype_initialized     1004cccc     <common>
 0003:00003cd0       ___dyn_tls_init_callback   1004ccd0     <common>
 0003:00003cd4       ___setlc_active            1004ccd4     <common>
 0003:00003cd8       ___unguarded_readlc_active 1004ccd8     <common>
 0003:00003cdc       ___use_sse2_mathfcns       1004ccdc     <common>
 0003:00003ce0       ___sse2_available          1004cce0     <common>
 0003:00003ce4       __debugger_hook_dummy      1004cce4     <common>
 0003:00003ce8       ___sbh_initialized         1004cce8     <common>
 0003:00003cec       ___sbh_cntHeaderList       1004ccec     <common>
 0003:00003cf0       ___sbh_pHeaderList         1004ccf0     <common>
 0003:00003cf4       ___sbh_threshold           1004ccf4     <common>
 0003:00003cf8       ___sbh_pHeaderScan         1004ccf8     <common>
 0003:00003cfc       ___sbh_sizeHeaderList      1004ccfc     <common>
 0003:00003d00       ___sbh_indGroupDefer       1004cd00     <common>
 0003:00003d04       ___active_heap             1004cd04     <common>
 0003:00003d08       __acmdln                   1004cd08     <common>

 entry point at        0001:00017242

 Static symbols

 0001:fffff000       __unwindfunclet$??$use_facet@V?$num_put@DV?$ostreambuf_iterator@DU?$char_traits@D@std@@@std@@@std@@@std@@YAABV?$num_put@DV?$ostreambuf_iterator@DU?$char_traits@D@std@@@std@@@0@ABVlocale@0@@Z$0 10000000 f   common:SocketAddress.obj
 0001:fffff000       __ehhandler$?_Copy@?$basic_string@DU?$char_traits@D@std@@V?$allocator@D@2@@std@@IAEXII@Z 10000000 f   libcpmt:locale0.obj
 0001:fffff000       __ehhandler$?_Copy@?$basic_string@DU?$char_traits@D@std@@V?$allocator@D@2@@std@@IAEXII@Z 10000000 f   common:Event.obj
 0001:fffff000       __unwindfunclet$??0CException@Win32@OnlineGameLib@@QAE@ABV012@@Z$0 10000000 f   common:Event.obj
 0001:fffff000       __unwindfunclet$??$?HDU?$char_traits@D@std@@V?$allocator@D@1@@std@@YA?AV?$basic_string@DU?$char_traits@D@std@@V?$allocator@D@2@@0@ABV10@0@Z$0 10000000 f   common:SocketAddress.obj
 0001:fffff000       __unwindfunclet$??0logic_error@std@@QAE@ABV01@@Z$0 10000000 f   libcpmt:string.obj
 0001:fffff000       __unwindfunclet$??0_Locinfo@std@@QAE@PBD@Z$0 10000000 f   common:SocketAddress.obj
 0001:fffff000       __unwindfunclet$??0logic_error@std@@QAE@ABV?$basic_string@DU?$char_traits@D@std@@V?$allocator@D@2@@1@@Z$0 10000000 f   libcpmt:string.obj
 0001:fffff000       __ehhandler$?_Copy@?$basic_string@DU?$char_traits@D@std@@V?$allocator@D@2@@std@@IAEXII@Z 10000000 f   libcpmt:string.obj
 0001:fffff000       __unwindfunclet$??0runtime_error@std@@QAE@ABV01@@Z$0 10000000 f   common:SocketAddress.obj
 0001:fffff000       __ehhandler$?_Copy@?$basic_string@DU?$char_traits@D@std@@V?$allocator@D@2@@std@@IAEXII@Z 10000000 f   common:Exception.obj
 0001:fffff000       __ehhandler$?_Copy@?$basic_string@DU?$char_traits@D@std@@V?$allocator@D@2@@std@@IAEXII@Z 10000000 f   common:IOBuffer.obj
 0001:fffff000       __unwindfunclet$??0?$basic_iostream@DU?$char_traits@D@std@@@std@@QAE@PAV?$basic_streambuf@DU?$char_traits@D@std@@@1@@Z$0 10000000 f   common:Utils.obj
 0001:fffff000       __unwindfunclet$??0logic_error@std@@QAE@ABV?$basic_string@DU?$char_traits@D@std@@V?$allocator@D@2@@1@@Z$0 10000000 f   common:IOBuffer.obj
 0001:fffff000       __unwindfunclet$??0?$ctype@D@std@@QAE@PBF_NI@Z$0 10000000 f   common:SocketAddress.obj
 0001:fffff000       __unwindfunclet$??0?$basic_istream@DU?$char_traits@D@std@@@std@@QAE@PAV?$basic_streambuf@DU?$char_traits@D@std@@@1@_N@Z$0 10000000 f   common:Utils.obj
 0001:fffff000       __unwindfunclet$?_Getcat@?$ctype@D@std@@SAIPAPBVfacet@locale@2@@Z$0 10000000 f   common:SocketAddress.obj
 0001:fffff000       __unwindfunclet$?widen@?$basic_ios@DU?$char_traits@D@std@@@std@@QBEDD@Z$0 10000000 f   common:Utils.obj
 0001:fffff000       __unwindfunclet$?clear@ios_base@std@@QAEXH_N@Z$0 10000000 f   common:SocketAddress.obj
 0001:fffff000       __unwindfunclet$??$use_facet@V?$ctype@D@std@@@std@@YAABV?$ctype@D@0@ABVlocale@0@@Z$0 10000000 f   common:Utils.obj
 0001:fffff000       __unwindfunclet$??$use_facet@V?$ctype@D@std@@@std@@YAABV?$ctype@D@0@ABVlocale@0@@Z$0 10000000 f   common:SocketAddress.obj
 0001:fffff000       __unwindfunclet$??0CException@Win32@OnlineGameLib@@QAE@ABV012@@Z$0 10000000 f   common:Utils.obj
 0001:fffff000       __unwindfunclet$??0?$num_put@DV?$ostreambuf_iterator@DU?$char_traits@D@std@@@std@@@std@@QAE@I@Z$0 10000000 f   common:SocketAddress.obj
 0001:fffff000       __unwindfunclet$?clear@ios_base@std@@QAEXH_N@Z$0 10000000 f   common:Utils.obj
 0001:fffff000       __unwindfunclet$??$?HDU?$char_traits@D@std@@V?$allocator@D@1@@std@@YA?AV?$basic_string@DU?$char_traits@D@std@@V?$allocator@D@2@@0@ABV10@PBD@Z$0 10000000 f   common:SocketAddress.obj
 0001:fffff000       __ehhandler$?_Init@?$numpunct@D@std@@IAEXABV_Locinfo@2@@Z 10000000 f   common:SocketAddress.obj
 0001:fffff000       __unwindfunclet$??0?$numpunct@D@std@@QAE@I@Z$0 10000000 f   common:SocketAddress.obj
 0001:fffff000       __unwindfunclet$?_Getcat@?$ctype@D@std@@SAIPAPBVfacet@locale@2@@Z$0 10000000 f   common:Utils.obj
 0001:fffff000       __unwindfunclet$?widen@?$basic_ios@DU?$char_traits@D@std@@@std@@QBEDD@Z$0 10000000 f   common:SocketAddress.obj
 0001:fffff000       __unwindfunclet$??0?$ctype@D@std@@QAE@PBF_NI@Z$0 10000000 f   common:Utils.obj
 0001:fffff000       __unwindfunclet$?_Getcat@?$num_put@DV?$ostreambuf_iterator@DU?$char_traits@D@std@@@std@@@std@@SAIPAPBVfacet@locale@2@@Z$0 10000000 f   common:SocketAddress.obj
 0001:fffff000       __unwindfunclet$??0runtime_error@std@@QAE@ABV01@@Z$0 10000000 f   common:Utils.obj
 0001:fffff000       __unwindfunclet$?erase@?$_Tree@V?$_Tmap_traits@IPAVCIOBuffer@Win32@OnlineGameLib@@U?$less@I@std@@V?$allocator@U?$pair@$$CBIPAVCIOBuffer@Win32@OnlineGameLib@@@std@@@5@$0A@@std@@@std@@QAE?AViterator@12@V312@@Z$0 10000000 f   common:IOBuffer.obj
 0001:fffff000       __unwindfunclet$??0_Locinfo@std@@QAE@PBD@Z$0 10000000 f   common:Utils.obj
 0001:fffff000       __unwindfunclet$?_Getcat@?$numpunct@D@std@@SAIPAPBVfacet@locale@2@@Z$0 10000000 f   common:SocketAddress.obj
 0001:fffff000       __unwindfunclet$??0sentry@?$basic_ostream@DU?$char_traits@D@std@@@std@@QAE@AAV12@@Z$0 10000000 f   common:SocketAddress.obj
 0001:fffff000       __ehhandler$?_Osfx@?$basic_ostream@DU?$char_traits@D@std@@@std@@QAEXXZ 10000000 f   common:SocketAddress.obj
 0001:fffff000       __unwindfunclet$??0logic_error@std@@QAE@ABV01@@Z$0 10000000 f   common:IOBuffer.obj
 0001:fffff000       __unwindfunclet$??0runtime_error@std@@QAE@ABV?$basic_string@DU?$char_traits@D@std@@V?$allocator@D@2@@1@@Z$0 10000000 f   common:SocketAddress.obj
 0001:fffff000       __unwindfunclet$??$use_facet@V?$numpunct@D@std@@@std@@YAABV?$numpunct@D@0@ABVlocale@0@@Z$0 10000000 f   common:SocketAddress.obj
 0001:fffff000       __unwindfunclet$??$?HDU?$char_traits@D@std@@V?$allocator@D@1@@std@@YA?AV?$basic_string@DU?$char_traits@D@std@@V?$allocator@D@2@@0@ABV10@0@Z$0 10000000 f   common:Utils.obj
 0001:fffff000       __unwindfunclet$??0?$basic_istream@DU?$char_traits@D@std@@@std@@QAE@PAV?$basic_streambuf@DU?$char_traits@D@std@@@1@_N@Z$0 10000000 f   common:SocketAddress.obj
 0001:fffff000       __unwindfunclet$??$?HDU?$char_traits@D@std@@V?$allocator@D@1@@std@@YA?AV?$basic_string@DU?$char_traits@D@std@@V?$allocator@D@2@@0@ABV10@PBD@Z$0 10000000 f   common:Utils.obj
 0001:fffff000       __unwindfunclet$??1_Locinfo@std@@QAE@XZ$0 10000000 f   common:SocketAddress.obj
 0001:fffff000       __unwindfunclet$??0runtime_error@std@@QAE@ABV?$basic_string@DU?$char_traits@D@std@@V?$allocator@D@2@@1@@Z$0 10000000 f   common:Utils.obj
 0001:fffff000       __unwindfunclet$??0CException@Win32@OnlineGameLib@@QAE@ABV012@@Z$0 10000000 f   common:IOBuffer.obj
 0001:fffff000       __unwindfunclet$??1_Locinfo@std@@QAE@XZ$0 10000000 f   common:Utils.obj
 0001:fffff000       __unwindfunclet$??0?$basic_iostream@DU?$char_traits@D@std@@@std@@QAE@PAV?$basic_streambuf@DU?$char_traits@D@std@@@1@@Z$0 10000000 f   common:SocketAddress.obj
 0001:fffff000       __unwindfunclet$??1sentry@?$basic_ostream@DU?$char_traits@D@std@@@std@@QAE@XZ$0 10000000 f   common:SocketAddress.obj
 0001:fffff000       __unwindfunclet$?do_put@?$num_put@DV?$ostreambuf_iterator@DU?$char_traits@D@std@@@std@@@std@@MBE?AV?$ostreambuf_iterator@DU?$char_traits@D@std@@@2@V32@AAVios_base@2@D_N@Z$0 10000000 f   common:SocketAddress.obj
 0001:fffff000       __ehhandler$?_Copy@?$basic_string@DU?$char_traits@D@std@@V?$allocator@D@2@@std@@IAEXII@Z 10000000 f   common:IOCompletionPort.obj
 0001:fffff000       __ehhandler$?_Copy@?$basic_string@DU?$char_traits@D@std@@V?$allocator@D@2@@std@@IAEXII@Z 10000000 f   common:Utils.obj
 0001:fffff000       __unwindfunclet$??0CException@Win32@OnlineGameLib@@QAE@ABV012@@Z$0 10000000 f   common:IOCompletionPort.obj
 0001:fffff000       __ehhandler$?_Copy@?$basic_string@DU?$char_traits@D@std@@V?$allocator@D@2@@std@@IAEXII@Z 10000000 f   common:SocketAddress.obj
 0001:fffff000       __unwindfunclet$?_Fput@?$num_put@DV?$ostreambuf_iterator@DU?$char_traits@D@std@@@std@@@std@@ABA?AV?$ostreambuf_iterator@DU?$char_traits@D@std@@@2@V32@AAVios_base@2@DPBDIIII@Z$0 10000000 f   common:SocketAddress.obj
 0001:fffff000       __unwindfunclet$??0?$basic_streambuf@DU?$char_traits@D@std@@@std@@IAE@XZ$0 10000000 f   common:Utils.obj
 0001:fffff000       __ehhandler$?_Copy@?$basic_string@DU?$char_traits@D@std@@V?$allocator@D@2@@std@@IAEXII@Z 10000000 f   common:Socket.obj
 0001:fffff000       __unwindfunclet$??0?$basic_ostream@DU?$char_traits@D@std@@@std@@QAE@W4_Uninitialized@1@_N@Z$0 10000000 f   common:Utils.obj
 0001:fffff000       __unwindfunclet$?_Iput@?$num_put@DV?$ostreambuf_iterator@DU?$char_traits@D@std@@@std@@@std@@ABA?AV?$ostreambuf_iterator@DU?$char_traits@D@std@@@2@V32@AAVios_base@2@DPADI@Z$0 10000000 f   common:SocketAddress.obj
 0001:fffff000       __unwindfunclet$??0CException@Win32@OnlineGameLib@@QAE@ABV012@@Z$0 10000000 f   common:UsesWinsock.obj
 0001:fffff000       __ehhandler$?_Copy@?$basic_string@DU?$char_traits@D@std@@V?$allocator@D@2@@std@@IAEXII@Z 10000000 f   common:UsesWinsock.obj
 0001:fffff000       __unwindfunclet$??0CException@Win32@OnlineGameLib@@QAE@ABV012@@Z$0 10000000 f   common:Socket.obj
 0001:fffff000       __unwindfunclet$??0strstream@std@@QAE@XZ$0 10000000 f   common:SocketAddress.obj
 0001:fffff000       __unwindfunclet$??1strstream@std@@UAE@XZ$0 10000000 f   common:SocketAddress.obj
 0001:fffff000       __unwindfunclet$??0CException@Win32@OnlineGameLib@@QAE@ABV012@@Z$0 10000000 f   common:Thread.obj
 0001:fffff000       __ehhandler$?_Copy@?$basic_string@DU?$char_traits@D@std@@V?$allocator@D@2@@std@@IAEXII@Z 10000000 f   common:Thread.obj
 0001:fffff000       __unwindfunclet$??0?$basic_ostream@DU?$char_traits@D@std@@@std@@QAE@W4_Uninitialized@1@_N@Z$0 10000000 f   common:SocketAddress.obj
 0001:fffff000       __unwindfunclet$??0?$basic_streambuf@DU?$char_traits@D@std@@@std@@IAE@XZ$0 10000000 f   common:SocketAddress.obj
 0001:fffff000       __unwindfunclet$?put@?$basic_ostream@DU?$char_traits@D@std@@@std@@QAEAAV12@D@Z$2 10000000 f   common:SocketAddress.obj
 0001:fffff000       __unwindfunclet$??0CException@Win32@OnlineGameLib@@QAE@ABV012@@Z$0 10000000 f   common:SocketServer.obj
 0001:fffff000       __unwindfunclet$??1strstreambuf@std@@UAE@XZ$0 10000000 f   common:SocketAddress.obj
 0001:fffff000       __unwindfunclet$??$?HDU?$char_traits@D@std@@V?$allocator@D@1@@std@@YA?AV?$basic_string@DU?$char_traits@D@std@@V?$allocator@D@2@@0@ABV10@0@Z$0 10000000 f   common:SocketServer.obj
 0001:fffff000       __ehhandler$?_Copy@?$basic_string@DU?$char_traits@D@std@@V?$allocator@D@2@@std@@IAEXII@Z 10000000 f   common:SocketServer.obj
 0001:fffff000       __unwindfunclet$??$?HDU?$char_traits@D@std@@V?$allocator@D@1@@std@@YA?AV?$basic_string@DU?$char_traits@D@std@@V?$allocator@D@2@@0@ABV10@PBD@Z$0 10000000 f   common:SocketServer.obj
 0001:fffff000       __unwindfunclet$??0logic_error@std@@QAE@ABV?$basic_string@DU?$char_traits@D@std@@V?$allocator@D@2@@1@@Z$0 10000000 f   common:SocketServer.obj
 0001:fffff000       __unwindfunclet$??$?HDU?$char_traits@D@std@@V?$allocator@D@1@@std@@YA?AV?$basic_string@DU?$char_traits@D@std@@V?$allocator@D@2@@0@PBDABV10@@Z$0 10000000 f   common:SocketServer.obj
 0001:fffff000       __unwindfunclet$??0logic_error@std@@QAE@ABV01@@Z$0 10000000 f   common:SocketServer.obj
 0001:fffff008       __ehhandler$??0logic_error@std@@QAE@ABV01@@Z 10000008 f   common:SocketServer.obj
 0001:fffff008       __ehhandler$??0logic_error@std@@QAE@ABV?$basic_string@DU?$char_traits@D@std@@V?$allocator@D@2@@1@@Z 10000008 f   common:SocketServer.obj
 0001:fffff008       __ehhandler$??$?HDU?$char_traits@D@std@@V?$allocator@D@1@@std@@YA?AV?$basic_string@DU?$char_traits@D@std@@V?$allocator@D@2@@0@PBDABV10@@Z 10000008 f   common:SocketServer.obj
 0001:fffff008       __ehhandler$??$?HDU?$char_traits@D@std@@V?$allocator@D@1@@std@@YA?AV?$basic_string@DU?$char_traits@D@std@@V?$allocator@D@2@@0@ABV10@PBD@Z 10000008 f   common:SocketServer.obj
 0001:fffff008       __ehhandler$??0logic_error@std@@QAE@ABV01@@Z 10000008 f   libcpmt:string.obj
 0001:fffff008       __ehhandler$??$?HDU?$char_traits@D@std@@V?$allocator@D@1@@std@@YA?AV?$basic_string@DU?$char_traits@D@std@@V?$allocator@D@2@@0@ABV10@0@Z 10000008 f   common:SocketServer.obj
 0001:fffff008       __ehhandler$?put@?$basic_ostream@DU?$char_traits@D@std@@@std@@QAEAAV12@D@Z 10000008 f   common:SocketAddress.obj
 0001:fffff008       __ehhandler$??1strstreambuf@std@@UAE@XZ 10000008 f   common:SocketAddress.obj
 0001:fffff008       __unwindfunclet$??0_Locinfo@std@@QAE@PBD@Z$1 10000008 f   common:SocketAddress.obj
 0001:fffff008       __ehhandler$??0logic_error@std@@QAE@ABV?$basic_string@DU?$char_traits@D@std@@V?$allocator@D@2@@1@@Z 10000008 f   libcpmt:string.obj
 0001:fffff008       __ehhandler$??$?HDU?$char_traits@D@std@@V?$allocator@D@1@@std@@YA?AV?$basic_string@DU?$char_traits@D@std@@V?$allocator@D@2@@0@ABV10@PBD@Z 10000008 f   common:SocketAddress.obj
 0001:fffff008       __ehhandler$??0runtime_error@std@@QAE@ABV01@@Z 10000008 f   common:SocketAddress.obj
 0001:fffff008       __ehhandler$??0logic_error@std@@QAE@ABV?$basic_string@DU?$char_traits@D@std@@V?$allocator@D@2@@1@@Z 10000008 f   common:IOBuffer.obj
 0001:fffff008       __ehhandler$?widen@?$basic_ios@DU?$char_traits@D@std@@@std@@QBEDD@Z 10000008 f   common:Utils.obj
 0001:fffff008       __unwindfunclet$?_Iput@?$num_put@DV?$ostreambuf_iterator@DU?$char_traits@D@std@@@std@@@std@@ABA?AV?$ostreambuf_iterator@DU?$char_traits@D@std@@@2@V32@AAVios_base@2@DPADI@Z$1 10000008 f   common:SocketAddress.obj
 0001:fffff008       __unwindfunclet$?clear@ios_base@std@@QAEXH_N@Z$1 10000008 f   common:SocketAddress.obj
 0001:fffff008       __ehhandler$??$use_facet@V?$ctype@D@std@@@std@@YAABV?$ctype@D@0@ABVlocale@0@@Z 10000008 f   common:Utils.obj
 0001:fffff008       __unwindfunclet$?_Fput@?$num_put@DV?$ostreambuf_iterator@DU?$char_traits@D@std@@@std@@@std@@ABA?AV?$ostreambuf_iterator@DU?$char_traits@D@std@@@2@V32@AAVios_base@2@DPBDIIII@Z$1 10000008 f   common:SocketAddress.obj
 0001:fffff008       __ehhandler$??$use_facet@V?$ctype@D@std@@@std@@YAABV?$ctype@D@0@ABVlocale@0@@Z 10000008 f   common:SocketAddress.obj
 0001:fffff008       __unwindfunclet$?clear@ios_base@std@@QAEXH_N@Z$1 10000008 f   common:Utils.obj
 0001:fffff008       __ehhandler$?widen@?$basic_ios@DU?$char_traits@D@std@@@std@@QBEDD@Z 10000008 f   common:SocketAddress.obj
 0001:fffff008       __unwindfunclet$?do_put@?$num_put@DV?$ostreambuf_iterator@DU?$char_traits@D@std@@@std@@@std@@MBE?AV?$ostreambuf_iterator@DU?$char_traits@D@std@@@2@V32@AAVios_base@2@D_N@Z$1 10000008 f   common:SocketAddress.obj
 0001:fffff008       __ehhandler$??0runtime_error@std@@QAE@ABV01@@Z 10000008 f   common:Utils.obj
 0001:fffff008       __unwindfunclet$??0_Locinfo@std@@QAE@PBD@Z$1 10000008 f   common:Utils.obj
 0001:fffff008       __ehhandler$??1sentry@?$basic_ostream@DU?$char_traits@D@std@@@std@@QAE@XZ 10000008 f   common:SocketAddress.obj
 0001:fffff008       __ehhandler$??0sentry@?$basic_ostream@DU?$char_traits@D@std@@@std@@QAE@AAV12@@Z 10000008 f   common:SocketAddress.obj
 0001:fffff008       __ehhandler$??0runtime_error@std@@QAE@ABV?$basic_string@DU?$char_traits@D@std@@V?$allocator@D@2@@1@@Z 10000008 f   common:SocketAddress.obj
 0001:fffff008       __unwindfunclet$??1_Locinfo@std@@QAE@XZ$1 10000008 f   common:Utils.obj
 0001:fffff008       __unwindfunclet$??1_Locinfo@std@@QAE@XZ$1 10000008 f   common:SocketAddress.obj
 0001:fffff008       __ehhandler$??0runtime_error@std@@QAE@ABV?$basic_string@DU?$char_traits@D@std@@V?$allocator@D@2@@1@@Z 10000008 f   common:Utils.obj
 0001:fffff008       __ehhandler$??$?HDU?$char_traits@D@std@@V?$allocator@D@1@@std@@YA?AV?$basic_string@DU?$char_traits@D@std@@V?$allocator@D@2@@0@ABV10@PBD@Z 10000008 f   common:Utils.obj
 0001:fffff008       __ehhandler$??$use_facet@V?$numpunct@D@std@@@std@@YAABV?$numpunct@D@0@ABVlocale@0@@Z 10000008 f   common:SocketAddress.obj
 0001:fffff008       __ehhandler$??$?HDU?$char_traits@D@std@@V?$allocator@D@1@@std@@YA?AV?$basic_string@DU?$char_traits@D@std@@V?$allocator@D@2@@0@ABV10@0@Z 10000008 f   common:Utils.obj
 0001:fffff008       __ehhandler$??$use_facet@V?$num_put@DV?$ostreambuf_iterator@DU?$char_traits@D@std@@@std@@@std@@@std@@YAABV?$num_put@DV?$ostreambuf_iterator@DU?$char_traits@D@std@@@std@@@0@ABVlocale@0@@Z 10000008 f   common:SocketAddress.obj
 0001:fffff008       __ehhandler$??0logic_error@std@@QAE@ABV01@@Z 10000008 f   common:IOBuffer.obj
 0001:fffff008       __ehhandler$?erase@?$_Tree@V?$_Tmap_traits@IPAVCIOBuffer@Win32@OnlineGameLib@@U?$less@I@std@@V?$allocator@U?$pair@$$CBIPAVCIOBuffer@Win32@OnlineGameLib@@@std@@@5@$0A@@std@@@std@@QAE?AViterator@12@V312@@Z 10000008 f   common:IOBuffer.obj
 0001:fffff008       __ehhandler$??$?HDU?$char_traits@D@std@@V?$allocator@D@1@@std@@YA?AV?$basic_string@DU?$char_traits@D@std@@V?$allocator@D@2@@0@ABV10@0@Z 10000008 f   common:SocketAddress.obj
 0001:fffff00b       __ehhandler$??0?$basic_streambuf@DU?$char_traits@D@std@@@std@@IAE@XZ 1000000b f   common:SocketAddress.obj
 0001:fffff00b       __ehhandler$??0CException@Win32@OnlineGameLib@@QAE@ABV012@@Z 1000000b f   common:SocketServer.obj
 0001:fffff00b       __ehhandler$?_Getcat@?$numpunct@D@std@@SAIPAPBVfacet@locale@2@@Z 1000000b f   common:SocketAddress.obj
 0001:fffff00b       __ehhandler$??0CException@Win32@OnlineGameLib@@QAE@ABV012@@Z 1000000b f   common:Thread.obj
 0001:fffff00b       __ehhandler$?_Getcat@?$num_put@DV?$ostreambuf_iterator@DU?$char_traits@D@std@@@std@@@std@@SAIPAPBVfacet@locale@2@@Z 1000000b f   common:SocketAddress.obj
 0001:fffff00b       __ehhandler$??0CException@Win32@OnlineGameLib@@QAE@ABV012@@Z 1000000b f   common:Socket.obj
 0001:fffff00b       __ehhandler$??0CException@Win32@OnlineGameLib@@QAE@ABV012@@Z 1000000b f   common:IOBuffer.obj
 0001:fffff00b       __ehhandler$??0?$ctype@D@std@@QAE@PBF_NI@Z 1000000b f   common:Utils.obj
 0001:fffff00b       __ehhandler$??0CException@Win32@OnlineGameLib@@QAE@ABV012@@Z 1000000b f   common:Event.obj
 0001:fffff00b       __ehhandler$?_Getcat@?$ctype@D@std@@SAIPAPBVfacet@locale@2@@Z 1000000b f   common:Utils.obj
 0001:fffff00b       __unwindfunclet$??0?$numpunct@D@std@@QAE@I@Z$1 1000000b f   common:SocketAddress.obj
 0001:fffff00b       __ehhandler$??1strstream@std@@UAE@XZ 1000000b f   common:SocketAddress.obj
 0001:fffff00b       __ehhandler$??0CException@Win32@OnlineGameLib@@QAE@ABV012@@Z 1000000b f   common:IOCompletionPort.obj
 0001:fffff00b       __ehhandler$??0?$num_put@DV?$ostreambuf_iterator@DU?$char_traits@D@std@@@std@@@std@@QAE@I@Z 1000000b f   common:SocketAddress.obj
 0001:fffff00b       __ehhandler$??0?$ctype@D@std@@QAE@PBF_NI@Z 1000000b f   common:SocketAddress.obj
 0001:fffff00b       __ehhandler$??0CException@Win32@OnlineGameLib@@QAE@ABV012@@Z 1000000b f   common:UsesWinsock.obj
 0001:fffff00b       __ehhandler$??0CException@Win32@OnlineGameLib@@QAE@ABV012@@Z 1000000b f   common:Utils.obj
 0001:fffff00b       __ehhandler$?_Getcat@?$ctype@D@std@@SAIPAPBVfacet@locale@2@@Z 1000000b f   common:SocketAddress.obj
 0001:fffff00b       __ehhandler$??0?$basic_streambuf@DU?$char_traits@D@std@@@std@@IAE@XZ 1000000b f   common:Utils.obj
 0001:fffff010       __unwindfunclet$?clear@ios_base@std@@QAEXH_N@Z$2 10000010 f   common:SocketAddress.obj
 0001:fffff010       __unwindfunclet$?do_put@?$num_put@DV?$ostreambuf_iterator@DU?$char_traits@D@std@@@std@@@std@@MBE?AV?$ostreambuf_iterator@DU?$char_traits@D@std@@@2@V32@AAVios_base@2@D_N@Z$2 10000010 f   common:SocketAddress.obj
 0001:fffff010       __unwindfunclet$?_Fput@?$num_put@DV?$ostreambuf_iterator@DU?$char_traits@D@std@@@std@@@std@@ABA?AV?$ostreambuf_iterator@DU?$char_traits@D@std@@@2@V32@AAVios_base@2@DPBDIIII@Z$2 10000010 f   common:SocketAddress.obj
 0001:fffff010       __unwindfunclet$?clear@ios_base@std@@QAEXH_N@Z$2 10000010 f   common:Utils.obj
 0001:fffff010       __ehhandler$?_Iput@?$num_put@DV?$ostreambuf_iterator@DU?$char_traits@D@std@@@std@@@std@@ABA?AV?$ostreambuf_iterator@DU?$char_traits@D@std@@@2@V32@AAVios_base@2@DPADI@Z 10000010 f   common:SocketAddress.obj
 0001:fffff013       __unwindfunclet$??1_Locinfo@std@@QAE@XZ$2 10000013 f   common:SocketAddress.obj
 0001:fffff013       __unwindfunclet$??0_Locinfo@std@@QAE@PBD@Z$2 10000013 f   common:SocketAddress.obj
 0001:fffff013       __unwindfunclet$??1_Locinfo@std@@QAE@XZ$2 10000013 f   common:Utils.obj
 0001:fffff013       __unwindfunclet$??0_Locinfo@std@@QAE@PBD@Z$2 10000013 f   common:Utils.obj
 0001:fffff016       __ehhandler$??0?$numpunct@D@std@@QAE@I@Z 10000016 f   common:SocketAddress.obj
 0001:fffff018       __ehhandler$?clear@ios_base@std@@QAEXH_N@Z 10000018 f   common:Utils.obj
 0001:fffff018       __ehhandler$?clear@ios_base@std@@QAEXH_N@Z 10000018 f   common:SocketAddress.obj
 0001:fffff018       __ehhandler$?_Fput@?$num_put@DV?$ostreambuf_iterator@DU?$char_traits@D@std@@@std@@@std@@ABA?AV?$ostreambuf_iterator@DU?$char_traits@D@std@@@2@V32@AAVios_base@2@DPBDIIII@Z 10000018 f   common:SocketAddress.obj
 0001:fffff018       __unwindfunclet$?do_put@?$num_put@DV?$ostreambuf_iterator@DU?$char_traits@D@std@@@std@@@std@@MBE?AV?$ostreambuf_iterator@DU?$char_traits@D@std@@@2@V32@AAVios_base@2@D_N@Z$3 10000018 f   common:SocketAddress.obj
 0001:fffff01c       __ehhandler$??0?$basic_ostream@DU?$char_traits@D@std@@@std@@QAE@W4_Uninitialized@1@_N@Z 1000001c f   common:Utils.obj
 0001:fffff01c       __unwindfunclet$??0strstream@std@@QAE@XZ$1 1000001c f   common:SocketAddress.obj
 0001:fffff01c       __ehhandler$??0?$basic_ostream@DU?$char_traits@D@std@@@std@@QAE@W4_Uninitialized@1@_N@Z 1000001c f   common:SocketAddress.obj
 0001:fffff01c       __unwindfunclet$??0?$basic_iostream@DU?$char_traits@D@std@@@std@@QAE@PAV?$basic_streambuf@DU?$char_traits@D@std@@@1@@Z$1 1000001c f   common:SocketAddress.obj
 0001:fffff01c       __unwindfunclet$??0?$basic_iostream@DU?$char_traits@D@std@@@std@@QAE@PAV?$basic_streambuf@DU?$char_traits@D@std@@@1@@Z$1 1000001c f   common:Utils.obj
 0001:fffff01c       __ehhandler$??0?$basic_istream@DU?$char_traits@D@std@@@std@@QAE@PAV?$basic_streambuf@DU?$char_traits@D@std@@@1@_N@Z 1000001c f   common:Utils.obj
 0001:fffff01c       __ehhandler$??0?$basic_istream@DU?$char_traits@D@std@@@std@@QAE@PAV?$basic_streambuf@DU?$char_traits@D@std@@@1@_N@Z 1000001c f   common:SocketAddress.obj
 0001:fffff01e       __unwindfunclet$??0_Locinfo@std@@QAE@PBD@Z$3 1000001e f   common:Utils.obj
 0001:fffff01e       __unwindfunclet$??1_Locinfo@std@@QAE@XZ$3 1000001e f   common:Utils.obj
 0001:fffff01e       __unwindfunclet$??0_Locinfo@std@@QAE@PBD@Z$3 1000001e f   common:SocketAddress.obj
 0001:fffff01e       __unwindfunclet$??1_Locinfo@std@@QAE@XZ$3 1000001e f   common:SocketAddress.obj
 0001:fffff020       __ehhandler$?do_put@?$num_put@DV?$ostreambuf_iterator@DU?$char_traits@D@std@@@std@@@std@@MBE?AV?$ostreambuf_iterator@DU?$char_traits@D@std@@@2@V32@AAVios_base@2@D_N@Z 10000020 f   common:SocketAddress.obj
 0001:fffff027       __ehhandler$??0strstream@std@@QAE@XZ 10000027 f   common:SocketAddress.obj
 0001:fffff027       __ehhandler$??0?$basic_iostream@DU?$char_traits@D@std@@@std@@QAE@PAV?$basic_streambuf@DU?$char_traits@D@std@@@1@@Z 10000027 f   common:SocketAddress.obj
 0001:fffff027       __ehhandler$??0?$basic_iostream@DU?$char_traits@D@std@@@std@@QAE@PAV?$basic_streambuf@DU?$char_traits@D@std@@@1@@Z 10000027 f   common:Utils.obj
 0001:fffff029       __unwindfunclet$??0_Locinfo@std@@QAE@PBD@Z$4 10000029 f   common:SocketAddress.obj
 0001:fffff029       __unwindfunclet$??1_Locinfo@std@@QAE@XZ$4 10000029 f   common:SocketAddress.obj
 0001:fffff029       __unwindfunclet$??0_Locinfo@std@@QAE@PBD@Z$4 10000029 f   common:Utils.obj
 0001:fffff029       __unwindfunclet$??1_Locinfo@std@@QAE@XZ$4 10000029 f   common:Utils.obj
 0001:fffff034       __unwindfunclet$??0_Locinfo@std@@QAE@PBD@Z$5 10000034 f   common:Utils.obj
 0001:fffff034       __ehhandler$??1_Locinfo@std@@QAE@XZ 10000034 f   common:Utils.obj
 0001:fffff034       __unwindfunclet$??0_Locinfo@std@@QAE@PBD@Z$5 10000034 f   common:SocketAddress.obj
 0001:fffff034       __ehhandler$??1_Locinfo@std@@QAE@XZ 10000034 f   common:SocketAddress.obj
 0001:fffff03c       __ehhandler$??0_Locinfo@std@@QAE@PBD@Z 1000003c f   common:SocketAddress.obj
 0001:fffff03c       __ehhandler$??0_Locinfo@std@@QAE@PBD@Z 1000003c f   common:Utils.obj
 0001:fffff053       __catch$?_Osfx@?$basic_ostream@DU?$char_traits@D@std@@@std@@QAEXXZ$0 10000053 f   common:SocketAddress.obj
 0001:fffff05b       __catch$?_Copy@?$basic_string@DU?$char_traits@D@std@@V?$allocator@D@2@@std@@IAEXII@Z$0 1000005b f   libcpmt:locale0.obj
 0001:fffff05b       __catch$?_Copy@?$basic_string@DU?$char_traits@D@std@@V?$allocator@D@2@@std@@IAEXII@Z$0 1000005b f   libcpmt:string.obj
 0001:fffff07d       __catch$?_Copy@?$basic_string@DU?$char_traits@D@std@@V?$allocator@D@2@@std@@IAEXII@Z$0 1000007d f   common:UsesWinsock.obj
 0001:fffff07d       __catch$?_Copy@?$basic_string@DU?$char_traits@D@std@@V?$allocator@D@2@@std@@IAEXII@Z$0 1000007d f   common:Utils.obj
 0001:fffff07d       __catch$?_Copy@?$basic_string@DU?$char_traits@D@std@@V?$allocator@D@2@@std@@IAEXII@Z$0 1000007d f   common:SocketServer.obj
 0001:fffff07d       __catch$?_Copy@?$basic_string@DU?$char_traits@D@std@@V?$allocator@D@2@@std@@IAEXII@Z$0 1000007d f   common:IOCompletionPort.obj
 0001:fffff07d       __catch$?_Copy@?$basic_string@DU?$char_traits@D@std@@V?$allocator@D@2@@std@@IAEXII@Z$0 1000007d f   common:Exception.obj
 0001:fffff07d       __catch$?_Copy@?$basic_string@DU?$char_traits@D@std@@V?$allocator@D@2@@std@@IAEXII@Z$0 1000007d f   common:Socket.obj
 0001:fffff07d       __catch$?_Copy@?$basic_string@DU?$char_traits@D@std@@V?$allocator@D@2@@std@@IAEXII@Z$0 1000007d f   common:IOBuffer.obj
 0001:fffff07d       __catch$?_Copy@?$basic_string@DU?$char_traits@D@std@@V?$allocator@D@2@@std@@IAEXII@Z$0 1000007d f   common:Thread.obj
 0001:fffff07d       __catch$?_Copy@?$basic_string@DU?$char_traits@D@std@@V?$allocator@D@2@@std@@IAEXII@Z$0 1000007d f   common:SocketAddress.obj
 0001:fffff07d       __catch$?_Copy@?$basic_string@DU?$char_traits@D@std@@V?$allocator@D@2@@std@@IAEXII@Z$0 1000007d f   common:Event.obj
 0001:fffff09b       __catch$?put@?$basic_ostream@DU?$char_traits@D@std@@@std@@QAEAAV12@D@Z$0 1000009b f   common:SocketAddress.obj
 0001:fffff0bf       __catch$?_Init@?$numpunct@D@std@@IAEXABV_Locinfo@2@@Z$0 100000bf f   common:SocketAddress.obj
 0001:fffff0cd       __catch$?_Copy@?$basic_string@DU?$char_traits@D@std@@V?$allocator@D@2@@std@@IAEXII@Z$1 100000cd f   libcpmt:locale0.obj
 0001:fffff0cd       __catch$?_Copy@?$basic_string@DU?$char_traits@D@std@@V?$allocator@D@2@@std@@IAEXII@Z$1 100000cd f   libcpmt:string.obj
 0001:fffff110       __catch$?_Copy@?$basic_string@DU?$char_traits@D@std@@V?$allocator@D@2@@std@@IAEXII@Z$1 10000110 f   common:SocketServer.obj
 0001:fffff110       __catch$?_Copy@?$basic_string@DU?$char_traits@D@std@@V?$allocator@D@2@@std@@IAEXII@Z$1 10000110 f   common:IOBuffer.obj
 0001:fffff110       __catch$?_Copy@?$basic_string@DU?$char_traits@D@std@@V?$allocator@D@2@@std@@IAEXII@Z$1 10000110 f   common:Event.obj
 0001:fffff110       __catch$?_Copy@?$basic_string@DU?$char_traits@D@std@@V?$allocator@D@2@@std@@IAEXII@Z$1 10000110 f   common:Socket.obj
 0001:fffff110       __catch$?_Copy@?$basic_string@DU?$char_traits@D@std@@V?$allocator@D@2@@std@@IAEXII@Z$1 10000110 f   common:Exception.obj
 0001:fffff110       __catch$?_Copy@?$basic_string@DU?$char_traits@D@std@@V?$allocator@D@2@@std@@IAEXII@Z$1 10000110 f   common:Thread.obj
 0001:fffff110       __catch$?_Copy@?$basic_string@DU?$char_traits@D@std@@V?$allocator@D@2@@std@@IAEXII@Z$1 10000110 f   common:Utils.obj
 0001:fffff110       __catch$?_Copy@?$basic_string@DU?$char_traits@D@std@@V?$allocator@D@2@@std@@IAEXII@Z$1 10000110 f   common:IOCompletionPort.obj
 0001:fffff110       __catch$?_Copy@?$basic_string@DU?$char_traits@D@std@@V?$allocator@D@2@@std@@IAEXII@Z$1 10000110 f   common:UsesWinsock.obj
 0001:fffff110       __catch$?_Copy@?$basic_string@DU?$char_traits@D@std@@V?$allocator@D@2@@std@@IAEXII@Z$1 10000110 f   common:SocketAddress.obj
 0001:00000780       _time                      10001780 f   ServerStage.obj
 0001:00000820       ?_Rand@@YAIXZ              10001820 f   ServerStage.obj
 0001:00000840       ?RandMemSet@@YAXHPAE@Z     10001840 f   ServerStage.obj
 0001:000039ed       __catch$?_Copy@?$basic_string@DU?$char_traits@D@std@@V?$allocator@D@2@@std@@IAEXII@Z$0 100049ed f i ServerStage.obj
 0001:00003a80       __catch$?_Copy@?$basic_string@DU?$char_traits@D@std@@V?$allocator@D@2@@std@@IAEXII@Z$1 10004a80 f i ServerStage.obj
 0001:00006064       __catch$?Startup@CIOCPServer@@UAGJXZ$0 10007064 f   ServerStage.obj
 0001:000060fc       __catch$?Startup@CIOCPServer@@UAGJXZ$1 100070fc f   ServerStage.obj
 0001:0000619d       __catch$?Cleanup@CIOCPServer@@UAGJXZ$0 1000719d f   ServerStage.obj
 0001:00006235       __catch$?Cleanup@CIOCPServer@@UAGJXZ$1 10007235 f   ServerStage.obj
 0001:000062da       __catch$?OpenServiceA@CIOCPServer@@UAGJABKABG@Z$0 100072da f   ServerStage.obj
 0001:00006372       __catch$?OpenServiceA@CIOCPServer@@UAGJABKABG@Z$1 10007372 f   ServerStage.obj
 0001:00006404       __catch$?CloseService@CIOCPServer@@UAGJXZ$0 10007404 f   ServerStage.obj
 0001:0000649c       __catch$?CloseService@CIOCPServer@@UAGJXZ$1 1000749c f   ServerStage.obj
 0001:00006591       __catch$?_SendDataEx@CIOCPServer@@AAE_NPAUtagClientNode@1@QBXABI@Z$0 10007591 f   ServerStage.obj
 0001:00006645       __catch$?_SendDataEx@CIOCPServer@@AAE_NPAUtagClientNode@1@QBXABI@Z$1 10007645 f   ServerStage.obj
 0001:0000719f       __catch$?_Init@?$numpunct@D@std@@IAEXABV_Locinfo@2@@Z$0 1000819f f i ServerStage.obj
 0001:00008413       __catch$?_Osfx@?$basic_ostream@DU?$char_traits@D@std@@@std@@QAEXXZ$0 10009413 f i ServerStage.obj
 0001:0000881b       __catch$?PackDataToClient@CIOCPServer@@UAGJABKQBXABI@Z$0 1000981b f   ServerStage.obj
 0001:000088c3       __catch$?PackDataToClient@CIOCPServer@@UAGJABKQBXABI@Z$1 100098c3 f   ServerStage.obj
 0001:00008aa4       __catch$?SendPackToClient@CIOCPServer@@UAGJABK@Z$0 10009aa4 f   ServerStage.obj
 0001:00008b5a       __catch$?SendPackToClient@CIOCPServer@@UAGJABK@Z$1 10009b5a f   ServerStage.obj
 0001:00008cf8       __catch$?SendData@CIOCPServer@@UAGJABKQBXABI@Z$0 10009cf8 f   ServerStage.obj
 0001:00008dac       __catch$?SendData@CIOCPServer@@UAGJABKQBXABI@Z$1 10009dac f   ServerStage.obj
 0001:00009713       __catch$??6?$basic_ostream@DU?$char_traits@D@std@@@std@@QAEAAV01@I@Z$0 1000a713 f i ServerStage.obj
 0001:00009873       __catch$??6?$basic_ostream@DU?$char_traits@D@std@@@std@@QAEAAV01@K@Z$0 1000a873 f i ServerStage.obj
 0001:0000a746       __catch$?ReadCompleted@CIOCPServer@@MAEXPAVSocket@CSocketServer@Win32@OnlineGameLib@@PAVCIOBuffer@45@@Z$0 1000b746 f   ServerStage.obj
 0001:0000a7ec       __catch$?ReadCompleted@CIOCPServer@@MAEXPAVSocket@CSocketServer@Win32@OnlineGameLib@@PAVCIOBuffer@45@@Z$1 1000b7ec f   ServerStage.obj
 0001:0000aa3b       __catch$?put@?$basic_ostream@DU?$char_traits@D@std@@@std@@QAEAAV12@D@Z$0 1000ba3b f i ServerStage.obj
 0001:0000b9e8       __catch$?_HelperAddClient@CIOCPServer@@AAE_NXZ$0 1000c9e8 f   ServerStage.obj
 0001:0000bda0       __catch$?_HelperDelClient@CIOCPServer@@AAE_NXZ$0 1000cda0 f   ServerStage.obj
 0001:0000be8e       __catch$?HelperThreadFunction@CIOCPServer@@CGIPAX@Z$0 1000ce8e f   ServerStage.obj
 0001:0000c449       __catch$?CreateServerInterface@CServerFactory@@UAGJABU_GUID@@PAPAX@Z$0 1000d449 f   ServerStage.obj
 0001:0000c6d0       ?CalculateNumberOfThreads@Win32@OnlineGameLib@@YAII@Z 1000d6d0 f   common:SocketServer.obj
 0001:0000caed       __catch$??1WorkerThread@CSocketServer@Win32@OnlineGameLib@@UAE@XZ$0 1000daed f   common:SocketServer.obj
 0001:0000e9fb       __catch$?Run@WorkerThread@CSocketServer@Win32@OnlineGameLib@@MAEHXZ$0 1000f9fb f   common:SocketServer.obj
 0001:0000eaad       __catch$?Run@WorkerThread@CSocketServer@Win32@OnlineGameLib@@MAEHXZ$1 1000faad f   common:SocketServer.obj
 0001:0000f575       __catch$??1Socket@CSocketServer@Win32@OnlineGameLib@@AAE@XZ$0 10010575 f   common:SocketServer.obj
 0001:0000fef2       __catch$?Run@CSocketServer@Win32@OnlineGameLib@@MAEHXZ$0 10010ef2 f   common:SocketServer.obj
 0001:0000ff91       __catch$?Run@CSocketServer@Win32@OnlineGameLib@@MAEHXZ$1 10010f91 f   common:SocketServer.obj
 0001:000130e5       __catch$?ThreadFunction@CThread@Win32@OnlineGameLib@@CGIPAX@Z$0 100140e5 f   common:Thread.obj
 0001:000138dd       __catch$?DestroyBuffer@Allocator@CIOBuffer@Win32@OnlineGameLib@@AAEXPAV234@@Z$0 100148dd f   common:IOBuffer.obj
 0001:00013aa8       __catch$??1Allocator@CIOBuffer@Win32@OnlineGameLib@@UAE@XZ$0 10014aa8 f   common:IOBuffer.obj
 0001:00014750       ?Create@Win32@OnlineGameLib@@YAPAXPAU_SECURITY_ATTRIBUTES@@_N1PBD@Z 10015750 f   common:Event.obj
 0001:00014cd4       __catch$??6?$basic_ostream@DU?$char_traits@D@std@@@std@@QAEAAV01@G@Z$0 10015cd4 f i common:SocketAddress.obj
 0001:00014e70       ?DeblockSockAddr@Win32@OnlineGameLib@@YA?AV?$basic_string@DU?$char_traits@D@std@@V?$allocator@D@2@@std@@PBUsockaddr@@@Z 10015e70 f   common:SocketAddress.obj
 0001:00015e1c       __catch$??1CSocket@Win32@OnlineGameLib@@QAE@XZ$0 10016e1c f   common:Socket.obj
 0001:00016476       ?CatchGuardHandler@@YA?AW4_EXCEPTION_DISPOSITION@@PAUEHExceptionRecord@@PAUCatchGuardRN@@PAX2@Z 10017476 f   LIBCMT:trnsctrl.obj
 0001:0001657b       ?TranslatorGuardHandler@@YA?AW4_EXCEPTION_DISPOSITION@@PAUEHExceptionRecord@@PAUTranslatorGuardRN@@PAX2@Z 1001757b f   LIBCMT:trnsctrl.obj
 0001:00016dd2       __callthreadstartex        10017dd2 f   LIBCMT:threadex.obj
 0001:00016e13       __threadstartex@4          10017e13 f   LIBCMT:threadex.obj
 0001:0001714c       ___DllMainCRTStartup       1001814c f   LIBCMT:dllcrt0.obj
 0001:00017e7f       _flsall                    10018e7f f   LIBCMT:fflush.obj
 0001:00018ce9       __onexit_nolock            10019ce9 f   LIBCMT:onexit.obj
 0001:0001ac60       _ValidateLocalCookies      1001bc60 f   LIBCMT:chandler4.obj
 0001:0001b05f       ?ExFilterRethrow@@YAHPAU_EXCEPTION_POINTERS@@@Z 1001c05f f   LIBCMT:frame.obj
 0001:0001b43e       ?IsInExceptionSpec@@YAEPAUEHExceptionRecord@@PBU_s_ESTypeList@@@Z 1001c43e f   LIBCMT:frame.obj
 0001:0001b4b7       ?CallUnexpected@@YAXPBU_s_ESTypeList@@@Z 1001c4b7 f   LIBCMT:frame.obj
 0001:0001b4e8       __catch$?CallUnexpected@@YAXPBU_s_ESTypeList@@@Z$0 1001c4e8 f   LIBCMT:frame.obj
 0001:0001b500       ?Is_bad_exception_allowed@@YAEPBU_s_ESTypeList@@@Z 1001c500 f   LIBCMT:frame.obj
 0001:0001b5b2       ?CallCatchBlock@@YAPAXPAUEHExceptionRecord@@PAUEHRegistrationNode@@PAU_CONTEXT@@PBU_s_FuncInfo@@PAXHK@Z 1001c5b2 f   LIBCMT:frame.obj
 0001:0001baa1       ?CatchIt@@YAXPAUEHExceptionRecord@@PAUEHRegistrationNode@@PAU_CONTEXT@@PAXPBU_s_FuncInfo@@PBU_s_HandlerType@@PBU_s_CatchableType@@PBU_s_TryBlockMapEntry@@H1E@Z 1001caa1 f   LIBCMT:frame.obj
 0001:0001bb0d       ?FindHandlerForForeignException@@YAXPAUEHExceptionRecord@@PAUEHRegistrationNode@@PAU_CONTEXT@@PAXPBU_s_FuncInfo@@HH1@Z 1001cb0d f   LIBCMT:frame.obj
 0001:0001bbff       ?FindHandler@@YAXPAUEHExceptionRecord@@PAUEHRegistrationNode@@PAU_CONTEXT@@PAXPBU_s_FuncInfo@@EH1@Z 1001cbff f   LIBCMT:frame.obj
 0001:0001c051       __use_encode_pointer       1001d051 f   LIBCMT:tidtable.obj
 0001:0001c91b       _fastzero_I                1001d91b f   LIBCMT:p4_memset.obj
 0001:0001cc87       __copytlocinfo_nolock      1001dc87 f   LIBCMT:setlocal.obj
 0001:0001ccab       __updatetlocinfoEx_nolock  1001dcab f   LIBCMT:setlocal.obj
 0001:0001cdc5       _sync_legacy_variables_lk  1001ddc5 f   LIBCMT:setlocal.obj
 0001:0001d115       __setlocale_get_all        1001e115 f   LIBCMT:setlocal.obj
 0001:0001d45a       __setlocale_set_cat        1001e45a f   LIBCMT:setlocal.obj
 0001:0001d750       __setlocale_nolock         1001e750 f   LIBCMT:setlocal.obj
 0001:0001dce6       _write_char                1001ece6 f   LIBCMT:output.obj
 0001:0001dd19       _write_multi_char          1001ed19 f   LIBCMT:output.obj
 0001:0001dd3d       _write_string              1001ed3d f   LIBCMT:output.obj
 0001:0001ed21       __shift                    1001fd21 f   LIBCMT:cvt.obj
 0001:0001ed5a       __cftoe2_l                 1001fd5a f   LIBCMT:cvt.obj
 0001:0001f342       __cftof2_l                 10020342 f   LIBCMT:cvt.obj
 0001:0001f92c       __initterm                 1002092c f   LIBCMT:crt0dat.obj
 0001:0001fb8b       _doexit                    10020b8b f   LIBCMT:crt0dat.obj
 0001:0001fcfa       _xcptlookup                10020cfa f   LIBCMT:winxfltr.obj
 0001:00020386       _parse_cmdline             10021386 f   LIBCMT:stdargv.obj
 0001:00020c56       ?strtoxl@@YAKPAUlocaleinfo_struct@@PBDPAPBDHH@Z 10021c56 f   LIBCMT:strtol.obj
 0001:00020f0a       ?strtoxq@@YA_KPAUlocaleinfo_struct@@PBDPAPBDHH@Z 10021f0a f   LIBCMT:strtoq.obj
 0001:00021227       _fastcopy_I                10022227 f   LIBCMT:p4_memcpy.obj
 0001:00022735       ?CPtoLCID@@YAHH@Z          10023735 f   LIBCMT:mbctype.obj
 0001:00022764       ?setSBCS@@YAXPAUthreadmbcinfostruct@@@Z 10023764 f   LIBCMT:mbctype.obj
 0001:000227b9       ?setSBUpLow@@YAXPAUthreadmbcinfostruct@@@Z 100237b9 f   LIBCMT:mbctype.obj
 0001:000229e7       ?getSystemCP@@YAHH@Z       100239e7 f   LIBCMT:mbctype.obj
 0001:00022e5b       ?strncnt@@YAHPBDH@Z        10023e5b f   LIBCMT:a_map.obj
 0001:00022e75       ?__crtLCMapStringA_stat@@YAHPAUlocaleinfo_struct@@KKPBDHPADHHH@Z 10023e75 f   LIBCMT:a_map.obj
 0001:00023f92       ?und_strlen@@YAIPBD@Z      10024f92 f   LIBCMT:undname.obj
 0001:00023fa0       ?und_strncpy@@YAPADPADPBDI@Z 10024fa0 f   LIBCMT:undname.obj
 0001:00023fc0       ?und_strncmp@@YAIPBD0I@Z   10024fc0 f   LIBCMT:undname.obj
 0001:000289f9       ___crtInitCritSecNoSpinCount@8 100299f9 f   LIBCMT:initcrit.obj
 0001:00028b60       __unwind_handler4          10029b60 f   LIBCMT:exsup4.obj
 0001:00028d74       __unwind_handler           10029d74 f   LIBCMT:exsup.obj
 0001:00028e8b       _has_osfxsr_set            10029e8b f   LIBCMT:cpu_disp.obj
 0001:00028f77       __get_lc_time              10029f77 f   LIBCMT:inittime.obj
 0001:00029593       _fix_grouping              1002a593 f   LIBCMT:initnum.obj
 0001:000297ce       _fix_grouping              1002a7ce f   LIBCMT:initmon.obj
 0001:0002a503       ?_store_str@@YAXPADPAPADPAI@Z 1002b503 f   LIBCMT:strftime.obj
 0001:0002a523       ?_store_number@@YAXHPAPADPAI@Z 1002b523 f   LIBCMT:strftime.obj
 0001:0002a559       ?_store_num@@YAXHHPAPADPAII@Z 1002b559 f   LIBCMT:strftime.obj
 0001:0002a5d2       ?_expandtime@@YAHPAUlocaleinfo_struct@@DPBUtm@@PAPADPAIPAU__lc_time_data@@I@Z 1002b5d2 f   LIBCMT:strftime.obj
 0001:0002a9b8       ?_store_winword@@YAHPAUlocaleinfo_struct@@HPBUtm@@PAPADPAIPAU__lc_time_data@@@Z 1002b9b8 f   LIBCMT:strftime.obj
 0001:0002b141       _TranslateName             1002c141 f   LIBCMT:getqloc.obj
 0001:0002b1a1       _GetLcidFromDefault        1002c1a1 f   LIBCMT:getqloc.obj
 0001:0002b1b5       _ProcessCodePage           1002c1b5 f   LIBCMT:getqloc.obj
 0001:0002b22c       _TestDefaultCountry        1002c22c f   LIBCMT:getqloc.obj
 0001:0002b24a       _LcidFromHexString         1002c24a f   LIBCMT:getqloc.obj
 0001:0002b27c       _GetPrimaryLen             1002c27c f   LIBCMT:getqloc.obj
 0001:0002b297       _CountryEnumProc@4         1002c297 f   LIBCMT:getqloc.obj
 0001:0002b32d       _TestDefaultLanguage       1002c32d f   LIBCMT:getqloc.obj
 0001:0002b39f       _LangCountryEnumProc@4     1002c39f f   LIBCMT:getqloc.obj
 0001:0002b56f       _LanguageEnumProc@4        1002c56f f   LIBCMT:getqloc.obj
 0001:0002b62e       _GetLcidFromCountry        1002c62e f   LIBCMT:getqloc.obj
 0001:0002b65a       _GetLcidFromLangCountry    1002c65a f   LIBCMT:getqloc.obj
 0001:0002b6bf       _GetLcidFromLanguage       1002c6bf f   LIBCMT:getqloc.obj
 0001:0002b8de       _cmpResult                 1002c8de f   LIBCMT:memcmp.obj
 0001:0002b8f0       _cmpBYTE                   1002c8f0 f   LIBCMT:memcmp.obj
 0001:0002b908       _cmpWORD                   1002c908 f   LIBCMT:memcmp.obj
 0001:0002b948       _cmpDWORD                  1002c948 f   LIBCMT:memcmp.obj
 0001:0002b9c0       _unaligned_memcmp          1002c9c0 f   LIBCMT:memcmp.obj
 0001:0002e4d0       ?__crtGetStringTypeA_stat@@YAHPAUlocaleinfo_struct@@KPBDHPAGHHH@Z 1002f4d0 f   LIBCMT:a_str.obj
 0001:0002eede       _write_char                1002fede f   LIBCMT:outputp.obj
 0001:0002ef11       _write_multi_char          1002ff11 f   LIBCMT:outputp.obj
 0001:0002ef35       _write_string              1002ff35 f   LIBCMT:outputp.obj
 0001:0002ff17       _write_char                10030f17 f   LIBCMT:outputs.obj
 0001:0002ff4a       _write_multi_char          10030f4a f   LIBCMT:outputs.obj
 0001:0002ff6e       _write_string              10030f6e f   LIBCMT:outputs.obj
 0001:000310eb       _ctrlevent_capture@4       100320eb f   LIBCMT:winsig.obj
 0001:00031186       _siglookup                 10032186 f   LIBCMT:winsig.obj
 0001:00031ac5       ?x_ismbbtype_l@@YAHPAUlocaleinfo_struct@@IHH@Z 10032ac5 f   LIBCMT:ismbbyte.obj
 0001:00031f32       ?__crtGetLocaleInfoW_stat@@YAHPAUlocaleinfo_struct@@KKPA_WHH@Z 10032f32 f   LIBCMT:w_loc.obj
 0001:000320a8       ?__crtGetLocaleInfoA_stat@@YAHPAUlocaleinfo_struct@@KKPADHH@Z 100330a8 f   LIBCMT:a_loc.obj
 0001:0003363b       __tzset_nolock             1003463b f   LIBCMT:tzset.obj
 0001:00033984       _cvtdate                   10034984 f   LIBCMT:tzset.obj
 0001:00033b79       __isindst_nolock           10034b79 f   LIBCMT:tzset.obj
 0001:00034093       _xtoa_s@20                 10035093 f   LIBCMT:xtoas.obj
 0001:000341d3       @x64toa_s@24               100351d3 f   LIBCMT:xtoas.obj
 0001:00036e9c       __abstract_cw              10037e9c f   LIBCMT:ieee87.obj
 0001:00036f30       __hw_cw                    10037f30 f   LIBCMT:ieee87.obj
 0001:00036fbe       __abstract_sw              10037fbe f   LIBCMT:ieee87.obj
 0001:00036ffc       ___abstract_cw_sse2        10037ffc f   LIBCMT:ieee87.obj
 0001:00037099       ___hw_cw_sse2              10038099 f   LIBCMT:ieee87.obj
 0001:00037139       ___abstract_sw_sse2        10038139 f   LIBCMT:ieee87.obj
 0001:00037177       ___fpreset_sse2            10038177 f   LIBCMT:ieee87.obj
 0001:00037249       ___statusfp_sse2           10038249 f   LIBCMT:ieee87.obj
 0001:00037284       ___clearfp_sse2            10038284 f   LIBCMT:ieee87.obj
 0001:000372cf       ___control87_sse2          100382cf f   LIBCMT:ieee87.obj
 0001:00037f09       ?__crtGetStringTypeW_stat@@YAHPAUlocaleinfo_struct@@KPB_WHPAGHH@Z 10038f09 f   LIBCMT:w_str.obj
 0001:000381ec       __getenv_s_helper          100391ec f   LIBCMT:getenv.obj
 0001:0003827f       __dupenv_s_helper          1003927f f   LIBCMT:getenv.obj
 0001:00038afe       ?strncnt@@YAHPBDH@Z        10039afe f   LIBCMT:a_cmp.obj
 0001:00038b18       ?__crtCompareStringA_stat@@YAHPAUlocaleinfo_struct@@KKPBDH1HH@Z 10039b18 f   LIBCMT:a_cmp.obj
 0001:00039000       _findenv                   1003a000 f   LIBCMT:setenv.obj
 0001:0003904d       _copy_environ              1003a04d f   LIBCMT:setenv.obj
 0001:00039932       _tidy_global               1003a932 f   libcpmt:locale0.obj
 0001:0003a04a       __CreateLocForCP           1003b04a f   libcpmt:xmbtowc.obj
 0001:0003a11c       __ReleaseCPLocHash         1003b11c f   libcpmt:xmbtowc.obj
 0001:0003a15a       __InitCPLocHash            1003b15a f   libcpmt:xmbtowc.obj
 0001:0003a6d0       __unwindfunclet$??0?$basic_ostream@DU?$char_traits@D@std@@@std@@QAE@W4_Uninitialized@1@_N@Z$0 1003b6d0 f   ServerStage.obj
 0001:0003a6ec       __ehhandler$??0?$basic_ostream@DU?$char_traits@D@std@@@std@@QAE@W4_Uninitialized@1@_N@Z 1003b6ec f   ServerStage.obj
 0001:0003a710       __unwindfunclet$??0?$basic_streambuf@DU?$char_traits@D@std@@@std@@IAE@XZ$0 1003b710 f   ServerStage.obj
 0001:0003a71b       __ehhandler$??0?$basic_streambuf@DU?$char_traits@D@std@@@std@@IAE@XZ 1003b71b f   ServerStage.obj
 0001:0003a740       __unwindfunclet$??1strstreambuf@std@@UAE@XZ$0 1003b740 f   ServerStage.obj
 0001:0003a748       __ehhandler$??1strstreambuf@std@@UAE@XZ 1003b748 f   ServerStage.obj
 0001:0003a770       __unwindfunclet$??1strstream@std@@UAE@XZ$0 1003b770 f   ServerStage.obj
 0001:0003a77b       __ehhandler$??1strstream@std@@UAE@XZ 1003b77b f   ServerStage.obj
 0001:0003a7a0       __ehhandler$?_Copy@?$basic_string@DU?$char_traits@D@std@@V?$allocator@D@2@@std@@IAEXII@Z 1003b7a0 f   ServerStage.obj
 0001:0003a7c0       __unwindfunclet$??1_Locinfo@std@@QAE@XZ$0 1003b7c0 f   ServerStage.obj
 0001:0003a7c8       __unwindfunclet$??1_Locinfo@std@@QAE@XZ$1 1003b7c8 f   ServerStage.obj
 0001:0003a7d3       __unwindfunclet$??1_Locinfo@std@@QAE@XZ$2 1003b7d3 f   ServerStage.obj
 0001:0003a7de       __unwindfunclet$??1_Locinfo@std@@QAE@XZ$3 1003b7de f   ServerStage.obj
 0001:0003a7e9       __unwindfunclet$??1_Locinfo@std@@QAE@XZ$4 1003b7e9 f   ServerStage.obj
 0001:0003a7f4       __ehhandler$??1_Locinfo@std@@QAE@XZ 1003b7f4 f   ServerStage.obj
 0001:0003a810       __unwindfunclet$??0logic_error@std@@QAE@ABV?$basic_string@DU?$char_traits@D@std@@V?$allocator@D@2@@1@@Z$0 1003b810 f   ServerStage.obj
 0001:0003a818       __ehhandler$??0logic_error@std@@QAE@ABV?$basic_string@DU?$char_traits@D@std@@V?$allocator@D@2@@1@@Z 1003b818 f   ServerStage.obj
 0001:0003a840       __unwindfunclet$??0runtime_error@std@@QAE@ABV?$basic_string@DU?$char_traits@D@std@@V?$allocator@D@2@@1@@Z$0 1003b840 f   ServerStage.obj
 0001:0003a848       __ehhandler$??0runtime_error@std@@QAE@ABV?$basic_string@DU?$char_traits@D@std@@V?$allocator@D@2@@1@@Z 1003b848 f   ServerStage.obj
 0001:0003a870       __unwindfunclet$?erase@?$_Tree@V?$_Tmap_traits@IPAUtagClientNode@CIOCPServer@@U?$less@I@std@@V?$allocator@U?$pair@$$CBIPAUtagClientNode@CIOCPServer@@@std@@@4@$0A@@std@@@std@@QAE?AViterator@12@V312@@Z$0 1003b870 f   ServerStage.obj
 0001:0003a878       __ehhandler$?erase@?$_Tree@V?$_Tmap_traits@IPAUtagClientNode@CIOCPServer@@U?$less@I@std@@V?$allocator@U?$pair@$$CBIPAUtagClientNode@CIOCPServer@@@std@@@4@$0A@@std@@@std@@QAE?AViterator@12@V312@@Z 1003b878 f   ServerStage.obj
 0001:0003a8a0       __unwindfunclet$??0logic_error@std@@QAE@ABV01@@Z$0 1003b8a0 f   ServerStage.obj
 0001:0003a8a8       __ehhandler$??0logic_error@std@@QAE@ABV01@@Z 1003b8a8 f   ServerStage.obj
 0001:0003a8d0       __unwindfunclet$?_Insert@?$_Tree@V?$_Tmap_traits@IPAUtagClientNode@CIOCPServer@@U?$less@I@std@@V?$allocator@U?$pair@$$CBIPAUtagClientNode@CIOCPServer@@@std@@@4@$0A@@std@@@std@@IAE?AViterator@12@_NPAU_Node@?$_Tree_nod@V?$_Tmap_traits@IPAUtagClientNode@CIOCPServer@@U?$less@I@std@@V?$allocator@U?$pair@$$CBIPAUtagClientNode@CIOCPServer@@@std@@@4@$0A@@std@@@2@ABU?$pair@$$CBIPAUtagClientNode@CIOCPServer@@@2@@Z$0 1003b8d0 f   ServerStage.obj
 0001:0003a8d8       __ehhandler$?_Insert@?$_Tree@V?$_Tmap_traits@IPAUtagClientNode@CIOCPServer@@U?$less@I@std@@V?$allocator@U?$pair@$$CBIPAUtagClientNode@CIOCPServer@@@std@@@4@$0A@@std@@@std@@IAE?AViterator@12@_NPAU_Node@?$_Tree_nod@V?$_Tmap_traits@IPAUtagClientNode@CIOCPServer@@U?$less@I@std@@V?$allocator@U?$pair@$$CBIPAUtagClientNode@CIOCPServer@@@std@@@4@$0A@@std@@@2@ABU?$pair@$$CBIPAUtagClientNode@CIOCPServer@@@2@@Z 1003b8d8 f   ServerStage.obj
 0001:0003a900       __unwindfunclet$?_Incsize@?$list@IV?$allocator@I@std@@@std@@IAEXI@Z$0 1003b900 f   ServerStage.obj
 0001:0003a908       __ehhandler$?_Incsize@?$list@IV?$allocator@I@std@@@std@@IAEXI@Z 1003b908 f   ServerStage.obj
 0001:0003a930       __unwindfunclet$?_Xlen@?$deque@IV?$allocator@I@std@@@std@@KAXXZ$0 1003b930 f   ServerStage.obj
 0001:0003a938       __ehhandler$?_Xlen@?$deque@IV?$allocator@I@std@@@std@@KAXXZ 1003b938 f   ServerStage.obj
 0001:0003a960       __unwindfunclet$?_Xlen@?$deque@PAXV?$allocator@PAX@std@@@std@@KAXXZ$0 1003b960 f   ServerStage.obj
 0001:0003a968       __ehhandler$?_Xlen@?$deque@PAXV?$allocator@PAX@std@@@std@@KAXXZ 1003b968 f   ServerStage.obj
 0001:0003a990       __unwindfunclet$??$?HDU?$char_traits@D@std@@V?$allocator@D@1@@std@@YA?AV?$basic_string@DU?$char_traits@D@std@@V?$allocator@D@2@@0@PBDABV10@@Z$0 1003b990 f   ServerStage.obj
 0001:0003a998       __ehhandler$??$?HDU?$char_traits@D@std@@V?$allocator@D@1@@std@@YA?AV?$basic_string@DU?$char_traits@D@std@@V?$allocator@D@2@@0@PBDABV10@@Z 1003b998 f   ServerStage.obj
 0001:0003a9c0       __unwindfunclet$??$?HDU?$char_traits@D@std@@V?$allocator@D@1@@std@@YA?AV?$basic_string@DU?$char_traits@D@std@@V?$allocator@D@2@@0@ABV10@PBD@Z$0 1003b9c0 f   ServerStage.obj
 0001:0003a9c8       __ehhandler$??$?HDU?$char_traits@D@std@@V?$allocator@D@1@@std@@YA?AV?$basic_string@DU?$char_traits@D@std@@V?$allocator@D@2@@0@ABV10@PBD@Z 1003b9c8 f   ServerStage.obj
 0001:0003a9f0       __unwindfunclet$??$?HDU?$char_traits@D@std@@V?$allocator@D@1@@std@@YA?AV?$basic_string@DU?$char_traits@D@std@@V?$allocator@D@2@@0@ABV10@0@Z$0 1003b9f0 f   ServerStage.obj
 0001:0003a9f8       __ehhandler$??$?HDU?$char_traits@D@std@@V?$allocator@D@1@@std@@YA?AV?$basic_string@DU?$char_traits@D@std@@V?$allocator@D@2@@0@ABV10@0@Z 1003b9f8 f   ServerStage.obj
 0001:0003aa20       __unwindfunclet$??0_Locinfo@std@@QAE@PBD@Z$0 1003ba20 f   ServerStage.obj
 0001:0003aa28       __unwindfunclet$??0_Locinfo@std@@QAE@PBD@Z$1 1003ba28 f   ServerStage.obj
 0001:0003aa33       __unwindfunclet$??0_Locinfo@std@@QAE@PBD@Z$2 1003ba33 f   ServerStage.obj
 0001:0003aa3e       __unwindfunclet$??0_Locinfo@std@@QAE@PBD@Z$3 1003ba3e f   ServerStage.obj
 0001:0003aa49       __unwindfunclet$??0_Locinfo@std@@QAE@PBD@Z$4 1003ba49 f   ServerStage.obj
 0001:0003aa54       __unwindfunclet$??0_Locinfo@std@@QAE@PBD@Z$5 1003ba54 f   ServerStage.obj
 0001:0003aa5c       __ehhandler$??0_Locinfo@std@@QAE@PBD@Z 1003ba5c f   ServerStage.obj
 0001:0003aa80       __unwindfunclet$??0runtime_error@std@@QAE@ABV01@@Z$0 1003ba80 f   ServerStage.obj
 0001:0003aa88       __ehhandler$??0runtime_error@std@@QAE@ABV01@@Z 1003ba88 f   ServerStage.obj
 0001:0003aab0       __unwindfunclet$??0?$ctype@D@std@@QAE@PBF_NI@Z$0 1003bab0 f   ServerStage.obj
 0001:0003aabb       __ehhandler$??0?$ctype@D@std@@QAE@PBF_NI@Z 1003babb f   ServerStage.obj
 0001:0003aaf0       __unwindfunclet$?_Getcat@?$ctype@D@std@@SAIPAPBVfacet@locale@2@@Z$0 1003baf0 f   ServerStage.obj
 0001:0003aafb       __ehhandler$?_Getcat@?$ctype@D@std@@SAIPAPBVfacet@locale@2@@Z 1003bafb f   ServerStage.obj
 0001:0003ab20       __unwindfunclet$?clear@ios_base@std@@QAEXH_N@Z$0 1003bb20 f   ServerStage.obj
 0001:0003ab28       __unwindfunclet$?clear@ios_base@std@@QAEXH_N@Z$1 1003bb28 f   ServerStage.obj
 0001:0003ab30       __unwindfunclet$?clear@ios_base@std@@QAEXH_N@Z$2 1003bb30 f   ServerStage.obj
 0001:0003ab38       __ehhandler$?clear@ios_base@std@@QAEXH_N@Z 1003bb38 f   ServerStage.obj
 0001:0003ab60       __unwindfunclet$?Startup@CIOCPServer@@UAGJXZ$3 1003bb60 f   ServerStage.obj
 0001:0003ab68       __unwindfunclet$?Startup@CIOCPServer@@UAGJXZ$4 1003bb68 f   ServerStage.obj
 0001:0003ab70       __unwindfunclet$?Startup@CIOCPServer@@UAGJXZ$5 1003bb70 f   ServerStage.obj
 0001:0003ab78       __unwindfunclet$?Startup@CIOCPServer@@UAGJXZ$6 1003bb78 f   ServerStage.obj
 0001:0003ab80       __unwindfunclet$?Startup@CIOCPServer@@UAGJXZ$7 1003bb80 f   ServerStage.obj
 0001:0003ab88       __unwindfunclet$?Startup@CIOCPServer@@UAGJXZ$8 1003bb88 f   ServerStage.obj
 0001:0003ab90       __ehhandler$?Startup@CIOCPServer@@UAGJXZ 1003bb90 f   ServerStage.obj
 0001:0003abb0       __unwindfunclet$?Cleanup@CIOCPServer@@UAGJXZ$3 1003bbb0 f   ServerStage.obj
 0001:0003abb8       __unwindfunclet$?Cleanup@CIOCPServer@@UAGJXZ$4 1003bbb8 f   ServerStage.obj
 0001:0003abc0       __unwindfunclet$?Cleanup@CIOCPServer@@UAGJXZ$5 1003bbc0 f   ServerStage.obj
 0001:0003abc8       __unwindfunclet$?Cleanup@CIOCPServer@@UAGJXZ$6 1003bbc8 f   ServerStage.obj
 0001:0003abd0       __unwindfunclet$?Cleanup@CIOCPServer@@UAGJXZ$7 1003bbd0 f   ServerStage.obj
 0001:0003abd8       __unwindfunclet$?Cleanup@CIOCPServer@@UAGJXZ$8 1003bbd8 f   ServerStage.obj
 0001:0003abe0       __ehhandler$?Cleanup@CIOCPServer@@UAGJXZ 1003bbe0 f   ServerStage.obj
 0001:0003ac00       __unwindfunclet$?OpenServiceA@CIOCPServer@@UAGJABKABG@Z$3 1003bc00 f   ServerStage.obj
 0001:0003ac08       __unwindfunclet$?OpenServiceA@CIOCPServer@@UAGJABKABG@Z$4 1003bc08 f   ServerStage.obj
 0001:0003ac10       __unwindfunclet$?OpenServiceA@CIOCPServer@@UAGJABKABG@Z$5 1003bc10 f   ServerStage.obj
 0001:0003ac18       __unwindfunclet$?OpenServiceA@CIOCPServer@@UAGJABKABG@Z$6 1003bc18 f   ServerStage.obj
 0001:0003ac20       __unwindfunclet$?OpenServiceA@CIOCPServer@@UAGJABKABG@Z$7 1003bc20 f   ServerStage.obj
 0001:0003ac28       __unwindfunclet$?OpenServiceA@CIOCPServer@@UAGJABKABG@Z$8 1003bc28 f   ServerStage.obj
 0001:0003ac30       __ehhandler$?OpenServiceA@CIOCPServer@@UAGJABKABG@Z 1003bc30 f   ServerStage.obj
 0001:0003ac50       __unwindfunclet$?CloseService@CIOCPServer@@UAGJXZ$3 1003bc50 f   ServerStage.obj
 0001:0003ac58       __unwindfunclet$?CloseService@CIOCPServer@@UAGJXZ$4 1003bc58 f   ServerStage.obj
 0001:0003ac60       __unwindfunclet$?CloseService@CIOCPServer@@UAGJXZ$5 1003bc60 f   ServerStage.obj
 0001:0003ac68       __unwindfunclet$?CloseService@CIOCPServer@@UAGJXZ$6 1003bc68 f   ServerStage.obj
 0001:0003ac70       __unwindfunclet$?CloseService@CIOCPServer@@UAGJXZ$7 1003bc70 f   ServerStage.obj
 0001:0003ac78       __unwindfunclet$?CloseService@CIOCPServer@@UAGJXZ$8 1003bc78 f   ServerStage.obj
 0001:0003ac80       __ehhandler$?CloseService@CIOCPServer@@UAGJXZ 1003bc80 f   ServerStage.obj
 0001:0003aca0       __unwindfunclet$?_SendDataEx@CIOCPServer@@AAE_NPAUtagClientNode@1@QBXABI@Z$3 1003bca0 f   ServerStage.obj
 0001:0003aca8       __unwindfunclet$?_SendDataEx@CIOCPServer@@AAE_NPAUtagClientNode@1@QBXABI@Z$4 1003bca8 f   ServerStage.obj
 0001:0003acb0       __unwindfunclet$?_SendDataEx@CIOCPServer@@AAE_NPAUtagClientNode@1@QBXABI@Z$5 1003bcb0 f   ServerStage.obj
 0001:0003acb8       __unwindfunclet$?_SendDataEx@CIOCPServer@@AAE_NPAUtagClientNode@1@QBXABI@Z$6 1003bcb8 f   ServerStage.obj
 0001:0003acc0       __unwindfunclet$?_SendDataEx@CIOCPServer@@AAE_NPAUtagClientNode@1@QBXABI@Z$7 1003bcc0 f   ServerStage.obj
 0001:0003acc8       __unwindfunclet$?_SendDataEx@CIOCPServer@@AAE_NPAUtagClientNode@1@QBXABI@Z$8 1003bcc8 f   ServerStage.obj
 0001:0003acd0       __ehhandler$?_SendDataEx@CIOCPServer@@AAE_NPAUtagClientNode@1@QBXABI@Z 1003bcd0 f   ServerStage.obj
 0001:0003acf0       __unwindfunclet$??$use_facet@V?$ctype@D@std@@@std@@YAABV?$ctype@D@0@ABVlocale@0@@Z$0 1003bcf0 f   ServerStage.obj
 0001:0003acf8       __ehhandler$??$use_facet@V?$ctype@D@std@@@std@@YAABV?$ctype@D@0@ABVlocale@0@@Z 1003bcf8 f   ServerStage.obj
 0001:0003ad20       __unwindfunclet$??0?$num_put@DV?$ostreambuf_iterator@DU?$char_traits@D@std@@@std@@@std@@QAE@I@Z$0 1003bd20 f   ServerStage.obj
 0001:0003ad2b       __ehhandler$??0?$num_put@DV?$ostreambuf_iterator@DU?$char_traits@D@std@@@std@@@std@@QAE@I@Z 1003bd2b f   ServerStage.obj
 0001:0003ad60       __ehhandler$?_Init@?$numpunct@D@std@@IAEXABV_Locinfo@2@@Z 1003bd60 f   ServerStage.obj
 0001:0003ad80       __unwindfunclet$??0?$numpunct@D@std@@QAE@I@Z$0 1003bd80 f   ServerStage.obj
 0001:0003ad8b       __unwindfunclet$??0?$numpunct@D@std@@QAE@I@Z$1 1003bd8b f   ServerStage.obj
 0001:0003ad96       __ehhandler$??0?$numpunct@D@std@@QAE@I@Z 1003bd96 f   ServerStage.obj
 0001:0003add0       __unwindfunclet$?widen@?$basic_ios@DU?$char_traits@D@std@@@std@@QBEDD@Z$0 1003bdd0 f   ServerStage.obj
 0001:0003add8       __ehhandler$?widen@?$basic_ios@DU?$char_traits@D@std@@@std@@QBEDD@Z 1003bdd8 f   ServerStage.obj
 0001:0003ae00       __unwindfunclet$?_Getcat@?$num_put@DV?$ostreambuf_iterator@DU?$char_traits@D@std@@@std@@@std@@SAIPAPBVfacet@locale@2@@Z$0 1003be00 f   ServerStage.obj
 0001:0003ae0b       __ehhandler$?_Getcat@?$num_put@DV?$ostreambuf_iterator@DU?$char_traits@D@std@@@std@@@std@@SAIPAPBVfacet@locale@2@@Z 1003be0b f   ServerStage.obj
 0001:0003ae30       __unwindfunclet$?_Getcat@?$numpunct@D@std@@SAIPAPBVfacet@locale@2@@Z$0 1003be30 f   ServerStage.obj
 0001:0003ae3b       __ehhandler$?_Getcat@?$numpunct@D@std@@SAIPAPBVfacet@locale@2@@Z 1003be3b f   ServerStage.obj
 0001:0003ae60       __unwindfunclet$??1CIOCPServer@@UAE@XZ$2 1003be60 f   ServerStage.obj
 0001:0003ae87       __unwindfunclet$??1CIOCPServer@@UAE@XZ$3 1003be87 f   ServerStage.obj
 0001:0003ae95       __unwindfunclet$??1CIOCPServer@@UAE@XZ$4 1003be95 f   ServerStage.obj
 0001:0003aea3       __unwindfunclet$??1CIOCPServer@@UAE@XZ$5 1003bea3 f   ServerStage.obj
 0001:0003aeb1       __unwindfunclet$??1CIOCPServer@@UAE@XZ$6 1003beb1 f   ServerStage.obj
 0001:0003aebf       __unwindfunclet$??1CIOCPServer@@UAE@XZ$7 1003bebf f   ServerStage.obj
 0001:0003aecd       __unwindfunclet$??1CIOCPServer@@UAE@XZ$8 1003becd f   ServerStage.obj
 0001:0003aedb       __unwindfunclet$??1CIOCPServer@@UAE@XZ$9 1003bedb f   ServerStage.obj
 0001:0003aee9       __unwindfunclet$??1CIOCPServer@@UAE@XZ$10 1003bee9 f   ServerStage.obj
 0001:0003aef7       __unwindfunclet$??1CIOCPServer@@UAE@XZ$11 1003bef7 f   ServerStage.obj
 0001:0003af05       __unwindfunclet$??1CIOCPServer@@UAE@XZ$13 1003bf05 f   ServerStage.obj
 0001:0003af0d       __ehhandler$??1CIOCPServer@@UAE@XZ 1003bf0d f   ServerStage.obj
 0001:0003af30       __unwindfunclet$??0sentry@?$basic_ostream@DU?$char_traits@D@std@@@std@@QAE@AAV12@@Z$0 1003bf30 f   ServerStage.obj
 0001:0003af38       __ehhandler$??0sentry@?$basic_ostream@DU?$char_traits@D@std@@@std@@QAE@AAV12@@Z 1003bf38 f   ServerStage.obj
 0001:0003af60       __ehhandler$?_Osfx@?$basic_ostream@DU?$char_traits@D@std@@@std@@QAEXXZ 1003bf60 f   ServerStage.obj
 0001:0003af80       __unwindfunclet$??$use_facet@V?$num_put@DV?$ostreambuf_iterator@DU?$char_traits@D@std@@@std@@@std@@@std@@YAABV?$num_put@DV?$ostreambuf_iterator@DU?$char_traits@D@std@@@std@@@0@ABVlocale@0@@Z$0 1003bf80 f   ServerStage.obj
 0001:0003af88       __ehhandler$??$use_facet@V?$num_put@DV?$ostreambuf_iterator@DU?$char_traits@D@std@@@std@@@std@@@std@@YAABV?$num_put@DV?$ostreambuf_iterator@DU?$char_traits@D@std@@@std@@@0@ABVlocale@0@@Z 1003bf88 f   ServerStage.obj
 0001:0003afb0       __unwindfunclet$??$use_facet@V?$numpunct@D@std@@@std@@YAABV?$numpunct@D@0@ABVlocale@0@@Z$0 1003bfb0 f   ServerStage.obj
 0001:0003afb8       __ehhandler$??$use_facet@V?$numpunct@D@std@@@std@@YAABV?$numpunct@D@0@ABVlocale@0@@Z 1003bfb8 f   ServerStage.obj
 0001:0003afe0       __unwindfunclet$?Push@CTaskQueue@CIOCPServer@@QAEXPAX@Z$0 1003bfe0 f   ServerStage.obj
 0001:0003afe8       __ehhandler$?Push@CTaskQueue@CIOCPServer@@QAEXPAX@Z 1003bfe8 f   ServerStage.obj
 0001:0003b010       __unwindfunclet$?PackDataToClient@CIOCPServer@@UAGJABKQBXABI@Z$3 1003c010 f   ServerStage.obj
 0001:0003b018       __unwindfunclet$?PackDataToClient@CIOCPServer@@UAGJABKQBXABI@Z$4 1003c018 f   ServerStage.obj
 0001:0003b020       __unwindfunclet$?PackDataToClient@CIOCPServer@@UAGJABKQBXABI@Z$5 1003c020 f   ServerStage.obj
 0001:0003b028       __unwindfunclet$?PackDataToClient@CIOCPServer@@UAGJABKQBXABI@Z$6 1003c028 f   ServerStage.obj
 0001:0003b030       __unwindfunclet$?PackDataToClient@CIOCPServer@@UAGJABKQBXABI@Z$7 1003c030 f   ServerStage.obj
 0001:0003b038       __unwindfunclet$?PackDataToClient@CIOCPServer@@UAGJABKQBXABI@Z$8 1003c038 f   ServerStage.obj
 0001:0003b040       __unwindfunclet$?PackDataToClient@CIOCPServer@@UAGJABKQBXABI@Z$9 1003c040 f   ServerStage.obj
 0001:0003b048       __unwindfunclet$?PackDataToClient@CIOCPServer@@UAGJABKQBXABI@Z$10 1003c048 f   ServerStage.obj
 0001:0003b050       __ehhandler$?PackDataToClient@CIOCPServer@@UAGJABKQBXABI@Z 1003c050 f   ServerStage.obj
 0001:0003b070       __unwindfunclet$?SendPackToClient@CIOCPServer@@UAGJABK@Z$3 1003c070 f   ServerStage.obj
 0001:0003b078       __unwindfunclet$?SendPackToClient@CIOCPServer@@UAGJABK@Z$4 1003c078 f   ServerStage.obj
 0001:0003b080       __unwindfunclet$?SendPackToClient@CIOCPServer@@UAGJABK@Z$5 1003c080 f   ServerStage.obj
 0001:0003b088       __unwindfunclet$?SendPackToClient@CIOCPServer@@UAGJABK@Z$6 1003c088 f   ServerStage.obj
 0001:0003b090       __unwindfunclet$?SendPackToClient@CIOCPServer@@UAGJABK@Z$7 1003c090 f   ServerStage.obj
 0001:0003b098       __unwindfunclet$?SendPackToClient@CIOCPServer@@UAGJABK@Z$8 1003c098 f   ServerStage.obj
 0001:0003b0a0       __unwindfunclet$?SendPackToClient@CIOCPServer@@UAGJABK@Z$9 1003c0a0 f   ServerStage.obj
 0001:0003b0a8       __unwindfunclet$?SendPackToClient@CIOCPServer@@UAGJABK@Z$10 1003c0a8 f   ServerStage.obj
 0001:0003b0b0       __ehhandler$?SendPackToClient@CIOCPServer@@UAGJABK@Z 1003c0b0 f   ServerStage.obj
 0001:0003b0d0       __unwindfunclet$?SendData@CIOCPServer@@UAGJABKQBXABI@Z$3 1003c0d0 f   ServerStage.obj
 0001:0003b0d8       __unwindfunclet$?SendData@CIOCPServer@@UAGJABKQBXABI@Z$4 1003c0d8 f   ServerStage.obj
 0001:0003b0e0       __unwindfunclet$?SendData@CIOCPServer@@UAGJABKQBXABI@Z$5 1003c0e0 f   ServerStage.obj
 0001:0003b0e8       __unwindfunclet$?SendData@CIOCPServer@@UAGJABKQBXABI@Z$6 1003c0e8 f   ServerStage.obj
 0001:0003b0f0       __unwindfunclet$?SendData@CIOCPServer@@UAGJABKQBXABI@Z$7 1003c0f0 f   ServerStage.obj
 0001:0003b0f8       __unwindfunclet$?SendData@CIOCPServer@@UAGJABKQBXABI@Z$8 1003c0f8 f   ServerStage.obj
 0001:0003b100       __unwindfunclet$?SendData@CIOCPServer@@UAGJABKQBXABI@Z$9 1003c100 f   ServerStage.obj
 0001:0003b108       __ehhandler$?SendData@CIOCPServer@@UAGJABKQBXABI@Z 1003c108 f   ServerStage.obj
 0001:0003b130       __unwindfunclet$?ShutdownClient@CIOCPServer@@UAGJABK@Z$0 1003c130 f   ServerStage.obj
 0001:0003b138       __ehhandler$?ShutdownClient@CIOCPServer@@UAGJABK@Z 1003c138 f   ServerStage.obj
 0001:0003b160       __unwindfunclet$?GetClientInfo@CIOCPServer@@UAGPBDABK@Z$0 1003c160 f   ServerStage.obj
 0001:0003b168       __ehhandler$?GetClientInfo@CIOCPServer@@UAGPBDABK@Z 1003c168 f   ServerStage.obj
 0001:0003b190       __unwindfunclet$?OnConnectionEstablished@CIOCPServer@@MAEXPAVSocket@CSocketServer@Win32@OnlineGameLib@@PAVCIOBuffer@45@@Z$0 1003c190 f   ServerStage.obj
 0001:0003b198       __unwindfunclet$?OnConnectionEstablished@CIOCPServer@@MAEXPAVSocket@CSocketServer@Win32@OnlineGameLib@@PAVCIOBuffer@45@@Z$1 1003c198 f   ServerStage.obj
 0001:0003b1a3       __unwindfunclet$?OnConnectionEstablished@CIOCPServer@@MAEXPAVSocket@CSocketServer@Win32@OnlineGameLib@@PAVCIOBuffer@45@@Z$2 1003c1a3 f   ServerStage.obj
 0001:0003b1bc       __ehhandler$?OnConnectionEstablished@CIOCPServer@@MAEXPAVSocket@CSocketServer@Win32@OnlineGameLib@@PAVCIOBuffer@45@@Z 1003c1bc f   ServerStage.obj
 0001:0003b1f0       __unwindfunclet$?ProcessCommand@CIOCPServer@@IAEXPAVSocket@CSocketServer@Win32@OnlineGameLib@@PBVCIOBuffer@45@@Z$0 1003c1f0 f   ServerStage.obj
 0001:0003b1f8       __ehhandler$?ProcessCommand@CIOCPServer@@IAEXPAVSocket@CSocketServer@Win32@OnlineGameLib@@PBVCIOBuffer@45@@Z 1003c1f8 f   ServerStage.obj
 0001:0003b220       __unwindfunclet$?RegisterMsgFilter@CIOCPServer@@UAGJKPAUIMessageProcess@@@Z$0 1003c220 f   ServerStage.obj
 0001:0003b228       __ehhandler$?RegisterMsgFilter@CIOCPServer@@UAGJKPAUIMessageProcess@@@Z 1003c228 f   ServerStage.obj
 0001:0003b250       __unwindfunclet$?ProcessMessage@CIOCPServer@@IAEXPAVSocket@CSocketServer@Win32@OnlineGameLib@@PAVCIOBuffer@45@@Z$0 1003c250 f   ServerStage.obj
 0001:0003b258       __ehhandler$?ProcessMessage@CIOCPServer@@IAEXPAVSocket@CSocketServer@Win32@OnlineGameLib@@PAVCIOBuffer@45@@Z 1003c258 f   ServerStage.obj
 0001:0003b280       __unwindfunclet$??0?$basic_istream@DU?$char_traits@D@std@@@std@@QAE@PAV?$basic_streambuf@DU?$char_traits@D@std@@@1@_N@Z$0 1003c280 f   ServerStage.obj
 0001:0003b29c       __ehhandler$??0?$basic_istream@DU?$char_traits@D@std@@@std@@QAE@PAV?$basic_streambuf@DU?$char_traits@D@std@@@1@_N@Z 1003c29c f   ServerStage.obj
 0001:0003b2c0       __unwindfunclet$??0?$basic_iostream@DU?$char_traits@D@std@@@std@@QAE@PAV?$basic_streambuf@DU?$char_traits@D@std@@@1@@Z$0 1003c2c0 f   ServerStage.obj
 0001:0003b2dc       __unwindfunclet$??0?$basic_iostream@DU?$char_traits@D@std@@@std@@QAE@PAV?$basic_streambuf@DU?$char_traits@D@std@@@1@@Z$1 1003c2dc f   ServerStage.obj
 0001:0003b2e7       __ehhandler$??0?$basic_iostream@DU?$char_traits@D@std@@@std@@QAE@PAV?$basic_streambuf@DU?$char_traits@D@std@@@1@@Z 1003c2e7 f   ServerStage.obj
 0001:0003b310       __unwindfunclet$??1sentry@?$basic_ostream@DU?$char_traits@D@std@@@std@@QAE@XZ$0 1003c310 f   ServerStage.obj
 0001:0003b318       __ehhandler$??1sentry@?$basic_ostream@DU?$char_traits@D@std@@@std@@QAE@XZ 1003c318 f   ServerStage.obj
 0001:0003b340       __unwindfunclet$??6?$basic_ostream@DU?$char_traits@D@std@@@std@@QAEAAV01@I@Z$2 1003c340 f   ServerStage.obj
 0001:0003b348       __unwindfunclet$??6?$basic_ostream@DU?$char_traits@D@std@@@std@@QAEAAV01@I@Z$3 1003c348 f   ServerStage.obj
 0001:0003b350       __ehhandler$??6?$basic_ostream@DU?$char_traits@D@std@@@std@@QAEAAV01@I@Z 1003c350 f   ServerStage.obj
 0001:0003b370       __unwindfunclet$??6?$basic_ostream@DU?$char_traits@D@std@@@std@@QAEAAV01@K@Z$2 1003c370 f   ServerStage.obj
 0001:0003b378       __unwindfunclet$??6?$basic_ostream@DU?$char_traits@D@std@@@std@@QAEAAV01@K@Z$3 1003c378 f   ServerStage.obj
 0001:0003b380       __ehhandler$??6?$basic_ostream@DU?$char_traits@D@std@@@std@@QAEAAV01@K@Z 1003c380 f   ServerStage.obj
 0001:0003b3a0       __unwindfunclet$?do_put@?$num_put@DV?$ostreambuf_iterator@DU?$char_traits@D@std@@@std@@@std@@MBE?AV?$ostreambuf_iterator@DU?$char_traits@D@std@@@2@V32@AAVios_base@2@D_N@Z$0 1003c3a0 f   ServerStage.obj
 0001:0003b3a8       __unwindfunclet$?do_put@?$num_put@DV?$ostreambuf_iterator@DU?$char_traits@D@std@@@std@@@std@@MBE?AV?$ostreambuf_iterator@DU?$char_traits@D@std@@@2@V32@AAVios_base@2@D_N@Z$1 1003c3a8 f   ServerStage.obj
 0001:0003b3b0       __unwindfunclet$?do_put@?$num_put@DV?$ostreambuf_iterator@DU?$char_traits@D@std@@@std@@@std@@MBE?AV?$ostreambuf_iterator@DU?$char_traits@D@std@@@2@V32@AAVios_base@2@D_N@Z$2 1003c3b0 f   ServerStage.obj
 0001:0003b3b8       __unwindfunclet$?do_put@?$num_put@DV?$ostreambuf_iterator@DU?$char_traits@D@std@@@std@@@std@@MBE?AV?$ostreambuf_iterator@DU?$char_traits@D@std@@@2@V32@AAVios_base@2@D_N@Z$3 1003c3b8 f   ServerStage.obj
 0001:0003b3c0       __ehhandler$?do_put@?$num_put@DV?$ostreambuf_iterator@DU?$char_traits@D@std@@@std@@@std@@MBE?AV?$ostreambuf_iterator@DU?$char_traits@D@std@@@2@V32@AAVios_base@2@D_N@Z 1003c3c0 f   ServerStage.obj
 0001:0003b3f0       __unwindfunclet$?_Fput@?$num_put@DV?$ostreambuf_iterator@DU?$char_traits@D@std@@@std@@@std@@ABA?AV?$ostreambuf_iterator@DU?$char_traits@D@std@@@2@V32@AAVios_base@2@DPBDIIII@Z$0 1003c3f0 f   ServerStage.obj
 0001:0003b3f8       __unwindfunclet$?_Fput@?$num_put@DV?$ostreambuf_iterator@DU?$char_traits@D@std@@@std@@@std@@ABA?AV?$ostreambuf_iterator@DU?$char_traits@D@std@@@2@V32@AAVios_base@2@DPBDIIII@Z$1 1003c3f8 f   ServerStage.obj
 0001:0003b400       __unwindfunclet$?_Fput@?$num_put@DV?$ostreambuf_iterator@DU?$char_traits@D@std@@@std@@@std@@ABA?AV?$ostreambuf_iterator@DU?$char_traits@D@std@@@2@V32@AAVios_base@2@DPBDIIII@Z$2 1003c400 f   ServerStage.obj
 0001:0003b408       __ehhandler$?_Fput@?$num_put@DV?$ostreambuf_iterator@DU?$char_traits@D@std@@@std@@@std@@ABA?AV?$ostreambuf_iterator@DU?$char_traits@D@std@@@2@V32@AAVios_base@2@DPBDIIII@Z 1003c408 f   ServerStage.obj
 0001:0003b430       __unwindfunclet$?_Iput@?$num_put@DV?$ostreambuf_iterator@DU?$char_traits@D@std@@@std@@@std@@ABA?AV?$ostreambuf_iterator@DU?$char_traits@D@std@@@2@V32@AAVios_base@2@DPADI@Z$0 1003c430 f   ServerStage.obj
 0001:0003b438       __unwindfunclet$?_Iput@?$num_put@DV?$ostreambuf_iterator@DU?$char_traits@D@std@@@std@@@std@@ABA?AV?$ostreambuf_iterator@DU?$char_traits@D@std@@@2@V32@AAVios_base@2@DPADI@Z$1 1003c438 f   ServerStage.obj
 0001:0003b440       __ehhandler$?_Iput@?$num_put@DV?$ostreambuf_iterator@DU?$char_traits@D@std@@@std@@@std@@ABA?AV?$ostreambuf_iterator@DU?$char_traits@D@std@@@2@V32@AAVios_base@2@DPADI@Z 1003c440 f   ServerStage.obj
 0001:0003b470       __unwindfunclet$??0strstream@std@@QAE@XZ$0 1003c470 f   ServerStage.obj
 0001:0003b48c       __unwindfunclet$??0strstream@std@@QAE@XZ$1 1003c48c f   ServerStage.obj
 0001:0003b497       __ehhandler$??0strstream@std@@QAE@XZ 1003c497 f   ServerStage.obj
 0001:0003b4c0       __unwindfunclet$?ReadCompleted@CIOCPServer@@MAEXPAVSocket@CSocketServer@Win32@OnlineGameLib@@PAVCIOBuffer@45@@Z$3 1003c4c0 f   ServerStage.obj
 0001:0003b4c8       __unwindfunclet$?ReadCompleted@CIOCPServer@@MAEXPAVSocket@CSocketServer@Win32@OnlineGameLib@@PAVCIOBuffer@45@@Z$4 1003c4c8 f   ServerStage.obj
 0001:0003b4d0       __unwindfunclet$?ReadCompleted@CIOCPServer@@MAEXPAVSocket@CSocketServer@Win32@OnlineGameLib@@PAVCIOBuffer@45@@Z$5 1003c4d0 f   ServerStage.obj
 0001:0003b4d8       __unwindfunclet$?ReadCompleted@CIOCPServer@@MAEXPAVSocket@CSocketServer@Win32@OnlineGameLib@@PAVCIOBuffer@45@@Z$6 1003c4d8 f   ServerStage.obj
 0001:0003b4e0       __unwindfunclet$?ReadCompleted@CIOCPServer@@MAEXPAVSocket@CSocketServer@Win32@OnlineGameLib@@PAVCIOBuffer@45@@Z$7 1003c4e0 f   ServerStage.obj
 0001:0003b4e8       __unwindfunclet$?ReadCompleted@CIOCPServer@@MAEXPAVSocket@CSocketServer@Win32@OnlineGameLib@@PAVCIOBuffer@45@@Z$8 1003c4e8 f   ServerStage.obj
 0001:0003b4f0       __unwindfunclet$?ReadCompleted@CIOCPServer@@MAEXPAVSocket@CSocketServer@Win32@OnlineGameLib@@PAVCIOBuffer@45@@Z$9 1003c4f0 f   ServerStage.obj
 0001:0003b4f8       __unwindfunclet$?ReadCompleted@CIOCPServer@@MAEXPAVSocket@CSocketServer@Win32@OnlineGameLib@@PAVCIOBuffer@45@@Z$10 1003c4f8 f   ServerStage.obj
 0001:0003b500       __ehhandler$?ReadCompleted@CIOCPServer@@MAEXPAVSocket@CSocketServer@Win32@OnlineGameLib@@PAVCIOBuffer@45@@Z 1003c500 f   ServerStage.obj
 0001:0003b520       __unwindfunclet$?ProcessDataStream@CIOCPServer@@IAEPAVCIOBuffer@Win32@OnlineGameLib@@PAVSocket@CSocketServer@34@PAV234@@Z$0 1003c520 f   ServerStage.obj
 0001:0003b528       __unwindfunclet$?ProcessDataStream@CIOCPServer@@IAEPAVCIOBuffer@Win32@OnlineGameLib@@PAVSocket@CSocketServer@34@PAV234@@Z$1 1003c528 f   ServerStage.obj
 0001:0003b530       __unwindfunclet$?ProcessDataStream@CIOCPServer@@IAEPAVCIOBuffer@Win32@OnlineGameLib@@PAVSocket@CSocketServer@34@PAV234@@Z$2 1003c530 f   ServerStage.obj
 0001:0003b538       __ehhandler$?ProcessDataStream@CIOCPServer@@IAEPAVCIOBuffer@Win32@OnlineGameLib@@PAVSocket@CSocketServer@34@PAV234@@Z 1003c538 f   ServerStage.obj
 0001:0003b560       __unwindfunclet$?put@?$basic_ostream@DU?$char_traits@D@std@@@std@@QAEAAV12@D@Z$2 1003c560 f   ServerStage.obj
 0001:0003b568       __ehhandler$?put@?$basic_ostream@DU?$char_traits@D@std@@@std@@QAEAAV12@D@Z 1003c568 f   ServerStage.obj
 0001:0003b590       __unwindfunclet$?GetPackFromClient@CIOCPServer@@UAGPBXABKAAI@Z$0 1003c590 f   ServerStage.obj
 0001:0003b598       __unwindfunclet$?GetPackFromClient@CIOCPServer@@UAGPBXABKAAI@Z$1 1003c598 f   ServerStage.obj
 0001:0003b5a0       __ehhandler$?GetPackFromClient@CIOCPServer@@UAGPBXABKAAI@Z 1003c5a0 f   ServerStage.obj
 0001:0003b5c0       __unwindfunclet$??$ToString@K@Win32@OnlineGameLib@@YA?AV?$basic_string@DU?$char_traits@D@std@@V?$allocator@D@2@@std@@K@Z$0 1003c5c0 f   ServerStage.obj
 0001:0003b5e2       __unwindfunclet$??$ToString@K@Win32@OnlineGameLib@@YA?AV?$basic_string@DU?$char_traits@D@std@@V?$allocator@D@2@@std@@K@Z$1 1003c5e2 f   ServerStage.obj
 0001:0003b5ed       __ehhandler$??$ToString@K@Win32@OnlineGameLib@@YA?AV?$basic_string@DU?$char_traits@D@std@@V?$allocator@D@2@@std@@K@Z 1003c5ed f   ServerStage.obj
 0001:0003b610       __unwindfunclet$??$ToString@I@Win32@OnlineGameLib@@YA?AV?$basic_string@DU?$char_traits@D@std@@V?$allocator@D@2@@std@@I@Z$0 1003c610 f   ServerStage.obj
 0001:0003b632       __unwindfunclet$??$ToString@I@Win32@OnlineGameLib@@YA?AV?$basic_string@DU?$char_traits@D@std@@V?$allocator@D@2@@std@@I@Z$1 1003c632 f   ServerStage.obj
 0001:0003b63d       __ehhandler$??$ToString@I@Win32@OnlineGameLib@@YA?AV?$basic_string@DU?$char_traits@D@std@@V?$allocator@D@2@@std@@I@Z 1003c63d f   ServerStage.obj
 0001:0003b660       __unwindfunclet$?_HelperAddClient@CIOCPServer@@AAE_NXZ$5 1003c660 f   ServerStage.obj
 0001:0003b668       __unwindfunclet$?_HelperAddClient@CIOCPServer@@AAE_NXZ$6 1003c668 f   ServerStage.obj
 0001:0003b670       __unwindfunclet$?_HelperAddClient@CIOCPServer@@AAE_NXZ$7 1003c670 f   ServerStage.obj
 0001:0003b67b       __unwindfunclet$?_HelperAddClient@CIOCPServer@@AAE_NXZ$8 1003c67b f   ServerStage.obj
 0001:0003b683       __unwindfunclet$?_HelperAddClient@CIOCPServer@@AAE_NXZ$9 1003c683 f   ServerStage.obj
 0001:0003b68b       __unwindfunclet$?_HelperAddClient@CIOCPServer@@AAE_NXZ$10 1003c68b f   ServerStage.obj
 0001:0003b693       __unwindfunclet$?_HelperAddClient@CIOCPServer@@AAE_NXZ$11 1003c693 f   ServerStage.obj
 0001:0003b69b       __unwindfunclet$?_HelperAddClient@CIOCPServer@@AAE_NXZ$12 1003c69b f   ServerStage.obj
 0001:0003b6a6       __unwindfunclet$?_HelperAddClient@CIOCPServer@@AAE_NXZ$13 1003c6a6 f   ServerStage.obj
 0001:0003b6ae       __unwindfunclet$?_HelperAddClient@CIOCPServer@@AAE_NXZ$14 1003c6ae f   ServerStage.obj
 0001:0003b6b9       __unwindfunclet$?_HelperAddClient@CIOCPServer@@AAE_NXZ$15 1003c6b9 f   ServerStage.obj
 0001:0003b6c1       __ehhandler$?_HelperAddClient@CIOCPServer@@AAE_NXZ 1003c6c1 f   ServerStage.obj
 0001:0003b6f0       __unwindfunclet$?_HelperDelClient@CIOCPServer@@AAE_NXZ$4 1003c6f0 f   ServerStage.obj
 0001:0003b6f8       __unwindfunclet$?_HelperDelClient@CIOCPServer@@AAE_NXZ$5 1003c6f8 f   ServerStage.obj
 0001:0003b700       __unwindfunclet$?_HelperDelClient@CIOCPServer@@AAE_NXZ$6 1003c700 f   ServerStage.obj
 0001:0003b70b       __unwindfunclet$?_HelperDelClient@CIOCPServer@@AAE_NXZ$7 1003c70b f   ServerStage.obj
 0001:0003b713       __unwindfunclet$?_HelperDelClient@CIOCPServer@@AAE_NXZ$8 1003c713 f   ServerStage.obj
 0001:0003b71b       __unwindfunclet$?_HelperDelClient@CIOCPServer@@AAE_NXZ$9 1003c71b f   ServerStage.obj
 0001:0003b723       __unwindfunclet$?_HelperDelClient@CIOCPServer@@AAE_NXZ$10 1003c723 f   ServerStage.obj
 0001:0003b72b       __unwindfunclet$?_HelperDelClient@CIOCPServer@@AAE_NXZ$11 1003c72b f   ServerStage.obj
 0001:0003b733       __unwindfunclet$?_HelperDelClient@CIOCPServer@@AAE_NXZ$12 1003c733 f   ServerStage.obj
 0001:0003b73e       __unwindfunclet$?_HelperDelClient@CIOCPServer@@AAE_NXZ$13 1003c73e f   ServerStage.obj
 0001:0003b746       __unwindfunclet$?_HelperDelClient@CIOCPServer@@AAE_NXZ$14 1003c746 f   ServerStage.obj
 0001:0003b74e       __ehhandler$?_HelperDelClient@CIOCPServer@@AAE_NXZ 1003c74e f   ServerStage.obj
 0001:0003b770       __ehhandler$?HelperThreadFunction@CIOCPServer@@CGIPAX@Z 1003c770 f   ServerStage.obj
 0001:0003b790       __unwindfunclet$??0CIOCPServer@@QAE@IIIIIIII@Z$0 1003c790 f   ServerStage.obj
 0001:0003b79b       __unwindfunclet$??0CIOCPServer@@QAE@IIIIIIII@Z$1 1003c79b f   ServerStage.obj
 0001:0003b7a9       __unwindfunclet$??0CIOCPServer@@QAE@IIIIIIII@Z$2 1003c7a9 f   ServerStage.obj
 0001:0003b7b7       __unwindfunclet$??0CIOCPServer@@QAE@IIIIIIII@Z$3 1003c7b7 f   ServerStage.obj
 0001:0003b7c5       __unwindfunclet$??0CIOCPServer@@QAE@IIIIIIII@Z$4 1003c7c5 f   ServerStage.obj
 0001:0003b7d3       __unwindfunclet$??0CIOCPServer@@QAE@IIIIIIII@Z$5 1003c7d3 f   ServerStage.obj
 0001:0003b7e1       __unwindfunclet$??0CIOCPServer@@QAE@IIIIIIII@Z$6 1003c7e1 f   ServerStage.obj
 0001:0003b7ef       __unwindfunclet$??0CIOCPServer@@QAE@IIIIIIII@Z$7 1003c7ef f   ServerStage.obj
 0001:0003b7fd       __unwindfunclet$??0CIOCPServer@@QAE@IIIIIIII@Z$8 1003c7fd f   ServerStage.obj
 0001:0003b80b       __unwindfunclet$??0CIOCPServer@@QAE@IIIIIIII@Z$9 1003c80b f   ServerStage.obj
 0001:0003b819       __unwindfunclet$??0CIOCPServer@@QAE@IIIIIIII@Z$10 1003c819 f   ServerStage.obj
 0001:0003b821       __unwindfunclet$??0CIOCPServer@@QAE@IIIIIIII@Z$12 1003c821 f   ServerStage.obj
 0001:0003b829       __unwindfunclet$??0CIOCPServer@@QAE@IIIIIIII@Z$13 1003c829 f   ServerStage.obj
 0001:0003b831       __ehhandler$??0CIOCPServer@@QAE@IIIIIIII@Z 1003c831 f   ServerStage.obj
 0001:0003b850       __unwindfunclet$??0CException@Win32@OnlineGameLib@@QAE@ABV012@@Z$0 1003c850 f   ServerStage.obj
 0001:0003b85b       __ehhandler$??0CException@Win32@OnlineGameLib@@QAE@ABV012@@Z 1003c85b f   ServerStage.obj
 0001:0003b880       __unwindfunclet$?CreateServerInterface@CServerFactory@@UAGJABU_GUID@@PAPAX@Z$2 1003c880 f   ServerStage.obj
 0001:0003b88b       __ehhandler$?CreateServerInterface@CServerFactory@@UAGJABU_GUID@@PAPAX@Z 1003c88b f   ServerStage.obj
 0001:0003b8b0       __unwindfunclet$??1CSocketServer@Win32@OnlineGameLib@@UAE@XZ$0 1003c8b0 f   common:SocketServer.obj
 0001:0003b8b8       __unwindfunclet$??1CSocketServer@Win32@OnlineGameLib@@UAE@XZ$1 1003c8b8 f   common:SocketServer.obj
 0001:0003b8df       __unwindfunclet$??1CSocketServer@Win32@OnlineGameLib@@UAE@XZ$2 1003c8df f   common:SocketServer.obj
 0001:0003b906       __unwindfunclet$??1CSocketServer@Win32@OnlineGameLib@@UAE@XZ$3 1003c906 f   common:SocketServer.obj
 0001:0003b914       __unwindfunclet$??1CSocketServer@Win32@OnlineGameLib@@UAE@XZ$4 1003c914 f   common:SocketServer.obj
 0001:0003b922       __unwindfunclet$??1CSocketServer@Win32@OnlineGameLib@@UAE@XZ$5 1003c922 f   common:SocketServer.obj
 0001:0003b930       __ehhandler$??1CSocketServer@Win32@OnlineGameLib@@UAE@XZ 1003c930 f   common:SocketServer.obj
 0001:0003b950       __unwindfunclet$??0WorkerThread@CSocketServer@Win32@OnlineGameLib@@QAE@AAV123@AAVCIOCompletionPort@23@@Z$0 1003c950 f   common:SocketServer.obj
 0001:0003b958       __ehhandler$??0WorkerThread@CSocketServer@Win32@OnlineGameLib@@QAE@AAV123@AAVCIOCompletionPort@23@@Z 1003c958 f   common:SocketServer.obj
 0001:0003b980       __unwindfunclet$??1WorkerThread@CSocketServer@Win32@OnlineGameLib@@UAE@XZ$2 1003c980 f   common:SocketServer.obj
 0001:0003b988       __ehhandler$??1WorkerThread@CSocketServer@Win32@OnlineGameLib@@UAE@XZ 1003c988 f   common:SocketServer.obj
 0001:0003b9b0       __unwindfunclet$??0CSocketServer@Win32@OnlineGameLib@@IAE@IIII_N0@Z$0 1003c9b0 f   common:SocketServer.obj
 0001:0003b9b8       __unwindfunclet$??0CSocketServer@Win32@OnlineGameLib@@IAE@IIII_N0@Z$1 1003c9b8 f   common:SocketServer.obj
 0001:0003b9c3       __unwindfunclet$??0CSocketServer@Win32@OnlineGameLib@@IAE@IIII_N0@Z$2 1003c9c3 f   common:SocketServer.obj
 0001:0003b9ce       __unwindfunclet$??0CSocketServer@Win32@OnlineGameLib@@IAE@IIII_N0@Z$3 1003c9ce f   common:SocketServer.obj
 0001:0003b9dc       __unwindfunclet$??0CSocketServer@Win32@OnlineGameLib@@IAE@IIII_N0@Z$4 1003c9dc f   common:SocketServer.obj
 0001:0003b9ea       __unwindfunclet$??0CSocketServer@Win32@OnlineGameLib@@IAE@IIII_N0@Z$5 1003c9ea f   common:SocketServer.obj
 0001:0003b9f8       __ehhandler$??0CSocketServer@Win32@OnlineGameLib@@IAE@IIII_N0@Z 1003c9f8 f   common:SocketServer.obj
 0001:0003ba20       __unwindfunclet$?CreateWorkerThread@CSocketServer@Win32@OnlineGameLib@@EAEPAVWorkerThread@123@AAVCIOCompletionPort@23@@Z$0 1003ca20 f   common:SocketServer.obj
 0001:0003ba2b       __ehhandler$?CreateWorkerThread@CSocketServer@Win32@OnlineGameLib@@EAEPAVWorkerThread@123@AAVCIOCompletionPort@23@@Z 1003ca2b f   common:SocketServer.obj
 0001:0003ba50       __unwindfunclet$?_Xlen@?$vector@PAVWorkerThread@CSocketServer@Win32@OnlineGameLib@@V?$allocator@PAVWorkerThread@CSocketServer@Win32@OnlineGameLib@@@std@@@std@@KAXXZ$0 1003ca50 f   common:SocketServer.obj
 0001:0003ba58       __ehhandler$?_Xlen@?$vector@PAVWorkerThread@CSocketServer@Win32@OnlineGameLib@@V?$allocator@PAVWorkerThread@CSocketServer@Win32@OnlineGameLib@@@std@@@std@@KAXXZ 1003ca58 f   common:SocketServer.obj
 0001:0003ba80       __unwindfunclet$?erase@?$_Tree@V?$_Tmap_traits@IPAVCIOBuffer@Win32@OnlineGameLib@@U?$less@I@std@@V?$allocator@U?$pair@$$CBIPAVCIOBuffer@Win32@OnlineGameLib@@@std@@@5@$0A@@std@@@std@@QAE?AViterator@12@V312@@Z$0 1003ca80 f   common:SocketServer.obj
 0001:0003ba88       __ehhandler$?erase@?$_Tree@V?$_Tmap_traits@IPAVCIOBuffer@Win32@OnlineGameLib@@U?$less@I@std@@V?$allocator@U?$pair@$$CBIPAVCIOBuffer@Win32@OnlineGameLib@@@std@@@5@$0A@@std@@@std@@QAE?AViterator@12@V312@@Z 1003ca88 f   common:SocketServer.obj
 0001:0003bab0       __unwindfunclet$?StopAcceptingConnections@CSocketServer@Win32@OnlineGameLib@@QAEXXZ$0 1003cab0 f   common:SocketServer.obj
 0001:0003bab8       __unwindfunclet$?StopAcceptingConnections@CSocketServer@Win32@OnlineGameLib@@QAEXXZ$1 1003cab8 f   common:SocketServer.obj
 0001:0003bac0       __ehhandler$?StopAcceptingConnections@CSocketServer@Win32@OnlineGameLib@@QAEXXZ 1003cac0 f   common:SocketServer.obj
 0001:0003bae0       __unwindfunclet$?CreateListeningSocket@CSocketServer@Win32@OnlineGameLib@@EAEIKG@Z$0 1003cae0 f   common:SocketServer.obj
 0001:0003bae8       __unwindfunclet$?CreateListeningSocket@CSocketServer@Win32@OnlineGameLib@@EAEIKG@Z$1 1003cae8 f   common:SocketServer.obj
 0001:0003baf0       __ehhandler$?CreateListeningSocket@CSocketServer@Win32@OnlineGameLib@@EAEIKG@Z 1003caf0 f   common:SocketServer.obj
 0001:0003bb20       __unwindfunclet$?WriteCompleted@CSocketServer@Win32@OnlineGameLib@@EAEXPAVSocket@123@PAVCIOBuffer@23@@Z$0 1003cb20 f   common:SocketServer.obj
 0001:0003bb28       __ehhandler$?WriteCompleted@CSocketServer@Win32@OnlineGameLib@@EAEXPAVSocket@123@PAVCIOBuffer@23@@Z 1003cb28 f   common:SocketServer.obj
 0001:0003bb50       __unwindfunclet$?Attach@Socket@CSocketServer@Win32@OnlineGameLib@@AAEXI@Z$0 1003cb50 f   common:SocketServer.obj
 0001:0003bb58       __unwindfunclet$?Attach@Socket@CSocketServer@Win32@OnlineGameLib@@AAEXI@Z$1 1003cb58 f   common:SocketServer.obj
 0001:0003bb60       __ehhandler$?Attach@Socket@CSocketServer@Win32@OnlineGameLib@@AAEXI@Z 1003cb60 f   common:SocketServer.obj
 0001:0003bb80       __unwindfunclet$?Shutdown@Socket@CSocketServer@Win32@OnlineGameLib@@QAEXH@Z$0 1003cb80 f   common:SocketServer.obj
 0001:0003bb88       __unwindfunclet$?Shutdown@Socket@CSocketServer@Win32@OnlineGameLib@@QAEXH@Z$1 1003cb88 f   common:SocketServer.obj
 0001:0003bb90       __ehhandler$?Shutdown@Socket@CSocketServer@Win32@OnlineGameLib@@QAEXH@Z 1003cb90 f   common:SocketServer.obj
 0001:0003bbb0       __unwindfunclet$?InternalClose@Socket@CSocketServer@Win32@OnlineGameLib@@AAEXXZ$0 1003cbb0 f   common:SocketServer.obj
 0001:0003bbb8       __unwindfunclet$?InternalClose@Socket@CSocketServer@Win32@OnlineGameLib@@AAEXXZ$1 1003cbb8 f   common:SocketServer.obj
 0001:0003bbc0       __unwindfunclet$?InternalClose@Socket@CSocketServer@Win32@OnlineGameLib@@AAEXXZ$2 1003cbc0 f   common:SocketServer.obj
 0001:0003bbc8       __ehhandler$?InternalClose@Socket@CSocketServer@Win32@OnlineGameLib@@AAEXXZ 1003cbc8 f   common:SocketServer.obj
 0001:0003bbf0       __unwindfunclet$?Read@Socket@CSocketServer@Win32@OnlineGameLib@@QAE_NPAVCIOBuffer@34@_N@Z$0 1003cbf0 f   common:SocketServer.obj
 0001:0003bbf8       __unwindfunclet$?Read@Socket@CSocketServer@Win32@OnlineGameLib@@QAE_NPAVCIOBuffer@34@_N@Z$1 1003cbf8 f   common:SocketServer.obj
 0001:0003bc00       __ehhandler$?Read@Socket@CSocketServer@Win32@OnlineGameLib@@QAE_NPAVCIOBuffer@34@_N@Z 1003cc00 f   common:SocketServer.obj
 0001:0003bc20       __unwindfunclet$?Write@Socket@CSocketServer@Win32@OnlineGameLib@@QAE_NPBEI_N@Z$0 1003cc20 f   common:SocketServer.obj
 0001:0003bc2b       __unwindfunclet$?Write@Socket@CSocketServer@Win32@OnlineGameLib@@QAE_NPBEI_N@Z$1 1003cc2b f   common:SocketServer.obj
 0001:0003bc36       __unwindfunclet$?Write@Socket@CSocketServer@Win32@OnlineGameLib@@QAE_NPBEI_N@Z$2 1003cc36 f   common:SocketServer.obj
 0001:0003bc41       __unwindfunclet$?Write@Socket@CSocketServer@Win32@OnlineGameLib@@QAE_NPBEI_N@Z$3 1003cc41 f   common:SocketServer.obj
 0001:0003bc4c       __ehhandler$?Write@Socket@CSocketServer@Win32@OnlineGameLib@@QAE_NPBEI_N@Z 1003cc4c f   common:SocketServer.obj
 0001:0003bc70       __unwindfunclet$?Write@Socket@CSocketServer@Win32@OnlineGameLib@@QAE_NPAVCIOBuffer@34@_N@Z$0 1003cc70 f   common:SocketServer.obj
 0001:0003bc7b       __unwindfunclet$?Write@Socket@CSocketServer@Win32@OnlineGameLib@@QAE_NPAVCIOBuffer@34@_N@Z$1 1003cc7b f   common:SocketServer.obj
 0001:0003bc86       __unwindfunclet$?Write@Socket@CSocketServer@Win32@OnlineGameLib@@QAE_NPAVCIOBuffer@34@_N@Z$2 1003cc86 f   common:SocketServer.obj
 0001:0003bc91       __unwindfunclet$?Write@Socket@CSocketServer@Win32@OnlineGameLib@@QAE_NPAVCIOBuffer@34@_N@Z$3 1003cc91 f   common:SocketServer.obj
 0001:0003bc9c       __ehhandler$?Write@Socket@CSocketServer@Win32@OnlineGameLib@@QAE_NPAVCIOBuffer@34@_N@Z 1003cc9c f   common:SocketServer.obj
 0001:0003bcc0       __unwindfunclet$?Run@WorkerThread@CSocketServer@Win32@OnlineGameLib@@MAEHXZ$3 1003ccc0 f   common:SocketServer.obj
 0001:0003bcc8       __unwindfunclet$?Run@WorkerThread@CSocketServer@Win32@OnlineGameLib@@MAEHXZ$4 1003ccc8 f   common:SocketServer.obj
 0001:0003bcd0       __unwindfunclet$?Run@WorkerThread@CSocketServer@Win32@OnlineGameLib@@MAEHXZ$5 1003ccd0 f   common:SocketServer.obj
 0001:0003bcd8       __unwindfunclet$?Run@WorkerThread@CSocketServer@Win32@OnlineGameLib@@MAEHXZ$6 1003ccd8 f   common:SocketServer.obj
 0001:0003bce0       __unwindfunclet$?Run@WorkerThread@CSocketServer@Win32@OnlineGameLib@@MAEHXZ$7 1003cce0 f   common:SocketServer.obj
 0001:0003bce8       __unwindfunclet$?Run@WorkerThread@CSocketServer@Win32@OnlineGameLib@@MAEHXZ$8 1003cce8 f   common:SocketServer.obj
 0001:0003bcf0       __unwindfunclet$?Run@WorkerThread@CSocketServer@Win32@OnlineGameLib@@MAEHXZ$9 1003ccf0 f   common:SocketServer.obj
 0001:0003bcf8       __ehhandler$?Run@WorkerThread@CSocketServer@Win32@OnlineGameLib@@MAEHXZ 1003ccf8 f   common:SocketServer.obj
 0001:0003bd20       __unwindfunclet$?Close@Socket@CSocketServer@Win32@OnlineGameLib@@QAEXXZ$0 1003cd20 f   common:SocketServer.obj
 0001:0003bd28       __ehhandler$?Close@Socket@CSocketServer@Win32@OnlineGameLib@@QAEXXZ 1003cd28 f   common:SocketServer.obj
 0001:0003bd50       __unwindfunclet$?AbortiveClose@Socket@CSocketServer@Win32@OnlineGameLib@@QAEXXZ$0 1003cd50 f   common:SocketServer.obj
 0001:0003bd58       __unwindfunclet$?AbortiveClose@Socket@CSocketServer@Win32@OnlineGameLib@@QAEXXZ$1 1003cd58 f   common:SocketServer.obj
 0001:0003bd60       __ehhandler$?AbortiveClose@Socket@CSocketServer@Win32@OnlineGameLib@@QAEXXZ 1003cd60 f   common:SocketServer.obj
 0001:0003bd80       __unwindfunclet$?OnConnectionReset@Socket@CSocketServer@Win32@OnlineGameLib@@AAEXXZ$0 1003cd80 f   common:SocketServer.obj
 0001:0003bd88       __ehhandler$?OnConnectionReset@Socket@CSocketServer@Win32@OnlineGameLib@@AAEXXZ 1003cd88 f   common:SocketServer.obj
 0001:0003bdb0       __unwindfunclet$?InitiateShutdown@CSocketServer@Win32@OnlineGameLib@@QAEXXZ$0 1003cdb0 f   common:SocketServer.obj
 0001:0003bdb8       __ehhandler$?InitiateShutdown@CSocketServer@Win32@OnlineGameLib@@QAEXXZ 1003cdb8 f   common:SocketServer.obj
 0001:0003bde0       __unwindfunclet$??0Socket@CSocketServer@Win32@OnlineGameLib@@AAE@AAV123@I_N@Z$0 1003cde0 f   common:SocketServer.obj
 0001:0003bdeb       __unwindfunclet$??0Socket@CSocketServer@Win32@OnlineGameLib@@AAE@AAV123@I_N@Z$1 1003cdeb f   common:SocketServer.obj
 0001:0003bdf9       __unwindfunclet$??0Socket@CSocketServer@Win32@OnlineGameLib@@AAE@AAV123@I_N@Z$2 1003cdf9 f   common:SocketServer.obj
 0001:0003be07       __unwindfunclet$??0Socket@CSocketServer@Win32@OnlineGameLib@@AAE@AAV123@I_N@Z$3 1003ce07 f   common:SocketServer.obj
 0001:0003be15       __unwindfunclet$??0Socket@CSocketServer@Win32@OnlineGameLib@@AAE@AAV123@I_N@Z$4 1003ce15 f   common:SocketServer.obj
 0001:0003be23       __unwindfunclet$??0Socket@CSocketServer@Win32@OnlineGameLib@@AAE@AAV123@I_N@Z$5 1003ce23 f   common:SocketServer.obj
 0001:0003be2b       __unwindfunclet$??0Socket@CSocketServer@Win32@OnlineGameLib@@AAE@AAV123@I_N@Z$6 1003ce2b f   common:SocketServer.obj
 0001:0003be33       __unwindfunclet$??0Socket@CSocketServer@Win32@OnlineGameLib@@AAE@AAV123@I_N@Z$7 1003ce33 f   common:SocketServer.obj
 0001:0003be41       __ehhandler$??0Socket@CSocketServer@Win32@OnlineGameLib@@AAE@AAV123@I_N@Z 1003ce41 f   common:SocketServer.obj
 0001:0003be70       __unwindfunclet$?AllocateSocket@CSocketServer@Win32@OnlineGameLib@@AAEPAVSocket@123@I@Z$0 1003ce70 f   common:SocketServer.obj
 0001:0003be78       __unwindfunclet$?AllocateSocket@CSocketServer@Win32@OnlineGameLib@@AAEPAVSocket@123@I@Z$1 1003ce78 f   common:SocketServer.obj
 0001:0003be83       __ehhandler$?AllocateSocket@CSocketServer@Win32@OnlineGameLib@@AAEPAVSocket@123@I@Z 1003ce83 f   common:SocketServer.obj
 0001:0003bea0       __unwindfunclet$??1Socket@CSocketServer@Win32@OnlineGameLib@@AAE@XZ$2 1003cea0 f   common:SocketServer.obj
 0001:0003bea8       __unwindfunclet$??1Socket@CSocketServer@Win32@OnlineGameLib@@AAE@XZ$3 1003cea8 f   common:SocketServer.obj
 0001:0003becf       __unwindfunclet$??1Socket@CSocketServer@Win32@OnlineGameLib@@AAE@XZ$4 1003cecf f   common:SocketServer.obj
 0001:0003bef6       __unwindfunclet$??1Socket@CSocketServer@Win32@OnlineGameLib@@AAE@XZ$5 1003cef6 f   common:SocketServer.obj
 0001:0003bf01       __unwindfunclet$??1Socket@CSocketServer@Win32@OnlineGameLib@@AAE@XZ$6 1003cf01 f   common:SocketServer.obj
 0001:0003bf0c       __ehhandler$??1Socket@CSocketServer@Win32@OnlineGameLib@@AAE@XZ 1003cf0c f   common:SocketServer.obj
 0001:0003bf30       __unwindfunclet$?ReleaseSocket@CSocketServer@Win32@OnlineGameLib@@AAEXPAVSocket@123@@Z$0 1003cf30 f   common:SocketServer.obj
 0001:0003bf38       __unwindfunclet$?ReleaseSocket@CSocketServer@Win32@OnlineGameLib@@AAEXPAVSocket@123@@Z$1 1003cf38 f   common:SocketServer.obj
 0001:0003bf40       __unwindfunclet$?ReleaseSocket@CSocketServer@Win32@OnlineGameLib@@AAEXPAVSocket@123@@Z$2 1003cf40 f   common:SocketServer.obj
 0001:0003bf4b       __ehhandler$?ReleaseSocket@CSocketServer@Win32@OnlineGameLib@@AAEXPAVSocket@123@@Z 1003cf4b f   common:SocketServer.obj
 0001:0003bf70       __unwindfunclet$?Read@WorkerThread@CSocketServer@Win32@OnlineGameLib@@ABEXPAVSocket@234@PAVCIOBuffer@34@@Z$0 1003cf70 f   common:SocketServer.obj
 0001:0003bf78       __ehhandler$?Read@WorkerThread@CSocketServer@Win32@OnlineGameLib@@ABEXPAVSocket@234@PAVCIOBuffer@34@@Z 1003cf78 f   common:SocketServer.obj
 0001:0003bfa0       __unwindfunclet$?Write@WorkerThread@CSocketServer@Win32@OnlineGameLib@@ABEXPAVSocket@234@PAVCIOBuffer@34@@Z$0 1003cfa0 f   common:SocketServer.obj
 0001:0003bfa8       __ehhandler$?Write@WorkerThread@CSocketServer@Win32@OnlineGameLib@@ABEXPAVSocket@234@PAVCIOBuffer@34@@Z 1003cfa8 f   common:SocketServer.obj
 0001:0003bfd0       __unwindfunclet$?ReleaseSockets@CSocketServer@Win32@OnlineGameLib@@AAEXXZ$0 1003cfd0 f   common:SocketServer.obj
 0001:0003bfd8       __unwindfunclet$?ReleaseSockets@CSocketServer@Win32@OnlineGameLib@@AAEXXZ$1 1003cfd8 f   common:SocketServer.obj
 0001:0003bfe0       __ehhandler$?ReleaseSockets@CSocketServer@Win32@OnlineGameLib@@AAEXXZ 1003cfe0 f   common:SocketServer.obj
 0001:0003c000       __unwindfunclet$?Run@CSocketServer@Win32@OnlineGameLib@@MAEHXZ$3 1003d000 f   common:SocketServer.obj
 0001:0003c008       __unwindfunclet$?Run@CSocketServer@Win32@OnlineGameLib@@MAEHXZ$4 1003d008 f   common:SocketServer.obj
 0001:0003c010       __unwindfunclet$?Run@CSocketServer@Win32@OnlineGameLib@@MAEHXZ$5 1003d010 f   common:SocketServer.obj
 0001:0003c018       __unwindfunclet$?Run@CSocketServer@Win32@OnlineGameLib@@MAEHXZ$6 1003d018 f   common:SocketServer.obj
 0001:0003c020       __unwindfunclet$?Run@CSocketServer@Win32@OnlineGameLib@@MAEHXZ$7 1003d020 f   common:SocketServer.obj
 0001:0003c028       __unwindfunclet$?Run@CSocketServer@Win32@OnlineGameLib@@MAEHXZ$8 1003d028 f   common:SocketServer.obj
 0001:0003c030       __unwindfunclet$?Run@CSocketServer@Win32@OnlineGameLib@@MAEHXZ$9 1003d030 f   common:SocketServer.obj
 0001:0003c038       __unwindfunclet$?Run@CSocketServer@Win32@OnlineGameLib@@MAEHXZ$10 1003d038 f   common:SocketServer.obj
 0001:0003c040       __unwindfunclet$?Run@CSocketServer@Win32@OnlineGameLib@@MAEHXZ$11 1003d040 f   common:SocketServer.obj
 0001:0003c048       __unwindfunclet$?Run@CSocketServer@Win32@OnlineGameLib@@MAEHXZ$12 1003d048 f   common:SocketServer.obj
 0001:0003c050       __unwindfunclet$?Run@CSocketServer@Win32@OnlineGameLib@@MAEHXZ$13 1003d050 f   common:SocketServer.obj
 0001:0003c058       __ehhandler$?Run@CSocketServer@Win32@OnlineGameLib@@MAEHXZ 1003d058 f   common:SocketServer.obj
 0001:0003c080       __unwindfunclet$?HandleOperation@WorkerThread@CSocketServer@Win32@OnlineGameLib@@MAEXPAVSocket@234@PAVCIOBuffer@34@K_N@Z$0 1003d080 f   common:SocketServer.obj
 0001:0003c088       __unwindfunclet$?HandleOperation@WorkerThread@CSocketServer@Win32@OnlineGameLib@@MAEXPAVSocket@234@PAVCIOBuffer@34@K_N@Z$1 1003d088 f   common:SocketServer.obj
 0001:0003c090       __ehhandler$?HandleOperation@WorkerThread@CSocketServer@Win32@OnlineGameLib@@MAEXPAVSocket@234@PAVCIOBuffer@34@K_N@Z 1003d090 f   common:SocketServer.obj
 0001:0003c0b0       __unwindfunclet$?uflow@?$basic_filebuf@DU?$char_traits@D@std@@@std@@MAEHXZ$0 1003d0b0 f   common:Utils.obj
 0001:0003c0b8       __ehhandler$?uflow@?$basic_filebuf@DU?$char_traits@D@std@@@std@@MAEHXZ 1003d0b8 f   common:Utils.obj
 0001:0003c0e0       __unwindfunclet$?_Endwrite@?$basic_filebuf@DU?$char_traits@D@std@@@std@@IAE_NXZ$0 1003d0e0 f   common:Utils.obj
 0001:0003c0e8       __ehhandler$?_Endwrite@?$basic_filebuf@DU?$char_traits@D@std@@@std@@IAE_NXZ 1003d0e8 f   common:Utils.obj
 0001:0003c110       __unwindfunclet$?HexToString@Win32@OnlineGameLib@@YA?AV?$basic_string@DU?$char_traits@D@std@@V?$allocator@D@2@@std@@PBEI@Z$0 1003d110 f   common:Utils.obj
 0001:0003c129       __ehhandler$?HexToString@Win32@OnlineGameLib@@YA?AV?$basic_string@DU?$char_traits@D@std@@V?$allocator@D@2@@std@@PBEI@Z 1003d129 f   common:Utils.obj
 0001:0003c150       __unwindfunclet$?overflow@?$basic_filebuf@DU?$char_traits@D@std@@@std@@MAEHH@Z$0 1003d150 f   common:Utils.obj
 0001:0003c158       __ehhandler$?overflow@?$basic_filebuf@DU?$char_traits@D@std@@@std@@MAEHH@Z 1003d158 f   common:Utils.obj
 0001:0003c180       __unwindfunclet$?GetCurrentDirectoryA@Win32@OnlineGameLib@@YA?AV?$basic_string@DU?$char_traits@D@std@@V?$allocator@D@2@@std@@XZ$0 1003d180 f   common:Utils.obj
 0001:0003c18b       __unwindfunclet$?GetCurrentDirectoryA@Win32@OnlineGameLib@@YA?AV?$basic_string@DU?$char_traits@D@std@@V?$allocator@D@2@@std@@XZ$1 1003d18b f   common:Utils.obj
 0001:0003c193       __unwindfunclet$?GetCurrentDirectoryA@Win32@OnlineGameLib@@YA?AV?$basic_string@DU?$char_traits@D@std@@V?$allocator@D@2@@std@@XZ$2 1003d193 f   common:Utils.obj
 0001:0003c19b       __ehhandler$?GetCurrentDirectoryA@Win32@OnlineGameLib@@YA?AV?$basic_string@DU?$char_traits@D@std@@V?$allocator@D@2@@std@@XZ 1003d19b f   common:Utils.obj
 0001:0003c1c0       __unwindfunclet$?DumpData@Win32@OnlineGameLib@@YA?AV?$basic_string@DU?$char_traits@D@std@@V?$allocator@D@2@@std@@QBEII@Z$0 1003d1c0 f   common:Utils.obj
 0001:0003c1e2       __unwindfunclet$?DumpData@Win32@OnlineGameLib@@YA?AV?$basic_string@DU?$char_traits@D@std@@V?$allocator@D@2@@std@@QBEII@Z$1 1003d1e2 f   common:Utils.obj
 0001:0003c1ea       __unwindfunclet$?DumpData@Win32@OnlineGameLib@@YA?AV?$basic_string@DU?$char_traits@D@std@@V?$allocator@D@2@@std@@QBEII@Z$2 1003d1ea f   common:Utils.obj
 0001:0003c1f2       __unwindfunclet$?DumpData@Win32@OnlineGameLib@@YA?AV?$basic_string@DU?$char_traits@D@std@@V?$allocator@D@2@@std@@QBEII@Z$3 1003d1f2 f   common:Utils.obj
 0001:0003c1fa       __unwindfunclet$?DumpData@Win32@OnlineGameLib@@YA?AV?$basic_string@DU?$char_traits@D@std@@V?$allocator@D@2@@std@@QBEII@Z$4 1003d1fa f   common:Utils.obj
 0001:0003c205       __unwindfunclet$?DumpData@Win32@OnlineGameLib@@YA?AV?$basic_string@DU?$char_traits@D@std@@V?$allocator@D@2@@std@@QBEII@Z$5 1003d205 f   common:Utils.obj
 0001:0003c20d       __unwindfunclet$?DumpData@Win32@OnlineGameLib@@YA?AV?$basic_string@DU?$char_traits@D@std@@V?$allocator@D@2@@std@@QBEII@Z$6 1003d20d f   common:Utils.obj
 0001:0003c215       __unwindfunclet$?DumpData@Win32@OnlineGameLib@@YA?AV?$basic_string@DU?$char_traits@D@std@@V?$allocator@D@2@@std@@QBEII@Z$7 1003d215 f   common:Utils.obj
 0001:0003c220       __ehhandler$?DumpData@Win32@OnlineGameLib@@YA?AV?$basic_string@DU?$char_traits@D@std@@V?$allocator@D@2@@std@@QBEII@Z 1003d220 f   common:Utils.obj
 0001:0003c250       __unwindfunclet$?GetComputerNameA@Win32@OnlineGameLib@@YA?AV?$basic_string@DU?$char_traits@D@std@@V?$allocator@D@2@@std@@XZ$0 1003d250 f   common:Utils.obj
 0001:0003c25e       __ehhandler$?GetComputerNameA@Win32@OnlineGameLib@@YA?AV?$basic_string@DU?$char_traits@D@std@@V?$allocator@D@2@@std@@XZ 1003d25e f   common:Utils.obj
 0001:0003c290       __unwindfunclet$?GetModuleFileNameA@Win32@OnlineGameLib@@YA?AV?$basic_string@DU?$char_traits@D@std@@V?$allocator@D@2@@std@@PAUHINSTANCE__@@@Z$0 1003d290 f   common:Utils.obj
 0001:0003c29e       __ehhandler$?GetModuleFileNameA@Win32@OnlineGameLib@@YA?AV?$basic_string@DU?$char_traits@D@std@@V?$allocator@D@2@@std@@PAUHINSTANCE__@@@Z 1003d29e f   common:Utils.obj
 0001:0003c2d0       __unwindfunclet$?GetUserNameA@Win32@OnlineGameLib@@YA?AV?$basic_string@DU?$char_traits@D@std@@V?$allocator@D@2@@std@@XZ$0 1003d2d0 f   common:Utils.obj
 0001:0003c2de       __ehhandler$?GetUserNameA@Win32@OnlineGameLib@@YA?AV?$basic_string@DU?$char_traits@D@std@@V?$allocator@D@2@@std@@XZ 1003d2de f   common:Utils.obj
 0001:0003c310       __unwindfunclet$?GetFileVersion@Win32@OnlineGameLib@@YA?AV?$basic_string@DU?$char_traits@D@std@@V?$allocator@D@2@@std@@XZ$2 1003d310 f   common:Utils.obj
 0001:0003c318       __unwindfunclet$?GetFileVersion@Win32@OnlineGameLib@@YA?AV?$basic_string@DU?$char_traits@D@std@@V?$allocator@D@2@@std@@XZ$3 1003d318 f   common:Utils.obj
 0001:0003c323       __unwindfunclet$?GetFileVersion@Win32@OnlineGameLib@@YA?AV?$basic_string@DU?$char_traits@D@std@@V?$allocator@D@2@@std@@XZ$4 1003d323 f   common:Utils.obj
 0001:0003c32b       __ehhandler$?GetFileVersion@Win32@OnlineGameLib@@YA?AV?$basic_string@DU?$char_traits@D@std@@V?$allocator@D@2@@std@@XZ 1003d32b f   common:Utils.obj
 0001:0003c360       __unwindfunclet$??1?$basic_filebuf@DU?$char_traits@D@std@@@std@@UAE@XZ$0 1003d360 f   common:Utils.obj
 0001:0003c368       __ehhandler$??1?$basic_filebuf@DU?$char_traits@D@std@@@std@@UAE@XZ 1003d368 f   common:Utils.obj
 0001:0003c390       __unwindfunclet$??0?$codecvt@DDH@std@@QAE@I@Z$0 1003d390 f   common:Utils.obj
 0001:0003c39b       __ehhandler$??0?$codecvt@DDH@std@@QAE@I@Z 1003d39b f   common:Utils.obj
 0001:0003c3d0       __unwindfunclet$??1?$basic_fstream@DU?$char_traits@D@std@@@std@@UAE@XZ$0 1003d3d0 f   common:Utils.obj
 0001:0003c3db       __ehhandler$??1?$basic_fstream@DU?$char_traits@D@std@@@std@@UAE@XZ 1003d3db f   common:Utils.obj
 0001:0003c400       __unwindfunclet$?_Getcat@?$codecvt@DDH@std@@SAIPAPBVfacet@locale@2@@Z$0 1003d400 f   common:Utils.obj
 0001:0003c40b       __ehhandler$?_Getcat@?$codecvt@DDH@std@@SAIPAPBVfacet@locale@2@@Z 1003d40b f   common:Utils.obj
 0001:0003c430       __unwindfunclet$??$use_facet@V?$codecvt@DDH@std@@@std@@YAABV?$codecvt@DDH@0@ABVlocale@0@@Z$0 1003d430 f   common:Utils.obj
 0001:0003c438       __ehhandler$??$use_facet@V?$codecvt@DDH@std@@@std@@YAABV?$codecvt@DDH@0@ABVlocale@0@@Z 1003d438 f   common:Utils.obj
 0001:0003c460       __unwindfunclet$??0?$basic_fstream@DU?$char_traits@D@std@@@std@@QAE@XZ$0 1003d460 f   common:Utils.obj
 0001:0003c47c       __unwindfunclet$??0?$basic_fstream@DU?$char_traits@D@std@@@std@@QAE@XZ$1 1003d47c f   common:Utils.obj
 0001:0003c487       __ehhandler$??0?$basic_fstream@DU?$char_traits@D@std@@@std@@QAE@XZ 1003d487 f   common:Utils.obj
 0001:0003c4b0       __ehhandler$?ThreadFunction@CThread@Win32@OnlineGameLib@@CGIPAX@Z 1003d4b0 f   common:Thread.obj
 0001:0003c4d0       __unwindfunclet$?Start@CThread@Win32@OnlineGameLib@@QAEXXZ$0 1003d4d0 f   common:Thread.obj
 0001:0003c4db       __unwindfunclet$?Start@CThread@Win32@OnlineGameLib@@QAEXXZ$1 1003d4db f   common:Thread.obj
 0001:0003c4e6       __unwindfunclet$?Start@CThread@Win32@OnlineGameLib@@QAEXXZ$2 1003d4e6 f   common:Thread.obj
 0001:0003c4f1       __ehhandler$?Start@CThread@Win32@OnlineGameLib@@QAEXXZ 1003d4f1 f   common:Thread.obj
 0001:0003c520       __unwindfunclet$?Wait@CThread@Win32@OnlineGameLib@@QBE_NK@Z$0 1003d520 f   common:Thread.obj
 0001:0003c528       __ehhandler$?Wait@CThread@Win32@OnlineGameLib@@QBE_NK@Z 1003d528 f   common:Thread.obj
 0001:0003c550       __unwindfunclet$?Wait@CThread@Win32@OnlineGameLib@@QBEXXZ$0 1003d550 f   common:Thread.obj
 0001:0003c558       __unwindfunclet$?Wait@CThread@Win32@OnlineGameLib@@QBEXXZ$1 1003d558 f   common:Thread.obj
 0001:0003c560       __ehhandler$?Wait@CThread@Win32@OnlineGameLib@@QBEXXZ 1003d560 f   common:Thread.obj
 0001:0003c580       __unwindfunclet$??0CIOBuffer@Win32@OnlineGameLib@@AAE@AAVAllocator@012@I@Z$0 1003d580 f   common:IOBuffer.obj
 0001:0003c58b       __unwindfunclet$??0CIOBuffer@Win32@OnlineGameLib@@AAE@AAVAllocator@012@I@Z$1 1003d58b f   common:IOBuffer.obj
 0001:0003c596       __ehhandler$??0CIOBuffer@Win32@OnlineGameLib@@AAE@AAVAllocator@012@I@Z 1003d596 f   common:IOBuffer.obj
 0001:0003c5c0       __ehhandler$?DestroyBuffer@Allocator@CIOBuffer@Win32@OnlineGameLib@@AAEXPAV234@@Z 1003d5c0 f   common:IOBuffer.obj
 0001:0003c5e0       __unwindfunclet$?Flush@Allocator@CIOBuffer@Win32@OnlineGameLib@@IAEXXZ$0 1003d5e0 f   common:IOBuffer.obj
 0001:0003c5e8       __ehhandler$?Flush@Allocator@CIOBuffer@Win32@OnlineGameLib@@IAEXXZ 1003d5e8 f   common:IOBuffer.obj
 0001:0003c610       __unwindfunclet$??1Allocator@CIOBuffer@Win32@OnlineGameLib@@UAE@XZ$2 1003d610 f   common:IOBuffer.obj
 0001:0003c61b       __ehhandler$??1Allocator@CIOBuffer@Win32@OnlineGameLib@@UAE@XZ 1003d61b f   common:IOBuffer.obj
 0001:0003c640       __unwindfunclet$?_Insert@?$_Tree@V?$_Tmap_traits@IPAVCIOBuffer@Win32@OnlineGameLib@@U?$less@I@std@@V?$allocator@U?$pair@$$CBIPAVCIOBuffer@Win32@OnlineGameLib@@@std@@@5@$0A@@std@@@std@@IAE?AViterator@12@_NPAU_Node@?$_Tree_nod@V?$_Tmap_traits@IPAVCIOBuffer@Win32@OnlineGameLib@@U?$less@I@std@@V?$allocator@U?$pair@$$CBIPAVCIOBuffer@Win32@OnlineGameLib@@@std@@@5@$0A@@std@@@2@ABU?$pair@$$CBIPAVCIOBuffer@Win32@OnlineGameLib@@@2@@Z$0 1003d640 f   common:IOBuffer.obj
 0001:0003c648       __ehhandler$?_Insert@?$_Tree@V?$_Tmap_traits@IPAVCIOBuffer@Win32@OnlineGameLib@@U?$less@I@std@@V?$allocator@U?$pair@$$CBIPAVCIOBuffer@Win32@OnlineGameLib@@@std@@@5@$0A@@std@@@std@@IAE?AViterator@12@_NPAU_Node@?$_Tree_nod@V?$_Tmap_traits@IPAVCIOBuffer@Win32@OnlineGameLib@@U?$less@I@std@@V?$allocator@U?$pair@$$CBIPAVCIOBuffer@Win32@OnlineGameLib@@@std@@@5@$0A@@std@@@2@ABU?$pair@$$CBIPAVCIOBuffer@Win32@OnlineGameLib@@@2@@Z 1003d648 f   common:IOBuffer.obj
 0001:0003c670       __unwindfunclet$?AddData@CIOBuffer@Win32@OnlineGameLib@@QAEXQBDI@Z$0 1003d670 f   common:IOBuffer.obj
 0001:0003c678       __unwindfunclet$?AddData@CIOBuffer@Win32@OnlineGameLib@@QAEXQBDI@Z$1 1003d678 f   common:IOBuffer.obj
 0001:0003c680       __ehhandler$?AddData@CIOBuffer@Win32@OnlineGameLib@@QAEXQBDI@Z 1003d680 f   common:IOBuffer.obj
 0001:0003c6a0       __unwindfunclet$?Allocate@Allocator@CIOBuffer@Win32@OnlineGameLib@@QAEPAV234@XZ$0 1003d6a0 f   common:IOBuffer.obj
 0001:0003c6ab       __unwindfunclet$?Allocate@Allocator@CIOBuffer@Win32@OnlineGameLib@@QAEPAV234@XZ$1 1003d6ab f   common:IOBuffer.obj
 0001:0003c6c5       __unwindfunclet$?Allocate@Allocator@CIOBuffer@Win32@OnlineGameLib@@QAEPAV234@XZ$2 1003d6c5 f   common:IOBuffer.obj
 0001:0003c6cd       __unwindfunclet$?Allocate@Allocator@CIOBuffer@Win32@OnlineGameLib@@QAEPAV234@XZ$3 1003d6cd f   common:IOBuffer.obj
 0001:0003c6d5       __ehhandler$?Allocate@Allocator@CIOBuffer@Win32@OnlineGameLib@@QAEPAV234@XZ 1003d6d5 f   common:IOBuffer.obj
 0001:0003c700       __unwindfunclet$?Release@Allocator@CIOBuffer@Win32@OnlineGameLib@@AAEXPAV234@@Z$0 1003d700 f   common:IOBuffer.obj
 0001:0003c708       __unwindfunclet$?Release@Allocator@CIOBuffer@Win32@OnlineGameLib@@AAEXPAV234@@Z$1 1003d708 f   common:IOBuffer.obj
 0001:0003c710       __unwindfunclet$?Release@Allocator@CIOBuffer@Win32@OnlineGameLib@@AAEXPAV234@@Z$2 1003d710 f   common:IOBuffer.obj
 0001:0003c71b       __ehhandler$?Release@Allocator@CIOBuffer@Win32@OnlineGameLib@@AAEXPAV234@@Z 1003d71b f   common:IOBuffer.obj
 0001:0003c740       __unwindfunclet$?ProcessAndGetNext@InOrderBufferList@CIOBuffer@Win32@OnlineGameLib@@QAEPAV234@XZ$0 1003d740 f   common:IOBuffer.obj
 0001:0003c748       __ehhandler$?ProcessAndGetNext@InOrderBufferList@CIOBuffer@Win32@OnlineGameLib@@QAEPAV234@XZ 1003d748 f   common:IOBuffer.obj
 0001:0003c770       __unwindfunclet$?GetNext@InOrderBufferList@CIOBuffer@Win32@OnlineGameLib@@QAEPAV234@XZ$0 1003d770 f   common:IOBuffer.obj
 0001:0003c778       __ehhandler$?GetNext@InOrderBufferList@CIOBuffer@Win32@OnlineGameLib@@QAEPAV234@XZ 1003d778 f   common:IOBuffer.obj
 0001:0003c7a0       __unwindfunclet$?Release@CIOBuffer@Win32@OnlineGameLib@@QAEXXZ$0 1003d7a0 f   common:IOBuffer.obj
 0001:0003c7a8       __unwindfunclet$?Release@CIOBuffer@Win32@OnlineGameLib@@QAEXXZ$1 1003d7a8 f   common:IOBuffer.obj
 0001:0003c7b0       __ehhandler$?Release@CIOBuffer@Win32@OnlineGameLib@@QAEXXZ 1003d7b0 f   common:IOBuffer.obj
 0001:0003c7d0       __unwindfunclet$?AddBuffer@InOrderBufferList@CIOBuffer@Win32@OnlineGameLib@@QAEXPAV234@@Z$0 1003d7d0 f   common:IOBuffer.obj
 0001:0003c7d8       __ehhandler$?AddBuffer@InOrderBufferList@CIOBuffer@Win32@OnlineGameLib@@QAEXPAV234@@Z 1003d7d8 f   common:IOBuffer.obj
 0001:0003c800       __unwindfunclet$?GetNext@InOrderBufferList@CIOBuffer@Win32@OnlineGameLib@@QAEPAV234@PAV234@@Z$0 1003d800 f   common:IOBuffer.obj
 0001:0003c808       __ehhandler$?GetNext@InOrderBufferList@CIOBuffer@Win32@OnlineGameLib@@QAEPAV234@PAV234@@Z 1003d808 f   common:IOBuffer.obj
 0001:0003c830       __unwindfunclet$?Create@Win32@OnlineGameLib@@YAPAXPAU_SECURITY_ATTRIBUTES@@_N1PBD@Z$0 1003d830 f   common:Event.obj
 0001:0003c838       __ehhandler$?Create@Win32@OnlineGameLib@@YAPAXPAU_SECURITY_ATTRIBUTES@@_N1PBD@Z 1003d838 f   common:Event.obj
 0001:0003c860       __unwindfunclet$?Wait@CEvent@Win32@OnlineGameLib@@QBE_NK@Z$0 1003d860 f   common:Event.obj
 0001:0003c868       __ehhandler$?Wait@CEvent@Win32@OnlineGameLib@@QBE_NK@Z 1003d868 f   common:Event.obj
 0001:0003c890       __unwindfunclet$?Reset@CEvent@Win32@OnlineGameLib@@QAEXXZ$0 1003d890 f   common:Event.obj
 0001:0003c898       __ehhandler$?Reset@CEvent@Win32@OnlineGameLib@@QAEXXZ 1003d898 f   common:Event.obj
 0001:0003c8c0       __unwindfunclet$?Set@CEvent@Win32@OnlineGameLib@@QAEXXZ$0 1003d8c0 f   common:Event.obj
 0001:0003c8c8       __ehhandler$?Set@CEvent@Win32@OnlineGameLib@@QAEXXZ 1003d8c8 f   common:Event.obj
 0001:0003c8f0       __unwindfunclet$?Pulse@CEvent@Win32@OnlineGameLib@@QAEXXZ$0 1003d8f0 f   common:Event.obj
 0001:0003c8f8       __ehhandler$?Pulse@CEvent@Win32@OnlineGameLib@@QAEXXZ 1003d8f8 f   common:Event.obj
 0001:0003c920       __unwindfunclet$?Wait@CEvent@Win32@OnlineGameLib@@QBEXXZ$0 1003d920 f   common:Event.obj
 0001:0003c928       __unwindfunclet$?Wait@CEvent@Win32@OnlineGameLib@@QBEXXZ$1 1003d928 f   common:Event.obj
 0001:0003c930       __ehhandler$?Wait@CEvent@Win32@OnlineGameLib@@QBEXXZ 1003d930 f   common:Event.obj
 0001:0003c950       __unwindfunclet$??6?$basic_ostream@DU?$char_traits@D@std@@@std@@QAEAAV01@G@Z$2 1003d950 f   common:SocketAddress.obj
 0001:0003c958       __unwindfunclet$??6?$basic_ostream@DU?$char_traits@D@std@@@std@@QAEAAV01@G@Z$3 1003d958 f   common:SocketAddress.obj
 0001:0003c960       __ehhandler$??6?$basic_ostream@DU?$char_traits@D@std@@@std@@QAEAAV01@G@Z 1003d960 f   common:SocketAddress.obj
 0001:0003c980       __unwindfunclet$??$ToString@G@Win32@OnlineGameLib@@YA?AV?$basic_string@DU?$char_traits@D@std@@V?$allocator@D@2@@std@@G@Z$0 1003d980 f   common:SocketAddress.obj
 0001:0003c9a2       __unwindfunclet$??$ToString@G@Win32@OnlineGameLib@@YA?AV?$basic_string@DU?$char_traits@D@std@@V?$allocator@D@2@@std@@G@Z$1 1003d9a2 f   common:SocketAddress.obj
 0001:0003c9ad       __ehhandler$??$ToString@G@Win32@OnlineGameLib@@YA?AV?$basic_string@DU?$char_traits@D@std@@V?$allocator@D@2@@std@@G@Z 1003d9ad f   common:SocketAddress.obj
 0001:0003c9d0       __unwindfunclet$?DeblockSockAddr@Win32@OnlineGameLib@@YA?AV?$basic_string@DU?$char_traits@D@std@@V?$allocator@D@2@@std@@PBUsockaddr@@@Z$1 1003d9d0 f   common:SocketAddress.obj
 0001:0003c9d8       __unwindfunclet$?DeblockSockAddr@Win32@OnlineGameLib@@YA?AV?$basic_string@DU?$char_traits@D@std@@V?$allocator@D@2@@std@@PBUsockaddr@@@Z$2 1003d9d8 f   common:SocketAddress.obj
 0001:0003c9e0       __unwindfunclet$?DeblockSockAddr@Win32@OnlineGameLib@@YA?AV?$basic_string@DU?$char_traits@D@std@@V?$allocator@D@2@@std@@PBUsockaddr@@@Z$3 1003d9e0 f   common:SocketAddress.obj
 0001:0003c9e8       __ehhandler$?DeblockSockAddr@Win32@OnlineGameLib@@YA?AV?$basic_string@DU?$char_traits@D@std@@V?$allocator@D@2@@std@@PBUsockaddr@@@Z 1003d9e8 f   common:SocketAddress.obj
 0001:0003ca10       __unwindfunclet$??0CWin32Exception@Win32@OnlineGameLib@@QAE@ABV?$basic_string@DU?$char_traits@D@std@@V?$allocator@D@2@@std@@K@Z$0 1003da10 f   common:Win32Exception.obj
 0001:0003ca18       __ehhandler$??0CWin32Exception@Win32@OnlineGameLib@@QAE@ABV?$basic_string@DU?$char_traits@D@std@@V?$allocator@D@2@@std@@K@Z 1003da18 f   common:Win32Exception.obj
 0001:0003ca40       __unwindfunclet$?MessageBoxA@CException@Win32@OnlineGameLib@@QBEXPAUHWND__@@@Z$0 1003da40 f   common:Exception.obj
 0001:0003ca48       __ehhandler$?MessageBoxA@CException@Win32@OnlineGameLib@@QBEXPAUHWND__@@@Z 1003da48 f   common:Exception.obj
 0001:0003ca70       __unwindfunclet$??0CException@Win32@OnlineGameLib@@QAE@ABV?$basic_string@DU?$char_traits@D@std@@V?$allocator@D@2@@std@@0@Z$0 1003da70 f   common:Exception.obj
 0001:0003ca7b       __ehhandler$??0CException@Win32@OnlineGameLib@@QAE@ABV?$basic_string@DU?$char_traits@D@std@@V?$allocator@D@2@@std@@0@Z 1003da7b f   common:Exception.obj
 0001:0003caa0       __unwindfunclet$??0CUsesWinsock@Win32@OnlineGameLib@@QAE@XZ$0 1003daa0 f   common:UsesWinsock.obj
 0001:0003caa8       __ehhandler$??0CUsesWinsock@Win32@OnlineGameLib@@QAE@XZ 1003daa8 f   common:UsesWinsock.obj
 0001:0003cad0       __unwindfunclet$??0CIOCompletionPort@Win32@OnlineGameLib@@QAE@I@Z$0 1003dad0 f   common:IOCompletionPort.obj
 0001:0003cad8       __ehhandler$??0CIOCompletionPort@Win32@OnlineGameLib@@QAE@I@Z 1003dad8 f   common:IOCompletionPort.obj
 0001:0003cb00       __unwindfunclet$?AssociateDevice@CIOCompletionPort@Win32@OnlineGameLib@@QAEXPAXK@Z$0 1003db00 f   common:IOCompletionPort.obj
 0001:0003cb08       __ehhandler$?AssociateDevice@CIOCompletionPort@Win32@OnlineGameLib@@QAEXPAXK@Z 1003db08 f   common:IOCompletionPort.obj
 0001:0003cb30       __unwindfunclet$?PostStatus@CIOCompletionPort@Win32@OnlineGameLib@@QAEXKKPAU_OVERLAPPED@@@Z$0 1003db30 f   common:IOCompletionPort.obj
 0001:0003cb38       __ehhandler$?PostStatus@CIOCompletionPort@Win32@OnlineGameLib@@QAEXKKPAU_OVERLAPPED@@@Z 1003db38 f   common:IOCompletionPort.obj
 0001:0003cb60       __unwindfunclet$??0CSocket@Win32@OnlineGameLib@@QAE@I@Z$0 1003db60 f   common:Socket.obj
 0001:0003cb68       __ehhandler$??0CSocket@Win32@OnlineGameLib@@QAE@I@Z 1003db68 f   common:Socket.obj
 0001:0003cb90       __unwindfunclet$?Close@CSocket@Win32@OnlineGameLib@@QAEXXZ$0 1003db90 f   common:Socket.obj
 0001:0003cb98       __ehhandler$?Close@CSocket@Win32@OnlineGameLib@@QAEXXZ 1003db98 f   common:Socket.obj
 0001:0003cbc0       __unwindfunclet$?AbortiveClose@CSocket@Win32@OnlineGameLib@@QAEXXZ$0 1003dbc0 f   common:Socket.obj
 0001:0003cbc8       __ehhandler$?AbortiveClose@CSocket@Win32@OnlineGameLib@@QAEXXZ 1003dbc8 f   common:Socket.obj
 0001:0003cbf0       __unwindfunclet$?Shutdown@CSocket@Win32@OnlineGameLib@@QAEXH@Z$0 1003dbf0 f   common:Socket.obj
 0001:0003cbf8       __ehhandler$?Shutdown@CSocket@Win32@OnlineGameLib@@QAEXH@Z 1003dbf8 f   common:Socket.obj
 0001:0003cc20       __unwindfunclet$?Listen@CSocket@Win32@OnlineGameLib@@QAEXH@Z$0 1003dc20 f   common:Socket.obj
 0001:0003cc28       __ehhandler$?Listen@CSocket@Win32@OnlineGameLib@@QAEXH@Z 1003dc28 f   common:Socket.obj
 0001:0003cc50       __unwindfunclet$?Bind@CSocket@Win32@OnlineGameLib@@QAEXABUsockaddr_in@@@Z$0 1003dc50 f   common:Socket.obj
 0001:0003cc58       __ehhandler$?Bind@CSocket@Win32@OnlineGameLib@@QAEXABUsockaddr_in@@@Z 1003dc58 f   common:Socket.obj
 0001:0003cc80       __unwindfunclet$?Bind@CSocket@Win32@OnlineGameLib@@QAEXABUsockaddr@@I@Z$0 1003dc80 f   common:Socket.obj
 0001:0003cc88       __ehhandler$?Bind@CSocket@Win32@OnlineGameLib@@QAEXABUsockaddr@@I@Z 1003dc88 f   common:Socket.obj
 0001:0003ccb0       __unwindfunclet$?Connect@CSocket@Win32@OnlineGameLib@@QAEXABUsockaddr_in@@@Z$0 1003dcb0 f   common:Socket.obj
 0001:0003ccb8       __ehhandler$?Connect@CSocket@Win32@OnlineGameLib@@QAEXABUsockaddr_in@@@Z 1003dcb8 f   common:Socket.obj
 0001:0003cce0       __unwindfunclet$?Connect@CSocket@Win32@OnlineGameLib@@QAEXABUsockaddr@@I@Z$0 1003dce0 f   common:Socket.obj
 0001:0003cce8       __ehhandler$?Connect@CSocket@Win32@OnlineGameLib@@QAEXABUsockaddr@@I@Z 1003dce8 f   common:Socket.obj
 0001:0003cd10       __ehhandler$??1CSocket@Win32@OnlineGameLib@@QAE@XZ 1003dd10 f   common:Socket.obj
 0001:0003cd2b       __ehhandler$?CallUnexpected@@YAXPBU_s_ESTypeList@@@Z 1003dd2b f   LIBCMT:frame.obj
 0001:0003cd46       __unwindfunclet$?_Locimp_dtor@_Locimp@locale@std@@CAXPAV123@@Z$0 1003dd46 f   libcpmt:locale0.obj
 0001:0003cd4e       __ehhandler$?_Locimp_dtor@_Locimp@locale@std@@CAXPAV123@@Z 1003dd4e f   libcpmt:locale0.obj
 0001:0003cd69       __unwindfunclet$??0_Locimp@locale@std@@AAE@_N@Z$0 1003dd69 f   libcpmt:locale0.obj
 0001:0003cd71       __ehhandler$??0_Locimp@locale@std@@AAE@_N@Z 1003dd71 f   libcpmt:locale0.obj
 0001:0003cd8c       __unwindfunclet$??1_Locimp@locale@std@@MAE@XZ$0 1003dd8c f   libcpmt:locale0.obj
 0001:0003cd94       __unwindfunclet$??1_Locimp@locale@std@@MAE@XZ$1 1003dd94 f   libcpmt:locale0.obj
 0001:0003cd9f       __ehhandler$??1_Locimp@locale@std@@MAE@XZ 1003dd9f f   libcpmt:locale0.obj
 0001:0003cdba       __unwindfunclet$?_Init@locale@std@@CAPAV_Locimp@12@XZ$0 1003ddba f   libcpmt:locale0.obj
 0001:0003cdc2       __unwindfunclet$?_Init@locale@std@@CAPAV_Locimp@12@XZ$1 1003ddc2 f   libcpmt:locale0.obj
 0001:0003cdcc       __ehhandler$?_Init@locale@std@@CAPAV_Locimp@12@XZ 1003ddcc f   libcpmt:locale0.obj
 0001:0003cde7       __unwindfunclet$?empty@locale@std@@SA?AV12@XZ$0 1003dde7 f   libcpmt:locale0.obj
 0001:0003cdf1       __ehhandler$?empty@locale@std@@SA?AV12@XZ 1003ddf1 f   libcpmt:locale0.obj
 0001:0003ce0c       __unwindfunclet$?_Xlen@_String_base@std@@SAXXZ$0 1003de0c f   libcpmt:string.obj
 0001:0003ce14       __ehhandler$?_Xlen@_String_base@std@@SAXXZ 1003de14 f   libcpmt:string.obj
 0001:0003ce2f       __unwindfunclet$?_Xran@_String_base@std@@SAXXZ$0 1003de2f f   libcpmt:string.obj
 0001:0003ce37       __ehhandler$?_Xran@_String_base@std@@SAXXZ 1003de37 f   libcpmt:string.obj
 0001:0003ce52       __unwindfunclet$?_Xinvarg@_String_base@std@@SAXXZ$0 1003de52 f   libcpmt:string.obj
 0001:0003ce5a       __ehhandler$?_Xinvarg@_String_base@std@@SAXXZ 1003de5a f   libcpmt:string.obj
 0001:0003ce80       ??__Egs_holdrand@@YAXXZ    1003de80 f   ServerStage.obj
 0001:0003ce90       ??__Es_criticalSection@Win32@OnlineGameLib@@YAXXZ 1003de90 f   common:Utils.obj
 0001:0003ceb0       ??__Es_debugOut@Win32@OnlineGameLib@@YAXXZ 1003deb0 f   common:Utils.obj
 0001:0003ced0       ??__Es_logFileName@Win32@OnlineGameLib@@YAXXZ 1003ded0 f   common:Utils.obj
 0001:0003ceed       ??__Einitlocks@std@@YAXXZ  1003deed f   libcpmt:xlock.obj
 0001:0003cf03       ??__Eclassic_locale@std@@YAXXZ 1003df03 f   libcpmt:locale0.obj
 0001:0003cf0f       ??__Einitlocks@std@@YAXXZ  1003df0f f   libcpmt:iosptrs.obj
 0001:0003cf25       ??__Einit_atexit@@YAXXZ    1003df25 f   libcpmt:iosptrs.obj
 0001:0003cf40       ??__Fs_criticalSection@Win32@OnlineGameLib@@YAXXZ 1003df40 f   common:Utils.obj
 0001:0003cf50       ??__Fs_logFileName@Win32@OnlineGameLib@@YAXXZ 1003df50 f   common:Utils.obj
