 Engine

 Timestamp is 507eb48f (Wed Oct 17 20:37:19 2012)

 Preferred load address is 10000000

 Start         Length     Name                   Class
 0001:00000000 0003a150H .text                   CODE
 0001:0003a150 00001999H .text$x                 CODE
 0001:0003baf0 0000005cH .text$yc                CODE
 0001:0003bb50 00000040H .text$yd                CODE
 0002:00000000 0000030cH .idata$5                DATA
 0002:0000030c 00000004H .CRT$XCA                DATA
 0002:00000310 00000010H .CRT$XCU                DATA
 0002:00000320 00000004H .CRT$XCZ                DATA
 0002:00000324 00000004H .CRT$XIA                DATA
 0002:00000328 00000004H .CRT$XIAA               DATA
 0002:0000032c 00000004H .CRT$XIC                DATA
 0002:00000330 00000004H .CRT$XIZ                DATA
 0002:00000340 00005950H .rdata                  DATA
 0002:00005c90 00000054H .rdata$debug            DATA
 0002:00005ce4 00000b24H .rdata$r                DATA
 0002:00006808 00000004H .rtc$IAA                DATA
 0002:0000680c 00000004H .rtc$IZZ                DATA
 0002:00006810 00000004H .rtc$TAA                DATA
 0002:00006814 00000004H .rtc$TZZ                DATA
 0002:00006818 00001854H .xdata$x                DATA
 0002:0000806c 000000dcH .idata$2                DATA
 0002:00008148 00000014H .idata$3                DATA
 0002:0000815c 0000030cH .idata$4                DATA
 0002:00008468 00000ceeH .idata$6                DATA
 0002:00009160 0000c3eeH .edata                  DATA
 0003:00000000 00006de8H .data                   DATA
 0003:00006e00 0000950cH .bss                    DATA

  Address         Publics by Value              Rva+Base       Lib:Object

 0000:00000000       ___safe_se_handler_count   00000000     <absolute>
 0000:00000000       ___safe_se_handler_table   00000000     <absolute>
 0000:00000000       __except_list              00000000     <absolute>
 0000:00009876       __fltused                  00009876     <absolute>
 0000:00009876       __ldused                   00009876     <absolute>
 0000:00000000       ___ImageBase               10000000     <linker-defined>
 0001:00000000       ?GetScreenMode@KDirectDraw@@QAEKXZ 10001000 f i KAutoMutex.obj
 0001:00000010       ?GetScreenWidth@KDirectDraw@@QAEKXZ 10001010 f i KAutoMutex.obj
 0001:00000020       ?GetScreenHeight@KDirectDraw@@QAEKXZ 10001020 f i KAutoMutex.obj
 0001:00000030       ?GetScreenPitch@KDirectDraw@@QAEKXZ 10001030 f i KAutoMutex.obj
 0001:00000040       ?GetRGBBitCount@KDirectDraw@@QAEKXZ 10001040 f i KAutoMutex.obj
 0001:00000050       ?GetRGBBitMask16@KDirectDraw@@QAEKXZ 10001050 f i KAutoMutex.obj
 0001:00000060       ?GetRGBBitMask32@KDirectDraw@@QAEKXZ 10001060 f i KAutoMutex.obj
 0001:00000070       ??4KDirectDraw@@QAEAAV0@ABV0@@Z 10001070 f i KAutoMutex.obj
 0001:00000090       ?LockPrimaryBuffer@KDirectDraw@@QAEPAXXZ 10001090 f i KAutoMutex.obj
 0001:000000e0       ?UnLockPrimaryBuffer@KDirectDraw@@QAEXXZ 100010e0 f i KAutoMutex.obj
 0001:00000100       ?LockBackBuffer@KDirectDraw@@QAEPAXXZ 10001100 f i KAutoMutex.obj
 0001:00000150       ?UnLockBackBuffer@KDirectDraw@@QAEXXZ 10001150 f i KAutoMutex.obj
 0001:00000170       ?UpdateScreen@KDirectDraw@@QAEXPAUtagRECT@@@Z 10001170 f i KAutoMutex.obj
 0001:000001a0       ?GetDirectSound@KDirectSound@@QAEPAUIDirectSound@@XZ 100011a0 f i KAutoMutex.obj
 0001:000001b0       ??4KDirectSound@@QAEAAV0@ABV0@@Z 100011b0 f i KAutoMutex.obj
 0001:000001d0       ??4KDirectInput@@QAEAAV0@ABV0@@Z 100011d0 f i KAutoMutex.obj
 0001:000001f0       ??4KFile@@QAEAAV0@ABV0@@Z  100011f0 f i KAutoMutex.obj
 0001:00000210       ?GetFilePath@KFileDialog@@QAEPADXZ 10001210 f i KAutoMutex.obj
 0001:00000220       ?GetFileName@KFileDialog@@QAEPADXZ 10001220 f i KAutoMutex.obj
 0001:00000230       ?GetFileTitleA@KFileDialog@@QAEPADXZ 10001230 f i KAutoMutex.obj
 0001:00000240       ??4KFileDialog@@QAEAAV0@ABV0@@Z 10001240 f i KAutoMutex.obj
 0001:00000260       ??4KTimer@@QAEAAV0@ABV0@@Z 10001260 f i KAutoMutex.obj
 0001:00000280       ?GetMemPtr@KMemClass@@QAEPAXXZ 10001280 f i KAutoMutex.obj
 0001:00000290       ?GetMemLen@KMemClass@@QAEKXZ 10001290 f i KAutoMutex.obj
 0001:000002a0       ??4KMemClass@@QAEAAV0@ABV0@@Z 100012a0 f i KAutoMutex.obj
 0001:000002c0       ?GetWidth@KSprite@@QAEHXZ  100012c0 f i KAutoMutex.obj
 0001:000002d0       ?GetHeight@KSprite@@QAEHXZ 100012d0 f i KAutoMutex.obj
 0001:000002e0       ?GetCenterX@KSprite@@QAEHXZ 100012e0 f i KAutoMutex.obj
 0001:000002f0       ?GetCenterY@KSprite@@QAEHXZ 100012f0 f i KAutoMutex.obj
 0001:00000300       ?GetFrames@KSprite@@QAEHXZ 10001300 f i KAutoMutex.obj
 0001:00000310       ?GetDirections@KSprite@@QAEHXZ 10001310 f i KAutoMutex.obj
 0001:00000320       ?GetInterval@KSprite@@QAEHXZ 10001320 f i KAutoMutex.obj
 0001:00000330       ?GetPalette@KSprite@@QAEPAXXZ 10001330 f i KAutoMutex.obj
 0001:00000340       ?Get24Palette@KSprite@@QAEPAXXZ 10001340 f i KAutoMutex.obj
 0001:00000350       ??1KSprite@@QAE@XZ         10001350 f i KAutoMutex.obj
 0001:000003b0       ??4KSprite@@QAEAAV0@ABV0@@Z 100013b0 f i KAutoMutex.obj
 0001:000003d0       ??4KPakFile@@QAEAAV0@ABV0@@Z 100013d0 f i KAutoMutex.obj
 0001:000003f0       ??4KMemStack@@QAEAAV0@ABV0@@Z 100013f0 f i KAutoMutex.obj
 0001:00000410       ??4KIniFile@@QAEAAV0@ABV0@@Z 10001410 f i KAutoMutex.obj
 0001:00000430       ?Changed@KCanvas@@QAEXH@Z  10001430 f i KAutoMutex.obj
 0001:00000440       ?GetWidth@KCanvas@@QAEHXZ  10001440 f i KAutoMutex.obj
 0001:00000450       ?GetHeight@KCanvas@@QAEHXZ 10001450 f i KAutoMutex.obj
 0001:00000460       ?SetClipRect@KCanvas@@QAEXPAUtagRECT@@@Z 10001460 f i KAutoMutex.obj
 0001:00000480       ?GetClipRect@KCanvas@@QAEXPAUtagRECT@@@Z 10001480 f i KAutoMutex.obj
 0001:000004a0       ??4KCanvas@@QAEAAV0@ABV0@@Z 100014a0 f i KAutoMutex.obj
 0001:000004c0       ?GetBitmap@KBitmap@@QAEPAXXZ 100014c0 f i KAutoMutex.obj
 0001:000004d0       ?GetPal32@KBitmap@@QAEPAUKPAL32@@XZ 100014d0 f i KAutoMutex.obj
 0001:000004e0       ?GetPal16@KBitmap@@QAEPAGXZ 100014e0 f i KAutoMutex.obj
 0001:000004f0       ?GetWidth@KBitmap@@QAEHXZ  100014f0 f i KAutoMutex.obj
 0001:00000500       ?GetHeight@KBitmap@@QAEHXZ 10001500 f i KAutoMutex.obj
 0001:00000510       ?GetColors@KBitmap@@QAEHXZ 10001510 f i KAutoMutex.obj
 0001:00000520       ??1KBitmap@@QAE@XZ         10001520 f i KAutoMutex.obj
 0001:00000530       ??4KBitmap@@QAEAAV0@ABV0@@Z 10001530 f i KAutoMutex.obj
 0001:00000550       ?GetWidth@KFont@@QAEHXZ    10001550 f i KAutoMutex.obj
 0001:00000560       ?GetHeight@KFont@@QAEHXZ   10001560 f i KAutoMutex.obj
 0001:00000570       ?SetTextStyle@KFont@@QAEXH@Z 10001570 f i KAutoMutex.obj
 0001:00000580       ??4KFont@@QAEAAV0@ABV0@@Z  10001580 f i KAutoMutex.obj
 0001:000005a0       ?HandleInput@KWin32App@@MAEHIIJ@Z 100015a0 f i KAutoMutex.obj
 0001:000005b0       ??0KWin32App@@QAE@ABV0@@Z  100015b0 f i KAutoMutex.obj
 0001:00000610       ??4KWin32App@@QAEAAV0@ABV0@@Z 10001610 f i KAutoMutex.obj
 0001:00000680       ??4KMutex@@QAEAAV0@ABV0@@Z 10001680 f i KAutoMutex.obj
 0001:000006b0       ??4KAutoMutex@@QAEAAV0@ABV0@@Z 100016b0 f i KAutoMutex.obj
 0001:000006c0       ??0KAutoMutex@@QAE@PAVKMutex@@@Z 100016c0 f   KAutoMutex.obj
 0001:000006e0       ??1KAutoMutex@@QAE@XZ      100016e0 f   KAutoMutex.obj
 0001:00000700       ??4KAviFile@@QAEAAV0@ABV0@@Z 10001700 f i KAviFile.obj
 0001:00000740       ??0KAviFile@@QAE@XZ        10001740 f   KAviFile.obj
 0001:00000770       ?FillHeader@KAviFile@@QAEHXZ 10001770 f   KAviFile.obj
 0001:000011d0       ?GetAudioIndex@KAviFile@@QAEHXZ 100021d0 f   KAviFile.obj
 0001:00001440       ?GetVideoIndex@KAviFile@@QAEHXZ 10002440 f   KAviFile.obj
 0001:000015e0       ?VideoStreams@KAviFile@@QAEHXZ 100025e0 f   KAviFile.obj
 0001:000015f0       ?AudioStreams@KAviFile@@QAEHXZ 100025f0 f   KAviFile.obj
 0001:00001600       ?GetBitmapInfoHeader@KAviFile@@QAEXPAUtagBITMAPINFOHEADER@@@Z 10002600 f   KAviFile.obj
 0001:00001620       ?GetWaveFormat@KAviFile@@QAEXPAUtWAVEFORMATEX@@@Z 10002620 f   KAviFile.obj
 0001:00001650       ?GetCompressMethod@KAviFile@@QAEXPAD@Z 10002650 f   KAviFile.obj
 0001:00001670       ?NextFrame@KAviFile@@QAEHPAE@Z 10002670 f   KAviFile.obj
 0001:000016d0       ?ReadAudio@KAviFile@@QAEHPAEH@Z 100026d0 f   KAviFile.obj
 0001:00001770       ?FrameRate@KAviFile@@QAEHXZ 10002770 f   KAviFile.obj
 0001:00001790       ?CurrentFrame@KAviFile@@QAEHXZ 10002790 f   KAviFile.obj
 0001:000017a0       ?TotalFrames@KAviFile@@QAEHXZ 100027a0 f   KAviFile.obj
 0001:000017b0       ?AudioSeek@KAviFile@@QAEHH@Z 100027b0 f   KAviFile.obj
 0001:00001880       ?IsKeyframe@KAviFile@@QAEHH@Z 10002880 f   KAviFile.obj
 0001:000018b0       ?NextKeyFrame@KAviFile@@QAEHXZ 100028b0 f   KAviFile.obj
 0001:000018f0       ?PreviousKeyFrame@KAviFile@@QAEHXZ 100028f0 f   KAviFile.obj
 0001:00001930       ?Rewind@KAviFile@@QAEHXZ   10002930 f   KAviFile.obj
 0001:00001950       ?Close@KAviFile@@QAEXXZ    10002950 f   KAviFile.obj
 0001:00001990       ??1KAviFile@@QAE@XZ        10002990 f   KAviFile.obj
 0001:000019f0       ?Open@KAviFile@@QAEHPAD@Z  100029f0 f   KAviFile.obj
 0001:00001bb0       ?VideoSeek@KAviFile@@QAEHH@Z 10002bb0 f   KAviFile.obj
 0001:00001c10       ??0KBitmap@@QAE@XZ         10002c10 f   KBitmap.obj
 0001:00001c30       ?Init@KBitmap@@QAEHHHH@Z   10002c30 f   KBitmap.obj
 0001:00001c70       ?Draw@KBitmap@@QAEXHH@Z    10002c70 f   KBitmap.obj
 0001:00001cb0       ?Clear@KBitmap@@QAEXE@Z    10002cb0 f   KBitmap.obj
 0001:00001cc0       ?MakePalette@KBitmap@@QAEXXZ 10002cc0 f   KBitmap.obj
 0001:00001ce0       ?PutPixel@KBitmap@@QAEXHHE@Z 10002ce0 f   KBitmap.obj
 0001:00001d00       ?GetPixel@KBitmap@@QAEEHH@Z 10002d00 f   KBitmap.obj
 0001:00001d20       ?Load@KBitmap@@QAEHPAD@Z   10002d20 f   KBitmap.obj
 0001:00001e40       ?Save@KBitmap@@QAEHPAD@Z   10002e40 f   KBitmap.obj
 0001:00001f50       ?GetBitmap@KBitmap16@@QAEPAXXZ 10002f50 f i KBitmap16.obj
 0001:00001f60       ?GetWidth@KBitmap16@@QAEHXZ 10002f60 f i KBitmap16.obj
 0001:00001f70       ?GetHeight@KBitmap16@@QAEHXZ 10002f70 f i KBitmap16.obj
 0001:00001f80       ??1KBitmap16@@QAE@XZ       10002f80 f i KBitmap16.obj
 0001:00001f90       ??4KBitmap16@@QAEAAV0@ABV0@@Z 10002f90 f i KBitmap16.obj
 0001:00001fb0       ??0KBitmap16@@QAE@XZ       10002fb0 f   KBitmap16.obj
 0001:00001fd0       ?Init@KBitmap16@@QAEHHH@Z  10002fd0 f   KBitmap16.obj
 0001:00002000       ?Free@KBitmap16@@QAEXXZ    10003000 f   KBitmap16.obj
 0001:00002010       ?Clear@KBitmap16@@QAEXXZ   10003010 f   KBitmap16.obj
 0001:00002020       ?Draw@KBitmap16@@QAEXHH@Z  10003020 f   KBitmap16.obj
 0001:00002030       ?DrawLum@KBitmap16@@QAEXHHH@Z 10003030 f   KBitmap16.obj
 0001:00002040       ?PutPixel@KBitmap16@@QAEXHHG@Z 10003040 f   KBitmap16.obj
 0001:00002080       ?GetPixel@KBitmap16@@QAEGHH@Z 10003080 f   KBitmap16.obj
 0001:000020c0       ?GetPointer@KBitmap16@@QAEPAGHH@Z 100030c0 f   KBitmap16.obj
 0001:000020e0       ?Load@KBitmap16@@QAEHPAD@Z 100030e0 f   KBitmap16.obj
 0001:00002210       ?Save@KBitmap16@@QAEHPAD@Z 10003210 f   KBitmap16.obj
 0001:00002300       _g_CreateAlphaFromRGB      10003300 f   KBitmapConvert.obj
 0001:00002360       ?GetSprite@KBmp2Spr@@QAEPAXXZ 10003360 f i KBmp2Spr.obj
 0001:00002370       ?GetLength@KBmp2Spr@@QAEJXZ 10003370 f i KBmp2Spr.obj
 0001:00002380       ??1KBmp2Spr@@QAE@XZ        10003380 f i KBmp2Spr.obj
 0001:00002390       ??4KBmp2Spr@@QAEAAV0@ABV0@@Z 10003390 f i KBmp2Spr.obj
 0001:000023b0       ??0KBmp2Spr@@QAE@XZ        100033b0 f   KBmp2Spr.obj
 0001:000023d0       ?GetTransCount@KBmp2Spr@@IAEJHHH@Z 100033d0 f   KBmp2Spr.obj
 0001:00002420       ?GetPixelCount@KBmp2Spr@@IAEJHHH@Z 10003420 f   KBmp2Spr.obj
 0001:00002470       ?GetMiniRect@KBmp2Spr@@IAEXPAUtagRECT@@@Z 10003470 f   KBmp2Spr.obj
 0001:000025a0       ?ConvertLine@KBmp2Spr@@IAEJHHHPAE@Z 100035a0 f   KBmp2Spr.obj
 0001:00002650       ?ConvertRect@KBmp2Spr@@IAEJPAUtagRECT@@PAE@Z 10003650 f   KBmp2Spr.obj
 0001:000026d0       ?Convert@KBmp2Spr@@QAEHPAVKBitmap@@H@Z 100036d0 f   KBmp2Spr.obj
 0001:00002770       ??4KBmpFile@@QAEAAV0@ABV0@@Z 10003770 f i KBmpFile.obj
 0001:00002790       ?Decode@KBmpFile@@AAEXPAX0@Z 10003790 f   KBmpFile.obj
 0001:000027e0       ?Encode@KBmpFile@@AAEXPAX0@Z 100037e0 f   KBmpFile.obj
 0001:00002830       ?Load@KBmpFile@@QAEHPADPAVKBitmap@@@Z 10003830 f   KBmpFile.obj
 0001:00002a00       ?Save@KBmpFile@@QAEHPADPAVKBitmap@@@Z 10003a00 f   KBmpFile.obj
 0001:00002bd0       ??4KBmpFile24@@QAEAAV0@ABV0@@Z 10003bd0 f i KBmpFile24.obj
 0001:00002bf0       ?Decode@KBmpFile24@@AAEHPAX0@Z 10003bf0 f   KBmpFile24.obj
 0001:00002c90       ?Encode@KBmpFile24@@AAEHPAX0@Z 10003c90 f   KBmpFile24.obj
 0001:00002d40       ?SaveBuffer@KBmpFile24@@CAHPADPAXHHH_N@Z 10003d40 f   KBmpFile24.obj
 0001:00002f80       ?Load@KBmpFile24@@QAEHPADPAVKBitmap16@@@Z 10003f80 f   KBmpFile24.obj
 0001:00003120       ?Save@KBmpFile24@@QAEHPADPAVKBitmap16@@@Z 10004120 f   KBmpFile24.obj
 0001:000032e0       ?SaveBuffer24@KBmpFile24@@SAHPADPAXHHH@Z 100042e0 f   KBmpFile24.obj
 0001:00003310       ?SaveBuffer32@KBmpFile24@@SAHPADPAXHHH@Z 10004310 f   KBmpFile24.obj
 0001:00003340       ??1KNode@@UAE@XZ           10004340 f i KCache.obj
 0001:00003350       ??_GKNode@@UAEPAXI@Z       10004350 f i KCache.obj
 0001:00003350       ??_EKNode@@UAEPAXI@Z       10004350 f i KCache.obj
 0001:00003370       ??0KNode@@QAE@XZ           10004370 f i KCache.obj
 0001:00003390       ?GetNext@KNode@@QAEPAV1@XZ 10004390 f i KCache.obj
 0001:000033a0       ?GetPrev@KNode@@QAEPAV1@XZ 100043a0 f i KCache.obj
 0001:000033b0       ?InsertAfter@KNode@@QAEXPAV1@@Z 100043b0 f i KCache.obj
 0001:000033e0       ?Remove@KNode@@QAEXXZ      100043e0 f i KCache.obj
 0001:00003410       ??0KList@@QAE@XZ           10004410 f i KCache.obj
 0001:00003440       ?GetHead@KList@@QAEPAVKNode@@XZ 10004440 f i KCache.obj
 0001:00003450       ?GetTail@KList@@QAEPAVKNode@@XZ 10004450 f i KCache.obj
 0001:00003460       ?AddHead@KList@@QAEXPAVKNode@@@Z 10004460 f i KCache.obj
 0001:00003490       ?RemoveHead@KList@@QAEPAVKNode@@XZ 10004490 f i KCache.obj
 0001:000034d0       ?RemoveTail@KList@@QAEPAVKNode@@XZ 100044d0 f i KCache.obj
 0001:00003510       ?GetNodeCount@KList@@QAEJXZ 10004510 f i KCache.obj
 0001:00003540       ??1KList@@QAE@XZ           10004540 f i KCache.obj
 0001:00003550       ??0KNode@@QAE@ABV0@@Z      10004550 f i KCache.obj
 0001:00003570       ??4KNode@@QAEAAV0@ABV0@@Z  10004570 f i KCache.obj
 0001:00003590       ?GetName@KStrNode@@UAEPADXZ 10004590 f i KCache.obj
 0001:000035a0       ?SetName@KStrNode@@UAEXPAD@Z 100045a0 f i KCache.obj
 0001:000035c0       ??1KStrNode@@UAE@XZ        100045c0 f i KCache.obj
 0001:000035d0       ??0KStrNode@@QAE@ABV0@@Z   100045d0 f i KCache.obj
 0001:00003610       ??4KStrNode@@QAEAAV0@ABV0@@Z 10004610 f i KCache.obj
 0001:00003650       ??_GKStrNode@@UAEPAXI@Z    10004650 f i KCache.obj
 0001:00003670       ??_EKStrNode@@UAEPAXI@Z    10004670 f i KCache.obj
 0001:000036d0       ??0KStrList@@QAE@XZ        100046d0 f i KCache.obj
 0001:00003700       ??1KStrList@@QAE@XZ        10004700 f i KCache.obj
 0001:00003710       ??0KCacheNode@@QAE@XZ      10004710 f i KCache.obj
 0001:00003730       ??1KCacheNode@@UAE@XZ      10004730 f i KCache.obj
 0001:00003740       ?LoadNode@KCache@@UAEHPAVKCacheNode@@@Z 10004740 f i KCache.obj
 0001:00003750       ?FreeNode@KCache@@UAEXPAVKCacheNode@@@Z 10004750 f i KCache.obj
 0001:00003760       ??0KCache@@QAE@XZ          10004760 f   KCache.obj
 0001:000037b0       ?Release@KCache@@UAEXXZ    100047b0 f   KCache.obj
 0001:00003800       ??1KCache@@QAE@XZ          10004800 f   KCache.obj
 0001:00003820       ?Init@KCache@@UAEXH@Z      10004820 f   KCache.obj
 0001:00003830       ?NewNode@KCache@@UAEPAVKCacheNode@@PAD@Z 10004830 f   KCache.obj
 0001:00003a00       ?GetNode@KCache@@UAEPAVKCacheNode@@PADPAV2@@Z 10004a00 f   KCache.obj
 0001:00003a90       ?Prepare@KCache@@QAEXXZ    10004a90 f   KCache.obj
 0001:00003b10       ?ClearNode@KCache@@QAEXPAD@Z 10004b10 f   KCache.obj
 0001:00003b80       ??0KList@@QAE@ABV0@@Z      10004b80 f i KCache.obj
 0001:00003bb0       ??4KList@@QAEAAV0@ABV0@@Z  10004bb0 f i KCache.obj
 0001:00003be0       ??0KStrList@@QAE@ABV0@@Z   10004be0 f i KCache.obj
 0001:00003c10       ??4KStrList@@QAEAAV0@ABV0@@Z 10004c10 f i KCache.obj
 0001:00003c40       ??_EKCacheNode@@UAEPAXI@Z  10004c40 f i KCache.obj
 0001:00003c40       ??_GKCacheNode@@UAEPAXI@Z  10004c40 f i KCache.obj
 0001:00003c60       ??0KCache@@QAE@ABV0@@Z     10004c60 f i KCache.obj
 0001:00003ca0       ??4KCache@@QAEAAV0@ABV0@@Z 10004ca0 f i KCache.obj
 0001:00003cd0       ??0KMemManager@@QAE@ABV0@@Z 10004cd0 f i KCache.obj
 0001:00003d20       ??4KMemManager@@QAEAAV0@ABV0@@Z 10004d20 f i KCache.obj
 0001:00003da0       ??0KCanvas@@QAE@XZ         10004da0 f   KCanvas.obj
 0001:00003dc0       ?Terminate@KCanvas@@QAEXXZ 10004dc0 f   KCanvas.obj
 0001:00003de0       ?GetUpdateRect@KCanvas@@AAE_NPAUtagRECT@@0@Z 10004de0 f   KCanvas.obj
 0001:00003eb0       ?RectClip@KCanvas@@QAEHPAUtagRECT@@@Z 10004eb0 f   KCanvas.obj
 0001:00003f00       ?MakeClip@KCanvas@@QAEHJJJJPAUKClipper@@@Z 10004f00 f   KCanvas.obj
 0001:00003fc0       ?FillCanvas@KCanvas@@QAEXG@Z 10004fc0 f   KCanvas.obj
 0001:00004000       ?UpdateCanvas@KCanvas@@QAEXXZ 10005000 f   KCanvas.obj
 0001:00004010       ?BltSurface@KCanvas@@QAEXPAUIDirectDrawSurface@@PAUtagRECT@@@Z 10005010 f   KCanvas.obj
 0001:00004040       ?UpdateBackBuffer@KCanvas@@AAEXPAUtagRECT@@@Z 10005040 f i KCanvas.obj
 0001:000040e0       ?UpdateFrontBuffer@KCanvas@@AAEXPAUtagRECT@@@Z 100050e0 f i KCanvas.obj
 0001:00004180       ?UpdateScreen@KCanvas@@QAEXXZ 10005180 f   KCanvas.obj
 0001:00004190       ??0KDrawNode@@QAE@XZ       10005190 f i KCanvas.obj
 0001:000041b0       ??1KDrawNode@@UAE@XZ       100051b0 f i KCanvas.obj
 0001:000041c0       ??_EKDrawNode@@UAEPAXI@Z   100051c0 f i KCanvas.obj
 0001:000041c0       ??_GKDrawNode@@UAEPAXI@Z   100051c0 f i KCanvas.obj
 0001:000041e0       ?DrawPixelAlpha@KCanvas@@QAEXHHHH@Z 100051e0 f   KCanvas.obj
 0001:00004260       ?DrawLine@KCanvas@@QAEXHHHHH@Z 10005260 f   KCanvas.obj
 0001:000042f0       ?DrawLineAlpha@KCanvas@@QAEXHHHHHH@Z 100052f0 f   KCanvas.obj
 0001:00004380       ?DrawSprite@KCanvas@@QAEXHHHHPAX0@Z 10005380 f   KCanvas.obj
 0001:00004410       ?DrawSpriteMixColor@KCanvas@@QAEXHHHHPAX0HH@Z 10005410 f   KCanvas.obj
 0001:000044b0       ?DrawSpriteWithColor@KCanvas@@QAEXHHHHPAX0HH@Z 100054b0 f   KCanvas.obj
 0001:00004550       ?DrawSpriteAlpha@KCanvas@@QAEXHHHHPAX0H@Z 10005550 f   KCanvas.obj
 0001:00004610       ?DrawSpriteBorder@KCanvas@@QAEXHHHHHPAX@Z 10005610 f   KCanvas.obj
 0001:000046a0       ?DrawSprite3LevelAlpha@KCanvas@@QAEXHHHHPAX0@Z 100056a0 f   KCanvas.obj
 0001:00004730       ?DrawFont@KCanvas@@QAEXHHHHHHPAX@Z 10005730 f   KCanvas.obj
 0001:000047d0       ?DrawFontWithBorder@KCanvas@@QAEXHHHHHHPAXH@Z 100057d0 f   KCanvas.obj
 0001:00004870       ?DrawFontSolid@KCanvas@@QAEXHHHHHHPAX@Z 10005870 f   KCanvas.obj
 0001:00004910       ?DrawBitmap@KCanvas@@QAEXHHHHPAX0@Z 10005910 f   KCanvas.obj
 0001:000049a0       ?DrawFade@KCanvas@@QAEXHHHHH@Z 100059a0 f   KCanvas.obj
 0001:00004a30       ?DrawBitmap16@KCanvas@@QAEXHHHHPAX@Z 10005a30 f   KCanvas.obj
 0001:00004ac0       ?DrawBitmap16mmx@KCanvas@@QAEXHHHHPAX@Z 10005ac0 f   KCanvas.obj
 0001:00004b50       ?DrawBitmap16win@KCanvas@@QAEXHHHHPAX@Z 10005b50 f   KCanvas.obj
 0001:00004be0       ?Clear@KCanvas@@QAEXHHHHH@Z 10005be0 f   KCanvas.obj
 0001:00004c20       ?DotClear@KCanvas@@QAEXHHHHH@Z 10005c20 f   KCanvas.obj
 0001:00004cb0       ?ClearAlpha@KCanvas@@QAEXHHHHHH@Z 10005cb0 f   KCanvas.obj
 0001:00004d40       ?LockCanvas@KCanvas@@QAEPAXAAH@Z 10005d40 f   KCanvas.obj
 0001:00004d90       ?UnlockCanvas@KCanvas@@QAEXXZ 10005d90 f   KCanvas.obj
 0001:00004db0       ??1KCanvas@@QAE@XZ         10005db0 f   KCanvas.obj
 0001:00004dc0       ?Init@KCanvas@@QAE_NHH@Z   10005dc0 f   KCanvas.obj
 0001:00004e70       ?DrawPixel@KCanvas@@QAEXHHH@Z 10005e70 f   KCanvas.obj
 0001:00004ef0       ??0KCodec@@QAE@XZ          10005ef0 f i KCodec.obj
 0001:00004f00       ??0KCodec@@QAE@ABV0@@Z     10005f00 f i KCodec.obj
 0001:00004f10       ??4KCodec@@QAEAAV0@ABV0@@Z 10005f10 f i KCodec.obj
 0001:00004f20       ??0KCodecLzo@@QAE@XZ       10005f20 f i KCodec.obj
 0001:00004f40       ??1KCodecLzo@@QAE@XZ       10005f40 f i KCodec.obj
 0001:00004f50       ??0KCodecLzo@@QAE@ABV0@@Z  10005f50 f i KCodec.obj
 0001:00004f70       ??4KCodecLzo@@QAEAAV0@ABV0@@Z 10005f70 f i KCodec.obj
 0001:00004f90       ?GetPackLen@KCodec@@UAEKK@Z 10005f90 f   KCodec.obj
 0001:00004fb0       ?Encode@KCodec@@UAEHPAUTCodeInfo@@@Z 10005fb0 f   KCodec.obj
 0001:00004fe0       ?Decode@KCodec@@UAEHPAUTCodeInfo@@@Z 10005fe0 f   KCodec.obj
 0001:00005010       ?g_InitCodec@@YAXPAPAVKCodec@@H@Z 10006010 f   KCodec.obj
 0001:000050e0       ??_GKCodecLzo@@QAEPAXI@Z   100060e0 f i KCodec.obj
 0001:00005110       ?g_FreeCodec@@YAXPAPAVKCodec@@H@Z 10006110 f   KCodec.obj
 0001:00005150       ?Compress@KCodecLzo@@AAEKPAEK0PAK@Z 10006150 f   KCodecLzo.obj
 0001:000054d0       ?Encode@KCodecLzo@@UAEHPAUTCodeInfo@@@Z 100064d0 f   KCodecLzo.obj
 0001:000055f0       ?Decode@KCodecLzo@@UAEHPAUTCodeInfo@@@Z 100065f0 f   KCodecLzo.obj
 0001:00005890       ?g_Red@@YAEG@Z             10006890 f   KColors.obj
 0001:000058b0       ?g_Green@@YAEG@Z           100068b0 f   KColors.obj
 0001:000058f0       ?g_Blue@@YAEG@Z            100068f0 f   KColors.obj
 0001:00005930       ?g_RGB555@@YAGHHH@Z        10006930 f   KColors.obj
 0001:00005970       ?g_RGB565@@YAGHHH@Z        10006970 f   KColors.obj
 0001:000059b0       ?g_555To565@@YAXHHPAX@Z    100069b0 f   KColors.obj
 0001:000059f0       ?g_565To555@@YAXHHPAX@Z    100069f0 f   KColors.obj
 0001:00005a30       ??0KDirectDraw@@QAE@XZ     10006a30 f   KDDraw.obj
 0001:00005a70       ?Mode@KDirectDraw@@QAEXHHH@Z 10006a70 f   KDDraw.obj
 0001:00005a90       ?Exit@KDirectDraw@@QAEXXZ  10006a90 f   KDDraw.obj
 0001:00005b00       ?CreateDirectDraw@KDirectDraw@@AAEHXZ 10006b00 f   KDDraw.obj
 0001:00005bb0       ?SetDisplayMode@KDirectDraw@@AAEHXZ 10006bb0 f   KDDraw.obj
 0001:00005c20       ?GetDisplayMode@KDirectDraw@@AAEHXZ 10006c20 f   KDDraw.obj
 0001:00005cd0       ?CreateSurface@KDirectDraw@@AAEHXZ 10006cd0 f   KDDraw.obj
 0001:00005de0       ?CreateSurface@KDirectDraw@@QAEPAUIDirectDrawSurface@@HH@Z 10006de0 f   KDDraw.obj
 0001:00005e60       ?RestoreSurface@KDirectDraw@@QAEHXZ 10006e60 f   KDDraw.obj
 0001:00005eb0       ?GetSurfaceDesc@KDirectDraw@@AAEHXZ 10006eb0 f   KDDraw.obj
 0001:00005fc0       ?SetClipperHWnd@KDirectDraw@@QAEXPAUHWND__@@@Z 10006fc0 f   KDDraw.obj
 0001:00005ff0       ?WaitForVerticalBlankBegin@KDirectDraw@@QAEXXZ 10006ff0 f   KDDraw.obj
 0001:00006010       ?WaitForVerticalBlankEnd@KDirectDraw@@QAEXXZ 10007010 f   KDDraw.obj
 0001:00006030       ?FillBackBuffer@KDirectDraw@@QAEXK@Z 10007030 f   KDDraw.obj
 0001:00006070       ?UpdateScreenZoom@KDirectDraw@@QAEXPAUtagRECT@@@Z 10007070 f   KDDraw.obj
 0001:000060a0       ?SetWindowStyle@KDirectDraw@@AAEXXZ 100070a0 f   KDDraw.obj
 0001:00006150       ?BltToFrontBuffer@KDirectDraw@@QAEXPAUIDirectDrawSurface@@PAUtagRECT@@1@Z 10007150 f   KDDraw.obj
 0001:00006180       ?BltToBackBuffer@KDirectDraw@@QAEXPAUIDirectDrawSurface@@PAUtagRECT@@1@Z 10007180 f   KDDraw.obj
 0001:000061b0       ??1KDirectDraw@@QAE@XZ     100071b0 f   KDDraw.obj
 0001:000061c0       ?CreateClipper@KDirectDraw@@AAEHXZ 100071c0 f   KDDraw.obj
 0001:00006220       ?Init@KDirectDraw@@QAEHXZ  10007220 f   KDDraw.obj
 0001:000062f0       ?g_FindDebugWindow@@YAPAUHWND__@@PAD0@Z 100072f0 f   KDebug.obj
 0001:00006310       ?g_DebugLog@@YAXPADZZ      10007310 f   KDebug.obj
 0001:00006390       ?g_MessageBox@@YAXPADZZ    10007390 f   KDebug.obj
 0001:00006400       ?g_AssertFailed@@YAXPADH@Z 10007400 f   KDebug.obj
 0001:00006460       ?g_DDError@@YAXH@Z         10007460 f   KDError.obj
 0001:000064a0       ?g_DSError@@YAXH@Z         100074a0 f   KDError.obj
 0001:000064e0       ?g_DIError@@YAXH@Z         100074e0 f   KDError.obj
 0001:00006520       ??0KDirectInput@@QAE@XZ    10007520 f   KDInput.obj
 0001:00006540       ?Exit@KDirectInput@@QAEXXZ 10007540 f   KDInput.obj
 0001:000065b0       ?CreateDirectInput@KDirectInput@@AAEHXZ 100075b0 f   KDInput.obj
 0001:000065f0       ?CreateMouseDevice@KDirectInput@@AAEHXZ 100075f0 f   KDInput.obj
 0001:00006660       ?CreateKeyboardDevice@KDirectInput@@AAEHXZ 10007660 f   KDInput.obj
 0001:000066d0       ?SetMouseBehavior@KDirectInput@@QAEHH@Z 100076d0 f   KDInput.obj
 0001:00006710       ?GetMouseState@KDirectInput@@QAEHPAH0PAE1@Z 10007710 f   KDInput.obj
 0001:000067b0       ?GetKeyboardState@KDirectInput@@QAEHPAE@Z 100077b0 f   KDInput.obj
 0001:000067f0       ??1KDirectInput@@QAE@XZ    100077f0 f   KDInput.obj
 0001:00006800       ?Init@KDirectInput@@QAEHXZ 10007800 f   KDInput.obj
 0001:00006880       ?g_DrawPixel@@YAXPAX0@Z    10007880 f   KDrawBase.obj
 0001:00006910       ?g_DrawPixelAlpha@@YAXPAX0@Z 10007910 f   KDrawBase.obj
 0001:000069e0       ?g_DrawLineAlpha@@YAXPAX0@Z 100079e0 f   KDrawBase.obj
 0001:00006b50       ?g_Clear@@YAXPAX0@Z        10007b50 f   KDrawBase.obj
 0001:00006c00       ?g_DotClear@@YAXPAX0@Z     10007c00 f   KDrawBase.obj
 0001:00006cb0       ?g_ClearAlpha@@YAXPAX0@Z   10007cb0 f   KDrawBase.obj
 0001:00006db0       ?g_DrawLine@@YAXPAX0@Z     10007db0 f   KDrawBase.obj
 0001:00006f20       ?g_DrawBitmap@@YAXPAX0@Z   10007f20 f   KDrawBitmap.obj
 0001:00006fe0       ?g_DrawBitmap16@@YAXPAX0@Z 10007fe0 f   KDrawBitmap16.obj
 0001:000070d0       ?g_DrawBitmap16mmx@@YAXPAX0@Z 100080d0 f   KDrawBitmap16.obj
 0001:000071a0       ?g_DrawBitmap16win@@YAXPAX0@Z 100081a0 f   KDrawBitmap16.obj
 0001:00007280       ?g_DrawFade@@YAXPAX0@Z     10008280 f   KDrawFade.obj
 0001:00007370       ?g_DrawFont@@YAXPAX0@Z     10008370 f   KDrawFont.obj
 0001:000074e0       ?g_DrawFontWithBorder@@YAXPAX0@Z 100084e0 f   KDrawFont.obj
 0001:00007600       ?g_DrawFontSolid@@YAXPAX0@Z 10008600 f   KDrawFont.obj
 0001:00007750       ?g_DrawSprite@@YAXPAX0@Z   10008750 f   KDrawSprite.obj
 0001:00007a40       ?g_DrawSpriteMixColor@@YAXPAX0@Z 10008a40 f   KDrawSprite.obj
 0001:00007e50       ?g_DrawSpriteWithColor@@YAXPAX0@Z 10008e50 f   KDrawSprite.obj
 0001:00008250       ?g_DrawSpriteBorder@@YAXPAX0@Z 10009250 f   KDrawSprite.obj
 0001:00008450       ?g_DrawSpriteAlpha@@YAXPAX0@Z 10009450 f   KDrawSpriteAlpha.obj
 0001:00008aa0       ?g_DrawSpriteAlpha@@YAXPAX0H@Z 10009aa0 f   KDrawSpriteAlpha.obj
 0001:00009390       ?g_DrawSprite3LevelAlpha@@YAXPAX0@Z 1000a390 f   KDrawSpriteAlpha.obj
 0001:000096d0       ??0KDirectSound@@QAE@XZ    1000a6d0 f   KDSound.obj
 0001:000096f0       ?Exit@KDirectSound@@QAEXXZ 1000a6f0 f   KDSound.obj
 0001:00009730       ?CreateDirectSound@KDirectSound@@AAEHXZ 1000a730 f   KDSound.obj
 0001:00009790       ?CreatePrimarySoundBuffer@KDirectSound@@AAEHXZ 1000a790 f   KDSound.obj
 0001:00009880       ??1KDirectSound@@QAE@XZ    1000a880 f   KDSound.obj
 0001:00009890       ?Init@KDirectSound@@QAEHXZ 1000a890 f   KDSound.obj
 0001:000098d0       ??0KScript@@QAE@ABV0@@Z    1000a8d0 f i KEicScript.obj
 0001:000098e0       ??4KScript@@QAEAAV0@ABV0@@Z 1000a8e0 f i KEicScript.obj
 0001:000098f0       ??_GKScript@@UAEPAXI@Z     1000a8f0 f i KEicScript.obj
 0001:00009910       ??_EKScript@@UAEPAXI@Z     1000a910 f i KEicScript.obj
 0001:00009970       ??0KEicScript@@QAE@XZ      1000a970 f i KEicScript.obj
 0001:00009990       ??1KEicScript@@UAE@XZ      1000a990 f i KEicScript.obj
 0001:000099a0       ??0KEicScript@@QAE@ABV0@@Z 1000a9a0 f i KEicScript.obj
 0001:000099c0       ??4KEicScript@@QAEAAV0@ABV0@@Z 1000a9c0 f i KEicScript.obj
 0001:000099f0       ??_GKEicScript@@UAEPAXI@Z  1000a9f0 f i KEicScript.obj
 0001:00009a10       ??_EKEicScript@@UAEPAXI@Z  1000aa10 f i KEicScript.obj
 0001:00009a90       ?Exit@KEicScript@@UAEXXZ   1000aa90 f   KEicScript.obj
 0001:00009aa0       ?Load@KEicScript@@UAEHPAD@Z 1000aaa0 f   KEicScript.obj
 0001:00009ad0       ?Compile@KEicScript@@UAEHPAD@Z 1000aad0 f   KEicScript.obj
 0001:00009ae0       ?Execute@KEicScript@@UAEHHPAPAD@Z 1000aae0 f   KEicScript.obj
 0001:00009b10       ?RegisterFunction@KEicScript@@UAEHPADPAX@Z 1000ab10 f   KEicScript.obj
 0001:00009c30       ?Init@KEicScript@@UAEHXZ   1000ac30 f   KEicScript.obj
 0001:00009c50       ?Activate@KLuaScript@@QAEHXZ 1000ac50 f i KEicScriptSet.obj
 0001:00009c60       ?SetScriptName@KLuaScript@@UAEXPAD@Z 1000ac60 f i KEicScriptSet.obj
 0001:00009c80       ?GetUserTag@KLuaScript@@QAEHXZ 1000ac80 f i KEicScriptSet.obj
 0001:00009c90       ?SetTableMember@KLuaScript@@QAEXHHPBD@Z 1000ac90 f i KEicScriptSet.obj
 0001:00009cb0       ?SetTableMember@KLuaScript@@QAEXHHN@Z 1000acb0 f i KEicScriptSet.obj
 0001:00009ce0       ?SetTableMember@KLuaScript@@QAEXHHH@Z 1000ace0 f i KEicScriptSet.obj
 0001:00009d00       ?SetTableMember@KLuaScript@@QAEXHPBDP6AHPAUlua_State@@@Z@Z 1000ad00 f i KEicScriptSet.obj
 0001:00009d20       ?SetTableMember@KLuaScript@@QAEXHHP6AHPAUlua_State@@@Z@Z 1000ad20 f i KEicScriptSet.obj
 0001:00009d40       ?SetTableMember@KLuaScript@@QAEXHPBDPAD@Z 1000ad40 f i KEicScriptSet.obj
 0001:00009d60       ?SetTableMember@KLuaScript@@QAEXHPBDH@Z 1000ad60 f i KEicScriptSet.obj
 0001:00009d80       ?SetTableMember@KLuaScript@@QAEXHPBDN@Z 1000ad80 f i KEicScriptSet.obj
 0001:00009db0       ??0KLuaScript@@QAE@ABV0@@Z 1000adb0 f i KEicScriptSet.obj
 0001:00009df0       ??4KLuaScript@@QAEAAV0@ABV0@@Z 1000adf0 f i KEicScriptSet.obj
 0001:00009e30       ??_GKLuaScript@@UAEPAXI@Z  1000ae30 f i KEicScriptSet.obj
 0001:00009e50       ??_EKLuaScript@@UAEPAXI@Z  1000ae50 f i KEicScriptSet.obj
 0001:00009eb0       ?GetCount@KScriptSet@@QAEKXZ 1000aeb0 f i KEicScriptSet.obj
 0001:00009ec0       ?GetKeyStyle@KScriptSet@@QAEHXZ 1000aec0 f i KEicScriptSet.obj
 0001:00009ed0       ?GetScriptFileNameFromKey@KScriptSet@@UAEPADPAD@Z 1000aed0 f i KEicScriptSet.obj
 0001:00009ee0       ?GetScriptFileNameFromKey@KScriptSet@@UAEPADK@Z 1000aee0 f i KEicScriptSet.obj
 0001:00009ef0       ??0KScriptSet@@QAE@ABV0@@Z 1000aef0 f i KEicScriptSet.obj
 0001:00009f20       ??4KScriptSet@@QAEAAV0@ABV0@@Z 1000af20 f i KEicScriptSet.obj
 0001:00009f50       ??0KEicScriptSet@@QAE@ABV0@@Z 1000af50 f i KEicScriptSet.obj
 0001:00009f80       ??4KEicScriptSet@@QAEAAV0@ABV0@@Z 1000af80 f i KEicScriptSet.obj
 0001:00009fb0       ??0KEicScriptSet@@QAE@XZ   1000afb0 f   KEicScriptSet.obj
 0001:00009fd0       ??1KEicScriptSet@@QAE@XZ   1000afd0 f   KEicScriptSet.obj
 0001:00009fe0       ?g_InitEngine@@YAHXZ       1000afe0 f   KEngine.obj
 0001:0000a040       ?g_ExitEngine@@YAXXZ       1000b040 f   KEngine.obj
 0001:0000a070       ??4KEvent@@QAEAAV0@ABV0@@Z 1000b070 f i KEvent.obj
 0001:0000a080       ??0KEvent@@QAE@XZ          1000b080 f   KEvent.obj
 0001:0000a0b0       ??1KEvent@@QAE@XZ          1000b0b0 f   KEvent.obj
 0001:0000a0c0       ?Signal@KEvent@@QAEXXZ     1000b0c0 f i KEvent.obj
 0001:0000a0d0       ?Wait@KEvent@@QAEXXZ       1000b0d0 f i KEvent.obj
 0001:0000a0e0       ?TimedWait@KEvent@@QAE_NJ@Z 1000b0e0 f i KEvent.obj
 0001:0000a100       ??0KFile@@QAE@XZ           1000b100 f   KFile.obj
 0001:0000a110       ?Close@KFile@@QAEXXZ       1000b110 f   KFile.obj
 0001:0000a140       ?Read@KFile@@QAEKPAXK@Z    1000b140 f   KFile.obj
 0001:0000a170       ?Write@KFile@@QAEKPAXK@Z   1000b170 f   KFile.obj
 0001:0000a1a0       ?Seek@KFile@@QAEKJK@Z      1000b1a0 f   KFile.obj
 0001:0000a1e0       ?Tell@KFile@@QAEKXZ        1000b1e0 f   KFile.obj
 0001:0000a1f0       ?Size@KFile@@QAEKXZ        1000b1f0 f   KFile.obj
 0001:0000a230       ??1KFile@@QAE@XZ           1000b230 f   KFile.obj
 0001:0000a240       ?Open@KFile@@QAEHPAD@Z     1000b240 f   KFile.obj
 0001:0000a2b0       ?Create@KFile@@QAEHPAD@Z   1000b2b0 f   KFile.obj
 0001:0000a320       ?Append@KFile@@QAEHPAD@Z   1000b320 f   KFile.obj
 0001:0000a3a0       ?g_DeleteFiles@@YAXPAD0@Z  1000b3a0 f   KFileCopy.obj
 0001:0000a4f0       ?g_UpdateFiles@@YAXPAD0@Z  1000b4f0 f   KFileCopy.obj
 0001:0000a690       ??0KFileDialog@@QAE@XZ     1000b690 f   KFileDialog.obj
 0001:0000a720       ?SetTitle@KFileDialog@@QAEXPAD@Z 1000b720 f   KFileDialog.obj
 0001:0000a740       ?SetFlags@KFileDialog@@QAEXK@Z 1000b740 f   KFileDialog.obj
 0001:0000a750       ?SetFilter@KFileDialog@@QAEXPAD@Z 1000b750 f   KFileDialog.obj
 0001:0000a790       ?SetDefExt@KFileDialog@@QAEXPAD@Z 1000b790 f   KFileDialog.obj
 0001:0000a7b0       ?SetFilePath@KFileDialog@@QAEXPAD@Z 1000b7b0 f   KFileDialog.obj
 0001:0000a7f0       ?SetFileName@KFileDialog@@QAEXPAD@Z 1000b7f0 f   KFileDialog.obj
 0001:0000a810       ?SetFileTitle@KFileDialog@@QAEXPAD@Z 1000b810 f   KFileDialog.obj
 0001:0000a830       ?Open@KFileDialog@@QAEHXZ  1000b830 f   KFileDialog.obj
 0001:0000a870       ?Save@KFileDialog@@QAEHXZ  1000b870 f   KFileDialog.obj
 0001:0000a8b0       ?strstr@@YAPADPADPBD@Z     1000b8b0 f i KFilePath.obj
 0001:0000a8c0       ??4KPakList@@QAEAAV0@ABV0@@Z 1000b8c0 f i KFilePath.obj
 0001:0000a8e0       ?RemoveTwoPointPath@@YAHPADH@Z 1000b8e0 f   KFilePath.obj
 0001:0000a960       ?RemoveOnePointPath@@YAHPADH@Z 1000b960 f   KFilePath.obj
 0001:0000a9c0       ?RemoveAllPointPath@@YAHPADH@Z 1000b9c0 f   KFilePath.obj
 0001:0000a9e0       ?g_SetRootPath@@YAXPAD@Z   1000b9e0 f   KFilePath.obj
 0001:0000aa70       ?g_GetRootPath@@YAXPAD@Z   1000ba70 f   KFilePath.obj
 0001:0000aa90       ?g_SetFilePath@@YAXPAD@Z   1000ba90 f   KFilePath.obj
 0001:0000aaf0       ?g_GetFilePath@@YAXPAD@Z   1000baf0 f   KFilePath.obj
 0001:0000ab10       ?g_GetFullPath@@YAXPAD0@Z  1000bb10 f   KFilePath.obj
 0001:0000abd0       ?g_GetHalfPath@@YAXPAD0@Z  1000bbd0 f   KFilePath.obj
 0001:0000ac20       ?g_GetPackPath@@YAXPAD0@Z  1000bc20 f   KFilePath.obj
 0001:0000ac80       ?g_GetDiskPath@@YAXPAD0@Z  1000bc80 f   KFilePath.obj
 0001:0000ace0       ?g_CreatePath@@YAXPAD@Z    1000bce0 f   KFilePath.obj
 0001:0000ae10       ?g_UnitePathAndName@@YAXPAD00@Z 1000be10 f   KFilePath.obj
 0001:0000aee0       ?g_FileExists@@YAHPAD@Z    1000bee0 f   KFilePath.obj
 0001:0000af60       ?g_FileName2Id@@YAKPAD@Z   1000bf60 f   KFilePath.obj
 0001:0000afb0       ?g_ChangeFileExt@@YAXPAD0@Z 1000bfb0 f   KFilePath.obj
 0001:0000b010       ?g_ExtractFileName@@YAXPAD0@Z 1000c010 f   KFilePath.obj
 0001:0000b060       ?g_ExtractFilePath@@YAXPAD0@Z 1000c060 f   KFilePath.obj
 0001:0000b0b0       ??0KFindBinTreeNode@@QAE@XZ 1000c0b0 f i KFindBinTree.obj
 0001:0000b0d0       ??1KFindBinTreeNode@@QAE@XZ 1000c0d0 f i KFindBinTree.obj
 0001:0000b110       ?CanInsert@KFindBinTreeNode@@QAEHXZ 1000c110 f i KFindBinTree.obj
 0001:0000b120       ?GetRef@KFindBinTreeNode@@QBEHXZ 1000c120 f i KFindBinTree.obj
 0001:0000b130       ??4KFindBinTreeNode@@QAEAAV0@ABV0@@Z 1000c130 f i KFindBinTree.obj
 0001:0000b160       ??_GKFindBinTreeNode@@QAEPAXI@Z 1000c160 f i KFindBinTree.obj
 0001:0000b1a0       ??0KFindBinTree@@QAE@XZ    1000c1a0 f i KFindBinTree.obj
 0001:0000b1b0       ??1KFindBinTree@@QAE@XZ    1000c1b0 f i KFindBinTree.obj
 0001:0000b1e0       ?GetCount@KFindBinTree@@QAEHXZ 1000c1e0 f i KFindBinTree.obj
 0001:0000b1f0       ??4KFindBinTree@@QAEAAV0@ABV0@@Z 1000c1f0 f i KFindBinTree.obj
 0001:0000b210       ?Init@KFindBinTreeNode@@QAEXH@Z 1000c210 f   KFindBinTree.obj
 0001:0000b2a0       ?Insert@KFindBinTreeNode@@QAEHH@Z 1000c2a0 f   KFindBinTree.obj
 0001:0000b2e0       ?Remove@KFindBinTreeNode@@QAEXHH@Z 1000c2e0 f   KFindBinTree.obj
 0001:0000b320       ?Init@KFindBinTree@@QAEXH@Z 1000c320 f   KFindBinTree.obj
 0001:0000b370       ?FindFree@KFindBinTree@@QAEHXZ 1000c370 f   KFindBinTree.obj
 0001:0000b390       ?Remove@KFindBinTree@@QAEXH@Z 1000c390 f   KFindBinTree.obj
 0001:0000b3b0       ??0KFont@@QAE@XZ           1000c3b0 f   KFont.obj
 0001:0000b400       ?Clear@KFont@@QAEXXZ       1000c400 f   KFont.obj
 0001:0000b430       ?SetCharaset@KFont@@QAEXW4CHARASET@@@Z 1000c430 f   KFont.obj
 0001:0000b440       ?Load@KFont@@QAEHPADW4CHARASET@@@Z 1000c440 f   KFont.obj
 0001:0000b5b0       ?Save@KFont@@QAEHPAD@Z     1000c5b0 f   KFont.obj
 0001:0000b6e0       ?DrawFont@KFont@@IAEXHHH@Z 1000c6e0 f   KFont.obj
 0001:0000b740       ?DrawFontAlpha@KFont@@IAEXHHHH@Z 1000c740 f   KFont.obj
 0001:0000b7c0       ?DrawWord@KFont@@QAEXHHHH@Z 1000c7c0 f   KFont.obj
 0001:0000b8c0       ?DrawTextA@KFont@@QAEXHHPAD@Z 1000c8c0 f   KFont.obj
 0001:0000ba20       ?DrawTextAlpha@KFont@@QAEXHHHPAD@Z 1000ca20 f   KFont.obj
 0001:0000bba0       ?SetColor@KFont@@QAEXEEE@Z 1000cba0 f   KFont.obj
 0001:0000bbd0       ?SetLine@KFont@@QAEXHH@Z   1000cbd0 f   KFont.obj
 0001:0000bbf0       ?MakeText@KFont@@QAEXPAD@Z 1000cbf0 f   KFont.obj
 0001:0000bd70       ?AddWord@KFont@@IAEHHPAE@Z 1000cd70 f   KFont.obj
 0001:0000bdf0       ?GetFontLine@KFont@@IAEHHHPAVKBitmap@@PAE@Z 1000cdf0 f   KFont.obj
 0001:0000be80       ??1KFont@@QAE@XZ           1000ce80 f   KFont.obj
 0001:0000bee0       ?GetFontRect@KFont@@IAEHHHPAVKBitmap@@PAE@Z 1000cee0 f   KFont.obj
 0001:0000bf30       ?MakeFont@KFont@@QAEHPADHH@Z 1000cf30 f   KFont.obj
 0001:0000c110       ??1KGifFile@@QAE@XZ        1000d110 f i KGifFile.obj
 0001:0000c120       ??4KGifFile@@QAEAAV0@ABV0@@Z 1000d120 f i KGifFile.obj
 0001:0000c140       ??0KGifFile@@QAE@XZ        1000d140 f   KGifFile.obj
 0001:0000c160       ?read_byte@KGifFile@@AAEEXZ 1000d160 f   KGifFile.obj
 0001:0000c170       ?read_word@KGifFile@@AAEGXZ 1000d170 f   KGifFile.obj
 0001:0000c190       ?read_header@KGifFile@@AAEHXZ 1000d190 f   KGifFile.obj
 0001:0000c270       ?read_color_table@KGifFile@@AAEHXZ 1000d270 f   KGifFile.obj
 0001:0000c2c0       ?read_extension@KGifFile@@AAEHXZ 1000d2c0 f   KGifFile.obj
 0001:0000c340       ?Open@KGifFile@@QAEHPADPAVKBitmap@@@Z 1000d340 f   KGifFile.obj
 0001:0000c470       ?clear_table@KGifFile@@AAEXXZ 1000d470 f   KGifFile.obj
 0001:0000c4a0       ?get_code@KGifFile@@AAEXXZ 1000d4a0 f   KGifFile.obj
 0001:0000c5f0       ?get_string@KGifFile@@AAEXH@Z 1000d5f0 f   KGifFile.obj
 0001:0000c650       ?output_string@KGifFile@@AAEXXZ 1000d650 f   KGifFile.obj
 0001:0000c760       ?lzw_decode@KGifFile@@AAEXXZ 1000d760 f   KGifFile.obj
 0001:0000c9d0       ?read_image_desc@KGifFile@@AAEHXZ 1000d9d0 f   KGifFile.obj
 0001:0000ca40       ?NextImage@KGifFile@@QAEHXZ 1000da40 f   KGifFile.obj
 0001:0000cb00       ?FirstImage@KGifFile@@QAEHXZ 1000db00 f   KGifFile.obj
 0001:0000cb10       ?g_RemoveSamePixel@@YAHPAVKBitmap@@0@Z 1000db10 f   KGraphics.obj
 0001:0000cb90       ?g_RemoveDiffPixel@@YAHPAVKBitmap@@0@Z 1000db90 f   KGraphics.obj
 0001:0000cc10       ?g_RemoveNoneZeroPixel@@YAHPAVKBitmap@@0@Z 1000dc10 f   KGraphics.obj
 0001:0000cca0       ?g_RemoveZeroPixel@@YAHPAVKBitmap@@0@Z 1000dca0 f   KGraphics.obj
 0001:0000cd30       ??0KHashList@@QAE@XZ       1000dd30 f   KHashList.obj
 0001:0000cd60       ??1KHashList@@QAE@XZ       1000dd60 f i KHashList.obj
 0001:0000cd70       ??0KHashList@@QAE@ABV0@@Z  1000dd70 f i KHashList.obj
 0001:0000cda0       ??4KHashList@@QAEAAV0@ABV0@@Z 1000dda0 f i KHashList.obj
 0001:0000cdd0       ?IsLinked@KNode@@QAEHXZ    1000ddd0 f i KHashNode.obj
 0001:0000cdf0       ?SetHashTable@KHashNode@@QAEXPAVKHashTable@@@Z 1000ddf0 f i KHashNode.obj
 0001:0000ce00       ??1KHashNode@@UAE@XZ       1000de00 f i KHashNode.obj
 0001:0000ce10       ??_GKHashNode@@UAEPAXI@Z   1000de10 f i KHashNode.obj
 0001:0000ce30       ??_EKHashNode@@UAEPAXI@Z   1000de30 f i KHashNode.obj
 0001:0000ce90       ??0KHashNode@@QAE@XZ       1000de90 f   KHashNode.obj
 0001:0000ceb0       ?SetName@KHashNode@@UAEXPAD@Z 1000deb0 f   KHashNode.obj
 0001:0000cf10       ??0KHashTable@@QAE@XZ      1000df10 f i KHashNode.obj
 0001:0000cf80       ??1KHashTable@@QAE@XZ      1000df80 f i KHashNode.obj
 0001:0000cff0       ??0KHashTable@@QAE@ABV0@@Z 1000dff0 f i KHashNode.obj
 0001:0000d030       ??4KHashTable@@QAEAAV0@ABV0@@Z 1000e030 f i KHashNode.obj
 0001:0000d080       ??0KHashNode@@QAE@ABV0@@Z  1000e080 f i KHashNode.obj
 0001:0000d0c0       ??4KHashNode@@QAEAAV0@ABV0@@Z 1000e0c0 f i KHashNode.obj
 0001:0000d100       ?g_Hash@@YAKPAD@Z          1000e100 f   KHashTable.obj
 0001:0000d130       ?Add@KHashTable@@QAEXPAVKStrNode@@@Z 1000e130 f   KHashTable.obj
 0001:0000d1f0       ?Find@KHashTable@@QAEPAVKStrNode@@PAD@Z 1000e1f0 f   KHashTable.obj
 0001:0000d220       ?Delete@KHashTable@@QAEXPAD@Z 1000e220 f   KHashTable.obj
 0001:0000d270       ??4KIme@@QAEAAV0@ABV0@@Z   1000e270 f i Kime.obj
 0001:0000d2a0       ??0KIme@@QAE@XZ            1000e2a0 f   Kime.obj
 0001:0000d2d0       ??1KIme@@QAE@XZ            1000e2d0 f   Kime.obj
 0001:0000d2e0       ?ResetIme@KIme@@QAEXXZ     1000e2e0 f   Kime.obj
 0001:0000d2f0       ?IsIme@KIme@@QAEHXZ        1000e2f0 f   Kime.obj
 0001:0000d320       ?OpenIME@KIme@@QAEXXZ      1000e320 f   Kime.obj
 0001:0000d3d0       ?CloseIME@KIme@@QAEXXZ     1000e3d0 f   Kime.obj
 0001:0000d440       ?TurnOff@KIme@@QAEXXZ      1000e440 f   Kime.obj
 0001:0000d450       ?TurnOn@KIme@@QAEXXZ       1000e450 f   Kime.obj
 0001:0000d460       ?EnableLanguageChange@KIme@@QAEXXZ 1000e460 f   Kime.obj
 0001:0000d470       ?DisableLanguageChange@KIme@@QAEXXZ 1000e470 f   Kime.obj
 0001:0000d480       ?SetCaretPos@KIme@@QAEXHH@Z 1000e480 f   Kime.obj
 0001:0000d4e0       ?WndMsg@KIme@@QAEHPAUHWND__@@IIJ@Z 1000e4e0 f   Kime.obj
 0001:0000d5d0       ?g_SetIniCodec@@YAXH@Z     1000e5d0 f   KIniFile.obj
 0001:0000d5e0       ??0KIniFile@@QAE@XZ        1000e5e0 f   KIniFile.obj
 0001:0000d640       ?SavePack@KIniFile@@QAEHPBD@Z 1000e640 f   KIniFile.obj
 0001:0000d820       ?ReadLine@KIniFile@@AAEHPADJ@Z 1000e820 f   KIniFile.obj
 0001:0000d890       ?IsKeyChar@KIniFile@@AAEHD@Z 1000e890 f   KIniFile.obj
 0001:0000d8c0       ?ReleaseIniLink@KIniFile@@AAEXXZ 1000e8c0 f   KIniFile.obj
 0001:0000d950       ?SplitKeyValue@KIniFile@@AAEPADPAD@Z 1000e950 f   KIniFile.obj
 0001:0000d980       ?String2Id@KIniFile@@AAEKPBD@Z 1000e980 f   KIniFile.obj
 0001:0000d9d0       ?IsSectionExist@KIniFile@@QAEHPBD@Z 1000e9d0 f   KIniFile.obj
 0001:0000da90       ?EraseSection@KIniFile@@QAEXPBD@Z 1000ea90 f   KIniFile.obj
 0001:0000db90       ?EraseKey@KIniFile@@QAEXPBD0@Z 1000eb90 f   KIniFile.obj
 0001:0000dcb0       ?SetKeyValue@KIniFile@@AAEHPBD00@Z 1000ecb0 f   KIniFile.obj
 0001:0000dea0       ?GetKeyValue@KIniFile@@AAEHPBD0PADK@Z 1000eea0 f   KIniFile.obj
 0001:0000dfb0       ?GetString@KIniFile@@QAEHPBD00PADK@Z 1000efb0 f   KIniFile.obj
 0001:0000dff0       ?GetInteger@KIniFile@@QAEHPBD0HPAH@Z 1000eff0 f   KIniFile.obj
 0001:0000e060       ?GetInteger2@KIniFile@@QAEXPBD0PAH1@Z 1000f060 f   KIniFile.obj
 0001:0000e0f0       ?GetFloat@KIniFile@@QAEHPBD0MPAM@Z 1000f0f0 f   KIniFile.obj
 0001:0000e160       ?GetFloat2@KIniFile@@QAEXPBD0PAM1@Z 1000f160 f   KIniFile.obj
 0001:0000e1f0       ?GetStruct@KIniFile@@QAEXPBD0PAXK@Z 1000f1f0 f   KIniFile.obj
 0001:0000e2b0       ?WriteString@KIniFile@@QAEXPBD00@Z 1000f2b0 f   KIniFile.obj
 0001:0000e2c0       ?WriteInteger@KIniFile@@QAEXPBD0H@Z 1000f2c0 f   KIniFile.obj
 0001:0000e320       ?WriteInteger2@KIniFile@@QAEXPBD0HH@Z 1000f320 f   KIniFile.obj
 0001:0000e380       ?WriteFloat@KIniFile@@QAEXPBD0M@Z 1000f380 f   KIniFile.obj
 0001:0000e3e0       ?WriteFloat2@KIniFile@@QAEXPBD0MM@Z 1000f3e0 f   KIniFile.obj
 0001:0000e450       ?WriteStruct@KIniFile@@QAEXPBD0PAXK@Z 1000f450 f   KIniFile.obj
 0001:0000e510       ?GetNextSection@KIniFile@@QAEHPBDPAD@Z 1000f510 f   KIniFile.obj
 0001:0000e630       ?GetNextKey@KIniFile@@QAEHPBD0PAD@Z 1000f630 f   KIniFile.obj
 0001:0000e750       ?GetSectionCount@KIniFile@@QAEHXZ 1000f750 f   KIniFile.obj
 0001:0000e7f0       ?GetRect@KIniFile@@QAEXPBD0PAUtagRECT@@@Z 1000f7f0 f   KIniFile.obj
 0001:0000e8c0       ?GetFloat3@KIniFile@@QAEXPBD0PAM@Z 1000f8c0 f   KIniFile.obj
 0001:0000e940       ?GetFloat4@KIniFile@@QAEXPBD0PAM@Z 1000f940 f   KIniFile.obj
 0001:0000e9c0       ?GetBool@KIniFile@@QAEXPBD0PAH@Z 1000f9c0 f   KIniFile.obj
 0001:0000e9f0       ?Save@KIniFile@@QAEHPBD@Z  1000f9f0 f   KIniFile.obj
 0001:0000eb50       ?Clear@KIniFile@@QAEXXZ    1000fb50 f   KIniFile.obj
 0001:0000eb60       ?CreateIniLink@KIniFile@@AAEXPAXJ@Z 1000fb60 f   KIniFile.obj
 0001:0000ec30       ??1KIniFile@@QAE@XZ        1000fc30 f   KIniFile.obj
 0001:0000ec90       ?LoadPack@KIniFile@@QAEHPBD@Z 1000fc90 f   KIniFile.obj
 0001:0000ee40       ?Load@KIniFile@@QAEHPBD@Z  1000fe40 f   KIniFile.obj
 0001:0000ef50       ??0KJpgFile@@QAE@XZ        1000ff50 f i KJpgFile.obj
 0001:0000ef60       ??1KJpgFile@@QAE@XZ        1000ff60 f i KJpgFile.obj
 0001:0000ef70       ??4KJpgFile@@QAEAAV0@ABV0@@Z 1000ff70 f i KJpgFile.obj
 0001:0000ef90       ?Load@KJpgFile@@QAEHPADPAVKBitmap16@@I@Z 1000ff90 f   KJpgFile.obj
 0001:0000f100       ?GetFuncKey@KKeyboard@@QAEEXZ 10010100 f i KKeyboard.obj
 0001:0000f110       ??4KKeyboard@@QAEAAV0@ABV0@@Z 10010110 f i KKeyboard.obj
 0001:0000f130       ??0KKeyboard@@QAE@XZ       10010130 f   KKeyboard.obj
 0001:0000f160       ?IsDown@KKeyboard@@QAEHE@Z 10010160 f   KKeyboard.obj
 0001:0000f180       ?MakeFuncKey@KKeyboard@@IAEXXZ 10010180 f   KKeyboard.obj
 0001:0000f1c0       ?MakeMessage@KKeyboard@@IAEXH@Z 100101c0 f   KKeyboard.obj
 0001:0000f240       ?UpdateState@KKeyboard@@QAEXXZ 10010240 f   KKeyboard.obj
 0001:0000f290       ??0KLinkNode@@QAE@XZ       10010290 f i KLinkArray.obj
 0001:0000f2a0       ??0KLinkArray@@QAE@XZ      100102a0 f i KLinkArray.obj
 0001:0000f2b0       ?GetCount@KLinkArray@@QAEHXZ 100102b0 f i KLinkArray.obj
 0001:0000f2c0       ?GetNode@KLinkArray@@QAEPAVKLinkNode@@H@Z 100102c0 f i KLinkArray.obj
 0001:0000f2d0       ?GetNext@KLinkArray@@QBEHH@Z 100102d0 f i KLinkArray.obj
 0001:0000f2f0       ?GetPrev@KLinkArray@@QBEHH@Z 100102f0 f i KLinkArray.obj
 0001:0000f310       ??4KLinkArray@@QAEAAV0@ABV0@@Z 10010310 f i KLinkArray.obj
 0001:0000f330       ??1KLinkArray@@QAE@XZ      10010330 f   KLinkArray.obj
 0001:0000f350       ??_H@YGXPAXIHP6EPAX0@Z@Z   10010350 f i KLinkArray.obj
 0001:0000f390       ?Remove@KLinkArray@@QAEXH@Z 10010390 f   KLinkArray.obj
 0001:0000f400       ?Insert@KLinkArray@@QAEXH@Z 10010400 f   KLinkArray.obj
 0001:0000f460       ?Init@KLinkArray@@QAEXH@Z  10010460 f   KLinkArray.obj
 0001:0000f510       ?Execute@KLuaScript@@UAEHXZ 10010510 f   KLuaScript.obj
 0001:0000f540       ?RegisterFunction@KLuaScript@@UAEHPADPAX@Z 10010540 f   KLuaScript.obj
 0001:0000f580       ?Compile@KLuaScript@@UAEHPAD@Z 10010580 f   KLuaScript.obj
 0001:0000f590       ?RegisterFunctions@KLuaScript@@QAEHQAUTLua_Funcs@@H@Z 10010590 f   KLuaScript.obj
 0001:0000f5f0       ?RegisterStandardFunctions@KLuaScript@@QAEXXZ 100105f0 f   KLuaScript.obj
 0001:0000f630       ?Exit@KLuaScript@@UAEXXZ   10010630 f   KLuaScript.obj
 0001:0000f660       ?ScriptError@KLuaScript@@QAEXH@Z 10010660 f   KLuaScript.obj
 0001:0000f6c0       ?ScriptError@KLuaScript@@QAEXHH@Z 100106c0 f   KLuaScript.obj
 0001:0000f720       ?SafeCallBegin@KLuaScript@@QAEXPAH@Z 10010720 f   KLuaScript.obj
 0001:0000f740       ?SafeCallEnd@KLuaScript@@QAEXH@Z 10010740 f   KLuaScript.obj
 0001:0000f760       ?Stop@KLuaScript@@QAEHXZ   10010760 f   KLuaScript.obj
 0001:0000f780       ?Resume@KLuaScript@@QAEHXZ 10010780 f   KLuaScript.obj
 0001:0000f7a0       ?CreateTable@KLuaScript@@QAEKXZ 100107a0 f   KLuaScript.obj
 0001:0000f7e0       ?SetGlobalName@KLuaScript@@QAEXPAD@Z 100107e0 f   KLuaScript.obj
 0001:0000f800       ?ModifyTable@KLuaScript@@QAEKPAD@Z 10010800 f   KLuaScript.obj
 0001:0000f860       ??0KLuaScript@@QAE@XZ      10010860 f   KLuaScript.obj
 0001:0000f8b0       ??0KLuaScript@@QAE@H@Z     100108b0 f   KLuaScript.obj
 0001:0000f900       ??1KLuaScript@@UAE@XZ      10010900 f   KLuaScript.obj
 0001:0000f920       ?LoadBuffer@KLuaScript@@QAEHPAEK@Z 10010920 f   KLuaScript.obj
 0001:0000f960       ?ExecuteCode@KLuaScript@@QAEHXZ 10010960 f   KLuaScript.obj
 0001:0000f9b0       ?CallFunction@KLuaScript@@AAEHPADH00@Z 100109b0 f   KLuaScript.obj
 0001:0000fb70       ?CallFunction@KLuaScript@@UAAHPADH0ZZ 10010b70 f   KLuaScript.obj
 0001:0000fb90       ?GetValuesFromStack@KLuaScript@@QAAHPADZZ 10010b90 f   KLuaScript.obj
 0001:0000fce0       ?Init@KLuaScript@@UAEHXZ   10010ce0 f   KLuaScript.obj
 0001:0000fd40       ?Load@KLuaScript@@UAEHPAD@Z 10010d40 f   KLuaScript.obj
 0001:0000feb0       ?InsertBefore@KNode@@QAEXPAV1@@Z 10010eb0 f i KLubCmpl_Blocker.obj
 0001:0000fee0       ?AddTail@KList@@QAEXPAVKNode@@@Z 10010ee0 f i KLubCmpl_Blocker.obj
 0001:0000ff10       ?GetMemPtr@KMemClass1@@QAEPAXXZ 10010f10 f i KLubCmpl_Blocker.obj
 0001:0000ff20       ?GetMemLen@KMemClass1@@QAEKXZ 10010f20 f i KLubCmpl_Blocker.obj
 0001:0000ff30       ??4KMemClass1@@QAEAAV0@ABV0@@Z 10010f30 f i KLubCmpl_Blocker.obj
 0001:0000ff50       ??0KStackNode@@QAE@XZ      10010f50 f i KLubCmpl_Blocker.obj
 0001:0000ff70       ??1KStackNode@@UAE@XZ      10010f70 f i KLubCmpl_Blocker.obj
 0001:0000ff80       ??0KLineNode@@QAE@XZ       10010f80 f i KLubCmpl_Blocker.obj
 0001:0000ffa0       ??1KLineNode@@UAE@XZ       10010fa0 f i KLubCmpl_Blocker.obj
 0001:0000ffb0       ?Load@KLubCmpl_Blocker@@QAEPAVKLineNode@@PAD@Z 10010fb0 f   KLubCmpl_Blocker.obj
 0001:000101f0       ?PushKey@KLubCmpl_Blocker@@QAEXPAVKStackNode@@@Z 100111f0 f   KLubCmpl_Blocker.obj
 0001:00010230       ?PopKey@KLubCmpl_Blocker@@QAEPAVKStackNode@@XZ 10011230 f   KLubCmpl_Blocker.obj
 0001:000102a0       ?GetBuffer@KLubCmpl_Blocker@@QAEHAAPAVKMemClass1@@@Z 100112a0 f   KLubCmpl_Blocker.obj
 0001:000103d0       ?Write@KLubCmpl_Blocker@@QAEHPAD@Z 100113d0 f   KLubCmpl_Blocker.obj
 0001:000104e0       ?Print@KLubCmpl_Blocker@@QAEXXZ 100114e0 f   KLubCmpl_Blocker.obj
 0001:00010530       ??_GKStackNode@@UAEPAXI@Z  10011530 f i KLubCmpl_Blocker.obj
 0001:00010530       ??_EKStackNode@@UAEPAXI@Z  10011530 f i KLubCmpl_Blocker.obj
 0001:00010550       ?ExchangeCurLines@KLubCmpl_Blocker@@QAEHXZ 10011550 f   KLubCmpl_Blocker.obj
 0001:00011020       ??_GKLineNode@@UAEPAXI@Z   10012020 f i KLubCmpl_Blocker.obj
 0001:00011020       ??_EKLineNode@@UAEPAXI@Z   10012020 f i KLubCmpl_Blocker.obj
 0001:00011040       ?ScanIf@KLubCmpl_Blocker@@QAEXPAVKLineNode@@@Z 10012040 f   KLubCmpl_Blocker.obj
 0001:000112e0       ??0KMemList@@QAE@XZ        100122e0 f i KMemBase.obj
 0001:00011310       ?g_MemInfo@@YAXXZ          10012310 f   KMemBase.obj
 0001:00011320       ?g_MemAlloc@@YAPAXK@Z      10012320 f   KMemBase.obj
 0001:00011390       ?g_MemFree@@YAXPAX@Z       10012390 f   KMemBase.obj
 0001:000113f0       ?g_MemCopy@@YAXPAX0K@Z     100123f0 f   KMemBase.obj
 0001:00011420       ?g_MemCopyMmx@@YAXPAX0K@Z  10012420 f   KMemBase.obj
 0001:00011460       ?g_MemComp@@YAHPAX0K@Z     10012460 f   KMemBase.obj
 0001:00011490       ?g_MemFill@@YAXPAXKE@Z     10012490 f   KMemBase.obj
 0001:000114c0       ?g_MemFill@@YAXPAXKG@Z     100124c0 f   KMemBase.obj
 0001:000114f0       ?g_MemFill@@YAXPAXKK@Z     100124f0 f   KMemBase.obj
 0001:00011510       ?g_MemZero@@YAXPAXK@Z      10012510 f   KMemBase.obj
 0001:00011530       ?g_MemXore@@YAXPAXKK@Z     10012530 f   KMemBase.obj
 0001:00011550       ??1KMemList@@QAE@XZ        10012550 f i KMemBase.obj
 0001:000115d0       ??0KMemClass@@QAE@XZ       100125d0 f   KMemClass.obj
 0001:000115e0       ?Free@KMemClass@@QAEXXZ    100125e0 f   KMemClass.obj
 0001:00011610       ?Zero@KMemClass@@QAEXXZ    10012610 f   KMemClass.obj
 0001:00011630       ?Fill@KMemClass@@QAEXE@Z   10012630 f   KMemClass.obj
 0001:00011650       ?Fill@KMemClass@@QAEXG@Z   10012650 f   KMemClass.obj
 0001:00011670       ?Fill@KMemClass@@QAEXK@Z   10012670 f   KMemClass.obj
 0001:00011690       ??1KMemClass@@QAE@XZ       10012690 f   KMemClass.obj
 0001:000116a0       ?Alloc@KMemClass@@QAEPAXK@Z 100126a0 f   KMemClass.obj
 0001:000116e0       ?Alloc@KMemClass1@@QAEPAXK@Z 100126e0 f   KMemClass1.obj
 0001:00011700       ?Free@KMemClass1@@QAEXXZ   10012700 f   KMemClass1.obj
 0001:00011710       ??0KMemManager@@QAE@XZ     10012710 f   KMemManager.obj
 0001:000117b0       ?NewChunk@KMemManager@@AAEPAXHH@Z 100127b0 f   KMemManager.obj
 0001:00011840       ?FreeChunk@KMemManager@@AAEXPAUKChunkHeader@1@@Z 10012840 f   KMemManager.obj
 0001:00011880       ?Malloc@KMemManager@@QAEPAXH@Z 10012880 f   KMemManager.obj
 0001:00011910       ?Calloc@KMemManager@@QAEPAXH@Z 10012910 f   KMemManager.obj
 0001:00011930       ?Free@KMemManager@@QAEXPAX@Z 10012930 f   KMemManager.obj
 0001:000119b0       ??1KMemManager@@QAE@XZ     100129b0 f   KMemManager.obj
 0001:00011a50       ??0KMemStack@@QAE@XZ       10012a50 f   KMemStack.obj
 0001:00011a80       ?Free@KMemStack@@QAEXPAX@Z 10012a80 f   KMemStack.obj
 0001:00011a90       ?AllocNewChunk@KMemStack@@QAEHXZ 10012a90 f   KMemStack.obj
 0001:00011ae0       ?FreeAllChunks@KMemStack@@QAEXXZ 10012ae0 f   KMemStack.obj
 0001:00011b30       ?GetChunkSize@KMemStack@@QAEHXZ 10012b30 f   KMemStack.obj
 0001:00011b40       ?GetStackSize@KMemStack@@QAEHXZ 10012b40 f   KMemStack.obj
 0001:00011b50       ??1KMemStack@@QAE@XZ       10012b50 f   KMemStack.obj
 0001:00011b60       ?Init@KMemStack@@QAEXH@Z   10012b60 f   KMemStack.obj
 0001:00011b80       ?Push@KMemStack@@QAEPAXH@Z 10012b80 f   KMemStack.obj
 0001:00011bc0       ?g_SendMessage@@YAXHHHH@Z  10012bc0 f   KMessage.obj
 0001:00011c30       ?g_PeekMessage@@YAHPAUKMessage@@@Z 10012c30 f   KMessage.obj
 0001:00011c70       ?g_GetMessage@@YAHPAUKMessage@@@Z 10012c70 f   KMessage.obj
 0001:00011ce0       ?g_ClearMessage@@YAXXZ     10012ce0 f   KMessage.obj
 0001:00011d00       ?SetWorkingMode@KMouse@@QAEXE@Z 10012d00 f i KMouse.obj
 0001:00011d10       ?SetKeyState@KMouse@@QAEXE@Z 10012d10 f i KMouse.obj
 0001:00011d20       ??4KMouse@@QAEAAV0@ABV0@@Z 10012d20 f i KMouse.obj
 0001:00011d40       ??0KMouse@@QAE@XZ          10012d40 f   KMouse.obj
 0001:00011d80       ?SetWorkingRect@KMouse@@QAEXPAUtagRECT@@@Z 10012d80 f   KMouse.obj
 0001:00011da0       ?SetPos@KMouse@@QAEXPAUtagPOINT@@@Z 10012da0 f   KMouse.obj
 0001:00011dc0       ?GetPos@KMouse@@QAEXPAUtagPOINT@@@Z 10012dc0 f   KMouse.obj
 0001:00011de0       ?MakeMessage@KMouse@@IAEXHHEE@Z 10012de0 f   KMouse.obj
 0001:00011f00       ?UpdateState@KMouse@@QAEXXZ 10012f00 f   KMouse.obj
 0001:00011fc0       ??4KThread@@QAEAAV0@ABV0@@Z 10012fc0 f i KMp3Music.obj
 0001:00011fe0       ??0KMusic@@QAE@ABV0@@Z     10012fe0 f i KMp3Music.obj
 0001:00012080       ??4KMusic@@QAEAAV0@ABV0@@Z 10013080 f i KMp3Music.obj
 0001:00012120       ??_GKMusic@@UAEPAXI@Z      10013120 f i KMp3Music.obj
 0001:00012140       ??_EKMusic@@UAEPAXI@Z      10013140 f i KMp3Music.obj
 0001:000121a0       ??0KMp3Music@@QAE@XZ       100131a0 f i KMp3Music.obj
 0001:00012210       ??1KMp3Music@@UAE@XZ       10013210 f i KMp3Music.obj
 0001:00012280       ??0KMp3Music@@QAE@ABV0@@Z  10013280 f i KMp3Music.obj
 0001:00012300       ??4KMp3Music@@QAEAAV0@ABV0@@Z 10013300 f i KMp3Music.obj
 0001:00012370       ??_GKMp3Music@@UAEPAXI@Z   10013370 f i KMp3Music.obj
 0001:00012390       ??_EKMp3Music@@UAEPAXI@Z   10013390 f i KMp3Music.obj
 0001:000123f0       ?Open@KMp3Music@@UAEHPAD@Z 100133f0 f   KMp3Music.obj
 0001:00012440       ?InitSoundFormat@KMp3Music@@MAEXXZ 10013440 f   KMp3Music.obj
 0001:00012460       ?ReadWaveData@KMp3Music@@MAEKPAEK@Z 10013460 f   KMp3Music.obj
 0001:00012470       ?Seek@KMp3Music@@UAEXH@Z   10013470 f   KMp3Music.obj
 0001:00012480       ?Rewind@KMp3Music@@UAEXXZ  10013480 f   KMp3Music.obj
 0001:000124a0       ?Mp3FileOpen@KMp3Music@@MAEHPAD@Z 100134a0 f   KMp3Music.obj
 0001:000124b0       ?Mp3FileRead@KMp3Music@@MAEKPAEK@Z 100134b0 f   KMp3Music.obj
 0001:000124c0       ?Mp3FileSeek@KMp3Music@@MAEKJ@Z 100134c0 f   KMp3Music.obj
 0001:000124e0       ?Mp3Init@KMp3Music@@MAEHXZ 100134e0 f   KMp3Music.obj
 0001:00012600       ?Mp3Decode@KMp3Music@@MAEKPAEK@Z 10013600 f   KMp3Music.obj
 0001:00012690       ?Mp3FillBuffer@KMp3Music@@MAEHXZ 10013690 f   KMp3Music.obj
 0001:00012710       ??0KMp4Audio@@QAE@XZ       10013710 f i KMp4Audio.obj
 0001:00012770       ??1KMp4Audio@@UAE@XZ       10013770 f i KMp4Audio.obj
 0001:000127d0       ??0KMp4Audio@@QAE@ABV0@@Z  100137d0 f i KMp4Audio.obj
 0001:00012800       ??4KMp4Audio@@QAEAAV0@ABV0@@Z 10013800 f i KMp4Audio.obj
 0001:00012830       ??_GKMp4Audio@@UAEPAXI@Z   10013830 f i KMp4Audio.obj
 0001:00012850       ??_EKMp4Audio@@UAEPAXI@Z   10013850 f i KMp4Audio.obj
 0001:000128b0       ?Seek@KMp4Audio@@UAEXH@Z   100138b0 f   KMp4Audio.obj
 0001:000128e0       ?Rewind@KMp4Audio@@UAEXXZ  100138e0 f   KMp4Audio.obj
 0001:00012900       ?Mp3FileOpen@KMp4Audio@@MAEHPAD@Z 10013900 f   KMp4Audio.obj
 0001:00012950       ?Mp3FileRead@KMp4Audio@@MAEKPAEK@Z 10013950 f   KMp4Audio.obj
 0001:00012960       ?Mp3FileSeek@KMp4Audio@@MAEKJ@Z 10013960 f   KMp4Audio.obj
 0001:00012970       ??0KVideo@@QAE@ABV0@@Z     10013970 f i KMp4Movie.obj
 0001:00012a10       ??4KVideo@@QAEAAV0@ABV0@@Z 10013a10 f i KMp4Movie.obj
 0001:00012ab0       ??0KMp4Video@@QAE@ABV0@@Z  10013ab0 f i KMp4Movie.obj
 0001:00012af0       ??4KMp4Video@@QAEAAV0@ABV0@@Z 10013af0 f i KMp4Movie.obj
 0001:00012b30       ??0KMp4Movie@@QAE@XZ       10013b30 f i KMp4Movie.obj
 0001:00012b90       ??1KMp4Movie@@QAE@XZ       10013b90 f i KMp4Movie.obj
 0001:00012bf0       ??0KMp4Movie@@QAE@ABV0@@Z  10013bf0 f i KMp4Movie.obj
 0001:00012c70       ??4KMp4Movie@@QAEAAV0@ABV0@@Z 10013c70 f i KMp4Movie.obj
 0001:00012cd0       ?Open@KMp4Movie@@QAEHPAD@Z 10013cd0 f   KMp4Movie.obj
 0001:00012d00       ?Close@KMp4Movie@@QAEXXZ   10013d00 f   KMp4Movie.obj
 0001:00012d20       ?Play@KMp4Movie@@QAEXHHH@Z 10013d20 f   KMp4Movie.obj
 0001:00012d50       ?Stop@KMp4Movie@@QAEXXZ    10013d50 f   KMp4Movie.obj
 0001:00012d70       ?Seek@KMp4Movie@@QAEXH@Z   10013d70 f   KMp4Movie.obj
 0001:00012da0       ?Rewind@KMp4Movie@@QAEXXZ  10013da0 f   KMp4Movie.obj
 0001:00012dc0       ?WaitForEnd@KMp4Movie@@QAEXXZ 10013dc0 f   KMp4Movie.obj
 0001:00012e80       ??0KMp4Video@@QAE@XZ       10013e80 f   KMp4Video.obj
 0001:00012ef0       ?Seek@KMp4Video@@UAEXH@Z   10013ef0 f   KMp4Video.obj
 0001:00012f00       ?Rewind@KMp4Video@@UAEXXZ  10013f00 f   KMp4Video.obj
 0001:00012f10       ?DrawFrame@KMp4Video@@IAEXXZ 10013f10 f   KMp4Video.obj
 0001:00012f60       ?DivXDecode@KMp4Video@@AAEXH@Z 10013f60 f   KMp4Video.obj
 0001:00012fb0       ?DivXExit@KMp4Video@@AAEXXZ 10013fb0 f   KMp4Video.obj
 0001:000130b0       ?Close@KMp4Video@@UAEXXZ   100140b0 f   KMp4Video.obj
 0001:000130e0       ?NextFrame@KMp4Video@@MAEHXZ 100140e0 f   KMp4Video.obj
 0001:00013170       ?DivXInit@KMp4Video@@AAEHXZ 10014170 f   KMp4Video.obj
 0001:00013400       ??1KMp4Video@@QAE@XZ       10014400 f   KMp4Video.obj
 0001:00013470       ?Open@KMp4Video@@UAEHPAD@Z 10014470 f   KMp4Video.obj
 0001:000134e0       ??0KMpgMusic@@QAE@XZ       100144e0 f i KMpgMusic.obj
 0001:00013560       ??1KMpgMusic@@UAE@XZ       10014560 f i KMpgMusic.obj
 0001:000135e0       ??0KMpgMusic@@QAE@ABV0@@Z  100145e0 f i KMpgMusic.obj
 0001:00013660       ??4KMpgMusic@@QAEAAV0@ABV0@@Z 10014660 f i KMpgMusic.obj
 0001:000136e0       ??_GKMpgMusic@@UAEPAXI@Z   100146e0 f i KMpgMusic.obj
 0001:00013700       ??_EKMpgMusic@@UAEPAXI@Z   10014700 f i KMpgMusic.obj
 0001:00013780       ?InitSoundFormat@KMpgMusic@@MAEXXZ 10014780 f   KMpgMusic.obj
 0001:000137a0       ?Seek@KMpgMusic@@UAEXH@Z   100147a0 f   KMpgMusic.obj
 0001:000137b0       ?Rewind@KMpgMusic@@UAEXXZ  100147b0 f   KMpgMusic.obj
 0001:000137d0       ?Mp3FileOpen@KMpgMusic@@MAEHPAD@Z 100147d0 f   KMpgMusic.obj
 0001:000137e0       ?Mp3FileRead@KMpgMusic@@MAEKPAEK@Z 100147e0 f   KMpgMusic.obj
 0001:000137f0       ?Mp3FileSeek@KMpgMusic@@MAEKJ@Z 100147f0 f   KMpgMusic.obj
 0001:00013810       ?Mp3FillBuffer@KMpgMusic@@AAEHXZ 10014810 f   KMpgMusic.obj
 0001:000139a0       ?Mp3Init@KMpgMusic@@AAEHXZ 100149a0 f   KMpgMusic.obj
 0001:00013a90       ?Mp3Decode@KMpgMusic@@AAEKPAEK@Z 10014a90 f   KMpgMusic.obj
 0001:00013b20       ?Open@KMpgMusic@@UAEHPAD@Z 10014b20 f   KMpgMusic.obj
 0001:00013b60       ?ReadWaveData@KMpgMusic@@MAEKPAEK@Z 10014b60 f   KMpgMusic.obj
 0001:00013b70       ?GetMsgBuf@KMsgNode@@QAEPAXXZ 10014b70 f i KMsgNode.obj
 0001:00013b80       ?GetMsgLen@KMsgNode@@QAEKXZ 10014b80 f i KMsgNode.obj
 0001:00013b90       ?SetPtr@KMsgNode@@QAEXPAX@Z 10014b90 f i KMsgNode.obj
 0001:00013ba0       ?GetPtr@KMsgNode@@QAEPAXXZ 10014ba0 f i KMsgNode.obj
 0001:00013bb0       ??0KMsgNode@@QAE@ABV0@@Z   10014bb0 f i KMsgNode.obj
 0001:00013bf0       ??4KMsgNode@@QAEAAV0@ABV0@@Z 10014bf0 f i KMsgNode.obj
 0001:00013c20       ??0KMsgNode@@QAE@XZ        10014c20 f   KMsgNode.obj
 0001:00013c40       ??1KMsgNode@@UAE@XZ        10014c40 f   KMsgNode.obj
 0001:00013ca0       ?SetMsg@KMsgNode@@QAEXPAXK@Z 10014ca0 f   KMsgNode.obj
 0001:00013ce0       ??_GKMsgNode@@UAEPAXI@Z    10014ce0 f i KMsgNode.obj
 0001:00013d00       ??_EKMsgNode@@UAEPAXI@Z    10014d00 f i KMsgNode.obj
 0001:00013d60       ??0KMusic@@QAE@XZ          10014d60 f   KMusic.obj
 0001:00013d90       ?ThreadFunction@KMusic@@KAXPAX@Z 10014d90 f   KMusic.obj
 0001:00013db0       ?Open@KMusic@@UAEHPAD@Z    10014db0 f   KMusic.obj
 0001:00013dc0       ?Init@KMusic@@MAEHXZ       10014dc0 f   KMusic.obj
 0001:00013e20       ?Close@KMusic@@UAEXXZ      10014e20 f   KMusic.obj
 0001:00013e60       ?InitSoundFormat@KMusic@@MAEXXZ 10014e60 f   KMusic.obj
 0001:00013e70       ?InitSoundBuffer@KMusic@@MAEHXZ 10014e70 f   KMusic.obj
 0001:00013f20       ?FreeSoundBuffer@KMusic@@MAEXXZ 10014f20 f   KMusic.obj
 0001:00013f50       ?InitEventHandle@KMusic@@MAEHXZ 10014f50 f   KMusic.obj
 0001:00013fa0       ?FreeEventHandle@KMusic@@MAEXXZ 10014fa0 f   KMusic.obj
 0001:00013fd0       ?InitSoundNotify@KMusic@@MAEHXZ 10014fd0 f   KMusic.obj
 0001:00014050       ?FreeSoundNotify@KMusic@@MAEXXZ 10015050 f   KMusic.obj
 0001:00014080       ?HandleNotify@KMusic@@UAEHXZ 10015080 f   KMusic.obj
 0001:000140c0       ?FillBufferWithSound@KMusic@@MAEHK@Z 100150c0 f   KMusic.obj
 0001:000141a0       ?FillBufferWithSilence@KMusic@@MAEHXZ 100151a0 f   KMusic.obj
 0001:00014220       ?ReadWaveData@KMusic@@MAEKPAEK@Z 10015220 f   KMusic.obj
 0001:00014230       ?Play@KMusic@@UAEXH@Z      10015230 f   KMusic.obj
 0001:00014260       ?Stop@KMusic@@UAEXXZ       10015260 f   KMusic.obj
 0001:00014280       ?IsPlaying@KMusic@@UAEHXZ  10015280 f   KMusic.obj
 0001:000142b0       ?SetVolume@KMusic@@UAEXJ@Z 100152b0 f   KMusic.obj
 0001:000142d0       ?Rewind@KMusic@@UAEXXZ     100152d0 f   KMusic.obj
 0001:000142e0       ??1KMusic@@UAE@XZ          100152e0 f   KMusic.obj
 0001:00014340       ??0KMutex@@QAE@XZ          10015340 f   KMutex.obj
 0001:00014350       ??1KMutex@@QAE@XZ          10015350 f   KMutex.obj
 0001:00014360       ?Lock@KMutex@@QAEXXZ       10015360 f   KMutex.obj
 0001:00014370       ?Unlock@KMutex@@QAEXXZ     10015370 f   KMutex.obj
 0001:00014380       ??0KOctreeNode@@QAE@ABV0@@Z 10015380 f i KOctree.obj
 0001:000143c0       ??4KOctreeNode@@QAEAAV0@ABV0@@Z 100153c0 f i KOctree.obj
 0001:00014420       ??_GKOctreeNode@@UAEPAXI@Z 10015420 f i KOctree.obj
 0001:00014440       ??_EKOctreeNode@@UAEPAXI@Z 10015440 f i KOctree.obj
 0001:000144a0       ??0KOctree@@QAE@ABV0@@Z    100154a0 f i KOctree.obj
 0001:00014510       ??4KOctree@@QAEAAV0@ABV0@@Z 10015510 f i KOctree.obj
 0001:00014590       ??0KOctree@@QAE@XZ         10015590 f   KOctree.obj
 0001:000145c0       ??1KOctree@@UAE@XZ         100155c0 f   KOctree.obj
 0001:00014630       ?Insert@KOctree@@QAEXEEE@Z 10015630 f   KOctree.obj
 0001:00014660       ?GetMinSumNode@KOctree@@QAEXPAVKOctreeNode@@@Z 10015660 f   KOctree.obj
 0001:000146d0       ?InitPalette@KOctree@@QAEXXZ 100156d0 f   KOctree.obj
 0001:00014700       ?MakePalette@KOctree@@QAEXPAVKOctreeNode@@@Z 10015700 f   KOctree.obj
 0001:00014790       ?QueryIndex@KOctree@@QAEHEEE@Z 10015790 f   KOctree.obj
 0001:000147b0       ??_GKOctree@@UAEPAXI@Z     100157b0 f i KOctree.obj
 0001:000147d0       ??_EKOctree@@UAEPAXI@Z     100157d0 f i KOctree.obj
 0001:00014830       ?ReduceNode@KOctree@@QAEXXZ 10015830 f   KOctree.obj
 0001:00014870       ??0KOctreeNode@@QAE@XZ     10015870 f   KOctreeNode.obj
 0001:000148b0       ?Free@KOctreeNode@@QAEXXZ  100158b0 f   KOctreeNode.obj
 0001:000148e0       ?Insert@KOctreeNode@@QAEHEEEHH@Z 100158e0 f   KOctreeNode.obj
 0001:00014990       ?Merge@KOctreeNode@@QAEHXZ 10015990 f   KOctreeNode.obj
 0001:000149f0       ?IsLeaf@KOctreeNode@@QAEHXZ 100159f0 f   KOctreeNode.obj
 0001:00014a10       ?IsFather@KOctreeNode@@QAEHXZ 10015a10 f   KOctreeNode.obj
 0001:00014a50       ?RefenceSum@KOctreeNode@@QAEHXZ 10015a50 f   KOctreeNode.obj
 0001:00014ab0       ??1KOctreeNode@@UAE@XZ     10015ab0 f   KOctreeNode.obj
 0001:00014ac0       ?QueryIndex@KOctreeNode@@QAEHEEEH@Z 10015ac0 f   KOctreeNode.obj
 0001:00014b30       ??4KPakData@@QAEAAV0@ABV0@@Z 10015b30 f i KPakData.obj
 0001:00014b50       ??0KPakData@@QAE@XZ        10015b50 f   KPakData.obj
 0001:00014bb0       ?Read@KPakData@@QAEKPAXK@Z 10015bb0 f   KPakData.obj
 0001:00014bc0       ?Seek@KPakData@@QAEKJK@Z   10015bc0 f   KPakData.obj
 0001:00014bd0       ?Tell@KPakData@@QAEKXZ     10015bd0 f   KPakData.obj
 0001:00014be0       ?Close@KPakData@@QAEXXZ    10015be0 f   KPakData.obj
 0001:00014c10       ?Search@KPakData@@QAEHPADPAK1@Z 10015c10 f   KPakData.obj
 0001:00014cf0       ?Decode@KPakData@@QAEHPAUTCodeInfo@@@Z 10015cf0 f   KPakData.obj
 0001:00014d00       ??1KPakData@@QAE@XZ        10015d00 f   KPakData.obj
 0001:00014d70       ?Open@KPakData@@QAEHPAD@Z  10015d70 f   KPakData.obj
 0001:00014e40       ?g_SetPakFileMode@@YAXH@Z  10015e40 f   KPakFile.obj
 0001:00014e50       ?SprReleaseHeader@@YAXPAUSPRHEAD@@@Z 10015e50 f   KPakFile.obj
 0001:00014e70       ?SprGetFrame@@YAPAUSPRFRAME@@PAUSPRHEAD@@H@Z 10015e70 f   KPakFile.obj
 0001:00014ea0       ?SprReleaseFrame@@YAXPAUSPRFRAME@@@Z 10015ea0 f   KPakFile.obj
 0001:00014ec0       ?release_image@@YAXPAUKSGImageContent@@@Z 10015ec0 f   KPakFile.obj
 0001:00014ee0       ??0KPakFile@@QAE@XZ        10015ee0 f   KPakFile.obj
 0001:00014f00       ?IsFileInPak@KPakFile@@QAE_NXZ 10015f00 f   KPakFile.obj
 0001:00014f20       ?Read@KPakFile@@QAEKPAXI@Z 10015f20 f   KPakFile.obj
 0001:00014f60       ?Seek@KPakFile@@QAEKHI@Z   10015f60 f   KPakFile.obj
 0001:00014fc0       ?Tell@KPakFile@@QAEKXZ     10015fc0 f   KPakFile.obj
 0001:00014fd0       ?Size@KPakFile@@QAEKXZ     10015fd0 f   KPakFile.obj
 0001:00014fe0       ?Close@KPakFile@@QAEXXZ    10015fe0 f   KPakFile.obj
 0001:00015000       ?Save@KPakFile@@QAEHPBD@Z  10016000 f   KPakFile.obj
 0001:00015010       ??1KPakFile@@QAE@XZ        10016010 f   KPakFile.obj
 0001:00015070       ?Open@KPakFile@@QAEHPBD@Z  10016070 f   KPakFile.obj
 0001:000150f0       ?SprGetHeader@@YAPAUSPRHEAD@@PBDAAPAUSPROFFS@@@Z 100160f0 f   KPakFile.obj
 0001:00015280       ?get_jpg_image@@YAPAUKSGImageContent@@QBDI@Z 10016280 f   KPakFile.obj
 0001:00015400       ??0KPakList@@QAE@XZ        10016400 f   KPakList.obj
 0001:00015420       ??_GXPackFile@@QAEPAXI@Z   10016420 f i KPakList.obj
 0001:00015440       ?FindElemFile@KPakList@@QAE_NKAAUXPackElemFileRef@@@Z 10016440 f   KPakList.obj
 0001:00015490       ?FileNameToId@KPakList@@AAEKPBD@Z 10016490 f   KPakList.obj
 0001:000154f0       ?FindElemFile@KPakList@@QAE_NPBDAAUXPackElemFileRef@@@Z 100164f0 f   KPakList.obj
 0001:00015570       ?ElemFileRead@KPakList@@QAEHAAUXPackElemFileRef@@PAXI@Z 10016570 f   KPakList.obj
 0001:000155a0       ?GetSprHeader@KPakList@@QAEPAUSPRHEAD@@AAUXPackElemFileRef@@AAPAUSPROFFS@@@Z 100165a0 f   KPakList.obj
 0001:000155d0       ?GetSprFrame@KPakList@@QAEPAUSPRFRAME@@HPAUSPRHEAD@@H@Z 100165d0 f   KPakList.obj
 0001:00015600       ?Close@KPakList@@QAEXXZ    10016600 f   KPakList.obj
 0001:00015650       ?Open@KPakList@@QAE_NPBD@Z 10016650 f   KPakList.obj
 0001:00015870       ??1KPakList@@QAE@XZ        10016870 f   KPakList.obj
 0001:00015880       ??4KPakTool@@QAEAAV0@ABV0@@Z 10016880 f i KPakTool.obj
 0001:000158a0       ??0KPakTool@@QAE@XZ        100168a0 f   KPakTool.obj
 0001:000158b0       ??1KPakTool@@QAE@XZ        100168b0 f   KPakTool.obj
 0001:000158c0       ?Pack@KPakTool@@QAEHPAD0H@Z 100168c0 f   KPakTool.obj
 0001:00015b10       ?UnPack@KPakTool@@QAEHPAD0@Z 10016b10 f   KPakTool.obj
 0001:00015d30       ?g_SetColorStyle@@YAXEEE@Z 10016d30 f   KPalette.obj
 0001:00015d50       ?g_Pal24ToPal16@@YAXPAUKPAL24@@PAGH@Z 10016d50 f   KPalette.obj
 0001:00015e00       ?g_Pal16ToPal24@@YAXPAGPAUKPAL24@@H@Z 10016e00 f   KPalette.obj
 0001:00015ea0       ?g_Pal32ToPal16@@YAXPAUKPAL32@@PAGH@Z 10016ea0 f   KPalette.obj
 0001:00015ee0       ?g_Pal24ToPal16Style@@YAXPAUKPAL24@@PAGH@Z 10016ee0 f   KPalette.obj
 0001:00015f90       ?g_Pal32ToPal16Style@@YAXPAUKPAL32@@PAGH@Z 10016f90 f   KPalette.obj
 0001:00016040       ?g_Pal24ToPal16Gray@@YAXPAUKPAL24@@PAGH@Z 10017040 f   KPalette.obj
 0001:000160b0       ?g_Pal32ToPal16Gray@@YAXPAUKPAL32@@PAGH@Z 100170b0 f   KPalette.obj
 0001:00016120       ?g_Pal24ToPal16Lum@@YAXPAUKPAL24@@PAGH@Z 10017120 f   KPalette.obj
 0001:000161b0       ?g_Pal32ToPal16Lum@@YAXPAUKPAL32@@PAGH@Z 100171b0 f   KPalette.obj
 0001:00016240       ?g_Pal24ToPal32@@YAXPAUKPAL24@@PAUKPAL32@@H@Z 10017240 f   KPalette.obj
 0001:00016290       ?g_Pal32ToPal24@@YAXPAUKPAL32@@PAUKPAL24@@H@Z 10017290 f   KPalette.obj
 0001:000162d0       ??4KPcxFile@@QAEAAV0@ABV0@@Z 100172d0 f i KPcxFile.obj
 0001:000162f0       ?Save@KPcxFile@@QAEHPADPAVKBitmap@@@Z 100172f0 f   KPcxFile.obj
 0001:00016300       ?Decode@KPcxFile@@AAEXPAX0@Z 10017300 f   KPcxFile.obj
 0001:00016370       ?Encode@KPcxFile@@AAEXPAX0@Z 10017370 f   KPcxFile.obj
 0001:00016380       ?Load@KPcxFile@@QAEHPADPAVKBitmap@@@Z 10017380 f   KPcxFile.obj
 0001:00016570       ?GetVertexNumber@KPolygon@@QAEHXZ 10017570 f i KPolygon.obj
 0001:00016580       ?GetPolygonPtr@KPolygon@@QAEPAUTPolygon@@XZ 10017580 f i KPolygon.obj
 0001:00016590       ??4KPolygon@@QAEAAV0@ABV0@@Z 10017590 f i KPolygon.obj
 0001:000165b0       ??0KPolygon@@QAE@XZ        100175b0 f   KPolygon.obj
 0001:000165d0       ?IsPointInPolygon@KPolygon@@QAEHUtagPOINT@@@Z 100175d0 f   KPolygon.obj
 0001:000166a0       ?IsPointInPolygon@KPolygon@@QAEHHH@Z 100176a0 f   KPolygon.obj
 0001:00016770       ?GetNearVertex@KPolygon@@QAEHUtagPOINT@@@Z 10017770 f   KPolygon.obj
 0001:000167e0       ?GetIndexVertex@KPolygon@@QAEHHPAUtagPOINT@@@Z 100177e0 f   KPolygon.obj
 0001:00016810       ?RemoveIndexVertex@KPolygon@@QAEHH@Z 10017810 f   KPolygon.obj
 0001:00016850       ?AddPointToVertex@KPolygon@@QAEHUtagPOINT@@@Z 10017850 f   KPolygon.obj
 0001:00016980       ?AddPointToVertex@KPolygon@@QAEHHH@Z 10017980 f   KPolygon.obj
 0001:00016ac0       ?LoopVertex@KPolygon@@QAEXH@Z 10017ac0 f   KPolygon.obj
 0001:00016b30       ?Clear@KPolygon@@QAEXXZ    10017b30 f   KPolygon.obj
 0001:00016b50       ?GetCenterPos@KPolygon@@QAEXPAUtagPOINT@@@Z 10017b50 f   KPolygon.obj
 0001:00016b90       ?ShiftVertex@KPolygon@@QAEHHH@Z 10017b90 f   KPolygon.obj
 0001:00016d10       ?GetLeftVertex@KPolygon@@QAEHXZ 10017d10 f   KPolygon.obj
 0001:00016d40       ?GetRightVertex@KPolygon@@QAEHXZ 10017d40 f   KPolygon.obj
 0001:00016d70       ?g_ColliSion@@YAHVKPolygon@@0@Z 10017d70 f   KPolyRelation.obj
 0001:00016dc0       ?IntersectionX2Y@@YAHUtagPOINT@@0HPAH@Z 10017dc0 f   KPolyRelation.obj
 0001:00016e10       ?g_SpaceRelation@@YAHVKPolygon@@0@Z 10017e10 f   KPolyRelation.obj
 0001:00016fa0       ?g_RandomSeed@@YAXI@Z      10017fa0 f   KRandom.obj
 0001:00016fb0       ?g_Random@@YAII@Z          10017fb0 f   KRandom.obj
 0001:00016fe0       ?g_GetRandomSeed@@YAIXZ    10017fe0 f   KRandom.obj
 0001:00016ff0       ?SignalEvent@KSafeList@@QAEXXZ 10017ff0 f i KSafeList.obj
 0001:00017000       ?WaitEvent@KSafeList@@QAEXXZ 10018000 f i KSafeList.obj
 0001:00017010       ?TimedWaitEvent@KSafeList@@QAEXJ@Z 10018010 f i KSafeList.obj
 0001:00017020       ?Lock@KSafeList@@QAEXXZ    10018020 f i KSafeList.obj
 0001:00017030       ?Unlock@KSafeList@@QAEXXZ  10018030 f i KSafeList.obj
 0001:00017040       ??0KSafeList@@QAE@XZ       10018040 f i KSafeList.obj
 0001:000170c0       ??1KSafeList@@QAE@XZ       100180c0 f i KSafeList.obj
 0001:00017130       ??0KSafeList@@QAE@ABV0@@Z  10018130 f i KSafeList.obj
 0001:00017190       ??4KSafeList@@QAEAAV0@ABV0@@Z 10018190 f i KSafeList.obj
 0001:000171e0       ??4KScanFile@@QAEAAV0@ABV0@@Z 100181e0 f i KScanDir.obj
 0001:00017200       ??0KScanFile@@QAE@XZ       10018200 f   KScanDir.obj
 0001:00017220       ?DiscardFileExt@KScanFile@@QAEXPAD@Z 10018220 f   KScanDir.obj
 0001:00017240       ?CheckFileExt@KScanFile@@AAEHPAD@Z 10018240 f   KScanDir.obj
 0001:000172c0       ?OutputFileName@KScanFile@@AAEXPAD@Z 100182c0 f   KScanDir.obj
 0001:000173a0       ?SearchDirectory@KScanFile@@AAEXXZ 100183a0 f   KScanDir.obj
 0001:000174a0       ?RunSearch@KScanFile@@QAEHPAD00@Z 100184a0 f   KScanDir.obj
 0001:00017530       ??0KScript@@QAE@XZ         10018530 f   KScript.obj
 0001:00017540       ??1KScript@@UAE@XZ         10018540 f   KScript.obj
 0001:00017550       ?Init@KScript@@UAEHXZ      10018550 f   KScript.obj
 0001:00017560       ?Exit@KScript@@UAEXXZ      10018560 f   KScript.obj
 0001:00017570       ?Load@KScript@@UAEHPAD@Z   10018570 f   KScript.obj
 0001:00017580       ?Compile@KScript@@UAEHPAD@Z 10018580 f   KScript.obj
 0001:00017590       ?Execute@KScript@@UAEHXZ   10018590 f   KScript.obj
 0001:000175a0       ?CallFunction@KScript@@UAAHPADH0ZZ 100185a0 f   KScript.obj
 0001:000175b0       ?RegisterFunction@KScript@@UAEHPADPAX@Z 100185b0 f   KScript.obj
 0001:000175c0       ??0KScriptCache@@QAE@XZ    100185c0 f   KScriptCache.obj
 0001:000175e0       ??1KScriptCache@@QAE@XZ    100185e0 f   KScriptCache.obj
 0001:00017640       ?LoadNode@KScriptCache@@UAEHPAVKCacheNode@@@Z 10018640 f   KScriptCache.obj
 0001:000176f0       ?FreeNode@KScriptCache@@UAEXPAVKCacheNode@@@Z 100186f0 f   KScriptCache.obj
 0001:00017720       ??0KScriptCache@@QAE@ABV0@@Z 10018720 f i KScriptCache.obj
 0001:00017770       ??4KScriptCache@@QAEAAV0@ABV0@@Z 10018770 f i KScriptCache.obj
 0001:000177a0       ?IsEmpty@KList@@QAEHXZ     100187a0 f i KScriptList.obj
 0001:000177c0       ?SeekBegin@KStepLuaScript@@QAEXXZ 100187c0 f i KScriptList.obj
 0001:000177d0       ?SeekToExeBegin@KStepLuaScript@@QAEXXZ 100187d0 f i KScriptList.obj
 0001:000177e0       ?RunMain@KStepLuaScript@@QAEXXZ 100187e0 f i KScriptList.obj
 0001:000177f0       ?RunFunc@KStepLuaScript@@QAEXXZ 100187f0 f i KScriptList.obj
 0001:00017800       ?RunIdle@KStepLuaScript@@QAEXXZ 10018800 f i KScriptList.obj
 0001:00017810       ?RunResume@KStepLuaScript@@QAEXXZ 10018810 f i KScriptList.obj
 0001:00017820       ?RunWaitMsg@KStepLuaScript@@QAEXXZ 10018820 f i KScriptList.obj
 0001:00017830       ?IsRunMain@KStepLuaScript@@QAEHXZ 10018830 f i KScriptList.obj
 0001:00017840       ?IsRunFunc@KStepLuaScript@@QAEHXZ 10018840 f i KScriptList.obj
 0001:00017850       ?IsRunIdle@KStepLuaScript@@QAEHXZ 10018850 f i KScriptList.obj
 0001:00017860       ?IsRunResume@KStepLuaScript@@QAEHXZ 10018860 f i KScriptList.obj
 0001:00017870       ?IsRunWaitMsg@KStepLuaScript@@QAEHXZ 10018870 f i KScriptList.obj
 0001:00017880       ?GetWaitingMsg@KStepLuaScript@@QAEPADXZ 10018880 f i KScriptList.obj
 0001:00017890       ?GetStatus@KStepLuaScript@@QAEHXZ 10018890 f i KScriptList.obj
 0001:000178a0       ??0KStepLuaScript@@QAE@ABV0@@Z 100188a0 f i KScriptList.obj
 0001:00017970       ??4KStepLuaScript@@QAEAAV0@ABV0@@Z 10018970 f i KScriptList.obj
 0001:00017a30       ??_GKStepLuaScript@@UAEPAXI@Z 10018a30 f i KScriptList.obj
 0001:00017a50       ??_EKStepLuaScript@@UAEPAXI@Z 10018a50 f i KScriptList.obj
 0001:00017ab0       ??1KScriptNode@@UAE@XZ     10018ab0 f i KScriptList.obj
 0001:00017b10       ??0KScriptNode@@QAE@XZ     10018b10 f i KScriptList.obj
 0001:00017b30       ??_GKScriptNode@@UAEPAXI@Z 10018b30 f i KScriptList.obj
 0001:00017b50       ??_EKScriptNode@@UAEPAXI@Z 10018b50 f i KScriptList.obj
 0001:00017bb0       ?GetScript@KScriptList@@QAEPAVKLuaScript@@PAUlua_State@@@Z 10018bb0 f   KScriptList.obj
 0001:00017bf0       ?Activate@KScriptList@@QAEXXZ 10018bf0 f   KScriptList.obj
 0001:00017cb0       ?SendMessageA@KScriptList@@QAEXPAD0@Z 10018cb0 f   KScriptList.obj
 0001:00017d10       ??0KScriptNode@@QAE@ABV0@@Z 10018d10 f i KScriptList.obj
 0001:00017d40       ??4KScriptNode@@QAEAAV0@ABV0@@Z 10018d40 f i KScriptList.obj
 0001:00017d70       ??0KScriptList@@QAE@XZ     10018d70 f i KScriptList.obj
 0001:00017da0       ??1KScriptList@@QAE@XZ     10018da0 f i KScriptList.obj
 0001:00017db0       ??0KScriptList@@QAE@ABV0@@Z 10018db0 f i KScriptList.obj
 0001:00017de0       ??4KScriptList@@QAEAAV0@ABV0@@Z 10018de0 f i KScriptList.obj
 0001:00017e10       ??0KScriptSet@@QAE@XZ      10018e10 f   KScriptSet.obj
 0001:00017e30       ??0KScriptSet@@QAE@H@Z     10018e30 f   KScriptSet.obj
 0001:00017e80       ?UpdateRecent@KScriptSet@@QAEXHPAUTScript@@@Z 10018e80 f   KScriptSet.obj
 0001:00017f10       ?CreateScript@KScriptSet@@UAEPAVKScript@@PADH@Z 10018f10 f   KScriptSet.obj
 0001:00017f20       ?CreateScript@KScriptSet@@UAEPAVKScript@@KH@Z 10018f20 f   KScriptSet.obj
 0001:00017f30       ?GetInitStackSize@KScriptSet@@UAEHPAD@Z 10018f30 f   KScriptSet.obj
 0001:00017f40       ?GetInitStackSize@KScriptSet@@UAEHK@Z 10018f40 f   KScriptSet.obj
 0001:00017f50       ?ListRecent@KScriptSet@@QAEKH@Z 10018f50 f   KScriptSet.obj
 0001:00017f90       ?Run@KScriptSet@@UAEHPAD@Z 10018f90 f   KScriptSet.obj
 0001:00017fa0       ?Run@KScriptSet@@UAEHK@Z   10018fa0 f   KScriptSet.obj
 0001:00017fb0       ?RunFunction@KScriptSet@@UAAHPAD00ZZ 10018fb0 f   KScriptSet.obj
 0001:00017fc0       ?RunFunction@KScriptSet@@UAAHKPAD0ZZ 10018fc0 f   KScriptSet.obj
 0001:00017fd0       ?BTSearch@@YAPAUTScript@@PAU1@0PADPAH@Z 10018fd0 f   KScriptSet.obj
 0001:00018050       ?BTSearch@@YAPAUTScript@@PAU1@0KPAH@Z 10019050 f   KScriptSet.obj
 0001:000180a0       ?BTInsert@@YAPAUTScript@@PAU1@PAD@Z 100190a0 f   KScriptSet.obj
 0001:00018130       ?BTInsert@@YAPAUTScript@@PAU1@K@Z 10019130 f   KScriptSet.obj
 0001:00018180       ?BTFindLess@@YAPAUTScript@@PAU1@@Z 10019180 f   KScriptSet.obj
 0001:000181a0       ?BTPreorder@@YAKPAUTScript@@@Z 100191a0 f   KScriptSet.obj
 0001:000181d0       ?GetScript@KScriptSet@@QAEPAVKScript@@PADHH@Z 100191d0 f   KScriptSet.obj
 0001:00018300       ?GetScript@KScriptSet@@QAEPAVKScript@@KHH@Z 10019300 f   KScriptSet.obj
 0001:00018420       ?SearchScript@KScriptSet@@QAEPAUTScript@@PADPAH@Z 10019420 f   KScriptSet.obj
 0001:00018450       ?SearchScript@KScriptSet@@QAEPAUTScript@@KPAH@Z 10019450 f   KScriptSet.obj
 0001:00018480       ?InsertScript@KScriptSet@@QAEPAUTScript@@PAD@Z 10019480 f   KScriptSet.obj
 0001:000184e0       ?InsertScript@KScriptSet@@QAEPAUTScript@@K@Z 100194e0 f   KScriptSet.obj
 0001:00018540       ?ListScriptsKey@KScriptSet@@QAEKXZ 10019540 f   KScriptSet.obj
 0001:00018550       ?BTDelete@@YAPAUTScript@@PAU1@PAPAU1@H@Z 10019550 f   KScriptSet.obj
 0001:000187c0       ?DeleteScript@KScriptSet@@QAEHPAUTScript@@@Z 100197c0 f   KScriptSet.obj
 0001:000187f0       ?DeleteScript@KScriptSet@@QAEHPAD@Z 100197f0 f   KScriptSet.obj
 0001:000188e0       ?DeleteScript@KScriptSet@@QAEHK@Z 100198e0 f   KScriptSet.obj
 0001:000189d0       ??1KScriptSet@@QAE@XZ      100199d0 f   KScriptSet.obj
 0001:00018a00       ?KSG_StringToMD5String@@YAHQADQBD@Z 10019a00 f   KSG_MD5_String.obj
 0001:00018b20       ?KSG_StringGetInt@@YAHPAPBDH@Z 10019b20 f   KSG_StringProcess.obj
 0001:00018c10       ?KSG_StringSkipSymbol@@YA_NPAPBDH@Z 10019c10 f   KSG_StringProcess.obj
 0001:00018c70       ??0TBinTreeNode@@AAE@XZ    10019c70 f i KSortBinTree.obj
 0001:00018c90       ??0TBinTreeNode@@QAE@ABV0@@Z 10019c90 f i KSortBinTree.obj
 0001:00018cc0       ??4TBinTreeNode@@QAEAAV0@ABV0@@Z 10019cc0 f i KSortBinTree.obj
 0001:00018ce0       ?GetRoot@KSortBinTree@@QAEPAVTBinTreeNode@@XZ 10019ce0 f i KSortBinTree.obj
 0001:00018cf0       ??4KSortBinTree@@QAEAAV0@ABV0@@Z 10019cf0 f i KSortBinTree.obj
 0001:00018d10       ??0KSortBinTree@@QAE@XZ    10019d10 f   KSortBinTree.obj
 0001:00018d20       ?Search@KSortBinTree@@AAEPAVTBinTreeNode@@PAV2@00PAH@Z 10019d20 f   KSortBinTree.obj
 0001:00018d90       ?AddNode@KSortBinTree@@AAEPAVTBinTreeNode@@PAV2@0@Z 10019d90 f   KSortBinTree.obj
 0001:00018df0       ?FindLess@KSortBinTree@@AAEPAVTBinTreeNode@@PAV2@@Z 10019df0 f   KSortBinTree.obj
 0001:00018e10       ?InOrder@KSortBinTree@@AAEKPAVTBinTreeNode@@@Z 10019e10 f   KSortBinTree.obj
 0001:00018e60       ?Insert@KSortBinTree@@QAEPAVTBinTreeNode@@PAV2@@Z 10019e60 f   KSortBinTree.obj
 0001:00018ec0       ?Search@KSortBinTree@@QAEPAVTBinTreeNode@@PAV2@PAH@Z 10019ec0 f   KSortBinTree.obj
 0001:00018ee0       ?GetCount@KSortBinTree@@QAEKXZ 10019ee0 f i KSortBinTree.obj
 0001:00018ef0       ?RemoveNode@KSortBinTree@@AAEPAVTBinTreeNode@@PAV2@PAPAV2@@Z 10019ef0 f   KSortBinTree.obj
 0001:000190c0       ?RemoveThisNode@KSortBinTree@@QAEHPAVTBinTreeNode@@@Z 1001a0c0 f   KSortBinTree.obj
 0001:00019100       ?RemoveKeyNode@KSortBinTree@@QAEHPAVTBinTreeNode@@@Z 1001a100 f   KSortBinTree.obj
 0001:00019150       ??4KSortList@@QAEAAV0@ABV0@@Z 1001a150 f i KSortList.obj
 0001:00019170       ??0KSortList@@QAE@XZ       1001a170 f   KSortList.obj
 0001:000191d0       ??1KSortList@@QAE@XZ       1001a1d0 f   KSortList.obj
 0001:00019230       ?Init@KSortList@@QAEHHH@Z  1001a230 f   KSortList.obj
 0001:00019280       ?Free@KSortList@@QAEXXZ    1001a280 f   KSortList.obj
 0001:000192a0       ?Insert@KSortList@@QAEHKPAX@Z 1001a2a0 f   KSortList.obj
 0001:00019360       ?Search@KSortList@@QAEHKPAX@Z 1001a360 f   KSortList.obj
 0001:000193d0       ??4KWavSound@@QAEAAV0@ABV0@@Z 1001a3d0 f i KSoundCache.obj
 0001:000193f0       ??0KSoundCache@@QAE@XZ     1001a3f0 f   KSoundCache.obj
 0001:00019410       ??1KSoundCache@@QAE@XZ     1001a410 f   KSoundCache.obj
 0001:00019470       ??_GKWavSound@@QAEPAXI@Z   1001a470 f i KSoundCache.obj
 0001:00019490       ?FreeNode@KSoundCache@@UAEXPAVKCacheNode@@@Z 1001a490 f   KSoundCache.obj
 0001:000194c0       ??0KSoundCache@@QAE@ABV0@@Z 1001a4c0 f i KSoundCache.obj
 0001:00019510       ??4KSoundCache@@QAEAAV0@ABV0@@Z 1001a510 f i KSoundCache.obj
 0001:00019540       ?LoadNode@KSoundCache@@UAEHPAVKCacheNode@@@Z 1001a540 f   KSoundCache.obj
 0001:00019610       ??0KSprite@@QAE@XZ         1001a610 f   KSprite.obj
 0001:00019690       ?Free@KSprite@@QAEXXZ      1001a690 f   KSprite.obj
 0001:000196c0       ?Make4444Palette@KSprite@@QAEXXZ 1001a6c0 f   KSprite.obj
 0001:00019730       ?MakePalette@KSprite@@QAEXXZ 1001a730 f   KSprite.obj
 0001:00019760       ?Draw@KSprite@@QAEXHHH@Z   1001a760 f   KSprite.obj
 0001:000197b0       ?DrawCenter@KSprite@@QAEXHHH@Z 1001a7b0 f   KSprite.obj
 0001:00019800       ?DrawMixColor@KSprite@@QAEXHHHHH@Z 1001a800 f   KSprite.obj
 0001:00019860       ?DrawWithColor@KSprite@@QAEXHHHHH@Z 1001a860 f   KSprite.obj
 0001:000198c0       ?DrawAlpha@KSprite@@QAEXHHHH@Z 1001a8c0 f   KSprite.obj
 0001:00019910       ?DrawAlphaCenter@KSprite@@QAEXHHHH@Z 1001a910 f   KSprite.obj
 0001:00019970       ?DrawTrans@KSprite@@QAEXHHH@Z 1001a970 f   KSprite.obj
 0001:00019980       ?DrawBorder@KSprite@@QAEXHHHH@Z 1001a980 f   KSprite.obj
 0001:000199c0       ?NextFrame@KSprite@@QAEHH@Z 1001a9c0 f   KSprite.obj
 0001:000199e0       ?GetPixelAlpha@KSprite@@QAEHHHH@Z 1001a9e0 f   KSprite.obj
 0001:00019a90       ?GetFrame@KSprite@@QAEPAXH@Z 1001aa90 f   KSprite.obj
 0001:00019ab0       ?Load@KSprite@@QAEHPAD@Z   1001aab0 f   KSprite.obj
 0001:00019c10       ?LoadFor3D@KSprite@@QAEHPAD@Z 1001ac10 f   KSprite.obj
 0001:00019d70       ??0KSpriteCache@@QAE@XZ    1001ad70 f   KSpriteCache.obj
 0001:00019d90       ??1KSpriteCache@@QAE@XZ    1001ad90 f   KSpriteCache.obj
 0001:00019df0       ?LoadNode@KSpriteCache@@UAEHPAVKCacheNode@@@Z 1001adf0 f   KSpriteCache.obj
 0001:00019e90       ??_GKSprite@@QAEPAXI@Z     1001ae90 f i KSpriteCache.obj
 0001:00019eb0       ??0KSpriteCache@@QAE@ABV0@@Z 1001aeb0 f i KSpriteCache.obj
 0001:00019f00       ??4KSpriteCache@@QAEAAV0@ABV0@@Z 1001af00 f i KSpriteCache.obj
 0001:00019f30       ?FreeNode@KSpriteCache@@UAEXPAVKCacheNode@@@Z 1001af30 f   KSpriteCache.obj
 0001:00019f60       ?GetSprite@KSpriteCodec@@QAEPAXXZ 1001af60 f i KSpriteCodec.obj
 0001:00019f70       ?GetLength@KSpriteCodec@@QAEJXZ 1001af70 f i KSpriteCodec.obj
 0001:00019f80       ??1KSpriteCodec@@QAE@XZ    1001af80 f i KSpriteCodec.obj
 0001:00019f90       ??4KSpriteCodec@@QAEAAV0@ABV0@@Z 1001af90 f i KSpriteCodec.obj
 0001:00019fb0       ??0KSpriteCodec@@QAE@XZ    1001afb0 f   KSpriteCodec.obj
 0001:00019fd0       ?GetAlphaCount@KSpriteCodec@@IAEEHHH@Z 1001afd0 f   KSpriteCodec.obj
 0001:0001a030       ?GetMiniRect@KSpriteCodec@@IAEXPAUtagRECT@@@Z 1001b030 f   KSpriteCodec.obj
 0001:0001a190       ?ConvertLine@KSpriteCodec@@IAEJHHHPAE@Z 1001b190 f   KSpriteCodec.obj
 0001:0001a220       ?ConvertRect@KSpriteCodec@@IAEXPAUtagRECT@@@Z 1001b220 f   KSpriteCodec.obj
 0001:0001a290       ?Convert@KSpriteCodec@@QAEHPAVKBitmap@@0@Z 1001b290 f   KSpriteCodec.obj
 0001:0001a310       ??0KSpriteMaker@@QAE@XZ    1001b310 f   KSpriteMaker.obj
 0001:0001a380       ?Load@KSpriteMaker@@QAEHPAD@Z 1001b380 f   KSpriteMaker.obj
 0001:0001a570       ?Free@KSpriteMaker@@QAEXXZ 1001b570 f   KSpriteMaker.obj
 0001:0001a5f0       ?Draw@KSpriteMaker@@QAEXHHH@Z 1001b5f0 f   KSpriteMaker.obj
 0001:0001a660       ?AddFrame@KSpriteMaker@@QAEHPAVKBitmap@@H@Z 1001b660 f   KSpriteMaker.obj
 0001:0001a7f0       ?AddAlphaFrame@KSpriteMaker@@QAEHPAVKBitmap@@0@Z 1001b7f0 f   KSpriteMaker.obj
 0001:0001a980       ?DelFrame@KSpriteMaker@@QAEHH@Z 1001b980 f   KSpriteMaker.obj
 0001:0001aa00       ?GetFrame@KSpriteMaker@@QAEPAVKSprNode@@H@Z 1001ba00 f   KSpriteMaker.obj
 0001:0001aa30       ?MakeOffset@KSpriteMaker@@QAEXXZ 1001ba30 f   KSpriteMaker.obj
 0001:0001aa90       ??0KSpriteMaker@@QAE@ABV0@@Z 1001ba90 f i KSpriteMaker.obj
 0001:0001ab50       ??4KSpriteMaker@@QAEAAV0@ABV0@@Z 1001bb50 f i KSpriteMaker.obj
 0001:0001ac30       ??1KSpriteMaker@@QAE@XZ    1001bc30 f   KSpriteMaker.obj
 0001:0001ac90       ?Save@KSpriteMaker@@QAEHPAD@Z 1001bc90 f   KSpriteMaker.obj
 0001:0001ae40       ??0KStepLuaScript@@QAE@XZ  1001be40 f   KStepLuaScript.obj
 0001:0001aec0       ??0KStepLuaScript@@QAE@H@Z 1001bec0 f   KStepLuaScript.obj
 0001:0001af40       ??1KStepLuaScript@@UAE@XZ  1001bf40 f   KStepLuaScript.obj
 0001:0001afb0       ?GetNextLine@KStepLuaScript@@QAEHPAEPAD@Z 1001bfb0 f   KStepLuaScript.obj
 0001:0001b030       ??0KLubCmpl_Blocker@@QAE@XZ 1001c030 f i KStepLuaScript.obj
 0001:0001b0c0       ??1KLubCmpl_Blocker@@QAE@XZ 1001c0c0 f i KStepLuaScript.obj
 0001:0001b0e0       ?ExeLine@KStepLuaScript@@QAEHPAD@Z 1001c0e0 f   KStepLuaScript.obj
 0001:0001b110       ?CheckLine@KStepLuaScript@@QAEHPAD@Z 1001c110 f   KStepLuaScript.obj
 0001:0001b120       ?GetExeBufferFromFile@KStepLuaScript@@QAEHPAD@Z 1001c120 f   KStepLuaScript.obj
 0001:0001b2f0       ?GetExeBuffer@KStepLuaScript@@QAEHPAXH@Z 1001c2f0 f   KStepLuaScript.obj
 0001:0001b420       ?Active@KStepLuaScript@@QAEHXZ 1001c420 f   KStepLuaScript.obj
 0001:0001b5d0       ?PosUp@KStepLuaScript@@QAEXXZ 1001c5d0 f   KStepLuaScript.obj
 0001:0001b600       ?GotoLabel@KStepLuaScript@@QAEXPAD@Z 1001c600 f   KStepLuaScript.obj
 0001:0001b690       ?AddMessage@KStepLuaScript@@QAEHPAUlua_State@@PAD1@Z 1001c690 f   KStepLuaScript.obj
 0001:0001b700       ?SendMessageA@KStepLuaScript@@QAEHPAV1@PAD1@Z 1001c700 f   KStepLuaScript.obj
 0001:0001b720       ?Load@KStepLuaScript@@UAEHPAD@Z 1001c720 f   KStepLuaScript.obj
 0001:0001b910       ?g_StrLen@@YAHPBD@Z        1001c910 f   KStrBase.obj
 0001:0001b930       ?g_StrEnd@@YAPADPBD@Z      1001c930 f   KStrBase.obj
 0001:0001b950       ?g_StrCpy@@YAXPADPBD@Z     1001c950 f   KStrBase.obj
 0001:0001b980       ?g_StrCpyLen@@YAXPADPBDH@Z 1001c980 f   KStrBase.obj
 0001:0001b9d0       ?g_StrCat@@YAXPADPBD@Z     1001c9d0 f   KStrBase.obj
 0001:0001b9f0       ?g_StrCatLen@@YAXPADPBDH@Z 1001c9f0 f   KStrBase.obj
 0001:0001ba10       ?g_StrCmp@@YAHPBD0@Z       1001ca10 f   KStrBase.obj
 0001:0001ba50       ?g_StrCmpLen@@YAHPBD0H@Z   1001ca50 f   KStrBase.obj
 0001:0001ba90       ?g_StrUpper@@YAXPAD@Z      1001ca90 f   KStrBase.obj
 0001:0001bab0       ?g_StrLower@@YAXPAD@Z      1001cab0 f   KStrBase.obj
 0001:0001bad0       ?g_StrRep@@YAXPAD00@Z      1001cad0 f   KStrBase.obj
 0001:0001bba0       ?Find@KStrList@@QAEPAVKStrNode@@PAD@Z 1001cba0 f   KStrList.obj
 0001:0001bbf0       ??0KStrNode@@QAE@XZ        1001cbf0 f   KStrNode.obj
 0001:0001bc50       ??0KITabFile@@QAE@XZ       1001cc50 f i KTabFile.obj
 0001:0001bc60       ??1KITabFile@@UAE@XZ       1001cc60 f i KTabFile.obj
 0001:0001bc70       ??0KITabFile@@QAE@ABV0@@Z  1001cc70 f i KTabFile.obj
 0001:0001bc80       ??4KITabFile@@QAEAAV0@ABV0@@Z 1001cc80 f i KTabFile.obj
 0001:0001bc90       ??_GKITabFile@@UAEPAXI@Z   1001cc90 f i KTabFile.obj
 0001:0001bcb0       ??_EKITabFile@@UAEPAXI@Z   1001ccb0 f i KTabFile.obj
 0001:0001bd10       ?Save@KTabFile@@UAEHPAD@Z  1001cd10 f i KTabFile.obj
 0001:0001bd20       ?GetWidth@KTabFile@@UAEHXZ 1001cd20 f i KTabFile.obj
 0001:0001bd30       ?GetHeight@KTabFile@@UAEHXZ 1001cd30 f i KTabFile.obj
 0001:0001bd40       ??0KTabFile@@QAE@ABV0@@Z   1001cd40 f i KTabFile.obj
 0001:0001bd80       ??4KTabFile@@QAEAAV0@ABV0@@Z 1001cd80 f i KTabFile.obj
 0001:0001bdb0       ??0KTabFile@@QAE@XZ        1001cdb0 f   KTabFile.obj
 0001:0001be20       ?CreateTabOffset@KTabFile@@AAEXXZ 1001ce20 f   KTabFile.obj
 0001:0001bf90       ?Str2Col@KTabFile@@AAEHPAD@Z 1001cf90 f   KTabFile.obj
 0001:0001bfe0       ?GetValue@KTabFile@@AAEHHHPADK@Z 1001cfe0 f   KTabFile.obj
 0001:0001c080       ?Clear@KTabFile@@UAEXXZ    1001d080 f   KTabFile.obj
 0001:0001c0a0       ?FindRow@KTabFile@@UAEHPAD@Z 1001d0a0 f   KTabFile.obj
 0001:0001c120       ?FindColumn@KTabFile@@UAEHPAD@Z 1001d120 f   KTabFile.obj
 0001:0001c1a0       ?Col2Str@KTabFile@@QAEXHPAD@Z 1001d1a0 f   KTabFile.obj
 0001:0001c1f0       ??1KTabFile@@UAE@XZ        1001d1f0 f   KTabFile.obj
 0001:0001c260       ?Load@KTabFile@@UAEHPAD@Z  1001d260 f   KTabFile.obj
 0001:0001c360       ?GetString@KTabFile@@UAEHHPAD00KH@Z 1001d360 f   KTabFile.obj
 0001:0001c3d0       ?GetString@KTabFile@@UAEHPAD000K@Z 1001d3d0 f   KTabFile.obj
 0001:0001c440       ?GetString@KTabFile@@UAEHHHPAD0K@Z 1001d440 f   KTabFile.obj
 0001:0001c490       ?GetInteger@KTabFile@@UAEHHPADHPAHH@Z 1001d490 f   KTabFile.obj
 0001:0001c530       ?GetInteger@KTabFile@@UAEHPAD0HPAH@Z 1001d530 f   KTabFile.obj
 0001:0001c5d0       ?GetInteger@KTabFile@@UAEHHHHPAH@Z 1001d5d0 f   KTabFile.obj
 0001:0001c640       ?GetFloat@KTabFile@@UAEHHPADMPAMH@Z 1001d640 f   KTabFile.obj
 0001:0001c6e0       ?GetFloat@KTabFile@@UAEHPAD0MPAM@Z 1001d6e0 f   KTabFile.obj
 0001:0001c780       ?GetFloat@KTabFile@@UAEHHHMPAM@Z 1001d780 f   KTabFile.obj
 0001:0001c800       ??_GKTabFile@@UAEPAXI@Z    1001d800 f i KTabFile.obj
 0001:0001c820       ??_EKTabFile@@UAEPAXI@Z    1001d820 f i KTabFile.obj
 0001:0001c880       ?GetWidth@KTabFileCtrl@@UAEHXZ 1001d880 f i KTabFileCtrl.obj
 0001:0001c8c0       ?GetHeight@KTabFileCtrl@@UAEHXZ 1001d8c0 f i KTabFileCtrl.obj
 0001:0001c8f0       ?GetString@KTabFileCtrl@@UAEHPAD000K@Z 1001d8f0 f i KTabFileCtrl.obj
 0001:0001c930       ?GetInteger@KTabFileCtrl@@UAEHPAD0HPAH@Z 1001d930 f i KTabFileCtrl.obj
 0001:0001c970       ?GetFloat@KTabFileCtrl@@UAEHPAD0MPAM@Z 1001d970 f i KTabFileCtrl.obj
 0001:0001c9b0       ??0KTabFileCtrl@@QAE@XZ    1001d9b0 f   KTabFileCtrl.obj
 0001:0001c9e0       ??0TTabLineNode@@QAE@XZ    1001d9e0 f i KTabFileCtrl.obj
 0001:0001ca00       ??1TTabLineNode@@UAE@XZ    1001da00 f i KTabFileCtrl.obj
 0001:0001cab0       ??_GTTabLineNode@@UAEPAXI@Z 1001dab0 f i KTabFileCtrl.obj
 0001:0001cab0       ??_ETTabLineNode@@UAEPAXI@Z 1001dab0 f i KTabFileCtrl.obj
 0001:0001cad0       ??0TTabColNode@@QAE@XZ     1001dad0 f i KTabFileCtrl.obj
 0001:0001caf0       ??1TTabColNode@@UAE@XZ     1001daf0 f i KTabFileCtrl.obj
 0001:0001cb50       ??_GTTabColNode@@UAEPAXI@Z 1001db50 f i KTabFileCtrl.obj
 0001:0001cb50       ??_ETTabColNode@@UAEPAXI@Z 1001db50 f i KTabFileCtrl.obj
 0001:0001cb70       ?LoadPack@KTabFileCtrl@@QAEHPAD@Z 1001db70 f   KTabFileCtrl.obj
 0001:0001cb80       ?Save@KTabFileCtrl@@UAEHPAD@Z 1001db80 f   KTabFileCtrl.obj
 0001:0001cd20       ?GetRowName@KTabFileCtrl@@QAEPADH@Z 1001dd20 f   KTabFileCtrl.obj
 0001:0001cd80       ?GetColName@KTabFileCtrl@@QAEPADH@Z 1001dd80 f   KTabFileCtrl.obj
 0001:0001cde0       ?FindRow@KTabFileCtrl@@UAEHPAD@Z 1001dde0 f   KTabFileCtrl.obj
 0001:0001ce60       ?FindColumn@KTabFileCtrl@@UAEHPAD@Z 1001de60 f   KTabFileCtrl.obj
 0001:0001ced0       ?GetValue@KTabFileCtrl@@AAEHHHAAPADK@Z 1001ded0 f   KTabFileCtrl.obj
 0001:0001cf70       ?SetValue@KTabFileCtrl@@AAEHHHPADKH@Z 1001df70 f   KTabFileCtrl.obj
 0001:0001d1c0       ?GetString@KTabFileCtrl@@UAEHHHPAD0K@Z 1001e1c0 f   KTabFileCtrl.obj
 0001:0001d230       ?GetInteger@KTabFileCtrl@@UAEHHHHPAH@Z 1001e230 f   KTabFileCtrl.obj
 0001:0001d290       ?GetFloat@KTabFileCtrl@@UAEHHHMPAM@Z 1001e290 f   KTabFileCtrl.obj
 0001:0001d2f0       ??_GKList@@QAEPAXI@Z       1001e2f0 f i KTabFileCtrl.obj
 0001:0001d320       ?WriteString@KTabFileCtrl@@QAEHHHPADK@Z 1001e320 f   KTabFileCtrl.obj
 0001:0001d360       ?WriteInteger@KTabFileCtrl@@QAEHHHH@Z 1001e360 f   KTabFileCtrl.obj
 0001:0001d3e0       ?WriteFloat@KTabFileCtrl@@QAEHHHM@Z 1001e3e0 f   KTabFileCtrl.obj
 0001:0001d470       ?Str2Col@KTabFileCtrl@@AAEHPAD@Z 1001e470 f   KTabFileCtrl.obj
 0001:0001d4c0       ?Remove@KTabFileCtrl@@QAEHH@Z 1001e4c0 f   KTabFileCtrl.obj
 0001:0001d540       ?InsertAfter@KTabFileCtrl@@QAEHH@Z 1001e540 f   KTabFileCtrl.obj
 0001:0001d600       ?InsertBefore@KTabFileCtrl@@QAEHH@Z 1001e600 f   KTabFileCtrl.obj
 0001:0001d6c0       ?InsertNewCol@KTabFileCtrl@@QAEHPAD@Z 1001e6c0 f   KTabFileCtrl.obj
 0001:0001d710       ?GetValue@KTabFileCtrl@@AAEHPAD00K@Z 1001e710 f i KTabFileCtrl.obj
 0001:0001d750       ?InsertAfter@KTabFileCtrl@@QAEHPADH@Z 1001e750 f i KTabFileCtrl.obj
 0001:0001d790       ?InsertBefore@KTabFileCtrl@@QAEHPADH@Z 1001e790 f i KTabFileCtrl.obj
 0001:0001d7d0       ?GetString@KTabFileCtrl@@UAEHHPAD00KH@Z 1001e7d0 f i KTabFileCtrl.obj
 0001:0001d830       ?GetInteger@KTabFileCtrl@@UAEHHPADHPAHH@Z 1001e830 f i KTabFileCtrl.obj
 0001:0001d880       ?GetFloat@KTabFileCtrl@@UAEHHPADMPAMH@Z 1001e880 f i KTabFileCtrl.obj
 0001:0001d8e0       ?WriteString@KTabFileCtrl@@QAEHHPAD0H@Z 1001e8e0 f i KTabFileCtrl.obj
 0001:0001d930       ?WriteString@KTabFileCtrl@@QAEHPAD00@Z 1001e930 f i KTabFileCtrl.obj
 0001:0001d970       ?WriteInteger@KTabFileCtrl@@QAEHHPADHH@Z 1001e970 f i KTabFileCtrl.obj
 0001:0001d9c0       ?WriteInteger@KTabFileCtrl@@QAEHPAD0H@Z 1001e9c0 f i KTabFileCtrl.obj
 0001:0001d9f0       ?WriteFloat@KTabFileCtrl@@QAEHHPADMH@Z 1001e9f0 f i KTabFileCtrl.obj
 0001:0001da40       ?WriteFloat@KTabFileCtrl@@QAEHPAD0M@Z 1001ea40 f i KTabFileCtrl.obj
 0001:0001da80       ?Remove@KTabFileCtrl@@QAEHPADH@Z 1001ea80 f i KTabFileCtrl.obj
 0001:0001dac0       ?Load@KTabFileCtrl@@UAEHPAD@Z 1001eac0 f   KTabFileCtrl.obj
 0001:0001de10       ?Clear@KTabFileCtrl@@UAEXXZ 1001ee10 f   KTabFileCtrl.obj
 0001:0001ded0       ??0KTabFileCtrl@@QAE@ABV0@@Z 1001eed0 f i KTabFileCtrl.obj
 0001:0001df10       ??4KTabFileCtrl@@QAEAAV0@ABV0@@Z 1001ef10 f i KTabFileCtrl.obj
 0001:0001df40       ??1KTabFileCtrl@@UAE@XZ    1001ef40 f   KTabFileCtrl.obj
 0001:0001dfa0       ??_GKTabFileCtrl@@UAEPAXI@Z 1001efa0 f i KTabFileCtrl.obj
 0001:0001dfc0       ??_EKTabFileCtrl@@UAEPAXI@Z 1001efc0 f i KTabFileCtrl.obj
 0001:0001e020       ?GetWidth@KTgaFile32@@QAEJXZ 1001f020 f i KTgaFile32.obj
 0001:0001e030       ?GetHeight@KTgaFile32@@QAEJXZ 1001f030 f i KTgaFile32.obj
 0001:0001e040       ??0KTgaFile32@@QAE@XZ      1001f040 f i KTgaFile32.obj
 0001:0001e050       ??1KTgaFile32@@QAE@XZ      1001f050 f i KTgaFile32.obj
 0001:0001e060       ??4KTgaFile32@@QAEAAV0@ABV0@@Z 1001f060 f i KTgaFile32.obj
 0001:0001e080       ?Load2Buffer@KTgaFile32@@QAEHPAD@Z 1001f080 f   KTgaFile32.obj
 0001:0001e470       ??0KThread@@QAE@XZ         1001f470 f   KThread.obj
 0001:0001e480       ??1KThread@@QAE@XZ         1001f480 f   KThread.obj
 0001:0001e4a0       ?ThreadFunction@KThread@@QAEKXZ 1001f4a0 f   KThread.obj
 0001:0001e4b0       ?Destroy@KThread@@QAEXXZ   1001f4b0 f   KThread.obj
 0001:0001e4c0       ?Suspend@KThread@@QAEXXZ   1001f4c0 f   KThread.obj
 0001:0001e4d0       ?Resume@KThread@@QAEXXZ    1001f4d0 f   KThread.obj
 0001:0001e4e0       ?IsRunning@KThread@@QAEHXZ 1001f4e0 f   KThread.obj
 0001:0001e500       ?WaitForExit@KThread@@QAEXXZ 1001f500 f   KThread.obj
 0001:0001e510       ?GetPriority@KThread@@QAEHXZ 1001f510 f   KThread.obj
 0001:0001e520       ?SetPriority@KThread@@QAEHH@Z 1001f520 f   KThread.obj
 0001:0001e540       ?MyThreadProc@@YGIPAX@Z    1001f540 f   KThread.obj
 0001:0001e560       ?Create@KThread@@QAEHP6AXPAX@Z0@Z 1001f560 f   KThread.obj
 0001:0001e5a0       ??0KTimer@@QAE@XZ          1001f5a0 f   KTimer.obj
 0001:0001e5d0       ?Start@KTimer@@QAEXXZ      1001f5d0 f   KTimer.obj
 0001:0001e5e0       ?Stop@KTimer@@QAEXXZ       1001f5e0 f   KTimer.obj
 0001:0001e5f0       ?GetElapse@KTimer@@QAEKXZ  1001f5f0 f   KTimer.obj
 0001:0001e630       ?GetElapseFrequency@KTimer@@QAEKXZ 1001f630 f   KTimer.obj
 0001:0001e650       ?GetInterval@KTimer@@QAEKXZ 1001f650 f   KTimer.obj
 0001:0001e680       ?Passed@KTimer@@QAEHH@Z    1001f680 f   KTimer.obj
 0001:0001e6b0       ?GetFPS@KTimer@@QAEHPAH@Z  1001f6b0 f   KTimer.obj
 0001:0001e6f0       ??0KVideo@@QAE@XZ          1001f6f0 f   KVideo.obj
 0001:0001e7a0       ??1KVideo@@QAE@XZ          1001f7a0 f   KVideo.obj
 0001:0001e810       ?ThreadFunction@KVideo@@KAXPAX@Z 1001f810 f   KVideo.obj
 0001:0001e830       ?Open@KVideo@@UAEHPAD@Z    1001f830 f   KVideo.obj
 0001:0001e840       ?Init@KVideo@@MAEHXZ       1001f840 f   KVideo.obj
 0001:0001e870       ?Close@KVideo@@UAEXXZ      1001f870 f   KVideo.obj
 0001:0001e8a0       ?InitEventHandle@KVideo@@MAEHXZ 1001f8a0 f   KVideo.obj
 0001:0001e8f0       ?FreeEventHandle@KVideo@@MAEXXZ 1001f8f0 f   KVideo.obj
 0001:0001e920       ?HandleNotify@KVideo@@UAEHXZ 1001f920 f   KVideo.obj
 0001:0001e950       ?NextFrame@KVideo@@MAEHXZ  1001f950 f   KVideo.obj
 0001:0001e960       ?Play@KVideo@@UAEXHHH@Z    1001f960 f   KVideo.obj
 0001:0001e9b0       ?Stop@KVideo@@UAEXXZ       1001f9b0 f   KVideo.obj
 0001:0001e9e0       ?IsPlaying@KVideo@@UAEHXZ  1001f9e0 f   KVideo.obj
 0001:0001e9f0       ?Seek@KVideo@@UAEXH@Z      1001f9f0 f   KVideo.obj
 0001:0001ea00       ?Rewind@KVideo@@UAEXXZ     1001fa00 f   KVideo.obj
 0001:0001ebb0       ?g_ImaAdpcmDecode@@YAKPAXH0H@Z 1001fbb0 f   KWavCodec.obj
 0001:0001ec00       ?GetWaveSize@KWavFile@@QAEKXZ 1001fc00 f i KWavFile.obj
 0001:0001ec10       ?GetFormatTag@KWavFile@@QAEGXZ 1001fc10 f i KWavFile.obj
 0001:0001ec20       ?GetBlockAlign@KWavFile@@QAEGXZ 1001fc20 f i KWavFile.obj
 0001:0001ec30       ??4KWavFile@@QAEAAV0@ABV0@@Z 1001fc30 f i KWavFile.obj
 0001:0001ec50       ??0KWavFile@@QAE@XZ        1001fc50 f   KWavFile.obj
 0001:0001ec70       ?Read@KWavFile@@QAEKPAXK@Z 1001fc70 f   KWavFile.obj
 0001:0001ece0       ?Rewind@KWavFile@@QAEXXZ   1001fce0 f   KWavFile.obj
 0001:0001ecf0       ?Close@KWavFile@@QAEXXZ    1001fcf0 f   KWavFile.obj
 0001:0001ed20       ?GetSilenceByte@KWavFile@@QAEEXZ 1001fd20 f   KWavFile.obj
 0001:0001ed40       ?GetPcmWavFormat@KWavFile@@QAEXPAUtWAVEFORMATEX@@@Z 1001fd40 f   KWavFile.obj
 0001:0001ede0       ??1KWavFile@@QAE@XZ        1001fde0 f   KWavFile.obj
 0001:0001ee40       ?Open@KWavFile@@QAEHPAD@Z  1001fe40 f   KWavFile.obj
 0001:0001ef50       ??0KWavMusic@@QAE@XZ       1001ff50 f i KWavMusic.obj
 0001:0001efb0       ??1KWavMusic@@UAE@XZ       1001ffb0 f i KWavMusic.obj
 0001:0001f010       ??0KWavMusic@@QAE@ABV0@@Z  10020010 f i KWavMusic.obj
 0001:0001f040       ??4KWavMusic@@QAEAAV0@ABV0@@Z 10020040 f i KWavMusic.obj
 0001:0001f070       ??_GKWavMusic@@UAEPAXI@Z   10020070 f i KWavMusic.obj
 0001:0001f090       ??_EKWavMusic@@UAEPAXI@Z   10020090 f i KWavMusic.obj
 0001:0001f0f0       ?Open@KWavMusic@@UAEHPAD@Z 100200f0 f   KWavMusic.obj
 0001:0001f130       ?InitSoundFormat@KWavMusic@@MAEXXZ 10020130 f   KWavMusic.obj
 0001:0001f180       ?ReadWaveData@KWavMusic@@MAEKPAEK@Z 10020180 f   KWavMusic.obj
 0001:0001f190       ?Rewind@KWavMusic@@UAEXXZ  10020190 f   KWavMusic.obj
 0001:0001f1a0       ??0KWavSound@@QAE@XZ       100201a0 f   KWavSound.obj
 0001:0001f1c0       ?Load@KWavSound@@QAEHPAD@Z 100201c0 f   KWavSound.obj
 0001:0001f380       ?Free@KWavSound@@QAEXXZ    10020380 f   KWavSound.obj
 0001:0001f3c0       ?GetFreeBuffer@KWavSound@@AAEHXZ 100203c0 f   KWavSound.obj
 0001:0001f410       ?GetPlayBuffer@KWavSound@@AAEHXZ 10020410 f   KWavSound.obj
 0001:0001f460       ?Play@KWavSound@@QAEXHHH@Z 10020460 f   KWavSound.obj
 0001:0001f4c0       ?Stop@KWavSound@@QAEXXZ    100204c0 f   KWavSound.obj
 0001:0001f4e0       ?SetPan@KWavSound@@QAEXH@Z 100204e0 f   KWavSound.obj
 0001:0001f510       ?SetVolume@KWavSound@@QAEXH@Z 10020510 f   KWavSound.obj
 0001:0001f540       ?IsPlaying@KWavSound@@QAEHXZ 10020540 f   KWavSound.obj
 0001:0001f550       ??1KWavSound@@QAE@XZ       10020550 f   KWavSound.obj
 0001:0001f570       ??0KWin32App@@QAE@XZ       10020570 f   KWin32App.obj
 0001:0001f5a0       ?Init@KWin32App@@UAEHPAUHINSTANCE__@@PAD@Z 100205a0 f   KWin32App.obj
 0001:0001f660       ?InitClass@KWin32App@@MAEHPAUHINSTANCE__@@@Z 10020660 f   KWin32App.obj
 0001:0001f6e0       ?InitWindow@KWin32App@@MAEHPAUHINSTANCE__@@@Z 100206e0 f   KWin32App.obj
 0001:0001f750       ?GameInit@KWin32App@@MAEHXZ 10020750 f   KWin32App.obj
 0001:0001f760       ?GameLoop@KWin32App@@MAEHXZ 10020760 f   KWin32App.obj
 0001:0001f770       ?GameExit@KWin32App@@MAEHXZ 10020770 f   KWin32App.obj
 0001:0001f780       ?MsgProc@KWin32App@@UAEJPAUHWND__@@IIJ@Z 10020780 f   KWin32App.obj
 0001:0001f940       ?ShowMouse@KWin32App@@UAEXH@Z 10020940 f   KWin32App.obj
 0001:0001f950       ?SetMultiGame@KWin32App@@UAEXH@Z 10020950 f   KWin32App.obj
 0001:0001f960       ?SetMouseHoverTime@KWin32App@@QAEXI@Z 10020960 f   KWin32App.obj
 0001:0001f970       ?GenerateMsgHoverMsg@KWin32App@@AAEXXZ 10020970 f   KWin32App.obj
 0001:0001fa10       ?Run@KWin32App@@UAEXXZ     10020a10 f   KWin32App.obj
 0001:0001fab0       ?g_GetMainHWnd@@YAPAUHWND__@@XZ 10020ab0 f   KWin32Wnd.obj
 0001:0001fac0       ?g_SetMainHWnd@@YAXPAUHWND__@@@Z 10020ac0 f   KWin32Wnd.obj
 0001:0001fad0       ?g_GetDrawHWnd@@YAPAUHWND__@@XZ 10020ad0 f   KWin32Wnd.obj
 0001:0001fae0       ?g_SetDrawHWnd@@YAXPAUHWND__@@@Z 10020ae0 f   KWin32Wnd.obj
 0001:0001faf0       ?g_GetClientRect@@YAXPAUtagRECT@@@Z 10020af0 f   KWin32Wnd.obj
 0001:0001fb40       ?g_ClientToScreen@@YAXPAUtagRECT@@@Z 10020b40 f   KWin32Wnd.obj
 0001:0001fb80       ?g_ScreenToClient@@YAXPAUtagRECT@@@Z 10020b80 f   KWin32Wnd.obj
 0001:0001fbc0       ?g_ScreenToClient@@YAXPAUtagPOINT@@@Z 10020bc0 f   KWin32Wnd.obj
 0001:0001fbe0       ??4KZipCodec@@QAEAAV0@ABV0@@Z 10020be0 f i KZipCodec.obj
 0001:0001fc00       ??0KZipCodec@@QAE@XZ       10020c00 f   KZipCodec.obj
 0001:0001fc40       ?extract_init@KZipCodec@@AAEXXZ 10020c40 f   KZipCodec.obj
 0001:0001fc70       ?extract_exit@KZipCodec@@AAEXXZ 10020c70 f   KZipCodec.obj
 0001:0001fc90       ?extract_flush@KZipCodec@@AAEXXZ 10020c90 f   KZipCodec.obj
 0001:0001fcc0       ?store_char@KZipCodec@@AAEXD@Z 10020cc0 f   KZipCodec.obj
 0001:0001fd00       ?lookat_code@KZipCodec@@AAEIH@Z 10020d00 f   KZipCodec.obj
 0001:0001fda0       ?get_code@KZipCodec@@AAEIH@Z 10020da0 f   KZipCodec.obj
 0001:0001fdc0       ?extract_copy@KZipCodec@@AAEXI@Z 10020dc0 f   KZipCodec.obj
 0001:0001fe40       ?extract_stored@KZipCodec@@AAEXXZ 10020e40 f   KZipCodec.obj
 0001:0001fe50       ?inf_build_tree@KZipCodec@@AAEHPAIII00PAPAUhuffman_tree@@0@Z 10020e50 f   KZipCodec.obj
 0001:00020280       ?inf_free@KZipCodec@@AAEXPAUhuffman_tree@@@Z 10021280 f   KZipCodec.obj
 0001:000202b0       ?inf_codes@KZipCodec@@AAEHPAUhuffman_tree@@0HH@Z 100212b0 f   KZipCodec.obj
 0001:00020410       ?inf_fixed@KZipCodec@@AAEHXZ 10021410 f   KZipCodec.obj
 0001:00020670       ?inf_dynamic@KZipCodec@@AAEHXZ 10021670 f   KZipCodec.obj
 0001:000208b0       ?extract_inflate@KZipCodec@@AAEXXZ 100218b0 f   KZipCodec.obj
 0001:00020960       ?extract_file@KZipCodec@@AAEXXZ 10021960 f   KZipCodec.obj
 0001:000209e0       ?Decode@KZipCodec@@QAEHPAX0PAUlf@@@Z 100219e0 f   KZipCodec.obj
 0001:00020a30       ??0KZipData@@QAE@XZ        10021a30 f i KZipData.obj
 0001:00020a80       ??1KZipData@@QAE@XZ        10021a80 f i KZipData.obj
 0001:00020ae0       ??4KZipData@@QAEAAV0@ABV0@@Z 10021ae0 f i KZipData.obj
 0001:00020b00       ?Close@KZipData@@QAEXXZ    10021b00 f   KZipData.obj
 0001:00020b20       ?Read@KZipData@@QAEKPAXK@Z 10021b20 f   KZipData.obj
 0001:00020b30       ?Seek@KZipData@@QAEKJK@Z   10021b30 f   KZipData.obj
 0001:00020b40       ?Tell@KZipData@@QAEKXZ     10021b40 f   KZipData.obj
 0001:00020b50       ?Search@KZipData@@QAEHPADPAK1@Z 10021b50 f   KZipData.obj
 0001:00020be0       ?Open@KZipData@@QAEHPAD@Z  10021be0 f   KZipData.obj
 0001:00020d50       ?SetActive@KZipList@@QAEXH@Z 10021d50 f i KZipFile.obj
 0001:00020d60       ?GetActive@KZipList@@QAEHXZ 10021d60 f i KZipFile.obj
 0001:00020d70       ?Lock@KZipList@@QAEXXZ     10021d70 f i KZipFile.obj
 0001:00020d80       ?Unlock@KZipList@@QAEXXZ   10021d80 f i KZipFile.obj
 0001:00020d90       ??4KZipList@@QAEAAV0@ABV0@@Z 10021d90 f i KZipFile.obj
 0001:00020db0       ??4KZipFile@@QAEAAV0@ABV0@@Z 10021db0 f i KZipFile.obj
 0001:00020dd0       ?g_SetZipFileMode@@YAXH@Z  10021dd0 f   KZipFile.obj
 0001:00020de0       ??0KZipFile@@QAE@XZ        10021de0 f   KZipFile.obj
 0001:00020e40       ?Tell@KZipFile@@QAEKXZ     10021e40 f   KZipFile.obj
 0001:00020e50       ?Size@KZipFile@@QAEKXZ     10021e50 f   KZipFile.obj
 0001:00020e60       ?Close@KZipFile@@QAEXXZ    10021e60 f   KZipFile.obj
 0001:00020e80       ?OpenZip@KZipFile@@AAEHPAD@Z 10021e80 f   KZipFile.obj
 0001:00020fd0       ?ReadZip@KZipFile@@AAEKPAXK@Z 10021fd0 f   KZipFile.obj
 0001:00021020       ?SeekZip@KZipFile@@AAEKJK@Z 10022020 f   KZipFile.obj
 0001:00021070       ?Save@KZipFile@@QAEHPAD@Z  10022070 f   KZipFile.obj
 0001:000210b0       ??1KZipFile@@QAE@XZ        100220b0 f   KZipFile.obj
 0001:00021120       ?Open@KZipFile@@QAEHPAD@Z  10022120 f   KZipFile.obj
 0001:00021190       ?Read@KZipFile@@QAEKPAXK@Z 10022190 f   KZipFile.obj
 0001:000211f0       ?Seek@KZipFile@@QAEKJK@Z   100221f0 f   KZipFile.obj
 0001:00021250       ??0KZipList@@QAE@XZ        10022250 f   KZipList.obj
 0001:000212e0       ??1KZipList@@QAE@XZ        100222e0 f   KZipList.obj
 0001:00021350       ?Close@KZipList@@QAEXXZ    10022350 f   KZipList.obj
 0001:00021390       ?Read@KZipList@@QAEKPAXK@Z 10022390 f   KZipList.obj
 0001:000213b0       ?Seek@KZipList@@QAEKJK@Z   100223b0 f   KZipList.obj
 0001:000213d0       ?Tell@KZipList@@QAEKXZ     100223d0 f   KZipList.obj
 0001:000213f0       ?Search@KZipList@@QAEHPADPAK1@Z 100223f0 f   KZipList.obj
 0001:00021460       ?Decode@KZipList@@QAEHPAE0PAUlf@@@Z 10022460 f   KZipList.obj
 0001:00021470       ?Open@KZipList@@QAEHPAD@Z  10022470 f   KZipList.obj
 0001:00021d80       ?md5_init@@YAXPAUmd5_state_s@@@Z 10022d80 f   md5.obj
 0001:00021db0       ?md5_append@@YAXPAUmd5_state_s@@PBEH@Z 10022db0 f   md5.obj
 0001:00021e80       ?md5_finish@@YAXPAUmd5_state_s@@QAE@Z 10022e80 f   md5.obj
 0001:00021f40       ??0XPackFile@@QAE@XZ       10022f40 f   XPackFile.obj
 0001:00021f70       ?FreeElemCache@XPackFile@@CAXH@Z 10022f70 f   XPackFile.obj
 0001:00021fc0       ?DirectRead@XPackFile@@ABE_NPAXII@Z 10022fc0 f   XPackFile.obj
 0001:00022020       ?ExtractRead@XPackFile@@ABE_NPAXIJII@Z 10023020 f   XPackFile.obj
 0001:000220c0       ?FindElemFile@XPackFile@@ABEHK@Z 100230c0 f   XPackFile.obj
 0001:00022110       ?ReadElemFile@XPackFile@@ABEPAXH@Z 10023110 f   XPackFile.obj
 0001:00022180       ?FindElemFileInCache@XPackFile@@AAEHIH@Z 10023180 f   XPackFile.obj
 0001:000221f0       ?AddElemFileToCache@XPackFile@@AAEHPAXH@Z 100231f0 f   XPackFile.obj
 0001:00022330       ?ElemFileRead@XPackFile@@QAEHAAUXPackElemFileRef@@PAXI@Z 10023330 f   XPackFile.obj
 0001:00022450       ?GetSprHeader@XPackFile@@QAEPAUSPRHEAD@@AAUXPackElemFileRef@@AAPAUSPROFFS@@@Z 10023450 f   XPackFile.obj
 0001:00022600       ?GetSprFrame@XPackFile@@QAEPAUSPRFRAME@@PAUSPRHEAD@@H@Z 10023600 f   XPackFile.obj
 0001:00022710       ?Close@XPackFile@@QAEXXZ   10023710 f   XPackFile.obj
 0001:000227e0       ?FindElemFile@XPackFile@@QAE_NKAAUXPackElemFileRef@@@Z 100237e0 f   XPackFile.obj
 0001:00022890       ??1XPackFile@@QAE@XZ       10023890 f   XPackFile.obj
 0001:000228b0       ?Open@XPackFile@@QAE_NPBDH@Z 100238b0 f   XPackFile.obj
 0001:00022a10       _EDOneTimePad_Encipher     10023a10 f   EDOneTimePad.obj
 0001:00022b10       _EDOneTimePad_Decipher     10023b10 f   EDOneTimePad.obj
 0001:00022c50       _AdviseEngine              10023c50 f   Text.obj
 0001:00022c60       _UnAdviseEngine            10023c60 f   Text.obj
 0001:00022c80       _TIsCharacterNotAlowAtLineHead 10023c80 f   Text.obj
 0001:00022d00       _TGetSecondVisibleCharacterThisLine 10023d00 f   Text.obj
 0001:00022d50       _TSplitString              10023d50 f   Text.obj
 0001:00022dd0       _TSplitEncodedString       10023dd0 f   Text.obj
 0001:00022f00       _TFilterEncodedText        10023f00 f   Text.obj
 0001:00023200       _TRemoveCtrlInEncodedText  10024200 f   Text.obj
 0001:00023260       _TGetEncodedTextLineCount  10024260 f   Text.obj
 0001:000235c0       ?TGetEncodeStringLineHeadPos@@YAHPBDHHHHH@Z 100245c0 f   Text.obj
 0001:00023850       _TGetLimitLenEncodedString 10024850 f   Text.obj
 0001:00023a30       _TGetLimitLenString        10024a30 f   Text.obj
 0001:00023ae0       _TFindSpecialCtrlInEncodedText 10024ae0 f   Text.obj
 0001:00023b40       _TClearSpecialCtrlInEncodedText 10024b40 f   Text.obj
 0001:00023c00       _TGetEncodedTextOutputLenPos 10024c00 f   Text.obj
 0001:00023cf0       _TGetEncodedTextEffectCtrls 10024cf0 f   Text.obj
 0001:00023f80       _TEncodeText               10024f80 f   Text.obj
 0001:000240c0       _ucl_alloc                 100250c0 f   alloc.obj
 0001:000240d0       _ucl_malloc                100250d0 f   alloc.obj
 0001:000240f0       _ucl_free                  100250f0 f   alloc.obj
 0001:00024100       _ucl_fread                 10025100 f   io.obj
 0001:00024120       _ucl_fwrite                10025120 f   io.obj
 0001:00024be0       _ucl_nrv2b_99_compress     10025be0 f   n2b_99.obj
 0001:000250f0       _ucl_nrv2b_decompress_8    100260f0 f   n2b_d.obj
 0001:000252b0       _ucl_nrv2b_decompress_le16 100262b0 f   n2b_d.obj
 0001:000254a0       _ucl_nrv2b_decompress_le32 100264a0 f   n2b_d.obj
 0001:00025690       _ucl_nrv2b_decompress_safe_8 10026690 f   n2b_ds.obj
 0001:00025910       _ucl_nrv2b_decompress_safe_le16 10026910 f   n2b_ds.obj
 0001:00025bf0       _ucl_nrv2b_decompress_safe_le32 10026bf0 f   n2b_ds.obj
 0001:00025f00       _ucl_nrv2b_test_overlap_8  10026f00 f   n2b_to.obj
 0001:00026190       _ucl_nrv2b_test_overlap_le16 10027190 f   n2b_to.obj
 0001:00026470       _ucl_nrv2b_test_overlap_le32 10027470 f   n2b_to.obj
 0001:000272e0       _ucl_nrv2d_99_compress     100282e0 f   n2d_99.obj
 0001:000277f0       _ucl_nrv2d_decompress_8    100287f0 f   n2d_d.obj
 0001:000279f0       _ucl_nrv2d_decompress_le16 100289f0 f   n2d_d.obj
 0001:00027c20       _ucl_nrv2d_decompress_le32 10028c20 f   n2d_d.obj
 0001:00027e40       _ucl_nrv2d_decompress_safe_8 10028e40 f   n2d_ds.obj
 0001:00028150       _ucl_nrv2d_decompress_safe_le16 10029150 f   n2d_ds.obj
 0001:00028470       _ucl_nrv2d_decompress_safe_le32 10029470 f   n2d_ds.obj
 0001:000287c0       _ucl_nrv2d_test_overlap_8  100297c0 f   n2d_to.obj
 0001:00028aa0       _ucl_nrv2d_test_overlap_le16 10029aa0 f   n2d_to.obj
 0001:00028dc0       _ucl_nrv2d_test_overlap_le32 10029dc0 f   n2d_to.obj
 0001:00029c90       _ucl_nrv2e_99_compress     1002ac90 f   n2e_99.obj
 0001:0002a1a0       _ucl_nrv2e_decompress_8    1002b1a0 f   n2e_d.obj
 0001:0002a3f0       _ucl_nrv2e_decompress_le16 1002b3f0 f   n2e_d.obj
 0001:0002a680       _ucl_nrv2e_decompress_le32 1002b680 f   n2e_d.obj
 0001:0002a900       _ucl_nrv2e_decompress_safe_8 1002b900 f   n2e_ds.obj
 0001:0002ac10       _ucl_nrv2e_decompress_safe_le16 1002bc10 f   n2e_ds.obj
 0001:0002af80       _ucl_nrv2e_decompress_safe_le32 1002bf80 f   n2e_ds.obj
 0001:0002b330       _ucl_nrv2e_test_overlap_8  1002c330 f   n2e_to.obj
 0001:0002b660       _ucl_nrv2e_test_overlap_le16 1002c660 f   n2e_to.obj
 0001:0002b9e0       _ucl_nrv2e_test_overlap_le32 1002c9e0 f   n2e_to.obj
 0001:0002bdb0       _ucl_crc32                 1002cdb0 f   ucl_crc.obj
 0001:0002c140       __ucl_config_check         1002d140 f   ucl_init.obj
 0001:0002c320       ___ucl_init2               1002d320 f   ucl_init.obj
 0001:0002c3c0       ___ucl_ptr_linear          1002d3c0 f   ucl_ptr.obj
 0001:0002c3d0       ___ucl_align_gap           1002d3d0 f   ucl_ptr.obj
 0001:0002c400       _ucl_memcmp                1002d400 f   ucl_str.obj
 0001:0002c490       _ucl_memcpy                1002d490 f   ucl_str.obj
 0001:0002c4a0       _ucl_memmove               1002d4a0 f   ucl_str.obj
 0001:0002c4b0       _ucl_memset                1002d4b0 f   ucl_str.obj
 0001:0002c4c0       _ucl_assert                1002d4c0 f   ucl_util.obj
 0001:0002c4d0       _ucl_copyright             1002d4d0 f   ucl_util.obj
 0001:0002c4e0       _ucl_version               1002d4e0 f   ucl_util.obj
 0001:0002c4f0       _ucl_version_string        1002d4f0 f   ucl_util.obj
 0001:0002c500       _ucl_version_date          1002d500 f   ucl_util.obj
 0001:0002c510       __ucl_version_string       1002d510 f   ucl_util.obj
 0001:0002c520       __ucl_version_date         1002d520 f   ucl_util.obj
 0001:0002c530       _ucl_adler32               1002d530 f   ucl_util.obj
 0001:0002c65a       _DirectDrawCreate@12       1002d65a f   ddraw:DDRAW.dll
 0001:0002c660       _DirectSoundCreate@12      1002d660 f   dsound:DSOUND.dll
 0001:0002c666       _timeSetEvent@20           1002d666 f   winmm:WINMM.dll
 0001:0002c66c       _timeKillEvent@4           1002d66c f   winmm:WINMM.dll
 0001:0002c672       _timeGetTime@0             1002d672 f   winmm:WINMM.dll
 0001:0002c678       _DirectInput8Create@20     1002d678 f   dinput8:DINPUT8.dll
 0001:0002d6f0       _GetModuleHandleA@4        1002e6f0 f   kernel32:KERNEL32.dll
 0001:0002d6f6       _FreeLibrary@4             1002e6f6 f   kernel32:KERNEL32.dll
 0001:0002d6fc       _GetProcAddress@8          1002e6fc f   kernel32:KERNEL32.dll
 0001:0002d702       _LoadLibraryA@4            1002e702 f   kernel32:KERNEL32.dll
 0001:0002d708       _CreateEventA@16           1002e708 f   kernel32:KERNEL32.dll
 0001:0002d70e       _CloseHandle@4             1002e70e f   kernel32:KERNEL32.dll
 0001:0002d714       _SetEvent@4                1002e714 f   kernel32:KERNEL32.dll
 0001:0002d71a       _WaitForSingleObject@8     1002e71a f   kernel32:KERNEL32.dll
 0001:0002d720       _FindClose@4               1002e720 f   kernel32:KERNEL32.dll
 0001:0002d726       _DeleteFileA@4             1002e726 f   kernel32:KERNEL32.dll
 0001:0002d72c       _SetFileAttributesA@8      1002e72c f   kernel32:KERNEL32.dll
 0001:0002d732       _FindNextFileA@8           1002e732 f   kernel32:KERNEL32.dll
 0001:0002d738       _FindFirstFileA@8          1002e738 f   kernel32:KERNEL32.dll
 0001:0002d73e       _CopyFileA@12              1002e73e f   kernel32:KERNEL32.dll
 0001:0002d744       _CompareFileTime@8         1002e744 f   kernel32:KERNEL32.dll
 0001:0002d74a       _CreateDirectoryA@8        1002e74a f   kernel32:KERNEL32.dll
 0001:0002d750       _GetFileAttributesA@4      1002e750 f   kernel32:KERNEL32.dll
 0001:0002d756       _Sleep@4                   1002e756 f   kernel32:KERNEL32.dll
 0001:0002d75c       _GetTickCount@0            1002e75c f   kernel32:KERNEL32.dll
 0001:0002d762       _WaitForMultipleObjects@16 1002e762 f   kernel32:KERNEL32.dll
 0001:0002d768       _InitializeCriticalSection@4 1002e768 f   kernel32:KERNEL32.dll
 0001:0002d76e       _DeleteCriticalSection@4   1002e76e f   kernel32:KERNEL32.dll
 0001:0002d774       _EnterCriticalSection@4    1002e774 f   kernel32:KERNEL32.dll
 0001:0002d77a       _LeaveCriticalSection@4    1002e77a f   kernel32:KERNEL32.dll
 0001:0002d780       _GetCurrentDirectoryA@8    1002e780 f   kernel32:KERNEL32.dll
 0001:0002d786       _SetCurrentDirectoryA@4    1002e786 f   kernel32:KERNEL32.dll
 0001:0002d78c       _TerminateThread@8         1002e78c f   kernel32:KERNEL32.dll
 0001:0002d792       _SuspendThread@4           1002e792 f   kernel32:KERNEL32.dll
 0001:0002d798       _ResumeThread@4            1002e798 f   kernel32:KERNEL32.dll
 0001:0002d79e       _GetThreadPriority@4       1002e79e f   kernel32:KERNEL32.dll
 0001:0002d7a4       _SetThreadPriority@8       1002e7a4 f   kernel32:KERNEL32.dll
 0001:0002d7aa       _QueryPerformanceFrequency@4 1002e7aa f   kernel32:KERNEL32.dll
 0001:0002d7b0       _QueryPerformanceCounter@4 1002e7b0 f   kernel32:KERNEL32.dll
 0001:0002d7b6       _ReadFile@20               1002e7b6 f   kernel32:KERNEL32.dll
 0001:0002d7bc       _SetFilePointer@16         1002e7bc f   kernel32:KERNEL32.dll
 0001:0002d7c2       _GetFileSize@8             1002e7c2 f   kernel32:KERNEL32.dll
 0001:0002d7c8       _CreateFileA@28            1002e7c8 f   kernel32:KERNEL32.dll
 0001:0002d7ce       _SetWindowPos@28           1002e7ce f   user32:USER32.dll
 0001:0002d7d4       _AdjustWindowRectEx@16     1002e7d4 f   user32:USER32.dll
 0001:0002d7da       _GetMenu@4                 1002e7da f   user32:USER32.dll
 0001:0002d7e0       _GetWindowLongA@8          1002e7e0 f   user32:USER32.dll
 0001:0002d7e6       _SetWindowLongA@12         1002e7e6 f   user32:USER32.dll
 0001:0002d7ec       _FindWindowA@8             1002e7ec f   user32:USER32.dll
 0001:0002d7f2       _SendMessageA@16           1002e7f2 f   user32:USER32.dll
 0001:0002d7f8       _MessageBoxA@16            1002e7f8 f   user32:USER32.dll
 0001:0002d7fe       _GetKeyboardLayout@4       1002e7fe f   user32:USER32.dll
 0001:0002d804       _GetSystemMetrics@4        1002e804 f   user32:USER32.dll
 0001:0002d80a       _DefWindowProcA@16         1002e80a f   user32:USER32.dll
 0001:0002d810       _GetCursorPos@4            1002e810 f   user32:USER32.dll
 0001:0002d816       _PostQuitMessage@4         1002e816 f   user32:USER32.dll
 0001:0002d81c       _DispatchMessageA@4        1002e81c f   user32:USER32.dll
 0001:0002d822       _GetMessageA@16            1002e822 f   user32:USER32.dll
 0001:0002d828       _WaitMessage@0             1002e828 f   user32:USER32.dll
 0001:0002d82e       _PostMessageA@16           1002e82e f   user32:USER32.dll
 0001:0002d834       _RegisterClassA@4          1002e834 f   user32:USER32.dll
 0001:0002d83a       _LoadCursorA@8             1002e83a f   user32:USER32.dll
 0001:0002d840       _LoadIconA@8               1002e840 f   user32:USER32.dll
 0001:0002d846       _SetFocus@4                1002e846 f   user32:USER32.dll
 0001:0002d84c       _UpdateWindow@4            1002e84c f   user32:USER32.dll
 0001:0002d852       _CreateWindowExA@48        1002e852 f   user32:USER32.dll
 0001:0002d858       _SetCursor@4               1002e858 f   user32:USER32.dll
 0001:0002d85e       _DestroyWindow@4           1002e85e f   user32:USER32.dll
 0001:0002d864       _PeekMessageA@20           1002e864 f   user32:USER32.dll
 0001:0002d86a       _TranslateMessage@4        1002e86a f   user32:USER32.dll
 0001:0002d870       _GetClientRect@8           1002e870 f   user32:USER32.dll
 0001:0002d876       _ClientToScreen@8          1002e876 f   user32:USER32.dll
 0001:0002d87c       _ScreenToClient@8          1002e87c f   user32:USER32.dll
 0001:0002d882       _GetStockObject@4          1002e882 f   gdi32:GDI32.dll
 0001:0002d888       _GetOpenFileNameA@4        1002e888 f   comdlg32:comdlg32.dll
 0001:0002d88e       _GetSaveFileNameA@4        1002e88e f   comdlg32:comdlg32.dll
 0001:0002d8a0       _jpeg_init_table           1002e8a0 f   JpgLib:KJpegLib.obj
 0001:0002d8d0       _jpeg_free_table           1002e8d0 f   JpgLib:KJpegLib.obj
 0001:0002d930       _jpeg_decode_info          1002e930 f   JpgLib:KJpegLib.obj
 0001:0002db80       _jpeg_decode_data          1002eb80 f   JpgLib:KJpegLib.obj
 0001:0002ddb0       _jpeg_decode_dataEx        1002edb0 f   JpgLib:KJpegLib.obj
 0001:0002e900       _jpeg_decode_init          1002f900 f   JpgLib:KJpegColor.obj
 0001:0002eaa0       _jpeg_skip_SEG             1002faa0 f   JpgLib:KJpegSegment.obj
 0001:0002ead0       _jpeg_read_SOF             1002fad0 f   JpgLib:KJpegSegment.obj
 0001:0002ebf0       _jpeg_read_SOS             1002fbf0 f   JpgLib:KJpegSegment.obj
 0001:0002eca0       _jpeg_read_DQT             1002fca0 f   JpgLib:KJpegQuanty.obj
 0001:0002ed80       _jpeg_read_DHT             1002fd80 f   JpgLib:KJpegHuffman.obj
 0001:0002eed0       _jpeg_preprocess           1002fed0 f   JpgLib:KJpegDecode.obj
 0001:0002ef00       _jpeg_decode_DU            1002ff00 f   JpgLib:KJpegDecode.obj
 0001:0002f150       _jpeg_idct_1d              10030150 f   JpgLib:KJpegIdct2d.obj
 0001:0002f290       _jpeg_idct_2d              10030290 f   JpgLib:KJpegIdct2d.obj
 0001:0002f3e0       _jpeg_idct_mmx             100303e0 f   JpgLib:KJpegIdct.obj
 0001:0002fa1a       _Lua_SetTable_StringFromId 10030a1a f   LuaLibDll:LuaLibDll.dll
 0001:0002fa20       _Lua_SetTable_DoubleFromId 10030a20 f   LuaLibDll:LuaLibDll.dll
 0001:0002fa26       _Lua_SetTable_IntFromId    10030a26 f   LuaLibDll:LuaLibDll.dll
 0001:0002fa2c       _Lua_SetTable_CFunFromName 10030a2c f   LuaLibDll:LuaLibDll.dll
 0001:0002fa32       _Lua_SetTable_CFunFromId   10030a32 f   LuaLibDll:LuaLibDll.dll
 0001:0002fa38       _Lua_SetTable_StringFromName 10030a38 f   LuaLibDll:LuaLibDll.dll
 0001:0002fa3e       _Lua_SetTable_IntFromName  10030a3e f   LuaLibDll:LuaLibDll.dll
 0001:0002fa44       _Lua_SetTable_DoubleFromName 10030a44 f   LuaLibDll:LuaLibDll.dll
 0001:0002fa4a       _lua_setglobal             10030a4a f   LuaLibDll:LuaLibDll.dll
 0001:0002fa50       _lua_pushcclosure          10030a50 f   LuaLibDll:LuaLibDll.dll
 0001:0002fa56       _lua_mathlibopen           10030a56 f   LuaLibDll:LuaLibDll.dll
 0001:0002fa5c       _lua_strlibopen            10030a5c f   LuaLibDll:LuaLibDll.dll
 0001:0002fa62       _lua_iolibopen             10030a62 f   LuaLibDll:LuaLibDll.dll
 0001:0002fa68       _lua_baselibopen           10030a68 f   LuaLibDll:LuaLibDll.dll
 0001:0002fa6e       _lua_close                 10030a6e f   LuaLibDll:LuaLibDll.dll
 0001:0002fa74       _lua_outerrmsg             10030a74 f   LuaLibDll:LuaLibDll.dll
 0001:0002fa7a       _lua_gettopindex           10030a7a f   LuaLibDll:LuaLibDll.dll
 0001:0002fa80       _lua_settop                10030a80 f   LuaLibDll:LuaLibDll.dll
 0001:0002fa86       _lua_newtable              10030a86 f   LuaLibDll:LuaLibDll.dll
 0001:0002fa8c       _lua_gettop                10030a8c f   LuaLibDll:LuaLibDll.dll
 0001:0002fa92       _lua_getglobal             10030a92 f   LuaLibDll:LuaLibDll.dll
 0001:0002fa98       _lua_open                  10030a98 f   LuaLibDll:LuaLibDll.dll
 0001:0002fa9e       _lua_compilebuffer         10030a9e f   LuaLibDll:LuaLibDll.dll
 0001:0002faa4       _lua_execute               10030aa4 f   LuaLibDll:LuaLibDll.dll
 0001:0002faaa       _lua_call                  10030aaa f   LuaLibDll:LuaLibDll.dll
 0001:0002fab0       _lua_pushusertag           10030ab0 f   LuaLibDll:LuaLibDll.dll
 0001:0002fab6       _lua_pushvalue             10030ab6 f   LuaLibDll:LuaLibDll.dll
 0001:0002fabc       _lua_pushnil               10030abc f   LuaLibDll:LuaLibDll.dll
 0001:0002fac2       _lua_pushstring            10030ac2 f   LuaLibDll:LuaLibDll.dll
 0001:0002fac8       _lua_pushnumber            10030ac8 f   LuaLibDll:LuaLibDll.dll
 0001:0002face       _lua_tonumber              10030ace f   LuaLibDll:LuaLibDll.dll
 0001:0002fad4       _lua_isnumber              10030ad4 f   LuaLibDll:LuaLibDll.dll
 0001:0002fada       _lua_tostring              10030ada f   LuaLibDll:LuaLibDll.dll
 0001:0002fae0       _lua_isstring              10030ae0 f   LuaLibDll:LuaLibDll.dll
 0001:0002fae6       _lua_newtag                10030ae6 f   LuaLibDll:LuaLibDll.dll
 0001:0002faec       _lua_setgcthreshold        10030aec f   LuaLibDll:LuaLibDll.dll
 0001:0002faf2       _lua_getgccount            10030af2 f   LuaLibDll:LuaLibDll.dll
 0001:0002faf8       _lua_dostring              10030af8 f   LuaLibDll:LuaLibDll.dll
 0001:0002fb00       _mp3_decode_head           10030b00 f   mp3lib:KMp3Core.obj
 0001:0002fb20       _mp3_decode_init           10030b20 f   mp3lib:KMp3Core.obj
 0001:0002fb50       _mp3_decode_info           10030b50 f   mp3lib:KMp3Core.obj
 0001:0002fb60       _mp3_decode_frame          10030b60 f   mp3lib:KMp3Core.obj
 0001:0002fb80       _L3audio_decode_head       10030b80 f   mp3lib:KMp3Head.obj
 0001:0002fd30       _bitget                    10030d30 f   mp3lib:KMp3Decode.obj
 0001:00030bd0       _L3audio_decode_init       10031bd0 f   mp3lib:KMp3Decode.obj
 0001:00031400       _L3audio_decode_info       10032400 f   mp3lib:KMp3Decode.obj
 0001:00031420       _L3audio_decode_frame      10032420 f   mp3lib:KMp3Decode.obj
 0001:00031440       _sbt_init                  10032440 f   mp3lib:KMp3Sbt.obj
 0001:00031500       _sbt_mono_L3               10032500 f   mp3lib:KMp3Sbt.obj
 0001:00031560       _sbt_dual_L3               10032560 f   mp3lib:KMp3Sbt.obj
 0001:00031630       _sbt16_mono_L3             10032630 f   mp3lib:KMp3Sbt.obj
 0001:00031690       _sbt16_dual_L3             10032690 f   mp3lib:KMp3Sbt.obj
 0001:00031750       _sbt8_mono_L3              10032750 f   mp3lib:KMp3Sbt.obj
 0001:000317b0       _sbt8_dual_L3              100327b0 f   mp3lib:KMp3Sbt.obj
 0001:00031870       _sbtB_mono_L3              10032870 f   mp3lib:KMp3Sbt.obj
 0001:000318d0       _sbtB_dual_L3              100328d0 f   mp3lib:KMp3Sbt.obj
 0001:00031990       _sbtB16_mono_L3            10032990 f   mp3lib:KMp3Sbt.obj
 0001:000319f0       _sbtB16_dual_L3            100329f0 f   mp3lib:KMp3Sbt.obj
 0001:00031ab0       _sbtB8_mono_L3             10032ab0 f   mp3lib:KMp3Sbt.obj
 0001:00031b10       _sbtB8_dual_L3             10032b10 f   mp3lib:KMp3Sbt.obj
 0001:00031bd0       _hwin_init_addr            10032bd0 f   mp3lib:KMp3Hybrid.obj
 0001:00031be0       _hybrid                    10032be0 f   mp3lib:KMp3Hybrid.obj
 0001:00031c10       _hybrid_sum                10032c10 f   mp3lib:KMp3Hybrid.obj
 0001:00031f30       _sum_f_bands               10032f30 f   mp3lib:KMp3Hybrid.obj
 0001:00031f60       _FreqInvert                10032f60 f   mp3lib:KMp3Hybrid.obj
 0001:00031f80       _alias_init_addr           10032f80 f   mp3lib:KMp3Msis.obj
 0001:00031f90       _msis_init_addr            10032f90 f   mp3lib:KMp3Msis.obj
 0001:00031fa0       _msis_init_addr_MPEG2      10032fa0 f   mp3lib:KMp3Msis.obj
 0001:00031fb0       _antialias                 10032fb0 f   mp3lib:KMp3Msis.obj
 0001:00031fd0       _ms_process                10032fd0 f   mp3lib:KMp3Msis.obj
 0001:00032000       _is_process_MPEG1          10033000 f   mp3lib:KMp3Msis.obj
 0001:00032190       _is_process_MPEG2          10033190 f   mp3lib:KMp3Msis.obj
 0001:000323a0       _quant_init_global_addr    100333a0 f   mp3lib:KMp3Quant.obj
 0001:000323b0       _quant_init_scale_addr     100333b0 f   mp3lib:KMp3Quant.obj
 0001:000323c0       _quant_init_pow_addr       100333c0 f   mp3lib:KMp3Quant.obj
 0001:000323d0       _quant_init_subblock_addr  100333d0 f   mp3lib:KMp3Quant.obj
 0001:000323e0       _dequant                   100333e0 f   mp3lib:KMp3Quant.obj
 0001:000327a0       _unpack_huff               100337a0 f   mp3lib:KMp3Huf.obj
 0001:00032cb0       _unpack_huff_quad          10033cb0 f   mp3lib:KMp3Huf.obj
 0001:000330e0       _unpack_sf_sub_MPEG1       100340e0 f   mp3lib:KMp3Scale.obj
 0001:00033370       _unpack_sf_sub_MPEG2       10034370 f   mp3lib:KMp3Scale.obj
 0001:00033920       _L3table_init              10034920 f   mp3lib:KMp3Init.obj
 0001:00033a90       _hwin_init                 10034a90 f   mp3lib:KMp3Init.obj
 0001:00033c70       _imdct_init                10034c70 f   mp3lib:KMp3Init.obj
 0001:00033dd0       _msis_init                 10034dd0 f   mp3lib:KMp3Init.obj
 0001:00033e80       _msis_init_MPEG2           10034e80 f   mp3lib:KMp3Init.obj
 0001:00034020       _dct_coef_addr             10035020 f   mp3lib:KMp3Fdct.obj
 0001:00034030       _fdct32                    10035030 f   mp3lib:KMp3Fdct.obj
 0001:00034050       _fdct16                    10035050 f   mp3lib:KMp3Fdct.obj
 0001:00034310       _fdct8                     10035310 f   mp3lib:KMp3Fdct.obj
 0001:000343e0       _window                    100353e0 f   mp3lib:KMp3Win.obj
 0001:00034400       _window_dual               10035400 f   mp3lib:KMp3Win.obj
 0001:00034420       _window16                  10035420 f   mp3lib:KMp3Win.obj
 0001:00034440       _window16_dual             10035440 f   mp3lib:KMp3Win.obj
 0001:00034460       _window8                   10035460 f   mp3lib:KMp3Win.obj
 0001:00034480       _window8_dual              10035480 f   mp3lib:KMp3Win.obj
 0001:000344a0       _windowB                   100354a0 f   mp3lib:KMp3WinB.obj
 0001:000344c0       _windowB_dual              100354c0 f   mp3lib:KMp3WinB.obj
 0001:000344e0       _windowB16                 100354e0 f   mp3lib:KMp3WinB.obj
 0001:00034500       _windowB16_dual            10035500 f   mp3lib:KMp3WinB.obj
 0001:00034520       _windowB8                  10035520 f   mp3lib:KMp3WinB.obj
 0001:00034540       _windowB8_dual             10035540 f   mp3lib:KMp3WinB.obj
 0001:00034560       _imdct18_asm               10035560     mp3lib:mp3_mdct.obj
 0001:00034966       _imdct6_3_asm              10035966     mp3lib:mp3_mdct.obj
 0001:00034b97       _hybrid_asm                10035b97     mp3lib:mp3_mdct.obj
 0001:00035a98       _FreqInvert_asm            10036a98     mp3lib:mp3_mdct.obj
 0001:00035b90       _imdct_init_addr_18        10036b90 f   mp3lib:KMp3Mdct.obj
 0001:00035ba0       _imdct_init_addr_6         10036ba0 f   mp3lib:KMp3Mdct.obj
 0001:00035bb0       _imdct18                   10036bb0 f   mp3lib:KMp3Mdct.obj
 0001:00035bc0       _imdct6_3                  10036bc0 f   mp3lib:KMp3Mdct.obj
 0001:00035bd0       _antialias_asm             10036bd0     mp3lib:mp3_msis.obj
 0001:00035d70       _forward_bf_asm            10036d70     mp3lib:mp3_fdct.obj
 0001:00035df7       _back_bf_asm               10036df7     mp3lib:mp3_fdct.obj
 0001:00035e6a       _fdct32_asm                10036e6a     mp3lib:mp3_fdct.obj
 0001:00036574       _fdct32_dual_asm           10037574     mp3lib:mp3_fdct.obj
 0001:00036cb0       _window_mpg_asm            10037cb0     mp3lib:mp3_win.obj
 0001:00037015       _window_dual_asm           10038015     mp3lib:mp3_win.obj
 0001:0003737a       _window16_asm              1003837a     mp3lib:mp3_win.obj
 0001:00037637       _window16_dual_asm         10038637     mp3lib:mp3_win.obj
 0001:000378f4       _window8_asm               100388f4     mp3lib:mp3_win.obj
 0001:00037c59       _window8_dual_asm          10038c59     mp3lib:mp3_win.obj
 0001:00037fc0       _windowB_asm               10038fc0     mp3lib:mp3_winb.obj
 0001:0003833a       _windowB_dual_asm          1003933a     mp3lib:mp3_winb.obj
 0001:000386b4       _windowB16_asm             100396b4     mp3lib:mp3_winb.obj
 0001:00038986       _windowB16_dual_asm        10039986     mp3lib:mp3_winb.obj
 0001:00038c58       _windowB8_asm              10039c58     mp3lib:mp3_winb.obj
 0001:00038fd2       _windowB8_dual_asm         10039fd2     mp3lib:mp3_winb.obj
 0001:0003934c       _memcpy                    1003a34c f   MSVCRT:MSVCR80.dll
 0001:00039352       ___CxxFrameHandler3        1003a352 f   MSVCRT:MSVCR80.dll
 0001:00039358       @__security_check_cookie@4 1003a358 f   MSVCRT:secchk.obj
 0001:00039367       ??0type_info@@AAE@ABV0@@Z  1003a367 f   MSVCRT:ti_inst.obj
 0001:00039372       ??_Etype_info@@UAEPAXI@Z   1003a372 f i MSVCRT:ti_inst.obj
 0001:000393bb       ??4type_info@@AAEAAV0@ABV0@@Z 1003a3bb f   MSVCRT:ti_inst.obj
 0001:000393c0       ??3@YAXPAX@Z               1003a3c0 f   MSVCRT:MSVCR80.dll
 0001:000393d8       ?__ArrayUnwind@@YGXPAXIHP6EX0@Z@Z 1003a3d8 f   MSVCRT:ehvecdtr.obj
 0001:00039436       ??_M@YGXPAXIHP6EX0@Z@Z     1003a436 f   MSVCRT:ehvecdtr.obj
 0001:0003949a       ??2@YAPAXI@Z               1003a49a f   MSVCRT:MSVCR80.dll
 0001:000394a0       _memset                    1003a4a0 f   MSVCRT:MSVCR80.dll
 0001:000394a6       _vsprintf                  1003a4a6 f   MSVCRT:MSVCR80.dll
 0001:000394ac       _exit                      1003a4ac f   MSVCRT:MSVCR80.dll
 0001:000394b2       _sprintf                   1003a4b2 f   MSVCRT:MSVCR80.dll
 0001:000394b8       __onexit                   1003a4b8 f   MSVCRT:atonexit.obj
 0001:0003955d       _atexit                    1003a55d f   MSVCRT:atonexit.obj
 0001:00039570       _fclose                    1003a570 f   MSVCRT:MSVCR80.dll
 0001:00039576       _fread                     1003a576 f   MSVCRT:MSVCR80.dll
 0001:0003957c       _fwrite                    1003a57c f   MSVCRT:MSVCR80.dll
 0001:00039582       _ftell                     1003a582 f   MSVCRT:MSVCR80.dll
 0001:00039588       _fseek                     1003a588 f   MSVCRT:MSVCR80.dll
 0001:0003958e       _fopen                     1003a58e f   MSVCRT:MSVCR80.dll
 0001:00039594       _strstr                    1003a594 f   MSVCRT:MSVCR80.dll
 0001:0003959a       _memmove                   1003a59a f   MSVCRT:MSVCR80.dll
 0001:000395a0       _free                      1003a5a0 f   MSVCRT:MSVCR80.dll
 0001:000395a6       _malloc                    1003a5a6 f   MSVCRT:MSVCR80.dll
 0001:000395ac       ??_L@YGXPAXIHP6EX0@Z1@Z    1003a5ac f   MSVCRT:ehvecctr.obj
 0001:00039611       ??__C@YGXPAX0IHP6EX00@ZP6EX0@Z@Z 1003a611 f   MSVCRT:ehvccctr.obj
 0001:0003967a       _atoi                      1003a67a f   MSVCRT:MSVCR80.dll
 0001:00039680       _atof                      1003a680 f   MSVCRT:MSVCR80.dll
 0001:00039686       _sscanf                    1003a686 f   MSVCRT:MSVCR80.dll
 0001:00039690       __ftol2_sse                1003a690 f   MSVCRT:ftol2.obj
 0001:00039699       __ftol2_pentium4           1003a699 f   MSVCRT:ftol2.obj
 0001:000396ac       __ftol2_sse_excpt          1003a6ac f   MSVCRT:ftol2.obj
 0001:000396c6       __ftol2                    1003a6c6 f   MSVCRT:ftol2.obj
 0001:0003973c       _printf                    1003a73c f   MSVCRT:MSVCR80.dll
 0001:00039742       _fprintf                   1003a742 f   MSVCRT:MSVCR80.dll
 0001:00039748       _isdigit                   1003a748 f   MSVCRT:MSVCR80.dll
 0001:0003974e       _isspace                   1003a74e f   MSVCRT:MSVCR80.dll
 0001:00039754       __purecall                 1003a754 f   MSVCRT:MSVCR80.dll
 0001:00039760       __alloca_probe             1003a760     MSVCRT:chkstk.obj
 0001:00039760       __chkstk                   1003a760 f   MSVCRT:chkstk.obj
 0001:0003978c       __beginthreadex            1003a78c f   MSVCRT:MSVCR80.dll
 0001:000397a0       __alldiv                   1003a7a0 f   MSVCRT:lldiv.obj
 0001:00039850       __allmul                   1003a850 f   MSVCRT:llmul.obj
 0001:00039884       _NtCurrentTeb              1003a884 f i MSVCRT:crtdll.obj
 0001:000398d8       __CRT_INIT@12              1003a8d8 f   MSVCRT:crtdll.obj
 0001:00039bb1       __DllMainCRTStartup@12     1003abb1 f   MSVCRT:crtdll.obj
 0001:00039bd2       __CIpow                    1003abd2 f   MSVCRT:MSVCR80.dll
 0001:00039bd8       ___report_gsfailure        1003abd8 f   MSVCRT:gs_report.obj
 0001:00039cdc       ?terminate@@YAXXZ          1003acdc f   MSVCRT:MSVCR80.dll
 0001:00039ce4       __SEH_prolog4              1003ace4 f   MSVCRT:sehprolg4.obj
 0001:00039d29       __SEH_epilog4              1003ad29 f   MSVCRT:sehprolg4.obj
 0001:00039d3d       __except_handler4          1003ad3d f   MSVCRT:chandler4gs.obj
 0001:00039d60       __unlock                   1003ad60 f   MSVCRT:MSVCR80.dll
 0001:00039d66       ___dllonexit               1003ad66 f   MSVCRT:MSVCR80.dll
 0001:00039d6c       __encode_pointer           1003ad6c f   MSVCRT:MSVCR80.dll
 0001:00039d72       __lock                     1003ad72 f   MSVCRT:MSVCR80.dll
 0001:00039d78       __decode_pointer           1003ad78 f   MSVCRT:MSVCR80.dll
 0001:00039dce       __get_sse2_info            1003adce f   MSVCRT:cpu_disp.obj
 0001:00039e2e       ___sse2_available_init     1003ae2e f   MSVCRT:cpu_disp.obj
 0001:00039e3b       ___clean_type_info_names   1003ae3b f   MSVCRT:tncleanup.obj
 0001:00039e47       __RTC_Initialize           1003ae47 f   MSVCRT:initsect.obj
 0001:00039e6b       __RTC_Terminate            1003ae6b f   MSVCRT:initsect.obj
 0001:00039e90       __malloc_crt               1003ae90 f   MSVCRT:MSVCR80.dll
 0001:00039e96       __encoded_null             1003ae96 f   MSVCRT:MSVCR80.dll
 0001:00039ea0       __ValidateImageBase        1003aea0 f   MSVCRT:pesect.obj
 0001:00039ed0       __FindPESection            1003aed0 f   MSVCRT:pesect.obj
 0001:00039f20       __IsNonwritableInCurrentImage 1003af20 f   MSVCRT:pesect.obj
 0001:00039fdc       __initterm                 1003afdc f   MSVCRT:MSVCR80.dll
 0001:00039fe2       __initterm_e               1003afe2 f   MSVCRT:MSVCR80.dll
 0001:00039fe8       __amsg_exit                1003afe8 f   MSVCRT:MSVCR80.dll
 0001:00039fee       ___CppXcptFilter           1003afee f   MSVCRT:MSVCR80.dll
 0001:00039ff4       _DllMain@12                1003aff4 f   MSVCRT:dllmain.obj
 0001:0003a014       ___security_init_cookie    1003b014 f   MSVCRT:gs_support.obj
 0001:0003a0a8       __crt_debugger_hook        1003b0a8 f   MSVCRT:MSVCR80.dll
 0001:0003a0ae       ??1type_info@@UAE@XZ       1003b0ae f   MSVCRT:MSVCR80.dll
 0001:0003a0ae       ?_type_info_dtor_internal_method@type_info@@QAEXXZ 1003b0ae f   MSVCRT:MSVCR80.dll
 0001:0003a0b4       __except_handler4_common   1003b0b4 f   MSVCRT:MSVCR80.dll
 0001:0003a0ba       ___clean_type_info_names_internal 1003b0ba f   MSVCRT:MSVCR80.dll
 0001:0003a0c0       _ImmReleaseContext@8       1003b0c0 f   imm32:IMM32.dll
 0001:0003a0c6       _ImmGetOpenStatus@4        1003b0c6 f   imm32:IMM32.dll
 0001:0003a0cc       _ImmGetContext@4           1003b0cc f   imm32:IMM32.dll
 0001:0003a0d2       _ImmSimulateHotKey@8       1003b0d2 f   imm32:IMM32.dll
 0001:0003a0d8       _ImmIsIME@4                1003b0d8 f   imm32:IMM32.dll
 0001:0003a0de       _ImmSetConversionStatus@12 1003b0de f   imm32:IMM32.dll
 0001:0003a0e4       _ImmGetDefaultIMEWnd@4     1003b0e4 f   imm32:IMM32.dll
 0001:0003a0ea       _ImmSetOpenStatus@8        1003b0ea f   imm32:IMM32.dll
 0001:0003a0f0       _ImmGetConversionStatus@12 1003b0f0 f   imm32:IMM32.dll
 0001:0003a0f6       _ImmSetCompositionWindow@8 1003b0f6 f   imm32:IMM32.dll
 0001:0003a0fc       _InterlockedExchange@8     1003b0fc f   kernel32:KERNEL32.dll
 0001:0003a102       _InterlockedCompareExchange@12 1003b102 f   kernel32:KERNEL32.dll
 0001:0003a108       _TerminateProcess@8        1003b108 f   kernel32:KERNEL32.dll
 0001:0003a10e       _GetCurrentProcess@0       1003b10e f   kernel32:KERNEL32.dll
 0001:0003a114       _UnhandledExceptionFilter@4 1003b114 f   kernel32:KERNEL32.dll
 0001:0003a11a       _SetUnhandledExceptionFilter@4 1003b11a f   kernel32:KERNEL32.dll
 0001:0003a120       _IsDebuggerPresent@0       1003b120 f   kernel32:KERNEL32.dll
 0001:0003a126       _DisableThreadLibraryCalls@4 1003b126 f   kernel32:KERNEL32.dll
 0001:0003a12c       _GetCurrentThreadId@0      1003b12c f   kernel32:KERNEL32.dll
 0001:0003a132       _GetCurrentProcessId@0     1003b132 f   kernel32:KERNEL32.dll
 0001:0003a138       _GetSystemTimeAsFileTime@4 1003b138 f   kernel32:KERNEL32.dll
 0001:0003a13e       __getcwd                   1003b13e f   MSVCRT:MSVCR80.dll
 0001:0003a144       __itoa                     1003b144 f   MSVCRT:MSVCR80.dll
 0001:0003a14a       __stricmp                  1003b14a f   MSVCRT:MSVCR80.dll
 0002:00000000       __imp__DirectDrawCreate@12 1003d000     ddraw:DDRAW.dll
 0002:00000004       \177DDRAW_NULL_THUNK_DATA  1003d004     ddraw:DDRAW.dll
 0002:00000008       __imp__DirectInput8Create@20 1003d008     dinput8:DINPUT8.dll
 0002:0000000c       \177DINPUT8_NULL_THUNK_DATA 1003d00c     dinput8:DINPUT8.dll
 0002:00000010       __imp__DirectSoundCreate@12 1003d010     dsound:DSOUND.dll
 0002:00000014       \177DSOUND_NULL_THUNK_DATA 1003d014     dsound:DSOUND.dll
 0002:00000018       __imp__GetStockObject@4    1003d018     gdi32:GDI32.dll
 0002:0000001c       \177GDI32_NULL_THUNK_DATA  1003d01c     gdi32:GDI32.dll
 0002:00000020       __imp__ImmReleaseContext@8 1003d020     imm32:IMM32.dll
 0002:00000024       __imp__ImmGetContext@4     1003d024     imm32:IMM32.dll
 0002:00000028       __imp__ImmSimulateHotKey@8 1003d028     imm32:IMM32.dll
 0002:0000002c       __imp__ImmIsIME@4          1003d02c     imm32:IMM32.dll
 0002:00000030       __imp__ImmSetConversionStatus@12 1003d030     imm32:IMM32.dll
 0002:00000034       __imp__ImmGetDefaultIMEWnd@4 1003d034     imm32:IMM32.dll
 0002:00000038       __imp__ImmSetOpenStatus@8  1003d038     imm32:IMM32.dll
 0002:0000003c       __imp__ImmGetConversionStatus@12 1003d03c     imm32:IMM32.dll
 0002:00000040       __imp__ImmSetCompositionWindow@8 1003d040     imm32:IMM32.dll
 0002:00000044       __imp__ImmGetOpenStatus@4  1003d044     imm32:IMM32.dll
 0002:00000048       \177IMM32_NULL_THUNK_DATA  1003d048     imm32:IMM32.dll
 0002:0000004c       __imp__DeleteFileA@4       1003d04c     kernel32:KERNEL32.dll
 0002:00000050       __imp__SetFileAttributesA@8 1003d050     kernel32:KERNEL32.dll
 0002:00000054       __imp__FindNextFileA@8     1003d054     kernel32:KERNEL32.dll
 0002:00000058       __imp__FindFirstFileA@8    1003d058     kernel32:KERNEL32.dll
 0002:0000005c       __imp__CopyFileA@12        1003d05c     kernel32:KERNEL32.dll
 0002:00000060       __imp__CompareFileTime@8   1003d060     kernel32:KERNEL32.dll
 0002:00000064       __imp__CreateDirectoryA@8  1003d064     kernel32:KERNEL32.dll
 0002:00000068       __imp__GetFileAttributesA@4 1003d068     kernel32:KERNEL32.dll
 0002:0000006c       __imp__Sleep@4             1003d06c     kernel32:KERNEL32.dll
 0002:00000070       __imp__GetTickCount@0      1003d070     kernel32:KERNEL32.dll
 0002:00000074       __imp__WaitForMultipleObjects@16 1003d074     kernel32:KERNEL32.dll
 0002:00000078       __imp__InitializeCriticalSection@4 1003d078     kernel32:KERNEL32.dll
 0002:0000007c       __imp__DeleteCriticalSection@4 1003d07c     kernel32:KERNEL32.dll
 0002:00000080       __imp__EnterCriticalSection@4 1003d080     kernel32:KERNEL32.dll
 0002:00000084       __imp__LeaveCriticalSection@4 1003d084     kernel32:KERNEL32.dll
 0002:00000088       __imp__GetCurrentDirectoryA@8 1003d088     kernel32:KERNEL32.dll
 0002:0000008c       __imp__SetCurrentDirectoryA@4 1003d08c     kernel32:KERNEL32.dll
 0002:00000090       __imp__FindClose@4         1003d090     kernel32:KERNEL32.dll
 0002:00000094       __imp__SuspendThread@4     1003d094     kernel32:KERNEL32.dll
 0002:00000098       __imp__ResumeThread@4      1003d098     kernel32:KERNEL32.dll
 0002:0000009c       __imp__GetThreadPriority@4 1003d09c     kernel32:KERNEL32.dll
 0002:000000a0       __imp__GetCurrentProcessId@0 1003d0a0     kernel32:KERNEL32.dll
 0002:000000a4       __imp__QueryPerformanceFrequency@4 1003d0a4     kernel32:KERNEL32.dll
 0002:000000a8       __imp__QueryPerformanceCounter@4 1003d0a8     kernel32:KERNEL32.dll
 0002:000000ac       __imp__ReadFile@20         1003d0ac     kernel32:KERNEL32.dll
 0002:000000b0       __imp__SetFilePointer@16   1003d0b0     kernel32:KERNEL32.dll
 0002:000000b4       __imp__GetFileSize@8       1003d0b4     kernel32:KERNEL32.dll
 0002:000000b8       __imp__CreateFileA@28      1003d0b8     kernel32:KERNEL32.dll
 0002:000000bc       __imp__IsDebuggerPresent@0 1003d0bc     kernel32:KERNEL32.dll
 0002:000000c0       __imp__SetUnhandledExceptionFilter@4 1003d0c0     kernel32:KERNEL32.dll
 0002:000000c4       __imp__UnhandledExceptionFilter@4 1003d0c4     kernel32:KERNEL32.dll
 0002:000000c8       __imp__GetCurrentProcess@0 1003d0c8     kernel32:KERNEL32.dll
 0002:000000cc       __imp__TerminateProcess@8  1003d0cc     kernel32:KERNEL32.dll
 0002:000000d0       __imp__InterlockedCompareExchange@12 1003d0d0     kernel32:KERNEL32.dll
 0002:000000d4       __imp__InterlockedExchange@8 1003d0d4     kernel32:KERNEL32.dll
 0002:000000d8       __imp__WaitForSingleObject@8 1003d0d8     kernel32:KERNEL32.dll
 0002:000000dc       __imp__SetEvent@4          1003d0dc     kernel32:KERNEL32.dll
 0002:000000e0       __imp__CloseHandle@4       1003d0e0     kernel32:KERNEL32.dll
 0002:000000e4       __imp__CreateEventA@16     1003d0e4     kernel32:KERNEL32.dll
 0002:000000e8       __imp__LoadLibraryA@4      1003d0e8     kernel32:KERNEL32.dll
 0002:000000ec       __imp__GetProcAddress@8    1003d0ec     kernel32:KERNEL32.dll
 0002:000000f0       __imp__FreeLibrary@4       1003d0f0     kernel32:KERNEL32.dll
 0002:000000f4       __imp__GetModuleHandleA@4  1003d0f4     kernel32:KERNEL32.dll
 0002:000000f8       __imp__GetCurrentThreadId@0 1003d0f8     kernel32:KERNEL32.dll
 0002:000000fc       __imp__TerminateThread@8   1003d0fc     kernel32:KERNEL32.dll
 0002:00000100       __imp__DisableThreadLibraryCalls@4 1003d100     kernel32:KERNEL32.dll
 0002:00000104       __imp__GetSystemTimeAsFileTime@4 1003d104     kernel32:KERNEL32.dll
 0002:00000108       __imp__SetThreadPriority@8 1003d108     kernel32:KERNEL32.dll
 0002:0000010c       \177KERNEL32_NULL_THUNK_DATA 1003d10c     kernel32:KERNEL32.dll
 0002:00000110       __imp__lua_getgccount      1003d110     LuaLibDll:LuaLibDll.dll
 0002:00000114       __imp__lua_setgcthreshold  1003d114     LuaLibDll:LuaLibDll.dll
 0002:00000118       __imp__lua_newtag          1003d118     LuaLibDll:LuaLibDll.dll
 0002:0000011c       __imp__lua_isstring        1003d11c     LuaLibDll:LuaLibDll.dll
 0002:00000120       __imp__lua_tostring        1003d120     LuaLibDll:LuaLibDll.dll
 0002:00000124       __imp__lua_isnumber        1003d124     LuaLibDll:LuaLibDll.dll
 0002:00000128       __imp__lua_tonumber        1003d128     LuaLibDll:LuaLibDll.dll
 0002:0000012c       __imp__lua_pushnumber      1003d12c     LuaLibDll:LuaLibDll.dll
 0002:00000130       __imp__lua_pushstring      1003d130     LuaLibDll:LuaLibDll.dll
 0002:00000134       __imp__lua_pushnil         1003d134     LuaLibDll:LuaLibDll.dll
 0002:00000138       __imp__lua_pushvalue       1003d138     LuaLibDll:LuaLibDll.dll
 0002:0000013c       __imp__lua_dostring        1003d13c     LuaLibDll:LuaLibDll.dll
 0002:00000140       __imp__lua_pushusertag     1003d140     LuaLibDll:LuaLibDll.dll
 0002:00000144       __imp__lua_call            1003d144     LuaLibDll:LuaLibDll.dll
 0002:00000148       __imp__lua_execute         1003d148     LuaLibDll:LuaLibDll.dll
 0002:0000014c       __imp__Lua_SetTable_StringFromId 1003d14c     LuaLibDll:LuaLibDll.dll
 0002:00000150       __imp__Lua_SetTable_DoubleFromId 1003d150     LuaLibDll:LuaLibDll.dll
 0002:00000154       __imp__Lua_SetTable_IntFromId 1003d154     LuaLibDll:LuaLibDll.dll
 0002:00000158       __imp__Lua_SetTable_CFunFromName 1003d158     LuaLibDll:LuaLibDll.dll
 0002:0000015c       __imp__Lua_SetTable_CFunFromId 1003d15c     LuaLibDll:LuaLibDll.dll
 0002:00000160       __imp__Lua_SetTable_StringFromName 1003d160     LuaLibDll:LuaLibDll.dll
 0002:00000164       __imp__Lua_SetTable_IntFromName 1003d164     LuaLibDll:LuaLibDll.dll
 0002:00000168       __imp__Lua_SetTable_DoubleFromName 1003d168     LuaLibDll:LuaLibDll.dll
 0002:0000016c       __imp__lua_setglobal       1003d16c     LuaLibDll:LuaLibDll.dll
 0002:00000170       __imp__lua_pushcclosure    1003d170     LuaLibDll:LuaLibDll.dll
 0002:00000174       __imp__lua_mathlibopen     1003d174     LuaLibDll:LuaLibDll.dll
 0002:00000178       __imp__lua_strlibopen      1003d178     LuaLibDll:LuaLibDll.dll
 0002:0000017c       __imp__lua_iolibopen       1003d17c     LuaLibDll:LuaLibDll.dll
 0002:00000180       __imp__lua_baselibopen     1003d180     LuaLibDll:LuaLibDll.dll
 0002:00000184       __imp__lua_close           1003d184     LuaLibDll:LuaLibDll.dll
 0002:00000188       __imp__lua_outerrmsg       1003d188     LuaLibDll:LuaLibDll.dll
 0002:0000018c       __imp__lua_gettopindex     1003d18c     LuaLibDll:LuaLibDll.dll
 0002:00000190       __imp__lua_settop          1003d190     LuaLibDll:LuaLibDll.dll
 0002:00000194       __imp__lua_newtable        1003d194     LuaLibDll:LuaLibDll.dll
 0002:00000198       __imp__lua_gettop          1003d198     LuaLibDll:LuaLibDll.dll
 0002:0000019c       __imp__lua_getglobal       1003d19c     LuaLibDll:LuaLibDll.dll
 0002:000001a0       __imp__lua_open            1003d1a0     LuaLibDll:LuaLibDll.dll
 0002:000001a4       __imp__lua_compilebuffer   1003d1a4     LuaLibDll:LuaLibDll.dll
 0002:000001a8       \177LuaLibDll_NULL_THUNK_DATA 1003d1a8     LuaLibDll:LuaLibDll.dll
 0002:000001ac       __imp_?terminate@@YAXXZ    1003d1ac     MSVCRT:MSVCR80.dll
 0002:000001b0       __imp___itoa               1003d1b0     MSVCRT:MSVCR80.dll
 0002:000001b0       __imp__itoa                1003d1b0     MSVCRT:MSVCR80.dll
 0002:000001b4       __imp__getcwd              1003d1b4     MSVCRT:MSVCR80.dll
 0002:000001b4       __imp___getcwd             1003d1b4     MSVCRT:MSVCR80.dll
 0002:000001b8       __imp____clean_type_info_names_internal 1003d1b8     MSVCRT:MSVCR80.dll
 0002:000001bc       __imp___except_handler4_common 1003d1bc     MSVCRT:MSVCR80.dll
 0002:000001c0       __imp_?_type_info_dtor_internal_method@type_info@@QAEXXZ 1003d1c0     MSVCRT:MSVCR80.dll
 0002:000001c4       __imp___crt_debugger_hook  1003d1c4     MSVCRT:MSVCR80.dll
 0002:000001c8       __imp____CppXcptFilter     1003d1c8     MSVCRT:MSVCR80.dll
 0002:000001cc       __imp___adjust_fdiv        1003d1cc     MSVCRT:MSVCR80.dll
 0002:000001d0       __imp___amsg_exit          1003d1d0     MSVCRT:MSVCR80.dll
 0002:000001d4       __imp___initterm_e         1003d1d4     MSVCRT:MSVCR80.dll
 0002:000001d8       __imp___initterm           1003d1d8     MSVCRT:MSVCR80.dll
 0002:000001dc       __imp___encoded_null       1003d1dc     MSVCRT:MSVCR80.dll
 0002:000001e0       __imp___malloc_crt         1003d1e0     MSVCRT:MSVCR80.dll
 0002:000001e4       __imp___decode_pointer     1003d1e4     MSVCRT:MSVCR80.dll
 0002:000001e8       __imp__memcpy              1003d1e8     MSVCRT:MSVCR80.dll
 0002:000001ec       __imp____CxxFrameHandler3  1003d1ec     MSVCRT:MSVCR80.dll
 0002:000001f0       __imp_??3@YAXPAX@Z         1003d1f0     MSVCRT:MSVCR80.dll
 0002:000001f4       __imp_??2@YAPAXI@Z         1003d1f4     MSVCRT:MSVCR80.dll
 0002:000001f8       __imp__memset              1003d1f8     MSVCRT:MSVCR80.dll
 0002:000001fc       __imp__vsprintf            1003d1fc     MSVCRT:MSVCR80.dll
 0002:00000200       __imp__exit                1003d200     MSVCRT:MSVCR80.dll
 0002:00000204       __imp__sprintf             1003d204     MSVCRT:MSVCR80.dll
 0002:00000208       __imp__fclose              1003d208     MSVCRT:MSVCR80.dll
 0002:0000020c       __imp__fread               1003d20c     MSVCRT:MSVCR80.dll
 0002:00000210       __imp__fwrite              1003d210     MSVCRT:MSVCR80.dll
 0002:00000214       __imp__ftell               1003d214     MSVCRT:MSVCR80.dll
 0002:00000218       __imp__fseek               1003d218     MSVCRT:MSVCR80.dll
 0002:0000021c       __imp__fopen               1003d21c     MSVCRT:MSVCR80.dll
 0002:00000220       __imp__strstr              1003d220     MSVCRT:MSVCR80.dll
 0002:00000224       __imp__memmove             1003d224     MSVCRT:MSVCR80.dll
 0002:00000228       __imp__free                1003d228     MSVCRT:MSVCR80.dll
 0002:0000022c       __imp__malloc              1003d22c     MSVCRT:MSVCR80.dll
 0002:00000230       __imp__atoi                1003d230     MSVCRT:MSVCR80.dll
 0002:00000234       __imp__atof                1003d234     MSVCRT:MSVCR80.dll
 0002:00000238       __imp__sscanf              1003d238     MSVCRT:MSVCR80.dll
 0002:0000023c       __imp__printf              1003d23c     MSVCRT:MSVCR80.dll
 0002:00000240       __imp__fprintf             1003d240     MSVCRT:MSVCR80.dll
 0002:00000244       __imp__isdigit             1003d244     MSVCRT:MSVCR80.dll
 0002:00000248       __imp__isspace             1003d248     MSVCRT:MSVCR80.dll
 0002:0000024c       __imp___purecall           1003d24c     MSVCRT:MSVCR80.dll
 0002:00000250       __imp___beginthreadex      1003d250     MSVCRT:MSVCR80.dll
 0002:00000254       __imp___CIpow              1003d254     MSVCRT:MSVCR80.dll
 0002:00000258       __imp___stricmp            1003d258     MSVCRT:MSVCR80.dll
 0002:00000258       __imp__stricmp             1003d258     MSVCRT:MSVCR80.dll
 0002:0000025c       __imp___unlock             1003d25c     MSVCRT:MSVCR80.dll
 0002:00000260       __imp____dllonexit         1003d260     MSVCRT:MSVCR80.dll
 0002:00000264       __imp___encode_pointer     1003d264     MSVCRT:MSVCR80.dll
 0002:00000268       __imp___lock               1003d268     MSVCRT:MSVCR80.dll
 0002:0000026c       __imp___onexit             1003d26c     MSVCRT:MSVCR80.dll
 0002:00000270       \177MSVCR80_NULL_THUNK_DATA 1003d270     MSVCRT:MSVCR80.dll
 0002:00000274       __imp__LoadCursorA@8       1003d274     user32:USER32.dll
 0002:00000278       __imp__LoadIconA@8         1003d278     user32:USER32.dll
 0002:0000027c       __imp__SetFocus@4          1003d27c     user32:USER32.dll
 0002:00000280       __imp__UpdateWindow@4      1003d280     user32:USER32.dll
 0002:00000284       __imp__CreateWindowExA@48  1003d284     user32:USER32.dll
 0002:00000288       __imp__SetCursor@4         1003d288     user32:USER32.dll
 0002:0000028c       __imp__DestroyWindow@4     1003d28c     user32:USER32.dll
 0002:00000290       __imp__PeekMessageA@20     1003d290     user32:USER32.dll
 0002:00000294       __imp__TranslateMessage@4  1003d294     user32:USER32.dll
 0002:00000298       __imp__GetClientRect@8     1003d298     user32:USER32.dll
 0002:0000029c       __imp__ClientToScreen@8    1003d29c     user32:USER32.dll
 0002:000002a0       __imp__ScreenToClient@8    1003d2a0     user32:USER32.dll
 0002:000002a4       __imp__RegisterClassA@4    1003d2a4     user32:USER32.dll
 0002:000002a8       __imp__PostMessageA@16     1003d2a8     user32:USER32.dll
 0002:000002ac       __imp__WaitMessage@0       1003d2ac     user32:USER32.dll
 0002:000002b0       __imp__GetMessageA@16      1003d2b0     user32:USER32.dll
 0002:000002b4       __imp__DispatchMessageA@4  1003d2b4     user32:USER32.dll
 0002:000002b8       __imp__PostQuitMessage@4   1003d2b8     user32:USER32.dll
 0002:000002bc       __imp__GetCursorPos@4      1003d2bc     user32:USER32.dll
 0002:000002c0       __imp__DefWindowProcA@16   1003d2c0     user32:USER32.dll
 0002:000002c4       __imp__GetSystemMetrics@4  1003d2c4     user32:USER32.dll
 0002:000002c8       __imp__GetKeyboardLayout@4 1003d2c8     user32:USER32.dll
 0002:000002cc       __imp__MessageBoxA@16      1003d2cc     user32:USER32.dll
 0002:000002d0       __imp__SendMessageA@16     1003d2d0     user32:USER32.dll
 0002:000002d4       __imp__FindWindowA@8       1003d2d4     user32:USER32.dll
 0002:000002d8       __imp__SetWindowLongA@12   1003d2d8     user32:USER32.dll
 0002:000002dc       __imp__GetWindowLongA@8    1003d2dc     user32:USER32.dll
 0002:000002e0       __imp__GetMenu@4           1003d2e0     user32:USER32.dll
 0002:000002e4       __imp__AdjustWindowRectEx@16 1003d2e4     user32:USER32.dll
 0002:000002e8       __imp__SetWindowPos@28     1003d2e8     user32:USER32.dll
 0002:000002ec       \177USER32_NULL_THUNK_DATA 1003d2ec     user32:USER32.dll
 0002:000002f0       __imp__timeGetTime@0       1003d2f0     winmm:WINMM.dll
 0002:000002f4       __imp__timeKillEvent@4     1003d2f4     winmm:WINMM.dll
 0002:000002f8       __imp__timeSetEvent@20     1003d2f8     winmm:WINMM.dll
 0002:000002fc       \177WINMM_NULL_THUNK_DATA  1003d2fc     winmm:WINMM.dll
 0002:00000300       __imp__GetSaveFileNameA@4  1003d300     comdlg32:comdlg32.dll
 0002:00000304       __imp__GetOpenFileNameA@4  1003d304     comdlg32:comdlg32.dll
 0002:00000308       \177comdlg32_NULL_THUNK_DATA 1003d308     comdlg32:comdlg32.dll
 0002:0000030c       ___xc_a                    1003d30c     MSVCRT:cinitexe.obj
 0002:00000320       ___xc_z                    1003d320     MSVCRT:cinitexe.obj
 0002:00000324       ___xi_a                    1003d324     MSVCRT:cinitexe.obj
 0002:00000330       ___xi_z                    1003d330     MSVCRT:cinitexe.obj
 0002:00000360       ??_7KWin32App@@6B@         1003d360     KAutoMutex.obj
 0002:0000038c       ??_C@_04HCANFCJ@strf?$AA@  1003d38c     KAviFile.obj
 0002:00000394       ??_C@_04IKKCEPHI@auds?$AA@ 1003d394     KAviFile.obj
 0002:0000039c       ??_C@_04ECKNOMMN@vids?$AA@ 1003d39c     KAviFile.obj
 0002:000003a4       ??_C@_04JJKDPIKH@strh?$AA@ 1003d3a4     KAviFile.obj
 0002:000003ac       ??_C@_04IFAEEDNA@idx1?$AA@ 1003d3ac     KAviFile.obj
 0002:000003b4       ??_C@_04NPHJJIEH@movi?$AA@ 1003d3b4     KAviFile.obj
 0002:000003bc       ??_C@_04LKOGMMKP@hdrl?$AA@ 1003d3bc     KAviFile.obj
 0002:000003c4       ??_C@_04PCOPKCKE@LIST?$AA@ 1003d3c4     KAviFile.obj
 0002:000003cc       ??_C@_04FIOHLLII@AVI?5?$AA@ 1003d3cc     KAviFile.obj
 0002:000003d4       ??_C@_04EPCGJKAP@RIFF?$AA@ 1003d3d4     KAviFile.obj
 0002:000003dc       ??_C@_04EBGENKEA@BM08?$AA@ 1003d3dc     KBitmap.obj
 0002:000003e4       ??_C@_04NOCFJNPJ@BM16?$AA@ 1003d3e4     KBitmap16.obj
 0002:000003f0       ??_7KNode@@6B@             1003d3f0     KCache.obj
 0002:000003f8       ??_7KStrNode@@6B@          1003d3f8     KCache.obj
 0002:00000408       ??_7KCacheNode@@6B@        1003d408     KCache.obj
 0002:00000418       ??_7KCache@@6B@            1003d418     KCache.obj
 0002:00000434       ??_7KDrawNode@@6B@         1003d434     KCanvas.obj
 0002:0000043c       ??_7KCodec@@6B@            1003d43c     KCodec.obj
 0002:0000044c       ??_7KCodecLzo@@6B@         1003d44c     KCodec.obj
 0002:00000458       ??_C@_0BD@MLEHEBMF@Screen?5BPP?5?5?5?5?$DN?5?$CFd?$AA@ 1003d458     KDDraw.obj
 0002:0000046c       ??_C@_0BD@HLLKJNDK@Screen?5Height?5?$DN?5?$CFd?$AA@ 1003d46c     KDDraw.obj
 0002:00000480       ??_C@_0BD@LIAFEFNA@Screen?5Width?5?5?$DN?5?$CFd?$AA@ 1003d480     KDDraw.obj
 0002:00000494       ??_C@_0BG@MANCJBJM@g_SetDisplayMode?$CI?$CJ?4?4?4?$AA@ 1003d494     KDDraw.obj
 0002:000004ac       ??_C@_0BD@CDJCACAP@Screen?5Pitch?5?5?$DN?5?$CFd?$AA@ 1003d4ac     KDDraw.obj
 0002:000004c0       ??_C@_0BG@GOPJNBOA@g_GetDisplayMode?$CI?$CJ?4?4?4?$AA@ 1003d4c0     KDDraw.obj
 0002:000004d8       ??_C@_0BF@EGEPKLID@RGB?5Bit?5Mask32?5?5?$DN?5?$CFx?$AA@ 1003d4d8     KDDraw.obj
 0002:000004f0       ??_C@_0BF@OMPDINPP@RGB?5Bit?5Mask16?5?5?$DN?5?$CFx?$AA@ 1003d4f0     KDDraw.obj
 0002:00000508       ??_C@_0BF@DJBOHAOP@RGB?5Bit?5Count?5?5?5?$DN?5?$CFd?$AA@ 1003d508     KDDraw.obj
 0002:00000520       ??_C@_0BF@LJNPKJOF@Surface?5Picth?5?5?5?$DN?5?$CFd?$AA@ 1003d520     KDDraw.obj
 0002:00000538       ??_C@_0BF@KNILAOIA@Surface?5Height?5?5?$DN?5?$CFd?$AA@ 1003d538     KDDraw.obj
 0002:00000550       ??_C@_0BF@ONJHLKDO@Surface?5Width?5?5?5?$DN?5?$CFd?$AA@ 1003d550     KDDraw.obj
 0002:00000568       ??_C@_0BG@EMNKHBAD@g_GetSurfaceDesc?$CI?$CJ?4?4?4?$AA@ 1003d568     KDDraw.obj
 0002:00000580       ??_C@_0CE@BNAMFCNF@DirectDraw?5?3?5CreateClipper?$CI?$CJ?5Fai@ 1003d580     KDDraw.obj
 0002:000005a4       ??_C@_0CF@KALADEHF@DirectDraw?5?3?5GetSurfaceDesc?$CI?$CJ?5Fa@ 1003d5a4     KDDraw.obj
 0002:000005cc       ??_C@_0CE@DEIGLOHE@DirectDraw?5?3?5CreateSurface?$CI?$CJ?5Fai@ 1003d5cc     KDDraw.obj
 0002:000005f0       ??_C@_0CF@NGMLLBEG@DirectDraw?5?3?5GetDisplayMode?$CI?$CJ?5Fa@ 1003d5f0     KDDraw.obj
 0002:00000618       ??_C@_0CF@MAKGFACE@DirectDraw?5?3?5SetDisplayMode?$CI?$CJ?5Fa@ 1003d618     KDDraw.obj
 0002:00000640       ??_C@_0CH@HKGGCPBO@DirectDraw?5?3?5CreateDirectDraw?$CI?$CJ?5@ 1003d640     KDDraw.obj
 0002:00000668       ??_C@_0BP@PBBJDAPI@Assert?5failed?5in?5?$CFs?0?5line?5?$DN?5?$CFi?$AA@ 1003d668     KDebug.obj
 0002:00000688       ??_C@_0BM@JNELKIKG@Unknown?5DirectDraw?5Errors?5?$CB?$AA@ 1003d688     KDError.obj
 0002:000006a4       ??_C@_0BP@CFDPGCFK@DDERR_DIRECTDRAWALREADYCREATED?$AA@ 1003d6a4     KDError.obj
 0002:000006c4       ??_C@_0O@MGEMDJJH@DDERR_GENERIC?$AA@ 1003d6c4     KDError.obj
 0002:000006d4       ??_C@_0BK@HJOPGIGH@DDERR_INCOMPATIBLEPRIMARY?$AA@ 1003d6d4     KDError.obj
 0002:000006f0       ??_C@_0BM@LMDGBJFD@DDERR_INVALIDDIRECTDRAWGUID?$AA@ 1003d6f0     KDError.obj
 0002:0000070c       ??_C@_0BC@GLNOPNKK@DDERR_INVALIDMODE?$AA@ 1003d70c     KDError.obj
 0002:00000720       ??_C@_0BC@DDIGIKID@DDERR_INVALIDCAPS?$AA@ 1003d720     KDError.obj
 0002:00000734       ??_C@_0BJ@PEGADMFO@DDERR_INVALIDPIXELFORMAT?$AA@ 1003d734     KDError.obj
 0002:00000750       ??_C@_0BE@KPNOKGED@DDERR_INVALIDOBJECT?$AA@ 1003d750     KDError.obj
 0002:00000764       ??_C@_0BE@CCPBMIBD@DDERR_INVALIDPARAMS?$AA@ 1003d764     KDError.obj
 0002:00000778       ??_C@_0BF@MAGKOGBC@DDERR_LOCKEDSURFACES?$AA@ 1003d778     KDError.obj
 0002:00000790       ??_C@_0BA@BFFEPDGJ@DDERR_NOALPHAHW?$AA@ 1003d790     KDError.obj
 0002:000007a0       ??_C@_0BM@PMEMMDPI@DDERR_NOCOOPERATIVELEVELSET?$AA@ 1003d7a0     KDError.obj
 0002:000007bc       ??_C@_0BF@NOEHEIDL@DDERR_NODIRECTDRAWHW?$AA@ 1003d7bc     KDError.obj
 0002:000007d4       ??_C@_0BC@DCFOAKAL@DDERR_NOEMULATION?$AA@ 1003d7d4     KDError.obj
 0002:000007e8       ??_C@_0BG@DHFIFBBC@DDERR_NOEXCLUSIVEMODE?$AA@ 1003d7e8     KDError.obj
 0002:00000800       ??_C@_0P@IEKAGFBG@DDERR_NOFLIPHW?$AA@ 1003d800     KDError.obj
 0002:00000810       ??_C@_0BB@LNEPLBGC@DDERR_NOMIPMAPHW?$AA@ 1003d810     KDError.obj
 0002:00000824       ??_C@_0BC@JKHLHDPI@DDERR_NOOVERLAYHW?$AA@ 1003d824     KDError.obj
 0002:00000838       ??_C@_0BC@MGOAKBHI@DDERR_NOZBUFFERHW?$AA@ 1003d838     KDError.obj
 0002:0000084c       ??_C@_0BC@JFAMHJIL@DDERR_OUTOFMEMORY?$AA@ 1003d84c     KDError.obj
 0002:00000860       ??_C@_0BH@IHGJFMGH@DDERR_OUTOFVIDEOMEMORY?$AA@ 1003d860     KDError.obj
 0002:00000878       ??_C@_0CC@FKFBEMJC@DDERR_PRIMARYSURFACEALREADYEXIST@ 1003d878     KDError.obj
 0002:0000089c       ??_C@_0BC@NLGPCHLD@DDERR_SURFACEBUSY?$AA@ 1003d89c     KDError.obj
 0002:000008b0       ??_C@_0BC@LLCNADOP@DDERR_UNSUPPORTED?$AA@ 1003d8b0     KDError.obj
 0002:000008c4       ??_C@_0BN@BPMHJIBH@Unknown?5DirectSound?5Errors?5?$CB?$AA@ 1003d8c4     KDError.obj
 0002:000008e4       ??_C@_0BA@COPOGMBA@DSERR_ALLOCATED?$AA@ 1003d8e4     KDError.obj
 0002:000008f4       ??_C@_0BJ@PODLOCNP@DSERR_ALREADYINITIALIZED?$AA@ 1003d8f4     KDError.obj
 0002:00000910       ??_C@_0BA@ECKDOBJD@DSERR_BADFORMAT?$AA@ 1003d910     KDError.obj
 0002:00000920       ??_C@_0BB@MLKAOHBD@DSERR_BUFFERLOST?$AA@ 1003d920     KDError.obj
 0002:00000934       ??_C@_0BF@KBGGCPDE@DSERR_CONTROLUNAVAIL?$AA@ 1003d934     KDError.obj
 0002:0000094c       ??_C@_0O@PDIJJBF@DSERR_GENERIC?$AA@ 1003d94c     KDError.obj
 0002:0000095c       ??_C@_0BC@NMCDDLDP@DSERR_INVALIDCALL?$AA@ 1003d95c     KDError.obj
 0002:00000970       ??_C@_0BD@MODBPMIE@DSERR_INVALIDPARAM?$AA@ 1003d970     KDError.obj
 0002:00000984       ??_C@_0BE@FNFJCFJP@DSERR_NOAGGREGATION?$AA@ 1003d984     KDError.obj
 0002:00000998       ??_C@_0P@HJFILJLC@DSERR_NODRIVER?$AA@ 1003d998     KDError.obj
 0002:000009a8       ??_C@_0BC@MPCGMKKM@DSERR_NOINTERFACE?$AA@ 1003d9a8     KDError.obj
 0002:000009bc       ??_C@_0BG@JFJBCEJM@DSERR_OTHERAPPHASPRIO?$AA@ 1003d9bc     KDError.obj
 0002:000009d4       ??_C@_0BC@KCMPJMLN@DSERR_OUTOFMEMORY?$AA@ 1003d9d4     KDError.obj
 0002:000009e8       ??_C@_0BG@FGFOLLAI@DSERR_PRIOLEVELNEEDED?$AA@ 1003d9e8     KDError.obj
 0002:00000a00       ??_C@_0BE@BMJCAPGM@DSERR_UNINITIALIZED?$AA@ 1003da00     KDError.obj
 0002:00000a14       ??_C@_0BC@IMOOOGNJ@DSERR_UNSUPPORTED?$AA@ 1003da14     KDError.obj
 0002:00000a28       ??_C@_0BN@GPPGKFBC@Unknown?5DirectInput?5Errors?5?$CB?$AA@ 1003da28     KDError.obj
 0002:00000a48       ??_C@_0P@PONCCEIK@DIERR_ACQUIRED?$AA@ 1003da48     KDError.obj
 0002:00000a58       ??_C@_0BJ@IKGGGNFD@DIERR_ALREADYINITIALIZED?$AA@ 1003da58     KDError.obj
 0002:00000a74       ??_C@_0BD@NCNAKIOE@DIERR_BADDRIVERVER?$AA@ 1003da74     KDError.obj
 0002:00000a88       ??_C@_0BN@FFKALFMN@DIERR_BETADIRECTINPUTVERSION?$AA@ 1003da88     KDError.obj
 0002:00000aa8       ??_C@_0BB@POLJKMIA@DIERR_DEVICEFULL?$AA@ 1003daa8     KDError.obj
 0002:00000abc       ??_C@_0BD@FMHOIMKN@DIERR_DEVICENOTREG?$AA@ 1003dabc     KDError.obj
 0002:00000ad0       ??_C@_0BE@LDGKMDCA@DIERR_EFFECTPLAYING?$AA@ 1003dad0     KDError.obj
 0002:00000ae4       ??_C@_0BB@NJGBBNPB@DIERR_HASEFFECTS?$AA@ 1003dae4     KDError.obj
 0002:00000af8       ??_C@_0O@IBGAFJOJ@DIERR_GENERIC?$AA@ 1003daf8     KDError.obj
 0002:00000b08       ??_C@_0BD@PEOCCDFL@DIERR_HANDLEEXISTS?$AA@ 1003db08     KDError.obj
 0002:00000b1c       ??_C@_0BH@IEOHCKK@DIERR_INCOMPLETEEFFECT?$AA@ 1003db1c     KDError.obj
 0002:00000b34       ??_C@_0BA@OLDKOKEA@DIERR_INPUTLOST?$AA@ 1003db34     KDError.obj
 0002:00000b44       ??_C@_0BD@PCBHGFBD@DIERR_INVALIDPARAM?$AA@ 1003db44     KDError.obj
 0002:00000b58       ??_C@_0P@KHNINLBF@DIERR_MOREDATA?$AA@ 1003db58     KDError.obj
 0002:00000b68       ??_C@_0BE@DDAOAFOB@DIERR_NOAGGREGATION?$AA@ 1003db68     KDError.obj
 0002:00000b7c       ??_C@_0BC@OKFLIMII@DIERR_NOINTERFACE?$AA@ 1003db7c     KDError.obj
 0002:00000b90       ??_C@_0BC@MCDCNLAF@DIERR_NOTACQUIRED?$AA@ 1003db90     KDError.obj
 0002:00000ba4       ??_C@_0BC@KDKAOABI@DIERR_NOTBUFFERED?$AA@ 1003dba4     KDError.obj
 0002:00000bb8       ??_C@_0BE@KPGCHIBI@DIERR_NOTDOWNLOADED?$AA@ 1003dbb8     KDError.obj
 0002:00000bcc       ??_C@_0BL@PDLDPEOA@DIERR_NOTEXCLUSIVEACQUIRED?$AA@ 1003dbcc     KDError.obj
 0002:00000be8       ??_C@_0P@LPHMIDHO@DIERR_NOTFOUND?$AA@ 1003dbe8     KDError.obj
 0002:00000bf8       ??_C@_0BF@INBHFIBN@DIERR_NOTINITIALIZED?$AA@ 1003dbf8     KDError.obj
 0002:00000c10       ??_C@_0BM@FGIBEKPK@DIERR_OLDDIRECTINPUTVERSION?$AA@ 1003dc10     KDError.obj
 0002:00000c2c       ??_C@_0BC@IHLCNKJJ@DIERR_OUTOFMEMORY?$AA@ 1003dc2c     KDError.obj
 0002:00000c40       ??_C@_0BC@KJJDKAPN@DIERR_UNSUPPORTED?$AA@ 1003dc40     KDError.obj
 0002:00000c54       ??_C@_0BH@KOPIGNPD@DirectInput?5release?5ok?$AA@ 1003dc54     KDInput.obj
 0002:00000c6c       ??_C@_0BE@HGAMOJIO@DirectInput?5init?5ok?$AA@ 1003dc6c     KDInput.obj
 0002:00000c80       ??_C@_0CM@FAMANDHN@DirectInput?5?3?5CreateKeyboardDevi@ 1003dc80     KDInput.obj
 0002:00000cac       ??_C@_0CJ@GJODNBGE@DirectInput?5?3?5CreateMouseDevice?$CI@ 1003dcac     KDInput.obj
 0002:00000cd8       ??_C@_0CJ@ENBKIDFB@DirectInput?5?3?5DirectInputCreate?$CI@ 1003dcd8     KDInput.obj
 0002:00000d04       ??_C@_0BH@ILOHKFJG@DirectSound?5release?5ok?$AA@ 1003dd04     KDSound.obj
 0002:00000d1c       ??_C@_0CM@PBJIIFAK@DirectSound?5?3?5SetCooperativeLeve@ 1003dd1c     KDSound.obj
 0002:00000d48       ??_C@_0CK@GHBIEHNE@DirectSound?5?3?5DirectSoundCreate?$CI@ 1003dd48     KDSound.obj
 0002:00000d74       ??_C@_0DF@DNGDDGMO@DirectSound?5?3?5Set?5Primary?5Sound?5@ 1003dd74     KDSound.obj
 0002:00000dac       ??_C@_0DB@HAKMFHLO@DirectSound?5?3?5Create?5Primary?5Sou@ 1003ddac     KDSound.obj
 0002:00000de0       ??_C@_0BE@CNMFGDIL@DirectSound?5init?5ok?$AA@ 1003dde0     KDSound.obj
 0002:00000df8       ??_7KScript@@6B@           1003ddf8     KEicScript.obj
 0002:00000e1c       ??_7KEicScript@@6B@        1003de1c     KEicScript.obj
 0002:00000e40       ??_C@_0CA@BABBEBAL@There?5are?5errors?5in?5Eiclib?4dll?$CB?$AA@ 1003de40     KEicScript.obj
 0002:00000e60       ??_C@_0BE@IJEIGJBN@Eiclib?4dll?5load?5Ok?$CB?$AA@ 1003de60     KEicScript.obj
 0002:00000e74       ??_C@_0M@KINEHAFI@EiC_stdCLib?$AA@ 1003de74     KEicScript.obj
 0002:00000e80       ??_C@_07LOHDEBHE@EiC_run?$AA@ 1003de80     KEicScript.obj
 0002:00000e88       ??_C@_0N@NDIALAJM@EiC_init_EiC?$AA@ 1003de88     KEicScript.obj
 0002:00000e98       ??_C@_0BH@JNEODBKM@Can?8t?5load?5Eiclib?4dll?$CB?$AA@ 1003de98     KEicScript.obj
 0002:00000eb0       ??_C@_0M@EKKCHDPB@?2eiclib?4dll?$AA@ 1003deb0     KEicScript.obj
 0002:00000ec0       ??_7KLuaScript@@6B@        1003dec0     KEicScriptSet.obj
 0002:00000ee8       ??_7KScriptSet@@6B@        1003dee8     KEicScriptSet.obj
 0002:00000f14       ??_7KEicScriptSet@@6B@     1003df14     KEicScriptSet.obj
 0002:00000f3c       ??_C@_09IABGHBLK@TMainForm?$AA@ 1003df3c     KEngine.obj
 0002:00000f48       ??_C@_07HNAHLKEG@MyDebug?$AA@ 1003df48     KEngine.obj
 0002:00000f50       ??_C@_0CI@FCPIBMDN@KEvent?3?3KEvent?$CI?$CJ?3?5CreateEvent?$CI?$CJ?5@ 1003df50     KEvent.obj
 0002:00000f78       ??_C@_02JDPG@rb?$AA@       1003df78     KFile.obj
 0002:00000f7c       ??_C@_03BFHAFKOB@wb?$CL?$AA@ 1003df7c     KFile.obj
 0002:00000f80       ??_C@_02BOGAIONP@ab?$AA@   1003df80     KFile.obj
 0002:00000f84       ??_C@_03EMIMMIHL@?$CK?4?$CK?$AA@ 1003df84     KFileCopy.obj
 0002:00000f88       ??_C@_04KAAOILJH@?2?4?4?2?$AA@ 1003df88     KFilePath.obj
 0002:00000f90       ??_C@_03HLLNOJEL@?2?4?2?$AA@ 1003df90     KFilePath.obj
 0002:00000f94       ??_C@_0O@HDGLKCCN@RootPath?5?$DN?5?$CFs?$AA@ 1003df94     KFilePath.obj
 0002:00000fa4       ??_C@_0BB@PDKEMDJM@set?5path?5?$CFs?$CI?$CFd?$CJ?6?$AA@ 1003dfa4     KFilePath.obj
 0002:00000fb8       ??_C@_0P@GDPIBNJJ@set?5path?5NULL?6?$AA@ 1003dfb8     KFilePath.obj
 0002:00000fc8       ??_C@_0N@KMPFMEPK@set?5path?5?$CFs?6?$AA@ 1003dfc8     KFilePath.obj
 0002:00000fd8       ??_C@_01KICIPPFI@?2?$AA@   1003dfd8     KFilePath.obj
 0002:00000fdc       ??_C@_02FHMLMLAN@C?3?$AA@  1003dfdc     KFilePath.obj
 0002:00000fe0       ??_C@_01LFCBOECM@?4?$AA@   1003dfe0     KFilePath.obj
 0002:00000fe4       ??_C@_03DFMKGHNB@ASF?$AA@  1003dfe4     KFont.obj
 0002:00000fe8       ??_C@_0BD@FEBNPIAP@KFont?3?3Load?$CI?$CFs?$CJ?4?4?4?$AA@ 1003dfe8     KFont.obj
 0002:00000ffc       ??_C@_0BD@KKOOCPFG@KFont?3?3Save?$CI?$CFs?$CJ?4?4?4?$AA@ 1003dffc     KFont.obj
 0002:00001010       ??_C@_0CI@JJKGFELH@KFont?3?3AddWord?$CI?$CJ?5Failed?5?3?5Size?5o@ 1003e010     KFont.obj
 0002:00001038       ??_C@_03LMHIHEFE@89a?$AA@  1003e038     KGifFile.obj
 0002:0000103c       ??_C@_03LGOGFJFO@87a?$AA@  1003e03c     KGifFile.obj
 0002:00001040       ??_C@_03BBABOKL@GIF?$AA@   1003e040     KGifFile.obj
 0002:00001048       ??_7KHashNode@@6B@         1003e048     KHashNode.obj
 0002:00001054       ??_C@_02PCIJFNDE@?$AN?6?$AA@ 1003e054     KIniFile.obj
 0002:00001058       ??_C@_08GCDGAFNO@?$CFs?$CFc?$CFs?$AN?6?$AA@ 1003e058     KIniFile.obj
 0002:00001064       ??_C@_04LLEBNMDN@?$CFs?$AN?6?$AA@ 1003e064     KIniFile.obj
 0002:0000106c       ??_C@_01LBDDMOBJ@?$FN?$AA@ 1003e06c     KIniFile.obj
 0002:00001070       ??_C@_02DPKJAMEF@?$CFd?$AA@ 1003e070     KIniFile.obj
 0002:00001074       ??_C@_05KABNCBHK@?$CFd?0?$CFd?$AA@ 1003e074     KIniFile.obj
 0002:0000107c       ??_C@_02NJPGOMH@?$CFf?$AA@ 1003e07c     KIniFile.obj
 0002:00001080       ??_C@_05OIOLBAJI@?$CFf?0?$CFf?$AA@ 1003e080     KIniFile.obj
 0002:00001088       ??_C@_04NOJCDH@?$CF02x?$AA@ 1003e088     KIniFile.obj
 0002:0000108d       ??_C@_00CNPNBAHC@?$AA@     1003e08d     KIniFile.obj
 0002:00001090       ??_C@_08GJNPJIKN@?$CFf?0?$CFf?0?$CFf?$AA@ 1003e090     KIniFile.obj
 0002:0000109c       ??_C@_0M@JJJBFJKB@?$CFf?0?$CFf?0?$CFf?0?$CFf?$AA@ 1003e09c     KIniFile.obj
 0002:000010a8       ??_C@_06GBJGBOD@?$FLMAIN?$FN?$AA@ 1003e0a8     KIniFile.obj
 0002:000010b0       ??_C@_0BK@GOEAHJJL@Ini?5file?5unpack?5fail?5?3?5?$CFs?$AA@ 1003e0b0     KIniFile.obj
 0002:000010cc       ??_C@_0BJ@PAKKDDBM@Can?8t?5open?5ini?5file?5?3?5?$CFs?$AA@ 1003e0cc     KIniFile.obj
 0002:000010e8       ??_C@_0BM@IOJFPMDD@?$FLerror?$FNNode?3?$CFd?5Remove?5twice?$AA@ 1003e0e8     KLinkArray.obj
 0002:00001104       ??_C@_0BM@KKJGFOPJ@?$FLerror?$FNNode?3?$CFd?5Insert?5twice?$AA@ 1003e104     KLinkArray.obj
 0002:00001120       ??_C@_04GHJNJNPO@main?$AA@ 1003e120     KLuaScript.obj
 0002:00001128       ??_C@_0BH@PEGLDDAH@ScriptError?5?$CFd?4?5?$CI?$CFs?$CJ?5?6?$AA@ 1003e128     KLuaScript.obj
 0002:00001140       ??_C@_0BL@CNCKEAGJ@ScriptError?5?$CFd?3?$FL?$CFd?$FN?5?$CI?$CFs?$CJ?5?6?$AA@ 1003e140     KLuaScript.obj
 0002:0000115c       ??_C@_0CD@OGHCICIC@Load?5Script?5?$CFs?5?$LD?v?O?V?R?l?$LD?$KD?$KD?$KM?G?k?$LM?l?$LC?i?$CB@ 1003e15c     KLuaScript.obj
 0002:00001184       ??_7KStackNode@@6B@        1003e184     KLubCmpl_Blocker.obj
 0002:0000118c       ??_7KLineNode@@6B@         1003e18c     KLubCmpl_Blocker.obj
 0002:00001190       ??_C@_0L@OIOFAEIB@end?$DL?9?9main?$AA@ 1003e190     KLubCmpl_Blocker.obj
 0002:0000119c       ??_C@_0BA@ONNEMBBJ@function?5main?$CI?$CJ?$AA@ 1003e19c     KLubCmpl_Blocker.obj
 0002:000011ac       ??_C@_0BJ@HHAAAOBA@Can?8t?5open?5tab?5file?5?3?5?$CFs?$AA@ 1003e1ac     KLubCmpl_Blocker.obj
 0002:000011c8       ??_C@_0N@BAONOENM@Push?5?$CI?$CFd?$CJ?5?$CFs?$AA@ 1003e1c8     KLubCmpl_Blocker.obj
 0002:000011d8       ??_C@_0N@OCENMABE@Pop?5?5?$CI?$CFd?$CJ?5?$CFs?$AA@ 1003e1d8     KLubCmpl_Blocker.obj
 0002:000011e8       ??_C@_0CD@DFIBLHIJ@?6?9?9?9?9?9?9?9?9?9?9?9?9?9?9?9END?9?9?9?9?9?9?9?9?9?9?9?9?9@ 1003e1e8     KLubCmpl_Blocker.obj
 0002:0000120c       ??_C@_02DKCKIIND@?$CFs?$AA@ 1003e20c     KLubCmpl_Blocker.obj
 0002:00001210       ??_C@_0CF@HMAEBCEH@?6?9?9?9?9?9?9?9?9?9?9?9?9?9?9?9BEGIN?9?9?9?9?9?9?9?9?9?9?9@ 1003e210     KLubCmpl_Blocker.obj
 0002:00001238       ??_C@_0DG@PBCGGPCJ@?$CFs?5Goto?$CI?$CCAutoLabel?$CFd?$CC?$CJ?5else?5Goto@ 1003e238     KLubCmpl_Blocker.obj
 0002:00001270       ??_C@_06CAACNEC@elseif?$AA@ 1003e270     KLubCmpl_Blocker.obj
 0002:00001278       ??_C@_02HEBPBKGD@if?$AA@   1003e278     KLubCmpl_Blocker.obj
 0002:0000127c       ??_C@_0BI@PKMLLKGC@Goto?$CI?$CCReturnLabel?$CFd?$CC?$CJ?$DL?6?$AA@ 1003e27c     KLubCmpl_Blocker.obj
 0002:00001294       ??_C@_0BN@BCGLHEAP@?$CFs?5Goto?$CI?$CCAutoLabel?$CFd?$CC?$CJ?5end?$DL?6?$AA@ 1003e294     KLubCmpl_Blocker.obj
 0002:000012b4       ??_C@_0BI@IKGGJPNN@?6Label?$CI?$CCAutoLabel?$CFd?$CC?$CJ?$DL?6?$AA@ 1003e2b4     KLubCmpl_Blocker.obj
 0002:000012cc       ??_C@_0BK@MKKCOCDP@?6Label?$CI?$CCReturnLabel?$CFd?$CC?$CJ?$DL?6?$AA@ 1003e2cc     KLubCmpl_Blocker.obj
 0002:000012e8       ??_C@_04FHMCPBIP@else?$AA@ 1003e2e8     KLubCmpl_Blocker.obj
 0002:000012f0       ??_C@_03JBJLGPFL@end?$AA@  1003e2f0     KLubCmpl_Blocker.obj
 0002:000012f4       ??_C@_0BP@KJBBFHKO@g_MemAlloc?$CI?$CJ?5Failed?0?5Size?5?$DN?5?$CFd?$AA@ 1003e2f4     KMemBase.obj
 0002:00001314       ??_C@_0BO@IOIGKIMO@g_MemFree?$CI?$CJ?5Failed?0?5Size?5?$DN?5?$CFd?$AA@ 1003e314     KMemBase.obj
 0002:00001334       ??_C@_0CD@KPJNFFII@KMemList?3?3Leak?5Detected?0?5Size?5?$DN?5@ 1003e334     KMemBase.obj
 0002:00001358       ??_C@_0BN@FLMPGJJJ@Memory?5Corrupted?5?3?5Size?5?$DN?5?$CFd?$AA@ 1003e358     KMemManager.obj
 0002:00001378       ??_C@_0CA@IEOKIHEL@KMemManager?3?3Free?$CIp?$CJ?$DL?5p?5?$DN?5NULL?$CB?$AA@ 1003e378     KMemManager.obj
 0002:00001398       ??_C@_0CG@DOOAFIOB@KMemManager?3?3Leak?5Detected?0?5Size@ 1003e398     KMemManager.obj
 0002:000013c0       ??_C@_0BM@HPHENIAD@KMemStack?5?3?5Chunk?5over?5flow?$AA@ 1003e3c0     KMemStack.obj
 0002:000013e4       ??_7KMusic@@6B@            1003e3e4     KMp3Music.obj
 0002:0000143c       ??_7KMp3Music@@6B@         1003e43c     KMp3Music.obj
 0002:000014a8       ??_C@_0CA@FIAEGFHL@KMp3Music?3?5mp3?5decode?5init?5fail?$AA@ 1003e4a8     KMp3Music.obj
 0002:000014c8       ??_C@_0CA@IBKIBHOD@KMp3Music?3?5mp3?5decode?5head?5fail?$AA@ 1003e4c8     KMp3Music.obj
 0002:000014e8       ??_C@_0CA@HCDOGJFO@KMp3Music?3?5bad?5sync?5in?5mp3?5file?$AA@ 1003e4e8     KMp3Music.obj
 0002:0000150c       ??_7KMp4Audio@@6B@         1003e50c     KMp4Audio.obj
 0002:0000157c       ??_7KVideo@@6B@            1003e57c     KMp4Movie.obj
 0002:000015b0       ??_7KMp4Video@@6B@         1003e5b0     KMp4Movie.obj
 0002:000015e0       ??_C@_0BE@LGGOGPGP@mp4lib?4dll?5load?5Ok?$CB?$AA@ 1003e5e0     KMp4Video.obj
 0002:000015f4       ??_C@_0CA@IAFPILHC@There?5are?5errors?5in?5mp4lib?4dll?$CB?$AA@ 1003e5f4     KMp4Video.obj
 0002:00001614       ??_C@_06LHHLBPIK@decore?$AA@ 1003e614     KMp4Video.obj
 0002:0000161c       ??_C@_0BH@NAAPLNF@Can?8t?5load?5mp4lib?4dll?$CB?$AA@ 1003e61c     KMp4Video.obj
 0002:00001634       ??_C@_0M@DNOJBECJ@?2mp4lib?4dll?$AA@ 1003e634     KMp4Video.obj
 0002:00001640       ??_C@_0CE@HOOILCAD@KMp4Video?3?5MPEG?94?5decoder?5init?5f@ 1003e640     KMp4Video.obj
 0002:00001664       ??_C@_0CM@DONLBBCL@KMp4Video?3?5Not?5a?5MPEG?94?5compress@ 1003e664     KMp4Video.obj
 0002:00001690       ??_C@_04GIOBGEIC@DIVX?$AA@ 1003e690     KMp4Video.obj
 0002:00001698       ??_C@_04KENLIGPK@divx?$AA@ 1003e698     KMp4Video.obj
 0002:000016a4       ??_7KMpgMusic@@6B@         1003e6a4     KMpgMusic.obj
 0002:00001704       ??_C@_0CA@MKENGNMB@There?5are?5errors?5in?5Mpglib?4dll?$CB?$AA@ 1003e704     KMpgMusic.obj
 0002:00001724       ??_C@_0BE@NCDKMOHO@Mpglib?4dll?5load?5Ok?$CB?$AA@ 1003e724     KMpgMusic.obj
 0002:00001738       ??_C@_0BA@NPECBCFI@mp3_decode_data?$AA@ 1003e738     KMpgMusic.obj
 0002:00001748       ??_C@_0BA@PCEKPNNA@mp3_decode_head?$AA@ 1003e748     KMpgMusic.obj
 0002:00001758       ??_C@_0BA@FMPKBAII@mp3_decode_init?$AA@ 1003e758     KMpgMusic.obj
 0002:00001768       ??_C@_0BH@FPCDMGJO@Can?8t?5load?5mpglib?4dll?$CB?$AA@ 1003e768     KMpgMusic.obj
 0002:00001780       ??_C@_0M@HGDGGJJK@?2mpglib?4dll?$AA@ 1003e780     KMpgMusic.obj
 0002:0000178c       ??_C@_0CA@CGLPMGOA@KMpgMusic?3?5mp3?5decode?5head?5fail?$AA@ 1003e78c     KMpgMusic.obj
 0002:000017ac       ??_C@_0CA@NFCJLIFN@KMpgMusic?3?5bad?5sync?5in?5mp3?5file?$AA@ 1003e7ac     KMpgMusic.obj
 0002:000017d0       ??_7KMsgNode@@6B@          1003e7d0     KMsgNode.obj
 0002:000017d4       ??_C@_0CH@KEALJJHI@KWavMusic?5?3?5Create?5sound?5buffer?5@ 1003e7d4     KMusic.obj
 0002:000017fc       ??_C@_0BN@KGDJMBKL@KMusic?5?3?5Create?5event?5failed?$AA@ 1003e7fc     KMusic.obj
 0002:0000181c       ??_C@_0CL@OOKNNMOC@KMusic?5?3?5Set?5notification?5positi@ 1003e81c     KMusic.obj
 0002:00001848       ??_C@_0BP@OCJDLMFH@KMusic?5?3?5QueryInterface?5failed?$AA@ 1003e848     KMusic.obj
 0002:0000186c       ??_7KOctreeNode@@6B@       1003e86c     KOctree.obj
 0002:00001874       ??_7KOctree@@6B@           1003e874     KOctree.obj
 0002:00001878       ??_C@_07FABLKDFK@PACKAGE?$AA@ 1003e878     KPakData.obj
 0002:00001880       ??_C@_0BJ@CGNFNOIN@PakList?5Open?5?3?5?$CFs?5?4?4?4?5Ok?$AA@ 1003e880     KPakList.obj
 0002:0000189c       ??_C@_07FEDAHNII@Package?$AA@ 1003e89c     KPakList.obj
 0002:000018a4       ??_C@_04HMIIHGGM@Path?$AA@ 1003e8a4     KPakList.obj
 0002:000018ac       ??_C@_0BE@BHGOJKOL@Encode?5time?5?$DN?5?$CFd?5ms?$AA@ 1003e8ac     KPakTool.obj
 0002:000018c0       ??_C@_04EDDHFNCG@PACK?$AA@ 1003e8c0     KPakTool.obj
 0002:000018c8       ??_C@_0BE@NIPODKIB@Decode?5time?5?$DN?5?$CFd?5ms?$AA@ 1003e8c8     KPakTool.obj
 0002:000018dc       ??_C@_02DJGKEECL@?4?4?$AA@ 1003e8dc     KScanDir.obj
 0002:000018e0       ??_C@_01NBENCBCI@?$CK?$AA@ 1003e8e0     KScanDir.obj
 0002:000018e4       ??_C@_02GMLFBBN@wb?$AA@    1003e8e4     KScanDir.obj
 0002:000018ec       ??_7KScriptCache@@6B@      1003e8ec     KScriptCache.obj
 0002:00001908       ??_7KStepLuaScript@@6B@    1003e908     KScriptList.obj
 0002:00001930       ??_7KScriptNode@@6B@       1003e930     KScriptList.obj
 0002:00001938       ??_C@_0EN@DHPMNFMD@UnKnown?5ScriptSet?5KeyStyle?3?$FL?$CFd?$FN?4@ 1003e938     KScriptSet.obj
 0002:00001988       ??_C@_0DD@HMBPLMDI@Can?5not?5Create?5Script?5Instance?5?0@ 1003e988     KScriptSet.obj
 0002:000019c0       ??_C@_0EM@KGFHPCGJ@The?5ScriptSet?8s?5Key?5Is?5Not?5a?5Str@ 1003e9c0     KScriptSet.obj
 0002:00001a10       ??_C@_0EM@NIFNEPGA@The?5ScriptSet?8s?5Key?5Is?5Not?5a?5Num@ 1003ea10     KScriptSet.obj
 0002:00001a5c       ??_C@_0CF@MCNLIFHH@Have?5Exist?5This?5Key?5In?5TScript?5S@ 1003ea5c     KScriptSet.obj
 0002:00001a88       ??_C@_0EB@KPGMAIDL@?$CF02X?$CF02X?$CF02X?$CF02X?$CF02X?$CF02X?$CF02X?$CF02X@ 1003ea88     KSG_MD5_String.obj
 0002:00001ad0       ??_7TBinTreeNode@@6B@      1003ead0     KSortBinTree.obj
 0002:00001ae0       ??_7KSoundCache@@6B@       1003eae0     KSoundCache.obj
 0002:00001af8       ??_C@_03ODDCJBMJ@SPR?$AA@  1003eaf8     KSprite.obj
 0002:00001b00       ??_7KSpriteCache@@6B@      1003eb00     KSpriteCache.obj
 0002:00001b18       ??_C@_04OCFLEIIF@SPR?$AA?$AA@ 1003eb18     KSpriteMaker.obj
 0002:00001b20       ??_C@_02ELHCGPCE@ds?$AA@   1003eb20     KStepLuaScript.obj
 0002:00001b24       ??_C@_04CBDOJHE@On?$CFs?$AA@ 1003eb24     KStepLuaScript.obj
 0002:00001b2c       ??_C@_0BL@IEJKCHEI@?$LN?E?$LB?$LO?$LE?m?N?s?3?5GotoLabel?$CI?$CJ?5?$DN?5?$CFs?$AA@ 1003eb2c     KStepLuaScript.obj
 0002:00001b48       ??_C@_0M@NNKJFOOO@Label?$CI?$CC?$CFs?$CC?$CJ?$AA@ 1003eb48     KStepLuaScript.obj
 0002:00001b54       ??_C@_08ICIBAHFH@Exit?$CI?$CJ?$DL?6?$AA@ 1003eb54     KStepLuaScript.obj
 0002:00001b64       ??_7KITabFile@@6B@         1003eb64     KTabFile.obj
 0002:00001bac       ??_7KTabFile@@6B@          1003ebac     KTabFile.obj
 0002:00001bf4       ??_7KTabFileCtrl@@6B@      1003ebf4     KTabFileCtrl.obj
 0002:00001c3c       ??_7TTabLineNode@@6B@      1003ec3c     KTabFileCtrl.obj
 0002:00001c44       ??_7TTabColNode@@6B@       1003ec44     KTabFileCtrl.obj
 0002:00001c48       ??_C@_01EEMJAFIK@?6?$AA@   1003ec48     KTabFileCtrl.obj
 0002:00001c4c       ??_C@_01LIIJDEN@?$AN?$AA@  1003ec4c     KTabFileCtrl.obj
 0002:00001c50       ??_C@_03MOCCBCKP@?$CFs?7?$AA@ 1003ec50     KTabFileCtrl.obj
 0002:00001c54       ??_C@_01GPOEFGEJ@?7?$AA@   1003ec54     KTabFileCtrl.obj
 0002:00001c58       ??_C@_0BB@PPMJBDI@start?5thread?5?$CFd?6?$AA@ 1003ec58     KThread.obj
 0002:00001c6c       ??_C@_0BN@FBIMLCNN@KVideo?5?3?5Create?5event?5failed?$AA@ 1003ec6c     KVideo.obj
 0002:00001df4       ??_C@_0CO@FBHLLPML@KWavFile?3?5Unsuport?5one?5channel?5I@ 1003edf4     KWavFile.obj
 0002:00001e2c       ??_7KWavMusic@@6B@         1003ee2c     KWavMusic.obj
 0002:00001e7c       ??_C@_06BDAJNMKN@?5Title?$AA@ 1003ee7c     KWin32App.obj
 0002:00001e84       ??_C@_06KJBPJHMJ@?5Class?$AA@ 1003ee84     KWin32App.obj
 0002:00001e8c       ??_C@_0BP@DGPKKBIG@KZipCodec?3?3lookat_code?$CI?$CJ?5error?$AA@ 1003ee8c     KZipCodec.obj
 0002:00001eac       ??_C@_0CD@MEABOAP@KZipCodec?3?3extract_inflate?$CI?$CJ?5err@ 1003eeac     KZipCodec.obj
 0002:00001ed0       ??_C@_0CE@KAOPPIJN@KZipCodec?3?5Unsuport?5compress?5met@ 1003eed0     KZipCodec.obj
 0002:00001ef4       ??_C@_0CE@PFIIBCPG@KZipCodec?3?5The?5Zip?5File?5is?5Encry@ 1003eef4     KZipCodec.obj
 0002:00001f18       ??_C@_0BL@DKFGJBB@PakList?5Open?5?3?5?$CFs?5?4?4?4?5Fail?$AA@ 1003ef18     KZipList.obj
 0002:00002050       __real@3fefff2e40000000    1003f050     Text.obj
 0002:00002058       __real@3ff0000000000000    1003f058     Text.obj
 0002:00002060       __real@4008000000000000    1003f060     Text.obj
 0002:00002068       __real@40000000            1003f068     Text.obj
 0002:00002070       __real@4000000000000000    1003f070     Text.obj
 0002:00002078       __real@00000000            1003f078     Text.obj
 0002:000023c8       __ucl_crc32_table          1003f3c8     ucl_crc.obj
 0002:000027c8       ___ucl_copyright           1003f7c8     ucl_util.obj
 0002:00002970       ??_C@_04HEHKDPL@1?401?$AA@ 1003f970     ucl_util.obj
 0002:00002978       ??_C@_0M@NNLHNJAP@Jan?502?52002?$AA@ 1003f978     ucl_util.obj
 0002:00002984       _GUID_MAX_POWER_SAVINGS    1003f984     dxguid:dxguid.obj
 0002:00002994       _GUID_MIN_POWER_SAVINGS    1003f994     dxguid:dxguid.obj
 0002:000029a4       _GUID_TYPICAL_POWER_SAVINGS 1003f9a4     dxguid:dxguid.obj
 0002:000029b4       _NO_SUBGROUP_GUID          1003f9b4     dxguid:dxguid.obj
 0002:000029c4       _ALL_POWERSCHEMES_GUID     1003f9c4     dxguid:dxguid.obj
 0002:000029d4       _GUID_POWERSCHEME_PERSONALITY 1003f9d4     dxguid:dxguid.obj
 0002:000029e4       _GUID_ACTIVE_POWERSCHEME   1003f9e4     dxguid:dxguid.obj
 0002:000029f4       _GUID_VIDEO_SUBGROUP       1003f9f4     dxguid:dxguid.obj
 0002:00002a04       _GUID_VIDEO_POWERDOWN_TIMEOUT 1003fa04     dxguid:dxguid.obj
 0002:00002a14       _GUID_VIDEO_ADAPTIVE_POWERDOWN 1003fa14     dxguid:dxguid.obj
 0002:00002a24       _GUID_MONITOR_POWER_ON     1003fa24     dxguid:dxguid.obj
 0002:00002a34       _GUID_DISK_SUBGROUP        1003fa34     dxguid:dxguid.obj
 0002:00002a44       _GUID_DISK_POWERDOWN_TIMEOUT 1003fa44     dxguid:dxguid.obj
 0002:00002a54       _GUID_DISK_ADAPTIVE_POWERDOWN 1003fa54     dxguid:dxguid.obj
 0002:00002a64       _GUID_SLEEP_SUBGROUP       1003fa64     dxguid:dxguid.obj
 0002:00002a74       _GUID_SLEEP_IDLE_THRESHOLD 1003fa74     dxguid:dxguid.obj
 0002:00002a84       _GUID_STANDBY_TIMEOUT      1003fa84     dxguid:dxguid.obj
 0002:00002a94       _GUID_HIBERNATE_TIMEOUT    1003fa94     dxguid:dxguid.obj
 0002:00002aa4       _GUID_HIBERNATE_FASTS4_POLICY 1003faa4     dxguid:dxguid.obj
 0002:00002ab4       _GUID_CRITICAL_POWER_TRANSITION 1003fab4     dxguid:dxguid.obj
 0002:00002ac4       _GUID_SYSTEM_AWAYMODE      1003fac4     dxguid:dxguid.obj
 0002:00002ad4       _GUID_ALLOW_AWAYMODE       1003fad4     dxguid:dxguid.obj
 0002:00002ae4       _GUID_ALLOW_STANDBY_STATES 1003fae4     dxguid:dxguid.obj
 0002:00002af4       _GUID_ALLOW_RTC_WAKE       1003faf4     dxguid:dxguid.obj
 0002:00002b04       _GUID_SYSTEM_BUTTON_SUBGROUP 1003fb04     dxguid:dxguid.obj
 0002:00002b14       _GUID_POWERBUTTON_ACTION   1003fb14     dxguid:dxguid.obj
 0002:00002b24       _GUID_POWERBUTTON_ACTION_FLAGS 1003fb24     dxguid:dxguid.obj
 0002:00002b34       _GUID_SLEEPBUTTON_ACTION   1003fb34     dxguid:dxguid.obj
 0002:00002b44       _GUID_SLEEPBUTTON_ACTION_FLAGS 1003fb44     dxguid:dxguid.obj
 0002:00002b54       _GUID_USERINTERFACEBUTTON_ACTION 1003fb54     dxguid:dxguid.obj
 0002:00002b64       _GUID_LIDCLOSE_ACTION      1003fb64     dxguid:dxguid.obj
 0002:00002b74       _GUID_LIDCLOSE_ACTION_FLAGS 1003fb74     dxguid:dxguid.obj
 0002:00002b84       _GUID_LIDOPEN_POWERSTATE   1003fb84     dxguid:dxguid.obj
 0002:00002b94       _GUID_BATTERY_SUBGROUP     1003fb94     dxguid:dxguid.obj
 0002:00002ba4       _GUID_BATTERY_DISCHARGE_ACTION_0 1003fba4     dxguid:dxguid.obj
 0002:00002bb4       _GUID_BATTERY_DISCHARGE_LEVEL_0 1003fbb4     dxguid:dxguid.obj
 0002:00002bc4       _GUID_BATTERY_DISCHARGE_FLAGS_0 1003fbc4     dxguid:dxguid.obj
 0002:00002bd4       _GUID_BATTERY_DISCHARGE_ACTION_1 1003fbd4     dxguid:dxguid.obj
 0002:00002be4       _GUID_BATTERY_DISCHARGE_LEVEL_1 1003fbe4     dxguid:dxguid.obj
 0002:00002bf4       _GUID_BATTERY_DISCHARGE_FLAGS_1 1003fbf4     dxguid:dxguid.obj
 0002:00002c04       _GUID_BATTERY_DISCHARGE_ACTION_2 1003fc04     dxguid:dxguid.obj
 0002:00002c14       _GUID_BATTERY_DISCHARGE_LEVEL_2 1003fc14     dxguid:dxguid.obj
 0002:00002c24       _GUID_BATTERY_DISCHARGE_FLAGS_2 1003fc24     dxguid:dxguid.obj
 0002:00002c34       _GUID_BATTERY_DISCHARGE_ACTION_3 1003fc34     dxguid:dxguid.obj
 0002:00002c44       _GUID_BATTERY_DISCHARGE_LEVEL_3 1003fc44     dxguid:dxguid.obj
 0002:00002c54       _GUID_BATTERY_DISCHARGE_FLAGS_3 1003fc54     dxguid:dxguid.obj
 0002:00002c64       _GUID_PROCESSOR_SETTINGS_SUBGROUP 1003fc64     dxguid:dxguid.obj
 0002:00002c74       _GUID_PROCESSOR_THROTTLE_POLICY 1003fc74     dxguid:dxguid.obj
 0002:00002c84       _GUID_PROCESSOR_THROTTLE_MAXIMUM 1003fc84     dxguid:dxguid.obj
 0002:00002c94       _GUID_PROCESSOR_THROTTLE_MINIMUM 1003fc94     dxguid:dxguid.obj
 0002:00002ca4       _GUID_PROCESSOR_IDLESTATE_POLICY 1003fca4     dxguid:dxguid.obj
 0002:00002cb4       _GUID_PROCESSOR_PERFSTATE_POLICY 1003fcb4     dxguid:dxguid.obj
 0002:00002cc4       _GUID_SYSTEM_COOLING_POLICY 1003fcc4     dxguid:dxguid.obj
 0002:00002cd4       _GUID_LOCK_CONSOLE_ON_WAKE 1003fcd4     dxguid:dxguid.obj
 0002:00002ce4       _GUID_ACDC_POWER_SOURCE    1003fce4     dxguid:dxguid.obj
 0002:00002cf4       _GUID_LIDSWITCH_STATE_CHANGE 1003fcf4     dxguid:dxguid.obj
 0002:00002d04       _GUID_BATTERY_PERCENTAGE_REMAINING 1003fd04     dxguid:dxguid.obj
 0002:00002d14       _GUID_IDLE_BACKGROUND_TASK 1003fd14     dxguid:dxguid.obj
 0002:00002d24       _GUID_BACKGROUND_TASK_NOTIFICATION 1003fd24     dxguid:dxguid.obj
 0002:00002d34       _GUID_APPLAUNCH_BUTTON     1003fd34     dxguid:dxguid.obj
 0002:00002d44       _GUID_PCIEXPRESS_SETTINGS_SUBGROUP 1003fd44     dxguid:dxguid.obj
 0002:00002d54       _GUID_PCIEXPRESS_ASPM_POLICY 1003fd54     dxguid:dxguid.obj
 0002:00002d64       _PPM_PERFSTATE_CHANGE_GUID 1003fd64     dxguid:dxguid.obj
 0002:00002d74       _PPM_PERFSTATE_DOMAIN_CHANGE_GUID 1003fd74     dxguid:dxguid.obj
 0002:00002d84       _PPM_IDLESTATE_CHANGE_GUID 1003fd84     dxguid:dxguid.obj
 0002:00002d94       _PPM_PERFSTATES_DATA_GUID  1003fd94     dxguid:dxguid.obj
 0002:00002da4       _PPM_IDLESTATES_DATA_GUID  1003fda4     dxguid:dxguid.obj
 0002:00002db4       _PPM_IDLE_ACCOUNTING_GUID  1003fdb4     dxguid:dxguid.obj
 0002:00002dc4       _PPM_THERMALCONSTRAINT_GUID 1003fdc4     dxguid:dxguid.obj
 0002:00002dd4       _PPM_PERFMON_PERFSTATE_GUID 1003fdd4     dxguid:dxguid.obj
 0002:00002de4       _PPM_THERMAL_POLICY_CHANGE_GUID 1003fde4     dxguid:dxguid.obj
 0002:00002df4       _CLSID_DirectDraw          1003fdf4     dxguid:dxguid.obj
 0002:00002e04       _CLSID_DirectDraw7         1003fe04     dxguid:dxguid.obj
 0002:00002e14       _CLSID_DirectDrawClipper   1003fe14     dxguid:dxguid.obj
 0002:00002e24       _IID_IDirectDraw           1003fe24     dxguid:dxguid.obj
 0002:00002e34       _IID_IDirectDraw2          1003fe34     dxguid:dxguid.obj
 0002:00002e44       _IID_IDirectDraw4          1003fe44     dxguid:dxguid.obj
 0002:00002e54       _IID_IDirectDraw7          1003fe54     dxguid:dxguid.obj
 0002:00002e64       _IID_IDirectDrawSurface    1003fe64     dxguid:dxguid.obj
 0002:00002e74       _IID_IDirectDrawSurface2   1003fe74     dxguid:dxguid.obj
 0002:00002e84       _IID_IDirectDrawSurface3   1003fe84     dxguid:dxguid.obj
 0002:00002e94       _IID_IDirectDrawSurface4   1003fe94     dxguid:dxguid.obj
 0002:00002ea4       _IID_IDirectDrawSurface7   1003fea4     dxguid:dxguid.obj
 0002:00002eb4       _IID_IDirectDrawSurfaceNew 1003feb4     dxguid:dxguid.obj
 0002:00002ec4       _CLSID_DirectDrawFactory2  1003fec4     dxguid:dxguid.obj
 0002:00002ed4       _IID_IDirectDrawFactory2   1003fed4     dxguid:dxguid.obj
 0002:00002ee4       _GUID_DirectDrawSurfaceStream 1003fee4     dxguid:dxguid.obj
 0002:00002ef4       _GUID_DirectDrawPaletteStream 1003fef4     dxguid:dxguid.obj
 0002:00002f04       _IID_IDirectDrawOptSurface 1003ff04     dxguid:dxguid.obj
 0002:00002f14       _IID_IDirectDrawPalette2   1003ff14     dxguid:dxguid.obj
 0002:00002f24       _IID_IDirectDrawPalette    1003ff24     dxguid:dxguid.obj
 0002:00002f34       _IID_IDirectDrawClipper    1003ff34     dxguid:dxguid.obj
 0002:00002f44       _IID_IDirectDrawColorControl 1003ff44     dxguid:dxguid.obj
 0002:00002f54       _IID_IDirectDrawGammaControl 1003ff54     dxguid:dxguid.obj
 0002:00002f64       _GUID_MiscellaneousCallbacks 1003ff64     dxguid:dxguid.obj
 0002:00002f74       _GUID_VideoPortCallbacks   1003ff74     dxguid:dxguid.obj
 0002:00002f84       _GUID_ColorControlCallbacks 1003ff84     dxguid:dxguid.obj
 0002:00002f94       _GUID_VideoPortCaps        1003ff94     dxguid:dxguid.obj
 0002:00002fa4       _GUID_D3DCallbacks2        1003ffa4     dxguid:dxguid.obj
 0002:00002fb4       _GUID_D3DCallbacks3        1003ffb4     dxguid:dxguid.obj
 0002:00002fc4       _GUID_NonLocalVidMemCaps   1003ffc4     dxguid:dxguid.obj
 0002:00002fd4       _GUID_KernelCallbacks      1003ffd4     dxguid:dxguid.obj
 0002:00002fe4       _GUID_KernelCaps           1003ffe4     dxguid:dxguid.obj
 0002:00002ff4       _GUID_D3DExtendedCaps      1003fff4     dxguid:dxguid.obj
 0002:00003004       _GUID_ZPixelFormats        10040004     dxguid:dxguid.obj
 0002:00003014       _GUID_DDMoreSurfaceCaps    10040014     dxguid:dxguid.obj
 0002:00003024       _GUID_DDStereoMode         10040024     dxguid:dxguid.obj
 0002:00003034       _GUID_OptSurfaceKmodeInfo  10040034     dxguid:dxguid.obj
 0002:00003044       _GUID_OptSurfaceUmodeInfo  10040044     dxguid:dxguid.obj
 0002:00003054       _GUID_UserModeDriverInfo   10040054     dxguid:dxguid.obj
 0002:00003064       _GUID_UserModeDriverPassword 10040064     dxguid:dxguid.obj
 0002:00003074       _GUID_D3DParseUnknownCommandCallback 10040074     dxguid:dxguid.obj
 0002:00003084       _GUID_MotionCompCallbacks  10040084     dxguid:dxguid.obj
 0002:00003094       _GUID_NTCallbacks          10040094     dxguid:dxguid.obj
 0002:000030a4       _GUID_Miscellaneous2Callbacks 100400a4     dxguid:dxguid.obj
 0002:000030b4       _GUID_DDMoreCaps           100400b4     dxguid:dxguid.obj
 0002:000030c4       _CLSID_XACTEngine          100400c4     dxguid:dxguid.obj
 0002:000030d4       _CLSID_XACTAuditionEngine  100400d4     dxguid:dxguid.obj
 0002:000030e4       _CLSID_XACTDebugEngine     100400e4     dxguid:dxguid.obj
 0002:000030f4       _IID_IXACTEngine           100400f4     dxguid:dxguid.obj
 0002:00003104       _IID_IDDVideoPortContainer 10040104     dxguid:dxguid.obj
 0002:00003114       _IID_IDirectDrawVideoPort  10040114     dxguid:dxguid.obj
 0002:00003124       _IID_IDirectDrawVideoPortNotify 10040124     dxguid:dxguid.obj
 0002:00003134       _DDVPTYPE_E_HREFH_VREFH    10040134     dxguid:dxguid.obj
 0002:00003144       _DDVPTYPE_E_HREFH_VREFL    10040144     dxguid:dxguid.obj
 0002:00003154       _DDVPTYPE_E_HREFL_VREFH    10040154     dxguid:dxguid.obj
 0002:00003164       _DDVPTYPE_E_HREFL_VREFL    10040164     dxguid:dxguid.obj
 0002:00003174       _DDVPTYPE_CCIR656          10040174     dxguid:dxguid.obj
 0002:00003184       _DDVPTYPE_BROOKTREE        10040184     dxguid:dxguid.obj
 0002:00003194       _DDVPTYPE_PHILIPS          10040194     dxguid:dxguid.obj
 0002:000031a4       _IID_IDirect3D             100401a4     dxguid:dxguid.obj
 0002:000031b4       _IID_IDirect3D2            100401b4     dxguid:dxguid.obj
 0002:000031c4       _IID_IDirect3D3            100401c4     dxguid:dxguid.obj
 0002:000031d4       _IID_IDirect3D7            100401d4     dxguid:dxguid.obj
 0002:000031e4       _IID_IDirect3DRampDevice   100401e4     dxguid:dxguid.obj
 0002:000031f4       _IID_IDirect3DRGBDevice    100401f4     dxguid:dxguid.obj
 0002:00003204       _IID_IDirect3DHALDevice    10040204     dxguid:dxguid.obj
 0002:00003214       _IID_IDirect3DMMXDevice    10040214     dxguid:dxguid.obj
 0002:00003224       _IID_IDirect3DRefDevice    10040224     dxguid:dxguid.obj
 0002:00003234       _IID_IDirect3DNullDevice   10040234     dxguid:dxguid.obj
 0002:00003244       _IID_IDirect3DTnLHalDevice 10040244     dxguid:dxguid.obj
 0002:00003254       _IID_IDirect3DDevice       10040254     dxguid:dxguid.obj
 0002:00003264       _IID_IDirect3DDevice2      10040264     dxguid:dxguid.obj
 0002:00003274       _IID_IDirect3DDevice3      10040274     dxguid:dxguid.obj
 0002:00003284       _IID_IDirect3DDevice7      10040284     dxguid:dxguid.obj
 0002:00003294       _IID_IDirect3DTexture      10040294     dxguid:dxguid.obj
 0002:000032a4       _IID_IDirect3DTexture2     100402a4     dxguid:dxguid.obj
 0002:000032b4       _IID_IDirect3DLight        100402b4     dxguid:dxguid.obj
 0002:000032c4       _IID_IDirect3DMaterial     100402c4     dxguid:dxguid.obj
 0002:000032d4       _IID_IDirect3DMaterial2    100402d4     dxguid:dxguid.obj
 0002:000032e4       _IID_IDirect3DMaterial3    100402e4     dxguid:dxguid.obj
 0002:000032f4       _IID_IDirect3DExecuteBuffer 100402f4     dxguid:dxguid.obj
 0002:00003304       _IID_IDirect3DViewport     10040304     dxguid:dxguid.obj
 0002:00003314       _IID_IDirect3DViewport2    10040314     dxguid:dxguid.obj
 0002:00003324       _IID_IDirect3DViewport3    10040324     dxguid:dxguid.obj
 0002:00003334       _IID_IDirect3DVertexBuffer 10040334     dxguid:dxguid.obj
 0002:00003344       _IID_IDirect3DVertexBuffer7 10040344     dxguid:dxguid.obj
 0002:00003354       _IID_IDirect3D8            10040354     dxguid:dxguid.obj
 0002:00003364       _IID_IDirect3DDevice8      10040364     dxguid:dxguid.obj
 0002:00003374       _IID_IDirect3DResource8    10040374     dxguid:dxguid.obj
 0002:00003384       _IID_IDirect3DBaseTexture8 10040384     dxguid:dxguid.obj
 0002:00003394       _IID_IDirect3DTexture8     10040394     dxguid:dxguid.obj
 0002:000033a4       _IID_IDirect3DCubeTexture8 100403a4     dxguid:dxguid.obj
 0002:000033b4       _IID_IDirect3DVolumeTexture8 100403b4     dxguid:dxguid.obj
 0002:000033c4       _IID_IDirect3DVertexBuffer8 100403c4     dxguid:dxguid.obj
 0002:000033d4       _IID_IDirect3DIndexBuffer8 100403d4     dxguid:dxguid.obj
 0002:000033e4       _IID_IDirect3DSurface8     100403e4     dxguid:dxguid.obj
 0002:000033f4       _IID_IDirect3DVolume8      100403f4     dxguid:dxguid.obj
 0002:00003404       _IID_IDirect3DSwapChain8   10040404     dxguid:dxguid.obj
 0002:00003414       _CLSID_CDirect3DRMDevice   10040414     dxguid:dxguid.obj
 0002:00003424       _CLSID_CDirect3DRMViewport 10040424     dxguid:dxguid.obj
 0002:00003434       _CLSID_CDirect3DRMFrame    10040434     dxguid:dxguid.obj
 0002:00003444       _CLSID_CDirect3DRMMesh     10040444     dxguid:dxguid.obj
 0002:00003454       _CLSID_CDirect3DRMMeshBuilder 10040454     dxguid:dxguid.obj
 0002:00003464       _CLSID_CDirect3DRMFace     10040464     dxguid:dxguid.obj
 0002:00003474       _CLSID_CDirect3DRMLight    10040474     dxguid:dxguid.obj
 0002:00003484       _CLSID_CDirect3DRMTexture  10040484     dxguid:dxguid.obj
 0002:00003494       _CLSID_CDirect3DRMWrap     10040494     dxguid:dxguid.obj
 0002:000034a4       _CLSID_CDirect3DRMMaterial 100404a4     dxguid:dxguid.obj
 0002:000034b4       _CLSID_CDirect3DRMAnimation 100404b4     dxguid:dxguid.obj
 0002:000034c4       _CLSID_CDirect3DRMAnimationSet 100404c4     dxguid:dxguid.obj
 0002:000034d4       _CLSID_CDirect3DRMUserVisual 100404d4     dxguid:dxguid.obj
 0002:000034e4       _CLSID_CDirect3DRMShadow   100404e4     dxguid:dxguid.obj
 0002:000034f4       _CLSID_CDirect3DRMViewportInterpolator 100404f4     dxguid:dxguid.obj
 0002:00003504       _CLSID_CDirect3DRMFrameInterpolator 10040504     dxguid:dxguid.obj
 0002:00003514       _CLSID_CDirect3DRMMeshInterpolator 10040514     dxguid:dxguid.obj
 0002:00003524       _CLSID_CDirect3DRMLightInterpolator 10040524     dxguid:dxguid.obj
 0002:00003534       _CLSID_CDirect3DRMMaterialInterpolator 10040534     dxguid:dxguid.obj
 0002:00003544       _CLSID_CDirect3DRMTextureInterpolator 10040544     dxguid:dxguid.obj
 0002:00003554       _CLSID_CDirect3DRMProgressiveMesh 10040554     dxguid:dxguid.obj
 0002:00003564       _CLSID_CDirect3DRMClippedVisual 10040564     dxguid:dxguid.obj
 0002:00003574       _IID_IDirect3DRMObject     10040574     dxguid:dxguid.obj
 0002:00003584       _IID_IDirect3DRMObject2    10040584     dxguid:dxguid.obj
 0002:00003594       _IID_IDirect3DRMDevice     10040594     dxguid:dxguid.obj
 0002:000035a4       _IID_IDirect3DRMDevice2    100405a4     dxguid:dxguid.obj
 0002:000035b4       _IID_IDirect3DRMDevice3    100405b4     dxguid:dxguid.obj
 0002:000035c4       _IID_IDirect3DRMViewport   100405c4     dxguid:dxguid.obj
 0002:000035d4       _IID_IDirect3DRMViewport2  100405d4     dxguid:dxguid.obj
 0002:000035e4       _IID_IDirect3DRMFrame      100405e4     dxguid:dxguid.obj
 0002:000035f4       _IID_IDirect3DRMFrame2     100405f4     dxguid:dxguid.obj
 0002:00003604       _IID_IDirect3DRMFrame3     10040604     dxguid:dxguid.obj
 0002:00003614       _IID_IDirect3DRMVisual     10040614     dxguid:dxguid.obj
 0002:00003624       _IID_IDirect3DRMMesh       10040624     dxguid:dxguid.obj
 0002:00003634       _IID_IDirect3DRMMeshBuilder 10040634     dxguid:dxguid.obj
 0002:00003644       _IID_IDirect3DRMMeshBuilder2 10040644     dxguid:dxguid.obj
 0002:00003654       _IID_IDirect3DRMMeshBuilder3 10040654     dxguid:dxguid.obj
 0002:00003664       _IID_IDirect3DRMFace       10040664     dxguid:dxguid.obj
 0002:00003674       _IID_IDirect3DRMFace2      10040674     dxguid:dxguid.obj
 0002:00003684       _IID_IDirect3DRMLight      10040684     dxguid:dxguid.obj
 0002:00003694       _IID_IDirect3DRMTexture    10040694     dxguid:dxguid.obj
 0002:000036a4       _IID_IDirect3DRMTexture2   100406a4     dxguid:dxguid.obj
 0002:000036b4       _IID_IDirect3DRMTexture3   100406b4     dxguid:dxguid.obj
 0002:000036c4       _IID_IDirect3DRMWrap       100406c4     dxguid:dxguid.obj
 0002:000036d4       _IID_IDirect3DRMMaterial   100406d4     dxguid:dxguid.obj
 0002:000036e4       _IID_IDirect3DRMMaterial2  100406e4     dxguid:dxguid.obj
 0002:000036f4       _IID_IDirect3DRMAnimation  100406f4     dxguid:dxguid.obj
 0002:00003704       _IID_IDirect3DRMAnimation2 10040704     dxguid:dxguid.obj
 0002:00003714       _IID_IDirect3DRMAnimationSet 10040714     dxguid:dxguid.obj
 0002:00003724       _IID_IDirect3DRMAnimationSet2 10040724     dxguid:dxguid.obj
 0002:00003734       _IID_IDirect3DRMObjectArray 10040734     dxguid:dxguid.obj
 0002:00003744       _IID_IDirect3DRMDeviceArray 10040744     dxguid:dxguid.obj
 0002:00003754       _IID_IDirect3DRMViewportArray 10040754     dxguid:dxguid.obj
 0002:00003764       _IID_IDirect3DRMFrameArray 10040764     dxguid:dxguid.obj
 0002:00003774       _IID_IDirect3DRMVisualArray 10040774     dxguid:dxguid.obj
 0002:00003784       _IID_IDirect3DRMLightArray 10040784     dxguid:dxguid.obj
 0002:00003794       _IID_IDirect3DRMPickedArray 10040794     dxguid:dxguid.obj
 0002:000037a4       _IID_IDirect3DRMFaceArray  100407a4     dxguid:dxguid.obj
 0002:000037b4       _IID_IDirect3DRMAnimationArray 100407b4     dxguid:dxguid.obj
 0002:000037c4       _IID_IDirect3DRMUserVisual 100407c4     dxguid:dxguid.obj
 0002:000037d4       _IID_IDirect3DRMShadow     100407d4     dxguid:dxguid.obj
 0002:000037e4       _IID_IDirect3DRMShadow2    100407e4     dxguid:dxguid.obj
 0002:000037f4       _IID_IDirect3DRMInterpolator 100407f4     dxguid:dxguid.obj
 0002:00003804       _IID_IDirect3DRMProgressiveMesh 10040804     dxguid:dxguid.obj
 0002:00003814       _IID_IDirect3DRMPicked2Array 10040814     dxguid:dxguid.obj
 0002:00003824       _IID_IDirect3DRMClippedVisual 10040824     dxguid:dxguid.obj
 0002:00003834       _IID_IDirect3DRM           10040834     dxguid:dxguid.obj
 0002:00003844       _IID_IDirect3DRM2          10040844     dxguid:dxguid.obj
 0002:00003854       _IID_IDirect3DRM3          10040854     dxguid:dxguid.obj
 0002:00003864       _CLSID_CDirect3DRM         10040864     dxguid:dxguid.obj
 0002:00003874       _IID_IDirect3DRMWinDevice  10040874     dxguid:dxguid.obj
 0002:00003884       _TID_D3DRMInfo             10040884     dxguid:dxguid.obj
 0002:00003894       _TID_D3DRMMesh             10040894     dxguid:dxguid.obj
 0002:000038a4       _TID_D3DRMVector           100408a4     dxguid:dxguid.obj
 0002:000038b4       _TID_D3DRMMeshFace         100408b4     dxguid:dxguid.obj
 0002:000038c4       _TID_D3DRMMaterial         100408c4     dxguid:dxguid.obj
 0002:000038d4       _TID_D3DRMMaterialArray    100408d4     dxguid:dxguid.obj
 0002:000038e4       _TID_D3DRMFrame            100408e4     dxguid:dxguid.obj
 0002:000038f4       _TID_D3DRMFrameTransformMatrix 100408f4     dxguid:dxguid.obj
 0002:00003904       _TID_D3DRMMeshMaterialList 10040904     dxguid:dxguid.obj
 0002:00003914       _TID_D3DRMMeshTextureCoords 10040914     dxguid:dxguid.obj
 0002:00003924       _TID_D3DRMMeshNormals      10040924     dxguid:dxguid.obj
 0002:00003934       _TID_D3DRMCoords2d         10040934     dxguid:dxguid.obj
 0002:00003944       _TID_D3DRMMatrix4x4        10040944     dxguid:dxguid.obj
 0002:00003954       _TID_D3DRMAnimation        10040954     dxguid:dxguid.obj
 0002:00003964       _TID_D3DRMAnimationSet     10040964     dxguid:dxguid.obj
 0002:00003974       _TID_D3DRMAnimationKey     10040974     dxguid:dxguid.obj
 0002:00003984       _TID_D3DRMFloatKeys        10040984     dxguid:dxguid.obj
 0002:00003994       _TID_D3DRMMaterialAmbientColor 10040994     dxguid:dxguid.obj
 0002:000039a4       _TID_D3DRMMaterialDiffuseColor 100409a4     dxguid:dxguid.obj
 0002:000039b4       _TID_D3DRMMaterialSpecularColor 100409b4     dxguid:dxguid.obj
 0002:000039c4       _TID_D3DRMMaterialEmissiveColor 100409c4     dxguid:dxguid.obj
 0002:000039d4       _TID_D3DRMMaterialPower    100409d4     dxguid:dxguid.obj
 0002:000039e4       _TID_D3DRMColorRGBA        100409e4     dxguid:dxguid.obj
 0002:000039f4       _TID_D3DRMColorRGB         100409f4     dxguid:dxguid.obj
 0002:00003a04       _TID_D3DRMGuid             10040a04     dxguid:dxguid.obj
 0002:00003a14       _TID_D3DRMTextureFilename  10040a14     dxguid:dxguid.obj
 0002:00003a24       _TID_D3DRMTextureReference 10040a24     dxguid:dxguid.obj
 0002:00003a34       _TID_D3DRMIndexedColor     10040a34     dxguid:dxguid.obj
 0002:00003a44       _TID_D3DRMMeshVertexColors 10040a44     dxguid:dxguid.obj
 0002:00003a54       _TID_D3DRMMaterialWrap     10040a54     dxguid:dxguid.obj
 0002:00003a64       _TID_D3DRMBoolean          10040a64     dxguid:dxguid.obj
 0002:00003a74       _TID_D3DRMMeshFaceWraps    10040a74     dxguid:dxguid.obj
 0002:00003a84       _TID_D3DRMBoolean2d        10040a84     dxguid:dxguid.obj
 0002:00003a94       _TID_D3DRMTimedFloatKeys   10040a94     dxguid:dxguid.obj
 0002:00003aa4       _TID_D3DRMAnimationOptions 10040aa4     dxguid:dxguid.obj
 0002:00003ab4       _TID_D3DRMFramePosition    10040ab4     dxguid:dxguid.obj
 0002:00003ac4       _TID_D3DRMFrameVelocity    10040ac4     dxguid:dxguid.obj
 0002:00003ad4       _TID_D3DRMFrameRotation    10040ad4     dxguid:dxguid.obj
 0002:00003ae4       _TID_D3DRMLight            10040ae4     dxguid:dxguid.obj
 0002:00003af4       _TID_D3DRMCamera           10040af4     dxguid:dxguid.obj
 0002:00003b04       _TID_D3DRMAppData          10040b04     dxguid:dxguid.obj
 0002:00003b14       _TID_D3DRMLightUmbra       10040b14     dxguid:dxguid.obj
 0002:00003b24       _TID_D3DRMLightRange       10040b24     dxguid:dxguid.obj
 0002:00003b34       _TID_D3DRMLightPenumbra    10040b34     dxguid:dxguid.obj
 0002:00003b44       _TID_D3DRMLightAttenuation 10040b44     dxguid:dxguid.obj
 0002:00003b54       _TID_D3DRMInlineData       10040b54     dxguid:dxguid.obj
 0002:00003b64       _TID_D3DRMUrl              10040b64     dxguid:dxguid.obj
 0002:00003b74       _TID_D3DRMProgressiveMesh  10040b74     dxguid:dxguid.obj
 0002:00003b84       _TID_D3DRMExternalVisual   10040b84     dxguid:dxguid.obj
 0002:00003b94       _TID_D3DRMStringProperty   10040b94     dxguid:dxguid.obj
 0002:00003ba4       _TID_D3DRMPropertyBag      10040ba4     dxguid:dxguid.obj
 0002:00003bb4       _TID_D3DRMRightHanded      10040bb4     dxguid:dxguid.obj
 0002:00003bc4       _CLSID_CDirectXFile        10040bc4     dxguid:dxguid.obj
 0002:00003bd4       _IID_IDirectXFile          10040bd4     dxguid:dxguid.obj
 0002:00003be4       _IID_IDirectXFileEnumObject 10040be4     dxguid:dxguid.obj
 0002:00003bf4       _IID_IDirectXFileSaveObject 10040bf4     dxguid:dxguid.obj
 0002:00003c04       _IID_IDirectXFileObject    10040c04     dxguid:dxguid.obj
 0002:00003c14       _IID_IDirectXFileData      10040c14     dxguid:dxguid.obj
 0002:00003c24       _IID_IDirectXFileDataReference 10040c24     dxguid:dxguid.obj
 0002:00003c34       _IID_IDirectXFileBinary    10040c34     dxguid:dxguid.obj
 0002:00003c44       _TID_DXFILEHeader          10040c44     dxguid:dxguid.obj
 0002:00003c54       _CLSID_DirectInput         10040c54     dxguid:dxguid.obj
 0002:00003c64       _CLSID_DirectInputDevice   10040c64     dxguid:dxguid.obj
 0002:00003c74       _CLSID_DirectInput8        10040c74     dxguid:dxguid.obj
 0002:00003c84       _CLSID_DirectInputDevice8  10040c84     dxguid:dxguid.obj
 0002:00003c94       _IID_IDirectInputA         10040c94     dxguid:dxguid.obj
 0002:00003ca4       _IID_IDirectInputW         10040ca4     dxguid:dxguid.obj
 0002:00003cb4       _IID_IDirectInput2A        10040cb4     dxguid:dxguid.obj
 0002:00003cc4       _IID_IDirectInput2W        10040cc4     dxguid:dxguid.obj
 0002:00003cd4       _IID_IDirectInput7A        10040cd4     dxguid:dxguid.obj
 0002:00003ce4       _IID_IDirectInput7W        10040ce4     dxguid:dxguid.obj
 0002:00003cf4       _IID_IDirectInput8A        10040cf4     dxguid:dxguid.obj
 0002:00003d04       _IID_IDirectInput8W        10040d04     dxguid:dxguid.obj
 0002:00003d14       _IID_IDirectInputDeviceA   10040d14     dxguid:dxguid.obj
 0002:00003d24       _IID_IDirectInputDeviceW   10040d24     dxguid:dxguid.obj
 0002:00003d34       _IID_IDirectInputDevice2A  10040d34     dxguid:dxguid.obj
 0002:00003d44       _IID_IDirectInputDevice2W  10040d44     dxguid:dxguid.obj
 0002:00003d54       _IID_IDirectInputDevice7A  10040d54     dxguid:dxguid.obj
 0002:00003d64       _IID_IDirectInputDevice7W  10040d64     dxguid:dxguid.obj
 0002:00003d74       _IID_IDirectInputDevice8A  10040d74     dxguid:dxguid.obj
 0002:00003d84       _IID_IDirectInputDevice8W  10040d84     dxguid:dxguid.obj
 0002:00003d94       _IID_IDirectInputEffect    10040d94     dxguid:dxguid.obj
 0002:00003da4       _GUID_XAxis                10040da4     dxguid:dxguid.obj
 0002:00003db4       _GUID_YAxis                10040db4     dxguid:dxguid.obj
 0002:00003dc4       _GUID_ZAxis                10040dc4     dxguid:dxguid.obj
 0002:00003dd4       _GUID_RxAxis               10040dd4     dxguid:dxguid.obj
 0002:00003de4       _GUID_RyAxis               10040de4     dxguid:dxguid.obj
 0002:00003df4       _GUID_RzAxis               10040df4     dxguid:dxguid.obj
 0002:00003e04       _GUID_Slider               10040e04     dxguid:dxguid.obj
 0002:00003e14       _GUID_Button               10040e14     dxguid:dxguid.obj
 0002:00003e24       _GUID_Key                  10040e24     dxguid:dxguid.obj
 0002:00003e34       _GUID_POV                  10040e34     dxguid:dxguid.obj
 0002:00003e44       _GUID_Unknown              10040e44     dxguid:dxguid.obj
 0002:00003e54       _GUID_SysMouse             10040e54     dxguid:dxguid.obj
 0002:00003e64       _GUID_SysKeyboard          10040e64     dxguid:dxguid.obj
 0002:00003e74       _GUID_Joystick             10040e74     dxguid:dxguid.obj
 0002:00003e84       _GUID_SysMouseEm           10040e84     dxguid:dxguid.obj
 0002:00003e94       _GUID_SysMouseEm2          10040e94     dxguid:dxguid.obj
 0002:00003ea4       _GUID_SysKeyboardEm        10040ea4     dxguid:dxguid.obj
 0002:00003eb4       _GUID_SysKeyboardEm2       10040eb4     dxguid:dxguid.obj
 0002:00003ec4       _GUID_ConstantForce        10040ec4     dxguid:dxguid.obj
 0002:00003ed4       _GUID_RampForce            10040ed4     dxguid:dxguid.obj
 0002:00003ee4       _GUID_Square               10040ee4     dxguid:dxguid.obj
 0002:00003ef4       _GUID_Sine                 10040ef4     dxguid:dxguid.obj
 0002:00003f04       _GUID_Triangle             10040f04     dxguid:dxguid.obj
 0002:00003f14       _GUID_SawtoothUp           10040f14     dxguid:dxguid.obj
 0002:00003f24       _GUID_SawtoothDown         10040f24     dxguid:dxguid.obj
 0002:00003f34       _GUID_Spring               10040f34     dxguid:dxguid.obj
 0002:00003f44       _GUID_Damper               10040f44     dxguid:dxguid.obj
 0002:00003f54       _GUID_Inertia              10040f54     dxguid:dxguid.obj
 0002:00003f64       _GUID_Friction             10040f64     dxguid:dxguid.obj
 0002:00003f74       _GUID_CustomForce          10040f74     dxguid:dxguid.obj
 0002:00003f84       _IID_IDirectInputEffectDriver 10040f84     dxguid:dxguid.obj
 0002:00003f94       _IID_IDirectInputJoyConfig 10040f94     dxguid:dxguid.obj
 0002:00003fa4       _IID_IDirectInputPIDDriver 10040fa4     dxguid:dxguid.obj
 0002:00003fb4       _IID_IDirectInputJoyConfig8 10040fb4     dxguid:dxguid.obj
 0002:00003fc4       _GUID_KeyboardClass        10040fc4     dxguid:dxguid.obj
 0002:00003fd4       _GUID_MediaClass           10040fd4     dxguid:dxguid.obj
 0002:00003fe4       _GUID_MouseClass           10040fe4     dxguid:dxguid.obj
 0002:00003ff4       _GUID_HIDClass             10040ff4     dxguid:dxguid.obj
 0002:00004004       _IID_IDirectPlay2          10041004     dxguid:dxguid.obj
 0002:00004014       _IID_IDirectPlay2A         10041014     dxguid:dxguid.obj
 0002:00004024       _IID_IDirectPlay3          10041024     dxguid:dxguid.obj
 0002:00004034       _IID_IDirectPlay3A         10041034     dxguid:dxguid.obj
 0002:00004044       _IID_IDirectPlay4          10041044     dxguid:dxguid.obj
 0002:00004054       _IID_IDirectPlay4A         10041054     dxguid:dxguid.obj
 0002:00004064       _CLSID_DirectPlay          10041064     dxguid:dxguid.obj
 0002:00004074       _DPSPGUID_IPX              10041074     dxguid:dxguid.obj
 0002:00004084       _DPSPGUID_TCPIP            10041084     dxguid:dxguid.obj
 0002:00004094       _DPSPGUID_SERIAL           10041094     dxguid:dxguid.obj
 0002:000040a4       _DPSPGUID_MODEM            100410a4     dxguid:dxguid.obj
 0002:000040b4       _IID_IDirectPlay           100410b4     dxguid:dxguid.obj
 0002:000040c4       _IID_IDirectPlayLobby      100410c4     dxguid:dxguid.obj
 0002:000040d4       _IID_IDirectPlayLobbyA     100410d4     dxguid:dxguid.obj
 0002:000040e4       _IID_IDirectPlayLobby2     100410e4     dxguid:dxguid.obj
 0002:000040f4       _IID_IDirectPlayLobby2A    100410f4     dxguid:dxguid.obj
 0002:00004104       _IID_IDirectPlayLobby3     10041104     dxguid:dxguid.obj
 0002:00004114       _IID_IDirectPlayLobby3A    10041114     dxguid:dxguid.obj
 0002:00004124       _CLSID_DirectPlayLobby     10041124     dxguid:dxguid.obj
 0002:00004134       _DPLPROPERTY_MessagesSupported 10041134     dxguid:dxguid.obj
 0002:00004144       _DPLPROPERTY_LobbyGuid     10041144     dxguid:dxguid.obj
 0002:00004154       _DPLPROPERTY_PlayerGuid    10041154     dxguid:dxguid.obj
 0002:00004164       _DPLPROPERTY_PlayerScore   10041164     dxguid:dxguid.obj
 0002:00004174       _DPAID_TotalSize           10041174     dxguid:dxguid.obj
 0002:00004184       _DPAID_ServiceProvider     10041184     dxguid:dxguid.obj
 0002:00004194       _DPAID_LobbyProvider       10041194     dxguid:dxguid.obj
 0002:000041a4       _DPAID_Phone               100411a4     dxguid:dxguid.obj
 0002:000041b4       _DPAID_PhoneW              100411b4     dxguid:dxguid.obj
 0002:000041c4       _DPAID_Modem               100411c4     dxguid:dxguid.obj
 0002:000041d4       _DPAID_ModemW              100411d4     dxguid:dxguid.obj
 0002:000041e4       _DPAID_INet                100411e4     dxguid:dxguid.obj
 0002:000041f4       _DPAID_INetW               100411f4     dxguid:dxguid.obj
 0002:00004204       _DPAID_INetPort            10041204     dxguid:dxguid.obj
 0002:00004214       _DPAID_ComPort             10041214     dxguid:dxguid.obj
 0002:00004224       _CLSID_DirectSound         10041224     dxguid:dxguid.obj
 0002:00004234       _CLSID_DirectSound8        10041234     dxguid:dxguid.obj
 0002:00004244       _CLSID_DirectSoundCapture  10041244     dxguid:dxguid.obj
 0002:00004254       _CLSID_DirectSoundCapture8 10041254     dxguid:dxguid.obj
 0002:00004264       _CLSID_DirectSoundFullDuplex 10041264     dxguid:dxguid.obj
 0002:00004274       _DSDEVID_DefaultPlayback   10041274     dxguid:dxguid.obj
 0002:00004284       _DSDEVID_DefaultCapture    10041284     dxguid:dxguid.obj
 0002:00004294       _DSDEVID_DefaultVoicePlayback 10041294     dxguid:dxguid.obj
 0002:000042a4       _DSDEVID_DefaultVoiceCapture 100412a4     dxguid:dxguid.obj
 0002:000042b4       _IID_IReferenceClock       100412b4     dxguid:dxguid.obj
 0002:000042c4       _IID_IDirectSound          100412c4     dxguid:dxguid.obj
 0002:000042d4       _IID_IDirectSound8         100412d4     dxguid:dxguid.obj
 0002:000042e4       _IID_IDirectSoundBuffer    100412e4     dxguid:dxguid.obj
 0002:000042f4       _IID_IDirectSoundBuffer8   100412f4     dxguid:dxguid.obj
 0002:00004304       _GUID_All_Objects          10041304     dxguid:dxguid.obj
 0002:00004314       _IID_IDirectSound3DListener 10041314     dxguid:dxguid.obj
 0002:00004324       _IID_IDirectSound3DBuffer  10041324     dxguid:dxguid.obj
 0002:00004334       _IID_IDirectSoundCapture   10041334     dxguid:dxguid.obj
 0002:00004344       _IID_IDirectSoundCaptureBuffer 10041344     dxguid:dxguid.obj
 0002:00004354       _IID_IDirectSoundCaptureBuffer8 10041354     dxguid:dxguid.obj
 0002:00004364       _IID_IDirectSoundNotify    10041364     dxguid:dxguid.obj
 0002:00004374       _IID_IKsPropertySet        10041374     dxguid:dxguid.obj
 0002:00004384       _IID_IDirectSoundFXGargle  10041384     dxguid:dxguid.obj
 0002:00004394       _IID_IDirectSoundFXChorus  10041394     dxguid:dxguid.obj
 0002:000043a4       _IID_IDirectSoundFXFlanger 100413a4     dxguid:dxguid.obj
 0002:000043b4       _IID_IDirectSoundFXEcho    100413b4     dxguid:dxguid.obj
 0002:000043c4       _IID_IDirectSoundFXDistortion 100413c4     dxguid:dxguid.obj
 0002:000043d4       _IID_IDirectSoundFXCompressor 100413d4     dxguid:dxguid.obj
 0002:000043e4       _IID_IDirectSoundFXParamEq 100413e4     dxguid:dxguid.obj
 0002:000043f4       _IID_IDirectSoundFXI3DL2Reverb 100413f4     dxguid:dxguid.obj
 0002:00004404       _IID_IDirectSoundFXWavesReverb 10041404     dxguid:dxguid.obj
 0002:00004414       _IID_IDirectSoundCaptureFXAec 10041414     dxguid:dxguid.obj
 0002:00004424       _IID_IDirectSoundCaptureFXNoiseSuppress 10041424     dxguid:dxguid.obj
 0002:00004434       _IID_IDirectSoundFullDuplex 10041434     dxguid:dxguid.obj
 0002:00004444       _DS3DALG_NO_VIRTUALIZATION 10041444     dxguid:dxguid.obj
 0002:00004454       _DS3DALG_HRTF_FULL         10041454     dxguid:dxguid.obj
 0002:00004464       _DS3DALG_HRTF_LIGHT        10041464     dxguid:dxguid.obj
 0002:00004474       _GUID_DSFX_STANDARD_GARGLE 10041474     dxguid:dxguid.obj
 0002:00004484       _GUID_DSFX_STANDARD_CHORUS 10041484     dxguid:dxguid.obj
 0002:00004494       _GUID_DSFX_STANDARD_FLANGER 10041494     dxguid:dxguid.obj
 0002:000044a4       _GUID_DSFX_STANDARD_ECHO   100414a4     dxguid:dxguid.obj
 0002:000044b4       _GUID_DSFX_STANDARD_DISTORTION 100414b4     dxguid:dxguid.obj
 0002:000044c4       _GUID_DSFX_STANDARD_COMPRESSOR 100414c4     dxguid:dxguid.obj
 0002:000044d4       _GUID_DSFX_STANDARD_PARAMEQ 100414d4     dxguid:dxguid.obj
 0002:000044e4       _GUID_DSFX_STANDARD_I3DL2REVERB 100414e4     dxguid:dxguid.obj
 0002:000044f4       _GUID_DSFX_WAVES_REVERB    100414f4     dxguid:dxguid.obj
 0002:00004504       _GUID_DSCFX_CLASS_AEC      10041504     dxguid:dxguid.obj
 0002:00004514       _GUID_DSCFX_MS_AEC         10041514     dxguid:dxguid.obj
 0002:00004524       _GUID_DSCFX_SYSTEM_AEC     10041524     dxguid:dxguid.obj
 0002:00004534       _GUID_DSCFX_CLASS_NS       10041534     dxguid:dxguid.obj
 0002:00004544       _GUID_DSCFX_MS_NS          10041544     dxguid:dxguid.obj
 0002:00004554       _GUID_DSCFX_SYSTEM_NS      10041554     dxguid:dxguid.obj
 0002:00004564       _CLSID_DirectPlayVoiceClient 10041564     dxguid:dxguid.obj
 0002:00004574       _CLSID_DirectPlayVoiceServer 10041574     dxguid:dxguid.obj
 0002:00004584       _CLSID_DirectPlayVoiceTest 10041584     dxguid:dxguid.obj
 0002:00004594       _IID_IDirectPlayVoiceClient 10041594     dxguid:dxguid.obj
 0002:000045a4       _IID_IDirectPlayVoiceServer 100415a4     dxguid:dxguid.obj
 0002:000045b4       _IID_IDirectPlayVoiceTest  100415b4     dxguid:dxguid.obj
 0002:000045c4       _DPVCTGUID_ADPCM           100415c4     dxguid:dxguid.obj
 0002:000045d4       _DPVCTGUID_GSM             100415d4     dxguid:dxguid.obj
 0002:000045e4       _DPVCTGUID_NONE            100415e4     dxguid:dxguid.obj
 0002:000045f4       _DPVCTGUID_SC03            100415f4     dxguid:dxguid.obj
 0002:00004604       _DPVCTGUID_SC06            10041604     dxguid:dxguid.obj
 0002:00004614       _DPVCTGUID_TRUESPEECH      10041614     dxguid:dxguid.obj
 0002:00004624       _DPVCTGUID_VR12            10041624     dxguid:dxguid.obj
 0002:00004634       _CLSID_DirectPlay8Address  10041634     dxguid:dxguid.obj
 0002:00004644       _IID_IDirectPlay8Address   10041644     dxguid:dxguid.obj
 0002:00004654       _IID_IDirectPlay8AddressIP 10041654     dxguid:dxguid.obj
 0002:00004664       _CLSID_DirectPlay8Client   10041664     dxguid:dxguid.obj
 0002:00004674       _CLSID_DirectPlay8Server   10041674     dxguid:dxguid.obj
 0002:00004684       _CLSID_DirectPlay8Peer     10041684     dxguid:dxguid.obj
 0002:00004694       _CLSID_DirectPlay8ThreadPool 10041694     dxguid:dxguid.obj
 0002:000046a4       _CLSID_DirectPlay8NATResolver 100416a4     dxguid:dxguid.obj
 0002:000046b4       _IID_IDirectPlay8Client    100416b4     dxguid:dxguid.obj
 0002:000046c4       _IID_IDirectPlay8Server    100416c4     dxguid:dxguid.obj
 0002:000046d4       _IID_IDirectPlay8Peer      100416d4     dxguid:dxguid.obj
 0002:000046e4       _IID_IDirectPlay8ThreadPool 100416e4     dxguid:dxguid.obj
 0002:000046f4       _IID_IDirectPlay8NATResolver 100416f4     dxguid:dxguid.obj
 0002:00004704       _CLSID_DP8SP_IPX           10041704     dxguid:dxguid.obj
 0002:00004714       _CLSID_DP8SP_MODEM         10041714     dxguid:dxguid.obj
 0002:00004724       _CLSID_DP8SP_SERIAL        10041724     dxguid:dxguid.obj
 0002:00004734       _CLSID_DP8SP_TCPIP         10041734     dxguid:dxguid.obj
 0002:00004744       _CLSID_DP8SP_BLUETOOTH     10041744     dxguid:dxguid.obj
 0002:00004754       _CLSID_DirectPlay8LobbiedApplication 10041754     dxguid:dxguid.obj
 0002:00004764       _CLSID_DirectPlay8LobbyClient 10041764     dxguid:dxguid.obj
 0002:00004774       _IID_IDirectPlay8LobbiedApplication 10041774     dxguid:dxguid.obj
 0002:00004784       _IID_IDirectPlay8LobbyClient 10041784     dxguid:dxguid.obj
 0002:00004794       _CLSID_DirectMusic         10041794     dxguid:dxguid.obj
 0002:000047a4       _CLSID_DirectMusicCollection 100417a4     dxguid:dxguid.obj
 0002:000047b4       _CLSID_DirectMusicSynth    100417b4     dxguid:dxguid.obj
 0002:000047c4       _IID_IDirectMusic          100417c4     dxguid:dxguid.obj
 0002:000047d4       _IID_IDirectMusicBuffer    100417d4     dxguid:dxguid.obj
 0002:000047e4       _IID_IDirectMusicPort      100417e4     dxguid:dxguid.obj
 0002:000047f4       _IID_IDirectMusicThru      100417f4     dxguid:dxguid.obj
 0002:00004804       _IID_IDirectMusicPortDownload 10041804     dxguid:dxguid.obj
 0002:00004814       _IID_IDirectMusicDownload  10041814     dxguid:dxguid.obj
 0002:00004824       _IID_IDirectMusicCollection 10041824     dxguid:dxguid.obj
 0002:00004834       _IID_IDirectMusicInstrument 10041834     dxguid:dxguid.obj
 0002:00004844       _IID_IDirectMusicDownloadedInstrument 10041844     dxguid:dxguid.obj
 0002:00004854       _IID_IDirectMusic2         10041854     dxguid:dxguid.obj
 0002:00004864       _IID_IDirectMusic8         10041864     dxguid:dxguid.obj
 0002:00004874       _GUID_DMUS_PROP_GM_Hardware 10041874     dxguid:dxguid.obj
 0002:00004884       _GUID_DMUS_PROP_GS_Hardware 10041884     dxguid:dxguid.obj
 0002:00004894       _GUID_DMUS_PROP_XG_Hardware 10041894     dxguid:dxguid.obj
 0002:000048a4       _GUID_DMUS_PROP_XG_Capable 100418a4     dxguid:dxguid.obj
 0002:000048b4       _GUID_DMUS_PROP_GS_Capable 100418b4     dxguid:dxguid.obj
 0002:000048c4       _GUID_DMUS_PROP_DLS1       100418c4     dxguid:dxguid.obj
 0002:000048d4       _GUID_DMUS_PROP_DLS2       100418d4     dxguid:dxguid.obj
 0002:000048e4       _GUID_DMUS_PROP_INSTRUMENT2 100418e4     dxguid:dxguid.obj
 0002:000048f4       _GUID_DMUS_PROP_SynthSink_DSOUND 100418f4     dxguid:dxguid.obj
 0002:00004904       _GUID_DMUS_PROP_SynthSink_WAVE 10041904     dxguid:dxguid.obj
 0002:00004914       _GUID_DMUS_PROP_SampleMemorySize 10041914     dxguid:dxguid.obj
 0002:00004924       _GUID_DMUS_PROP_SamplePlaybackRate 10041924     dxguid:dxguid.obj
 0002:00004934       _GUID_DMUS_PROP_WriteLatency 10041934     dxguid:dxguid.obj
 0002:00004944       _GUID_DMUS_PROP_WritePeriod 10041944     dxguid:dxguid.obj
 0002:00004954       _GUID_DMUS_PROP_MemorySize 10041954     dxguid:dxguid.obj
 0002:00004964       _GUID_DMUS_PROP_WavesReverb 10041964     dxguid:dxguid.obj
 0002:00004974       _GUID_DMUS_PROP_Effects    10041974     dxguid:dxguid.obj
 0002:00004984       _GUID_DMUS_PROP_LegacyCaps 10041984     dxguid:dxguid.obj
 0002:00004994       _GUID_DMUS_PROP_Volume     10041994     dxguid:dxguid.obj
 0002:000049a4       _CLSID_DirectMusicTempoTrack 100419a4     dxguid:dxguid.obj
 0002:000049b4       _CLSID_DirectMusicSeqTrack 100419b4     dxguid:dxguid.obj
 0002:000049c4       _CLSID_DirectMusicSysExTrack 100419c4     dxguid:dxguid.obj
 0002:000049d4       _CLSID_DirectMusicTimeSigTrack 100419d4     dxguid:dxguid.obj
 0002:000049e4       _CLSID_DirectMusicChordTrack 100419e4     dxguid:dxguid.obj
 0002:000049f4       _CLSID_DirectMusicCommandTrack 100419f4     dxguid:dxguid.obj
 0002:00004a04       _CLSID_DirectMusicStyleTrack 10041a04     dxguid:dxguid.obj
 0002:00004a14       _CLSID_DirectMusicMotifTrack 10041a14     dxguid:dxguid.obj
 0002:00004a24       _CLSID_DirectMusicSignPostTrack 10041a24     dxguid:dxguid.obj
 0002:00004a34       _CLSID_DirectMusicBandTrack 10041a34     dxguid:dxguid.obj
 0002:00004a44       _CLSID_DirectMusicChordMapTrack 10041a44     dxguid:dxguid.obj
 0002:00004a54       _CLSID_DirectMusicMuteTrack 10041a54     dxguid:dxguid.obj
 0002:00004a64       _CLSID_DirectMusicScriptTrack 10041a64     dxguid:dxguid.obj
 0002:00004a74       _CLSID_DirectMusicMarkerTrack 10041a74     dxguid:dxguid.obj
 0002:00004a84       _CLSID_DirectMusicSegmentTriggerTrack 10041a84     dxguid:dxguid.obj
 0002:00004a94       _CLSID_DirectMusicLyricsTrack 10041a94     dxguid:dxguid.obj
 0002:00004aa4       _CLSID_DirectMusicParamControlTrack 10041aa4     dxguid:dxguid.obj
 0002:00004ab4       _CLSID_DirectMusicWaveTrack 10041ab4     dxguid:dxguid.obj
 0002:00004ac4       _IID_IDirectMusicTrack     10041ac4     dxguid:dxguid.obj
 0002:00004ad4       _IID_IDirectMusicTool      10041ad4     dxguid:dxguid.obj
 0002:00004ae4       _IID_IDirectMusicTool8     10041ae4     dxguid:dxguid.obj
 0002:00004af4       _IID_IDirectMusicTrack8    10041af4     dxguid:dxguid.obj
 0002:00004b04       _CLSID_DirectMusicPerformance 10041b04     dxguid:dxguid.obj
 0002:00004b14       _CLSID_DirectMusicSegment  10041b14     dxguid:dxguid.obj
 0002:00004b24       _CLSID_DirectMusicSegmentState 10041b24     dxguid:dxguid.obj
 0002:00004b34       _CLSID_DirectMusicGraph    10041b34     dxguid:dxguid.obj
 0002:00004b44       _CLSID_DirectMusicStyle    10041b44     dxguid:dxguid.obj
 0002:00004b54       _CLSID_DirectMusicChordMap 10041b54     dxguid:dxguid.obj
 0002:00004b64       _CLSID_DirectMusicComposer 10041b64     dxguid:dxguid.obj
 0002:00004b74       _CLSID_DirectMusicLoader   10041b74     dxguid:dxguid.obj
 0002:00004b84       _CLSID_DirectMusicBand     10041b84     dxguid:dxguid.obj
 0002:00004b94       _CLSID_DirectMusicPatternTrack 10041b94     dxguid:dxguid.obj
 0002:00004ba4       _CLSID_DirectMusicScript   10041ba4     dxguid:dxguid.obj
 0002:00004bb4       _CLSID_DirectMusicContainer 10041bb4     dxguid:dxguid.obj
 0002:00004bc4       _CLSID_DirectSoundWave     10041bc4     dxguid:dxguid.obj
 0002:00004bd4       _CLSID_DirectMusicAudioPathConfig 10041bd4     dxguid:dxguid.obj
 0002:00004be4       _GUID_DirectMusicAllTypes  10041be4     dxguid:dxguid.obj
 0002:00004bf4       _GUID_NOTIFICATION_SEGMENT 10041bf4     dxguid:dxguid.obj
 0002:00004c04       _GUID_NOTIFICATION_PERFORMANCE 10041c04     dxguid:dxguid.obj
 0002:00004c14       _GUID_NOTIFICATION_MEASUREANDBEAT 10041c14     dxguid:dxguid.obj
 0002:00004c24       _GUID_NOTIFICATION_CHORD   10041c24     dxguid:dxguid.obj
 0002:00004c34       _GUID_NOTIFICATION_COMMAND 10041c34     dxguid:dxguid.obj
 0002:00004c44       _GUID_NOTIFICATION_RECOMPOSE 10041c44     dxguid:dxguid.obj
 0002:00004c54       _GUID_CommandParam         10041c54     dxguid:dxguid.obj
 0002:00004c64       _GUID_CommandParam2        10041c64     dxguid:dxguid.obj
 0002:00004c74       _GUID_CommandParamNext     10041c74     dxguid:dxguid.obj
 0002:00004c84       _GUID_ChordParam           10041c84     dxguid:dxguid.obj
 0002:00004c94       _GUID_RhythmParam          10041c94     dxguid:dxguid.obj
 0002:00004ca4       _GUID_IDirectMusicStyle    10041ca4     dxguid:dxguid.obj
 0002:00004cb4       _GUID_TimeSignature        10041cb4     dxguid:dxguid.obj
 0002:00004cc4       _GUID_TempoParam           10041cc4     dxguid:dxguid.obj
 0002:00004cd4       _GUID_Valid_Start_Time     10041cd4     dxguid:dxguid.obj
 0002:00004ce4       _GUID_Play_Marker          10041ce4     dxguid:dxguid.obj
 0002:00004cf4       _GUID_BandParam            10041cf4     dxguid:dxguid.obj
 0002:00004d04       _GUID_IDirectMusicBand     10041d04     dxguid:dxguid.obj
 0002:00004d14       _GUID_IDirectMusicChordMap 10041d14     dxguid:dxguid.obj
 0002:00004d24       _GUID_MuteParam            10041d24     dxguid:dxguid.obj
 0002:00004d34       _GUID_Download             10041d34     dxguid:dxguid.obj
 0002:00004d44       _GUID_Unload               10041d44     dxguid:dxguid.obj
 0002:00004d54       _GUID_ConnectToDLSCollection 10041d54     dxguid:dxguid.obj
 0002:00004d64       _GUID_Enable_Auto_Download 10041d64     dxguid:dxguid.obj
 0002:00004d74       _GUID_Disable_Auto_Download 10041d74     dxguid:dxguid.obj
 0002:00004d84       _GUID_Clear_All_Bands      10041d84     dxguid:dxguid.obj
 0002:00004d94       _GUID_StandardMIDIFile     10041d94     dxguid:dxguid.obj
 0002:00004da4       _GUID_DisableTimeSig       10041da4     dxguid:dxguid.obj
 0002:00004db4       _GUID_EnableTimeSig        10041db4     dxguid:dxguid.obj
 0002:00004dc4       _GUID_DisableTempo         10041dc4     dxguid:dxguid.obj
 0002:00004dd4       _GUID_EnableTempo          10041dd4     dxguid:dxguid.obj
 0002:00004de4       _GUID_SeedVariations       10041de4     dxguid:dxguid.obj
 0002:00004df4       _GUID_Variations           10041df4     dxguid:dxguid.obj
 0002:00004e04       _GUID_DownloadToAudioPath  10041e04     dxguid:dxguid.obj
 0002:00004e14       _GUID_UnloadFromAudioPath  10041e14     dxguid:dxguid.obj
 0002:00004e24       _GUID_PerfMasterTempo      10041e24     dxguid:dxguid.obj
 0002:00004e34       _GUID_PerfMasterVolume     10041e34     dxguid:dxguid.obj
 0002:00004e44       _GUID_PerfMasterGrooveLevel 10041e44     dxguid:dxguid.obj
 0002:00004e54       _GUID_PerfAutoDownload     10041e54     dxguid:dxguid.obj
 0002:00004e64       _GUID_DefaultGMCollection  10041e64     dxguid:dxguid.obj
 0002:00004e74       _GUID_Synth_Default        10041e74     dxguid:dxguid.obj
 0002:00004e84       _GUID_Buffer_Reverb        10041e84     dxguid:dxguid.obj
 0002:00004e94       _GUID_Buffer_EnvReverb     10041e94     dxguid:dxguid.obj
 0002:00004ea4       _GUID_Buffer_Stereo        10041ea4     dxguid:dxguid.obj
 0002:00004eb4       _GUID_Buffer_3D_Dry        10041eb4     dxguid:dxguid.obj
 0002:00004ec4       _GUID_Buffer_Mono          10041ec4     dxguid:dxguid.obj
 0002:00004ed4       _IID_IDirectMusicLoader    10041ed4     dxguid:dxguid.obj
 0002:00004ee4       _IID_IDirectMusicGetLoader 10041ee4     dxguid:dxguid.obj
 0002:00004ef4       _IID_IDirectMusicObject    10041ef4     dxguid:dxguid.obj
 0002:00004f04       _IID_IDirectMusicSegment   10041f04     dxguid:dxguid.obj
 0002:00004f14       _IID_IDirectMusicSegmentState 10041f14     dxguid:dxguid.obj
 0002:00004f24       _IID_IDirectMusicPerformance 10041f24     dxguid:dxguid.obj
 0002:00004f34       _IID_IDirectMusicGraph     10041f34     dxguid:dxguid.obj
 0002:00004f44       _IID_IDirectMusicStyle     10041f44     dxguid:dxguid.obj
 0002:00004f54       _IID_IDirectMusicChordMap  10041f54     dxguid:dxguid.obj
 0002:00004f64       _IID_IDirectMusicComposer  10041f64     dxguid:dxguid.obj
 0002:00004f74       _IID_IDirectMusicBand      10041f74     dxguid:dxguid.obj
 0002:00004f84       _IID_IDirectMusicPerformance2 10041f84     dxguid:dxguid.obj
 0002:00004f94       _IID_IDirectMusicSegment2  10041f94     dxguid:dxguid.obj
 0002:00004fa4       _IID_IDirectMusicLoader8   10041fa4     dxguid:dxguid.obj
 0002:00004fb4       _IID_IDirectMusicPerformance8 10041fb4     dxguid:dxguid.obj
 0002:00004fc4       _IID_IDirectMusicSegment8  10041fc4     dxguid:dxguid.obj
 0002:00004fd4       _IID_IDirectMusicSegmentState8 10041fd4     dxguid:dxguid.obj
 0002:00004fe4       _IID_IDirectMusicStyle8    10041fe4     dxguid:dxguid.obj
 0002:00004ff4       _IID_IDirectMusicPatternTrack 10041ff4     dxguid:dxguid.obj
 0002:00005004       _IID_IDirectMusicScript    10042004     dxguid:dxguid.obj
 0002:00005014       _IID_IDirectMusicContainer 10042014     dxguid:dxguid.obj
 0002:00005024       _IID_IDirectMusicAudioPath 10042024     dxguid:dxguid.obj
 0002:00005034       _IID_IKsControl            10042034     dxguid:dxguid.obj
 0002:00005044       _KSDATAFORMAT_SUBTYPE_MIDI 10042044     dxguid:dxguid.obj
 0002:00005054       _KSDATAFORMAT_SUBTYPE_DIRECTMUSIC 10042054     dxguid:dxguid.obj
 0002:00005064       _CLSID_DxDiagProvider      10042064     dxguid:dxguid.obj
 0002:00005074       _IID_IDxDiagProvider       10042074     dxguid:dxguid.obj
 0002:00005084       _IID_IDxDiagContainer      10042084     dxguid:dxguid.obj
 0002:00005284       _c_dfDIMouse               10042284     dinput8:dilib1.obj
 0002:0000548c       _c_dfDIKeyboard            1004248c     dinput8:dilib2.obj
 0002:000054a8       __real@3ffc5a1cac083127    100424a8     JpgLib:KJpegColor.obj
 0002:000054b0       __real@3fe6da3c21187e7c    100424b0     JpgLib:KJpegColor.obj
 0002:000054b8       __real@3fd60663c74fb54a    100424b8     JpgLib:KJpegColor.obj
 0002:000054c0       __real@3ff66e978d4fdf3b    100424c0     JpgLib:KJpegColor.obj
 0002:00005a20       __real@8@3ffe8000000000000000 10042a20     mp3lib:KMp3Sbt.obj
 0002:00005a28       __real@8@40018000000000000000 10042a28     mp3lib:KMp3Sbt.obj
 0002:00005a30       __real@8@3fff8000000000000000 10042a30     mp3lib:KMp3Sbt.obj
 0002:00005a38       __real@8@3ffdaaaaab0000000000 10042a38     mp3lib:KMp3Quant.obj
 0002:00005c00       __real@8@c0008000000000000000 10042c00     mp3lib:KMp3Init.obj
 0002:00005c08       __real@8@3ffdaaaaaaaaaaaaa800 10042c08     mp3lib:KMp3Init.obj
 0002:00005c10       __real@8@bffe8000000000000000 10042c10     mp3lib:KMp3Init.obj
 0002:00005c18       __real@8@3ffd8000000000000000 10042c18     mp3lib:KMp3Init.obj
 0002:00005c20       __real@8@40008000000000000000 10042c20     mp3lib:KMp3Init.obj
 0002:00005c28       __real@8@4001c000000000000000 10042c28     mp3lib:KMp3Init.obj
 0002:00005c30       __real@8@3ffbaaaaaaaaaaaaa800 10042c30     mp3lib:KMp3Init.obj
 0002:00005c38       __real@8@40039000000000000000 10042c38     mp3lib:KMp3Init.obj
 0002:00005c40       __real@8@3ff9e38e38e38e38e000 10042c40     mp3lib:KMp3Init.obj
 0002:00005c48       __real@4@3ffe8000000000000000 10042c48     mp3lib:KMp3Init.obj
 0002:00005c50       __real@8@3ffaaaaaaaaaaaaaa800 10042c50     mp3lib:KMp3Init.obj
 0002:00005c58       __real@8@3ff8e38e38e38e38e000 10042c58     mp3lib:KMp3Init.obj
 0002:00005c60       __real@8@bffd8000000000000000 10042c60     mp3lib:KMp3Init.obj
 0002:00005c6c       ??_7type_info@@6B@         10042c6c     MSVCRT:ti_inst.obj
 0002:00005c70       __pDefaultRawDllMain       10042c70     MSVCRT:crtdll.obj
 0002:00005c70       __pRawDllMain              10042c70     MSVCRT:crtdll.obj
 0002:00005c7c       ?ProcessDetach@NativeDll@<CrtImplementationDetails>@@0IB 10042c7c     MSVCRT:tncleanup.obj
 0002:00005c80       ?ProcessAttach@NativeDll@<CrtImplementationDetails>@@0IB 10042c80     MSVCRT:tncleanup.obj
 0002:00005c84       ?ThreadAttach@NativeDll@<CrtImplementationDetails>@@0IB 10042c84     MSVCRT:tncleanup.obj
 0002:00005c88       ?ThreadDetach@NativeDll@<CrtImplementationDetails>@@0IB 10042c88     MSVCRT:tncleanup.obj
 0002:00005c8c       ?ProcessVerifier@NativeDll@<CrtImplementationDetails>@@0IB 10042c8c     MSVCRT:tncleanup.obj
 0002:00005ce4       ??_R4KWin32App@@6B@        10042ce4     KAutoMutex.obj
 0002:00005cf8       ??_R3KWin32App@@8          10042cf8     KAutoMutex.obj
 0002:00005d08       ??_R2KWin32App@@8          10042d08     KAutoMutex.obj
 0002:00005d10       ??_R1A@?0A@EA@KWin32App@@8 10042d10     KAutoMutex.obj
 0002:00005d2c       ??_R4KNode@@6B@            10042d2c     KCache.obj
 0002:00005d40       ??_R3KNode@@8              10042d40     KCache.obj
 0002:00005d50       ??_R2KNode@@8              10042d50     KCache.obj
 0002:00005d58       ??_R1A@?0A@EA@KNode@@8     10042d58     KCache.obj
 0002:00005d74       ??_R4KStrNode@@6B@         10042d74     KCache.obj
 0002:00005d88       ??_R3KStrNode@@8           10042d88     KCache.obj
 0002:00005d98       ??_R2KStrNode@@8           10042d98     KCache.obj
 0002:00005da4       ??_R1A@?0A@EA@KStrNode@@8  10042da4     KCache.obj
 0002:00005dc0       ??_R4KCacheNode@@6B@       10042dc0     KCache.obj
 0002:00005dd4       ??_R3KCacheNode@@8         10042dd4     KCache.obj
 0002:00005de4       ??_R2KCacheNode@@8         10042de4     KCache.obj
 0002:00005df4       ??_R1A@?0A@EA@KCacheNode@@8 10042df4     KCache.obj
 0002:00005e10       ??_R4KCache@@6B@           10042e10     KCache.obj
 0002:00005e24       ??_R3KCache@@8             10042e24     KCache.obj
 0002:00005e34       ??_R2KCache@@8             10042e34     KCache.obj
 0002:00005e3c       ??_R1A@?0A@EA@KCache@@8    10042e3c     KCache.obj
 0002:00005e58       ??_R4KDrawNode@@6B@        10042e58     KCanvas.obj
 0002:00005e6c       ??_R3KDrawNode@@8          10042e6c     KCanvas.obj
 0002:00005e7c       ??_R2KDrawNode@@8          10042e7c     KCanvas.obj
 0002:00005e88       ??_R1A@?0A@EA@KDrawNode@@8 10042e88     KCanvas.obj
 0002:00005ea4       ??_R4KCodec@@6B@           10042ea4     KCodec.obj
 0002:00005eb8       ??_R3KCodec@@8             10042eb8     KCodec.obj
 0002:00005ec8       ??_R2KCodec@@8             10042ec8     KCodec.obj
 0002:00005ed0       ??_R1A@?0A@EA@KCodec@@8    10042ed0     KCodec.obj
 0002:00005eec       ??_R4KCodecLzo@@6B@        10042eec     KCodec.obj
 0002:00005f00       ??_R3KCodecLzo@@8          10042f00     KCodec.obj
 0002:00005f10       ??_R2KCodecLzo@@8          10042f10     KCodec.obj
 0002:00005f1c       ??_R1A@?0A@EA@KCodecLzo@@8 10042f1c     KCodec.obj
 0002:00005f38       ??_R4KScript@@6B@          10042f38     KEicScript.obj
 0002:00005f4c       ??_R3KScript@@8            10042f4c     KEicScript.obj
 0002:00005f5c       ??_R2KScript@@8            10042f5c     KEicScript.obj
 0002:00005f64       ??_R1A@?0A@EA@KScript@@8   10042f64     KEicScript.obj
 0002:00005f80       ??_R4KEicScript@@6B@       10042f80     KEicScript.obj
 0002:00005f94       ??_R3KEicScript@@8         10042f94     KEicScript.obj
 0002:00005fa4       ??_R2KEicScript@@8         10042fa4     KEicScript.obj
 0002:00005fb0       ??_R1A@?0A@EA@KEicScript@@8 10042fb0     KEicScript.obj
 0002:00005fcc       ??_R4KLuaScript@@6B@       10042fcc     KEicScriptSet.obj
 0002:00005fe0       ??_R3KLuaScript@@8         10042fe0     KEicScriptSet.obj
 0002:00005ff0       ??_R2KLuaScript@@8         10042ff0     KEicScriptSet.obj
 0002:00005ffc       ??_R1A@?0A@EA@KLuaScript@@8 10042ffc     KEicScriptSet.obj
 0002:00006018       ??_R4KScriptSet@@6B@       10043018     KEicScriptSet.obj
 0002:0000602c       ??_R3KScriptSet@@8         1004302c     KEicScriptSet.obj
 0002:0000603c       ??_R2KScriptSet@@8         1004303c     KEicScriptSet.obj
 0002:00006044       ??_R1A@?0A@EA@KScriptSet@@8 10043044     KEicScriptSet.obj
 0002:00006060       ??_R4KEicScriptSet@@6B@    10043060     KEicScriptSet.obj
 0002:00006074       ??_R3KEicScriptSet@@8      10043074     KEicScriptSet.obj
 0002:00006084       ??_R2KEicScriptSet@@8      10043084     KEicScriptSet.obj
 0002:00006090       ??_R1A@?0A@EA@KEicScriptSet@@8 10043090     KEicScriptSet.obj
 0002:000060ac       ??_R4KHashNode@@6B@        100430ac     KHashNode.obj
 0002:000060c0       ??_R3KHashNode@@8          100430c0     KHashNode.obj
 0002:000060d0       ??_R2KHashNode@@8          100430d0     KHashNode.obj
 0002:000060e0       ??_R1A@?0A@EA@KHashNode@@8 100430e0     KHashNode.obj
 0002:000060fc       ??_R4KStackNode@@6B@       100430fc     KLubCmpl_Blocker.obj
 0002:00006110       ??_R3KStackNode@@8         10043110     KLubCmpl_Blocker.obj
 0002:00006120       ??_R2KStackNode@@8         10043120     KLubCmpl_Blocker.obj
 0002:0000612c       ??_R1A@?0A@EA@KStackNode@@8 1004312c     KLubCmpl_Blocker.obj
 0002:00006148       ??_R4KLineNode@@6B@        10043148     KLubCmpl_Blocker.obj
 0002:0000615c       ??_R3KLineNode@@8          1004315c     KLubCmpl_Blocker.obj
 0002:0000616c       ??_R2KLineNode@@8          1004316c     KLubCmpl_Blocker.obj
 0002:00006178       ??_R1A@?0A@EA@KLineNode@@8 10043178     KLubCmpl_Blocker.obj
 0002:00006194       ??_R4KMusic@@6B@           10043194     KMp3Music.obj
 0002:000061a8       ??_R3KMusic@@8             100431a8     KMp3Music.obj
 0002:000061b8       ??_R2KMusic@@8             100431b8     KMp3Music.obj
 0002:000061c0       ??_R1A@?0A@EA@KMusic@@8    100431c0     KMp3Music.obj
 0002:000061dc       ??_R4KMp3Music@@6B@        100431dc     KMp3Music.obj
 0002:000061f0       ??_R3KMp3Music@@8          100431f0     KMp3Music.obj
 0002:00006200       ??_R2KMp3Music@@8          10043200     KMp3Music.obj
 0002:0000620c       ??_R1A@?0A@EA@KMp3Music@@8 1004320c     KMp3Music.obj
 0002:00006228       ??_R4KMp4Audio@@6B@        10043228     KMp4Audio.obj
 0002:0000623c       ??_R3KMp4Audio@@8          1004323c     KMp4Audio.obj
 0002:0000624c       ??_R2KMp4Audio@@8          1004324c     KMp4Audio.obj
 0002:0000625c       ??_R1A@?0A@EA@KMp4Audio@@8 1004325c     KMp4Audio.obj
 0002:00006278       ??_R4KVideo@@6B@           10043278     KMp4Movie.obj
 0002:0000628c       ??_R3KVideo@@8             1004328c     KMp4Movie.obj
 0002:0000629c       ??_R2KVideo@@8             1004329c     KMp4Movie.obj
 0002:000062a4       ??_R1A@?0A@EA@KVideo@@8    100432a4     KMp4Movie.obj
 0002:000062c0       ??_R4KMp4Video@@6B@        100432c0     KMp4Movie.obj
 0002:000062d4       ??_R3KMp4Video@@8          100432d4     KMp4Movie.obj
 0002:000062e4       ??_R2KMp4Video@@8          100432e4     KMp4Movie.obj
 0002:000062f0       ??_R1A@?0A@EA@KMp4Video@@8 100432f0     KMp4Movie.obj
 0002:0000630c       ??_R4KMpgMusic@@6B@        1004330c     KMpgMusic.obj
 0002:00006320       ??_R3KMpgMusic@@8          10043320     KMpgMusic.obj
 0002:00006330       ??_R2KMpgMusic@@8          10043330     KMpgMusic.obj
 0002:0000633c       ??_R1A@?0A@EA@KMpgMusic@@8 1004333c     KMpgMusic.obj
 0002:00006358       ??_R4KMsgNode@@6B@         10043358     KMsgNode.obj
 0002:0000636c       ??_R3KMsgNode@@8           1004336c     KMsgNode.obj
 0002:0000637c       ??_R2KMsgNode@@8           1004337c     KMsgNode.obj
 0002:00006388       ??_R1A@?0A@EA@KMsgNode@@8  10043388     KMsgNode.obj
 0002:000063a4       ??_R4KOctreeNode@@6B@      100433a4     KOctree.obj
 0002:000063b8       ??_R3KOctreeNode@@8        100433b8     KOctree.obj
 0002:000063c8       ??_R2KOctreeNode@@8        100433c8     KOctree.obj
 0002:000063d0       ??_R1A@?0A@EA@KOctreeNode@@8 100433d0     KOctree.obj
 0002:000063ec       ??_R4KOctree@@6B@          100433ec     KOctree.obj
 0002:00006400       ??_R3KOctree@@8            10043400     KOctree.obj
 0002:00006410       ??_R2KOctree@@8            10043410     KOctree.obj
 0002:00006418       ??_R1A@?0A@EA@KOctree@@8   10043418     KOctree.obj
 0002:00006434       ??_R4KScriptCache@@6B@     10043434     KScriptCache.obj
 0002:00006448       ??_R3KScriptCache@@8       10043448     KScriptCache.obj
 0002:00006458       ??_R2KScriptCache@@8       10043458     KScriptCache.obj
 0002:00006464       ??_R1A@?0A@EA@KScriptCache@@8 10043464     KScriptCache.obj
 0002:00006480       ??_R4KStepLuaScript@@6B@   10043480     KScriptList.obj
 0002:00006494       ??_R3KStepLuaScript@@8     10043494     KScriptList.obj
 0002:000064a4       ??_R2KStepLuaScript@@8     100434a4     KScriptList.obj
 0002:000064b4       ??_R1A@?0A@EA@KStepLuaScript@@8 100434b4     KScriptList.obj
 0002:000064d0       ??_R4KScriptNode@@6B@      100434d0     KScriptList.obj
 0002:000064e4       ??_R3KScriptNode@@8        100434e4     KScriptList.obj
 0002:000064f4       ??_R2KScriptNode@@8        100434f4     KScriptList.obj
 0002:00006500       ??_R1A@?0A@EA@KScriptNode@@8 10043500     KScriptList.obj
 0002:0000651c       ??_R4TBinTreeNode@@6B@     1004351c     KSortBinTree.obj
 0002:00006530       ??_R3TBinTreeNode@@8       10043530     KSortBinTree.obj
 0002:00006540       ??_R2TBinTreeNode@@8       10043540     KSortBinTree.obj
 0002:00006548       ??_R1A@?0A@EA@TBinTreeNode@@8 10043548     KSortBinTree.obj
 0002:00006564       ??_R4KSoundCache@@6B@      10043564     KSoundCache.obj
 0002:00006578       ??_R3KSoundCache@@8        10043578     KSoundCache.obj
 0002:00006588       ??_R2KSoundCache@@8        10043588     KSoundCache.obj
 0002:00006594       ??_R1A@?0A@EA@KSoundCache@@8 10043594     KSoundCache.obj
 0002:000065b0       ??_R4KSpriteCache@@6B@     100435b0     KSpriteCache.obj
 0002:000065c4       ??_R3KSpriteCache@@8       100435c4     KSpriteCache.obj
 0002:000065d4       ??_R2KSpriteCache@@8       100435d4     KSpriteCache.obj
 0002:000065e0       ??_R1A@?0A@EA@KSpriteCache@@8 100435e0     KSpriteCache.obj
 0002:000065fc       ??_R4KITabFile@@6B@        100435fc     KTabFile.obj
 0002:00006610       ??_R3KITabFile@@8          10043610     KTabFile.obj
 0002:00006620       ??_R2KITabFile@@8          10043620     KTabFile.obj
 0002:00006628       ??_R1A@?0A@EA@KITabFile@@8 10043628     KTabFile.obj
 0002:00006644       ??_R4KTabFile@@6B@         10043644     KTabFile.obj
 0002:00006658       ??_R3KTabFile@@8           10043658     KTabFile.obj
 0002:00006668       ??_R2KTabFile@@8           10043668     KTabFile.obj
 0002:00006674       ??_R1A@?0A@EA@KTabFile@@8  10043674     KTabFile.obj
 0002:00006690       ??_R4KTabFileCtrl@@6B@     10043690     KTabFileCtrl.obj
 0002:000066a4       ??_R3KTabFileCtrl@@8       100436a4     KTabFileCtrl.obj
 0002:000066b4       ??_R2KTabFileCtrl@@8       100436b4     KTabFileCtrl.obj
 0002:000066c0       ??_R1A@?0A@EA@KTabFileCtrl@@8 100436c0     KTabFileCtrl.obj
 0002:000066dc       ??_R4TTabLineNode@@6B@     100436dc     KTabFileCtrl.obj
 0002:000066f0       ??_R3TTabLineNode@@8       100436f0     KTabFileCtrl.obj
 0002:00006700       ??_R2TTabLineNode@@8       10043700     KTabFileCtrl.obj
 0002:0000670c       ??_R1A@?0A@EA@TTabLineNode@@8 1004370c     KTabFileCtrl.obj
 0002:00006728       ??_R4TTabColNode@@6B@      10043728     KTabFileCtrl.obj
 0002:0000673c       ??_R3TTabColNode@@8        1004373c     KTabFileCtrl.obj
 0002:0000674c       ??_R2TTabColNode@@8        1004374c     KTabFileCtrl.obj
 0002:00006758       ??_R1A@?0A@EA@TTabColNode@@8 10043758     KTabFileCtrl.obj
 0002:00006774       ??_R4KWavMusic@@6B@        10043774     KWavMusic.obj
 0002:00006788       ??_R3KWavMusic@@8          10043788     KWavMusic.obj
 0002:00006798       ??_R2KWavMusic@@8          10043798     KWavMusic.obj
 0002:000067a4       ??_R1A@?0A@EA@KWavMusic@@8 100437a4     KWavMusic.obj
 0002:000067c0       ??_R4type_info@@6B@        100437c0     MSVCRT:ti_inst.obj
 0002:000067d4       ??_R3type_info@@8          100437d4     MSVCRT:ti_inst.obj
 0002:000067e4       ??_R2type_info@@8          100437e4     MSVCRT:ti_inst.obj
 0002:000067ec       ??_R1A@?0A@EA@type_info@@8 100437ec     MSVCRT:ti_inst.obj
 0002:00006808       ___rtc_iaa                 10043808     MSVCRT:initsect.obj
 0002:0000680c       ___rtc_izz                 1004380c     MSVCRT:initsect.obj
 0002:00006810       ___rtc_taa                 10043810     MSVCRT:initsect.obj
 0002:00006814       ___rtc_tzz                 10043814     MSVCRT:initsect.obj
 0002:0000806c       __IMPORT_DESCRIPTOR_DDRAW  1004506c     ddraw:DDRAW.dll
 0002:00008080       __IMPORT_DESCRIPTOR_DSOUND 10045080     dsound:DSOUND.dll
 0002:00008094       __IMPORT_DESCRIPTOR_WINMM  10045094     winmm:WINMM.dll
 0002:000080a8       __IMPORT_DESCRIPTOR_DINPUT8 100450a8     dinput8:DINPUT8.dll
 0002:000080bc       __IMPORT_DESCRIPTOR_KERNEL32 100450bc     kernel32:KERNEL32.dll
 0002:000080d0       __IMPORT_DESCRIPTOR_USER32 100450d0     user32:USER32.dll
 0002:000080e4       __IMPORT_DESCRIPTOR_GDI32  100450e4     gdi32:GDI32.dll
 0002:000080f8       __IMPORT_DESCRIPTOR_comdlg32 100450f8     comdlg32:comdlg32.dll
 0002:0000810c       __IMPORT_DESCRIPTOR_LuaLibDll 1004510c     LuaLibDll:LuaLibDll.dll
 0002:00008120       __IMPORT_DESCRIPTOR_MSVCR80 10045120     MSVCRT:MSVCR80.dll
 0002:00008134       __IMPORT_DESCRIPTOR_IMM32  10045134     imm32:IMM32.dll
 0002:00008148       __NULL_IMPORT_DESCRIPTOR   10045148     ddraw:DDRAW.dll
 0003:00000000       ??_R0?AVKWin32App@@@8      10053000     KAutoMutex.obj
 0003:00000018       ??_R0?AVKNode@@@8          10053018     KCache.obj
 0003:0000002c       ??_R0?AVKStrNode@@@8       1005302c     KCache.obj
 0003:00000044       ??_R0?AVKCacheNode@@@8     10053044     KCache.obj
 0003:00000060       ??_R0?AVKCache@@@8         10053060     KCache.obj
 0003:00000078       ??_R0?AVKDrawNode@@@8      10053078     KCanvas.obj
 0003:00000090       ??_R0?AVKCodec@@@8         10053090     KCodec.obj
 0003:000000a8       ??_R0?AVKCodecLzo@@@8      100530a8     KCodec.obj
 0003:000000c0       ?g_RGB@@3P6AGHHH@ZA        100530c0     KColors.obj
 0003:000002d0       ??_R0?AVKScript@@@8        100532d0     KEicScript.obj
 0003:000002e8       ??_R0?AVKEicScript@@@8     100532e8     KEicScript.obj
 0003:00000304       ??_R0?AVKLuaScript@@@8     10053304     KEicScriptSet.obj
 0003:00000320       ??_R0?AVKScriptSet@@@8     10053320     KEicScriptSet.obj
 0003:0000033c       ??_R0?AVKEicScriptSet@@@8  1005333c     KEicScriptSet.obj
 0003:00000564       ??_R0?AVKHashNode@@@8      10053564     KHashNode.obj
 0003:0000057c       ??_R0?AVKStackNode@@@8     1005357c     KLubCmpl_Blocker.obj
 0003:00000598       ??_R0?AVKLineNode@@@8      10053598     KLubCmpl_Blocker.obj
 0003:000005e0       ??_R0?AVKMusic@@@8         100535e0     KMp3Music.obj
 0003:000005f8       ??_R0?AVKMp3Music@@@8      100535f8     KMp3Music.obj
 0003:00000614       ??_R0?AVKMp4Audio@@@8      10053614     KMp4Audio.obj
 0003:0000062c       ??_R0?AVKVideo@@@8         1005362c     KMp4Movie.obj
 0003:00000644       ??_R0?AVKMp4Video@@@8      10053644     KMp4Movie.obj
 0003:0000065c       ??_R0?AVKMpgMusic@@@8      1005365c     KMpgMusic.obj
 0003:00000674       ??_R0?AVKMsgNode@@@8       10053674     KMsgNode.obj
 0003:0000068c       ??_R0?AVKOctreeNode@@@8    1005368c     KOctree.obj
 0003:000006a8       ??_R0?AVKOctree@@@8        100536a8     KOctree.obj
 0003:000006c8       ??_R0?AVKScriptCache@@@8   100536c8     KScriptCache.obj
 0003:000006e4       ??_R0?AVKStepLuaScript@@@8 100536e4     KScriptList.obj
 0003:00000704       ??_R0?AVKScriptNode@@@8    10053704     KScriptList.obj
 0003:00000720       ??_R0?AVTBinTreeNode@@@8   10053720     KSortBinTree.obj
 0003:0000073c       ??_R0?AVKSoundCache@@@8    1005373c     KSoundCache.obj
 0003:00000758       ??_R0?AVKSpriteCache@@@8   10053758     KSpriteCache.obj
 0003:00000774       ??_R0?AVKITabFile@@@8      10053774     KTabFile.obj
 0003:0000078c       ??_R0?AVKTabFile@@@8       1005378c     KTabFile.obj
 0003:000007a4       ??_R0?AVKTabFileCtrl@@@8   100537a4     KTabFileCtrl.obj
 0003:000007c0       ??_R0?AVTTabLineNode@@@8   100537c0     KTabFileCtrl.obj
 0003:000007dc       ??_R0?AVTTabColNode@@@8    100537dc     KTabFileCtrl.obj
 0003:000007f8       ??_R0?AVKWavMusic@@@8      100537f8     KWavMusic.obj
 0003:00000a94       ?s_NotAllowAtLineHeadA1Characters@@3PAEA 10053a94     Text.obj
 0003:00000aa0       ?s_NotAllowAtLineHeadA3Characters@@3PAEA 10053aa0     Text.obj
 0003:00000aac       ?s_NotAllowAtLineHead00Characters@@3PAEA 10053aac     Text.obj
 0003:00000ab4       _ucl_alloc_hook            10053ab4     alloc.obj
 0003:00000ab8       _ucl_free_hook             10053ab8     alloc.obj
 0003:00000ad8       _jpeg_zigzag               10053ad8     JpgLib:KJpegDecode.obj
 0003:00000e08       _band_limit_nsb            10053e08     mp3lib:KMp3Decode.obj
 0003:00005390       _wincoef                   10058390     mp3lib:KMp3Win.obj
 0003:00006dc0       ___security_cookie         10059dc0     MSVCRT:gs_cookie.obj
 0003:00006dc4       ___security_cookie_complement 10059dc4     MSVCRT:gs_cookie.obj
 0003:00006dc8       ??_R0?AVtype_info@@@8      10059dc8     MSVCRT:ti_inst.obj
 0003:00006de0       ___native_dllmain_reason   10059de0     MSVCRT:natstart.obj
 0003:00006de4       ___native_vcclrit_reason   10059de4     MSVCRT:natstart.obj
 0003:00006e00       ?g_pCanvas@@3PAVKCanvas@@A 10059e00     KCanvas.obj
 0003:00006e04       ?g_pDirectDraw@@3PAVKDirectDraw@@A 10059e04     KDDraw.obj
 0003:00006e10       ?g_pDirectInput@@3PAVKDirectInput@@A 10059e10     KDInput.obj
 0003:00006e1c       ?g_pDirectSound@@3PAVKDirectSound@@A 10059e1c     KDSound.obj
 0003:00006e30       ?g_pIme@@3PAVKIme@@A       10059e30     Kime.obj
 0003:00006e3c       ?g_pKeyboard@@3PAVKKeyboard@@A 10059e3c     KKeyboard.obj
 0003:00006e48       ?g_MemManager@@3VKMemManager@@A 10059e48     KMemManager.obj
 0003:00006e9c       ?g_pMouse@@3PAVKMouse@@A   10059e9c     KMouse.obj
 0003:00006ebc       ?g_pPakList@@3PAVKPakList@@A 10059ebc     KPakList.obj
 0003:00007228       ?sout@@3PAU_iobuf@@A       1005a228     KWin32App.obj
 0003:0000722c       ?serr@@3PAU_iobuf@@A       1005a22c     KWin32App.obj
 0003:00007240       ?g_pZipList@@3PAVKZipList@@A 1005a240     KZipList.obj
 0003:00007248       ?ms_ElemFileCache@XPackFile@@0PAUXPackElemFileCache@1@A 1005a248     XPackFile.obj
 0003:00007338       ?ms_nNumElemFileCache@XPackFile@@0HA 1005a338     XPackFile.obj
 0003:0000733c       ?g_pIInlinePicSink@@3PAUIInlinePicEngineSink@@A 1005a33c     Text.obj
 0003:00007364       ___ucl_init_done           1005a364     ucl_init.obj
 0003:00007368       _jpeg_stream               1005a368     JpgLib:KJpegLib.obj
 0003:0000736c       _jpeg_IDCT                 1005a36c     JpgLib:KJpegLib.obj
 0003:00007370       _jpeg_Y2RGB                1005a370     JpgLib:KJpegLib.obj
 0003:00007374       _jpeg_YCbCr411             1005a374     JpgLib:KJpegLib.obj
 0003:00007378       _jpeg_YCbCr111             1005a378     JpgLib:KJpegLib.obj
 0003:0000f94c       __forceCRTManifest         1006294c     MSVCRT:crtmanifest.obj
 0003:0000f950       ?__type_info_root_node@@3U__type_info_node@@A 10062950     MSVCRT:tncleanup.obj
 0003:0000f960       _jpeg_cbbuf                10062960     <common>
 0003:0000f9e0       _jpeg_ybuf                 100629e0     <common>
 0003:0000fbe0       _jpeg_head                 10062be0     <common>
 0003:0000fbf5       _jpeg_bit                  10062bf5     <common>
 0003:0000fbf8       _jpeg_DC                   10062bf8     <common>
 0003:0000fc00       _jpeg_crbuf                10062c00     <common>
 0003:0000fc80       _jpeg_qtable               10062c80     <common>
 0003:0000fca0       _jpeg_htable               10062ca0     <common>
 0003:0000fce0       _mdct6_3v                  10062ce0     <common>
 0003:0000fd00       _mdct6_3v2                 10062d00     <common>
 0003:0000fd20       _mdct18w                   10062d20     <common>
 0003:0000fd80       _mdct18w2                  10062d80     <common>
 0003:0000fdc0       _coef                      10062dc0     <common>
 0003:0000fe50       _coef87                    10062e50     <common>
 0003:0000fe60       _coef32                    10062e60     <common>
 0003:0000fee0       _csa                       10062ee0     <common>
 0003:0000ff20       _win                       10062f20     <common>
 0003:00010160       _sfBandIndex               10063160     <common>
 0003:00010220       _bitdat                    10063220     <common>
 0003:00010240       _nBand                     10063240     <common>
 0003:000102f0       __adjust_fdiv              100632f0     <common>
 0003:000102f4       ___native_startup_state    100632f4     <common>
 0003:000102f8       ___native_startup_lock     100632f8     <common>
 0003:000102fc       ___sse2_available          100632fc     <common>
 0003:00010300       ___dyn_tls_init_callback   10063300     <common>
 0003:00010304       ___onexitend               10063304     <common>
 0003:00010308       ___onexitbegin             10063308     <common>

 entry point at        0001:00039bb1

 Static symbols

 0001:fffff000       __unwindfunclet$??1KSprite@@QAE@XZ$0 10000000 f   KWavFile.obj
 0001:fffff000       __unwindfunclet$??1KSprite@@QAE@XZ$0 10000000 f   KPcxFile.obj
 0001:fffff000       __unwindfunclet$??1KSprite@@QAE@XZ$0 10000000 f   KPakList.obj
 0001:fffff000       __unwindfunclet$??1KSprite@@QAE@XZ$0 10000000 f   KPakFile.obj
 0001:fffff000       __unwindfunclet$??1KSprite@@QAE@XZ$0 10000000 f   KMpgMusic.obj
 0001:fffff000       __unwindfunclet$??1KSprite@@QAE@XZ$0 10000000 f   KScriptCache.obj
 0001:fffff000       __unwindfunclet$??1KSprite@@QAE@XZ$0 10000000 f   KScriptList.obj
 0001:fffff000       __unwindfunclet$??1KSprite@@QAE@XZ$0 10000000 f   KSortBinTree.obj
 0001:fffff000       __unwindfunclet$??1KSprite@@QAE@XZ$0 10000000 f   KMp4Video.obj
 0001:fffff000       __unwindfunclet$??1KSprite@@QAE@XZ$0 10000000 f   KMp4Movie.obj
 0001:fffff000       __unwindfunclet$??0KMp3Music@@QAE@XZ$0 10000000 f   KMp4Movie.obj
 0001:fffff000       __unwindfunclet$??1KMp3Music@@UAE@XZ$0 10000000 f   KMp4Movie.obj
 0001:fffff000       __unwindfunclet$??0KMp4Audio@@QAE@XZ$0 10000000 f   KMp4Movie.obj
 0001:fffff000       __unwindfunclet$??1KSprite@@QAE@XZ$0 10000000 f   KSprite.obj
 0001:fffff000       __unwindfunclet$??1KMp4Audio@@UAE@XZ$0 10000000 f   KMp4Movie.obj
 0001:fffff000       __unwindfunclet$??1KSprite@@QAE@XZ$0 10000000 f   KMp4Audio.obj
 0001:fffff000       __unwindfunclet$??1KSprite@@QAE@XZ$0 10000000 f   KSpriteCache.obj
 0001:fffff000       __unwindfunclet$??0KMp3Music@@QAE@XZ$0 10000000 f   KMp4Audio.obj
 0001:fffff000       __unwindfunclet$??1KMp3Music@@UAE@XZ$0 10000000 f   KMp4Audio.obj
 0001:fffff000       __unwindfunclet$??1KSprite@@QAE@XZ$0 10000000 f   KMp3Music.obj
 0001:fffff000       __unwindfunclet$??1KSprite@@QAE@XZ$0 10000000 f   KMemClass1.obj
 0001:fffff000       __unwindfunclet$??1KSprite@@QAE@XZ$0 10000000 f   KSpriteMaker.obj
 0001:fffff000       __unwindfunclet$??1KSprite@@QAE@XZ$0 10000000 f   KLubCmpl_Blocker.obj
 0001:fffff000       __unwindfunclet$??1KSprite@@QAE@XZ$0 10000000 f   KLuaScript.obj
 0001:fffff000       __unwindfunclet$??1KSprite@@QAE@XZ$0 10000000 f   KLinkArray.obj
 0001:fffff000       __unwindfunclet$??1KSprite@@QAE@XZ$0 10000000 f   KJpgFile.obj
 0001:fffff000       __unwindfunclet$??1KSprite@@QAE@XZ$0 10000000 f   KIniFile.obj
 0001:fffff000       __unwindfunclet$??1KScriptNode@@UAE@XZ$0 10000000 f   KStepLuaScript.obj
 0001:fffff000       __unwindfunclet$??1KSprite@@QAE@XZ$0 10000000 f   KStepLuaScript.obj
 0001:fffff000       __unwindfunclet$??1KSprite@@QAE@XZ$0 10000000 f   Kime.obj
 0001:fffff000       __unwindfunclet$??0KHashTable@@QAE@XZ$0 10000000 f   KHashTable.obj
 0001:fffff000       __unwindfunclet$??1KHashTable@@QAE@XZ$0 10000000 f   KHashTable.obj
 0001:fffff000       __unwindfunclet$??1KSprite@@QAE@XZ$0 10000000 f   KGraphics.obj
 0001:fffff000       __unwindfunclet$??1KSprite@@QAE@XZ$0 10000000 f   KGifFile.obj
 0001:fffff000       __unwindfunclet$??1KSprite@@QAE@XZ$0 10000000 f   KFont.obj
 0001:fffff000       __unwindfunclet$??1KSprite@@QAE@XZ$0 10000000 f   KTabFile.obj
 0001:fffff000       __unwindfunclet$??1KSprite@@QAE@XZ$0 10000000 f   KFindBinTree.obj
 0001:fffff000       __unwindfunclet$??1KSprite@@QAE@XZ$0 10000000 f   KFilePath.obj
 0001:fffff000       __unwindfunclet$??1KSprite@@QAE@XZ$0 10000000 f   KEngine.obj
 0001:fffff000       __unwindfunclet$??1KSprite@@QAE@XZ$0 10000000 f   KBmpFile24.obj
 0001:fffff000       __unwindfunclet$??1KSprite@@QAE@XZ$0 10000000 f   KBmpFile.obj
 0001:fffff000       __unwindfunclet$??1KSprite@@QAE@XZ$0 10000000 f   KTabFileCtrl.obj
 0001:fffff000       __unwindfunclet$??1KSprite@@QAE@XZ$0 10000000 f   KBitmap16.obj
 0001:fffff000       __unwindfunclet$??1KSprite@@QAE@XZ$0 10000000 f   KTgaFile32.obj
 0001:fffff000       __unwindfunclet$??1KSprite@@QAE@XZ$0 10000000 f   KBitmap.obj
 0001:fffff000       __unwindfunclet$??1KSprite@@QAE@XZ$0 10000000 f   KAviFile.obj
 0001:fffff000       __unwindfunclet$??1KSprite@@QAE@XZ$0 10000000 f   KPolyRelation.obj
 0001:fffff000       __unwindfunclet$??1KSprite@@QAE@XZ$0 10000000 f   KWavMusic.obj
 0001:fffff000       __unwindfunclet$??1KSprite@@QAE@XZ$0 10000000 f   KWavSound.obj
 0001:fffff000       __unwindfunclet$??1KZipData@@QAE@XZ$0 10000000 f   KZipFile.obj
 0001:fffff000       __unwindfunclet$??0KZipData@@QAE@XZ$0 10000000 f   KZipFile.obj
 0001:fffff000       __unwindfunclet$??1KZipData@@QAE@XZ$0 10000000 f   KZipList.obj
 0001:fffff000       __unwindfunclet$??0KZipData@@QAE@XZ$0 10000000 f   KZipList.obj
 0001:fffff000       __unwindfunclet$??1KSprite@@QAE@XZ$0 10000000 f   XPackFile.obj
 0001:fffff008       __ehhandler$??1KSprite@@QAE@XZ 10000008 f   KWavMusic.obj
 0001:fffff008       __ehhandler$??1KSprite@@QAE@XZ 10000008 f   KStepLuaScript.obj
 0001:fffff008       __ehhandler$??1KSprite@@QAE@XZ 10000008 f   Kime.obj
 0001:fffff008       __ehhandler$??0KHashTable@@QAE@XZ 10000008 f   KHashTable.obj
 0001:fffff008       __ehhandler$??1KHashTable@@QAE@XZ 10000008 f   KHashTable.obj
 0001:fffff008       __ehhandler$??1KSprite@@QAE@XZ 10000008 f   KGraphics.obj
 0001:fffff008       __ehhandler$??1KSprite@@QAE@XZ 10000008 f   KGifFile.obj
 0001:fffff008       __ehhandler$??1KSprite@@QAE@XZ 10000008 f   KTabFile.obj
 0001:fffff008       __ehhandler$??1KSprite@@QAE@XZ 10000008 f   KFont.obj
 0001:fffff008       __ehhandler$??1KSprite@@QAE@XZ 10000008 f   KFindBinTree.obj
 0001:fffff008       __ehhandler$??1KSprite@@QAE@XZ 10000008 f   KFilePath.obj
 0001:fffff008       __ehhandler$??1KSprite@@QAE@XZ 10000008 f   KEngine.obj
 0001:fffff008       __ehhandler$??1KSprite@@QAE@XZ 10000008 f   KTabFileCtrl.obj
 0001:fffff008       __ehhandler$??1KSprite@@QAE@XZ 10000008 f   KJpgFile.obj
 0001:fffff008       __ehhandler$??1KScriptNode@@UAE@XZ 10000008 f   KStepLuaScript.obj
 0001:fffff008       __ehhandler$??1KSprite@@QAE@XZ 10000008 f   KBmpFile24.obj
 0001:fffff008       __ehhandler$??1KSprite@@QAE@XZ 10000008 f   KBmpFile.obj
 0001:fffff008       __ehhandler$??1KSprite@@QAE@XZ 10000008 f   KLinkArray.obj
 0001:fffff008       __ehhandler$??1KSprite@@QAE@XZ 10000008 f   KBitmap16.obj
 0001:fffff008       __ehhandler$??1KSprite@@QAE@XZ 10000008 f   KTgaFile32.obj
 0001:fffff008       __ehhandler$??1KSprite@@QAE@XZ 10000008 f   KLuaScript.obj
 0001:fffff008       __ehhandler$??1KSprite@@QAE@XZ 10000008 f   XPackFile.obj
 0001:fffff008       __ehhandler$??1KSprite@@QAE@XZ 10000008 f   KBitmap.obj
 0001:fffff008       __ehhandler$??1KSprite@@QAE@XZ 10000008 f   KLubCmpl_Blocker.obj
 0001:fffff008       __ehhandler$??0KZipData@@QAE@XZ 10000008 f   KZipList.obj
 0001:fffff008       __ehhandler$??1KSprite@@QAE@XZ 10000008 f   KAviFile.obj
 0001:fffff008       __ehhandler$??1KZipData@@QAE@XZ 10000008 f   KZipList.obj
 0001:fffff008       __ehhandler$??1KSprite@@QAE@XZ 10000008 f   KPolyRelation.obj
 0001:fffff008       __ehhandler$??1KSprite@@QAE@XZ 10000008 f   KPcxFile.obj
 0001:fffff008       __ehhandler$??1KSprite@@QAE@XZ 10000008 f   KPakList.obj
 0001:fffff008       __ehhandler$??1KSprite@@QAE@XZ 10000008 f   KPakFile.obj
 0001:fffff008       __ehhandler$??1KSprite@@QAE@XZ 10000008 f   KScriptCache.obj
 0001:fffff008       __ehhandler$??1KSprite@@QAE@XZ 10000008 f   KMpgMusic.obj
 0001:fffff008       __ehhandler$??1KSprite@@QAE@XZ 10000008 f   KSpriteMaker.obj
 0001:fffff008       __ehhandler$??0KZipData@@QAE@XZ 10000008 f   KZipFile.obj
 0001:fffff008       __ehhandler$??1KSprite@@QAE@XZ 10000008 f   KMemClass1.obj
 0001:fffff008       __ehhandler$??1KZipData@@QAE@XZ 10000008 f   KZipFile.obj
 0001:fffff008       __ehhandler$??1KSprite@@QAE@XZ 10000008 f   KMp3Music.obj
 0001:fffff008       __ehhandler$??1KSprite@@QAE@XZ 10000008 f   KScriptList.obj
 0001:fffff008       __ehhandler$??1KSprite@@QAE@XZ 10000008 f   KSortBinTree.obj
 0001:fffff008       __ehhandler$??1KSprite@@QAE@XZ 10000008 f   KIniFile.obj
 0001:fffff008       __ehhandler$??1KSprite@@QAE@XZ 10000008 f   KMp4Video.obj
 0001:fffff008       __ehhandler$??1KSprite@@QAE@XZ 10000008 f   KWavFile.obj
 0001:fffff008       __unwindfunclet$??1KMp3Music@@UAE@XZ$1 10000008 f   KMp4Audio.obj
 0001:fffff008       __ehhandler$??1KSprite@@QAE@XZ 10000008 f   KMp4Movie.obj
 0001:fffff008       __unwindfunclet$??0KMp3Music@@QAE@XZ$1 10000008 f   KMp4Movie.obj
 0001:fffff008       __unwindfunclet$??0KMp3Music@@QAE@XZ$1 10000008 f   KMp4Audio.obj
 0001:fffff008       __unwindfunclet$??1KMp3Music@@UAE@XZ$1 10000008 f   KMp4Movie.obj
 0001:fffff008       __ehhandler$??1KSprite@@QAE@XZ 10000008 f   KMp4Audio.obj
 0001:fffff008       __ehhandler$??1KSprite@@QAE@XZ 10000008 f   KSpriteCache.obj
 0001:fffff008       __ehhandler$??1KSprite@@QAE@XZ 10000008 f   KWavSound.obj
 0001:fffff008       __ehhandler$??1KSprite@@QAE@XZ 10000008 f   KSprite.obj
 0001:fffff008       __ehhandler$??0KMp4Audio@@QAE@XZ 10000008 f   KMp4Movie.obj
 0001:fffff008       __ehhandler$??1KMp4Audio@@UAE@XZ 10000008 f   KMp4Movie.obj
 0001:fffff013       __ehhandler$??1KMp3Music@@UAE@XZ 10000013 f   KMp4Movie.obj
 0001:fffff013       __ehhandler$??0KMp3Music@@QAE@XZ 10000013 f   KMp4Audio.obj
 0001:fffff013       __ehhandler$??0KMp3Music@@QAE@XZ 10000013 f   KMp4Movie.obj
 0001:fffff013       __ehhandler$??1KMp3Music@@UAE@XZ 10000013 f   KMp4Audio.obj
 0001:00000720       ?str2ulong@@YAKPAD@Z       10001720 f   KAviFile.obj
 0001:00009a70       ?FreeEicLib@@YAXXZ         1000aa70 f   KEicScript.obj
 0001:00009b20       ?LoadEicLib@@YAHXZ         1000ab20 f   KEicScript.obj
 0001:0000fe3b       __catch$?Load@KLuaScript@@UAEHPAD@Z$0 10010e3b f   KLuaScript.obj
 0001:00012e60       ?FreeMp4Lib@@YAXXZ         10013e60 f   KMp4Video.obj
 0001:00012fe0       ?LoadMp4Lib@@YAHXZ         10013fe0 f   KMp4Video.obj
 0001:00013760       ?FreeMpgLib@@YAXXZ         10014760 f   KMpgMusic.obj
 0001:00013890       ?LoadMpgLib@@YAHXZ         10014890 f   KMpgMusic.obj
 0001:0001ea10       ?ImaInitTable@@YAXXZ       1001fa10 f   KWavCodec.obj
 0001:0001ea70       ?ImaDecodeSample@@YAXHHPAEPAFHH@Z 1001fa70 f   KWavCodec.obj
 0001:0001eb80       ?ImaDecodeBlock@@YAXPAEPAFH@Z 1001fb80 f   KWavCodec.obj
 0001:0001f560       ?WndProc@@YGJPAUHWND__@@IIJ@Z 10020560 f   KWin32App.obj
 0001:00021640       ?md5_process@@YAXPAUmd5_state_s@@PBE@Z 10022640 f   md5.obj
 0001:00023060       ?TEncodeCtrl@@YAHHPADH0@Z  10024060 f   Text.obj
 0001:00023d90       ?TEncodeCtrl@@YA_NPADHAAH1@Z 10024d90 f   Text.obj
 0001:00024060       _ucl_alloc_internal        10025060 f   alloc.obj
 0001:000240a0       _ucl_free_internal         100250a0 f   alloc.obj
 0001:00024140       _swd_initdict              10025140 f   n2b_99.obj
 0001:00024190       _swd_insertdict            10025190 f   n2b_99.obj
 0001:00024210       _swd_init                  10025210 f   n2b_99.obj
 0001:000243f0       _swd_exit                  100253f0 f   n2b_99.obj
 0001:00024440       _swd_getbyte               10025440 f   n2b_99.obj
 0001:000244c0       _swd_remove_node           100254c0 f   n2b_99.obj
 0001:00024520       _swd_accept                10025520 f   n2b_99.obj
 0001:000245c0       _swd_search                100255c0 f   n2b_99.obj
 0001:00024660       _swd_search2               10025660 f   n2b_99.obj
 0001:00024690       _swd_findbest              10025690 f   n2b_99.obj
 0001:000247a0       _init_match                100257a0 f   n2b_99.obj
 0001:00024810       _find_match                10025810 f   n2b_99.obj
 0001:000248b0       _bbConfig                  100258b0 f   n2b_99.obj
 0001:00024900       _bbWriteBits               10025900 f   n2b_99.obj
 0001:00024930       _bbPutBit                  10025930 f   n2b_99.obj
 0001:00024980       _bbPutByte                 10025980 f   n2b_99.obj
 0001:00024990       _bbFlushBits               10025990 f   n2b_99.obj
 0001:000249d0       _code_prefix_ss11          100259d0 f   n2b_99.obj
 0001:00024a30       _code_match                10025a30 f   n2b_99.obj
 0001:00024b20       _code_run                  10025b20 f   n2b_99.obj
 0001:00024b70       _len_of_coded_match        10025b70 f   n2b_99.obj
 0001:000267a0       _swd_initdict              100277a0 f   n2d_99.obj
 0001:000267f0       _swd_insertdict            100277f0 f   n2d_99.obj
 0001:00026870       _swd_init                  10027870 f   n2d_99.obj
 0001:00026a50       _swd_exit                  10027a50 f   n2d_99.obj
 0001:00026aa0       _swd_getbyte               10027aa0 f   n2d_99.obj
 0001:00026b20       _swd_remove_node           10027b20 f   n2d_99.obj
 0001:00026b80       _swd_accept                10027b80 f   n2d_99.obj
 0001:00026c20       _swd_search                10027c20 f   n2d_99.obj
 0001:00026cc0       _swd_search2               10027cc0 f   n2d_99.obj
 0001:00026cf0       _swd_findbest              10027cf0 f   n2d_99.obj
 0001:00026e00       _init_match                10027e00 f   n2d_99.obj
 0001:00026e70       _find_match                10027e70 f   n2d_99.obj
 0001:00026f10       _bbConfig                  10027f10 f   n2d_99.obj
 0001:00026f60       _bbWriteBits               10027f60 f   n2d_99.obj
 0001:00026f90       _bbPutBit                  10027f90 f   n2d_99.obj
 0001:00026fe0       _bbPutByte                 10027fe0 f   n2d_99.obj
 0001:00026ff0       _bbFlushBits               10027ff0 f   n2d_99.obj
 0001:00027030       _code_prefix_ss11          10028030 f   n2d_99.obj
 0001:00027090       _code_prefix_ss12          10028090 f   n2d_99.obj
 0001:00027110       _code_match                10028110 f   n2d_99.obj
 0001:00027220       _code_run                  10028220 f   n2d_99.obj
 0001:00027270       _len_of_coded_match        10028270 f   n2d_99.obj
 0001:00029140       _swd_initdict              1002a140 f   n2e_99.obj
 0001:00029190       _swd_insertdict            1002a190 f   n2e_99.obj
 0001:00029210       _swd_init                  1002a210 f   n2e_99.obj
 0001:000293f0       _swd_exit                  1002a3f0 f   n2e_99.obj
 0001:00029440       _swd_getbyte               1002a440 f   n2e_99.obj
 0001:000294c0       _swd_remove_node           1002a4c0 f   n2e_99.obj
 0001:00029520       _swd_accept                1002a520 f   n2e_99.obj
 0001:000295c0       _swd_search                1002a5c0 f   n2e_99.obj
 0001:00029660       _swd_search2               1002a660 f   n2e_99.obj
 0001:00029690       _swd_findbest              1002a690 f   n2e_99.obj
 0001:000297a0       _init_match                1002a7a0 f   n2e_99.obj
 0001:00029810       _find_match                1002a810 f   n2e_99.obj
 0001:000298b0       _bbConfig                  1002a8b0 f   n2e_99.obj
 0001:00029900       _bbWriteBits               1002a900 f   n2e_99.obj
 0001:00029930       _bbPutBit                  1002a930 f   n2e_99.obj
 0001:00029980       _bbPutByte                 1002a980 f   n2e_99.obj
 0001:00029990       _bbFlushBits               1002a990 f   n2e_99.obj
 0001:000299d0       _code_prefix_ss11          1002a9d0 f   n2e_99.obj
 0001:00029a30       _code_prefix_ss12          1002aa30 f   n2e_99.obj
 0001:00029ab0       _code_match                1002aab0 f   n2e_99.obj
 0001:00029bd0       _code_run                  1002abd0 f   n2e_99.obj
 0001:00029c20       _len_of_coded_match        1002ac20 f   n2e_99.obj
 0001:0002bf80       _basic_integral_check      1002cf80 f   ucl_init.obj
 0001:0002bf90       _basic_ptr_check           1002cf90 f   ucl_init.obj
 0001:0002bfa0       _ptr_check                 1002cfa0 f   ucl_init.obj
 0001:0002c110       _schedule_insns_bug        1002d110 f   ucl_init.obj
 0001:0002c120       _strength_reduce_bug       1002d120 f   ucl_init.obj
 0001:0002dfe0       _Y2RGB                     1002efe0 f   JpgLib:KJpegColor.obj
 0001:0002e030       _YCbCr411_565              1002f030 f   JpgLib:KJpegColor.obj
 0001:0002e2e0       _YCbCr411_555              1002f2e0 f   JpgLib:KJpegColor.obj
 0001:0002e580       _RGB16_555                 1002f580 f   JpgLib:KJpegColor.obj
 0001:0002e610       _RGB16_565                 1002f610 f   JpgLib:KJpegColor.obj
 0001:0002e6a0       _YCbCr411_nommx            1002f6a0 f   JpgLib:KJpegColor.obj
 0001:0002e860       _YCbCr111                  1002f860 f   JpgLib:KJpegColor.obj
 0001:0002fda0       _Xform_mono                10030da0 f   mp3lib:KMp3Decode.obj
 0001:0002fe50       _Xform_dual_right          10030e50 f   mp3lib:KMp3Decode.obj
 0001:0002ff00       _Xform_dual                10030f00 f   mp3lib:KMp3Decode.obj
 0001:00030020       _Xform_dual_mono           10031020 f   mp3lib:KMp3Decode.obj
 0001:000301e0       _L3audio_decode_MPEG1      100311e0 f   mp3lib:KMp3Decode.obj
 0001:00030360       _bitget_init               10031360 f   mp3lib:KMp3Decode.obj
 0001:00030380       _unpack_side_MPEG1         10031380 f   mp3lib:KMp3Decode.obj
 0001:00030650       _unpack_main               10031650 f   mp3lib:KMp3Decode.obj
 0001:00030ba0       _bitget_init_end           10031ba0 f   mp3lib:KMp3Decode.obj
 0001:00030bb0       _bitget_bits_used          10031bb0 f   mp3lib:KMp3Decode.obj
 0001:00030fa0       _L3audio_decode_MPEG2      10031fa0 f   mp3lib:KMp3Decode.obj
 0001:00031130       _unpack_side_MPEG2         10032130 f   mp3lib:KMp3Decode.obj
 0001:00031480       _gencoef                   10032480 f   mp3lib:KMp3Sbt.obj
 0001:00032be0       _bitget_lb                 10033be0 f   mp3lib:KMp3Huf.obj
 0001:00032c50       _bitget2                   10033c50 f   mp3lib:KMp3Huf.obj
 0001:00034150       _forward_bf                10035150 f   mp3lib:KMp3Fdct.obj
 0001:00034210       _back_bf                   10035210 f   mp3lib:KMp3Fdct.obj
 0001:000393c6       ?ArrayUnwindFilter@@YAHPAU_EXCEPTION_POINTERS@@@Z 1003a3c6 f   MSVCRT:ehvecdtr.obj
 0001:0003988b       _pre_c_init                1003a88b f   MSVCRT:crtdll.obj
 0001:00039a9b       ___DllMainCRTStartup       1003aa9b f   MSVCRT:crtdll.obj
 0001:00039d7e       _has_osfxsr_set            1003ad7e f   MSVCRT:cpu_disp.obj
 0001:0003a150       __unwindfunclet$??1KSprite@@QAE@XZ$0 1003b150 f   KAutoMutex.obj
 0001:0003a158       __ehhandler$??1KSprite@@QAE@XZ 1003b158 f   KAutoMutex.obj
 0001:0003a180       __unwindfunclet$??1KAviFile@@QAE@XZ$0 1003b180 f   KAviFile.obj
 0001:0003a18e       __ehhandler$??1KAviFile@@QAE@XZ 1003b18e f   KAviFile.obj
 0001:0003a1b0       __unwindfunclet$?Load@KBitmap@@QAEHPAD@Z$0 1003b1b0 f   KBitmap.obj
 0001:0003a1b8       __ehhandler$?Load@KBitmap@@QAEHPAD@Z 1003b1b8 f   KBitmap.obj
 0001:0003a1e0       __unwindfunclet$?Save@KBitmap@@QAEHPAD@Z$0 1003b1e0 f   KBitmap.obj
 0001:0003a1e8       __ehhandler$?Save@KBitmap@@QAEHPAD@Z 1003b1e8 f   KBitmap.obj
 0001:0003a210       __unwindfunclet$?Load@KBitmap16@@QAEHPAD@Z$0 1003b210 f   KBitmap16.obj
 0001:0003a218       __ehhandler$?Load@KBitmap16@@QAEHPAD@Z 1003b218 f   KBitmap16.obj
 0001:0003a240       __unwindfunclet$?Save@KBitmap16@@QAEHPAD@Z$0 1003b240 f   KBitmap16.obj
 0001:0003a248       __ehhandler$?Save@KBitmap16@@QAEHPAD@Z 1003b248 f   KBitmap16.obj
 0001:0003a270       __unwindfunclet$?Load@KBmpFile@@QAEHPADPAVKBitmap@@@Z$0 1003b270 f   KBmpFile.obj
 0001:0003a278       __unwindfunclet$?Load@KBmpFile@@QAEHPADPAVKBitmap@@@Z$1 1003b278 f   KBmpFile.obj
 0001:0003a280       __ehhandler$?Load@KBmpFile@@QAEHPADPAVKBitmap@@@Z 1003b280 f   KBmpFile.obj
 0001:0003a2a0       __unwindfunclet$?Save@KBmpFile@@QAEHPADPAVKBitmap@@@Z$0 1003b2a0 f   KBmpFile.obj
 0001:0003a2a8       __unwindfunclet$?Save@KBmpFile@@QAEHPADPAVKBitmap@@@Z$1 1003b2a8 f   KBmpFile.obj
 0001:0003a2b0       __ehhandler$?Save@KBmpFile@@QAEHPADPAVKBitmap@@@Z 1003b2b0 f   KBmpFile.obj
 0001:0003a2d0       __unwindfunclet$?SaveBuffer@KBmpFile24@@CAHPADPAXHHH_N@Z$0 1003b2d0 f   KBmpFile24.obj
 0001:0003a2d8       __unwindfunclet$?SaveBuffer@KBmpFile24@@CAHPADPAXHHH_N@Z$1 1003b2d8 f   KBmpFile24.obj
 0001:0003a2e0       __ehhandler$?SaveBuffer@KBmpFile24@@CAHPADPAXHHH_N@Z 1003b2e0 f   KBmpFile24.obj
 0001:0003a300       __unwindfunclet$?Load@KBmpFile24@@QAEHPADPAVKBitmap16@@@Z$0 1003b300 f   KBmpFile24.obj
 0001:0003a308       __unwindfunclet$?Load@KBmpFile24@@QAEHPADPAVKBitmap16@@@Z$1 1003b308 f   KBmpFile24.obj
 0001:0003a310       __ehhandler$?Load@KBmpFile24@@QAEHPADPAVKBitmap16@@@Z 1003b310 f   KBmpFile24.obj
 0001:0003a330       __unwindfunclet$?Save@KBmpFile24@@QAEHPADPAVKBitmap16@@@Z$0 1003b330 f   KBmpFile24.obj
 0001:0003a338       __unwindfunclet$?Save@KBmpFile24@@QAEHPADPAVKBitmap16@@@Z$1 1003b338 f   KBmpFile24.obj
 0001:0003a340       __ehhandler$?Save@KBmpFile24@@QAEHPADPAVKBitmap16@@@Z 1003b340 f   KBmpFile24.obj
 0001:0003a360       __unwindfunclet$?NewNode@KCache@@UAEPAVKCacheNode@@PAD@Z$0 1003b360 f   KCache.obj
 0001:0003a36b       __unwindfunclet$?NewNode@KCache@@UAEPAVKCacheNode@@PAD@Z$1 1003b36b f   KCache.obj
 0001:0003a376       __ehhandler$?NewNode@KCache@@UAEPAVKCacheNode@@PAD@Z 1003b376 f   KCache.obj
 0001:0003a3a0       __unwindfunclet$?DrawPixelAlpha@KCanvas@@QAEXHHHH@Z$0 1003b3a0 f   KCanvas.obj
 0001:0003a3a8       __ehhandler$?DrawPixelAlpha@KCanvas@@QAEXHHHH@Z 1003b3a8 f   KCanvas.obj
 0001:0003a3d0       __unwindfunclet$?DrawLine@KCanvas@@QAEXHHHHH@Z$0 1003b3d0 f   KCanvas.obj
 0001:0003a3d8       __ehhandler$?DrawLine@KCanvas@@QAEXHHHHH@Z 1003b3d8 f   KCanvas.obj
 0001:0003a400       __unwindfunclet$?DrawLineAlpha@KCanvas@@QAEXHHHHHH@Z$0 1003b400 f   KCanvas.obj
 0001:0003a408       __ehhandler$?DrawLineAlpha@KCanvas@@QAEXHHHHHH@Z 1003b408 f   KCanvas.obj
 0001:0003a430       __unwindfunclet$?DrawSprite@KCanvas@@QAEXHHHHPAX0@Z$0 1003b430 f   KCanvas.obj
 0001:0003a438       __ehhandler$?DrawSprite@KCanvas@@QAEXHHHHPAX0@Z 1003b438 f   KCanvas.obj
 0001:0003a460       __unwindfunclet$?DrawSpriteMixColor@KCanvas@@QAEXHHHHPAX0HH@Z$0 1003b460 f   KCanvas.obj
 0001:0003a468       __ehhandler$?DrawSpriteMixColor@KCanvas@@QAEXHHHHPAX0HH@Z 1003b468 f   KCanvas.obj
 0001:0003a490       __unwindfunclet$?DrawSpriteWithColor@KCanvas@@QAEXHHHHPAX0HH@Z$0 1003b490 f   KCanvas.obj
 0001:0003a498       __ehhandler$?DrawSpriteWithColor@KCanvas@@QAEXHHHHPAX0HH@Z 1003b498 f   KCanvas.obj
 0001:0003a4c0       __unwindfunclet$?DrawSpriteAlpha@KCanvas@@QAEXHHHHPAX0H@Z$0 1003b4c0 f   KCanvas.obj
 0001:0003a4c8       __ehhandler$?DrawSpriteAlpha@KCanvas@@QAEXHHHHPAX0H@Z 1003b4c8 f   KCanvas.obj
 0001:0003a4f0       __unwindfunclet$?DrawSpriteBorder@KCanvas@@QAEXHHHHHPAX@Z$0 1003b4f0 f   KCanvas.obj
 0001:0003a4f8       __ehhandler$?DrawSpriteBorder@KCanvas@@QAEXHHHHHPAX@Z 1003b4f8 f   KCanvas.obj
 0001:0003a520       __unwindfunclet$?DrawSprite3LevelAlpha@KCanvas@@QAEXHHHHPAX0@Z$0 1003b520 f   KCanvas.obj
 0001:0003a528       __ehhandler$?DrawSprite3LevelAlpha@KCanvas@@QAEXHHHHPAX0@Z 1003b528 f   KCanvas.obj
 0001:0003a550       __unwindfunclet$?DrawFont@KCanvas@@QAEXHHHHHHPAX@Z$0 1003b550 f   KCanvas.obj
 0001:0003a558       __ehhandler$?DrawFont@KCanvas@@QAEXHHHHHHPAX@Z 1003b558 f   KCanvas.obj
 0001:0003a580       __unwindfunclet$?DrawFontWithBorder@KCanvas@@QAEXHHHHHHPAXH@Z$0 1003b580 f   KCanvas.obj
 0001:0003a588       __ehhandler$?DrawFontWithBorder@KCanvas@@QAEXHHHHHHPAXH@Z 1003b588 f   KCanvas.obj
 0001:0003a5b0       __unwindfunclet$?DrawFontSolid@KCanvas@@QAEXHHHHHHPAX@Z$0 1003b5b0 f   KCanvas.obj
 0001:0003a5b8       __ehhandler$?DrawFontSolid@KCanvas@@QAEXHHHHHHPAX@Z 1003b5b8 f   KCanvas.obj
 0001:0003a5e0       __unwindfunclet$?DrawBitmap@KCanvas@@QAEXHHHHPAX0@Z$0 1003b5e0 f   KCanvas.obj
 0001:0003a5e8       __ehhandler$?DrawBitmap@KCanvas@@QAEXHHHHPAX0@Z 1003b5e8 f   KCanvas.obj
 0001:0003a610       __unwindfunclet$?DrawFade@KCanvas@@QAEXHHHHH@Z$0 1003b610 f   KCanvas.obj
 0001:0003a618       __ehhandler$?DrawFade@KCanvas@@QAEXHHHHH@Z 1003b618 f   KCanvas.obj
 0001:0003a640       __unwindfunclet$?DrawBitmap16@KCanvas@@QAEXHHHHPAX@Z$0 1003b640 f   KCanvas.obj
 0001:0003a648       __ehhandler$?DrawBitmap16@KCanvas@@QAEXHHHHPAX@Z 1003b648 f   KCanvas.obj
 0001:0003a670       __unwindfunclet$?DrawBitmap16mmx@KCanvas@@QAEXHHHHPAX@Z$0 1003b670 f   KCanvas.obj
 0001:0003a678       __ehhandler$?DrawBitmap16mmx@KCanvas@@QAEXHHHHPAX@Z 1003b678 f   KCanvas.obj
 0001:0003a6a0       __unwindfunclet$?DrawBitmap16win@KCanvas@@QAEXHHHHPAX@Z$0 1003b6a0 f   KCanvas.obj
 0001:0003a6a8       __ehhandler$?DrawBitmap16win@KCanvas@@QAEXHHHHPAX@Z 1003b6a8 f   KCanvas.obj
 0001:0003a6d0       __unwindfunclet$?DotClear@KCanvas@@QAEXHHHHH@Z$0 1003b6d0 f   KCanvas.obj
 0001:0003a6d8       __ehhandler$?DotClear@KCanvas@@QAEXHHHHH@Z 1003b6d8 f   KCanvas.obj
 0001:0003a700       __unwindfunclet$?ClearAlpha@KCanvas@@QAEXHHHHHH@Z$0 1003b700 f   KCanvas.obj
 0001:0003a708       __ehhandler$?ClearAlpha@KCanvas@@QAEXHHHHHH@Z 1003b708 f   KCanvas.obj
 0001:0003a730       __unwindfunclet$?DrawPixel@KCanvas@@QAEXHHH@Z$0 1003b730 f   KCanvas.obj
 0001:0003a738       __ehhandler$?DrawPixel@KCanvas@@QAEXHHH@Z 1003b738 f   KCanvas.obj
 0001:0003a760       __unwindfunclet$?g_InitCodec@@YAXPAPAVKCodec@@H@Z$0 1003b760 f   KCodec.obj
 0001:0003a76b       __ehhandler$?g_InitCodec@@YAXPAPAVKCodec@@H@Z 1003b76b f   KCodec.obj
 0001:0003a790       __unwindfunclet$?g_DrawLineAlpha@@YAXPAX0@Z$0 1003b790 f   KDrawBase.obj
 0001:0003a798       __ehhandler$?g_DrawLineAlpha@@YAXPAX0@Z 1003b798 f   KDrawBase.obj
 0001:0003a7c0       __unwindfunclet$?g_DrawLine@@YAXPAX0@Z$0 1003b7c0 f   KDrawBase.obj
 0001:0003a7c8       __ehhandler$?g_DrawLine@@YAXPAX0@Z 1003b7c8 f   KDrawBase.obj
 0001:0003a7f0       __unwindfunclet$?Load@KFont@@QAEHPADW4CHARASET@@@Z$0 1003b7f0 f   KFont.obj
 0001:0003a7f8       __ehhandler$?Load@KFont@@QAEHPADW4CHARASET@@@Z 1003b7f8 f   KFont.obj
 0001:0003a820       __unwindfunclet$?Save@KFont@@QAEHPAD@Z$0 1003b820 f   KFont.obj
 0001:0003a828       __ehhandler$?Save@KFont@@QAEHPAD@Z 1003b828 f   KFont.obj
 0001:0003a850       __unwindfunclet$?MakeText@KFont@@QAEXPAD@Z$0 1003b850 f   KFont.obj
 0001:0003a85b       __ehhandler$?MakeText@KFont@@QAEXPAD@Z 1003b85b f   KFont.obj
 0001:0003a890       __unwindfunclet$??1KFont@@QAE@XZ$0 1003b890 f   KFont.obj
 0001:0003a898       __ehhandler$??1KFont@@QAE@XZ 1003b898 f   KFont.obj
 0001:0003a8c0       __unwindfunclet$?MakeFont@KFont@@QAEHPADHH@Z$0 1003b8c0 f   KFont.obj
 0001:0003a8cb       __ehhandler$?MakeFont@KFont@@QAEHPADHH@Z 1003b8cb f   KFont.obj
 0001:0003a900       __unwindfunclet$?Open@KGifFile@@QAEHPADPAVKBitmap@@@Z$0 1003b900 f   KGifFile.obj
 0001:0003a908       __ehhandler$?Open@KGifFile@@QAEHPADPAVKBitmap@@@Z 1003b908 f   KGifFile.obj
 0001:0003a930       __unwindfunclet$??0KHashTable@@QAE@XZ$0 1003b930 f   KHashNode.obj
 0001:0003a938       __ehhandler$??0KHashTable@@QAE@XZ 1003b938 f   KHashNode.obj
 0001:0003a960       __unwindfunclet$??1KHashTable@@QAE@XZ$0 1003b960 f   KHashNode.obj
 0001:0003a968       __ehhandler$??1KHashTable@@QAE@XZ 1003b968 f   KHashNode.obj
 0001:0003a990       __unwindfunclet$?Add@KHashTable@@QAEXPAVKStrNode@@@Z$0 1003b990 f   KHashTable.obj
 0001:0003a99b       __ehhandler$?Add@KHashTable@@QAEXPAVKStrNode@@@Z 1003b99b f   KHashTable.obj
 0001:0003a9c0       __unwindfunclet$??0KIniFile@@QAE@XZ$0 1003b9c0 f   KIniFile.obj
 0001:0003a9cb       __ehhandler$??0KIniFile@@QAE@XZ 1003b9cb f   KIniFile.obj
 0001:0003a9f0       __unwindfunclet$?SavePack@KIniFile@@QAEHPBD@Z$0 1003b9f0 f   KIniFile.obj
 0001:0003a9f8       __ehhandler$?SavePack@KIniFile@@QAEHPBD@Z 1003b9f8 f   KIniFile.obj
 0001:0003aa20       __unwindfunclet$?Save@KIniFile@@QAEHPBD@Z$0 1003ba20 f   KIniFile.obj
 0001:0003aa28       __ehhandler$?Save@KIniFile@@QAEHPBD@Z 1003ba28 f   KIniFile.obj
 0001:0003aa50       __unwindfunclet$??1KIniFile@@QAE@XZ$0 1003ba50 f   KIniFile.obj
 0001:0003aa5b       __ehhandler$??1KIniFile@@QAE@XZ 1003ba5b f   KIniFile.obj
 0001:0003aa80       __unwindfunclet$?LoadPack@KIniFile@@QAEHPBD@Z$0 1003ba80 f   KIniFile.obj
 0001:0003aa88       __ehhandler$?LoadPack@KIniFile@@QAEHPBD@Z 1003ba88 f   KIniFile.obj
 0001:0003aab0       __unwindfunclet$?Load@KIniFile@@QAEHPBD@Z$0 1003bab0 f   KIniFile.obj
 0001:0003aab8       __ehhandler$?Load@KIniFile@@QAEHPBD@Z 1003bab8 f   KIniFile.obj
 0001:0003aae0       __unwindfunclet$?Load@KJpgFile@@QAEHPADPAVKBitmap16@@I@Z$0 1003bae0 f   KJpgFile.obj
 0001:0003aae8       __ehhandler$?Load@KJpgFile@@QAEHPADPAVKBitmap16@@I@Z 1003bae8 f   KJpgFile.obj
 0001:0003ab10       __unwindfunclet$?Init@KLinkArray@@QAEXH@Z$0 1003bb10 f   KLinkArray.obj
 0001:0003ab1b       __ehhandler$?Init@KLinkArray@@QAEXH@Z 1003bb1b f   KLinkArray.obj
 0001:0003ab40       __unwindfunclet$?Load@KLuaScript@@UAEHPAD@Z$2 1003bb40 f   KLuaScript.obj
 0001:0003ab48       __unwindfunclet$?Load@KLuaScript@@UAEHPAD@Z$3 1003bb48 f   KLuaScript.obj
 0001:0003ab50       __ehhandler$?Load@KLuaScript@@UAEHPAD@Z 1003bb50 f   KLuaScript.obj
 0001:0003ab70       __unwindfunclet$?Load@KLubCmpl_Blocker@@QAEPAVKLineNode@@PAD@Z$0 1003bb70 f   KLubCmpl_Blocker.obj
 0001:0003ab7b       __ehhandler$?Load@KLubCmpl_Blocker@@QAEPAVKLineNode@@PAD@Z 1003bb7b f   KLubCmpl_Blocker.obj
 0001:0003abb0       __unwindfunclet$?Write@KLubCmpl_Blocker@@QAEHPAD@Z$0 1003bbb0 f   KLubCmpl_Blocker.obj
 0001:0003abb8       __ehhandler$?Write@KLubCmpl_Blocker@@QAEHPAD@Z 1003bbb8 f   KLubCmpl_Blocker.obj
 0001:0003abe0       __unwindfunclet$??1KMemList@@QAE@XZ$0 1003bbe0 f   KMemBase.obj
 0001:0003abe8       __ehhandler$??1KMemList@@QAE@XZ 1003bbe8 f   KMemBase.obj
 0001:0003ac10       __unwindfunclet$??0KMemManager@@QAE@XZ$0 1003bc10 f   KMemManager.obj
 0001:0003ac18       __ehhandler$??0KMemManager@@QAE@XZ 1003bc18 f   KMemManager.obj
 0001:0003ac40       __unwindfunclet$??1KMemManager@@QAE@XZ$0 1003bc40 f   KMemManager.obj
 0001:0003ac48       __ehhandler$??1KMemManager@@QAE@XZ 1003bc48 f   KMemManager.obj
 0001:0003ac70       __unwindfunclet$??0KMp3Music@@QAE@XZ$0 1003bc70 f   KMp3Music.obj
 0001:0003ac78       __unwindfunclet$??0KMp3Music@@QAE@XZ$1 1003bc78 f   KMp3Music.obj
 0001:0003ac83       __ehhandler$??0KMp3Music@@QAE@XZ 1003bc83 f   KMp3Music.obj
 0001:0003aca0       __unwindfunclet$??1KMp3Music@@UAE@XZ$0 1003bca0 f   KMp3Music.obj
 0001:0003aca8       __unwindfunclet$??1KMp3Music@@UAE@XZ$1 1003bca8 f   KMp3Music.obj
 0001:0003acb3       __ehhandler$??1KMp3Music@@UAE@XZ 1003bcb3 f   KMp3Music.obj
 0001:0003acd0       __unwindfunclet$??0KMp4Audio@@QAE@XZ$0 1003bcd0 f   KMp4Audio.obj
 0001:0003acd8       __ehhandler$??0KMp4Audio@@QAE@XZ 1003bcd8 f   KMp4Audio.obj
 0001:0003ad00       __unwindfunclet$??1KMp4Audio@@UAE@XZ$0 1003bd00 f   KMp4Audio.obj
 0001:0003ad08       __ehhandler$??1KMp4Audio@@UAE@XZ 1003bd08 f   KMp4Audio.obj
 0001:0003ad30       __unwindfunclet$??0KMp4Movie@@QAE@XZ$0 1003bd30 f   KMp4Movie.obj
 0001:0003ad38       __ehhandler$??0KMp4Movie@@QAE@XZ 1003bd38 f   KMp4Movie.obj
 0001:0003ad60       __unwindfunclet$??1KMp4Movie@@QAE@XZ$0 1003bd60 f   KMp4Movie.obj
 0001:0003ad68       __ehhandler$??1KMp4Movie@@QAE@XZ 1003bd68 f   KMp4Movie.obj
 0001:0003ad90       __unwindfunclet$??0KMp4Video@@QAE@XZ$0 1003bd90 f   KMp4Video.obj
 0001:0003ad98       __ehhandler$??0KMp4Video@@QAE@XZ 1003bd98 f   KMp4Video.obj
 0001:0003adc0       __unwindfunclet$??1KMp4Video@@QAE@XZ$0 1003bdc0 f   KMp4Video.obj
 0001:0003adc8       __unwindfunclet$??1KMp4Video@@QAE@XZ$1 1003bdc8 f   KMp4Video.obj
 0001:0003add6       __ehhandler$??1KMp4Video@@QAE@XZ 1003bdd6 f   KMp4Video.obj
 0001:0003ae00       __unwindfunclet$??0KMpgMusic@@QAE@XZ$0 1003be00 f   KMpgMusic.obj
 0001:0003ae08       __unwindfunclet$??0KMpgMusic@@QAE@XZ$1 1003be08 f   KMpgMusic.obj
 0001:0003ae13       __unwindfunclet$??0KMpgMusic@@QAE@XZ$2 1003be13 f   KMpgMusic.obj
 0001:0003ae21       __ehhandler$??0KMpgMusic@@QAE@XZ 1003be21 f   KMpgMusic.obj
 0001:0003ae40       __unwindfunclet$??1KMpgMusic@@UAE@XZ$0 1003be40 f   KMpgMusic.obj
 0001:0003ae48       __unwindfunclet$??1KMpgMusic@@UAE@XZ$1 1003be48 f   KMpgMusic.obj
 0001:0003ae53       __unwindfunclet$??1KMpgMusic@@UAE@XZ$2 1003be53 f   KMpgMusic.obj
 0001:0003ae61       __ehhandler$??1KMpgMusic@@UAE@XZ 1003be61 f   KMpgMusic.obj
 0001:0003ae80       __unwindfunclet$??1KMsgNode@@UAE@XZ$0 1003be80 f   KMsgNode.obj
 0001:0003ae88       __ehhandler$??1KMsgNode@@UAE@XZ 1003be88 f   KMsgNode.obj
 0001:0003aeb0       __unwindfunclet$??1KMusic@@UAE@XZ$0 1003beb0 f   KMusic.obj
 0001:0003aebb       __ehhandler$??1KMusic@@UAE@XZ 1003bebb f   KMusic.obj
 0001:0003aee0       __unwindfunclet$??1KOctree@@UAE@XZ$0 1003bee0 f   KOctree.obj
 0001:0003aeeb       __ehhandler$??1KOctree@@UAE@XZ 1003beeb f   KOctree.obj
 0001:0003af10       __unwindfunclet$??0KPakData@@QAE@XZ$0 1003bf10 f   KPakData.obj
 0001:0003af18       __ehhandler$??0KPakData@@QAE@XZ 1003bf18 f   KPakData.obj
 0001:0003af40       __unwindfunclet$??1KPakData@@QAE@XZ$0 1003bf40 f   KPakData.obj
 0001:0003af48       __unwindfunclet$??1KPakData@@QAE@XZ$1 1003bf48 f   KPakData.obj
 0001:0003af53       __ehhandler$??1KPakData@@QAE@XZ 1003bf53 f   KPakData.obj
 0001:0003af70       __unwindfunclet$??1KPakFile@@QAE@XZ$0 1003bf70 f   KPakFile.obj
 0001:0003af78       __ehhandler$??1KPakFile@@QAE@XZ 1003bf78 f   KPakFile.obj
 0001:0003afa0       __unwindfunclet$?SprGetHeader@@YAPAUSPRHEAD@@PBDAAPAUSPROFFS@@@Z$0 1003bfa0 f   KPakFile.obj
 0001:0003afa8       __ehhandler$?SprGetHeader@@YAPAUSPRHEAD@@PBDAAPAUSPROFFS@@@Z 1003bfa8 f   KPakFile.obj
 0001:0003afd0       __unwindfunclet$?get_jpg_image@@YAPAUKSGImageContent@@QBDI@Z$4 1003bfd0 f   KPakFile.obj
 0001:0003afd8       __ehhandler$?get_jpg_image@@YAPAUKSGImageContent@@QBDI@Z 1003bfd8 f   KPakFile.obj
 0001:0003b000       __unwindfunclet$?Open@KPakList@@QAE_NPBD@Z$0 1003c000 f   KPakList.obj
 0001:0003b00b       __unwindfunclet$?Open@KPakList@@QAE_NPBD@Z$1 1003c00b f   KPakList.obj
 0001:0003b019       __ehhandler$?Open@KPakList@@QAE_NPBD@Z 1003c019 f   KPakList.obj
 0001:0003b050       __unwindfunclet$?Pack@KPakTool@@QAEHPAD0H@Z$0 1003c050 f   KPakTool.obj
 0001:0003b058       __unwindfunclet$?Pack@KPakTool@@QAEHPAD0H@Z$1 1003c058 f   KPakTool.obj
 0001:0003b060       __unwindfunclet$?Pack@KPakTool@@QAEHPAD0H@Z$2 1003c060 f   KPakTool.obj
 0001:0003b068       __ehhandler$?Pack@KPakTool@@QAEHPAD0H@Z 1003c068 f   KPakTool.obj
 0001:0003b090       __unwindfunclet$?UnPack@KPakTool@@QAEHPAD0@Z$0 1003c090 f   KPakTool.obj
 0001:0003b098       __unwindfunclet$?UnPack@KPakTool@@QAEHPAD0@Z$1 1003c098 f   KPakTool.obj
 0001:0003b0a0       __unwindfunclet$?UnPack@KPakTool@@QAEHPAD0@Z$2 1003c0a0 f   KPakTool.obj
 0001:0003b0a8       __ehhandler$?UnPack@KPakTool@@QAEHPAD0@Z 1003c0a8 f   KPakTool.obj
 0001:0003b0d0       __unwindfunclet$?Load@KPcxFile@@QAEHPADPAVKBitmap@@@Z$0 1003c0d0 f   KPcxFile.obj
 0001:0003b0db       __unwindfunclet$?Load@KPcxFile@@QAEHPADPAVKBitmap@@@Z$1 1003c0db f   KPcxFile.obj
 0001:0003b0e6       __ehhandler$?Load@KPcxFile@@QAEHPADPAVKBitmap@@@Z 1003c0e6 f   KPcxFile.obj
 0001:0003b120       __unwindfunclet$??0KSafeList@@QAE@XZ$0 1003c120 f   KSafeList.obj
 0001:0003b128       __unwindfunclet$??0KSafeList@@QAE@XZ$1 1003c128 f   KSafeList.obj
 0001:0003b133       __ehhandler$??0KSafeList@@QAE@XZ 1003c133 f   KSafeList.obj
 0001:0003b150       __unwindfunclet$??1KSafeList@@QAE@XZ$0 1003c150 f   KSafeList.obj
 0001:0003b158       __unwindfunclet$??1KSafeList@@QAE@XZ$1 1003c158 f   KSafeList.obj
 0001:0003b163       __ehhandler$??1KSafeList@@QAE@XZ 1003c163 f   KSafeList.obj
 0001:0003b180       __unwindfunclet$??1KScriptCache@@QAE@XZ$0 1003c180 f   KScriptCache.obj
 0001:0003b188       __ehhandler$??1KScriptCache@@QAE@XZ 1003c188 f   KScriptCache.obj
 0001:0003b1b0       __unwindfunclet$?LoadNode@KScriptCache@@UAEHPAVKCacheNode@@@Z$0 1003c1b0 f   KScriptCache.obj
 0001:0003b1bb       __ehhandler$?LoadNode@KScriptCache@@UAEHPAVKCacheNode@@@Z 1003c1bb f   KScriptCache.obj
 0001:0003b1e0       __unwindfunclet$??1KScriptNode@@UAE@XZ$0 1003c1e0 f   KScriptList.obj
 0001:0003b1e8       __ehhandler$??1KScriptNode@@UAE@XZ 1003c1e8 f   KScriptList.obj
 0001:0003b210       __unwindfunclet$??0KSortList@@QAE@XZ$0 1003c210 f   KSortList.obj
 0001:0003b218       __ehhandler$??0KSortList@@QAE@XZ 1003c218 f   KSortList.obj
 0001:0003b240       __unwindfunclet$??1KSortList@@QAE@XZ$0 1003c240 f   KSortList.obj
 0001:0003b248       __ehhandler$??1KSortList@@QAE@XZ 1003c248 f   KSortList.obj
 0001:0003b270       __unwindfunclet$??1KSoundCache@@QAE@XZ$0 1003c270 f   KSoundCache.obj
 0001:0003b278       __ehhandler$??1KSoundCache@@QAE@XZ 1003c278 f   KSoundCache.obj
 0001:0003b2a0       __unwindfunclet$?LoadNode@KSoundCache@@UAEHPAVKCacheNode@@@Z$0 1003c2a0 f   KSoundCache.obj
 0001:0003b2ab       __ehhandler$?LoadNode@KSoundCache@@UAEHPAVKCacheNode@@@Z 1003c2ab f   KSoundCache.obj
 0001:0003b2d0       __unwindfunclet$??0KSprite@@QAE@XZ$0 1003c2d0 f   KSprite.obj
 0001:0003b2d8       __ehhandler$??0KSprite@@QAE@XZ 1003c2d8 f   KSprite.obj
 0001:0003b300       __unwindfunclet$?Load@KSprite@@QAEHPAD@Z$0 1003c300 f   KSprite.obj
 0001:0003b308       __ehhandler$?Load@KSprite@@QAEHPAD@Z 1003c308 f   KSprite.obj
 0001:0003b330       __unwindfunclet$?LoadFor3D@KSprite@@QAEHPAD@Z$0 1003c330 f   KSprite.obj
 0001:0003b338       __ehhandler$?LoadFor3D@KSprite@@QAEHPAD@Z 1003c338 f   KSprite.obj
 0001:0003b360       __unwindfunclet$??1KSpriteCache@@QAE@XZ$0 1003c360 f   KSpriteCache.obj
 0001:0003b368       __ehhandler$??1KSpriteCache@@QAE@XZ 1003c368 f   KSpriteCache.obj
 0001:0003b390       __unwindfunclet$?LoadNode@KSpriteCache@@UAEHPAVKCacheNode@@@Z$0 1003c390 f   KSpriteCache.obj
 0001:0003b39b       __ehhandler$?LoadNode@KSpriteCache@@UAEHPAVKCacheNode@@@Z 1003c39b f   KSpriteCache.obj
 0001:0003b3c0       __unwindfunclet$?Load@KSpriteMaker@@QAEHPAD@Z$0 1003c3c0 f   KSpriteMaker.obj
 0001:0003b3c8       __ehhandler$?Load@KSpriteMaker@@QAEHPAD@Z 1003c3c8 f   KSpriteMaker.obj
 0001:0003b3f0       __unwindfunclet$?AddFrame@KSpriteMaker@@QAEHPAVKBitmap@@H@Z$0 1003c3f0 f   KSpriteMaker.obj
 0001:0003b3f8       __ehhandler$?AddFrame@KSpriteMaker@@QAEHPAVKBitmap@@H@Z 1003c3f8 f   KSpriteMaker.obj
 0001:0003b420       __unwindfunclet$?AddAlphaFrame@KSpriteMaker@@QAEHPAVKBitmap@@0@Z$0 1003c420 f   KSpriteMaker.obj
 0001:0003b428       __ehhandler$?AddAlphaFrame@KSpriteMaker@@QAEHPAVKBitmap@@0@Z 1003c428 f   KSpriteMaker.obj
 0001:0003b450       __unwindfunclet$??1KSpriteMaker@@QAE@XZ$0 1003c450 f   KSpriteMaker.obj
 0001:0003b458       __unwindfunclet$??1KSpriteMaker@@QAE@XZ$1 1003c458 f   KSpriteMaker.obj
 0001:0003b463       __ehhandler$??1KSpriteMaker@@QAE@XZ 1003c463 f   KSpriteMaker.obj
 0001:0003b480       __unwindfunclet$?Save@KSpriteMaker@@QAEHPAD@Z$0 1003c480 f   KSpriteMaker.obj
 0001:0003b488       __ehhandler$?Save@KSpriteMaker@@QAEHPAD@Z 1003c488 f   KSpriteMaker.obj
 0001:0003b4b0       __unwindfunclet$??0KStepLuaScript@@QAE@XZ$0 1003c4b0 f   KStepLuaScript.obj
 0001:0003b4b8       __ehhandler$??0KStepLuaScript@@QAE@XZ 1003c4b8 f   KStepLuaScript.obj
 0001:0003b4e0       __unwindfunclet$??0KStepLuaScript@@QAE@H@Z$0 1003c4e0 f   KStepLuaScript.obj
 0001:0003b4e8       __ehhandler$??0KStepLuaScript@@QAE@H@Z 1003c4e8 f   KStepLuaScript.obj
 0001:0003b510       __unwindfunclet$??1KStepLuaScript@@UAE@XZ$0 1003c510 f   KStepLuaScript.obj
 0001:0003b518       __unwindfunclet$??1KStepLuaScript@@UAE@XZ$1 1003c518 f   KStepLuaScript.obj
 0001:0003b523       __ehhandler$??1KStepLuaScript@@UAE@XZ 1003c523 f   KStepLuaScript.obj
 0001:0003b540       __unwindfunclet$?GetExeBufferFromFile@KStepLuaScript@@QAEHPAD@Z$0 1003c540 f   KStepLuaScript.obj
 0001:0003b54b       __ehhandler$?GetExeBufferFromFile@KStepLuaScript@@QAEHPAD@Z 1003c54b f   KStepLuaScript.obj
 0001:0003b580       __unwindfunclet$?Load@KStepLuaScript@@UAEHPAD@Z$0 1003c580 f   KStepLuaScript.obj
 0001:0003b588       __ehhandler$?Load@KStepLuaScript@@UAEHPAD@Z 1003c588 f   KStepLuaScript.obj
 0001:0003b5c0       __unwindfunclet$??0KStrNode@@QAE@XZ$0 1003c5c0 f   KStrNode.obj
 0001:0003b5c8       __ehhandler$??0KStrNode@@QAE@XZ 1003c5c8 f   KStrNode.obj
 0001:0003b5f0       __unwindfunclet$??0KTabFile@@QAE@XZ$0 1003c5f0 f   KTabFile.obj
 0001:0003b5f8       __unwindfunclet$??0KTabFile@@QAE@XZ$1 1003c5f8 f   KTabFile.obj
 0001:0003b603       __ehhandler$??0KTabFile@@QAE@XZ 1003c603 f   KTabFile.obj
 0001:0003b620       __unwindfunclet$??1KTabFile@@UAE@XZ$0 1003c620 f   KTabFile.obj
 0001:0003b628       __unwindfunclet$??1KTabFile@@UAE@XZ$1 1003c628 f   KTabFile.obj
 0001:0003b633       __unwindfunclet$??1KTabFile@@UAE@XZ$2 1003c633 f   KTabFile.obj
 0001:0003b63e       __ehhandler$??1KTabFile@@UAE@XZ 1003c63e f   KTabFile.obj
 0001:0003b660       __unwindfunclet$?Load@KTabFile@@UAEHPAD@Z$0 1003c660 f   KTabFile.obj
 0001:0003b668       __ehhandler$?Load@KTabFile@@UAEHPAD@Z 1003c668 f   KTabFile.obj
 0001:0003b690       __unwindfunclet$??1TTabLineNode@@UAE@XZ$0 1003c690 f   KTabFileCtrl.obj
 0001:0003b698       __ehhandler$??1TTabLineNode@@UAE@XZ 1003c698 f   KTabFileCtrl.obj
 0001:0003b6c0       __unwindfunclet$??1TTabColNode@@UAE@XZ$0 1003c6c0 f   KTabFileCtrl.obj
 0001:0003b6c8       __ehhandler$??1TTabColNode@@UAE@XZ 1003c6c8 f   KTabFileCtrl.obj
 0001:0003b6f0       __unwindfunclet$?Save@KTabFileCtrl@@UAEHPAD@Z$0 1003c6f0 f   KTabFileCtrl.obj
 0001:0003b6fb       __ehhandler$?Save@KTabFileCtrl@@UAEHPAD@Z 1003c6fb f   KTabFileCtrl.obj
 0001:0003b730       __unwindfunclet$?Load@KTabFileCtrl@@UAEHPAD@Z$0 1003c730 f   KTabFileCtrl.obj
 0001:0003b73b       __unwindfunclet$?Load@KTabFileCtrl@@UAEHPAD@Z$1 1003c73b f   KTabFileCtrl.obj
 0001:0003b746       __ehhandler$?Load@KTabFileCtrl@@UAEHPAD@Z 1003c746 f   KTabFileCtrl.obj
 0001:0003b780       __unwindfunclet$??1KTabFileCtrl@@UAE@XZ$0 1003c780 f   KTabFileCtrl.obj
 0001:0003b788       __unwindfunclet$??1KTabFileCtrl@@UAE@XZ$1 1003c788 f   KTabFileCtrl.obj
 0001:0003b793       __ehhandler$??1KTabFileCtrl@@UAE@XZ 1003c793 f   KTabFileCtrl.obj
 0001:0003b7b0       __unwindfunclet$?Load2Buffer@KTgaFile32@@QAEHPAD@Z$0 1003c7b0 f   KTgaFile32.obj
 0001:0003b7b8       __unwindfunclet$?Load2Buffer@KTgaFile32@@QAEHPAD@Z$1 1003c7b8 f   KTgaFile32.obj
 0001:0003b7c0       __ehhandler$?Load2Buffer@KTgaFile32@@QAEHPAD@Z 1003c7c0 f   KTgaFile32.obj
 0001:0003b7f0       __unwindfunclet$??0KVideo@@QAE@XZ$0 1003c7f0 f   KVideo.obj
 0001:0003b7fb       __unwindfunclet$??0KVideo@@QAE@XZ$1 1003c7fb f   KVideo.obj
 0001:0003b806       __unwindfunclet$??0KVideo@@QAE@XZ$2 1003c806 f   KVideo.obj
 0001:0003b811       __ehhandler$??0KVideo@@QAE@XZ 1003c811 f   KVideo.obj
 0001:0003b830       __unwindfunclet$??1KVideo@@QAE@XZ$0 1003c830 f   KVideo.obj
 0001:0003b83b       __unwindfunclet$??1KVideo@@QAE@XZ$1 1003c83b f   KVideo.obj
 0001:0003b846       __ehhandler$??1KVideo@@QAE@XZ 1003c846 f   KVideo.obj
 0001:0003b870       __unwindfunclet$??1KWavFile@@QAE@XZ$0 1003c870 f   KWavFile.obj
 0001:0003b878       __ehhandler$??1KWavFile@@QAE@XZ 1003c878 f   KWavFile.obj
 0001:0003b8a0       __unwindfunclet$??0KWavMusic@@QAE@XZ$0 1003c8a0 f   KWavMusic.obj
 0001:0003b8a8       __ehhandler$??0KWavMusic@@QAE@XZ 1003c8a8 f   KWavMusic.obj
 0001:0003b8d0       __unwindfunclet$??1KWavMusic@@UAE@XZ$0 1003c8d0 f   KWavMusic.obj
 0001:0003b8d8       __ehhandler$??1KWavMusic@@UAE@XZ 1003c8d8 f   KWavMusic.obj
 0001:0003b900       __unwindfunclet$?Load@KWavSound@@QAEHPAD@Z$0 1003c900 f   KWavSound.obj
 0001:0003b90b       __ehhandler$?Load@KWavSound@@QAEHPAD@Z 1003c90b f   KWavSound.obj
 0001:0003b940       __unwindfunclet$??0KZipData@@QAE@XZ$0 1003c940 f   KZipData.obj
 0001:0003b948       __ehhandler$??0KZipData@@QAE@XZ 1003c948 f   KZipData.obj
 0001:0003b970       __unwindfunclet$??1KZipData@@QAE@XZ$0 1003c970 f   KZipData.obj
 0001:0003b978       __ehhandler$??1KZipData@@QAE@XZ 1003c978 f   KZipData.obj
 0001:0003b9a0       __unwindfunclet$??0KZipFile@@QAE@XZ$0 1003c9a0 f   KZipFile.obj
 0001:0003b9a8       __ehhandler$??0KZipFile@@QAE@XZ 1003c9a8 f   KZipFile.obj
 0001:0003b9d0       __unwindfunclet$?OpenZip@KZipFile@@AAEHPAD@Z$0 1003c9d0 f   KZipFile.obj
 0001:0003b9d8       __ehhandler$?OpenZip@KZipFile@@AAEHPAD@Z 1003c9d8 f   KZipFile.obj
 0001:0003ba00       __unwindfunclet$??1KZipFile@@QAE@XZ$0 1003ca00 f   KZipFile.obj
 0001:0003ba08       __unwindfunclet$??1KZipFile@@QAE@XZ$1 1003ca08 f   KZipFile.obj
 0001:0003ba13       __ehhandler$??1KZipFile@@QAE@XZ 1003ca13 f   KZipFile.obj
 0001:0003ba30       __unwindfunclet$??0KZipList@@QAE@XZ$0 1003ca30 f   KZipList.obj
 0001:0003ba46       __ehhandler$??0KZipList@@QAE@XZ 1003ca46 f   KZipList.obj
 0001:0003ba70       __unwindfunclet$??1KZipList@@QAE@XZ$0 1003ca70 f   KZipList.obj
 0001:0003ba86       __ehhandler$??1KZipList@@QAE@XZ 1003ca86 f   KZipList.obj
 0001:0003bab0       __unwindfunclet$?Open@KZipList@@QAEHPAD@Z$0 1003cab0 f   KZipList.obj
 0001:0003babb       __ehhandler$?Open@KZipList@@QAEHPAD@Z 1003cabb f   KZipList.obj
 0001:0003baf0       ??__EBuffer@@YAXXZ         1003caf0 f   KDrawSprite.obj
 0001:0003bb10       ??__Em_MemList@@YAXXZ      1003cb10 f   KMemBase.obj
 0001:0003bb20       ??__Eg_MemManager@@YAXXZ   1003cb20 f   KMemManager.obj
 0001:0003bb40       ??__Em_MsgList@@YAXXZ      1003cb40 f   KMessage.obj
 0001:0003bb50       ??__FBuffer@@YAXXZ         1003cb50 f   KDrawSprite.obj
 0001:0003bb60       ??__Fm_MemList@@YAXXZ      1003cb60 f   KMemBase.obj
 0001:0003bb70       ??__Fg_MemManager@@YAXXZ   1003cb70 f   KMemManager.obj
 0001:0003bb80       ??__Fm_MsgList@@YAXXZ      1003cb80 f   KMessage.obj
