 S3RelayServer

 Timestamp is 507eb410 (Wed Oct 17 20:35:12 2012)

 Preferred load address is 00400000

 Start         Length     Name                   Class
 0001:00000000 00032898H .text                   CODE
 0001:000328a0 00000c0bH .text$x                 CODE
 0001:000334b0 0000006cH .text$yc                CODE
 0001:00033520 0000004cH .text$yd                CODE
 0002:00000000 00000274H .idata$5                DATA
 0002:00000274 00000004H .CRT$XCA                DATA
 0002:00000278 00000010H .CRT$XCU                DATA
 0002:00000288 00000004H .CRT$XCZ                DATA
 0002:0000028c 00000004H .CRT$XIA                DATA
 0002:00000290 00000014H .CRT$XIC                DATA
 0002:000002a4 00000004H .CRT$XIY                DATA
 0002:000002a8 00000004H .CRT$XIZ                DATA
 0002:000002ac 00000004H .CRT$XPA                DATA
 0002:000002b0 00000004H .CRT$XPX                DATA
 0002:000002b4 00000004H .CRT$XPXA               DATA
 0002:000002b8 00000004H .CRT$XPZ                DATA
 0002:000002bc 00000004H .CRT$XTA                DATA
 0002:000002c0 00000004H .CRT$XTZ                DATA
 0002:000002d0 00003b70H .rdata                  DATA
 0002:00003e40 0000006aH .rdata$debug            DATA
 0002:00003eac 000008dcH .rdata$r                DATA
 0002:00004790 000000fcH .rdata$sxdata           DATA
 0002:0000488c 00000004H .rtc$IAA                DATA
 0002:00004890 00000004H .rtc$IZZ                DATA
 0002:00004894 00000004H .rtc$TAA                DATA
 0002:00004898 00000004H .rtc$TZZ                DATA
 0002:000048a0 00001a3cH .xdata$x                DATA
 0002:000062dc 00000064H .idata$2                DATA
 0002:00006340 00000014H .idata$3                DATA
 0002:00006354 00000274H .idata$4                DATA
 0002:000065c8 0000094eH .idata$6                DATA
 0002:00006f16 00000000H .edata                  DATA
 0003:00000000 00001758H .data                   DATA
 0003:00001760 00201df0H .bss                    DATA
 0004:00000000 0000029cH .rsrc$01                DATA
 0004:000002a0 00000a60H .rsrc$02                DATA

  Address         Publics by Value              Rva+Base       Lib:Object

 0000:00000000       __except_list              00000000     <absolute>
 0000:0000003f       ___safe_se_handler_count   0000003f     <absolute>
 0000:00000000       ___ImageBase               00400000     <linker-defined>
 0001:00000000       __tcsncmp                  00401000 f i GlobalFun.obj
 0001:000003c0       ?KPIWritePrivateProfileString@@YAHPBD000@Z 004013c0 f   GlobalFun.obj
 0001:000008f0       ?KPIGetPrivateProfileString@@YAKPBD00PADK0@Z 004018f0 f   GlobalFun.obj
 0001:00000b00       ?KPIWaitForSingleObject@@YAKPAXK@Z 00401b00 f   GlobalFun.obj
 0001:00000b30       ?KPICloseHandle@@YAHPAX@Z  00401b30 f   GlobalFun.obj
 0001:00000b40       ?KPITerminateThread@@YAHPAXK@Z 00401b40 f   GlobalFun.obj
 0001:00000b60       ?KPICreateThread@@YAPAXP6GKPAX@Z0PAK@Z 00401b60 f   GlobalFun.obj
 0001:00000b90       ?KPICreateUDPSocket@@YAIH@Z 00401b90 f   GlobalFun.obj
 0001:00000c60       ?KPICreateEvent@@YAPAXPAU_SECURITY_ATTRIBUTES@@HHPBD@Z 00401c60 f   GlobalFun.obj
 0001:00000c80       ?KPISetEvent@@YAHPAX@Z     00401c80 f   GlobalFun.obj
 0001:00000c90       ?KPIResetEvent@@YAHPAX@Z   00401c90 f   GlobalFun.obj
 0001:00000ca0       ?KPIGetExePath@@YAXPADK@Z  00401ca0 f   GlobalFun.obj
 0001:00000d00       ?KPICreateMutex@@YAPAXPAU_SECURITY_ATTRIBUTES@@HPBD@Z 00401d00 f   GlobalFun.obj
 0001:00000d20       ?KPIReleaseMutex@@YAHPAX@Z 00401d20 f   GlobalFun.obj
 0001:00000d30       ?KPIHash@@YAKPADKK@Z       00401d30 f   GlobalFun.obj
 0001:00000d70       ?KPIPrintToFile@@YAXPBD0ZZ 00401d70 f   GlobalFun.obj
 0001:00000dc0       ?KPIPrintToFile@@YAXPAU_iobuf@@PBDZZ 00401dc0 f   GlobalFun.obj
 0001:00000de0       ??0KThread@@QAE@XZ         00401de0 f   KThread.obj
 0001:00000e00       ??1KThread@@UAE@XZ         00401e00 f   KThread.obj
 0001:00000e10       ?Stop@KThread@@UAEHXZ      00401e10 f   KThread.obj
 0001:00000ea0       ?ThreadFun@KThread@@SGKPAX@Z 00401ea0 f   KThread.obj
 0001:00000eb0       ??0K_CS@@QAE@XZ            00401eb0 f   KThread.obj
 0001:00000ed0       ?Lock@K_CS@@QAEHXZ         00401ed0 f   KThread.obj
 0001:00000ef0       ?Unlock@K_CS@@QAEHXZ       00401ef0 f   KThread.obj
 0001:00000f20       ??_EKThread@@UAEPAXI@Z     00401f20 f i KThread.obj
 0001:00000f20       ??_GKThread@@UAEPAXI@Z     00401f20 f i KThread.obj
 0001:00000f40       ?Start@KThread@@UAEPAXXZ   00401f40 f   KThread.obj
 0001:00000f80       ??1K_CS@@UAE@XZ            00401f80 f   KThread.obj
 0001:00000fa0       ??_GK_CS@@UAEPAXI@Z        00401fa0 f i KThread.obj
 0001:00000fa0       ??_EK_CS@@UAEPAXI@Z        00401fa0 f i KThread.obj
 0001:00000fc0       ??0bad_alloc@std@@QAE@PBD@Z 00401fc0 f i LogFile.obj
 0001:00000fe0       ??1bad_alloc@std@@UAE@XZ   00401fe0 f i LogFile.obj
 0001:00000ff0       ??_Ebad_alloc@std@@UAEPAXI@Z 00401ff0 f i LogFile.obj
 0001:00000ff0       ??_Gbad_alloc@std@@UAEPAXI@Z 00401ff0 f i LogFile.obj
 0001:00001020       ?assign@?$char_traits@D@std@@SAXAADABD@Z 00402020 f i LogFile.obj
 0001:00001030       ?length@?$char_traits@D@std@@SAIPBD@Z 00402030 f i LogFile.obj
 0001:00001050       ?_Copy_s@?$char_traits@D@std@@SAPADPADIPBDI@Z 00402050 f i LogFile.obj
 0001:00001080       ?_Move_s@?$char_traits@D@std@@SAPADPADIPBDI@Z 00402080 f i LogFile.obj
 0001:000010b0       ?assign@?$char_traits@D@std@@SAPADPADID@Z 004020b0 f i LogFile.obj
 0001:000010d0       ??0_Iterator_base@std@@QAE@XZ 004020d0 f i LogFile.obj
 0001:000010e0       ?EndBatch@CLogFile@@QAEKXZ 004020e0 f   LogFile.obj
 0001:00001100       ?IsBatched@CLogFile@@QAEHXZ 00402100 f   LogFile.obj
 0001:00001110       ?size@?$basic_string@DU?$char_traits@D@std@@V?$allocator@D@2@@std@@QBEIXZ 00402110 f i LogFile.obj
 0001:00001120       ?empty@?$basic_string@DU?$char_traits@D@std@@V?$allocator@D@2@@std@@QBE_NXZ 00402120 f i LogFile.obj
 0001:00001130       ?_Myptr@?$basic_string@DU?$char_traits@D@std@@V?$allocator@D@2@@std@@IBEPBDXZ 00402130 f i LogFile.obj
 0001:00001140       ??0?$allocator@D@std@@QAE@XZ 00402140 f i LogFile.obj
 0001:00001150       ??0?$reverse_iterator@V?$_String_iterator@DU?$char_traits@D@std@@V?$allocator@D@2@@std@@@std@@QAE@V?$_String_iterator@DU?$char_traits@D@std@@V?$allocator@D@2@@1@@Z 00402150 f i LogFile.obj
 0001:00001170       ?_Myptr@?$basic_string@DU?$char_traits@D@std@@V?$allocator@D@2@@std@@IAEPADXZ 00402170 f i LogFile.obj
 0001:00001180       ??0?$allocator@D@std@@QAE@ABV01@@Z 00402180 f i LogFile.obj
 0001:00001190       ?deallocate@?$allocator@D@std@@QAEXPADI@Z 00402190 f i LogFile.obj
 0001:000011a0       ??D?$_String_const_iterator@DU?$char_traits@D@std@@V?$allocator@D@2@@std@@QBEABDXZ 004021a0 f i LogFile.obj
 0001:000011e0       ??F?$_String_const_iterator@DU?$char_traits@D@std@@V?$allocator@D@2@@std@@QAEAAV01@XZ 004021e0 f i LogFile.obj
 0001:00001220       ?_Inside@?$basic_string@DU?$char_traits@D@std@@V?$allocator@D@2@@std@@IAE_NPBD@Z 00402220 f i LogFile.obj
 0001:00001260       ??0?$_Ranit_base@DHPBDABDU_Iterator_base@std@@@std@@QAE@XZ 00402260 f i LogFile.obj
 0001:00001270       ?max_size@?$allocator@D@std@@QBEIXZ 00402270 f i LogFile.obj
 0001:00001280       ??$_Allocate@D@std@@YAPADIPAD@Z 00402280 f i LogFile.obj
 0001:000012e0       ??0bad_alloc@std@@QAE@ABV01@@Z 004022e0 f i LogFile.obj
 0001:00001300       ??$_Char_traits_cat@U?$char_traits@D@std@@@std@@YA?AU_Secure_char_traits_tag@0@XZ 00402300 f i LogFile.obj
 0001:00001310       ??$copy_s@U?$char_traits@D@std@@@_Traits_helper@std@@YAPADPADIPBDIU_Secure_char_traits_tag@1@@Z 00402310 f i LogFile.obj
 0001:00001340       ??$move_s@U?$char_traits@D@std@@@_Traits_helper@std@@YAPADPADIPBDIU_Secure_char_traits_tag@1@@Z 00402340 f i LogFile.obj
 0001:00001370       ?c_str@?$basic_string@DU?$char_traits@D@std@@V?$allocator@D@2@@std@@QBEPBDXZ 00402370 f i LogFile.obj
 0001:00001380       ??0?$_String_val@DV?$allocator@D@std@@@std@@IAE@V?$allocator@D@1@@Z 00402380 f i LogFile.obj
 0001:00001390       ??0?$_String_val@DV?$allocator@D@std@@@std@@QAE@ABV01@@Z 00402390 f i LogFile.obj
 0001:000013a0       ??D?$_String_iterator@DU?$char_traits@D@std@@V?$allocator@D@2@@std@@QBEAADXZ 004023a0 f i LogFile.obj
 0001:000013e0       ??F?$_String_iterator@DU?$char_traits@D@std@@V?$allocator@D@2@@std@@QAEAAV01@XZ 004023e0 f i LogFile.obj
 0001:00001420       ?_Chassign@?$basic_string@DU?$char_traits@D@std@@V?$allocator@D@2@@std@@IAEXIID@Z 00402420 f i LogFile.obj
 0001:00001480       ?_Eos@?$basic_string@DU?$char_traits@D@std@@V?$allocator@D@2@@std@@IAEXI@Z 00402480 f i LogFile.obj
 0001:000014a0       ?max_size@?$basic_string@DU?$char_traits@D@std@@V?$allocator@D@2@@std@@QBEIXZ 004024a0 f i LogFile.obj
 0001:000014b0       ??0?$_String_const_iterator@DU?$char_traits@D@std@@V?$allocator@D@2@@std@@QAE@PBDPBU_Container_base@1@@Z 004024b0 f i LogFile.obj
 0001:00001510       ?allocate@?$allocator@D@std@@QAEPADI@Z 00402510 f i LogFile.obj
 0001:00001530       ??$copy_s@U?$char_traits@D@std@@@_Traits_helper@std@@YAPADPADIPBDI@Z 00402530 f i LogFile.obj
 0001:00001560       ??$move_s@U?$char_traits@D@std@@@_Traits_helper@std@@YAPADPADIPBDI@Z 00402560 f i LogFile.obj
 0001:00001590       ??D?$reverse_iterator@V?$_String_iterator@DU?$char_traits@D@std@@V?$allocator@D@2@@std@@@std@@QBEAADXZ 00402590 f i LogFile.obj
 0001:000015f0       ?_Tidy@?$basic_string@DU?$char_traits@D@std@@V?$allocator@D@2@@std@@IAEX_NI@Z 004025f0 f i LogFile.obj
 0001:00001640       ?erase@?$basic_string@DU?$char_traits@D@std@@V?$allocator@D@2@@std@@QAEAAV12@II@Z 00402640 f i LogFile.obj
 0001:000016d0       ??0?$_String_iterator@DU?$char_traits@D@std@@V?$allocator@D@2@@std@@QAE@PADPBU_Container_base@1@@Z 004026d0 f i LogFile.obj
 0001:000016f0       ?_Copy@?$basic_string@DU?$char_traits@D@std@@V?$allocator@D@2@@std@@IAEXII@Z 004026f0 f i LogFile.obj
 0001:00001840       ??0?$basic_string@DU?$char_traits@D@std@@V?$allocator@D@2@@std@@QAE@XZ 00402840 f i LogFile.obj
 0001:00001860       ??1?$basic_string@DU?$char_traits@D@std@@V?$allocator@D@2@@std@@QAE@XZ 00402860 f i LogFile.obj
 0001:00001890       ?end@?$basic_string@DU?$char_traits@D@std@@V?$allocator@D@2@@std@@QAE?AV?$_String_iterator@DU?$char_traits@D@std@@V?$allocator@D@2@@2@XZ 00402890 f i LogFile.obj
 0001:000018c0       ?_Grow@?$basic_string@DU?$char_traits@D@std@@V?$allocator@D@2@@std@@IAE_NI_N@Z 004028c0 f i LogFile.obj
 0001:00001980       ?append@?$basic_string@DU?$char_traits@D@std@@V?$allocator@D@2@@std@@QAEAAV12@ABV12@II@Z 00402980 f i LogFile.obj
 0001:00001a80       ??0CLogFile@@QAE@XZ        00402a80 f   LogFile.obj
 0001:00001ab0       ??1CLogFile@@UAE@XZ        00402ab0 f   LogFile.obj
 0001:00001ae0       ?rbegin@?$basic_string@DU?$char_traits@D@std@@V?$allocator@D@2@@std@@QAE?AV?$reverse_iterator@V?$_String_iterator@DU?$char_traits@D@std@@V?$allocator@D@2@@std@@@2@XZ 00402ae0 f i LogFile.obj
 0001:00001b40       ?append@?$basic_string@DU?$char_traits@D@std@@V?$allocator@D@2@@std@@QAEAAV12@ID@Z 00402b40 f i LogFile.obj
 0001:00001bf0       ?assign@?$basic_string@DU?$char_traits@D@std@@V?$allocator@D@2@@std@@QAEAAV12@ABV12@II@Z 00402bf0 f i LogFile.obj
 0001:00001cd0       ?resize@?$basic_string@DU?$char_traits@D@std@@V?$allocator@D@2@@std@@QAEXID@Z 00402cd0 f i LogFile.obj
 0001:00001d00       ?append@?$basic_string@DU?$char_traits@D@std@@V?$allocator@D@2@@std@@QAEAAV12@PBDI@Z 00402d00 f i LogFile.obj
 0001:00001df0       ??_GCLogFile@@UAEPAXI@Z    00402df0 f i LogFile.obj
 0001:00001df0       ??_ECLogFile@@UAEPAXI@Z    00402df0 f i LogFile.obj
 0001:00001e10       ??0?$basic_string@DU?$char_traits@D@std@@V?$allocator@D@2@@std@@QAE@ABV01@@Z 00402e10 f i LogFile.obj
 0001:00001e40       ??Y?$basic_string@DU?$char_traits@D@std@@V?$allocator@D@2@@std@@QAEAAV01@D@Z 00402e40 f i LogFile.obj
 0001:00001e50       ?resize@?$basic_string@DU?$char_traits@D@std@@V?$allocator@D@2@@std@@QAEXI@Z 00402e50 f i LogFile.obj
 0001:00001e80       ?append@?$basic_string@DU?$char_traits@D@std@@V?$allocator@D@2@@std@@QAEAAV12@PBD@Z 00402e80 f i LogFile.obj
 0001:00001eb0       ?assign@?$basic_string@DU?$char_traits@D@std@@V?$allocator@D@2@@std@@QAEAAV12@ABV12@@Z 00402eb0 f i LogFile.obj
 0001:00001ed0       ?Uninitialize@CLogFile@@QAEHXZ 00402ed0 f   LogFile.obj
 0001:00001f10       ??4?$basic_string@DU?$char_traits@D@std@@V?$allocator@D@2@@std@@QAEAAV01@ABV01@@Z 00402f10 f i LogFile.obj
 0001:00001f30       ??Y?$basic_string@DU?$char_traits@D@std@@V?$allocator@D@2@@std@@QAEAAV01@PBD@Z 00402f30 f i LogFile.obj
 0001:00001f60       ??$?HDU?$char_traits@D@std@@V?$allocator@D@1@@std@@YA?AV?$basic_string@DU?$char_traits@D@std@@V?$allocator@D@2@@0@ABV10@PBD@Z 00402f60 f i LogFile.obj
 0001:00002020       ?Initialize@CLogFile@@QAEHABV?$basic_string@DU?$char_traits@D@std@@V?$allocator@D@2@@std@@I@Z 00403020 f   LogFile.obj
 0001:00002140       ?OpenUniDirectory@CLogFile@@CAHABV?$basic_string@DU?$char_traits@D@std@@V?$allocator@D@2@@std@@PAV23@@Z 00403140 f   LogFile.obj
 0001:000023a0       ?CreateUniFile@CLogFile@@CAPAXABV?$basic_string@DU?$char_traits@D@std@@V?$allocator@D@2@@std@@PAV23@@Z 004033a0 f   LogFile.obj
 0001:000025d0       ?PrepareFile@CLogFile@@AAEHXZ 004035d0 f   LogFile.obj
 0001:00002850       ?BeginBatch@CLogFile@@QAEKXZ 00403850 f   LogFile.obj
 0001:00002880       ?TraceLog@CLogFile@@QAEIPBXI@Z 00403880 f   LogFile.obj
 0001:000028f0       ?ServerEventNotify@@YGXPAXABK1@Z 004038f0 f   main.obj
 0001:00002a00       ?HasWriteInfo@TwoFixBuffer@@IAEHXZ 00403a00 f i main.obj
 0001:00002a20       ?HasReadInfo@TwoFixBuffer@@IAEHXZ 00403a20 f i main.obj
 0001:00002a40       ??0TwoFixBuffer@@QAE@XZ    00403a40 f i main.obj
 0001:00002aa0       ??1TwoFixBuffer@@QAE@XZ    00403aa0 f i main.obj
 0001:00002ac0       ?WriteInfo@TwoFixBuffer@@QAEHPAEK@Z 00403ac0 f i main.obj
 0001:00002ba0       ?ReadInfo@TwoFixBuffer@@QAEPAEXZ 00403ba0 f i main.obj
 0001:00002bf0       ?SwitchReadWrite@TwoFixBuffer@@QAEXXZ 00403bf0 f i main.obj
 0001:00002ca0       ?gTrace@@YAHPBDZZ          00403ca0 f   main.obj
 0001:00002d70       ?gTimeStamp@@YAHPAD0@Z     00403d70 f   main.obj
 0001:00002dd0       ?gTraceLogFile@@YAXPBDJ@Z  00403dd0 f   main.obj
 0001:00002e60       ?gClearTrace@@YAXXZ        00403e60 f   main.obj
 0001:00002e80       ?gShowTrace@@YAXXZ         00403e80 f   main.obj
 0001:00002f90       ?InitInstance@@YAHPAUHINSTANCE__@@HH@Z 00403f90 f   main.obj
 0001:00003070       ?About@@YGJPAUHWND__@@IIJ@Z 00404070 f   main.obj
 0001:000030b0       ?WndProc@@YGJPAUHWND__@@IIJ@Z 004040b0 f   main.obj
 0001:00003300       ?RegisterSysClass@@YAGPAUHINSTANCE__@@@Z 00404300 f   main.obj
 0001:00003390       ?assign@?$basic_string@DU?$char_traits@D@std@@V?$allocator@D@2@@std@@QAEAAV12@PBDI@Z 00404390 f i main.obj
 0001:00003460       ?assign@?$basic_string@DU?$char_traits@D@std@@V?$allocator@D@2@@std@@QAEAAV12@PBD@Z 00404460 f i main.obj
 0001:00003490       ??0?$basic_string@DU?$char_traits@D@std@@V?$allocator@D@2@@std@@QAE@PBD@Z 00404490 f i main.obj
 0001:000034d0       _WinMain@16                004044d0 f   main.obj
 0001:00003b20       ?CheckError@_com_util@@YAXJ@Z 00404b20 f i S3P_MSSQLServer_Result.obj
 0001:00003b30       ??0_variant_t@@QAE@XZ      00404b30 f i S3P_MSSQLServer_Result.obj
 0001:00003b40       ?Clear@_variant_t@@QAEXXZ  00404b40 f i S3P_MSSQLServer_Result.obj
 0001:00003b60       ??1_variant_t@@QAE@XZ      00404b60 f i S3P_MSSQLServer_Result.obj
 0001:00003b70       ??1_com_error@@UAE@XZ      00404b70 f i S3P_MSSQLServer_Result.obj
 0001:00003bb0       __MarkAllocaS              00404bb0 f i S3P_MSSQLServer_Result.obj
 0001:00003bd0       __freea                    00404bd0 f i S3P_MSSQLServer_Result.obj
 0001:00003bf0       ?GetCount@_Collection@@QAEJXZ 00404bf0 f i S3P_MSSQLServer_Result.obj
 0001:00003c20       ?GetRecordCount@Recordset15@@QAEJXZ 00404c20 f i S3P_MSSQLServer_Result.obj
 0001:00003c50       ?Close@Recordset15@@QAEJXZ 00404c50 f i S3P_MSSQLServer_Result.obj
 0001:00003c80       ?Move@Recordset15@@QAEJJABV_variant_t@@@Z 00404c80 f i S3P_MSSQLServer_Result.obj
 0001:00003cd0       ?MoveNext@Recordset15@@QAEJXZ 00404cd0 f i S3P_MSSQLServer_Result.obj
 0001:00003d00       ?MovePrevious@Recordset15@@QAEJXZ 00404d00 f i S3P_MSSQLServer_Result.obj
 0001:00003d30       ?MoveFirst@Recordset15@@QAEJXZ 00404d30 f i S3P_MSSQLServer_Result.obj
 0001:00003d60       ?MoveLast@Recordset15@@QAEJXZ 00404d60 f i S3P_MSSQLServer_Result.obj
 0001:00003d90       ?GetState@Recordset15@@QAEJXZ 00404d90 f i S3P_MSSQLServer_Result.obj
 0001:00003dc0       ??B?$_com_ptr_t@V?$_com_IIID@U_Recordset@@$1?_GUID_00000556_0000_0010_8000_00aa006d2ea4@@3U__s_GUID@@B@@@@QBEPAU_Recordset@@XZ 00404dc0 f i S3P_MSSQLServer_Result.obj
 0001:00003dd0       ??C?$_com_ptr_t@V?$_com_IIID@U_Recordset@@$1?_GUID_00000556_0000_0010_8000_00aa006d2ea4@@3U__s_GUID@@B@@@@QBEPAU_Recordset@@XZ 00404dd0 f i S3P_MSSQLServer_Result.obj
 0001:00003df0       ??B?$_com_ptr_t@V?$_com_IIID@U_Recordset@@$1?_GUID_00000556_0000_0010_8000_00aa006d2ea4@@3U__s_GUID@@B@@@@QBE_NXZ 00404df0 f i S3P_MSSQLServer_Result.obj
 0001:00003e00       ??8?$_com_ptr_t@V?$_com_IIID@U_Recordset@@$1?_GUID_00000556_0000_0010_8000_00aa006d2ea4@@3U__s_GUID@@B@@@@QAE_NH@Z 00404e00 f i S3P_MSSQLServer_Result.obj
 0001:00003e20       ??C?$_com_ptr_t@V?$_com_IIID@UFields@@$1?_GUID_00000564_0000_0010_8000_00aa006d2ea4@@3U__s_GUID@@B@@@@QBEPAUFields@@XZ 00404e20 f i S3P_MSSQLServer_Result.obj
 0001:00003e40       ??C?$_com_ptr_t@V?$_com_IIID@UField@@$1?_GUID_00000569_0000_0010_8000_00aa006d2ea4@@3U__s_GUID@@B@@@@QBEPAUField@@XZ 00404e40 f i S3P_MSSQLServer_Result.obj
 0001:00003e60       ?_Release@?$_com_ptr_t@V?$_com_IIID@U_Recordset@@$1?_GUID_00000556_0000_0010_8000_00aa006d2ea4@@3U__s_GUID@@B@@@@AAEXXZ 00404e60 f i S3P_MSSQLServer_Result.obj
 0001:00003e70       ?_AddRef@?$_com_ptr_t@V?$_com_IIID@U_Recordset@@$1?_GUID_00000556_0000_0010_8000_00aa006d2ea4@@3U__s_GUID@@B@@@@AAEXXZ 00404e70 f i S3P_MSSQLServer_Result.obj
 0001:00003e80       ?_Release@?$_com_ptr_t@V?$_com_IIID@UFields@@$1?_GUID_00000564_0000_0010_8000_00aa006d2ea4@@3U__s_GUID@@B@@@@AAEXXZ 00404e80 f i S3P_MSSQLServer_Result.obj
 0001:00003e90       ?_AddRef@?$_com_ptr_t@V?$_com_IIID@UFields@@$1?_GUID_00000564_0000_0010_8000_00aa006d2ea4@@3U__s_GUID@@B@@@@AAEXXZ 00404e90 f i S3P_MSSQLServer_Result.obj
 0001:00003ea0       ?_Release@?$_com_ptr_t@V?$_com_IIID@UField@@$1?_GUID_00000569_0000_0010_8000_00aa006d2ea4@@3U__s_GUID@@B@@@@AAEXXZ 00404ea0 f i S3P_MSSQLServer_Result.obj
 0001:00003eb0       ?_AddRef@?$_com_ptr_t@V?$_com_IIID@UField@@$1?_GUID_00000569_0000_0010_8000_00aa006d2ea4@@3U__s_GUID@@B@@@@AAEXXZ 00404eb0 f i S3P_MSSQLServer_Result.obj
 0001:00003ec0       ?GetIID@?$_com_IIID@U_Recordset@@$1?_GUID_00000556_0000_0010_8000_00aa006d2ea4@@3U__s_GUID@@B@@SAABU_GUID@@XZ 00404ec0 f i S3P_MSSQLServer_Result.obj
 0001:00003ed0       ??9?$_com_ptr_t@V?$_com_IIID@U_Recordset@@$1?_GUID_00000556_0000_0010_8000_00aa006d2ea4@@3U__s_GUID@@B@@@@QAE_NH@Z 00404ed0 f i S3P_MSSQLServer_Result.obj
 0001:00003ef0       ??4_variant_t@@QAEAAV0@J@Z 00404ef0 f i S3P_MSSQLServer_Result.obj
 0001:00003f50       ??_E_com_error@@UAEPAXI@Z  00404f50 f i S3P_MSSQLServer_Result.obj
 0001:00003f50       ??_G_com_error@@UAEPAXI@Z  00404f50 f i S3P_MSSQLServer_Result.obj
 0001:00003fa0       ?num_rows@S3P_MSSQLServer_Result@@UBEHXZ 00404fa0 f   S3P_MSSQLServer_Result.obj
 0001:00004040       ?data_seek@S3P_MSSQLServer_Result@@UBEXIH@Z 00405040 f   S3P_MSSQLServer_Result.obj
 0001:000041d0       ?unuse@S3P_MSSQLServer_Result@@UAEHXZ 004051d0 f   S3P_MSSQLServer_Result.obj
 0001:000042a0       ??1?$_com_ptr_t@V?$_com_IIID@U_Recordset@@$1?_GUID_00000556_0000_0010_8000_00aa006d2ea4@@3U__s_GUID@@B@@@@QAE@XZ 004052a0 f i S3P_MSSQLServer_Result.obj
 0001:000042b0       ??0?$_com_ptr_t@V?$_com_IIID@UFields@@$1?_GUID_00000564_0000_0010_8000_00aa006d2ea4@@3U__s_GUID@@B@@@@QAE@PAUFields@@_N@Z 004052b0 f i S3P_MSSQLServer_Result.obj
 0001:000042e0       ??1?$_com_ptr_t@V?$_com_IIID@UFields@@$1?_GUID_00000564_0000_0010_8000_00aa006d2ea4@@3U__s_GUID@@B@@@@QAE@XZ 004052e0 f i S3P_MSSQLServer_Result.obj
 0001:000042f0       ??0?$_com_ptr_t@V?$_com_IIID@UField@@$1?_GUID_00000569_0000_0010_8000_00aa006d2ea4@@3U__s_GUID@@B@@@@QAE@PAUField@@_N@Z 004052f0 f i S3P_MSSQLServer_Result.obj
 0001:00004320       ??1?$_com_ptr_t@V?$_com_IIID@UField@@$1?_GUID_00000569_0000_0010_8000_00aa006d2ea4@@3U__s_GUID@@B@@@@QAE@XZ 00405320 f i S3P_MSSQLServer_Result.obj
 0001:00004330       ??$?4U_Recordset@@@?$_com_ptr_t@V?$_com_IIID@U_Recordset@@$1?_GUID_00000556_0000_0010_8000_00aa006d2ea4@@3U__s_GUID@@B@@@@QAEAAV0@PAU_Recordset@@@Z 00405330 f i S3P_MSSQLServer_Result.obj
 0001:00004360       ?GetIID@?$_com_ptr_t@V?$_com_IIID@U_Recordset@@$1?_GUID_00000556_0000_0010_8000_00aa006d2ea4@@3U__s_GUID@@B@@@@SAABU_GUID@@XZ 00405360 f i S3P_MSSQLServer_Result.obj
 0001:00004370       ??$?9V?$_com_IIID@U_Recordset@@$1?_GUID_00000556_0000_0010_8000_00aa006d2ea4@@3U__s_GUID@@B@@@@YA_NHAAV?$_com_ptr_t@V?$_com_IIID@U_Recordset@@$1?_GUID_00000556_0000_0010_8000_00aa006d2ea4@@3U__s_GUID@@B@@@@@Z 00405370 f i S3P_MSSQLServer_Result.obj
 0001:00004390       ?GetFields@Recordset15@@QAE?AV?$_com_ptr_t@V?$_com_IIID@UFields@@$1?_GUID_00000564_0000_0010_8000_00aa006d2ea4@@3U__s_GUID@@B@@@@XZ 00405390 f i S3P_MSSQLServer_Result.obj
 0001:000043e0       ?GetItem@Fields15@@QAE?AV?$_com_ptr_t@V?$_com_IIID@UField@@$1?_GUID_00000569_0000_0010_8000_00aa006d2ea4@@3U__s_GUID@@B@@@@ABV_variant_t@@@Z 004053e0 f i S3P_MSSQLServer_Result.obj
 0001:00004450       ?num_fields@S3P_MSSQLServer_Result@@UBEHXZ 00405450 f   S3P_MSSQLServer_Result.obj
 0001:00004520       ?get_field_data@S3P_MSSQLServer_Result@@UAE_NIPAXK@Z 00405520 f   S3P_MSSQLServer_Result.obj
 0001:00004660       ??4?$_com_ptr_t@V?$_com_IIID@U_Recordset@@$1?_GUID_00000556_0000_0010_8000_00aa006d2ea4@@3U__s_GUID@@B@@@@QAEAAV0@H@Z 00405660 f i S3P_MSSQLServer_Result.obj
 0001:00004690       ?CreateInstance@?$_com_ptr_t@V?$_com_IIID@U_Recordset@@$1?_GUID_00000556_0000_0010_8000_00aa006d2ea4@@3U__s_GUID@@B@@@@QAEJABU_GUID@@PAUIUnknown@@K@Z 00405690 f i S3P_MSSQLServer_Result.obj
 0001:00004730       ??1S3P_MSSQLServer_Result@@UAE@XZ 00405730 f   S3P_MSSQLServer_Result.obj
 0001:000047b0       ?CreateInstance@?$_com_ptr_t@V?$_com_IIID@U_Recordset@@$1?_GUID_00000556_0000_0010_8000_00aa006d2ea4@@3U__s_GUID@@B@@@@QAEJPB_WPAUIUnknown@@K@Z 004057b0 f i S3P_MSSQLServer_Result.obj
 0001:00004830       ??_GS3P_MSSQLServer_Result@@UAEPAXI@Z 00405830 f i S3P_MSSQLServer_Result.obj
 0001:00004830       ??_ES3P_MSSQLServer_Result@@UAEPAXI@Z 00405830 f i S3P_MSSQLServer_Result.obj
 0001:00004850       ?CreateInstance@?$_com_ptr_t@V?$_com_IIID@U_Recordset@@$1?_GUID_00000556_0000_0010_8000_00aa006d2ea4@@3U__s_GUID@@B@@@@QAEJPBDPAUIUnknown@@K@Z 00405850 f i S3P_MSSQLServer_Result.obj
 0001:00004960       ?GetResult@S3P_MSSQLServer_Result@@UAEHPAPAU_Recordset@@@Z 00405960 f   S3P_MSSQLServer_Result.obj
 0001:000049c0       ??2@YAPAXIPAX@Z            004059c0 f i S3PAccount.obj
 0001:000049d0       ??0Data_t@_bstr_t@@QAE@PB_W@Z 004059d0 f i S3PAccount.obj
 0001:00004a10       ??0Data_t@_bstr_t@@QAE@PA_W_N@Z 00405a10 f i S3PAccount.obj
 0001:00004a60       ?GetWString@Data_t@_bstr_t@@QAEAAPA_WXZ 00405a60 f i S3PAccount.obj
 0001:00004a70       ?GetString@Data_t@_bstr_t@@QBEPBDXZ 00405a70 f i S3PAccount.obj
 0001:00004a90       ??2Data_t@_bstr_t@@SAPAXI@Z 00405a90 f i S3PAccount.obj
 0001:00004aa0       ?_Free@Data_t@_bstr_t@@AAEXXZ 00405aa0 f i S3PAccount.obj
 0001:00004ad0       ??0_variant_t@@QAE@JG@Z    00405ad0 f i S3PAccount.obj
 0001:00004b40       ?ChangeType@_variant_t@@QAEXGPBV1@@Z 00405b40 f i S3PAccount.obj
 0001:00004b80       ??0S3PAccount@@QAE@XZ      00405b80 f   S3PAccount.obj
 0001:00004b90       ??1S3PAccount@@UAE@XZ      00405b90 f   S3PAccount.obj
 0001:00004ba0       ?CheckAddress@S3PAccount@@SAHPAVS3PDBConVBC@@KF@Z 00405ba0 f   S3PAccount.obj
 0001:00004c60       ?ServerLogout@S3PAccount@@SAHPAVS3PDBConVBC@@KH@Z 00405c60 f   S3PAccount.obj
 0001:00004c70       ?GetAccountGameID@S3PAccount@@SAHPAVS3PDBConVBC@@PBDAAK@Z 00405c70 f   S3PAccount.obj
 0001:00004da0       ?UnlockAccount@S3PAccount@@SAHPAVS3PDBConVBC@@PBD@Z 00405da0 f   S3PAccount.obj
 0001:00004e10       ?FreezeAccount@S3PAccount@@SAHPAVS3PDBConVBC@@PBD@Z 00405e10 f   S3PAccount.obj
 0001:00004e90       ?UnlockServer@S3PAccount@@SAHPAVS3PDBConVBC@@K@Z 00405e90 f   S3PAccount.obj
 0001:00004f00       ?GetServerID@S3PAccount@@SAHPAVS3PDBConVBC@@PBDAAK@Z 00405f00 f   S3PAccount.obj
 0001:00005040       ?_Nextnode@?$list@UKAccountUserTimeInfo@@V?$allocator@UKAccountUserTimeInfo@@@std@@@std@@KAAAPAU_Node@?$_List_nod@UKAccountUserTimeInfo@@V?$allocator@UKAccountUserTimeInfo@@@std@@@2@PAU342@@Z 00406040 f i S3PAccount.obj
 0001:00005050       ?_Prevnode@?$list@UKAccountUserTimeInfo@@V?$allocator@UKAccountUserTimeInfo@@@std@@@std@@KAAAPAU_Node@?$_List_nod@UKAccountUserTimeInfo@@V?$allocator@UKAccountUserTimeInfo@@@std@@@2@PAU342@@Z 00406050 f i S3PAccount.obj
 0001:00005060       ?_Mynode@?$_Const_iterator@$00@?$list@UKAccountUserTimeInfo@@V?$allocator@UKAccountUserTimeInfo@@@std@@@std@@QBEPAU_Node@?$_List_nod@UKAccountUserTimeInfo@@V?$allocator@UKAccountUserTimeInfo@@@std@@@3@XZ 00406060 f i S3PAccount.obj
 0001:00005070       ?_Myval@?$list@UKAccountUserTimeInfo@@V?$allocator@UKAccountUserTimeInfo@@@std@@@std@@KAAAUKAccountUserTimeInfo@@PAU_Node@?$_List_nod@UKAccountUserTimeInfo@@V?$allocator@UKAccountUserTimeInfo@@@std@@@2@@Z 00406070 f i S3PAccount.obj
 0001:00005080       ?deallocate@?$allocator@U_Node@?$_List_nod@UKAccountUserTimeInfo@@V?$allocator@UKAccountUserTimeInfo@@@std@@@std@@@std@@QAEXPAU_Node@?$_List_nod@UKAccountUserTimeInfo@@V?$allocator@UKAccountUserTimeInfo@@@std@@@2@I@Z 00406080 f i S3PAccount.obj
 0001:00005090       ??0?$_Bidit@UKAccountUserTimeInfo@@HPBU1@ABU1@@std@@QAE@XZ 00406090 f i S3PAccount.obj
 0001:000050a0       ?max_size@?$allocator@UKAccountUserTimeInfo@@@std@@QBEIXZ 004060a0 f i S3PAccount.obj
 0001:000050b0       ??$_Construct@UKAccountUserTimeInfo@@U1@@std@@YAXPAUKAccountUserTimeInfo@@ABU1@@Z 004060b0 f i S3PAccount.obj
 0001:000050d0       ??$_Allocate@U_Node@?$_List_nod@UKAccountUserTimeInfo@@V?$allocator@UKAccountUserTimeInfo@@@std@@@std@@@std@@YAPAU_Node@?$_List_nod@UKAccountUserTimeInfo@@V?$allocator@UKAccountUserTimeInfo@@@std@@@0@IPAU120@@Z 004060d0 f i S3PAccount.obj
 0001:00005130       ??$_Construct@PAU_Node@?$_List_nod@UKAccountUserTimeInfo@@V?$allocator@UKAccountUserTimeInfo@@@std@@@std@@PAU123@@std@@YAXPAPAU_Node@?$_List_nod@UKAccountUserTimeInfo@@V?$allocator@UKAccountUserTimeInfo@@@std@@@0@ABQAU120@@Z 00406130 f i S3PAccount.obj
 0001:00005150       ??$_Destroy@PAU_Node@?$_List_nod@UKAccountUserTimeInfo@@V?$allocator@UKAccountUserTimeInfo@@@std@@@std@@@std@@YAXPAPAU_Node@?$_List_nod@UKAccountUserTimeInfo@@V?$allocator@UKAccountUserTimeInfo@@@std@@@0@@Z 00406150 f i S3PAccount.obj
 0001:00005160       ??0_bstr_t@@QAE@PA_W_N@Z   00406160 f i S3PAccount.obj
 0001:000051e0       ??B_bstr_t@@QBEPB_WXZ      004061e0 f i S3PAccount.obj
 0001:000051f0       ??B_bstr_t@@QBEPBDXZ       004061f0 f i S3PAccount.obj
 0001:00005220       ??1Data_t@_bstr_t@@AAE@XZ  00406220 f i S3PAccount.obj
 0001:00005250       ??_ES3PAccount@@UAEPAXI@Z  00406250 f i S3PAccount.obj
 0001:00005250       ??_GS3PAccount@@UAEPAXI@Z  00406250 f i S3PAccount.obj
 0001:00005270       ?max_size@?$list@UKAccountUserTimeInfo@@V?$allocator@UKAccountUserTimeInfo@@@std@@@std@@QBEIXZ 00406270 f i S3PAccount.obj
 0001:00005280       ?construct@?$allocator@UKAccountUserTimeInfo@@@std@@QAEXPAUKAccountUserTimeInfo@@ABU3@@Z 00406280 f i S3PAccount.obj
 0001:000052a0       ?allocate@?$allocator@U_Node@?$_List_nod@UKAccountUserTimeInfo@@V?$allocator@UKAccountUserTimeInfo@@@std@@@std@@@std@@QAEPAU_Node@?$_List_nod@UKAccountUserTimeInfo@@V?$allocator@UKAccountUserTimeInfo@@@std@@@2@I@Z 004062a0 f i S3PAccount.obj
 0001:000052c0       ?construct@?$allocator@PAU_Node@?$_List_nod@UKAccountUserTimeInfo@@V?$allocator@UKAccountUserTimeInfo@@@std@@@std@@@std@@QAEXPAPAU_Node@?$_List_nod@UKAccountUserTimeInfo@@V?$allocator@UKAccountUserTimeInfo@@@std@@@2@ABQAU342@@Z 004062c0 f i S3PAccount.obj
 0001:000052e0       ?destroy@?$allocator@PAU_Node@?$_List_nod@UKAccountUserTimeInfo@@V?$allocator@UKAccountUserTimeInfo@@@std@@@std@@@std@@QAEXPAPAU_Node@?$_List_nod@UKAccountUserTimeInfo@@V?$allocator@UKAccountUserTimeInfo@@@std@@@2@@Z 004062e0 f i S3PAccount.obj
 0001:000052f0       ??0?$_Const_iterator@$00@?$list@UKAccountUserTimeInfo@@V?$allocator@UKAccountUserTimeInfo@@@std@@@std@@QAE@PAU_Node@?$_List_nod@UKAccountUserTimeInfo@@V?$allocator@UKAccountUserTimeInfo@@@std@@@2@PBV12@@Z 004062f0 f i S3PAccount.obj
 0001:00005320       ??_GData_t@_bstr_t@@AAEPAXI@Z 00406320 f i S3PAccount.obj
 0001:00005360       ?_Buynode@?$list@UKAccountUserTimeInfo@@V?$allocator@UKAccountUserTimeInfo@@@std@@@std@@IAEPAU_Node@?$_List_nod@UKAccountUserTimeInfo@@V?$allocator@UKAccountUserTimeInfo@@@std@@@2@PAU342@0ABUKAccountUserTimeInfo@@@Z 00406360 f i S3PAccount.obj
 0001:000053a0       ??0?$_Iterator@$00@?$list@UKAccountUserTimeInfo@@V?$allocator@UKAccountUserTimeInfo@@@std@@@std@@QAE@PAU_Node@?$_List_nod@UKAccountUserTimeInfo@@V?$allocator@UKAccountUserTimeInfo@@@std@@@2@PBV12@@Z 004063a0 f i S3PAccount.obj
 0001:000053d0       ?Release@Data_t@_bstr_t@@QAEKXZ 004063d0 f i S3PAccount.obj
 0001:00005420       ?end@?$list@UKAccountUserTimeInfo@@V?$allocator@UKAccountUserTimeInfo@@@std@@@std@@QAE?AV?$_Iterator@$00@12@XZ 00406420 f i S3PAccount.obj
 0001:00005430       ??1logic_error@std@@UAE@XZ 00406430 f i S3PAccount.obj
 0001:00005470       ?what@logic_error@std@@UBEPBDXZ 00406470 f i S3PAccount.obj
 0001:00005480       ??_Elogic_error@std@@UAEPAXI@Z 00406480 f i S3PAccount.obj
 0001:00005480       ??_Glogic_error@std@@UAEPAXI@Z 00406480 f i S3PAccount.obj
 0001:000054d0       ?_Free@_bstr_t@@AAEXXZ     004064d0 f i S3PAccount.obj
 0001:00005520       ??1_bstr_t@@QAE@XZ         00406520 f i S3PAccount.obj
 0001:00005570       ??4_bstr_t@@QAEAAV0@PB_W@Z 00406570 f i S3PAccount.obj
 0001:00005630       ??0_bstr_t@@QAE@ABV_variant_t@@@Z 00406630 f i S3PAccount.obj
 0001:000056e0       ?ServerLogin@S3PAccount@@SAHPAVS3PDBConVBC@@PBD1KFQBEAAK@Z 004066e0 f   S3PAccount.obj
 0001:00005a00       ??0logic_error@std@@QAE@ABV?$basic_string@DU?$char_traits@D@std@@V?$allocator@D@2@@1@@Z 00406a00 f i S3PAccount.obj
 0001:00005a70       ??0length_error@std@@QAE@ABV?$basic_string@DU?$char_traits@D@std@@V?$allocator@D@2@@1@@Z 00406a70 f i S3PAccount.obj
 0001:00005a90       ??1length_error@std@@UAE@XZ 00406a90 f i S3PAccount.obj
 0001:00005ad0       ??_Elength_error@std@@UAEPAXI@Z 00406ad0 f i S3PAccount.obj
 0001:00005ad0       ??_Glength_error@std@@UAEPAXI@Z 00406ad0 f i S3PAccount.obj
 0001:00005b20       ??4?$basic_string@DU?$char_traits@D@std@@V?$allocator@D@2@@std@@QAEAAV01@PBD@Z 00406b20 f i S3PAccount.obj
 0001:00005b50       ?_Incsize@?$list@UKAccountUserTimeInfo@@V?$allocator@UKAccountUserTimeInfo@@@std@@@std@@IAEXI@Z 00406b50 f i S3PAccount.obj
 0001:00005bf0       ??0logic_error@std@@QAE@ABV01@@Z 00406bf0 f i S3PAccount.obj
 0001:00005c70       ??0length_error@std@@QAE@ABV01@@Z 00406c70 f i S3PAccount.obj
 0001:00005c90       ?GetAccountCount@S3PAccount@@SAHPAVS3PDBConVBC@@KHAAK@Z 00406c90 f   S3PAccount.obj
 0001:00005e50       ?_Insert@?$list@UKAccountUserTimeInfo@@V?$allocator@UKAccountUserTimeInfo@@@std@@@std@@QAEXV?$_Iterator@$00@12@ABUKAccountUserTimeInfo@@@Z 00406e50 f i S3PAccount.obj
 0001:00005e90       ?push_back@?$list@UKAccountUserTimeInfo@@V?$allocator@UKAccountUserTimeInfo@@@std@@@std@@QAEXABUKAccountUserTimeInfo@@@Z 00406e90 f i S3PAccount.obj
 0001:00005ed0       ?GetAccountsTime@S3PAccount@@SAHPAVS3PDBConVBC@@KKAAV?$list@UKAccountUserTimeInfo@@V?$allocator@UKAccountUserTimeInfo@@@std@@@std@@@Z 00406ed0 f   S3PAccount.obj
 0001:000061c0       ??0Data_t@_bstr_t@@QAE@PBD@Z 004071c0 f i S3PDB_MSSQLServer_Connection.obj
 0001:000061f0       ??0_variant_t@@QAE@PBD@Z   004071f0 f i S3PDB_MSSQLServer_Connection.obj
 0001:00006210       ??0_variant_t@@QAE@PAUIDispatch@@_N@Z 00407210 f i S3PDB_MSSQLServer_Connection.obj
 0001:00006240       ?HRESULTToWCode@_com_error@@SAGJ@Z 00407240 f i S3PDB_MSSQLServer_Connection.obj
 0001:00006260       ?PutRefActiveConnection@Command15@@QAEXPAU_Connection@@@Z 00407260 f i S3PDB_MSSQLServer_Connection.obj
 0001:00006290       ?Close@Connection15@@QAEJXZ 00407290 f i S3PDB_MSSQLServer_Connection.obj
 0001:000062c0       ?PutCursorLocation@Connection15@@QAEXW4CursorLocationEnum@@@Z 004072c0 f i S3PDB_MSSQLServer_Connection.obj
 0001:000062f0       ?Open@Recordset15@@QAEJABV_variant_t@@0W4CursorTypeEnum@@W4LockTypeEnum@@J@Z 004072f0 f i S3PDB_MSSQLServer_Connection.obj
 0001:00006370       ?GetFreeResult@S3PDB_MSSQLServer_Connection@@IAE_NPAPAVS3PResultVBC@@PAPAU_Recordset@@@Z 00407370 f   S3PDB_MSSQLServer_Connection.obj
 0001:000063d0       ??0?$_com_ptr_t@V?$_com_IIID@U_Connection@@$1?_GUID_00000550_0000_0010_8000_00aa006d2ea4@@3U__s_GUID@@B@@@@QAE@XZ 004073d0 f i S3PDB_MSSQLServer_Connection.obj
 0001:000063e0       ??0?$_com_ptr_t@V?$_com_IIID@U_Connection@@$1?_GUID_00000550_0000_0010_8000_00aa006d2ea4@@3U__s_GUID@@B@@@@QAE@H@Z 004073e0 f i S3PDB_MSSQLServer_Connection.obj
 0001:00006400       ??B?$_com_ptr_t@V?$_com_IIID@U_Connection@@$1?_GUID_00000550_0000_0010_8000_00aa006d2ea4@@3U__s_GUID@@B@@@@QBEPAU_Connection@@XZ 00407400 f i S3PDB_MSSQLServer_Connection.obj
 0001:00006410       ??C?$_com_ptr_t@V?$_com_IIID@U_Connection@@$1?_GUID_00000550_0000_0010_8000_00aa006d2ea4@@3U__s_GUID@@B@@@@QBEPAU_Connection@@XZ 00407410 f i S3PDB_MSSQLServer_Connection.obj
 0001:00006430       ??8?$_com_ptr_t@V?$_com_IIID@U_Connection@@$1?_GUID_00000550_0000_0010_8000_00aa006d2ea4@@3U__s_GUID@@B@@@@QAE_NH@Z 00407430 f i S3PDB_MSSQLServer_Connection.obj
 0001:00006450       ??0?$_com_ptr_t@V?$_com_IIID@U_Recordset@@$1?_GUID_00000556_0000_0010_8000_00aa006d2ea4@@3U__s_GUID@@B@@@@QAE@XZ 00407450 f i S3PDB_MSSQLServer_Connection.obj
 0001:00006460       ??0?$_com_ptr_t@V?$_com_IIID@U_Command@@$1?_GUID_b08400bd_f9d1_4d02_b856_71d5dba123e9@@3U__s_GUID@@B@@@@QAE@H@Z 00407460 f i S3PDB_MSSQLServer_Connection.obj
 0001:00006480       ??C?$_com_ptr_t@V?$_com_IIID@U_Command@@$1?_GUID_b08400bd_f9d1_4d02_b856_71d5dba123e9@@3U__s_GUID@@B@@@@QBEPAU_Command@@XZ 00407480 f i S3PDB_MSSQLServer_Connection.obj
 0001:000064a0       ??B?$_com_ptr_t@V?$_com_IIID@U_Command@@$1?_GUID_b08400bd_f9d1_4d02_b856_71d5dba123e9@@3U__s_GUID@@B@@@@QBE_NXZ 004074a0 f i S3PDB_MSSQLServer_Connection.obj
 0001:000064b0       ?_Release@?$_com_ptr_t@V?$_com_IIID@U_Connection@@$1?_GUID_00000550_0000_0010_8000_00aa006d2ea4@@3U__s_GUID@@B@@@@AAEXXZ 004074b0 f i S3PDB_MSSQLServer_Connection.obj
 0001:000064c0       ?_AddRef@?$_com_ptr_t@V?$_com_IIID@U_Connection@@$1?_GUID_00000550_0000_0010_8000_00aa006d2ea4@@3U__s_GUID@@B@@@@AAEXXZ 004074c0 f i S3PDB_MSSQLServer_Connection.obj
 0001:000064d0       ?_Release@?$_com_ptr_t@V?$_com_IIID@U_Command@@$1?_GUID_b08400bd_f9d1_4d02_b856_71d5dba123e9@@3U__s_GUID@@B@@@@AAEXXZ 004074d0 f i S3PDB_MSSQLServer_Connection.obj
 0001:000064e0       ?_AddRef@?$_com_ptr_t@V?$_com_IIID@U_Command@@$1?_GUID_b08400bd_f9d1_4d02_b856_71d5dba123e9@@3U__s_GUID@@B@@@@AAEXXZ 004074e0 f i S3PDB_MSSQLServer_Connection.obj
 0001:000064f0       ?GetIID@?$_com_IIID@U_Connection@@$1?_GUID_00000550_0000_0010_8000_00aa006d2ea4@@3U__s_GUID@@B@@SAABU_GUID@@XZ 004074f0 f i S3PDB_MSSQLServer_Connection.obj
 0001:00006500       ?GetIID@?$_com_IIID@U_Command@@$1?_GUID_b08400bd_f9d1_4d02_b856_71d5dba123e9@@3U__s_GUID@@B@@SAABU_GUID@@XZ 00407500 f i S3PDB_MSSQLServer_Connection.obj
 0001:00006510       ??$?8V?$_com_IIID@U_Connection@@$1?_GUID_00000550_0000_0010_8000_00aa006d2ea4@@3U__s_GUID@@B@@@@YA_NHAAV?$_com_ptr_t@V?$_com_IIID@U_Connection@@$1?_GUID_00000550_0000_0010_8000_00aa006d2ea4@@3U__s_GUID@@B@@@@@Z 00407510 f i S3PDB_MSSQLServer_Connection.obj
 0001:00006530       ??9?$_com_ptr_t@V?$_com_IIID@U_Connection@@$1?_GUID_00000550_0000_0010_8000_00aa006d2ea4@@3U__s_GUID@@B@@@@QAE_NH@Z 00407530 f i S3PDB_MSSQLServer_Connection.obj
 0001:00006550       ??0_bstr_t@@QAE@PBD@Z      00407550 f i S3PDB_MSSQLServer_Connection.obj
 0001:000065e0       ??B_bstr_t@@QBEPA_WXZ      004075e0 f i S3PDB_MSSQLServer_Connection.obj
 0001:000065f0       ?WCode@_com_error@@QBEGXZ  004075f0 f i S3PDB_MSSQLServer_Connection.obj
 0001:00006610       ?ErrorMessage@_com_error@@QBEPBDXZ 00407610 f i S3PDB_MSSQLServer_Connection.obj
 0001:000066e0       ?QuerySql@S3PDB_MSSQLServer_Connection@@UAE_NPBDPAPAVS3PResultVBC@@@Z 004076e0 f   S3PDB_MSSQLServer_Connection.obj
 0001:00006760       ??1?$_com_ptr_t@V?$_com_IIID@U_Connection@@$1?_GUID_00000550_0000_0010_8000_00aa006d2ea4@@3U__s_GUID@@B@@@@QAE@XZ 00407760 f i S3PDB_MSSQLServer_Connection.obj
 0001:00006770       ??0?$_com_ptr_t@V?$_com_IIID@U_Recordset@@$1?_GUID_00000556_0000_0010_8000_00aa006d2ea4@@3U__s_GUID@@B@@@@QAE@PAU_Recordset@@_N@Z 00407770 f i S3PDB_MSSQLServer_Connection.obj
 0001:000067a0       ??1?$_com_ptr_t@V?$_com_IIID@U_Command@@$1?_GUID_b08400bd_f9d1_4d02_b856_71d5dba123e9@@3U__s_GUID@@B@@@@QAE@XZ 004077a0 f i S3PDB_MSSQLServer_Connection.obj
 0001:000067b0       ??$?4U_Connection@@@?$_com_ptr_t@V?$_com_IIID@U_Connection@@$1?_GUID_00000550_0000_0010_8000_00aa006d2ea4@@3U__s_GUID@@B@@@@QAEAAV0@PAU_Connection@@@Z 004077b0 f i S3PDB_MSSQLServer_Connection.obj
 0001:000067e0       ??$?4U_Command@@@?$_com_ptr_t@V?$_com_IIID@U_Command@@$1?_GUID_b08400bd_f9d1_4d02_b856_71d5dba123e9@@3U__s_GUID@@B@@@@QAEAAV0@PAU_Command@@@Z 004077e0 f i S3PDB_MSSQLServer_Connection.obj
 0001:00006810       ?GetIID@?$_com_ptr_t@V?$_com_IIID@U_Connection@@$1?_GUID_00000550_0000_0010_8000_00aa006d2ea4@@3U__s_GUID@@B@@@@SAABU_GUID@@XZ 00407810 f i S3PDB_MSSQLServer_Connection.obj
 0001:00006820       ?GetIID@?$_com_ptr_t@V?$_com_IIID@U_Command@@$1?_GUID_b08400bd_f9d1_4d02_b856_71d5dba123e9@@3U__s_GUID@@B@@@@SAABU_GUID@@XZ 00407820 f i S3PDB_MSSQLServer_Connection.obj
 0001:00006830       ??$?9V?$_com_IIID@U_Connection@@$1?_GUID_00000550_0000_0010_8000_00aa006d2ea4@@3U__s_GUID@@B@@@@YA_NHAAV?$_com_ptr_t@V?$_com_IIID@U_Connection@@$1?_GUID_00000550_0000_0010_8000_00aa006d2ea4@@3U__s_GUID@@B@@@@@Z 00407830 f i S3PDB_MSSQLServer_Connection.obj
 0001:00006850       ?Execute@Command15@@QAE?AV?$_com_ptr_t@V?$_com_IIID@U_Recordset@@$1?_GUID_00000556_0000_0010_8000_00aa006d2ea4@@3U__s_GUID@@B@@@@PAUtagVARIANT@@0J@Z 00407850 f i S3PDB_MSSQLServer_Connection.obj
 0001:000068b0       ??1S3PDB_MSSQLServer_Connection@@UAE@XZ 004078b0 f   S3PDB_MSSQLServer_Connection.obj
 0001:00006960       ?DoSql@S3PDB_MSSQLServer_Connection@@UAE_NPBDPAU_Recordset@@@Z 00407960 f   S3PDB_MSSQLServer_Connection.obj
 0001:00006a60       ??4?$_com_ptr_t@V?$_com_IIID@U_Connection@@$1?_GUID_00000550_0000_0010_8000_00aa006d2ea4@@3U__s_GUID@@B@@@@QAEAAV0@ABV0@@Z 00407a60 f i S3PDB_MSSQLServer_Connection.obj
 0001:00006aa0       ??4?$_com_ptr_t@V?$_com_IIID@U_Connection@@$1?_GUID_00000550_0000_0010_8000_00aa006d2ea4@@3U__s_GUID@@B@@@@QAEAAV0@H@Z 00407aa0 f i S3PDB_MSSQLServer_Connection.obj
 0001:00006ad0       ??4?$_com_ptr_t@V?$_com_IIID@U_Command@@$1?_GUID_b08400bd_f9d1_4d02_b856_71d5dba123e9@@3U__s_GUID@@B@@@@QAEAAV0@H@Z 00407ad0 f i S3PDB_MSSQLServer_Connection.obj
 0001:00006b00       ?CreateInstance@?$_com_ptr_t@V?$_com_IIID@U_Connection@@$1?_GUID_00000550_0000_0010_8000_00aa006d2ea4@@3U__s_GUID@@B@@@@QAEJABU_GUID@@PAUIUnknown@@K@Z 00407b00 f i S3PDB_MSSQLServer_Connection.obj
 0001:00006ba0       ?CreateInstance@?$_com_ptr_t@V?$_com_IIID@U_Command@@$1?_GUID_b08400bd_f9d1_4d02_b856_71d5dba123e9@@3U__s_GUID@@B@@@@QAEJABU_GUID@@PAUIUnknown@@K@Z 00407ba0 f i S3PDB_MSSQLServer_Connection.obj
 0001:00006c40       ??0S3P_MSSQLServer_Result@@QAE@XZ 00407c40 f i S3PDB_MSSQLServer_Connection.obj
 0001:00006cb0       ??0S3PDB_MSSQLServer_Connection@@QAE@XZ 00407cb0 f   S3PDB_MSSQLServer_Connection.obj
 0001:00006d40       ??_ES3PDB_MSSQLServer_Connection@@UAEPAXI@Z 00407d40 f i S3PDB_MSSQLServer_Connection.obj
 0001:00006d40       ??_GS3PDB_MSSQLServer_Connection@@UAEPAXI@Z 00407d40 f i S3PDB_MSSQLServer_Connection.obj
 0001:00006d60       ?CloseConnect@S3PDB_MSSQLServer_Connection@@UAEXXZ 00407d60 f   S3PDB_MSSQLServer_Connection.obj
 0001:00006dd0       ?CreateInstance@?$_com_ptr_t@V?$_com_IIID@U_Connection@@$1?_GUID_00000550_0000_0010_8000_00aa006d2ea4@@3U__s_GUID@@B@@@@QAEJPB_WPAUIUnknown@@K@Z 00407dd0 f i S3PDB_MSSQLServer_Connection.obj
 0001:00006e50       ?CreateInstance@?$_com_ptr_t@V?$_com_IIID@U_Command@@$1?_GUID_b08400bd_f9d1_4d02_b856_71d5dba123e9@@3U__s_GUID@@B@@@@QAEJPB_WPAUIUnknown@@K@Z 00407e50 f i S3PDB_MSSQLServer_Connection.obj
 0001:00006ed0       ?CreateInstance@?$_com_ptr_t@V?$_com_IIID@U_Connection@@$1?_GUID_00000550_0000_0010_8000_00aa006d2ea4@@3U__s_GUID@@B@@@@QAEJPBDPAUIUnknown@@K@Z 00407ed0 f i S3PDB_MSSQLServer_Connection.obj
 0001:00006fe0       ?CreateInstance@?$_com_ptr_t@V?$_com_IIID@U_Command@@$1?_GUID_b08400bd_f9d1_4d02_b856_71d5dba123e9@@3U__s_GUID@@B@@@@QAEJPBDPAUIUnknown@@K@Z 00407fe0 f i S3PDB_MSSQLServer_Connection.obj
 0001:000070f0       ?PutCommandText@Command15@@QAEXV_bstr_t@@@Z 004080f0 f i S3PDB_MSSQLServer_Connection.obj
 0001:00007190       ?Open@Connection15@@QAEJV_bstr_t@@00J@Z 00408190 f i S3PDB_MSSQLServer_Connection.obj
 0001:000072d0       ?Do@S3PDB_MSSQLServer_Connection@@UAE_NPBD@Z 004082d0 f   S3PDB_MSSQLServer_Connection.obj
 0001:000074a0       ?append@?$basic_string@DU?$char_traits@D@std@@V?$allocator@D@2@@std@@QAEAAV12@ABV12@@Z 004084a0 f i S3PDB_MSSQLServer_Connection.obj
 0001:000074c0       ??Y?$basic_string@DU?$char_traits@D@std@@V?$allocator@D@2@@std@@QAEAAV01@ABV01@@Z 004084c0 f i S3PDB_MSSQLServer_Connection.obj
 0001:000074e0       ?OpenConnect@S3PDB_MSSQLServer_Connection@@UAE_NPAUtag_DATABASEINFO@@@Z 004084e0 f   S3PDB_MSSQLServer_Connection.obj
 0001:00007780       ?IsLocked@K_CS@@QAEHXZ     00408780 f i S3PDBConnectionPool.obj
 0001:00007790       ?GetGMID@@YAKXZ            00408790 f   S3PDBConnectionPool.obj
 0001:000077a0       ?ReleaseInstance@S3PDBConnectionPool@@SAXXZ 004087a0 f   S3PDBConnectionPool.obj
 0001:000077c0       ?CreateConnection@S3PDBConnectionPool@@IAEHPAUtag_DATABASEINFO@@PAPAVS3PDBConVBC@@@Z 004087c0 f   S3PDBConnectionPool.obj
 0001:00007860       ?size@?$vector@PAVS3PDBConVBC@@V?$allocator@PAVS3PDBConVBC@@@std@@@std@@QBEIXZ 00408860 f i S3PDBConnectionPool.obj
 0001:00007880       ??A?$vector@PAVS3PDBConVBC@@V?$allocator@PAVS3PDBConVBC@@@std@@@std@@QAEAAPAVS3PDBConVBC@@I@Z 00408880 f i S3PDBConnectionPool.obj
 0001:000078b0       ?capacity@?$vector@PAVS3PDBConVBC@@V?$allocator@PAVS3PDBConVBC@@@std@@@std@@QBEIXZ 004088b0 f i S3PDBConnectionPool.obj
 0001:000078d0       ??0?$allocator@PAVS3PDBConVBC@@@std@@QAE@XZ 004088d0 f i S3PDBConnectionPool.obj
 0001:000078e0       ??0?$allocator@PAVS3PDBConVBC@@@std@@QAE@ABV01@@Z 004088e0 f i S3PDBConnectionPool.obj
 0001:000078f0       ?deallocate@?$allocator@PAVS3PDBConVBC@@@std@@QAEXPAPAVS3PDBConVBC@@I@Z 004088f0 f i S3PDBConnectionPool.obj
 0001:00007900       ?max_size@?$allocator@PAVS3PDBConVBC@@@std@@QBEIXZ 00408900 f i S3PDBConnectionPool.obj
 0001:00007910       ??G?$_Vector_const_iterator@PAVS3PDBConVBC@@V?$allocator@PAVS3PDBConVBC@@@std@@@std@@QBEHABV01@@Z 00408910 f i S3PDBConnectionPool.obj
 0001:00007940       ??0?$_Ranit@PAVS3PDBConVBC@@HPBQAV1@ABQAV1@@std@@QAE@XZ 00408940 f i S3PDBConnectionPool.obj
 0001:00007950       ??Y?$_Vector_const_iterator@PAVS3PDBConVBC@@V?$allocator@PAVS3PDBConVBC@@@std@@@std@@QAEAAV01@H@Z 00408950 f i S3PDBConnectionPool.obj
 0001:00007990       ??$_Allocate@PAVS3PDBConVBC@@@std@@YAPAPAVS3PDBConVBC@@IPAPAV1@@Z 00408990 f i S3PDBConnectionPool.obj
 0001:000079f0       ??$_Ptr_cat@PAPAVS3PDBConVBC@@PAPAV1@@std@@YA?AU_Scalar_ptr_iterator_tag@0@AAPAPAVS3PDBConVBC@@0@Z 004089f0 f i S3PDBConnectionPool.obj
 0001:00007a00       ??$_Destroy_range@PAVS3PDBConVBC@@V?$allocator@PAVS3PDBConVBC@@@std@@@std@@YAXPAPAVS3PDBConVBC@@0AAV?$allocator@PAVS3PDBConVBC@@@0@U_Scalar_ptr_iterator_tag@0@@Z 00408a00 f i S3PDBConnectionPool.obj
 0001:00007a10       ??$_Fill@PAPAVS3PDBConVBC@@PAV1@@std@@YAXPAPAVS3PDBConVBC@@0ABQAV1@@Z 00408a10 f i S3PDBConnectionPool.obj
 0001:00007a30       ??$_Iter_random@PAPAVS3PDBConVBC@@PAPAV1@@std@@YA?AUrandom_access_iterator_tag@0@ABQAPAVS3PDBConVBC@@0@Z 00408a30 f i S3PDBConnectionPool.obj
 0001:00007a40       ??$_Move_cat@PAPAVS3PDBConVBC@@@std@@YA?AU_Undefined_move_tag@0@ABQAPAVS3PDBConVBC@@@Z 00408a40 f i S3PDBConnectionPool.obj
 0001:00007a50       ??$_Checked_base@PAPAVS3PDBConVBC@@@std@@YAPAPAVS3PDBConVBC@@AAPAPAV1@U_Unchanged_checked_iterator_base_type_tag@0@@Z 00408a50 f i S3PDBConnectionPool.obj
 0001:00007a60       ??$_Copy_backward_opt@PAPAVS3PDBConVBC@@PAPAV1@Urandom_access_iterator_tag@std@@@std@@YAPAPAVS3PDBConVBC@@PAPAV1@00Urandom_access_iterator_tag@0@U_Scalar_ptr_iterator_tag@0@U_Range_checked_iterator_tag@0@@Z 00408a60 f i S3PDBConnectionPool.obj
 0001:00007a90       ??$_Iter_cat@PAPAVS3PDBConVBC@@@std@@YA?AUrandom_access_iterator_tag@0@ABQAPAVS3PDBConVBC@@@Z 00408a90 f i S3PDBConnectionPool.obj
 0001:00007aa0       ??$_Fill_n@PAPAVS3PDBConVBC@@IPAV1@@std@@YAXPAPAVS3PDBConVBC@@IABQAV1@U_Range_checked_iterator_tag@0@@Z 00408aa0 f i S3PDBConnectionPool.obj
 0001:00007ad0       ??$_Uninit_copy@PAPAVS3PDBConVBC@@PAPAV1@V?$allocator@PAVS3PDBConVBC@@@std@@@std@@YAPAPAVS3PDBConVBC@@PAPAV1@00AAV?$allocator@PAVS3PDBConVBC@@@0@U_Scalar_ptr_iterator_tag@0@U_Range_checked_iterator_tag@0@@Z 00408ad0 f i S3PDBConnectionPool.obj
 0001:00007b00       ?RemoveDBCon@S3PDBConnectionPool@@QAEHPAPAVS3PDBConVBC@@@Z 00408b00 f   S3PDBConnectionPool.obj
 0001:00007c00       ?ReturnDBCon@S3PDBConnectionPool@@QAEHPAVS3PDBConVBC@@@Z 00408c00 f   S3PDBConnectionPool.obj
 0001:00007cd0       ??0?$_Vector_val@PAVS3PDBConVBC@@V?$allocator@PAVS3PDBConVBC@@@std@@@std@@IAE@V?$allocator@PAVS3PDBConVBC@@@1@@Z 00408cd0 f i S3PDBConnectionPool.obj
 0001:00007ce0       ?max_size@?$vector@PAVS3PDBConVBC@@V?$allocator@PAVS3PDBConVBC@@@std@@@std@@QBEIXZ 00408ce0 f i S3PDBConnectionPool.obj
 0001:00007cf0       ?allocate@?$allocator@PAVS3PDBConVBC@@@std@@QAEPAPAVS3PDBConVBC@@I@Z 00408cf0 f i S3PDBConnectionPool.obj
 0001:00007d10       ??G?$_Vector_iterator@PAVS3PDBConVBC@@V?$allocator@PAVS3PDBConVBC@@@std@@@std@@QBEHABV?$_Vector_const_iterator@PAVS3PDBConVBC@@V?$allocator@PAVS3PDBConVBC@@@std@@@1@@Z 00408d10 f i S3PDBConnectionPool.obj
 0001:00007d40       ??Y?$_Vector_iterator@PAVS3PDBConVBC@@V?$allocator@PAVS3PDBConVBC@@@std@@@std@@QAEAAV01@H@Z 00408d40 f i S3PDBConnectionPool.obj
 0001:00007d80       ??0?$_Vector_const_iterator@PAVS3PDBConVBC@@V?$allocator@PAVS3PDBConVBC@@@std@@@std@@QAE@PAPAVS3PDBConVBC@@PBU_Container_base@1@@Z 00408d80 f i S3PDBConnectionPool.obj
 0001:00007dc0       ??$_Destroy_range@PAVS3PDBConVBC@@V?$allocator@PAVS3PDBConVBC@@@std@@@std@@YAXPAPAVS3PDBConVBC@@0AAV?$allocator@PAVS3PDBConVBC@@@0@@Z 00408dc0 f i S3PDBConnectionPool.obj
 0001:00007dd0       ??$_Checked_base@PAPAVS3PDBConVBC@@@std@@YAPAPAVS3PDBConVBC@@AAPAPAV1@@Z 00408dd0 f i S3PDBConnectionPool.obj
 0001:00007de0       ??$_Move_backward_opt@PAPAVS3PDBConVBC@@PAPAV1@Urandom_access_iterator_tag@std@@U_Undefined_move_tag@3@@std@@YAPAPAVS3PDBConVBC@@PAPAV1@00Urandom_access_iterator_tag@0@U_Undefined_move_tag@0@U_Range_checked_iterator_tag@0@@Z 00408de0 f i S3PDBConnectionPool.obj
 0001:00007e10       ??$_Fill_n@PAPAVS3PDBConVBC@@IPAV1@@std@@YAXPAPAVS3PDBConVBC@@IABQAV1@Urandom_access_iterator_tag@0@U_Range_checked_iterator_tag@0@@Z 00408e10 f i S3PDBConnectionPool.obj
 0001:00007e40       ??$unchecked_uninitialized_copy@PAPAVS3PDBConVBC@@PAPAV1@V?$allocator@PAVS3PDBConVBC@@@std@@@stdext@@YAPAPAVS3PDBConVBC@@PAPAV1@00AAV?$allocator@PAVS3PDBConVBC@@@std@@@Z 00408e40 f i S3PDBConnectionPool.obj
 0001:00007e70       ?_Destroy@?$vector@PAVS3PDBConVBC@@V?$allocator@PAVS3PDBConVBC@@@std@@@std@@IAEXPAPAVS3PDBConVBC@@0@Z 00408e70 f i S3PDBConnectionPool.obj
 0001:00007e80       ??0?$_Vector_iterator@PAVS3PDBConVBC@@V?$allocator@PAVS3PDBConVBC@@@std@@@std@@QAE@PAPAVS3PDBConVBC@@PBU_Container_base@1@@Z 00408e80 f i S3PDBConnectionPool.obj
 0001:00007ec0       ??H?$_Vector_iterator@PAVS3PDBConVBC@@V?$allocator@PAVS3PDBConVBC@@@std@@@std@@QBE?AV01@H@Z 00408ec0 f i S3PDBConnectionPool.obj
 0001:00007f00       ??$fill@PAPAVS3PDBConVBC@@PAV1@@std@@YAXPAPAVS3PDBConVBC@@0ABQAV1@@Z 00408f00 f i S3PDBConnectionPool.obj
 0001:00007f20       ??$_Unchecked_move_backward@PAPAVS3PDBConVBC@@PAPAV1@@stdext@@YAPAPAVS3PDBConVBC@@PAPAV1@00@Z 00408f20 f i S3PDBConnectionPool.obj
 0001:00007f50       ??$unchecked_fill_n@PAPAVS3PDBConVBC@@IPAV1@@stdext@@YAXPAPAVS3PDBConVBC@@IABQAV1@@Z 00408f50 f i S3PDBConnectionPool.obj
 0001:00007f80       ??$_Uninit_move@PAPAVS3PDBConVBC@@PAPAV1@V?$allocator@PAVS3PDBConVBC@@@std@@U_Undefined_move_tag@3@@std@@YAPAPAVS3PDBConVBC@@PAPAV1@00AAV?$allocator@PAVS3PDBConVBC@@@0@U_Undefined_move_tag@0@U_Range_checked_iterator_tag@0@@Z 00408f80 f i S3PDBConnectionPool.obj
 0001:00007fb0       ?end@?$vector@PAVS3PDBConVBC@@V?$allocator@PAVS3PDBConVBC@@@std@@@std@@QAE?AV?$_Vector_iterator@PAVS3PDBConVBC@@V?$allocator@PAVS3PDBConVBC@@@std@@@2@XZ 00408fb0 f i S3PDBConnectionPool.obj
 0001:00007fe0       ?_Tidy@?$vector@PAVS3PDBConVBC@@V?$allocator@PAVS3PDBConVBC@@@std@@@std@@IAEXXZ 00408fe0 f i S3PDBConnectionPool.obj
 0001:00008010       ?begin@?$vector@PAVS3PDBConVBC@@V?$allocator@PAVS3PDBConVBC@@@std@@@std@@QAE?AV?$_Vector_iterator@PAVS3PDBConVBC@@V?$allocator@PAVS3PDBConVBC@@@std@@@2@XZ 00409010 f i S3PDBConnectionPool.obj
 0001:00008040       ??$_Uninit_fill_n@PAPAVS3PDBConVBC@@IPAV1@V?$allocator@PAVS3PDBConVBC@@@std@@@std@@YAXPAPAVS3PDBConVBC@@IABQAV1@AAV?$allocator@PAVS3PDBConVBC@@@0@U_Scalar_ptr_iterator_tag@0@U_Range_checked_iterator_tag@0@@Z 00409040 f i S3PDBConnectionPool.obj
 0001:00008070       ??$_Unchecked_uninitialized_move@PAPAVS3PDBConVBC@@PAPAV1@V?$allocator@PAVS3PDBConVBC@@@std@@@stdext@@YAPAPAVS3PDBConVBC@@PAPAV1@00AAV?$allocator@PAVS3PDBConVBC@@@std@@@Z 00409070 f i S3PDBConnectionPool.obj
 0001:000080a0       ??0tag_DATABASEINFO@@QAE@XZ 004090a0 f i S3PDBConnectionPool.obj
 0001:000080d0       ??1tag_DATABASEINFO@@QAE@XZ 004090d0 f i S3PDBConnectionPool.obj
 0001:00008150       ??1?$vector@PAVS3PDBConVBC@@V?$allocator@PAVS3PDBConVBC@@@std@@@std@@QAE@XZ 00409150 f i S3PDBConnectionPool.obj
 0001:00008180       ??$unchecked_uninitialized_fill_n@PAPAVS3PDBConVBC@@IPAV1@V?$allocator@PAVS3PDBConVBC@@@std@@@stdext@@YAXPAPAVS3PDBConVBC@@IABQAV1@AAV?$allocator@PAVS3PDBConVBC@@@std@@@Z 00409180 f i S3PDBConnectionPool.obj
 0001:000081b0       ??$_Umove@PAPAVS3PDBConVBC@@@?$vector@PAVS3PDBConVBC@@V?$allocator@PAVS3PDBConVBC@@@std@@@std@@IAEPAPAVS3PDBConVBC@@PAPAV2@00@Z 004091b0 f i S3PDBConnectionPool.obj
 0001:000081e0       ??1S3PDBConnectionPool@@MAE@XZ 004091e0 f   S3PDBConnectionPool.obj
 0001:000082f0       ?_Ufill@?$vector@PAVS3PDBConVBC@@V?$allocator@PAVS3PDBConVBC@@@std@@@std@@IAEPAPAVS3PDBConVBC@@PAPAV3@IABQAV3@@Z 004092f0 f i S3PDBConnectionPool.obj
 0001:00008320       ??_ES3PDBConnectionPool@@MAEPAXI@Z 00409320 f i S3PDBConnectionPool.obj
 0001:00008320       ??_GS3PDBConnectionPool@@MAEPAXI@Z 00409320 f i S3PDBConnectionPool.obj
 0001:00008340       ?_Xlen@?$vector@PAVS3PDBConVBC@@V?$allocator@PAVS3PDBConVBC@@@std@@@std@@KAXXZ 00409340 f i S3PDBConnectionPool.obj
 0001:000083c0       ?_Buy@?$vector@PAVS3PDBConVBC@@V?$allocator@PAVS3PDBConVBC@@@std@@@std@@IAE_NI@Z 004093c0 f i S3PDBConnectionPool.obj
 0001:00008410       ?_Insert_n@?$vector@PAVS3PDBConVBC@@V?$allocator@PAVS3PDBConVBC@@@std@@@std@@IAEXV?$_Vector_iterator@PAVS3PDBConVBC@@V?$allocator@PAVS3PDBConVBC@@@std@@@2@IABQAVS3PDBConVBC@@@Z 00409410 f i S3PDBConnectionPool.obj
 0001:000085d0       ??0?$vector@PAVS3PDBConVBC@@V?$allocator@PAVS3PDBConVBC@@@std@@@std@@QAE@XZ 004095d0 f i S3PDBConnectionPool.obj
 0001:000085e0       ?insert@?$vector@PAVS3PDBConVBC@@V?$allocator@PAVS3PDBConVBC@@@std@@@std@@QAE?AV?$_Vector_iterator@PAVS3PDBConVBC@@V?$allocator@PAVS3PDBConVBC@@@std@@@2@V32@ABQAVS3PDBConVBC@@@Z 004095e0 f i S3PDBConnectionPool.obj
 0001:00008670       ??0S3PDBConnectionPool@@IAE@XZ 00409670 f   S3PDBConnectionPool.obj
 0001:000086c0       ?Instance@S3PDBConnectionPool@@SAPAV1@XZ 004096c0 f   S3PDBConnectionPool.obj
 0001:00008740       ?push_back@?$vector@PAVS3PDBConVBC@@V?$allocator@PAVS3PDBConVBC@@@std@@@std@@QAEXABQAVS3PDBConVBC@@@Z 00409740 f i S3PDBConnectionPool.obj
 0001:000087b0       ?Init@S3PDBConnectionPool@@QAEHABV?$basic_string@DU?$char_traits@D@std@@V?$allocator@D@2@@std@@0K@Z 004097b0 f   S3PDBConnectionPool.obj
 0001:00008af0       ??0S3PDBConVBC@@IAE@XZ     00409af0 f   S3PDBConVBC.obj
 0001:00008b10       ??1S3PDBConVBC@@UAE@XZ     00409b10 f   S3PDBConVBC.obj
 0001:00008b20       ??_ES3PDBConVBC@@UAEPAXI@Z 00409b20 f i S3PDBConVBC.obj
 0001:00008b20       ??_GS3PDBConVBC@@UAEPAXI@Z 00409b20 f i S3PDBConVBC.obj
 0001:00008b40       ??0KThread_CS@@QAE@XZ      00409b40 f i S3PDBSocketPool.obj
 0001:00008ba0       ??1KThread_CS@@UAE@XZ      00409ba0 f i S3PDBSocketPool.obj
 0001:00008c10       ??_EKThread_CS@@UAEPAXI@Z  00409c10 f i S3PDBSocketPool.obj
 0001:00008c10       ??_GKThread_CS@@UAEPAXI@Z  00409c10 f i S3PDBSocketPool.obj
 0001:00008c30       ??3@YAXPAX0@Z              00409c30 f i S3PDBSocketPool.obj
 0001:00008c40       ?gGetMacAndIPAddress@@YAHPAEPAK01KK@Z 00409c40 f i S3PDBSocketPool.obj
 0001:00008e80       ?ReleaseInstance@S3PDBSocketPool@@SAXXZ 00409e80 f   S3PDBSocketPool.obj
 0001:00008ea0       ?Start@S3PDBSocketPool@@UAEPAXPAUIServer@@@Z 00409ea0 f   S3PDBSocketPool.obj
 0001:00008ec0       ?SendData@S3PDBSocketPool@@QAEHKQBXABI@Z 00409ec0 f   S3PDBSocketPool.obj
 0001:00008f70       ?CustomSend@S3PDBSocketPool@@QAEHKDPAUKAccountHead@@@Z 00409f70 f   S3PDBSocketPool.obj
 0001:00009040       ?SendRelayData@S3PDBSocketPool@@QAEXKPADQBXABI12@Z 0040a040 f   S3PDBSocketPool.obj
 0001:00009150       ?SendRelayData@S3PDBSocketPool@@QAEXKQBXABI01@Z 0040a150 f   S3PDBSocketPool.obj
 0001:00009240       ?IsStartAutoTime@KGatewayDataProcess@@IAEHXZ 0040a240 f   S3PDBSocketPool.obj
 0001:00009260       ?StartAutoTime@KGatewayDataProcess@@IAEHXZ 0040a260 f   S3PDBSocketPool.obj
 0001:00009290       ?ProRelayClose@KGatewayDataProcess@@IAEHPAVS3PDBConVBC@@PBDK@Z 0040a290 f   S3PDBSocketPool.obj
 0001:000092e0       ?ProGMFamily@KGatewayDataProcess@@IAEHPAVS3PDBConVBC@@PBDK@Z 0040a2e0 f   S3PDBSocketPool.obj
 0001:00009330       ?GetDB@KGatewayDataProcess@@IAEPAVS3PDBConVBC@@K@Z 0040a330 f   S3PDBSocketPool.obj
 0001:00009380       ?Start@KGatewayDataProcess@@UAEPAXPAUIServer@@@Z 0040a380 f   S3PDBSocketPool.obj
 0001:000093b0       ?Stop@KGatewayDataProcess@@UAEHXZ 0040a3b0 f   S3PDBSocketPool.obj
 0001:000093e0       ?size@?$_Tree@V?$_Tmap_traits@KPAVKGatewayDataProcess@@U?$less@K@std@@V?$allocator@U?$pair@$$CBKPAVKGatewayDataProcess@@@std@@@3@$0A@@std@@@std@@QBEIXZ 0040a3e0 f i S3PDBSocketPool.obj
 0001:000093f0       ?_Color@?$_Tree@V?$_Tmap_traits@KPAVKGatewayDataProcess@@U?$less@K@std@@V?$allocator@U?$pair@$$CBKPAVKGatewayDataProcess@@@std@@@3@$0A@@std@@@std@@KAAADPAU_Node@?$_Tree_nod@V?$_Tmap_traits@KPAVKGatewayDataProcess@@U?$less@K@std@@V?$allocator@U?$pair@$$CBKPAVKGatewayDataProcess@@@std@@@3@$0A@@std@@@2@@Z 0040a3f0 f i S3PDBSocketPool.obj
 0001:00009400       ?_Isnil@?$_Tree@V?$_Tmap_traits@KPAVKGatewayDataProcess@@U?$less@K@std@@V?$allocator@U?$pair@$$CBKPAVKGatewayDataProcess@@@std@@@3@$0A@@std@@@std@@KAAADPAU_Node@?$_Tree_nod@V?$_Tmap_traits@KPAVKGatewayDataProcess@@U?$less@K@std@@V?$allocator@U?$pair@$$CBKPAVKGatewayDataProcess@@@std@@@3@$0A@@std@@@2@@Z 0040a400 f i S3PDBSocketPool.obj
 0001:00009410       ?_Left@?$_Tree@V?$_Tmap_traits@KPAVKGatewayDataProcess@@U?$less@K@std@@V?$allocator@U?$pair@$$CBKPAVKGatewayDataProcess@@@std@@@3@$0A@@std@@@std@@KAAAPAU_Node@?$_Tree_nod@V?$_Tmap_traits@KPAVKGatewayDataProcess@@U?$less@K@std@@V?$allocator@U?$pair@$$CBKPAVKGatewayDataProcess@@@std@@@3@$0A@@std@@@2@PAU342@@Z 0040a410 f i S3PDBSocketPool.obj
 0001:00009420       ?_Parent@?$_Tree@V?$_Tmap_traits@KPAVKGatewayDataProcess@@U?$less@K@std@@V?$allocator@U?$pair@$$CBKPAVKGatewayDataProcess@@@std@@@3@$0A@@std@@@std@@KAAAPAU_Node@?$_Tree_nod@V?$_Tmap_traits@KPAVKGatewayDataProcess@@U?$less@K@std@@V?$allocator@U?$pair@$$CBKPAVKGatewayDataProcess@@@std@@@3@$0A@@std@@@2@PAU342@@Z 0040a420 f i S3PDBSocketPool.obj
 0001:00009430       ?_Right@?$_Tree@V?$_Tmap_traits@KPAVKGatewayDataProcess@@U?$less@K@std@@V?$allocator@U?$pair@$$CBKPAVKGatewayDataProcess@@@std@@@3@$0A@@std@@@std@@KAAAPAU_Node@?$_Tree_nod@V?$_Tmap_traits@KPAVKGatewayDataProcess@@U?$less@K@std@@V?$allocator@U?$pair@$$CBKPAVKGatewayDataProcess@@@std@@@3@$0A@@std@@@2@PAU342@@Z 0040a430 f i S3PDBSocketPool.obj
 0001:00009440       ?_Lmost@?$_Tree@V?$_Tmap_traits@KPAVKGatewayDataProcess@@U?$less@K@std@@V?$allocator@U?$pair@$$CBKPAVKGatewayDataProcess@@@std@@@3@$0A@@std@@@std@@IBEAAPAU_Node@?$_Tree_nod@V?$_Tmap_traits@KPAVKGatewayDataProcess@@U?$less@K@std@@V?$allocator@U?$pair@$$CBKPAVKGatewayDataProcess@@@std@@@3@$0A@@std@@@2@XZ 0040a440 f i S3PDBSocketPool.obj
 0001:00009450       ?_Max@?$_Tree@V?$_Tmap_traits@KPAVKGatewayDataProcess@@U?$less@K@std@@V?$allocator@U?$pair@$$CBKPAVKGatewayDataProcess@@@std@@@3@$0A@@std@@@std@@KAPAU_Node@?$_Tree_nod@V?$_Tmap_traits@KPAVKGatewayDataProcess@@U?$less@K@std@@V?$allocator@U?$pair@$$CBKPAVKGatewayDataProcess@@@std@@@3@$0A@@std@@@2@PAU342@@Z 0040a450 f i S3PDBSocketPool.obj
 0001:00009470       ?_Min@?$_Tree@V?$_Tmap_traits@KPAVKGatewayDataProcess@@U?$less@K@std@@V?$allocator@U?$pair@$$CBKPAVKGatewayDataProcess@@@std@@@3@$0A@@std@@@std@@KAPAU_Node@?$_Tree_nod@V?$_Tmap_traits@KPAVKGatewayDataProcess@@U?$less@K@std@@V?$allocator@U?$pair@$$CBKPAVKGatewayDataProcess@@@std@@@3@$0A@@std@@@2@PAU342@@Z 0040a470 f i S3PDBSocketPool.obj
 0001:00009490       ?_Rmost@?$_Tree@V?$_Tmap_traits@KPAVKGatewayDataProcess@@U?$less@K@std@@V?$allocator@U?$pair@$$CBKPAVKGatewayDataProcess@@@std@@@3@$0A@@std@@@std@@IBEAAPAU_Node@?$_Tree_nod@V?$_Tmap_traits@KPAVKGatewayDataProcess@@U?$less@K@std@@V?$allocator@U?$pair@$$CBKPAVKGatewayDataProcess@@@std@@@3@$0A@@std@@@2@XZ 0040a490 f i S3PDBSocketPool.obj
 0001:000094a0       ?_Root@?$_Tree@V?$_Tmap_traits@KPAVKGatewayDataProcess@@U?$less@K@std@@V?$allocator@U?$pair@$$CBKPAVKGatewayDataProcess@@@std@@@3@$0A@@std@@@std@@IBEAAPAU_Node@?$_Tree_nod@V?$_Tmap_traits@KPAVKGatewayDataProcess@@U?$less@K@std@@V?$allocator@U?$pair@$$CBKPAVKGatewayDataProcess@@@std@@@3@$0A@@std@@@2@XZ 0040a4a0 f i S3PDBSocketPool.obj
 0001:000094b0       ?_Rrotate@?$_Tree@V?$_Tmap_traits@KPAVKGatewayDataProcess@@U?$less@K@std@@V?$allocator@U?$pair@$$CBKPAVKGatewayDataProcess@@@std@@@3@$0A@@std@@@std@@IAEXPAU_Node@?$_Tree_nod@V?$_Tmap_traits@KPAVKGatewayDataProcess@@U?$less@K@std@@V?$allocator@U?$pair@$$CBKPAVKGatewayDataProcess@@@std@@@3@$0A@@std@@@2@@Z 0040a4b0 f i S3PDBSocketPool.obj
 0001:00009510       ??0?$allocator@U?$pair@$$CBKPAVKGatewayDataProcess@@@std@@@std@@QAE@XZ 0040a510 f i S3PDBSocketPool.obj
 0001:00009520       ??R?$less@K@std@@QBE_NABK0@Z 0040a520 f i S3PDBSocketPool.obj
 0001:00009540       ?deallocate@?$allocator@U_Node@?$_Tree_nod@V?$_Tmap_traits@KPAVKGatewayDataProcess@@U?$less@K@std@@V?$allocator@U?$pair@$$CBKPAVKGatewayDataProcess@@@std@@@3@$0A@@std@@@std@@@std@@QAEXPAU_Node@?$_Tree_nod@V?$_Tmap_traits@KPAVKGatewayDataProcess@@U?$less@K@std@@V?$allocator@U?$pair@$$CBKPAVKGatewayDataProcess@@@std@@@3@$0A@@std@@@2@I@Z 0040a540 f i S3PDBSocketPool.obj
 0001:00009550       ??8const_iterator@?$_Tree@V?$_Tmap_traits@KPAVKGatewayDataProcess@@U?$less@K@std@@V?$allocator@U?$pair@$$CBKPAVKGatewayDataProcess@@@std@@@3@$0A@@std@@@std@@QBE_NABV012@@Z 0040a550 f i S3PDBSocketPool.obj
 0001:00009580       ?_Mynode@const_iterator@?$_Tree@V?$_Tmap_traits@KPAVKGatewayDataProcess@@U?$less@K@std@@V?$allocator@U?$pair@$$CBKPAVKGatewayDataProcess@@@std@@@3@$0A@@std@@@std@@QBEPAU_Node@?$_Tree_nod@V?$_Tmap_traits@KPAVKGatewayDataProcess@@U?$less@K@std@@V?$allocator@U?$pair@$$CBKPAVKGatewayDataProcess@@@std@@@3@$0A@@std@@@3@XZ 0040a580 f i S3PDBSocketPool.obj
 0001:00009590       ??0?$pair@$$CBKPAVKGatewayDataProcess@@@std@@QAE@ABKABQAVKGatewayDataProcess@@@Z 0040a590 f i S3PDBSocketPool.obj
 0001:000095b0       ??0?$allocator@UKAccountUserTimeInfo@@@std@@QAE@XZ 0040a5b0 f i S3PDBSocketPool.obj
 0001:000095c0       ??8?$_Const_iterator@$00@?$list@UKAccountUserTimeInfo@@V?$allocator@UKAccountUserTimeInfo@@@std@@@std@@QBE_NABV012@@Z 0040a5c0 f i S3PDBSocketPool.obj
 0001:000095f0       ?_Myval@?$_Tree@V?$_Tmap_traits@KPAVKGatewayDataProcess@@U?$less@K@std@@V?$allocator@U?$pair@$$CBKPAVKGatewayDataProcess@@@std@@@3@$0A@@std@@@std@@KAAAU?$pair@$$CBKPAVKGatewayDataProcess@@@2@PAU_Node@?$_Tree_nod@V?$_Tmap_traits@KPAVKGatewayDataProcess@@U?$less@K@std@@V?$allocator@U?$pair@$$CBKPAVKGatewayDataProcess@@@std@@@3@$0A@@std@@@2@@Z 0040a5f0 f i S3PDBSocketPool.obj
 0001:00009600       ?_Kfn@?$_Tmap_traits@KPAVKGatewayDataProcess@@U?$less@K@std@@V?$allocator@U?$pair@$$CBKPAVKGatewayDataProcess@@@std@@@3@$0A@@std@@SAABKABU?$pair@$$CBKPAVKGatewayDataProcess@@@2@@Z 0040a600 f i S3PDBSocketPool.obj
 0001:00009610       ??0?$allocator@U?$pair@$$CBKPAVKGatewayDataProcess@@@std@@@std@@QAE@ABV01@@Z 0040a610 f i S3PDBSocketPool.obj
 0001:00009620       ??Dconst_iterator@?$_Tree@V?$_Tmap_traits@KPAVKGatewayDataProcess@@U?$less@K@std@@V?$allocator@U?$pair@$$CBKPAVKGatewayDataProcess@@@std@@@3@$0A@@std@@@std@@QBEABU?$pair@$$CBKPAVKGatewayDataProcess@@@2@XZ 0040a620 f i S3PDBSocketPool.obj
 0001:00009650       ??0?$allocator@UKAccountUserTimeInfo@@@std@@QAE@ABV01@@Z 0040a650 f i S3PDBSocketPool.obj
 0001:00009660       ??E?$_Const_iterator@$00@?$list@UKAccountUserTimeInfo@@V?$allocator@UKAccountUserTimeInfo@@@std@@@std@@QAEAAV012@XZ 0040a660 f i S3PDBSocketPool.obj
 0001:00009690       ??0?$_Bidit@U?$pair@$$CBKPAVKGatewayDataProcess@@@std@@HPBU12@ABU12@@std@@QAE@XZ 0040a690 f i S3PDBSocketPool.obj
 0001:000096a0       ??0const_iterator@?$_Tree@V?$_Tmap_traits@KPAVKGatewayDataProcess@@U?$less@K@std@@V?$allocator@U?$pair@$$CBKPAVKGatewayDataProcess@@@std@@@3@$0A@@std@@@std@@QAE@XZ 0040a6a0 f i S3PDBSocketPool.obj
 0001:000096b0       ?_Inc@const_iterator@?$_Tree@V?$_Tmap_traits@KPAVKGatewayDataProcess@@U?$less@K@std@@V?$allocator@U?$pair@$$CBKPAVKGatewayDataProcess@@@std@@@3@$0A@@std@@@std@@QAEXXZ 0040a6b0 f i S3PDBSocketPool.obj
 0001:00009720       ??0?$pair@Viterator@?$_Tree@V?$_Tmap_traits@KPAVKGatewayDataProcess@@U?$less@K@std@@V?$allocator@U?$pair@$$CBKPAVKGatewayDataProcess@@@std@@@3@$0A@@std@@@std@@_N@std@@QAE@ABViterator@?$_Tree@V?$_Tmap_traits@KPAVKGatewayDataProcess@@U?$less@K@std@@V?$allocator@U?$pair@$$CBKPAVKGatewayDataProcess@@@std@@@3@$0A@@std@@@1@AB_N@Z 0040a720 f i S3PDBSocketPool.obj
 0001:00009740       ?max_size@?$allocator@U?$pair@$$CBKPAVKGatewayDataProcess@@@std@@@std@@QBEIXZ 0040a740 f i S3PDBSocketPool.obj
 0001:00009750       ?_Dec@const_iterator@?$_Tree@V?$_Tmap_traits@KPAVKGatewayDataProcess@@U?$less@K@std@@V?$allocator@U?$pair@$$CBKPAVKGatewayDataProcess@@@std@@@3@$0A@@std@@@std@@QAEXXZ 0040a750 f i S3PDBSocketPool.obj
 0001:000097e0       ??0_Node@?$_Tree_nod@V?$_Tmap_traits@KPAVKGatewayDataProcess@@U?$less@K@std@@V?$allocator@U?$pair@$$CBKPAVKGatewayDataProcess@@@std@@@3@$0A@@std@@@std@@QAE@PAU012@00ABU?$pair@$$CBKPAVKGatewayDataProcess@@@2@D@Z 0040a7e0 f i S3PDBSocketPool.obj
 0001:00009820       ??0?$_Tmap_traits@KPAVKGatewayDataProcess@@U?$less@K@std@@V?$allocator@U?$pair@$$CBKPAVKGatewayDataProcess@@@std@@@3@$0A@@std@@QAE@U?$less@K@1@@Z 0040a820 f i S3PDBSocketPool.obj
 0001:00009830       ??$swap@D@std@@YAXAAD0@Z   0040a830 f i S3PDBSocketPool.obj
 0001:00009850       ??$_Destroy@U_Node@?$_Tree_nod@V?$_Tmap_traits@KPAVKGatewayDataProcess@@U?$less@K@std@@V?$allocator@U?$pair@$$CBKPAVKGatewayDataProcess@@@std@@@3@$0A@@std@@@std@@@std@@YAXPAU_Node@?$_Tree_nod@V?$_Tmap_traits@KPAVKGatewayDataProcess@@U?$less@K@std@@V?$allocator@U?$pair@$$CBKPAVKGatewayDataProcess@@@std@@@3@$0A@@std@@@0@@Z 0040a850 f i S3PDBSocketPool.obj
 0001:00009860       ??$_Destroy@PAU_Node@?$_Tree_nod@V?$_Tmap_traits@KPAVKGatewayDataProcess@@U?$less@K@std@@V?$allocator@U?$pair@$$CBKPAVKGatewayDataProcess@@@std@@@3@$0A@@std@@@std@@@std@@YAXPAPAU_Node@?$_Tree_nod@V?$_Tmap_traits@KPAVKGatewayDataProcess@@U?$less@K@std@@V?$allocator@U?$pair@$$CBKPAVKGatewayDataProcess@@@std@@@3@$0A@@std@@@0@@Z 0040a860 f i S3PDBSocketPool.obj
 0001:00009870       ??$?0UKAccountUserTimeInfo@@@?$allocator@PAU_Node@?$_List_nod@UKAccountUserTimeInfo@@V?$allocator@UKAccountUserTimeInfo@@@std@@@std@@@std@@QAE@ABV?$allocator@UKAccountUserTimeInfo@@@1@@Z 0040a870 f i S3PDBSocketPool.obj
 0001:00009880       ??$?0U?$pair@$$CBKPAVKGatewayDataProcess@@@std@@@?$allocator@PAU_Node@?$_Tree_nod@V?$_Tmap_traits@KPAVKGatewayDataProcess@@U?$less@K@std@@V?$allocator@U?$pair@$$CBKPAVKGatewayDataProcess@@@std@@@3@$0A@@std@@@std@@@std@@QAE@ABV?$allocator@U?$pair@$$CBKPAVKGatewayDataProcess@@@std@@@1@@Z 0040a880 f i S3PDBSocketPool.obj
 0001:00009890       ??$?0UKAccountUserTimeInfo@@@?$allocator@U_Node@?$_List_nod@UKAccountUserTimeInfo@@V?$allocator@UKAccountUserTimeInfo@@@std@@@std@@@std@@QAE@ABV?$allocator@UKAccountUserTimeInfo@@@1@@Z 0040a890 f i S3PDBSocketPool.obj
 0001:000098a0       ??$_Destroy@U_Node@?$_List_nod@UKAccountUserTimeInfo@@V?$allocator@UKAccountUserTimeInfo@@@std@@@std@@@std@@YAXPAU_Node@?$_List_nod@UKAccountUserTimeInfo@@V?$allocator@UKAccountUserTimeInfo@@@std@@@0@@Z 0040a8a0 f i S3PDBSocketPool.obj
 0001:000098b0       ??$?0U?$pair@$$CBKPAVKGatewayDataProcess@@@std@@@?$allocator@U_Node@?$_Tree_nod@V?$_Tmap_traits@KPAVKGatewayDataProcess@@U?$less@K@std@@V?$allocator@U?$pair@$$CBKPAVKGatewayDataProcess@@@std@@@3@$0A@@std@@@std@@@std@@QAE@ABV?$allocator@U?$pair@$$CBKPAVKGatewayDataProcess@@@std@@@1@@Z 0040a8b0 f i S3PDBSocketPool.obj
 0001:000098c0       ??$_Allocate@U_Node@?$_Tree_nod@V?$_Tmap_traits@KPAVKGatewayDataProcess@@U?$less@K@std@@V?$allocator@U?$pair@$$CBKPAVKGatewayDataProcess@@@std@@@3@$0A@@std@@@std@@@std@@YAPAU_Node@?$_Tree_nod@V?$_Tmap_traits@KPAVKGatewayDataProcess@@U?$less@K@std@@V?$allocator@U?$pair@$$CBKPAVKGatewayDataProcess@@@std@@@3@$0A@@std@@@0@IPAU120@@Z 0040a8c0 f i S3PDBSocketPool.obj
 0001:00009920       ??$_Construct@PAU_Node@?$_Tree_nod@V?$_Tmap_traits@KPAVKGatewayDataProcess@@U?$less@K@std@@V?$allocator@U?$pair@$$CBKPAVKGatewayDataProcess@@@std@@@3@$0A@@std@@@std@@PAU123@@std@@YAXPAPAU_Node@?$_Tree_nod@V?$_Tmap_traits@KPAVKGatewayDataProcess@@U?$less@K@std@@V?$allocator@U?$pair@$$CBKPAVKGatewayDataProcess@@@std@@@3@$0A@@std@@@0@ABQAU120@@Z 0040a920 f i S3PDBSocketPool.obj
 0001:00009940       ??_EKThread_CS@@WM@AEPAXI@Z 0040a940 f i S3PDBSocketPool.obj
 0001:00009950       ?Close@KGatewayDataProcess@@IAEXXZ 0040a950 f   S3PDBSocketPool.obj
 0001:000099c0       ?CheckConnectAddress@KGatewayDataProcess@@IAEHXZ 0040a9c0 f   S3PDBSocketPool.obj
 0001:000099f0       ??A?$basic_string@DU?$char_traits@D@std@@V?$allocator@D@2@@std@@QAEAADI@Z 0040a9f0 f i S3PDBSocketPool.obj
 0001:00009a20       ??9const_iterator@?$_Tree@V?$_Tmap_traits@KPAVKGatewayDataProcess@@U?$less@K@std@@V?$allocator@U?$pair@$$CBKPAVKGatewayDataProcess@@@std@@@3@$0A@@std@@@std@@QBE_NABV012@@Z 0040aa20 f i S3PDBSocketPool.obj
 0001:00009a50       ??9?$_Const_iterator@$00@?$list@UKAccountUserTimeInfo@@V?$allocator@UKAccountUserTimeInfo@@@std@@@std@@QBE_NABV012@@Z 0040aa50 f i S3PDBSocketPool.obj
 0001:00009a80       ?_Key@?$_Tree@V?$_Tmap_traits@KPAVKGatewayDataProcess@@U?$less@K@std@@V?$allocator@U?$pair@$$CBKPAVKGatewayDataProcess@@@std@@@3@$0A@@std@@@std@@KAABKPAU_Node@?$_Tree_nod@V?$_Tmap_traits@KPAVKGatewayDataProcess@@U?$less@K@std@@V?$allocator@U?$pair@$$CBKPAVKGatewayDataProcess@@@std@@@3@$0A@@std@@@2@@Z 0040aa80 f i S3PDBSocketPool.obj
 0001:00009a90       ?_Lrotate@?$_Tree@V?$_Tmap_traits@KPAVKGatewayDataProcess@@U?$less@K@std@@V?$allocator@U?$pair@$$CBKPAVKGatewayDataProcess@@@std@@@3@$0A@@std@@@std@@IAEXPAU_Node@?$_Tree_nod@V?$_Tmap_traits@KPAVKGatewayDataProcess@@U?$less@K@std@@V?$allocator@U?$pair@$$CBKPAVKGatewayDataProcess@@@std@@@3@$0A@@std@@@2@@Z 0040aa90 f i S3PDBSocketPool.obj
 0001:00009ae0       ?destroy@?$allocator@U_Node@?$_Tree_nod@V?$_Tmap_traits@KPAVKGatewayDataProcess@@U?$less@K@std@@V?$allocator@U?$pair@$$CBKPAVKGatewayDataProcess@@@std@@@3@$0A@@std@@@std@@@std@@QAEXPAU_Node@?$_Tree_nod@V?$_Tmap_traits@KPAVKGatewayDataProcess@@U?$less@K@std@@V?$allocator@U?$pair@$$CBKPAVKGatewayDataProcess@@@std@@@3@$0A@@std@@@2@@Z 0040aae0 f i S3PDBSocketPool.obj
 0001:00009af0       ??Diterator@?$_Tree@V?$_Tmap_traits@KPAVKGatewayDataProcess@@U?$less@K@std@@V?$allocator@U?$pair@$$CBKPAVKGatewayDataProcess@@@std@@@3@$0A@@std@@@std@@QBEAAU?$pair@$$CBKPAVKGatewayDataProcess@@@2@XZ 0040aaf0 f i S3PDBSocketPool.obj
 0001:00009b20       ??E?$_Iterator@$00@?$list@UKAccountUserTimeInfo@@V?$allocator@UKAccountUserTimeInfo@@@std@@@std@@QAEAAV012@XZ 0040ab20 f i S3PDBSocketPool.obj
 0001:00009b50       ?_Lbound@?$_Tree@V?$_Tmap_traits@KPAVKGatewayDataProcess@@U?$less@K@std@@V?$allocator@U?$pair@$$CBKPAVKGatewayDataProcess@@@std@@@3@$0A@@std@@@std@@IBEPAU_Node@?$_Tree_nod@V?$_Tmap_traits@KPAVKGatewayDataProcess@@U?$less@K@std@@V?$allocator@U?$pair@$$CBKPAVKGatewayDataProcess@@@std@@@3@$0A@@std@@@2@ABK@Z 0040ab50 f i S3PDBSocketPool.obj
 0001:00009b80       ?destroy@?$allocator@PAU_Node@?$_Tree_nod@V?$_Tmap_traits@KPAVKGatewayDataProcess@@U?$less@K@std@@V?$allocator@U?$pair@$$CBKPAVKGatewayDataProcess@@@std@@@3@$0A@@std@@@std@@@std@@QAEXPAPAU_Node@?$_Tree_nod@V?$_Tmap_traits@KPAVKGatewayDataProcess@@U?$less@K@std@@V?$allocator@U?$pair@$$CBKPAVKGatewayDataProcess@@@std@@@3@$0A@@std@@@2@@Z 0040ab80 f i S3PDBSocketPool.obj
 0001:00009b90       ??0iterator@?$_Tree@V?$_Tmap_traits@KPAVKGatewayDataProcess@@U?$less@K@std@@V?$allocator@U?$pair@$$CBKPAVKGatewayDataProcess@@@std@@@3@$0A@@std@@@std@@QAE@XZ 0040ab90 f i S3PDBSocketPool.obj
 0001:00009ba0       ??0const_iterator@?$_Tree@V?$_Tmap_traits@KPAVKGatewayDataProcess@@U?$less@K@std@@V?$allocator@U?$pair@$$CBKPAVKGatewayDataProcess@@@std@@@3@$0A@@std@@@std@@QAE@PAU_Node@?$_Tree_nod@V?$_Tmap_traits@KPAVKGatewayDataProcess@@U?$less@K@std@@V?$allocator@U?$pair@$$CBKPAVKGatewayDataProcess@@@std@@@3@$0A@@std@@@2@PBV12@@Z 0040aba0 f i S3PDBSocketPool.obj
 0001:00009bd0       ??Econst_iterator@?$_Tree@V?$_Tmap_traits@KPAVKGatewayDataProcess@@U?$less@K@std@@V?$allocator@U?$pair@$$CBKPAVKGatewayDataProcess@@@std@@@3@$0A@@std@@@std@@QAEAAV012@XZ 0040abd0 f i S3PDBSocketPool.obj
 0001:00009be0       ??D?$_Const_iterator@$00@?$list@UKAccountUserTimeInfo@@V?$allocator@UKAccountUserTimeInfo@@@std@@@std@@QBEABUKAccountUserTimeInfo@@XZ 0040abe0 f i S3PDBSocketPool.obj
 0001:00009c10       ?max_size@?$_Tree@V?$_Tmap_traits@KPAVKGatewayDataProcess@@U?$less@K@std@@V?$allocator@U?$pair@$$CBKPAVKGatewayDataProcess@@@std@@@3@$0A@@std@@@std@@QBEIXZ 0040ac10 f i S3PDBSocketPool.obj
 0001:00009c20       ??Fconst_iterator@?$_Tree@V?$_Tmap_traits@KPAVKGatewayDataProcess@@U?$less@K@std@@V?$allocator@U?$pair@$$CBKPAVKGatewayDataProcess@@@std@@@3@$0A@@std@@@std@@QAEAAV012@XZ 0040ac20 f i S3PDBSocketPool.obj
 0001:00009c30       ??0?$_List_nod@UKAccountUserTimeInfo@@V?$allocator@UKAccountUserTimeInfo@@@std@@@std@@IAE@V?$allocator@UKAccountUserTimeInfo@@@1@@Z 0040ac30 f i S3PDBSocketPool.obj
 0001:00009c40       ?destroy@?$allocator@U_Node@?$_List_nod@UKAccountUserTimeInfo@@V?$allocator@UKAccountUserTimeInfo@@@std@@@std@@@std@@QAEXPAU_Node@?$_List_nod@UKAccountUserTimeInfo@@V?$allocator@UKAccountUserTimeInfo@@@std@@@2@@Z 0040ac40 f i S3PDBSocketPool.obj
 0001:00009c50       ?_Erase@?$_Tree@V?$_Tmap_traits@KPAVKGatewayDataProcess@@U?$less@K@std@@V?$allocator@U?$pair@$$CBKPAVKGatewayDataProcess@@@std@@@3@$0A@@std@@@std@@IAEXPAU_Node@?$_Tree_nod@V?$_Tmap_traits@KPAVKGatewayDataProcess@@U?$less@K@std@@V?$allocator@U?$pair@$$CBKPAVKGatewayDataProcess@@@std@@@3@$0A@@std@@@2@@Z 0040ac50 f i S3PDBSocketPool.obj
 0001:00009c90       ??0?$_Tree_nod@V?$_Tmap_traits@KPAVKGatewayDataProcess@@U?$less@K@std@@V?$allocator@U?$pair@$$CBKPAVKGatewayDataProcess@@@std@@@3@$0A@@std@@@std@@IAE@ABU?$less@K@1@V?$allocator@U?$pair@$$CBKPAVKGatewayDataProcess@@@std@@@1@@Z 0040ac90 f i S3PDBSocketPool.obj
 0001:00009ca0       ?allocate@?$allocator@U_Node@?$_Tree_nod@V?$_Tmap_traits@KPAVKGatewayDataProcess@@U?$less@K@std@@V?$allocator@U?$pair@$$CBKPAVKGatewayDataProcess@@@std@@@3@$0A@@std@@@std@@@std@@QAEPAU_Node@?$_Tree_nod@V?$_Tmap_traits@KPAVKGatewayDataProcess@@U?$less@K@std@@V?$allocator@U?$pair@$$CBKPAVKGatewayDataProcess@@@std@@@3@$0A@@std@@@2@I@Z 0040aca0 f i S3PDBSocketPool.obj
 0001:00009cc0       ?construct@?$allocator@PAU_Node@?$_Tree_nod@V?$_Tmap_traits@KPAVKGatewayDataProcess@@U?$less@K@std@@V?$allocator@U?$pair@$$CBKPAVKGatewayDataProcess@@@std@@@3@$0A@@std@@@std@@@std@@QAEXPAPAU_Node@?$_Tree_nod@V?$_Tmap_traits@KPAVKGatewayDataProcess@@U?$less@K@std@@V?$allocator@U?$pair@$$CBKPAVKGatewayDataProcess@@@std@@@3@$0A@@std@@@2@ABQAU342@@Z 0040acc0 f i S3PDBSocketPool.obj
 0001:00009ce0       ??Citerator@?$_Tree@V?$_Tmap_traits@KPAVKGatewayDataProcess@@U?$less@K@std@@V?$allocator@U?$pair@$$CBKPAVKGatewayDataProcess@@@std@@@3@$0A@@std@@@std@@QBEPAU?$pair@$$CBKPAVKGatewayDataProcess@@@2@XZ 0040ace0 f i S3PDBSocketPool.obj
 0001:00009d10       ??E?$_Iterator@$00@?$list@UKAccountUserTimeInfo@@V?$allocator@UKAccountUserTimeInfo@@@std@@@std@@QAE?AV012@H@Z 0040ad10 f i S3PDBSocketPool.obj
 0001:00009d50       ??0iterator@?$_Tree@V?$_Tmap_traits@KPAVKGatewayDataProcess@@U?$less@K@std@@V?$allocator@U?$pair@$$CBKPAVKGatewayDataProcess@@@std@@@3@$0A@@std@@@std@@QAE@PAU_Node@?$_Tree_nod@V?$_Tmap_traits@KPAVKGatewayDataProcess@@U?$less@K@std@@V?$allocator@U?$pair@$$CBKPAVKGatewayDataProcess@@@std@@@3@$0A@@std@@@2@PBV12@@Z 0040ad50 f i S3PDBSocketPool.obj
 0001:00009d80       ??Eiterator@?$_Tree@V?$_Tmap_traits@KPAVKGatewayDataProcess@@U?$less@K@std@@V?$allocator@U?$pair@$$CBKPAVKGatewayDataProcess@@@std@@@3@$0A@@std@@@std@@QAEAAV012@XZ 0040ad80 f i S3PDBSocketPool.obj
 0001:00009d90       ?_Buynode@?$list@UKAccountUserTimeInfo@@V?$allocator@UKAccountUserTimeInfo@@@std@@@std@@IAEPAU_Node@?$_List_nod@UKAccountUserTimeInfo@@V?$allocator@UKAccountUserTimeInfo@@@std@@@2@XZ 0040ad90 f i S3PDBSocketPool.obj
 0001:00009db0       ??D?$_Iterator@$00@?$list@UKAccountUserTimeInfo@@V?$allocator@UKAccountUserTimeInfo@@@std@@@std@@QBEAAUKAccountUserTimeInfo@@XZ 0040adb0 f i S3PDBSocketPool.obj
 0001:00009de0       ??Fiterator@?$_Tree@V?$_Tmap_traits@KPAVKGatewayDataProcess@@U?$less@K@std@@V?$allocator@U?$pair@$$CBKPAVKGatewayDataProcess@@@std@@@3@$0A@@std@@@std@@QAEAAV012@XZ 0040ade0 f i S3PDBSocketPool.obj
 0001:00009df0       ?clear@?$list@UKAccountUserTimeInfo@@V?$allocator@UKAccountUserTimeInfo@@@std@@@std@@QAEXXZ 0040adf0 f i S3PDBSocketPool.obj
 0001:00009e30       ??0?$_List_ptr@UKAccountUserTimeInfo@@V?$allocator@UKAccountUserTimeInfo@@@std@@@std@@IAE@V?$allocator@UKAccountUserTimeInfo@@@1@@Z 0040ae30 f i S3PDBSocketPool.obj
 0001:00009e40       ?clear@?$_Tree@V?$_Tmap_traits@KPAVKGatewayDataProcess@@U?$less@K@std@@V?$allocator@U?$pair@$$CBKPAVKGatewayDataProcess@@@std@@@3@$0A@@std@@@std@@QAEXXZ 0040ae40 f i S3PDBSocketPool.obj
 0001:00009e70       ?_Buynode@?$_Tree@V?$_Tmap_traits@KPAVKGatewayDataProcess@@U?$less@K@std@@V?$allocator@U?$pair@$$CBKPAVKGatewayDataProcess@@@std@@@3@$0A@@std@@@std@@IAEPAU_Node@?$_Tree_nod@V?$_Tmap_traits@KPAVKGatewayDataProcess@@U?$less@K@std@@V?$allocator@U?$pair@$$CBKPAVKGatewayDataProcess@@@std@@@3@$0A@@std@@@2@XZ 0040ae70 f i S3PDBSocketPool.obj
 0001:00009eb0       ?_Buynode@?$_Tree@V?$_Tmap_traits@KPAVKGatewayDataProcess@@U?$less@K@std@@V?$allocator@U?$pair@$$CBKPAVKGatewayDataProcess@@@std@@@3@$0A@@std@@@std@@IAEPAU_Node@?$_Tree_nod@V?$_Tmap_traits@KPAVKGatewayDataProcess@@U?$less@K@std@@V?$allocator@U?$pair@$$CBKPAVKGatewayDataProcess@@@std@@@3@$0A@@std@@@2@PAU342@00ABU?$pair@$$CBKPAVKGatewayDataProcess@@@2@D@Z 0040aeb0 f i S3PDBSocketPool.obj
 0001:00009ef0       ??0?$_Tree_ptr@V?$_Tmap_traits@KPAVKGatewayDataProcess@@U?$less@K@std@@V?$allocator@U?$pair@$$CBKPAVKGatewayDataProcess@@@std@@@3@$0A@@std@@@std@@IAE@ABU?$less@K@1@V?$allocator@U?$pair@$$CBKPAVKGatewayDataProcess@@@std@@@1@@Z 0040aef0 f i S3PDBSocketPool.obj
 0001:00009f00       ?begin@?$_Tree@V?$_Tmap_traits@KPAVKGatewayDataProcess@@U?$less@K@std@@V?$allocator@U?$pair@$$CBKPAVKGatewayDataProcess@@@std@@@3@$0A@@std@@@std@@QAE?AViterator@12@XZ 0040af00 f i S3PDBSocketPool.obj
 0001:00009f20       ?end@?$_Tree@V?$_Tmap_traits@KPAVKGatewayDataProcess@@U?$less@K@std@@V?$allocator@U?$pair@$$CBKPAVKGatewayDataProcess@@@std@@@3@$0A@@std@@@std@@QAE?AViterator@12@XZ 0040af20 f i S3PDBSocketPool.obj
 0001:00009f30       ??Eiterator@?$_Tree@V?$_Tmap_traits@KPAVKGatewayDataProcess@@U?$less@K@std@@V?$allocator@U?$pair@$$CBKPAVKGatewayDataProcess@@@std@@@3@$0A@@std@@@std@@QAE?AV012@H@Z 0040af30 f i S3PDBSocketPool.obj
 0001:00009f50       ?begin@?$list@UKAccountUserTimeInfo@@V?$allocator@UKAccountUserTimeInfo@@@std@@@std@@QAE?AV?$_Iterator@$00@12@XZ 0040af50 f i S3PDBSocketPool.obj
 0001:00009f70       ??C?$_Iterator@$00@?$list@UKAccountUserTimeInfo@@V?$allocator@UKAccountUserTimeInfo@@@std@@@std@@QBEPAUKAccountUserTimeInfo@@XZ 0040af70 f i S3PDBSocketPool.obj
 0001:00009fa0       ?lower_bound@?$_Tree@V?$_Tmap_traits@KPAVKGatewayDataProcess@@U?$less@K@std@@V?$allocator@U?$pair@$$CBKPAVKGatewayDataProcess@@@std@@@3@$0A@@std@@@std@@QAE?AViterator@12@ABK@Z 0040afa0 f i S3PDBSocketPool.obj
 0001:00009fe0       ?_Tidy@?$list@UKAccountUserTimeInfo@@V?$allocator@UKAccountUserTimeInfo@@@std@@@std@@IAEXXZ 0040afe0 f i S3PDBSocketPool.obj
 0001:0000a030       ??0?$_List_val@UKAccountUserTimeInfo@@V?$allocator@UKAccountUserTimeInfo@@@std@@@std@@QAE@V?$allocator@UKAccountUserTimeInfo@@@1@@Z 0040b030 f i S3PDBSocketPool.obj
 0001:0000a040       ?_Init@?$_Tree@V?$_Tmap_traits@KPAVKGatewayDataProcess@@U?$less@K@std@@V?$allocator@U?$pair@$$CBKPAVKGatewayDataProcess@@@std@@@3@$0A@@std@@@std@@IAEXXZ 0040b040 f i S3PDBSocketPool.obj
 0001:0000a070       ??0?$_Tree_val@V?$_Tmap_traits@KPAVKGatewayDataProcess@@U?$less@K@std@@V?$allocator@U?$pair@$$CBKPAVKGatewayDataProcess@@@std@@@3@$0A@@std@@@std@@IAE@ABU?$less@K@1@V?$allocator@U?$pair@$$CBKPAVKGatewayDataProcess@@@std@@@1@@Z 0040b070 f i S3PDBSocketPool.obj
 0001:0000a080       ?ShowAllClientInfo@S3PDBSocketPool@@QAEHXZ 0040b080 f   S3PDBSocketPool.obj
 0001:0000a150       ?FindGatewayByServerName@S3PDBSocketPool@@QAEHPBDAAK@Z 0040b150 f   S3PDBSocketPool.obj
 0001:0000a270       ?FindGatewayByID@S3PDBSocketPool@@QAEPAVKGatewayDataProcess@@K@Z 0040b270 f   S3PDBSocketPool.obj
 0001:0000a340       ?FindGatewayClientByAddress@S3PDBSocketPool@@QAEHKAAK@Z 0040b340 f   S3PDBSocketPool.obj
 0001:0000a400       ?BroadGMData@S3PDBSocketPool@@QAEXPBDK@Z 0040b400 f   S3PDBSocketPool.obj
 0001:0000a530       ?StopAllUserClientConnect@S3PDBSocketPool@@QAEHXZ 0040b530 f   S3PDBSocketPool.obj
 0001:0000a590       ?NotifyRelayLoginInfo@S3PDBSocketPool@@QAEXKKKABV?$basic_string@DU?$char_traits@D@std@@V?$allocator@D@2@@std@@@Z 0040b590 f   S3PDBSocketPool.obj
 0001:0000a780       ?NotifyRelayLogoutInfo@S3PDBSocketPool@@QAEXKABV?$basic_string@DU?$char_traits@D@std@@V?$allocator@D@2@@std@@@Z 0040b780 f   S3PDBSocketPool.obj
 0001:0000a880       ??0KGatewayDataProcess@@QAE@KKF@Z 0040b880 f   S3PDBSocketPool.obj
 0001:0000a930       ??_EKGatewayDataProcess@@WM@AEPAXI@Z 0040b930 f i S3PDBSocketPool.obj
 0001:0000a940       ??1KGatewayDataProcess@@UAE@XZ 0040b940 f   S3PDBSocketPool.obj
 0001:0000a980       ?find@?$_Tree@V?$_Tmap_traits@KPAVKGatewayDataProcess@@U?$less@K@std@@V?$allocator@U?$pair@$$CBKPAVKGatewayDataProcess@@@std@@@3@$0A@@std@@@std@@QAE?AViterator@12@ABK@Z 0040b980 f i S3PDBSocketPool.obj
 0001:0000a9f0       ??0?$list@UKAccountUserTimeInfo@@V?$allocator@UKAccountUserTimeInfo@@@std@@@std@@QAE@XZ 0040b9f0 f i S3PDBSocketPool.obj
 0001:0000aa10       ??1?$list@UKAccountUserTimeInfo@@V?$allocator@UKAccountUserTimeInfo@@@std@@@std@@QAE@XZ 0040ba10 f i S3PDBSocketPool.obj
 0001:0000aa20       ??0?$_Tree@V?$_Tmap_traits@KPAVKGatewayDataProcess@@U?$less@K@std@@V?$allocator@U?$pair@$$CBKPAVKGatewayDataProcess@@@std@@@3@$0A@@std@@@std@@QAE@ABU?$less@K@1@ABV?$allocator@U?$pair@$$CBKPAVKGatewayDataProcess@@@std@@@1@@Z 0040ba20 f i S3PDBSocketPool.obj
 0001:0000aa50       ?Stop@S3PDBSocketPool@@UAEHXZ 0040ba50 f   S3PDBSocketPool.obj
 0001:0000aa80       ??_EKGatewayDataProcess@@UAEPAXI@Z 0040ba80 f i S3PDBSocketPool.obj
 0001:0000aa80       ??_GKGatewayDataProcess@@UAEPAXI@Z 0040ba80 f i S3PDBSocketPool.obj
 0001:0000aaa0       ??0out_of_range@std@@QAE@ABV?$basic_string@DU?$char_traits@D@std@@V?$allocator@D@2@@1@@Z 0040baa0 f i S3PDBSocketPool.obj
 0001:0000aac0       ??1out_of_range@std@@UAE@XZ 0040bac0 f i S3PDBSocketPool.obj
 0001:0000ab00       ??_Gout_of_range@std@@UAEPAXI@Z 0040bb00 f i S3PDBSocketPool.obj
 0001:0000ab00       ??_Eout_of_range@std@@UAEPAXI@Z 0040bb00 f i S3PDBSocketPool.obj
 0001:0000ab50       ?erase@?$_Tree@V?$_Tmap_traits@KPAVKGatewayDataProcess@@U?$less@K@std@@V?$allocator@U?$pair@$$CBKPAVKGatewayDataProcess@@@std@@@3@$0A@@std@@@std@@QAE?AViterator@12@V312@@Z 0040bb50 f i S3PDBSocketPool.obj
 0001:0000ae10       ?erase@?$_Tree@V?$_Tmap_traits@KPAVKGatewayDataProcess@@U?$less@K@std@@V?$allocator@U?$pair@$$CBKPAVKGatewayDataProcess@@@std@@@3@$0A@@std@@@std@@QAE?AViterator@12@V312@0@Z 0040be10 f i S3PDBSocketPool.obj
 0001:0000aee0       ?_Insert@?$_Tree@V?$_Tmap_traits@KPAVKGatewayDataProcess@@U?$less@K@std@@V?$allocator@U?$pair@$$CBKPAVKGatewayDataProcess@@@std@@@3@$0A@@std@@@std@@IAE?AViterator@12@_NPAU_Node@?$_Tree_nod@V?$_Tmap_traits@KPAVKGatewayDataProcess@@U?$less@K@std@@V?$allocator@U?$pair@$$CBKPAVKGatewayDataProcess@@@std@@@3@$0A@@std@@@2@ABU?$pair@$$CBKPAVKGatewayDataProcess@@@2@@Z 0040bee0 f i S3PDBSocketPool.obj
 0001:0000b0e0       ??0out_of_range@std@@QAE@ABV01@@Z 0040c0e0 f i S3PDBSocketPool.obj
 0001:0000b100       ?RemoveUserClientID@S3PDBSocketPool@@QAEHK@Z 0040c100 f   S3PDBSocketPool.obj
 0001:0000b270       ?_Tidy@?$_Tree@V?$_Tmap_traits@KPAVKGatewayDataProcess@@U?$less@K@std@@V?$allocator@U?$pair@$$CBKPAVKGatewayDataProcess@@@std@@@3@$0A@@std@@@std@@IAEXXZ 0040c270 f i S3PDBSocketPool.obj
 0001:0000b2b0       ?insert@?$_Tree@V?$_Tmap_traits@KPAVKGatewayDataProcess@@U?$less@K@std@@V?$allocator@U?$pair@$$CBKPAVKGatewayDataProcess@@@std@@@3@$0A@@std@@@std@@QAE?AU?$pair@Viterator@?$_Tree@V?$_Tmap_traits@KPAVKGatewayDataProcess@@U?$less@K@std@@V?$allocator@U?$pair@$$CBKPAVKGatewayDataProcess@@@std@@@3@$0A@@std@@@std@@_N@2@ABU?$pair@$$CBKPAVKGatewayDataProcess@@@2@@Z 0040c2b0 f i S3PDBSocketPool.obj
 0001:0000b370       ??1?$_Tree@V?$_Tmap_traits@KPAVKGatewayDataProcess@@U?$less@K@std@@V?$allocator@U?$pair@$$CBKPAVKGatewayDataProcess@@@std@@@3@$0A@@std@@@std@@QAE@XZ 0040c370 f i S3PDBSocketPool.obj
 0001:0000b3b0       ?insert@?$_Tree@V?$_Tmap_traits@KPAVKGatewayDataProcess@@U?$less@K@std@@V?$allocator@U?$pair@$$CBKPAVKGatewayDataProcess@@@std@@@3@$0A@@std@@@std@@QAE?AViterator@12@V312@ABU?$pair@$$CBKPAVKGatewayDataProcess@@@2@@Z 0040c3b0 f i S3PDBSocketPool.obj
 0001:0000b570       ??1?$map@KPAVKGatewayDataProcess@@U?$less@K@std@@V?$allocator@U?$pair@$$CBKPAVKGatewayDataProcess@@@std@@@3@@std@@QAE@XZ 0040c570 f i S3PDBSocketPool.obj
 0001:0000b5b0       ??1S3PDBSocketPool@@UAE@XZ 0040c5b0 f   S3PDBSocketPool.obj
 0001:0000b640       ??0?$map@KPAVKGatewayDataProcess@@U?$less@K@std@@V?$allocator@U?$pair@$$CBKPAVKGatewayDataProcess@@@std@@@3@@std@@QAE@XZ 0040c640 f i S3PDBSocketPool.obj
 0001:0000b670       ??A?$map@KPAVKGatewayDataProcess@@U?$less@K@std@@V?$allocator@U?$pair@$$CBKPAVKGatewayDataProcess@@@std@@@3@@std@@QAEAAPAVKGatewayDataProcess@@ABK@Z 0040c670 f i S3PDBSocketPool.obj
 0001:0000b6f0       ??0S3PDBSocketPool@@IAE@XZ 0040c6f0 f   S3PDBSocketPool.obj
 0001:0000b770       ??_GS3PDBSocketPool@@UAEPAXI@Z 0040c770 f i S3PDBSocketPool.obj
 0001:0000b770       ??_ES3PDBSocketPool@@UAEPAXI@Z 0040c770 f i S3PDBSocketPool.obj
 0001:0000b790       ?Instance@S3PDBSocketPool@@SAPAV1@XZ 0040c790 f   S3PDBSocketPool.obj
 0001:0000b820       ?AddUserClientID@S3PDBSocketPool@@QAEHK@Z 0040c820 f   S3PDBSocketPool.obj
 0001:0000b990       ?ProRelayVerify@KGatewayDataProcess@@IAEHPAVS3PDBConVBC@@PBDK@Z 0040c990 f   S3PDBSocketPool.obj
 0001:0000bbb0       ?ProRelayInfo@KGatewayDataProcess@@IAEHPAVS3PDBConVBC@@PBDK@Z 0040cbb0 f   S3PDBSocketPool.obj
 0001:0000bdb0       ?ProAccountLogout@KGatewayDataProcess@@IAEHPAVS3PDBConVBC@@PBDK@Z 0040cdb0 f   S3PDBSocketPool.obj
 0001:0000bed0       ?ProRelayIPData@KGatewayDataProcess@@IAEHPBDK@Z 0040ced0 f   S3PDBSocketPool.obj
 0001:0000bfa0       ?ProRelayAskData@KGatewayDataProcess@@IAEHPAVS3PDBConVBC@@PBDK@Z 0040cfa0 f   S3PDBSocketPool.obj
 0001:0000c110       ?ExecuteAction@KGatewayDataProcess@@IAEXPAD0@Z 0040d110 f   S3PDBSocketPool.obj
 0001:0000c1b0       ?ExecuteAction@KGatewayDataProcess@@IAEXPAD@Z 0040d1b0 f   S3PDBSocketPool.obj
 0001:0000c250       ?SendSystemInfo@KGatewayDataProcess@@IAEXKPAD00H@Z 0040d250 f   S3PDBSocketPool.obj
 0001:0000c2f0       ?ProGameLogin@KGatewayDataProcess@@IAEHPAVS3PDBConVBC@@PBDK@Z 0040d2f0 f   S3PDBSocketPool.obj
 0001:0000c450       ?ProAutoTime@KGatewayDataProcess@@IAEHPAVS3PDBConVBC@@@Z 0040d450 f   S3PDBSocketPool.obj
 0001:0000c600       ?AutoTime@KGatewayDataProcess@@IAEXXZ 0040d600 f   S3PDBSocketPool.obj
 0001:0000c660       ?ProcessData@KGatewayDataProcess@@IAEKPAVS3PDBConVBC@@PBXK@Z 0040d660 f   S3PDBSocketPool.obj
 0001:0000c840       ?ProcessClientData@KGatewayDataProcess@@IAEXPBXK@Z 0040d840 f   S3PDBSocketPool.obj
 0001:0000c930       ?Main@KGatewayDataProcess@@MAEKPAX@Z 0040d930 f   S3PDBSocketPool.obj
 0001:0000ca30       ??0S3PResultVBC@@IAE@XZ    0040da30 f   S3PResultVBC.obj
 0001:0000ca40       ??1S3PResultVBC@@MAE@XZ    0040da40 f   S3PResultVBC.obj
 0001:0000ca50       ??_GS3PResultVBC@@MAEPAXI@Z 0040da50 f i S3PResultVBC.obj
 0001:0000ca50       ??_ES3PResultVBC@@MAEPAXI@Z 0040da50 f i S3PResultVBC.obj
 0001:0000ca6e       _WSACleanup@0              0040da6e f   Ws2_32:WS2_32.dll
 0001:0000ca74       _closesocket@4             0040da74 f   Ws2_32:WS2_32.dll
 0001:0000ca7a       _bind@12                   0040da7a f   Ws2_32:WS2_32.dll
 0001:0000ca80       _htonl@4                   0040da80 f   Ws2_32:WS2_32.dll
 0001:0000ca86       _htons@4                   0040da86 f   Ws2_32:WS2_32.dll
 0001:0000ca8c       _socket@12                 0040da8c f   Ws2_32:WS2_32.dll
 0001:0000ca92       _WSAStartup@8              0040da92 f   Ws2_32:WS2_32.dll
 0001:0000ca98       _inet_ntoa@4               0040da98 f   Ws2_32:WS2_32.dll
 0001:0000ca9e       _inet_addr@4               0040da9e f   Ws2_32:WS2_32.dll
 0001:0000caa4       _WaitForSingleObject@8     0040daa4 f   kernel32:KERNEL32.dll
 0001:0000caaa       _CloseHandle@4             0040daaa f   kernel32:KERNEL32.dll
 0001:0000cab0       _TerminateThread@8         0040dab0 f   kernel32:KERNEL32.dll
 0001:0000cab6       _CreateEventA@16           0040dab6 f   kernel32:KERNEL32.dll
 0001:0000cabc       _SetEvent@4                0040dabc f   kernel32:KERNEL32.dll
 0001:0000cac2       _ResetEvent@4              0040dac2 f   kernel32:KERNEL32.dll
 0001:0000cac8       _GetModuleFileNameA@12     0040dac8 f   kernel32:KERNEL32.dll
 0001:0000cace       _CreateMutexA@12           0040dace f   kernel32:KERNEL32.dll
 0001:0000cad4       _ReleaseMutex@4            0040dad4 f   kernel32:KERNEL32.dll
 0001:0000cada       _InitializeCriticalSection@4 0040dada f   kernel32:KERNEL32.dll
 0001:0000cae0       _EnterCriticalSection@4    0040dae0 f   kernel32:KERNEL32.dll
 0001:0000cae6       _LeaveCriticalSection@4    0040dae6 f   kernel32:KERNEL32.dll
 0001:0000caec       _DeleteCriticalSection@4   0040daec f   kernel32:KERNEL32.dll
 0001:0000caf2       _GetFileAttributesA@4      0040daf2 f   kernel32:KERNEL32.dll
 0001:0000caf8       _CreateDirectoryA@8        0040daf8 f   kernel32:KERNEL32.dll
 0001:0000cafe       _CreateFileA@28            0040dafe f   kernel32:KERNEL32.dll
 0001:0000cb04       _GetLocalTime@4            0040db04 f   kernel32:KERNEL32.dll
 0001:0000cb0a       _GetFileSize@8             0040db0a f   kernel32:KERNEL32.dll
 0001:0000cb10       _WriteFile@20              0040db10 f   kernel32:KERNEL32.dll
 0001:0000cb16       _FreeLibrary@4             0040db16 f   kernel32:KERNEL32.dll
 0001:0000cb1c       _GetProcAddress@8          0040db1c f   kernel32:KERNEL32.dll
 0001:0000cb22       _LoadLibraryA@4            0040db22 f   kernel32:KERNEL32.dll
 0001:0000cb28       _HeapFree@12               0040db28 f   kernel32:KERNEL32.dll
 0001:0000cb2e       _GetProcessHeap@0          0040db2e f   kernel32:KERNEL32.dll
 0001:0000cb34       _GetLastError@0            0040db34 f   kernel32:KERNEL32.dll
 0001:0000cb3a       _MultiByteToWideChar@24    0040db3a f   kernel32:KERNEL32.dll
 0001:0000cb40       _lstrlenA@4                0040db40 f   kernel32:KERNEL32.dll
 0001:0000cb46       _InterlockedDecrement@4    0040db46 f   kernel32:KERNEL32.dll
 0001:0000cb4c       _HeapAlloc@12              0040db4c f   kernel32:KERNEL32.dll
 0001:0000cb52       _FormatMessageA@28         0040db52 f   kernel32:KERNEL32.dll
 0001:0000cb58       _Sleep@4                   0040db58 f   kernel32:KERNEL32.dll
 0001:0000cb5e       _GetTickCount@0            0040db5e f   kernel32:KERNEL32.dll
 0001:0000cb64       _SendMessageA@16           0040db64 f   user32:USER32.dll
 0001:0000cb6a       _SetTimer@16               0040db6a f   user32:USER32.dll
 0001:0000cb70       _UpdateWindow@4            0040db70 f   user32:USER32.dll
 0001:0000cb76       _ShowWindow@8              0040db76 f   user32:USER32.dll
 0001:0000cb7c       _GetClientRect@8           0040db7c f   user32:USER32.dll
 0001:0000cb82       _CreateWindowExA@48        0040db82 f   user32:USER32.dll
 0001:0000cb88       _EndDialog@8               0040db88 f   user32:USER32.dll
 0001:0000cb8e       _DefWindowProcA@16         0040db8e f   user32:USER32.dll
 0001:0000cb94       _DialogBoxParamA@20        0040db94 f   user32:USER32.dll
 0001:0000cb9a       _DestroyWindow@4           0040db9a f   user32:USER32.dll
 0001:0000cba0       _MessageBoxA@16            0040dba0 f   user32:USER32.dll
 0001:0000cba6       _PostQuitMessage@4         0040dba6 f   user32:USER32.dll
 0001:0000cbac       _KillTimer@8               0040dbac f   user32:USER32.dll
 0001:0000cbb2       _MoveWindow@24             0040dbb2 f   user32:USER32.dll
 0001:0000cbb8       _EndPaint@8                0040dbb8 f   user32:USER32.dll
 0001:0000cbbe       _BeginPaint@8              0040dbbe f   user32:USER32.dll
 0001:0000cbc4       _RegisterClassExA@4        0040dbc4 f   user32:USER32.dll
 0001:0000cbca       _LoadCursorA@8             0040dbca f   user32:USER32.dll
 0001:0000cbd0       _LoadIconA@8               0040dbd0 f   user32:USER32.dll
 0001:0000cbd6       _DispatchMessageA@4        0040dbd6 f   user32:USER32.dll
 0001:0000cbdc       _TranslateMessage@4        0040dbdc f   user32:USER32.dll
 0001:0000cbe2       _GetMessageA@16            0040dbe2 f   user32:USER32.dll
 0001:0000cbe8       _LoadStringA@16            0040dbe8 f   user32:USER32.dll
 0001:0000cbee       _OleRun@4                  0040dbee f   ole32:ole32.dll
 0001:0000cbf4       _CoCreateInstance@20       0040dbf4 f   ole32:ole32.dll
 0001:0000cbfa       _CLSIDFromProgID@8         0040dbfa f   ole32:ole32.dll
 0001:0000cc00       _CLSIDFromString@8         0040dc00 f   ole32:ole32.dll
 0001:0000cc06       _CoUninitialize@0          0040dc06 f   ole32:ole32.dll
 0001:0000cc0c       _CoInitializeEx@8          0040dc0c f   ole32:ole32.dll
 0001:0000cc12       _VariantInit@4             0040dc12 f   oleaut32:OLEAUT32.dll
 0001:0000cc18       _VariantClear@4            0040dc18 f   oleaut32:OLEAUT32.dll
 0001:0000cc1e       _SysAllocString@4          0040dc1e f   oleaut32:OLEAUT32.dll
 0001:0000cc24       _SysAllocStringByteLen@8   0040dc24 f   oleaut32:OLEAUT32.dll
 0001:0000cc2a       _SysStringByteLen@4        0040dc2a f   oleaut32:OLEAUT32.dll
 0001:0000cc30       _SysFreeString@4           0040dc30 f   oleaut32:OLEAUT32.dll
 0001:0000cc36       _VariantChangeType@16      0040dc36 f   oleaut32:OLEAUT32.dll
 0001:0000cc3c       ??0_LocaleUpdate@@QAE@PAUlocaleinfo_struct@@@Z 0040dc3c f i LIBCMT:mbsnbcmp.obj
 0001:0000ccbe       ??1_LocaleUpdate@@QAE@XZ   0040dcbe f i LIBCMT:mbsnbcmp.obj
 0001:0000cccc       ?GetLocaleT@_LocaleUpdate@@QAEPAUlocaleinfo_struct@@XZ 0040dccc f i LIBCMT:mbsnbcmp.obj
 0001:0000cccf       __mbsnbcmp_l               0040dccf f   LIBCMT:mbsnbcmp.obj
 0001:0000ce38       __mbsnbcmp                 0040de38 f   LIBCMT:mbsnbcmp.obj
 0001:0000ce4f       ??3@YAXPAX@Z               0040de4f f   LIBCMT:delete.obj
 0001:0000ce54       ??0bad_alloc@std@@QAE@XZ   0040de54 f i LIBCMT:new.obj
 0001:0000ce6d       ??2@YAPAXI@Z               0040de6d f   LIBCMT:new.obj
 0001:0000ced7       __fwrite_nolock            0040ded7 f   LIBCMT:fwrite.obj
 0001:0000d036       _fwrite                    0040e036 f   LIBCMT:fwrite.obj
 0001:0000d0b8       __fclose_nolock            0040e0b8 f   LIBCMT:fclose.obj
 0001:0000d12a       _fclose                    0040e12a f   LIBCMT:fclose.obj
 0001:0000d1a6       __fread_nolock_s           0040e1a6 f   LIBCMT:fread.obj
 0001:0000d3ac       __fread_nolock             0040e3ac f   LIBCMT:fread.obj
 0001:0000d3c7       _fread_s                   0040e3c7 f   LIBCMT:fread.obj
 0001:0000d45d       _fread                     0040e45d f   LIBCMT:fread.obj
 0001:0000d478       __ftell_nolock             0040e478 f   LIBCMT:ftell.obj
 0001:0000d610       _ftell                     0040e610 f   LIBCMT:ftell.obj
 0001:0000d67e       __fseek_nolock             0040e67e f   LIBCMT:fseek.obj
 0001:0000d705       _fseek                     0040e705 f   LIBCMT:fseek.obj
 0001:0000d78a       __fsopen                   0040e78a f   LIBCMT:fopen.obj
 0001:0000d84e       _fopen                     0040e84e f   LIBCMT:fopen.obj
 0001:0000d861       _fopen_s                   0040e861 f   LIBCMT:fopen.obj
 0001:0000d8b1       ?_JumpToContinuation@@YGXPAXPAUEHRegistrationNode@@@Z 0040e8b1 f   LIBCMT:trnsctrl.obj
 0001:0000d8e1       ?_CallMemberFunction0@@YGXPAX0@Z 0040e8e1 f   LIBCMT:trnsctrl.obj
 0001:0000d8e8       ?_CallMemberFunction1@@YGXPAX00@Z 0040e8e8 f   LIBCMT:trnsctrl.obj
 0001:0000d8ef       ?_CallMemberFunction2@@YGXPAX00H@Z 0040e8ef f   LIBCMT:trnsctrl.obj
 0001:0000d8f6       ?_UnwindNestedFrames@@YGXPAUEHRegistrationNode@@PAUEHExceptionRecord@@@Z 0040e8f6 f   LIBCMT:trnsctrl.obj
 0001:0000d948       ___CxxFrameHandler         0040e948 f   LIBCMT:trnsctrl.obj
 0001:0000d97e       ___CxxFrameHandler3        0040e97e f   LIBCMT:trnsctrl.obj
 0001:0000d9b4       ___CxxFrameHandler2        0040e9b4 f   LIBCMT:trnsctrl.obj
 0001:0000d9ea       ___CxxLongjmpUnwind@4      0040e9ea f   LIBCMT:trnsctrl.obj
 0001:0000da34       ?_CallSETranslator@@YAHPAUEHExceptionRecord@@PAUEHRegistrationNode@@PAX2PBU_s_FuncInfo@@H1@Z 0040ea34 f   LIBCMT:trnsctrl.obj
 0001:0000dba6       ?_GetRangeOfTrysToCheck@@YAPBU_s_TryBlockMapEntry@@PBU_s_FuncInfo@@HHPAI1@Z 0040eba6 f   LIBCMT:trnsctrl.obj
 0001:0000dc19       __CreateFrameInfo          0040ec19 f   LIBCMT:trnsctrl.obj
 0001:0000dc41       __IsExceptionObjectToBeDestroyed 0040ec41 f   LIBCMT:trnsctrl.obj
 0001:0000dc62       __FindAndUnlinkFrame       0040ec62 f   LIBCMT:trnsctrl.obj
 0001:0000dcae       ?_CallCatchBlock2@@YAPAXPAUEHRegistrationNode@@PBU_s_FuncInfo@@PAXHK@Z 0040ecae f   LIBCMT:trnsctrl.obj
 0001:0000dd0c       @__security_check_cookie@4 0040ed0c f   LIBCMT:secchk.obj
 0001:0000dd20       _memcpy                    0040ed20 f   LIBCMT:memcpy.obj
 0001:0000e085       __endthreadex              0040f085 f   LIBCMT:threadex.obj
 0001:0000e17f       __beginthreadex            0040f17f f   LIBCMT:threadex.obj
 0001:0000e230       _memset                    0040f230 f   LIBCMT:memset.obj
 0001:0000e2aa       _vfprintf_helper           0040f2aa f   LIBCMT:vfprintf.obj
 0001:0000e3f8       __vfprintf_l               0040f3f8 f   LIBCMT:vfprintf.obj
 0001:0000e416       __vfprintf_s_l             0040f416 f   LIBCMT:vfprintf.obj
 0001:0000e434       __vfprintf_p_l             0040f434 f   LIBCMT:vfprintf.obj
 0001:0000e452       _vfprintf                  0040f452 f   LIBCMT:vfprintf.obj
 0001:0000e46e       _vfprintf_s                0040f46e f   LIBCMT:vfprintf.obj
 0001:0000e48a       __vfprintf_p               0040f48a f   LIBCMT:vfprintf.obj
 0001:0000e4a6       ?name@type_info@@QBEPBDPAU__type_info_node@@@Z 0040f4a6 f   LIBCMT:typinfo.obj
 0001:0000e4b5       ??1type_info@@UAE@XZ       0040f4b5 f   LIBCMT:typinfo.obj
 0001:0000e4c3       ??_Gtype_info@@UAEPAXI@Z   0040f4c3 f i LIBCMT:typinfo.obj
 0001:0000e4c3       ??_Etype_info@@UAEPAXI@Z   0040f4c3 f i LIBCMT:typinfo.obj
 0001:0000e4df       ?_name_internal_method@type_info@@QBEPBDPAU__type_info_node@@@Z 0040f4df f   LIBCMT:typinfo.obj
 0001:0000e4ee       ?_type_info_dtor_internal_method@type_info@@QAEXXZ 0040f4ee f   LIBCMT:typinfo.obj
 0001:0000e4f6       ??8type_info@@QBE_NABV0@@Z 0040f4f6 f   LIBCMT:typinfo.obj
 0001:0000e511       ??9type_info@@QBE_NABV0@@Z 0040f511 f   LIBCMT:typinfo.obj
 0001:0000e52d       ?before@type_info@@QBEHABV1@@Z 0040f52d f   LIBCMT:typinfo.obj
 0001:0000e54c       ?raw_name@type_info@@QBEPBDXZ 0040f54c f   LIBCMT:typinfo.obj
 0001:0000e550       ??0type_info@@AAE@ABV0@@Z  0040f550 f   LIBCMT:typinfo.obj
 0001:0000e55b       ??4type_info@@AAEAAV0@ABV0@@Z 0040f55b f   LIBCMT:typinfo.obj
 0001:0000e560       __purecall                 0040f560 f   LIBCMT:purevirt.obj
 0001:0000e58a       __set_purecall_handler     0040f58a f   LIBCMT:purevirt.obj
 0001:0000e5ac       __get_purecall_handler     0040f5ac f   LIBCMT:purevirt.obj
 0001:0000e5b9       ??0exception@std@@QAE@XZ   0040f5b9 f   LIBCMT:stdexcpt.obj
 0001:0000e5ca       ??0exception@std@@QAE@ABQBD@Z 0040f5ca f   LIBCMT:stdexcpt.obj
 0001:0000e618       ??0exception@std@@QAE@ABQBDH@Z 0040f618 f   LIBCMT:stdexcpt.obj
 0001:0000e630       ??0exception@std@@QAE@ABV01@@Z 0040f630 f   LIBCMT:stdexcpt.obj
 0001:0000e688       ??4exception@std@@QAEAAV01@ABV01@@Z 0040f688 f   LIBCMT:stdexcpt.obj
 0001:0000e6de       ??1exception@std@@UAE@XZ   0040f6de f   LIBCMT:stdexcpt.obj
 0001:0000e6f4       ?what@exception@std@@UBEPBDXZ 0040f6f4 f   LIBCMT:stdexcpt.obj
 0001:0000e701       ??0bad_cast@std@@QAE@PBD@Z 0040f701 f   LIBCMT:stdexcpt.obj
 0001:0000e71a       ??0bad_cast@std@@QAE@ABV01@@Z 0040f71a f   LIBCMT:stdexcpt.obj
 0001:0000e732       ??1bad_cast@std@@UAE@XZ    0040f732 f   LIBCMT:stdexcpt.obj
 0001:0000e73d       ??0bad_typeid@std@@QAE@PBD@Z 0040f73d f   LIBCMT:stdexcpt.obj
 0001:0000e756       ??0bad_typeid@std@@QAE@ABV01@@Z 0040f756 f   LIBCMT:stdexcpt.obj
 0001:0000e76e       ??1bad_typeid@std@@UAE@XZ  0040f76e f   LIBCMT:stdexcpt.obj
 0001:0000e779       ??0__non_rtti_object@std@@QAE@PBD@Z 0040f779 f   LIBCMT:stdexcpt.obj
 0001:0000e791       ??0__non_rtti_object@std@@QAE@ABV01@@Z 0040f791 f   LIBCMT:stdexcpt.obj
 0001:0000e7a9       ??1__non_rtti_object@std@@UAE@XZ 0040f7a9 f   LIBCMT:stdexcpt.obj
 0001:0000e7b4       ??_Gexception@std@@UAEPAXI@Z 0040f7b4 f i LIBCMT:stdexcpt.obj
 0001:0000e7b4       ??_Eexception@std@@UAEPAXI@Z 0040f7b4 f i LIBCMT:stdexcpt.obj
 0001:0000e7d0       ??_Ebad_cast@std@@UAEPAXI@Z 0040f7d0 f i LIBCMT:stdexcpt.obj
 0001:0000e7d0       ??_Gbad_cast@std@@UAEPAXI@Z 0040f7d0 f i LIBCMT:stdexcpt.obj
 0001:0000e7f2       ??_Ebad_typeid@std@@UAEPAXI@Z 0040f7f2 f i LIBCMT:stdexcpt.obj
 0001:0000e7f2       ??_Gbad_typeid@std@@UAEPAXI@Z 0040f7f2 f i LIBCMT:stdexcpt.obj
 0001:0000e814       ??_E__non_rtti_object@std@@UAEPAXI@Z 0040f814 f i LIBCMT:stdexcpt.obj
 0001:0000e814       ??_G__non_rtti_object@std@@UAEPAXI@Z 0040f814 f i LIBCMT:stdexcpt.obj
 0001:0000e836       _memcpy_s                  0040f836 f   LIBCMT:memcpy_s.obj
 0001:0000e8b1       _memmove_s                 0040f8b1 f   LIBCMT:memmove_s.obj
 0001:0000e90c       __initp_misc_invarg        0040f90c f   LIBCMT:invarg.obj
 0001:0000e916       __invoke_watson            0040f916 f   LIBCMT:invarg.obj
 0001:0000ea12       __set_invalid_parameter_handler 0040fa12 f   LIBCMT:invarg.obj
 0001:0000ea34       __get_invalid_parameter_handler 0040fa34 f   LIBCMT:invarg.obj
 0001:0000ea41       ?_invoke_watson@@YAXPBG00II@Z 0040fa41 f   LIBCMT:invarg.obj
 0001:0000ea4a       __invalid_parameter        0040fa4a f   LIBCMT:invarg.obj
 0001:0000ea6e       __invalid_parameter_noinfo 0040fa6e f   LIBCMT:invarg.obj
 0001:0000ea7e       ?_invalid_parameter@@YAXPBG00II@Z 0040fa7e f   LIBCMT:invarg.obj
 0001:0000ea87       __CxxThrowException@8      0040fa87 f   LIBCMT:throw.obj
 0001:0000ead1       _sprintf                   0040fad1 f   LIBCMT:sprintf.obj
 0001:0000eb4c       __sprintf_l                0040fb4c f   LIBCMT:sprintf.obj
 0001:0000eb66       _sprintf_s                 0040fb66 f   LIBCMT:sprintf.obj
 0001:0000eb82       __sprintf_s_l              0040fb82 f   LIBCMT:sprintf.obj
 0001:0000eb9f       __snprintf_s               0040fb9f f   LIBCMT:sprintf.obj
 0001:0000ebbe       __snprintf_s_l             0040fbbe f   LIBCMT:sprintf.obj
 0001:0000ebde       __sprintf_p                0040fbde f   LIBCMT:sprintf.obj
 0001:0000ebfa       __sprintf_p_l              0040fbfa f   LIBCMT:sprintf.obj
 0001:0000ec17       __scprintf                 0040fc17 f   LIBCMT:sprintf.obj
 0001:0000ec28       __scprintf_p               0040fc28 f   LIBCMT:sprintf.obj
 0001:0000ec39       __scprintf_l               0040fc39 f   LIBCMT:sprintf.obj
 0001:0000ec4f       __scprintf_p_l             0040fc4f f   LIBCMT:sprintf.obj
 0001:0000ec65       __invoke_watson_if_error   0040fc65 f i LIBCMT:loctim64.obj
 0001:0000ec87       __localtime64_s            0040fc87 f   LIBCMT:loctim64.obj
 0001:0000ef4c       __localtime64              0040ff4c f   LIBCMT:loctim64.obj
 0001:0000ef70       __time64                   0040ff70 f   LIBCMT:time64.obj
 0001:0000efac       __vsprintf_l               0040ffac f   LIBCMT:vsprintf.obj
 0001:0000f028       _vsprintf                  00410028 f   LIBCMT:vsprintf.obj
 0001:0000f03f       __vscprintf_helper         0041003f f   LIBCMT:vsprintf.obj
 0001:0000f094       __vscprintf                00410094 f   LIBCMT:vsprintf.obj
 0001:0000f0ac       __vscprintf_l              004100ac f   LIBCMT:vsprintf.obj
 0001:0000f0c6       __vscprintf_p              004100c6 f   LIBCMT:vsprintf.obj
 0001:0000f0de       __vscprintf_p_l            004100de f   LIBCMT:vsprintf.obj
 0001:0000f0f8       _atol                      004100f8 f   LIBCMT:atox.obj
 0001:0000f109       __atol_l                   00410109 f   LIBCMT:atox.obj
 0001:0000f11e       _atoi                      0041011e f   LIBCMT:atox.obj
 0001:0000f123       __atoi_l                   00410123 f   LIBCMT:atox.obj
 0001:0000f128       __atoi64                   00410128 f   LIBCMT:atox.obj
 0001:0000f139       __atoi64_l                 00410139 f   LIBCMT:atox.obj
 0001:0000f207       ___onexitinit              00410207 f   LIBCMT:onexit.obj
 0001:0000f236       __onexit                   00410236 f   LIBCMT:onexit.obj
 0001:0000f272       _atexit                    00410272 f   LIBCMT:onexit.obj
 0001:0000f284       _free                      00410284 f   LIBCMT:free.obj
 0001:0000f312       _V6_HeapAlloc              00410312 f   LIBCMT:malloc.obj
 0001:0000f361       __heap_alloc               00410361 f i LIBCMT:malloc.obj
 0001:0000f3d6       _malloc                    004103d6 f   LIBCMT:malloc.obj
 0001:0000f4a0       __alloca_probe_16          004104a0 f   LIBCMT:alloca16.obj
 0001:0000f4b6       __alloca_probe_8           004104b6     LIBCMT:alloca16.obj
 0001:0000f4cc       ??_V@YAXPAX@Z              004104cc f   LIBCMT:delete2.obj
 0001:0000f4e0       _strncpy                   004104e0 f   LIBCMT:strncpy.obj
 0001:0000f604       __set_osplatform           00410604 f i LIBCMT:wincrt0.obj
 0001:0000f60e       __set_osver                0041060e f i LIBCMT:wincrt0.obj
 0001:0000f618       __set_winver               00410618 f i LIBCMT:wincrt0.obj
 0001:0000f622       __set_winmajor             00410622 f i LIBCMT:wincrt0.obj
 0001:0000f62c       __set_winminor             0041062c f i LIBCMT:wincrt0.obj
 0001:0000f87b       _WinMainCRTStartup         0041087b f   LIBCMT:wincrt0.obj
 0001:0000fa93       ___updatetmbcinfo          00410a93 f   LIBCMT:mbctype.obj
 0001:0000fbb1       __setmbcp_nolock           00410bb1 f   LIBCMT:mbctype.obj
 0001:0000fd8a       __getmbcp                  00410d8a f   LIBCMT:mbctype.obj
 0001:0000fdc6       __setmbcp                  00410dc6 f   LIBCMT:mbctype.obj
 0001:0000ff60       ___initmbctable            00410f60 f   LIBCMT:mbctype.obj
 0001:0000ff7e       ____setlc_active_func      00410f7e f   LIBCMT:setlocal.obj
 0001:0000ff84       ____unguarded_readlc_active_add_func 00410f84 f   LIBCMT:setlocal.obj
 0001:0000ff8a       ___freetlocinfo            00410f8a f   LIBCMT:setlocal.obj
 0001:000100ca       ___addlocaleref            004110ca f   LIBCMT:setlocal.obj
 0001:00010150       ___removelocaleref         00411150 f   LIBCMT:setlocal.obj
 0001:0001023e       ___updatetlocinfo          0041123e f   LIBCMT:setlocal.obj
 0001:000102b4       __configthreadlocale       004112b4 f   LIBCMT:setlocal.obj
 0001:0001036d       __free_locale              0041136d f   LIBCMT:setlocal.obj
 0001:00010403       ___free_locale             00411403 f   LIBCMT:setlocal.obj
 0001:00010408       __get_current_locale       00411408 f   LIBCMT:setlocal.obj
 0001:00010490       ___get_current_locale      00411490 f   LIBCMT:setlocal.obj
 0001:00010495       ___init_dummy              00411495 f   LIBCMT:setlocal.obj
 0001:00010498       __strcats                  00411498 f   LIBCMT:setlocal.obj
 0001:000104d6       ___lc_strtolc              004114d6 f   LIBCMT:setlocal.obj
 0001:000105ff       ___lc_lctostr              004115ff f   LIBCMT:setlocal.obj
 0001:000107db       __expandlocale             004117db f   LIBCMT:setlocal.obj
 0001:00010e73       __create_locale            00411e73 f   LIBCMT:setlocal.obj
 0001:00010f66       ___create_locale           00411f66 f   LIBCMT:setlocal.obj
 0001:00010f6b       _setlocale                 00411f6b f   LIBCMT:setlocal.obj
 0001:00011147       __encode_pointer           00412147 f   LIBCMT:tidtable.obj
 0001:000111b5       __encoded_null             004121b5 f   LIBCMT:tidtable.obj
 0001:000111be       __decode_pointer           004121be f   LIBCMT:tidtable.obj
 0001:0001122c       ___crtTlsAlloc@4           0041222c f   LIBCMT:tidtable.obj
 0001:00011235       ___fls_getvalue@4          00412235 f   LIBCMT:tidtable.obj
 0001:0001124a       ___get_flsindex            0041224a f   LIBCMT:tidtable.obj
 0001:00011250       ___set_flsgetvalue         00412250 f   LIBCMT:tidtable.obj
 0001:00011282       ___fls_setvalue@8          00412282 f   LIBCMT:tidtable.obj
 0001:0001129b       __mtterm                   0041229b f   LIBCMT:tidtable.obj
 0001:000112d8       __initptd                  004122d8 f   LIBCMT:tidtable.obj
 0001:00011397       __getptd_noexit            00412397 f   LIBCMT:tidtable.obj
 0001:0001140e       __getptd                   0041240e f   LIBCMT:tidtable.obj
 0001:00011426       __freefls@4                00412426 f   LIBCMT:tidtable.obj
 0001:00011547       __freeptd                  00412547 f   LIBCMT:tidtable.obj
 0001:000115b0       ___threadid                004125b0 f   LIBCMT:tidtable.obj
 0001:000115b6       ___threadhandle            004125b6 f   LIBCMT:tidtable.obj
 0001:000115bc       __mtinit                   004125bc f   LIBCMT:tidtable.obj
 0001:00011740       __get_errno_from_oserr     00412740 f   LIBCMT:dosmap.obj
 0001:0001177b       __errno                    0041277b f   LIBCMT:dosmap.obj
 0001:0001178e       ___doserrno                0041278e f   LIBCMT:dosmap.obj
 0001:000117a1       __dosmaperr                004127a1 f   LIBCMT:dosmap.obj
 0001:000117bf       __set_errno                004127bf f   LIBCMT:dosmap.obj
 0001:000117da       __get_errno                004127da f   LIBCMT:dosmap.obj
 0001:00011804       __set_doserrno             00412804 f   LIBCMT:dosmap.obj
 0001:0001181f       __get_doserrno             0041281f f   LIBCMT:dosmap.obj
 0001:00011849       _strncmp                   00412849 f   LIBCMT:strncmp.obj
 0001:00011907       __initp_heap_handler       00412907 f   LIBCMT:handler.obj
 0001:00011911       ?_set_new_handler@@YAP6AHI@ZP6AHI@Z@Z 00412911 f   LIBCMT:handler.obj
 0001:00011942       ?_set_new_handler@@YAP6AHI@ZH@Z 00412942 f   LIBCMT:handler.obj
 0001:0001194b       ?_query_new_handler@@YAP6AHI@ZXZ 0041294b f   LIBCMT:handler.obj
 0001:00011958       __callnewh                 00412958 f   LIBCMT:handler.obj
 0001:0001197a       __flsbuf                   0041297a f   LIBCMT:_flsbuf.obj
 0001:00011ada       __write_nolock             00412ada f   LIBCMT:write.obj
 0001:000120a0       __write                    004130a0 f   LIBCMT:write.obj
 0001:0001217c       __fileno                   0041317c f   LIBCMT:fileno.obj
 0001:000121a9       __flush                    004131a9 f   LIBCMT:fflush.obj
 0001:0001220b       __fflush_nolock            0041320b f   LIBCMT:fflush.obj
 0001:00012327       _fflush                    00413327 f   LIBCMT:fflush.obj
 0001:0001237a       __flushall                 0041337a f   LIBCMT:fflush.obj
 0001:00012383       ___iob_func                00413383 f   LIBCMT:_file.obj
 0001:00012389       ___initstdio               00413389 f   LIBCMT:_file.obj
 0001:0001243a       ___endstdio                0041343a f   LIBCMT:_file.obj
 0001:0001245a       __lock_file                0041345a f   LIBCMT:_file.obj
 0001:00012496       __lock_file2               00413496 f   LIBCMT:_file.obj
 0001:000124c4       __unlock_file              004134c4 f   LIBCMT:_file.obj
 0001:000124fa       __unlock_file2             004134fa f   LIBCMT:_file.obj
 0001:00012524       __SEH_prolog4              00413524 f   LIBCMT:sehprolg4.obj
 0001:00012569       __SEH_epilog4              00413569 f   LIBCMT:sehprolg4.obj
 0001:000125b0       __except_handler4          004135b0 f   LIBCMT:chandler4.obj
 0001:00012746       __close_nolock             00413746 f   LIBCMT:close.obj
 0001:000127da       __close                    004137da f   LIBCMT:close.obj
 0001:000128a7       __freebuf                  004138a7 f   LIBCMT:_freebuf.obj
 0001:000128d3       __filbuf                   004138d3 f   LIBCMT:_filbuf.obj
 0001:000129f3       __read_nolock              004139f3 f   LIBCMT:read.obj
 0001:00012fb4       __read                     00413fb4 f   LIBCMT:read.obj
 0001:000130b1       __ioinit                   004140b1 f   LIBCMT:ioinit.obj
 0001:000132f1       __ioterm                   004142f1 f   LIBCMT:ioinit.obj
 0001:0001333d       __lseek_nolock             0041433d f   LIBCMT:lseek.obj
 0001:000133af       __lseek                    004143af f   LIBCMT:lseek.obj
 0001:0001348b       __openfile                 0041448b f   LIBCMT:_open.obj
 0001:0001372b       __getstream                0041472b f   LIBCMT:stream.obj
 0001:0001385c       __local_unwind4            0041485c f   LIBCMT:exsup4.obj
 0001:00013932       __seh_longjmp_unwind4@4    00414932 f   LIBCMT:exsup4.obj
 0001:0001394e       @_EH4_CallFilterFunc@8     0041494e f   LIBCMT:exsup4.obj
 0001:00013965       @_EH4_TransferToHandler@8  00414965 f   LIBCMT:exsup4.obj
 0001:0001397e       @_EH4_GlobalUnwind@4       0041497e f   LIBCMT:exsup4.obj
 0001:00013998       @_EH4_LocalUnwind@16       00414998 f   LIBCMT:exsup4.obj
 0001:000139af       ??0bad_exception@std@@QAE@PBD@Z 004149af f i LIBCMT:frame.obj
 0001:000139c8       ??1bad_exception@std@@UAE@XZ 004149c8 f i LIBCMT:frame.obj
 0001:000139d3       ??_Ebad_exception@std@@UAEPAXI@Z 004149d3 f i LIBCMT:frame.obj
 0001:000139d3       ??_Gbad_exception@std@@UAEPAXI@Z 004149d3 f i LIBCMT:frame.obj
 0001:000139f5       ___TypeMatch               004149f5 f   LIBCMT:frame.obj
 0001:00013a51       ___FrameUnwindFilter       00414a51 f   LIBCMT:frame.obj
 0001:00013a95       ___FrameUnwindToState      00414a95 f   LIBCMT:frame.obj
 0001:00013bbb       ___DestructExceptionObject 00414bbb f   LIBCMT:frame.obj
 0001:00013c0f       ___AdjustPointer           00414c0f f   LIBCMT:frame.obj
 0001:00013c34       ?__uncaught_exception@@YA_NXZ 00414c34 f   LIBCMT:frame.obj
 0001:00013c47       ___CxxRegisterExceptionObject 00414c47 f   LIBCMT:frame.obj
 0001:00013cfa       ___CxxDetectRethrow        00414cfa f   LIBCMT:frame.obj
 0001:00013d46       ___CxxUnregisterExceptionObject 00414d46 f   LIBCMT:frame.obj
 0001:00013e7f       ___CxxQueryExceptionSize   00414e7f f   LIBCMT:frame.obj
 0001:00013e83       ___CxxCallUnwindDtor       00414e83 f   LIBCMT:frame.obj
 0001:00013eb5       ___CxxCallUnwindDelDtor    00414eb5 f   LIBCMT:frame.obj
 0001:00013ee8       ___CxxCallUnwindStdDelDtor 00414ee8 f   LIBCMT:frame.obj
 0001:00013f1a       ___CxxCallUnwindVecDtor    00414f1a f   LIBCMT:frame.obj
 0001:00014047       ?_is_exception_typeof@@YAHABVtype_info@@PAU_EXCEPTION_POINTERS@@@Z 00415047 f   LIBCMT:frame.obj
 0001:00014265       ___BuildCatchObjectHelper  00415265 f   LIBCMT:frame.obj
 0001:000143e4       ___BuildCatchObject        004153e4 f   LIBCMT:frame.obj
 0001:00014475       ___CxxExceptionFilter      00415475 f   LIBCMT:frame.obj
 0001:00014a6c       ??0bad_exception@std@@QAE@ABV01@@Z 00415a6c f i LIBCMT:frame.obj
 0001:00014a84       ___InternalCxxFrameHandler 00415a84 f   LIBCMT:frame.obj
 0001:00014b68       ?terminate@@YAXXZ          00415b68 f   LIBCMT:hooks.obj
 0001:00014ba1       ?unexpected@@YAXXZ         00415ba1 f   LIBCMT:hooks.obj
 0001:00014bb4       ?_inconsistency@@YAXXZ     00415bb4 f   LIBCMT:hooks.obj
 0001:00014beb       __initp_eh_hooks           00415beb f   LIBCMT:hooks.obj
 0001:00014c00       __CallSettingFrame@12      00415c00 f   LIBCMT:lowhelpr.obj
 0001:00014c27       __NLG_Return               00415c27     LIBCMT:lowhelpr.obj
 0001:00014c4c       ___report_gsfailure        00415c4c f   LIBCMT:gs_report.obj
 0001:00014dd7       __VEC_memcpy               00415dd7 f   LIBCMT:p4_memcpy.obj
 0001:00014eba       __sse2_mathfcns_init       00415eba f   LIBCMT:mathfcns.obj
 0001:00014ece       __set_SSE2_enable          00415ece f   LIBCMT:mathfcns.obj
 0001:00014ef0       __ValidateImageBase        00415ef0 f   LIBCMT:pesect.obj
 0001:00014f20       __FindPESection            00415f20 f   LIBCMT:pesect.obj
 0001:00014f70       __IsNonwritableInCurrentImage 00415f70 f   LIBCMT:pesect.obj
 0001:0001502b       __amsg_exit                0041602b f   LIBCMT:crt0dat.obj
 0001:0001504f       ___crtCorExitProcess       0041604f f   LIBCMT:crt0dat.obj
 0001:00015075       ___crtExitProcess          00416075 f   LIBCMT:crt0dat.obj
 0001:0001508a       __lockexit                 0041608a f   LIBCMT:crt0dat.obj
 0001:00015093       __unlockexit               00416093 f   LIBCMT:crt0dat.obj
 0001:000150b4       __initterm_e               004160b4 f   LIBCMT:crt0dat.obj
 0001:000150d4       __get_osplatform           004160d4 f   LIBCMT:crt0dat.obj
 0001:0001510b       __get_osver                0041610b f   LIBCMT:crt0dat.obj
 0001:00015147       __get_winver               00416147 f   LIBCMT:crt0dat.obj
 0001:00015183       __get_winmajor             00416183 f   LIBCMT:crt0dat.obj
 0001:000151bf       __get_winminor             004161bf f   LIBCMT:crt0dat.obj
 0001:000151fb       __get_wpgmptr              004161fb f   LIBCMT:crt0dat.obj
 0001:00015232       __get_pgmptr               00416232 f   LIBCMT:crt0dat.obj
 0001:00015269       __cinit                    00416269 f   LIBCMT:crt0dat.obj
 0001:000153dd       _exit                      004163dd f   LIBCMT:crt0dat.obj
 0001:000153ee       __exit                     004163ee f   LIBCMT:crt0dat.obj
 0001:000153ff       __cexit                    004163ff f   LIBCMT:crt0dat.obj
 0001:0001540e       __c_exit                   0041640e f   LIBCMT:crt0dat.obj
 0001:0001541d       __init_pointers            0041641d f   LIBCMT:crt0dat.obj
 0001:00015469       __initp_misc_winxfltr      00416469 f   LIBCMT:winxfltr.obj
 0001:0001549c       __XcptFilter               0041649c f   LIBCMT:winxfltr.obj
 0001:000155fa       ___CppXcptFilter           004165fa f   LIBCMT:winxfltr.obj
 0001:00015615       _wait_a_bit                00416615 f i LIBCMT:crtheap.obj
 0001:00015636       __set_malloc_crt_max_wait  00416636 f   LIBCMT:crtheap.obj
 0001:00015646       __malloc_crt               00416646 f   LIBCMT:crtheap.obj
 0001:00015686       __calloc_crt               00416686 f   LIBCMT:crtheap.obj
 0001:000156ce       __realloc_crt              004166ce f   LIBCMT:crtheap.obj
 0001:00015719       __recalloc_crt             00416719 f   LIBCMT:crtheap.obj
 0001:00015769       @_malloc_crt_fastcall@4    00416769 f   LIBCMT:crtheap.obj
 0001:00015771       @_calloc_crt_fastcall@8    00416771 f   LIBCMT:crtheap.obj
 0001:0001577b       @_realloc_crt_fastcall@8   0041677b f   LIBCMT:crtheap.obj
 0001:000157dc       __VEC_memzero              004167dc f   LIBCMT:p4_memset.obj
 0001:0001586b       __stbuf                    0041686b f   LIBCMT:_sftbuf.obj
 0001:00015901       __ftbuf                    00416901 f   LIBCMT:_sftbuf.obj
 0001:000159d1       _get_int_arg               004169d1 f i LIBCMT:output.obj
 0001:000159de       _get_int64_arg             004169de f i LIBCMT:output.obj
 0001:000159ee       _get_short_arg             004169ee f i LIBCMT:output.obj
 0001:000159fc       __output_l                 004169fc f   LIBCMT:output.obj
 0001:00016431       __output_s_l               00417431 f   LIBCMT:outputs.obj
 0001:00016de1       __validate_param_reuseA    00417de1 f   LIBCMT:outputp.obj
 0001:00016fab       _get_crtdouble_arg         00417fab f i LIBCMT:outputp.obj
 0001:00016fbb       __output_p_l               00417fbb f   LIBCMT:outputp.obj
 0001:00017f43       ?_Type_info_dtor@type_info@@CAXPAV1@@Z 00418f43 f   LIBCMT:typname.obj
 0001:00017fb3       ?_Name_base@type_info@@CAPBDPBV1@PAU__type_info_node@@@Z 00418fb3 f   LIBCMT:typname.obj
 0001:000180a8       ?_Type_info_dtor_internal@type_info@@CAXPAV1@@Z 004190a8 f   LIBCMT:typname.obj
 0001:00018118       ___unDNameHelper           00419118 f   LIBCMT:typname.obj
 0001:00018149       ?_Name_base_internal@type_info@@CAPBDPBV1@PAU__type_info_node@@@Z 00419149 f   LIBCMT:typname.obj
 0001:00018234       ___clean_type_info_names_internal 00419234 f   LIBCMT:typname.obj
 0001:00018290       _strcmp                    00419290 f   LIBCMT:strcmp.obj
 0001:00018318       _abort                     00419318 f   LIBCMT:abort.obj
 0001:0001840b       __set_abort_behavior       0041940b f   LIBCMT:abort.obj
 0001:00018429       __NMSG_WRITE               00419429 f   LIBCMT:crt0msg.obj
 0001:000185c9       __GET_RTERRMSG             004195c9 f   LIBCMT:crt0msg.obj
 0001:000185e9       __FF_MSGBANNER             004195e9 f   LIBCMT:crt0msg.obj
 0001:00018622       ___getlocaleinfo           00419622 f   LIBCMT:inithelp.obj
 0001:0001877c       __initp_misc_purevirt      0041977c f   LIBCMT:inithelp.obj
 0001:00018786       _strcpy_s                  00419786 f   LIBCMT:strcpy_s.obj
 0001:000187f0       _strlen                    004197f0 f   LIBCMT:strlen.obj
 0001:00018880       _memmove                   00419880 f   LIBCMT:memmove.obj
 0001:00018be5       __crt_debugger_hook        00419be5 f   LIBCMT:dbghook.obj
 0001:00018bed       __vsnprintf_helper         00419bed f   LIBCMT:vsnprnc.obj
 0001:00018cb7       __vsnprintf_c              00419cb7 f   LIBCMT:vsnprnc.obj
 0001:00018cde       __vsnprintf_c_l            00419cde f   LIBCMT:vsnprnc.obj
 0001:00018d06       __vsprintf_s_l             00419d06 f   LIBCMT:vsnprnc.obj
 0001:00018d8c       _vsprintf_s                00419d8c f   LIBCMT:vsnprnc.obj
 0001:00018da7       __vsnprintf_s_l            00419da7 f   LIBCMT:vsnprnc.obj
 0001:00018eac       __vsnprintf_s              00419eac f   LIBCMT:vsnprnc.obj
 0001:00018eca       __vsprintf_p               00419eca f   LIBCMT:vsnprnc.obj
 0001:00018ef1       __vsprintf_p_l             00419ef1 f   LIBCMT:vsnprnc.obj
 0001:00018f19       __set_daylight             00419f19 f i LIBCMT:tzset.obj
 0001:00018f25       __set_dstbias              00419f25 f i LIBCMT:tzset.obj
 0001:00018f31       __set_timezone             00419f31 f i LIBCMT:tzset.obj
 0001:00019629       ___tzset                   0041a629 f   LIBCMT:tzset.obj
 0001:00019678       __tzset                    0041a678 f   LIBCMT:tzset.obj
 0001:000196b0       __isindst                  0041a6b0 f   LIBCMT:tzset.obj
 0001:000196f1       __gmtime64_s               0041a6f1 f   LIBCMT:gmtime64.obj
 0001:0001992d       __gmtime64                 0041a92d f   LIBCMT:gmtime64.obj
 0001:00019951       __get_daylight             0041a951 f   LIBCMT:timeset.obj
 0001:00019985       __get_dstbias              0041a985 f   LIBCMT:timeset.obj
 0001:000199b9       __get_timezone             0041a9b9 f   LIBCMT:timeset.obj
 0001:000199ed       __get_tzname               0041a9ed f   LIBCMT:timeset.obj
 0001:00019a8f       ___daylight                0041aa8f f   LIBCMT:timeset.obj
 0001:00019a95       ___dstbias                 0041aa95 f   LIBCMT:timeset.obj
 0001:00019a9b       ___timezone                0041aa9b f   LIBCMT:timeset.obj
 0001:00019aa1       ___tzname                  0041aaa1 f   LIBCMT:timeset.obj
 0001:00019ab0       __alldiv                   0041aab0 f   LIBCMT:lldiv.obj
 0001:00019b60       __allrem                   0041ab60 f   LIBCMT:llrem.obj
 0001:00019c12       __gmtime32_s               0041ac12 f   LIBCMT:gmtime.obj
 0001:00019d3f       ___getgmtimebuf            0041ad3f f   LIBCMT:gmtime.obj
 0001:00019d87       __gmtime32                 0041ad87 f   LIBCMT:gmtime.obj
 0001:00019db0       __aulldiv                  0041adb0 f   LIBCMT:ulldiv.obj
 0001:0001a043       _strtol                    0041b043 f   LIBCMT:strtol.obj
 0001:0001a06c       __strtol_l                 0041b06c f   LIBCMT:strtol.obj
 0001:0001a087       _strtoul                   0041b087 f   LIBCMT:strtol.obj
 0001:0001a0b1       __strtoul_l                0041b0b1 f   LIBCMT:strtol.obj
 0001:0001a360       __strtoi64                 0041b360 f   LIBCMT:strtoq.obj
 0001:0001a389       __strtoi64_l               0041b389 f   LIBCMT:strtoq.obj
 0001:0001a3a4       __strtoui64                0041b3a4 f   LIBCMT:strtoq.obj
 0001:0001a3ce       __strtoui64_l              0041b3ce f   LIBCMT:strtoq.obj
 0001:0001a3e9       __msize                    0041b3e9 f   LIBCMT:msize.obj
 0001:0001a48c       ___heap_select             0041b48c f   LIBCMT:heapinit.obj
 0001:0001a4e7       __heap_init                0041b4e7 f   LIBCMT:heapinit.obj
 0001:0001a541       __heap_term                0041b541 f   LIBCMT:heapinit.obj
 0001:0001a5b5       __get_heap_handle          0041b5b5 f   LIBCMT:heapinit.obj
 0001:0001a5bb       __mtinitlocks              0041b5bb f   LIBCMT:mlock.obj
 0001:0001a604       __mtdeletelocks            0041b604 f   LIBCMT:mlock.obj
 0001:0001a659       __unlock                   0041b659 f   LIBCMT:mlock.obj
 0001:0001a66e       __lockerr_exit             0041b66e f   LIBCMT:mlock.obj
 0001:0001a686       __mtinitlocknum            0041b686 f   LIBCMT:mlock.obj
 0001:0001a749       __lock                     0041b749 f   LIBCMT:mlock.obj
 0001:0001a77a       __get_sbh_threshold        0041b77a f   LIBCMT:sbheap.obj
 0001:0001a79b       __set_amblksiz             0041b79b f   LIBCMT:sbheap.obj
 0001:0001a7e1       __get_amblksiz             0041b7e1 f   LIBCMT:sbheap.obj
 0001:0001a81d       ___sbh_heap_init           0041b81d f   LIBCMT:sbheap.obj
 0001:0001a865       ___sbh_find_block          0041b865 f   LIBCMT:sbheap.obj
 0001:0001a890       ___sbh_free_block          0041b890 f   LIBCMT:sbheap.obj
 0001:0001aba4       ___sbh_alloc_new_region    0041bba4 f   LIBCMT:sbheap.obj
 0001:0001ac54       ___sbh_alloc_new_group     0041bc54 f   LIBCMT:sbheap.obj
 0001:0001ad5a       ___sbh_resize_block        0041bd5a f   LIBCMT:sbheap.obj
 0001:0001b039       ___sbh_heapmin             0041c039 f   LIBCMT:sbheap.obj
 0001:0001b106       ___sbh_heap_check          0041c106 f   LIBCMT:sbheap.obj
 0001:0001b3e8       __set_sbh_threshold        0041c3e8 f   LIBCMT:sbheap.obj
 0001:0001b490       ___sbh_alloc_block         0041c490 f   LIBCMT:sbheap.obj
 0001:0001b780       __alloca_probe             0041c780     LIBCMT:chkstk.obj
 0001:0001b780       __chkstk                   0041c780 f   LIBCMT:chkstk.obj
 0001:0001b7ab       ?__CxxUnhandledExceptionFilter@@YGJPAU_EXCEPTION_POINTERS@@@Z 0041c7ab f   LIBCMT:unhandld.obj
 0001:0001b7e8       ___CxxSetUnhandledExceptionFilter 0041c7e8 f   LIBCMT:unhandld.obj
 0001:0001b7f6       __wincmdln                 0041c7f6 f   LIBCMT:wincmdln.obj
 0001:0001b853       __setenvp                  0041c853 f   LIBCMT:stdenvp.obj
 0001:0001b92e       __set_pgmptr               0041c92e f i LIBCMT:stdargv.obj
 0001:0001bad0       __setargv                  0041cad0 f   LIBCMT:stdargv.obj
 0001:0001bb89       ___crtGetEnvironmentStringsA 0041cb89 f   LIBCMT:a_env.obj
 0001:0001bcbe       __RTC_Initialize           0041ccbe f   LIBCMT:initsect.obj
 0001:0001bce2       __RTC_Terminate            0041cce2 f   LIBCMT:initsect.obj
 0001:0001bd06       ___security_init_cookie    0041cd06 f   LIBCMT:gs_support.obj
 0001:0001c156       ___crtLCMapStringA         0041d156 f   LIBCMT:a_map.obj
 0001:0001c351       ___crtGetStringTypeA       0041d351 f   LIBCMT:a_str.obj
 0001:0001c391       ___pwctype_func            0041d391 f   LIBCMT:ctype.obj
 0001:0001c397       ___pctype_func             0041d397 f   LIBCMT:ctype.obj
 0001:0001c7d9       ___free_lc_time            0041d7d9 f   LIBCMT:inittime.obj
 0001:0001c969       ___init_time               0041d969 f   LIBCMT:inittime.obj
 0001:0001ca0f       ___free_lconv_num          0041da0f f   LIBCMT:initnum.obj
 0001:0001ca4f       ___init_numeric            0041da4f f   LIBCMT:initnum.obj
 0001:0001cc4a       ___free_lconv_mon          0041dc4a f   LIBCMT:initmon.obj
 0001:0001ccd3       ___init_monetary           0041dcd3 f   LIBCMT:initmon.obj
 0001:0001cf97       ___init_ctype              0041df97 f   LIBCMT:initctyp.obj
 0001:0001d32c       ____mb_cur_max_func        0041e32c f   LIBCMT:initctyp.obj
 0001:0001d355       ____mb_cur_max_l_func      0041e355 f   LIBCMT:initctyp.obj
 0001:0001d36b       ____lc_codepage_func       0041e36b f   LIBCMT:initctyp.obj
 0001:0001d391       ____lc_collate_cp_func     0041e391 f   LIBCMT:initctyp.obj
 0001:0001d3b7       ____lc_handle_func         0041e3b7 f   LIBCMT:initctyp.obj
 0001:0001d3dd       ___init_collate            0041e3dd f   LIBCMT:initcoll.obj
 0001:0001d3e0       __Getdays_l                0041e3e0 f   LIBCMT:strftime.obj
 0001:0001d4de       __Getdays                  0041e4de f   LIBCMT:strftime.obj
 0001:0001d4e7       __Getmonths_l              0041e4e7 f   LIBCMT:strftime.obj
 0001:0001d5e5       __Getmonths                0041e5e5 f   LIBCMT:strftime.obj
 0001:0001d5ee       __Gettnames_l              0041e5ee f   LIBCMT:strftime.obj
 0001:0001d943       __Gettnames                0041e943 f   LIBCMT:strftime.obj
 0001:0001e25e       __Strftime_l               0041f25e f   LIBCMT:strftime.obj
 0001:0001e40d       __strftime_l               0041f40d f   LIBCMT:strftime.obj
 0001:0001e42b       _strftime                  0041f42b f   LIBCMT:strftime.obj
 0001:0001e448       __Strftime                 0041f448 f   LIBCMT:strftime.obj
 0001:0001e466       _localeconv                0041f466 f   LIBCMT:lconv.obj
 0001:0001e48c       _strcat_s                  0041f48c f   LIBCMT:strcat_s.obj
 0001:0001e500       _strcspn                   0041f500 f   LIBCMT:strcspn.obj
 0001:0001e546       _strncpy_s                 0041f546 f   LIBCMT:strncpy_s.obj
 0001:0001ebb3       ___get_qualified_locale    0041fbb3 f   LIBCMT:getqloc.obj
 0001:00020308       _memcmp                    00421308 f   LIBCMT:memcmp.obj
 0001:00021990       _strpbrk                   00422990 f   LIBCMT:strpbrk.obj
 0001:000219d0       __lseeki64_nolock          004229d0 f   LIBCMT:lseeki64.obj
 0001:00021a53       __lseeki64                 00422a53 f   LIBCMT:lseeki64.obj
 0001:00021b6c       __getbuf                   00422b6c f   LIBCMT:_getbuf.obj
 0001:00021bb0       __isatty                   00422bb0 f   LIBCMT:isatty.obj
 0001:00021c0e       __putwch_nolock            00422c0e f   LIBCMT:putwch.obj
 0001:00021cd0       __cputws                   00422cd0 f   LIBCMT:putwch.obj
 0001:00021d6b       __putwch                   00422d6b f   LIBCMT:putwch.obj
 0001:00021db1       __mbtowc_l                 00422db1 f   LIBCMT:mbtowc.obj
 0001:00021ec4       _mbtowc                    00422ec4 f   LIBCMT:mbtowc.obj
 0001:00021edb       __isleadbyte_l             00422edb f i LIBCMT:_wctype.obj
 0001:00021f11       _isleadbyte                00422f11 f i LIBCMT:_wctype.obj
 0001:00021f1f       __iswalpha_l               00422f1f f i LIBCMT:_wctype.obj
 0001:00021f35       _iswalpha                  00422f35 f i LIBCMT:_wctype.obj
 0001:00021f46       __iswupper_l               00422f46 f i LIBCMT:_wctype.obj
 0001:00021f59       _iswupper                  00422f59 f i LIBCMT:_wctype.obj
 0001:00021f67       __iswlower_l               00422f67 f i LIBCMT:_wctype.obj
 0001:00021f7a       _iswlower                  00422f7a f i LIBCMT:_wctype.obj
 0001:00021f88       __iswdigit_l               00422f88 f i LIBCMT:_wctype.obj
 0001:00021f9b       _iswdigit                  00422f9b f i LIBCMT:_wctype.obj
 0001:00021fa9       __iswxdigit_l              00422fa9 f i LIBCMT:_wctype.obj
 0001:00021fbf       _iswxdigit                 00422fbf f i LIBCMT:_wctype.obj
 0001:00021fd0       __iswspace_l               00422fd0 f i LIBCMT:_wctype.obj
 0001:00021fe3       _iswspace                  00422fe3 f i LIBCMT:_wctype.obj
 0001:00021ff1       __iswpunct_l               00422ff1 f i LIBCMT:_wctype.obj
 0001:00022004       _iswpunct                  00423004 f i LIBCMT:_wctype.obj
 0001:00022012       __iswalnum_l               00423012 f i LIBCMT:_wctype.obj
 0001:00022028       _iswalnum                  00423028 f i LIBCMT:_wctype.obj
 0001:00022039       __iswprint_l               00423039 f i LIBCMT:_wctype.obj
 0001:0002204f       _iswprint                  0042304f f i LIBCMT:_wctype.obj
 0001:00022060       __iswgraph_l               00423060 f i LIBCMT:_wctype.obj
 0001:00022076       _iswgraph                  00423076 f i LIBCMT:_wctype.obj
 0001:00022087       __iswcntrl_l               00423087 f i LIBCMT:_wctype.obj
 0001:0002209a       _iswcntrl                  0042309a f i LIBCMT:_wctype.obj
 0001:000220a8       _iswascii                  004230a8 f i LIBCMT:_wctype.obj
 0001:000220b4       __iswcsym_l                004230b4 f i LIBCMT:_wctype.obj
 0001:000220da       ___iswcsym                 004230da f i LIBCMT:_wctype.obj
 0001:000220fb       __iswcsymf_l               004230fb f i LIBCMT:_wctype.obj
 0001:00022121       ___iswcsymf                00423121 f i LIBCMT:_wctype.obj
 0001:00022142       __set_osfhnd               00423142 f   LIBCMT:osfinfo.obj
 0001:000221bf       __free_osfhnd              004231bf f   LIBCMT:osfinfo.obj
 0001:00022240       __get_osfhandle            00423240 f   LIBCMT:osfinfo.obj
 0001:000222b1       ___lock_fhandle            004232b1 f   LIBCMT:osfinfo.obj
 0001:00022351       __unlock_fhandle           00423351 f   LIBCMT:osfinfo.obj
 0001:00022373       __alloc_osfhnd             00423373 f   LIBCMT:osfinfo.obj
 0001:00022512       __open_osfhandle           00423512 f   LIBCMT:osfinfo.obj
 0001:00022627       __commit                   00423627 f   LIBCMT:commit.obj
 0001:00022708       __fcloseall                00423708 f   LIBCMT:closeall.obj
 0001:000227a7       __initp_misc_initcrit      004237a7 f   LIBCMT:initcrit.obj
 0001:000227c1       ___crtInitCritSecAndSpinCount 004237c1 f   LIBCMT:initcrit.obj
 0001:00022fdf       __open                     00423fdf f   LIBCMT:open.obj
 0001:00023095       __sopen_helper             00424095 f   LIBCMT:open.obj
 0001:00023161       __sopen                    00424161 f   LIBCMT:open.obj
 0001:00023191       __sopen_s                  00424191 f   LIBCMT:open.obj
 0001:000231af       __mbsicmp_l                004241af f   LIBCMT:mbsicmp.obj
 0001:000233c9       __mbsicmp                  004243c9 f   LIBCMT:mbsicmp.obj
 0001:000233dc       __global_unwind2           004243dc f   LIBCMT:exsup.obj
 0001:00023441       __local_unwind2            00424441 f   LIBCMT:exsup.obj
 0001:000234c5       __abnormal_termination     004244c5 f   LIBCMT:exsup.obj
 0001:000234e8       __NLG_Notify1              004244e8 f   LIBCMT:exsup.obj
 0001:000234f1       __NLG_Notify               004244f1 f   LIBCMT:exsup.obj
 0001:00023508       __NLG_Dispatch             00424508     LIBCMT:exsup.obj
 0001:00023508       __NLG_Dispatch2            00424508     LIBCMT:exsup.obj
 0001:00023510       __NLG_Call                 00424510 f   LIBCMT:exsup.obj
 0001:00023512       __NLG_Return2              00424512     LIBCMT:exsup.obj
 0001:00023513       __EH_prolog3               00424513 f   LIBCMT:ehprolg3.obj
 0001:00023546       __EH_prolog3_catch         00424546 f   LIBCMT:ehprolg3.obj
 0001:0002357c       __EH_prolog3_GS            0042457c f   LIBCMT:ehprolg3.obj
 0001:000235b2       __EH_prolog3_catch_GS      004245b2 f   LIBCMT:ehprolg3.obj
 0001:000235eb       __EH_epilog3               004245eb f   LIBCMT:ehprolg3.obj
 0001:000235ff       __EH_epilog3_GS            004245ff f   LIBCMT:ehprolg3.obj
 0001:0002360e       __EH_epilog3_catch_GS      0042460e f   LIBCMT:ehprolg3.obj
 0001:0002361d       ?_ValidateRead@@YAHPBXI@Z  0042461d f   LIBCMT:validate.obj
 0001:0002362a       ?_ValidateWrite@@YAHPAXI@Z 0042462a f   LIBCMT:validate.obj
 0001:00023637       ?_ValidateExecute@@YAHP6GHXZ@Z 00424637 f   LIBCMT:validate.obj
 0001:00023694       __get_sse2_info            00424694 f   LIBCMT:cpu_disp.obj
 0001:000236f4       ___sse2_available_init     004246f4 f   LIBCMT:cpu_disp.obj
 0001:00023701       __initp_misc_cfltcvt_tab   00424701 f   LIBCMT:cmiscdat.obj
 0001:00023720       __initp_misc_winsig        00424720 f   LIBCMT:winsig.obj
 0001:00023808       ___get_sigabrt             00424808 f   LIBCMT:winsig.obj
 0001:00023815       ___fpecode                 00424815 f   LIBCMT:winsig.obj
 0001:0002381e       ___pxcptinfoptrs           0042481e f   LIBCMT:winsig.obj
 0001:00023827       _signal                    00424827 f   LIBCMT:winsig.obj
 0001:00023a64       _raise                     00424a64 f   LIBCMT:winsig.obj
 0001:00023c14       __initp_misc_rand_s        00424c14 f   LIBCMT:rand_s.obj
 0001:00023c1e       _rand_s                    00424c1e f   LIBCMT:rand_s.obj
 0001:00023d22       __calloc_impl              00424d22 f   LIBCMT:calloc.obj
 0001:00023e40       _calloc                    00424e40 f   LIBCMT:calloc.obj
 0001:00023e7f       _realloc                   00424e7f f   LIBCMT:realloc.obj
 0001:0002409a       __recalloc                 0042509a f   LIBCMT:realloc.obj
 0001:00024113       _printf                    00425113 f   LIBCMT:printf.obj
 0001:000241c2       __printf_l                 004251c2 f   LIBCMT:printf.obj
 0001:000241d8       __printf_s_l               004251d8 f   LIBCMT:printf.obj
 0001:000241ee       _printf_s                  004251ee f   LIBCMT:printf.obj
 0001:00024202       __printf_p_l               00425202 f   LIBCMT:printf.obj
 0001:00024218       __printf_p                 00425218 f   LIBCMT:printf.obj
 0001:0002422c       __set_printf_count_output  0042522c f   LIBCMT:printf.obj
 0001:00024251       __get_printf_count_output  00425251 f   LIBCMT:printf.obj
 0001:00024267       __wctomb_s_l               00425267 f   LIBCMT:wctomb.obj
 0001:000243c6       _wctomb_s                  004253c6 f   LIBCMT:wctomb.obj
 0001:000243e1       __wctomb_l                 004253e1 f   LIBCMT:wctomb.obj
 0001:00024430       _wctomb                    00425430 f   LIBCMT:wctomb.obj
 0001:00024460       __aulldvrm                 00425460 f   LIBCMT:ulldvrm.obj
 0001:000244f5       ??0Block@HeapManager@@QAE@XZ 004254f5 f i LIBCMT:undname.obj
 0001:000244fb       ?Constructor@HeapManager@@QAEXP6APAXI@ZP6AXPAX@Z@Z 004254fb f i LIBCMT:undname.obj
 0001:00024516       ?Destructor@HeapManager@@QAEXXZ 00425516 f i LIBCMT:undname.obj
 0001:0002453c       ?getNumberOfDimensions@UnDecorator@@CAHXZ 0042553c f   LIBCMT:undname.obj
 0001:0002459f       ?getTypeEncoding@UnDecorator@@CAHXZ 0042559f f i LIBCMT:undname.obj
 0001:00024a13       ?doUnderScore@UnDecorator@@SAHXZ 00425a13 f i LIBCMT:undname.obj
 0001:00024a1e       ?doMSKeywords@UnDecorator@@SAHXZ 00425a1e f i LIBCMT:undname.obj
 0001:00024a2b       ?doPtr64@UnDecorator@@SAHXZ 00425a2b f i LIBCMT:undname.obj
 0001:00024a39       ?doFunctionReturns@UnDecorator@@SAHXZ 00425a39 f i LIBCMT:undname.obj
 0001:00024a47       ?doAllocationModel@UnDecorator@@SAHXZ 00425a47 f i LIBCMT:undname.obj
 0001:00024a55       ?doAllocationLanguage@UnDecorator@@SAHXZ 00425a55 f i LIBCMT:undname.obj
 0001:00024a63       ?doThisTypes@UnDecorator@@SAHXZ 00425a63 f i LIBCMT:undname.obj
 0001:00024a75       ?doAccessSpecifiers@UnDecorator@@SAHXZ 00425a75 f i LIBCMT:undname.obj
 0001:00024a83       ?doThrowTypes@UnDecorator@@SAHXZ 00425a83 f i LIBCMT:undname.obj
 0001:00024a91       ?doMemberTypes@UnDecorator@@SAHXZ 00425a91 f i LIBCMT:undname.obj
 0001:00024a9f       ?doNameOnly@UnDecorator@@SAHXZ 00425a9f f i LIBCMT:undname.obj
 0001:00024aaa       ?doTypeOnly@UnDecorator@@SAHXZ 00425aaa f i LIBCMT:undname.obj
 0001:00024ab5       ?haveTemplateParameters@UnDecorator@@SAHXZ 00425ab5 f i LIBCMT:undname.obj
 0001:00024ac0       ?doEcsu@UnDecorator@@SAHXZ 00425ac0 f i LIBCMT:undname.obj
 0001:00024ace       ?doNoIdentCharCheck@UnDecorator@@SAHXZ 00425ace f i LIBCMT:undname.obj
 0001:00024ad9       ?doEllipsis@UnDecorator@@SAHXZ 00425ad9 f i LIBCMT:undname.obj
 0001:00024ae7       ?UScore@UnDecorator@@SAPBDW4Tokens@@@Z 00425ae7 f   LIBCMT:undname.obj
 0001:00024b00       ?getMemory@HeapManager@@QAEPAXIH@Z 00425b00 f   LIBCMT:undname.obj
 0001:00024b84       ??0DName@@QAE@XZ           00425b84 f i LIBCMT:undname.obj
 0001:00024b91       ??0DName@@QAE@PAVDNameNode@@@Z 00425b91 f i LIBCMT:undname.obj
 0001:00024ba3       ??0DName@@QAE@ABV0@@Z      00425ba3 f i LIBCMT:undname.obj
 0001:00024c3f       ?status@DName@@QBE?AW4DNameStatus@@XZ 00425c3f f i LIBCMT:undname.obj
 0001:00024c49       ?clearStatus@DName@@QAEXXZ 00425c49 f i LIBCMT:undname.obj
 0001:00024c4e       ?setPtrRef@DName@@QAEAAV1@XZ 00425c4e f i LIBCMT:undname.obj
 0001:00024c55       ?isPtrRef@DName@@QBEHXZ    00425c55 f i LIBCMT:undname.obj
 0001:00024c5f       ?setIsArray@DName@@QAEXXZ  00425c5f f i LIBCMT:undname.obj
 0001:00024c67       ?isArray@DName@@QBEHXZ     00425c67 f i LIBCMT:undname.obj
 0001:00024c71       ?isNoTE@DName@@QBEHXZ      00425c71 f i LIBCMT:undname.obj
 0001:00024c7b       ?setIsNoTE@DName@@QAEXXZ   00425c7b f i LIBCMT:undname.obj
 0001:00024c83       ?isPinPtr@DName@@QBEHXZ    00425c83 f i LIBCMT:undname.obj
 0001:00024c8d       ?setIsPinPtr@DName@@QAEXXZ 00425c8d f i LIBCMT:undname.obj
 0001:00024c95       ?isComArray@DName@@QBEHXZ  00425c95 f i LIBCMT:undname.obj
 0001:00024c9f       ?setIsComArray@DName@@QAEXXZ 00425c9f f i LIBCMT:undname.obj
 0001:00024ca7       ?isVCallThunk@DName@@QBEHXZ 00425ca7 f i LIBCMT:undname.obj
 0001:00024cb1       ?setIsVCallThunk@DName@@QAEXXZ 00425cb1 f i LIBCMT:undname.obj
 0001:00024cb9       ??4DName@@QAEAAV0@ABV0@@Z  00425cb9 f   LIBCMT:undname.obj
 0001:00024d34       ?isFull@Replicator@@QBEHXZ 00425d34 f i LIBCMT:undname.obj
 0001:00024d3d       ??AReplicator@@QBEABVDName@@H@Z 00425d3d f   LIBCMT:undname.obj
 0001:00024d62       ??0DNameNode@@IAE@XZ       00425d62 f   LIBCMT:undname.obj
 0001:00024d6f       ?nextNode@DNameNode@@QBEPAV1@XZ 00425d6f f i LIBCMT:undname.obj
 0001:00024d73       ??YDNameNode@@QAEAAV0@PAV0@@Z 00425d73 f   LIBCMT:undname.obj
 0001:00024d9c       ??0charNode@@QAE@D@Z       00425d9c f   LIBCMT:undname.obj
 0001:00024db2       ?length@charNode@@UBEHXZ   00425db2 f i LIBCMT:undname.obj
 0001:00024db6       ?getLastChar@charNode@@UBEDXZ 00425db6 f i LIBCMT:undname.obj
 0001:00024dba       ?getString@charNode@@UBEPADPADH@Z 00425dba f   LIBCMT:undname.obj
 0001:00024dd5       ?length@pcharNode@@UBEHXZ  00425dd5 f i LIBCMT:undname.obj
 0001:00024dd9       ??0pDNameNode@@QAE@PAVDName@@@Z 00425dd9 f   LIBCMT:undname.obj
 0001:00024e08       ??0DNameStatusNode@@QAE@W4DNameStatus@@@Z 00425e08 f   LIBCMT:undname.obj
 0001:00024e2d       ?length@DNameStatusNode@@UBEHXZ 00425e2d f i LIBCMT:undname.obj
 0001:00024e31       ?getLastChar@DNameStatusNode@@UBEDXZ 00425e31 f i LIBCMT:undname.obj
 0001:00024e91       ?getDataIndirectType@UnDecorator@@CA?AVDName@@XZ 00425e91 f i LIBCMT:undname.obj
 0001:00024ec4       ?getThisType@UnDecorator@@CA?AVDName@@XZ 00425ec4 f i LIBCMT:undname.obj
 0001:00024ef8       ??2@YAPAXIAAVHeapManager@@H@Z 00425ef8 f i LIBCMT:undname.obj
 0001:00024f0b       ??0DName@@QAE@PAV0@@Z      00425f0b f   LIBCMT:undname.obj
 0001:00024f61       ??0DName@@QAE@W4DNameStatus@@@Z 00425f61 f   LIBCMT:undname.obj
 0001:00024fc2       ?isValid@DName@@QBEHXZ     00425fc2 f   LIBCMT:undname.obj
 0001:00024fd9       ?isEmpty@DName@@QBEHXZ     00425fd9 f   LIBCMT:undname.obj
 0001:00024fee       ?isUDC@DName@@QBEHXZ       00425fee f i LIBCMT:undname.obj
 0001:00025002       ?setIsUDC@DName@@QAEXXZ    00426002 f i LIBCMT:undname.obj
 0001:00025010       ?isUDTThunk@DName@@QBEHXZ  00426010 f i LIBCMT:undname.obj
 0001:00025024       ?length@DName@@QBEHXZ      00426024 f   LIBCMT:undname.obj
 0001:00025049       ?getLastChar@DName@@QBEDXZ 00426049 f   LIBCMT:undname.obj
 0001:00025081       ?getString@DName@@QBEPADPADH@Z 00426081 f   LIBCMT:undname.obj
 0001:00025112       ??_5DName@@QAEAAV0@ABV0@@Z 00426112 f   LIBCMT:undname.obj
 0001:00025147       ??4DName@@QAEAAV0@W4DNameStatus@@@Z 00426147 f   LIBCMT:undname.obj
 0001:000251c8       ??0Replicator@@QAE@XZ      004261c8 f i LIBCMT:undname.obj
 0001:000251e6       ??YReplicator@@QAEAAV0@ABVDName@@@Z 004261e6 f   LIBCMT:undname.obj
 0001:0002522d       ?clone@DNameNode@@QAEPAV1@XZ 0042622d f   LIBCMT:undname.obj
 0001:00025274       ??0pcharNode@@QAE@PBDH@Z   00426274 f   LIBCMT:undname.obj
 0001:000252d9       ?getLastChar@pcharNode@@UBEDXZ 004262d9 f i LIBCMT:undname.obj
 0001:000252eb       ?getString@pcharNode@@UBEPADPADH@Z 004262eb f   LIBCMT:undname.obj
 0001:0002531c       ?length@pDNameNode@@UBEHXZ 0042631c f i LIBCMT:undname.obj
 0001:0002532b       ?getLastChar@pDNameNode@@UBEDXZ 0042632b f i LIBCMT:undname.obj
 0001:0002533a       ?getString@pDNameNode@@UBEPADPADH@Z 0042633a f   LIBCMT:undname.obj
 0001:00025357       ?getString@DNameStatusNode@@UBEPADPADH@Z 00426357 f   LIBCMT:undname.obj
 0001:0002538a       ??0UnDecorator@@QAE@PADPBDHP6APADJ@ZK@Z 0042638a f i LIBCMT:undname.obj
 0001:000253fd       ?getReturnType@UnDecorator@@CA?AVDName@@PAV2@@Z 004263fd f   LIBCMT:undname.obj
 0001:0002542c       ?getStorageConvention@UnDecorator@@CA?AVDName@@XZ 0042642c f i LIBCMT:undname.obj
 0001:0002543b       ??YDName@@QAEAAV0@W4DNameStatus@@@Z 0042643b f   LIBCMT:undname.obj
 0001:000254b4       ??4DName@@QAEAAV0@PAV0@@Z  004264b4 f   LIBCMT:undname.obj
 0001:0002551c       ?doPchar@DName@@AAEXPBDH@Z 0042651c f   LIBCMT:undname.obj
 0001:000255c2       ??0DName@@QAE@D@Z          004265c2 f   LIBCMT:undname.obj
 0001:000255e8       ??0DName@@QAE@PBD@Z        004265e8 f   LIBCMT:undname.obj
 0001:00025619       ??0DName@@QAE@AAPBDD@Z     00426619 f   LIBCMT:undname.obj
 0001:000256e9       ??0DName@@QAE@_K@Z         004266e9 f   LIBCMT:undname.obj
 0001:00025752       ??0DName@@QAE@_J@Z         00426752 f   LIBCMT:undname.obj
 0001:000257e8       ??HDName@@QBE?AV0@W4DNameStatus@@@Z 004267e8 f   LIBCMT:undname.obj
 0001:00025816       ??YDName@@QAEAAV0@ABV0@@Z  00426816 f   LIBCMT:undname.obj
 0001:00025878       ??YDName@@QAEAAV0@PAV0@@Z  00426878 f   LIBCMT:undname.obj
 0001:00025903       ??4DName@@QAEAAV0@D@Z      00426903 f   LIBCMT:undname.obj
 0001:0002591f       ??4DName@@QAEAAV0@PBD@Z    0042691f f   LIBCMT:undname.obj
 0001:00025949       ?getCallingConvention@UnDecorator@@CA?AVDName@@XZ 00426949 f   LIBCMT:undname.obj
 0001:000259ef       ?getVCallThunkType@UnDecorator@@CA?AVDName@@XZ 004269ef f i LIBCMT:undname.obj
 0001:00025a26       ??HDName@@QBE?AV0@ABV0@@Z  00426a26 f   LIBCMT:undname.obj
 0001:00025a77       ??HDName@@QBE?AV0@PAV0@@Z  00426a77 f   LIBCMT:undname.obj
 0001:00025aa5       ??YDName@@QAEAAV0@D@Z      00426aa5 f   LIBCMT:undname.obj
 0001:00025b0f       ??YDName@@QAEAAV0@PBD@Z    00426b0f f   LIBCMT:undname.obj
 0001:00025b7b       ?getArgumentList@UnDecorator@@CA?AVDName@@XZ 00426b7b f   LIBCMT:undname.obj
 0001:00025c5b       ?getVdispMapType@UnDecorator@@CA?AVDName@@ABV2@@Z 00426c5b f i LIBCMT:undname.obj
 0001:00025caa       ??H@YA?AVDName@@DABV0@@Z   00426caa f i LIBCMT:undname.obj
 0001:00025ccc       ??H@YA?AVDName@@W4DNameStatus@@ABV0@@Z 00426ccc f i LIBCMT:undname.obj
 0001:00025cee       ??H@YA?AVDName@@PBDABV0@@Z 00426cee f i LIBCMT:undname.obj
 0001:00025d10       ??HDName@@QBE?AV0@D@Z      00426d10 f   LIBCMT:undname.obj
 0001:00025d3e       ??HDName@@QBE?AV0@PBD@Z    00426d3e f   LIBCMT:undname.obj
 0001:00025d6c       ?getDimension@UnDecorator@@CA?AVDName@@_N@Z 00426d6c f   LIBCMT:undname.obj
 0001:00025ead       ?getEnumType@UnDecorator@@CA?AVDName@@XZ 00426ead f i LIBCMT:undname.obj
 0001:00025f81       ?getArgumentTypes@UnDecorator@@CA?AVDName@@XZ 00426f81 f   LIBCMT:undname.obj
 0001:00026045       ?getThrowTypes@UnDecorator@@CA?AVDName@@XZ 00427045 f   LIBCMT:undname.obj
 0001:000260c3       ?getExtendedDataIndirectType@UnDecorator@@CA?AVDName@@AADAA_NH@Z 004270c3 f   LIBCMT:undname.obj
 0001:000261e8       ?getArrayType@UnDecorator@@CA?AVDName@@ABV2@@Z 004271e8 f i LIBCMT:undname.obj
 0001:00026347       ?getLexicalFrame@UnDecorator@@CA?AVDName@@XZ 00427347 f i LIBCMT:undname.obj
 0001:00026378       ?getDisplacement@UnDecorator@@CA?AVDName@@XZ 00427378 f i LIBCMT:undname.obj
 0001:0002638a       ?getCallIndex@UnDecorator@@CA?AVDName@@XZ 0042738a f i LIBCMT:undname.obj
 0001:0002639c       ?getGuardNumber@UnDecorator@@CA?AVDName@@XZ 0042739c f i LIBCMT:undname.obj
 0001:000263ae       ?getVfTableType@UnDecorator@@CA?AVDName@@ABV2@@Z 004273ae f i LIBCMT:undname.obj
 0001:000264fe       ?getStringEncoding@UnDecorator@@CA?AVDName@@PADH@Z 004274fe f   LIBCMT:undname.obj
 0001:0002659e       ?getSignedDimension@UnDecorator@@CA?AVDName@@XZ 0042759e f   LIBCMT:undname.obj
 0001:000265ee       ?getTemplateConstant@UnDecorator@@CA?AVDName@@XZ 004275ee f   LIBCMT:undname.obj
 0001:000268a9       ?getPtrRefDataType@UnDecorator@@CA?AVDName@@ABV2@H@Z 004278a9 f i LIBCMT:undname.obj
 0001:00026982       ?getVbTableType@UnDecorator@@CA?AVDName@@ABV2@@Z 00427982 f i LIBCMT:undname.obj
 0001:00026996       ?getTemplateArgumentList@UnDecorator@@CA?AVDName@@XZ 00427996 f   LIBCMT:undname.obj
 0001:00026b4e       ?getOperatorName@UnDecorator@@CA?AVDName@@_NPA_N@Z 00427b4e f i LIBCMT:undname.obj
 0001:000270bd       ?getTemplateName@UnDecorator@@CA?AVDName@@_N@Z 004280bd f   LIBCMT:undname.obj
 0001:00027210       ?getZName@UnDecorator@@CA?AVDName@@_N@Z 00428210 f   LIBCMT:undname.obj
 0001:000273fa       ?getScopedName@UnDecorator@@CA?AVDName@@XZ 004283fa f   LIBCMT:undname.obj
 0001:000274de       ?getECSUName@UnDecorator@@CA?AVDName@@XZ 004284de f i LIBCMT:undname.obj
 0001:000274ed       ?getECSUDataType@UnDecorator@@CA?AVDName@@XZ 004284ed f   LIBCMT:undname.obj
 0001:000275ed       ?getSymbolName@UnDecorator@@CA?AVDName@@XZ 004285ed f i LIBCMT:undname.obj
 0001:00027633       ?getBasedType@UnDecorator@@CA?AVDName@@XZ 00428633 f   LIBCMT:undname.obj
 0001:000276c5       ?composeDeclaration@UnDecorator@@CA?AVDName@@ABV2@@Z 004286c5 f i LIBCMT:undname.obj
 0001:00028207       ?getDecoratedName@UnDecorator@@CA?AVDName@@XZ 00429207 f   LIBCMT:undname.obj
 0001:00028418       ?getScope@UnDecorator@@CA?AVDName@@XZ 00429418 f   LIBCMT:undname.obj
 0001:000286a3       ?getFunctionIndirectType@UnDecorator@@CA?AVDName@@ABV2@@Z 004296a3 f   LIBCMT:undname.obj
 0001:000289e4       ?getDataIndirectType@UnDecorator@@CA?AVDName@@ABV2@D0H@Z 004299e4 f   LIBCMT:undname.obj
 0001:00028ec8       ??BUnDecorator@@QAEPADXZ   00429ec8 f i LIBCMT:undname.obj
 0001:00029014       ?getPtrRefType@UnDecorator@@CA?AVDName@@ABV2@0D@Z 0042a014 f   LIBCMT:undname.obj
 0001:0002912a       ?getPointerType@UnDecorator@@CA?AVDName@@ABV2@0@Z 0042a12a f i LIBCMT:undname.obj
 0001:00029145       ?getPointerTypeArray@UnDecorator@@CA?AVDName@@ABV2@0@Z 0042a145 f i LIBCMT:undname.obj
 0001:00029160       ?getReferenceType@UnDecorator@@CA?AVDName@@ABV2@0@Z 0042a160 f i LIBCMT:undname.obj
 0001:0002917b       ___unDName                 0042a17b f   LIBCMT:undname.obj
 0001:0002921e       ___unDNameEx               0042a21e f   LIBCMT:undname.obj
 0001:000292c1       ?getBasicDataType@UnDecorator@@CA?AVDName@@ABV2@@Z 0042a2c1 f   LIBCMT:undname.obj
 0001:00029648       ?getPrimaryDataType@UnDecorator@@CA?AVDName@@ABV2@@Z 0042a648 f   LIBCMT:undname.obj
 0001:00029786       ?getDataType@UnDecorator@@CA?AVDName@@PAV2@@Z 0042a786 f   LIBCMT:undname.obj
 0001:00029837       ?getExternalDataType@UnDecorator@@CA?AVDName@@ABV2@@Z 0042a837 f i LIBCMT:undname.obj
 0001:0002989b       ___crtMessageBoxA          0042a89b f   LIBCMT:crtmbox.obj
 0001:00029a58       __set_error_mode           0042aa58 f   LIBCMT:errmode.obj
 0001:00029a9e       ___set_app_type            0042aa9e f   LIBCMT:errmode.obj
 0001:00029aa8       ___get_app_type            0042aaa8 f   LIBCMT:errmode.obj
 0001:00029aae       __isalpha_l                0042aaae f i LIBCMT:_ctype.obj
 0001:00029b02       _isalpha                   0042ab02 f i LIBCMT:_ctype.obj
 0001:00029b2d       __isupper_l                0042ab2d f i LIBCMT:_ctype.obj
 0001:00029b7c       _isupper                   0042ab7c f i LIBCMT:_ctype.obj
 0001:00029ba5       __islower_l                0042aba5 f i LIBCMT:_ctype.obj
 0001:00029bf4       _islower                   0042abf4 f i LIBCMT:_ctype.obj
 0001:00029c1d       __isdigit_l                0042ac1d f i LIBCMT:_ctype.obj
 0001:00029c6c       _isdigit                   0042ac6c f i LIBCMT:_ctype.obj
 0001:00029c95       __isxdigit_l               0042ac95 f i LIBCMT:_ctype.obj
 0001:00029ce9       _isxdigit                  0042ace9 f i LIBCMT:_ctype.obj
 0001:00029d14       __isspace_l                0042ad14 f i LIBCMT:_ctype.obj
 0001:00029d63       _isspace                   0042ad63 f i LIBCMT:_ctype.obj
 0001:00029d8c       __ispunct_l                0042ad8c f i LIBCMT:_ctype.obj
 0001:00029ddb       _ispunct                   0042addb f i LIBCMT:_ctype.obj
 0001:00029e04       __isalnum_l                0042ae04 f i LIBCMT:_ctype.obj
 0001:00029e58       _isalnum                   0042ae58 f i LIBCMT:_ctype.obj
 0001:00029e83       __isprint_l                0042ae83 f i LIBCMT:_ctype.obj
 0001:00029ed7       _isprint                   0042aed7 f i LIBCMT:_ctype.obj
 0001:00029f02       __isgraph_l                0042af02 f i LIBCMT:_ctype.obj
 0001:00029f56       _isgraph                   0042af56 f i LIBCMT:_ctype.obj
 0001:00029f81       __iscntrl_l                0042af81 f i LIBCMT:_ctype.obj
 0001:00029fd0       _iscntrl                   0042afd0 f i LIBCMT:_ctype.obj
 0001:00029ff9       ___isascii                 0042aff9 f i LIBCMT:_ctype.obj
 0001:0002a006       ___toascii                 0042b006 f i LIBCMT:_ctype.obj
 0001:0002a00e       __iscsymf_l                0042b00e f i LIBCMT:_ctype.obj
 0001:0002a02d       ___iscsymf                 0042b02d f i LIBCMT:_ctype.obj
 0001:0002a047       __iscsym_l                 0042b047 f i LIBCMT:_ctype.obj
 0001:0002a066       ___iscsym                  0042b066 f i LIBCMT:_ctype.obj
 0001:0002a1bd       ___crtGetLocaleInfoW       0042b1bd f   LIBCMT:w_loc.obj
 0001:0002a335       ___crtGetLocaleInfoA       0042b335 f   LIBCMT:a_loc.obj
 0001:0002a370       __getenv_helper_nolock     0042b370 f   LIBCMT:getenv.obj
 0001:0002a526       _getenv                    0042b526 f   LIBCMT:getenv.obj
 0001:0002a5a9       _getenv_s                  0042b5a9 f   LIBCMT:getenv.obj
 0001:0002a681       __dupenv_s                 0042b681 f   LIBCMT:getenv.obj
 0001:0002a770       __allmul                   0042b770 f   LIBCMT:llmul.obj
 0001:0002a7a4       __isctype_l                0042b7a4 f   LIBCMT:isctype.obj
 0001:0002a85a       __isctype                  0042b85a f   LIBCMT:isctype.obj
 0001:0002a8da       __ismbbkalnum_l            0042b8da f   LIBCMT:ismbbyte.obj
 0001:0002a8ef       __ismbbkalnum              0042b8ef f   LIBCMT:ismbbyte.obj
 0001:0002a902       __ismbbkprint_l            0042b902 f   LIBCMT:ismbbyte.obj
 0001:0002a917       __ismbbkprint              0042b917 f   LIBCMT:ismbbyte.obj
 0001:0002a92a       __ismbbkpunct_l            0042b92a f   LIBCMT:ismbbyte.obj
 0001:0002a93f       __ismbbkpunct              0042b93f f   LIBCMT:ismbbyte.obj
 0001:0002a952       __ismbbalnum_l             0042b952 f   LIBCMT:ismbbyte.obj
 0001:0002a96a       __ismbbalnum               0042b96a f   LIBCMT:ismbbyte.obj
 0001:0002a980       __ismbbalpha_l             0042b980 f   LIBCMT:ismbbyte.obj
 0001:0002a998       __ismbbalpha               0042b998 f   LIBCMT:ismbbyte.obj
 0001:0002a9ae       __ismbbgraph_l             0042b9ae f   LIBCMT:ismbbyte.obj
 0001:0002a9c6       __ismbbgraph               0042b9c6 f   LIBCMT:ismbbyte.obj
 0001:0002a9dc       __ismbbprint_l             0042b9dc f   LIBCMT:ismbbyte.obj
 0001:0002a9f4       __ismbbprint               0042b9f4 f   LIBCMT:ismbbyte.obj
 0001:0002aa0a       __ismbbpunct_l             0042ba0a f   LIBCMT:ismbbyte.obj
 0001:0002aa1f       __ismbbpunct               0042ba1f f   LIBCMT:ismbbyte.obj
 0001:0002aa32       __ismbblead_l              0042ba32 f   LIBCMT:ismbbyte.obj
 0001:0002aa47       __ismbblead                0042ba47 f   LIBCMT:ismbbyte.obj
 0001:0002aa5a       __ismbbtrail_l             0042ba5a f   LIBCMT:ismbbyte.obj
 0001:0002aa6f       __ismbbtrail               0042ba6f f   LIBCMT:ismbbyte.obj
 0001:0002aa82       __ismbbkana_l              0042ba82 f   LIBCMT:ismbbyte.obj
 0001:0002aad5       __ismbbkana                0042bad5 f   LIBCMT:ismbbyte.obj
 0001:0002aae3       ___ansicp                  0042bae3 f   LIBCMT:convrtcp.obj
 0001:0002ab2a       ___convertcp               0042bb2a f   LIBCMT:convrtcp.obj
 0001:0002acdc       ___ascii_stricmp           0042bcdc f   LIBCMT:stricmp.obj
 0001:0002ad11       __stricmp_l                0042bd11 f   LIBCMT:stricmp.obj
 0001:0002ade4       _strcmpi                   0042bde4 f   LIBCMT:stricmp.obj
 0001:0002ade4       __stricmp                  0042bde4 f   LIBCMT:stricmp.obj
 0001:0002ae34       __strnicmp_l               0042be34 f   LIBCMT:strnicmp.obj
 0001:0002af24       __strnicmp                 0042bf24 f   LIBCMT:strnicmp.obj
 0001:0002b05b       __itoa_s                   0042c05b f   LIBCMT:xtoas.obj
 0001:0002b083       __ltoa_s                   0042c083 f   LIBCMT:xtoas.obj
 0001:0002b0a8       __ultoa_s                  0042c0a8 f   LIBCMT:xtoas.obj
 0001:0002b1b6       __i64toa_s                 0042c1b6 f   LIBCMT:xtoas.obj
 0001:0002b1e9       __ui64toa_s                0042c1e9 f   LIBCMT:xtoas.obj
 0001:0002b206       ___initconin               0042c206 f   LIBCMT:initcon.obj
 0001:0002b225       ___initconout              0042c225 f   LIBCMT:initcon.obj
 0001:0002b244       ___termcon                 0042c244 f   LIBCMT:initcon.obj
 0001:0002b271       _wcslen                    0042c271 f   LIBCMT:wcslen.obj
 0001:0002b287       __iswctype_l               0042c287 f   LIBCMT:iswctype.obj
 0001:0002b309       _iswctype                  0042c309 f   LIBCMT:iswctype.obj
 0001:0002b377       _is_wctype                 0042c377 f   LIBCMT:iswctype.obj
 0001:0002b37c       __chsize_nolock            0042c37c f   LIBCMT:chsize.obj
 0001:0002b530       __chsize_s                 0042c530 f   LIBCMT:chsize.obj
 0001:0002b61d       __chsize                   0042c61d f   LIBCMT:chsize.obj
 0001:0002b635       __setmode_nolock           0042c635 f   LIBCMT:setmode.obj
 0001:0002b6f1       __set_fmode                0042c6f1 f   LIBCMT:setmode.obj
 0001:0002b737       __get_fmode                0042c737 f   LIBCMT:setmode.obj
 0001:0002b76b       __setmode                  0042c76b f   LIBCMT:setmode.obj
 0001:0002b862       __fptrap                   0042c862 f   LIBCMT:crt0fp.obj
 0001:0002b86b       _vprintf_helper            0042c86b f   LIBCMT:vprintf.obj
 0001:0002b8fb       __vprintf_l                0042c8fb f   LIBCMT:vprintf.obj
 0001:0002b915       __vprintf_s_l              0042c915 f   LIBCMT:vprintf.obj
 0001:0002b92f       __vprintf_p_l              0042c92f f   LIBCMT:vprintf.obj
 0001:0002b949       _vprintf                   0042c949 f   LIBCMT:vprintf.obj
 0001:0002b961       _vprintf_s                 0042c961 f   LIBCMT:vprintf.obj
 0001:0002b979       __vprintf_p                0042c979 f   LIBCMT:vprintf.obj
 0001:0002b991       __mbsnbicoll_l             0042c991 f   LIBCMT:mbsnbico.obj
 0001:0002ba7d       __mbsnbicoll               0042ca7d f   LIBCMT:mbsnbico.obj
 0001:0002ba94       ___wtomb_environ           0042ca94 f   LIBCMT:wtombenv.obj
 0001:0002bb29       _strnlen                   0042cb29 f   LIBCMT:strlen_s.obj
 0001:0002bb43       __tolower                  0042cb43 f   LIBCMT:tolower.obj
 0001:0002bb4b       __tolower_l                0042cb4b f   LIBCMT:tolower.obj
 0001:0002bc62       _tolower                   0042cc62 f   LIBCMT:tolower.obj
 0001:0002bc90       ___ascii_strnicmp          0042cc90 f   LIBCMT:_strnicm.obj
 0001:0002bf15       ___crtGetStringTypeW       0042cf15 f   LIBCMT:w_str.obj
 0001:0002c2f6       ___crtCompareStringA       0042d2f6 f   LIBCMT:a_cmp.obj
 0001:0002c336       __strnicoll_l              0042d336 f   LIBCMT:strnicol.obj
 0001:0002c42e       __strnicoll                0042d42e f   LIBCMT:strnicol.obj
 0001:0002c4ff       ___crtsetenv               0042d4ff f   LIBCMT:setenv.obj
 0001:0002c74b       __strdup                   0042d74b f   LIBCMT:strdup.obj
 0001:0002c79b       __mbschr_l                 0042d79b f   LIBCMT:mbschr.obj
 0001:0002c855       __mbschr                   0042d855 f   LIBCMT:mbschr.obj
 0001:0002c880       _strchr                    0042d880 f   LIBCMT:strchr.obj
 0001:0002c886       ___from_strstr_to_strchr   0042d886     LIBCMT:strchr.obj
 0001:0002c93e       ??0invalid_argument@std@@QAE@ABV?$basic_string@DU?$char_traits@D@std@@V?$allocator@D@2@@1@@Z 0042d93e f i libcpmt:string.obj
 0001:0002c956       ??1invalid_argument@std@@UAE@XZ 0042d956 f i libcpmt:string.obj
 0001:0002c961       ??_Einvalid_argument@std@@UAEPAXI@Z 0042d961 f i libcpmt:string.obj
 0001:0002c961       ??_Ginvalid_argument@std@@UAEPAXI@Z 0042d961 f i libcpmt:string.obj
 0001:0002c983       ?_Xlen@_String_base@std@@SAXXZ 0042d983 f   libcpmt:string.obj
 0001:0002c9c2       ?_Xran@_String_base@std@@SAXXZ 0042d9c2 f   libcpmt:string.obj
 0001:0002ca01       ?_Xinvarg@_String_base@std@@SAXXZ 0042da01 f   libcpmt:string.obj
 0001:0002ca40       ??0invalid_argument@std@@QAE@ABV01@@Z 0042da40 f i libcpmt:string.obj
 0001:0002ca60       ?_set_com_error_handler@@YGXP6GXJPAUIErrorInfo@@@Z@Z 0042da60 f   comsuppw:comsupp.obj
 0001:0002ca70       ?_com_issue_error@@YGXJ@Z  0042da70 f   comsuppw:comsupp.obj
 0001:0002ca80       ?_com_issue_errorex@@YGXJPAUIUnknown@@ABU_GUID@@@Z 0042da80 f   comsuppw:comsupp.obj
 0001:0002cb00       ?_com_dispatch_method@@YAJPAUIDispatch@@JGGPAXPB_WZZ 0042db00 f   comsuppw:comsupp.obj
 0001:0002cb50       ?_com_dispatch_propget@@YGJPAUIDispatch@@JGPAX@Z 0042db50 f   comsuppw:comsupp.obj
 0001:0002cb80       ?_com_dispatch_propput@@YAJPAUIDispatch@@JGZZ 0042db80 f   comsuppw:comsupp.obj
 0001:0002cbf0       ?ConvertStringToBSTR@_com_util@@YGPA_WPBD@Z 0042dbf0 f   comsuppw:comutil.obj
 0001:0002cd80       ?ConvertBSTRToString@_com_util@@YGPADPA_W@Z 0042dd80 f   comsuppw:comutil.obj
 0001:0002cee0       ??0_com_error@@QAE@JPAUIErrorInfo@@_N@Z 0042dee0 f i comsuppw:comraise.obj
 0001:0002cf20       ?_com_raise_error@@YGXJPAUIErrorInfo@@@Z 0042df20 f   comsuppw:comraise.obj
 0001:0002cf60       ??0_com_error@@QAE@ABV0@@Z 0042df60 f i comsuppw:comraise.obj
 0001:0002cfa0       ?_com_invoke_helper@@YAJPAUIDispatch@@JGGPAXPB_WPADPAPAUIErrorInfo@@@Z 0042dfa0 f   comsuppw:invkprxy.obj
 0001:0002d580       ?_com_dispatch_raw_method@@YAJPAUIDispatch@@JGGPAXPB_WZZ 0042e580 f   comsuppw:invkprxy.obj
 0001:0002d5d0       ?_com_dispatch_raw_propget@@YGJPAUIDispatch@@JGPAX@Z 0042e5d0 f   comsuppw:invkprxy.obj
 0001:0002d600       ?_com_dispatch_raw_propput@@YAJPAUIDispatch@@JGZZ 0042e600 f   comsuppw:invkprxy.obj
 0001:0002d670       ?WCodeToHRESULT@_com_error@@SAJG@Z 0042e670 f i comsuppw:invkerr.obj
 0001:0002d690       ?_com_handle_excepinfo@@YGJAAUtagEXCEPINFO@@PAPAUIErrorInfo@@@Z 0042e690 f   comsuppw:invkerr.obj
 0001:0002d79e       _RtlUnwind@16              0042e79e f   kernel32:KERNEL32.dll
 0001:0002d7a4       _ExitThread@4              0042e7a4 f   kernel32:KERNEL32.dll
 0001:0002d7aa       _GetCurrentThreadId@0      0042e7aa f   kernel32:KERNEL32.dll
 0001:0002d7b0       _CreateThread@24           0042e7b0 f   kernel32:KERNEL32.dll
 0001:0002d7b6       _TerminateProcess@8        0042e7b6 f   kernel32:KERNEL32.dll
 0001:0002d7bc       _GetCurrentProcess@0       0042e7bc f   kernel32:KERNEL32.dll
 0001:0002d7c2       _UnhandledExceptionFilter@4 0042e7c2 f   kernel32:KERNEL32.dll
 0001:0002d7c8       _SetUnhandledExceptionFilter@4 0042e7c8 f   kernel32:KERNEL32.dll
 0001:0002d7ce       _IsDebuggerPresent@0       0042e7ce f   kernel32:KERNEL32.dll
 0001:0002d7d4       _RaiseException@16         0042e7d4 f   kernel32:KERNEL32.dll
 0001:0002d7da       _GetSystemTimeAsFileTime@4 0042e7da f   kernel32:KERNEL32.dll
 0001:0002d7e0       _GetCommandLineA@0         0042e7e0 f   kernel32:KERNEL32.dll
 0001:0002d7e6       _GetVersionExA@4           0042e7e6 f   kernel32:KERNEL32.dll
 0001:0002d7ec       _GetStartupInfoA@4         0042e7ec f   kernel32:KERNEL32.dll
 0001:0002d7f2       _GetCPInfo@8               0042e7f2 f   kernel32:KERNEL32.dll
 0001:0002d7f8       _InterlockedIncrement@4    0042e7f8 f   kernel32:KERNEL32.dll
 0001:0002d7fe       _GetACP@0                  0042e7fe f   kernel32:KERNEL32.dll
 0001:0002d804       _GetOEMCP@0                0042e804 f   kernel32:KERNEL32.dll
 0001:0002d80a       _IsValidCodePage@4         0042e80a f   kernel32:KERNEL32.dll
 0001:0002d810       _GetModuleHandleA@4        0042e810 f   kernel32:KERNEL32.dll
 0001:0002d816       _TlsGetValue@4             0042e816 f   kernel32:KERNEL32.dll
 0001:0002d81c       _TlsAlloc@0                0042e81c f   kernel32:KERNEL32.dll
 0001:0002d822       _TlsSetValue@8             0042e822 f   kernel32:KERNEL32.dll
 0001:0002d828       _TlsFree@4                 0042e828 f   kernel32:KERNEL32.dll
 0001:0002d82e       _SetLastError@4            0042e82e f   kernel32:KERNEL32.dll
 0001:0002d834       _GetCurrentThread@0        0042e834 f   kernel32:KERNEL32.dll
 0001:0002d83a       _WideCharToMultiByte@32    0042e83a f   kernel32:KERNEL32.dll
 0001:0002d840       _GetConsoleCP@0            0042e840 f   kernel32:KERNEL32.dll
 0001:0002d846       _GetConsoleMode@8          0042e846 f   kernel32:KERNEL32.dll
 0001:0002d84c       _ReadFile@20               0042e84c f   kernel32:KERNEL32.dll
 0001:0002d852       _SetHandleCount@4          0042e852 f   kernel32:KERNEL32.dll
 0001:0002d858       _GetStdHandle@4            0042e858 f   kernel32:KERNEL32.dll
 0001:0002d85e       _GetFileType@4             0042e85e f   kernel32:KERNEL32.dll
 0001:0002d864       _SetFilePointer@16         0042e864 f   kernel32:KERNEL32.dll
 0001:0002d86a       _ExitProcess@4             0042e86a f   kernel32:KERNEL32.dll
 0001:0002d870       _GetTimeZoneInformation@4  0042e870 f   kernel32:KERNEL32.dll
 0001:0002d876       _HeapSize@12               0042e876 f   kernel32:KERNEL32.dll
 0001:0002d87c       _HeapDestroy@4             0042e87c f   kernel32:KERNEL32.dll
 0001:0002d882       _HeapCreate@12             0042e882 f   kernel32:KERNEL32.dll
 0001:0002d888       _VirtualFree@12            0042e888 f   kernel32:KERNEL32.dll
 0001:0002d88e       _FatalAppExitA@8           0042e88e f   kernel32:KERNEL32.dll
 0001:0002d894       _VirtualAlloc@16           0042e894 f   kernel32:KERNEL32.dll
 0001:0002d89a       _HeapReAlloc@16            0042e89a f   kernel32:KERNEL32.dll
 0001:0002d8a0       _FreeEnvironmentStringsA@4 0042e8a0 f   kernel32:KERNEL32.dll
 0001:0002d8a6       _GetEnvironmentStrings@0   0042e8a6 f   kernel32:KERNEL32.dll
 0001:0002d8ac       _FreeEnvironmentStringsW@4 0042e8ac f   kernel32:KERNEL32.dll
 0001:0002d8b2       _GetEnvironmentStringsW@0  0042e8b2 f   kernel32:KERNEL32.dll
 0001:0002d8b8       _QueryPerformanceCounter@4 0042e8b8 f   kernel32:KERNEL32.dll
 0001:0002d8be       _GetCurrentProcessId@0     0042e8be f   kernel32:KERNEL32.dll
 0001:0002d8c4       _LCMapStringA@24           0042e8c4 f   kernel32:KERNEL32.dll
 0001:0002d8ca       _LCMapStringW@24           0042e8ca f   kernel32:KERNEL32.dll
 0001:0002d8d0       _GetStringTypeA@20         0042e8d0 f   kernel32:KERNEL32.dll
 0001:0002d8d6       _GetStringTypeW@16         0042e8d6 f   kernel32:KERNEL32.dll
 0001:0002d8dc       _GetTimeFormatA@24         0042e8dc f   kernel32:KERNEL32.dll
 0001:0002d8e2       _GetDateFormatA@24         0042e8e2 f   kernel32:KERNEL32.dll
 0001:0002d8e8       _GetUserDefaultLCID@0      0042e8e8 f   kernel32:KERNEL32.dll
 0001:0002d8ee       _GetLocaleInfoA@16         0042e8ee f   kernel32:KERNEL32.dll
 0001:0002d8f4       _EnumSystemLocalesA@8      0042e8f4 f   kernel32:KERNEL32.dll
 0001:0002d8fa       _IsValidLocale@8           0042e8fa f   kernel32:KERNEL32.dll
 0001:0002d900       _WriteConsoleA@20          0042e900 f   kernel32:KERNEL32.dll
 0001:0002d906       _GetConsoleOutputCP@0      0042e906 f   kernel32:KERNEL32.dll
 0001:0002d90c       _WriteConsoleW@20          0042e90c f   kernel32:KERNEL32.dll
 0001:0002d912       _SetStdHandle@8            0042e912 f   kernel32:KERNEL32.dll
 0001:0002d918       _FlushFileBuffers@4        0042e918 f   kernel32:KERNEL32.dll
 0001:0002d91e       _SetConsoleCtrlHandler@8   0042e91e f   kernel32:KERNEL32.dll
 0001:0002d924       _InterlockedExchange@8     0042e924 f   kernel32:KERNEL32.dll
 0001:0002d92a       _GetLocaleInfoW@16         0042e92a f   kernel32:KERNEL32.dll
 0001:0002d930       _SetEndOfFile@4            0042e930 f   kernel32:KERNEL32.dll
 0001:0002d936       _CompareStringA@24         0042e936 f   kernel32:KERNEL32.dll
 0001:0002d93c       _CompareStringW@24         0042e93c f   kernel32:KERNEL32.dll
 0001:0002d942       _SetEnvironmentVariableA@8 0042e942 f   kernel32:KERNEL32.dll
 0001:0002d948       _lstrlenW@4                0042e948 f   kernel32:KERNEL32.dll
 0001:0002d94e       _GetErrorInfo@8            0042e94e f   oleaut32:OLEAUT32.dll
 0001:0002d954       _SetErrorInfo@8            0042e954 f   oleaut32:OLEAUT32.dll
 0001:0002d95a       _CreateErrorInfo@4         0042e95a f   oleaut32:OLEAUT32.dll
 0001:0002d960       __fpclear                  0042e960 f   LIBCMT:fpinit.obj
 0001:0002d961       __cfltcvt_init             0042e961 f   LIBCMT:fpinit.obj
 0001:0002d9c1       ___setfflag                0042e9c1 f   LIBCMT:fpinit.obj
 0001:0002d9d1       __fpmath                   0042e9d1 f   LIBCMT:fpinit.obj
 0001:0002d9ef       ?strrchr@@YAPADPADH@Z      0042e9ef f i LIBCMT:cvt.obj
 0001:0002d9f4       __forcdecpt_l              0042e9f4 f   LIBCMT:cvt.obj
 0001:0002da65       __cropzeros_l              0042ea65 f   LIBCMT:cvt.obj
 0001:0002dae5       __positive                 0042eae5 f   LIBCMT:cvt.obj
 0001:0002dafb       __fassign_l                0042eafb f   LIBCMT:cvt.obj
 0001:0002db3b       __fassign                  0042eb3b f   LIBCMT:cvt.obj
 0001:0002db6f       __forcdecpt                0042eb6f f   LIBCMT:cvt.obj
 0001:0002db7d       __cropzeros                0042eb7d f   LIBCMT:cvt.obj
 0001:0002dcf8       __cftoe_l                  0042ecf8 f   LIBCMT:cvt.obj
 0001:0002ddc6       __cftoe                    0042edc6 f   LIBCMT:cvt.obj
 0001:0002dde4       __cftoa_l                  0042ede4 f   LIBCMT:cvt.obj
 0001:0002e155       __cftoa                    0042f155 f   LIBCMT:cvt.obj
 0001:0002e268       __cftof_l                  0042f268 f   LIBCMT:cvt.obj
 0001:0002e321       __cftof                    0042f321 f   LIBCMT:cvt.obj
 0001:0002e33c       __cftog_l                  0042f33c f   LIBCMT:cvt.obj
 0001:0002e434       __cftog                    0042f434 f   LIBCMT:cvt.obj
 0001:0002e452       __cfltcvt_l                0042f452 f   LIBCMT:cvt.obj
 0001:0002e4d8       __cfltcvt                  0042f4d8 f   LIBCMT:cvt.obj
 0001:0002e4f9       __setdefaultprecision      0042f4f9 f   LIBCMT:fp8.obj
 0001:0002e522       __ms_p5_test_fdiv          0042f522 f   LIBCMT:testfdiv.obj
 0001:0002e55e       __ms_p5_mp_test_fdiv       0042f55e f   LIBCMT:testfdiv.obj
 0001:0002e590       _strrchr                   0042f590 f   LIBCMT:strrchr.obj
 0001:0002e5bd       __atodbl_l                 0042f5bd f   LIBCMT:atodbl.obj
 0001:0002e663       __atodbl                   0042f663 f   LIBCMT:atodbl.obj
 0001:0002e676       __atoldbl_l                0042f676 f   LIBCMT:atodbl.obj
 0001:0002e71d       __atoldbl                  0042f71d f   LIBCMT:atodbl.obj
 0001:0002e730       __atoflt_l                 0042f730 f   LIBCMT:atodbl.obj
 0001:0002e7d6       __atoflt                   0042f7d6 f   LIBCMT:atodbl.obj
 0001:0002e7e9       __set_output_format        0042f7e9 f   LIBCMT:outputformat.obj
 0001:0002e820       __get_output_format        0042f820 f   LIBCMT:outputformat.obj
 0001:0002e826       __fptostr                  0042f826 f   LIBCMT:_fptostr.obj
 0001:0002e8e3       ___dtold                   0042f8e3 f   LIBCMT:cfout.obj
 0001:0002e99e       __fltout2                  0042f99e f   LIBCMT:cfout.obj
 0001:0002ea30       __alldvrm                  0042fa30 f   LIBCMT:lldvrm.obj
 0001:0002eb10       __aullshr                  0042fb10 f   LIBCMT:ullshr.obj
 0001:0002eb2f       __controlfp_s              0042fb2f f   LIBCMT:contrlfp.obj
 0001:0002eb99       ___addl                    0042fb99 f i LIBCMT:intrncvt.obj
 0001:0002ebba       __ZeroTail                 0042fbba f i LIBCMT:intrncvt.obj
 0001:0002ebff       __IncMan                   0042fbff f i LIBCMT:intrncvt.obj
 0001:0002ec69       __RoundMan                 0042fc69 f i LIBCMT:intrncvt.obj
 0001:0002ed57       __CopyMan                  0042fd57 f i LIBCMT:intrncvt.obj
 0001:0002ed72       __FillZeroMan              0042fd72 f i LIBCMT:intrncvt.obj
 0001:0002ed7e       __IsZeroMan                0042fd7e f i LIBCMT:intrncvt.obj
 0001:0002ed97       __ShrMan                   0042fd97 f i LIBCMT:intrncvt.obj
 0001:0002ee2f       __ld12cvt                  0042fe2f f i LIBCMT:intrncvt.obj
 0001:0002f358       __ld12tod                  00430358 f   LIBCMT:intrncvt.obj
 0001:0002f89a       __ld12tof                  0043089a f   LIBCMT:intrncvt.obj
 0001:0002fddc       __ld12told                 00430ddc f   LIBCMT:intrncvt.obj
 0001:0002fe9e       ___shl_12                  00430e9e f i LIBCMT:strgtold.obj
 0001:0002fecc       ___shr_12                  00430ecc f i LIBCMT:strgtold.obj
 0001:0002fef9       ___ld12mul                 00430ef9 f i LIBCMT:strgtold.obj
 0001:0003016d       ___multtenpow12            0043116d f i LIBCMT:strgtold.obj
 0001:00030476       ___strgtold12_l            00431476 f   LIBCMT:strgtold.obj
 0001:00030b36       ___STRINGTOLD_L            00431b36 f   LIBCMT:strgtold.obj
 0001:00030b8f       ___add_12                  00431b8f f i LIBCMT:x10fout.obj
 0001:00030bfc       _$I10_OUTPUT               00431bfc f   LIBCMT:x10fout.obj
 0001:000314c2       __set_controlfp            004324c2 f   LIBCMT:ieee87.obj
 0001:00031818       __statusfp                 00432818 f   LIBCMT:ieee87.obj
 0001:000318a8       __fpreset                  004328a8 f   LIBCMT:ieee87.obj
 0001:00031ad8       __statusfp2                00432ad8 f   LIBCMT:ieee87.obj
 0001:00031b30       __clearfp                  00432b30 f   LIBCMT:ieee87.obj
 0001:00031c07       ___control87_2             00432c07 f   LIBCMT:ieee87.obj
 0001:00031f11       __control87                00432f11 f i LIBCMT:ieee87.obj
 0001:00032214       __controlfp                00433214 f   LIBCMT:ieee87.obj
 0001:0003251d       ___mtold12                 0043351d f   LIBCMT:mantold.obj
 0001:000326e9       __statfp                   004336e9 f   LIBCMT:fpctrl.obj
 0001:000326f4       __clrfp                    004336f4 f   LIBCMT:fpctrl.obj
 0001:00032700       __ctrlfp                   00433700 f   LIBCMT:fpctrl.obj
 0001:00032727       __set_statfp               00433727 f   LIBCMT:fpctrl.obj
 0001:0003277d       ___get_fpsr_sse2           0043377d f   LIBCMT:fpctrl.obj
 0001:00032799       ___set_fpsr_sse2           00433799 f   LIBCMT:fpctrl.obj
 0001:0003280b       ___fclrf_sse2              0043380b f   LIBCMT:fpctrl.obj
 0001:00032823       ___statfp_sse2             00433823 f   LIBCMT:fpctrl.obj
 0001:00032836       ___clrfp_sse2              00433836 f   LIBCMT:fpctrl.obj
 0001:0003284e       ___ctrlfp_sse2             0043384e f   LIBCMT:fpctrl.obj
 0001:00032882       ___set_statfp_sse2         00433882 f   LIBCMT:fpctrl.obj
 0002:00000000       __imp__LCMapStringA@24     00435000     kernel32:KERNEL32.dll
 0002:00000004       __imp__GetFileType@4       00435004     kernel32:KERNEL32.dll
 0002:00000008       __imp__GetStdHandle@4      00435008     kernel32:KERNEL32.dll
 0002:0000000c       __imp__lstrlenW@4          0043500c     kernel32:KERNEL32.dll
 0002:00000010       __imp__SetEnvironmentVariableA@8 00435010     kernel32:KERNEL32.dll
 0002:00000014       __imp__CompareStringW@24   00435014     kernel32:KERNEL32.dll
 0002:00000018       __imp__CompareStringA@24   00435018     kernel32:KERNEL32.dll
 0002:0000001c       __imp__SetEndOfFile@4      0043501c     kernel32:KERNEL32.dll
 0002:00000020       __imp__GetLocaleInfoW@16   00435020     kernel32:KERNEL32.dll
 0002:00000024       __imp__InterlockedExchange@8 00435024     kernel32:KERNEL32.dll
 0002:00000028       __imp__WaitForSingleObject@8 00435028     kernel32:KERNEL32.dll
 0002:0000002c       __imp__CloseHandle@4       0043502c     kernel32:KERNEL32.dll
 0002:00000030       __imp__TerminateThread@8   00435030     kernel32:KERNEL32.dll
 0002:00000034       __imp__CreateEventA@16     00435034     kernel32:KERNEL32.dll
 0002:00000038       __imp__SetEvent@4          00435038     kernel32:KERNEL32.dll
 0002:0000003c       __imp__ResetEvent@4        0043503c     kernel32:KERNEL32.dll
 0002:00000040       __imp__GetModuleFileNameA@12 00435040     kernel32:KERNEL32.dll
 0002:00000044       __imp__CreateMutexA@12     00435044     kernel32:KERNEL32.dll
 0002:00000048       __imp__ReleaseMutex@4      00435048     kernel32:KERNEL32.dll
 0002:0000004c       __imp__InitializeCriticalSection@4 0043504c     kernel32:KERNEL32.dll
 0002:00000050       __imp__EnterCriticalSection@4 00435050     kernel32:KERNEL32.dll
 0002:00000054       __imp__LeaveCriticalSection@4 00435054     kernel32:KERNEL32.dll
 0002:00000058       __imp__DeleteCriticalSection@4 00435058     kernel32:KERNEL32.dll
 0002:0000005c       __imp__GetFileAttributesA@4 0043505c     kernel32:KERNEL32.dll
 0002:00000060       __imp__CreateDirectoryA@8  00435060     kernel32:KERNEL32.dll
 0002:00000064       __imp__CreateFileA@28      00435064     kernel32:KERNEL32.dll
 0002:00000068       __imp__GetLocalTime@4      00435068     kernel32:KERNEL32.dll
 0002:0000006c       __imp__GetFileSize@8       0043506c     kernel32:KERNEL32.dll
 0002:00000070       __imp__WriteFile@20        00435070     kernel32:KERNEL32.dll
 0002:00000074       __imp__FreeLibrary@4       00435074     kernel32:KERNEL32.dll
 0002:00000078       __imp__GetProcAddress@8    00435078     kernel32:KERNEL32.dll
 0002:0000007c       __imp__LoadLibraryA@4      0043507c     kernel32:KERNEL32.dll
 0002:00000080       __imp__HeapFree@12         00435080     kernel32:KERNEL32.dll
 0002:00000084       __imp__GetProcessHeap@0    00435084     kernel32:KERNEL32.dll
 0002:00000088       __imp__GetLastError@0      00435088     kernel32:KERNEL32.dll
 0002:0000008c       __imp__MultiByteToWideChar@24 0043508c     kernel32:KERNEL32.dll
 0002:00000090       __imp__lstrlenA@4          00435090     kernel32:KERNEL32.dll
 0002:00000094       __imp__InterlockedDecrement@4 00435094     kernel32:KERNEL32.dll
 0002:00000098       __imp__HeapAlloc@12        00435098     kernel32:KERNEL32.dll
 0002:0000009c       __imp__FormatMessageA@28   0043509c     kernel32:KERNEL32.dll
 0002:000000a0       __imp__Sleep@4             004350a0     kernel32:KERNEL32.dll
 0002:000000a4       __imp__GetTickCount@0      004350a4     kernel32:KERNEL32.dll
 0002:000000a8       __imp__SetConsoleCtrlHandler@8 004350a8     kernel32:KERNEL32.dll
 0002:000000ac       __imp__FlushFileBuffers@4  004350ac     kernel32:KERNEL32.dll
 0002:000000b0       __imp__SetStdHandle@8      004350b0     kernel32:KERNEL32.dll
 0002:000000b4       __imp__WriteConsoleW@20    004350b4     kernel32:KERNEL32.dll
 0002:000000b8       __imp__GetConsoleOutputCP@0 004350b8     kernel32:KERNEL32.dll
 0002:000000bc       __imp__WriteConsoleA@20    004350bc     kernel32:KERNEL32.dll
 0002:000000c0       __imp__IsValidLocale@8     004350c0     kernel32:KERNEL32.dll
 0002:000000c4       __imp__EnumSystemLocalesA@8 004350c4     kernel32:KERNEL32.dll
 0002:000000c8       __imp__GetLocaleInfoA@16   004350c8     kernel32:KERNEL32.dll
 0002:000000cc       __imp__GetUserDefaultLCID@0 004350cc     kernel32:KERNEL32.dll
 0002:000000d0       __imp__GetDateFormatA@24   004350d0     kernel32:KERNEL32.dll
 0002:000000d4       __imp__GetTimeFormatA@24   004350d4     kernel32:KERNEL32.dll
 0002:000000d8       __imp__GetStringTypeW@16   004350d8     kernel32:KERNEL32.dll
 0002:000000dc       __imp__GetStringTypeA@20   004350dc     kernel32:KERNEL32.dll
 0002:000000e0       __imp__LCMapStringW@24     004350e0     kernel32:KERNEL32.dll
 0002:000000e4       __imp__SetFilePointer@16   004350e4     kernel32:KERNEL32.dll
 0002:000000e8       __imp__GetCurrentProcessId@0 004350e8     kernel32:KERNEL32.dll
 0002:000000ec       __imp__QueryPerformanceCounter@4 004350ec     kernel32:KERNEL32.dll
 0002:000000f0       __imp__GetEnvironmentStringsW@0 004350f0     kernel32:KERNEL32.dll
 0002:000000f4       __imp__FreeEnvironmentStringsW@4 004350f4     kernel32:KERNEL32.dll
 0002:000000f8       __imp__GetEnvironmentStrings@0 004350f8     kernel32:KERNEL32.dll
 0002:000000fc       __imp__FreeEnvironmentStringsA@4 004350fc     kernel32:KERNEL32.dll
 0002:00000100       __imp__HeapReAlloc@16      00435100     kernel32:KERNEL32.dll
 0002:00000104       __imp__VirtualAlloc@16     00435104     kernel32:KERNEL32.dll
 0002:00000108       __imp__FatalAppExitA@8     00435108     kernel32:KERNEL32.dll
 0002:0000010c       __imp__VirtualFree@12      0043510c     kernel32:KERNEL32.dll
 0002:00000110       __imp__HeapCreate@12       00435110     kernel32:KERNEL32.dll
 0002:00000114       __imp__HeapDestroy@4       00435114     kernel32:KERNEL32.dll
 0002:00000118       __imp__HeapSize@12         00435118     kernel32:KERNEL32.dll
 0002:0000011c       __imp__GetTimeZoneInformation@4 0043511c     kernel32:KERNEL32.dll
 0002:00000120       __imp__ExitProcess@4       00435120     kernel32:KERNEL32.dll
 0002:00000124       __imp__SetHandleCount@4    00435124     kernel32:KERNEL32.dll
 0002:00000128       __imp__ReadFile@20         00435128     kernel32:KERNEL32.dll
 0002:0000012c       __imp__GetConsoleMode@8    0043512c     kernel32:KERNEL32.dll
 0002:00000130       __imp__GetConsoleCP@0      00435130     kernel32:KERNEL32.dll
 0002:00000134       __imp__WideCharToMultiByte@32 00435134     kernel32:KERNEL32.dll
 0002:00000138       __imp__GetCurrentThread@0  00435138     kernel32:KERNEL32.dll
 0002:0000013c       __imp__SetLastError@4      0043513c     kernel32:KERNEL32.dll
 0002:00000140       __imp__TlsFree@4           00435140     kernel32:KERNEL32.dll
 0002:00000144       __imp__RtlUnwind@16        00435144     kernel32:KERNEL32.dll
 0002:00000148       __imp__ExitThread@4        00435148     kernel32:KERNEL32.dll
 0002:0000014c       __imp__GetCurrentThreadId@0 0043514c     kernel32:KERNEL32.dll
 0002:00000150       __imp__CreateThread@24     00435150     kernel32:KERNEL32.dll
 0002:00000154       __imp__TerminateProcess@8  00435154     kernel32:KERNEL32.dll
 0002:00000158       __imp__GetCurrentProcess@0 00435158     kernel32:KERNEL32.dll
 0002:0000015c       __imp__UnhandledExceptionFilter@4 0043515c     kernel32:KERNEL32.dll
 0002:00000160       __imp__SetUnhandledExceptionFilter@4 00435160     kernel32:KERNEL32.dll
 0002:00000164       __imp__IsDebuggerPresent@0 00435164     kernel32:KERNEL32.dll
 0002:00000168       __imp__RaiseException@16   00435168     kernel32:KERNEL32.dll
 0002:0000016c       __imp__GetSystemTimeAsFileTime@4 0043516c     kernel32:KERNEL32.dll
 0002:00000170       __imp__GetCommandLineA@0   00435170     kernel32:KERNEL32.dll
 0002:00000174       __imp__GetVersionExA@4     00435174     kernel32:KERNEL32.dll
 0002:00000178       __imp__GetStartupInfoA@4   00435178     kernel32:KERNEL32.dll
 0002:0000017c       __imp__GetCPInfo@8         0043517c     kernel32:KERNEL32.dll
 0002:00000180       __imp__InterlockedIncrement@4 00435180     kernel32:KERNEL32.dll
 0002:00000184       __imp__GetACP@0            00435184     kernel32:KERNEL32.dll
 0002:00000188       __imp__GetOEMCP@0          00435188     kernel32:KERNEL32.dll
 0002:0000018c       __imp__IsValidCodePage@4   0043518c     kernel32:KERNEL32.dll
 0002:00000190       __imp__GetModuleHandleA@4  00435190     kernel32:KERNEL32.dll
 0002:00000194       __imp__TlsGetValue@4       00435194     kernel32:KERNEL32.dll
 0002:00000198       __imp__TlsAlloc@0          00435198     kernel32:KERNEL32.dll
 0002:0000019c       __imp__TlsSetValue@8       0043519c     kernel32:KERNEL32.dll
 0002:000001a0       \177KERNEL32_NULL_THUNK_DATA 004351a0     kernel32:KERNEL32.dll
 0002:000001a4       __imp__VariantChangeType@16 004351a4     oleaut32:OLEAUT32.dll
 0002:000001a8       __imp__SysFreeString@4     004351a8     oleaut32:OLEAUT32.dll
 0002:000001ac       __imp__CreateErrorInfo@4   004351ac     oleaut32:OLEAUT32.dll
 0002:000001b0       __imp__SysAllocStringByteLen@8 004351b0     oleaut32:OLEAUT32.dll
 0002:000001b4       __imp__SysAllocString@4    004351b4     oleaut32:OLEAUT32.dll
 0002:000001b8       __imp__VariantClear@4      004351b8     oleaut32:OLEAUT32.dll
 0002:000001bc       __imp__VariantInit@4       004351bc     oleaut32:OLEAUT32.dll
 0002:000001c0       __imp__GetErrorInfo@8      004351c0     oleaut32:OLEAUT32.dll
 0002:000001c4       __imp__SetErrorInfo@8      004351c4     oleaut32:OLEAUT32.dll
 0002:000001c8       __imp__SysStringByteLen@4  004351c8     oleaut32:OLEAUT32.dll
 0002:000001cc       \177OLEAUT32_NULL_THUNK_DATA 004351cc     oleaut32:OLEAUT32.dll
 0002:000001d0       __imp__MessageBoxA@16      004351d0     user32:USER32.dll
 0002:000001d4       __imp__SetTimer@16         004351d4     user32:USER32.dll
 0002:000001d8       __imp__UpdateWindow@4      004351d8     user32:USER32.dll
 0002:000001dc       __imp__ShowWindow@8        004351dc     user32:USER32.dll
 0002:000001e0       __imp__GetClientRect@8     004351e0     user32:USER32.dll
 0002:000001e4       __imp__CreateWindowExA@48  004351e4     user32:USER32.dll
 0002:000001e8       __imp__EndDialog@8         004351e8     user32:USER32.dll
 0002:000001ec       __imp__LoadStringA@16      004351ec     user32:USER32.dll
 0002:000001f0       __imp__GetMessageA@16      004351f0     user32:USER32.dll
 0002:000001f4       __imp__TranslateMessage@4  004351f4     user32:USER32.dll
 0002:000001f8       __imp__DispatchMessageA@4  004351f8     user32:USER32.dll
 0002:000001fc       __imp__LoadIconA@8         004351fc     user32:USER32.dll
 0002:00000200       __imp__LoadCursorA@8       00435200     user32:USER32.dll
 0002:00000204       __imp__RegisterClassExA@4  00435204     user32:USER32.dll
 0002:00000208       __imp__BeginPaint@8        00435208     user32:USER32.dll
 0002:0000020c       __imp__EndPaint@8          0043520c     user32:USER32.dll
 0002:00000210       __imp__MoveWindow@24       00435210     user32:USER32.dll
 0002:00000214       __imp__KillTimer@8         00435214     user32:USER32.dll
 0002:00000218       __imp__PostQuitMessage@4   00435218     user32:USER32.dll
 0002:0000021c       __imp__DefWindowProcA@16   0043521c     user32:USER32.dll
 0002:00000220       __imp__DestroyWindow@4     00435220     user32:USER32.dll
 0002:00000224       __imp__DialogBoxParamA@20  00435224     user32:USER32.dll
 0002:00000228       __imp__SendMessageA@16     00435228     user32:USER32.dll
 0002:0000022c       \177USER32_NULL_THUNK_DATA 0043522c     user32:USER32.dll
 0002:00000230       __imp__socket@12           00435230     Ws2_32:WS2_32.dll
 0002:00000234       __imp__htons@4             00435234     Ws2_32:WS2_32.dll
 0002:00000238       __imp__htonl@4             00435238     Ws2_32:WS2_32.dll
 0002:0000023c       __imp__bind@12             0043523c     Ws2_32:WS2_32.dll
 0002:00000240       __imp__closesocket@4       00435240     Ws2_32:WS2_32.dll
 0002:00000244       __imp__WSAStartup@8        00435244     Ws2_32:WS2_32.dll
 0002:00000248       __imp__WSACleanup@0        00435248     Ws2_32:WS2_32.dll
 0002:0000024c       __imp__inet_addr@4         0043524c     Ws2_32:WS2_32.dll
 0002:00000250       __imp__inet_ntoa@4         00435250     Ws2_32:WS2_32.dll
 0002:00000254       \177WS2_32_NULL_THUNK_DATA 00435254     Ws2_32:WS2_32.dll
 0002:00000258       __imp__CoCreateInstance@20 00435258     ole32:ole32.dll
 0002:0000025c       __imp__CLSIDFromProgID@8   0043525c     ole32:ole32.dll
 0002:00000260       __imp__CLSIDFromString@8   00435260     ole32:ole32.dll
 0002:00000264       __imp__CoUninitialize@0    00435264     ole32:ole32.dll
 0002:00000268       __imp__CoInitializeEx@8    00435268     ole32:ole32.dll
 0002:0000026c       __imp__OleRun@4            0043526c     ole32:ole32.dll
 0002:00000270       \177ole32_NULL_THUNK_DATA  00435270     ole32:ole32.dll
 0002:00000274       ___xc_a                    00435274     LIBCMT:crt0init.obj
 0002:00000288       ___xc_z                    00435288     LIBCMT:crt0init.obj
 0002:0000028c       ___xi_a                    0043528c     LIBCMT:crt0init.obj
 0002:000002a8       ___xi_z                    004352a8     LIBCMT:crt0init.obj
 0002:000002ac       ___xp_a                    004352ac     LIBCMT:crt0init.obj
 0002:000002b8       ___xp_z                    004352b8     LIBCMT:crt0init.obj
 0002:000002bc       ___xt_a                    004352bc     LIBCMT:crt0init.obj
 0002:000002c0       ___xt_z                    004352c0     LIBCMT:crt0init.obj
 0002:00000310       ??_C@_02GMLFBBN@wb?$AA@    00435310     GlobalFun.obj
 0002:00000314       ??_C@_02JDPG@rb?$AA@       00435314     GlobalFun.obj
 0002:00000318       ??_C@_03DOPCBAKB@a?$CLb?$AA@ 00435318     GlobalFun.obj
 0002:00000320       ??_7KThread@@6B@           00435320     KThread.obj
 0002:00000334       ??_7K_CS@@6B@              00435334     KThread.obj
 0002:00000338       ??_C@_0P@GHFPNOJB@bad?5allocation?$AA@ 00435338     LogFile.obj
 0002:00000348       ?collate@?$_Locbase@H@std@@2HB 00435348     LogFile.obj
 0002:0000034c       ?ctype@?$_Locbase@H@std@@2HB 0043534c     LogFile.obj
 0002:00000350       ?monetary@?$_Locbase@H@std@@2HB 00435350     LogFile.obj
 0002:00000354       ?numeric@?$_Locbase@H@std@@2HB 00435354     LogFile.obj
 0002:00000358       ?time@?$_Locbase@H@std@@2HB 00435358     LogFile.obj
 0002:0000035c       ?messages@?$_Locbase@H@std@@2HB 0043535c     LogFile.obj
 0002:00000360       ?all@?$_Locbase@H@std@@2HB 00435360     LogFile.obj
 0002:00000364       ?none@?$_Locbase@H@std@@2HB 00435364     LogFile.obj
 0002:00000368       ?table_size@?$ctype@D@std@@2IB 00435368     LogFile.obj
 0002:0000036c       ?skipws@?$_Iosb@H@std@@2W4_Fmtflags@12@B 0043536c     LogFile.obj
 0002:00000370       ?unitbuf@?$_Iosb@H@std@@2W4_Fmtflags@12@B 00435370     LogFile.obj
 0002:00000374       ?uppercase@?$_Iosb@H@std@@2W4_Fmtflags@12@B 00435374     LogFile.obj
 0002:00000378       ?showbase@?$_Iosb@H@std@@2W4_Fmtflags@12@B 00435378     LogFile.obj
 0002:0000037c       ?showpoint@?$_Iosb@H@std@@2W4_Fmtflags@12@B 0043537c     LogFile.obj
 0002:00000380       ?showpos@?$_Iosb@H@std@@2W4_Fmtflags@12@B 00435380     LogFile.obj
 0002:00000384       ?left@?$_Iosb@H@std@@2W4_Fmtflags@12@B 00435384     LogFile.obj
 0002:00000388       ?right@?$_Iosb@H@std@@2W4_Fmtflags@12@B 00435388     LogFile.obj
 0002:0000038c       ?internal@?$_Iosb@H@std@@2W4_Fmtflags@12@B 0043538c     LogFile.obj
 0002:00000390       ?dec@?$_Iosb@H@std@@2W4_Fmtflags@12@B 00435390     LogFile.obj
 0002:00000394       ?oct@?$_Iosb@H@std@@2W4_Fmtflags@12@B 00435394     LogFile.obj
 0002:00000398       ?hex@?$_Iosb@H@std@@2W4_Fmtflags@12@B 00435398     LogFile.obj
 0002:0000039c       ?scientific@?$_Iosb@H@std@@2W4_Fmtflags@12@B 0043539c     LogFile.obj
 0002:000003a0       ?fixed@?$_Iosb@H@std@@2W4_Fmtflags@12@B 004353a0     LogFile.obj
 0002:000003a4       ?boolalpha@?$_Iosb@H@std@@2W4_Fmtflags@12@B 004353a4     LogFile.obj
 0002:000003a8       ?_Stdio@?$_Iosb@H@std@@2W4_Fmtflags@12@B 004353a8     LogFile.obj
 0002:000003ac       ?adjustfield@?$_Iosb@H@std@@2W4_Fmtflags@12@B 004353ac     LogFile.obj
 0002:000003b0       ?basefield@?$_Iosb@H@std@@2W4_Fmtflags@12@B 004353b0     LogFile.obj
 0002:000003b4       ?floatfield@?$_Iosb@H@std@@2W4_Fmtflags@12@B 004353b4     LogFile.obj
 0002:000003b8       ?goodbit@?$_Iosb@H@std@@2W4_Iostate@12@B 004353b8     LogFile.obj
 0002:000003bc       ?eofbit@?$_Iosb@H@std@@2W4_Iostate@12@B 004353bc     LogFile.obj
 0002:000003c0       ?failbit@?$_Iosb@H@std@@2W4_Iostate@12@B 004353c0     LogFile.obj
 0002:000003c4       ?badbit@?$_Iosb@H@std@@2W4_Iostate@12@B 004353c4     LogFile.obj
 0002:000003c8       ?_Hardfail@?$_Iosb@H@std@@2W4_Iostate@12@B 004353c8     LogFile.obj
 0002:000003cc       ?in@?$_Iosb@H@std@@2W4_Openmode@12@B 004353cc     LogFile.obj
 0002:000003d0       ?out@?$_Iosb@H@std@@2W4_Openmode@12@B 004353d0     LogFile.obj
 0002:000003d4       ?ate@?$_Iosb@H@std@@2W4_Openmode@12@B 004353d4     LogFile.obj
 0002:000003d8       ?app@?$_Iosb@H@std@@2W4_Openmode@12@B 004353d8     LogFile.obj
 0002:000003dc       ?trunc@?$_Iosb@H@std@@2W4_Openmode@12@B 004353dc     LogFile.obj
 0002:000003e0       ?_Nocreate@?$_Iosb@H@std@@2W4_Openmode@12@B 004353e0     LogFile.obj
 0002:000003e4       ?_Noreplace@?$_Iosb@H@std@@2W4_Openmode@12@B 004353e4     LogFile.obj
 0002:000003e8       ?binary@?$_Iosb@H@std@@2W4_Openmode@12@B 004353e8     LogFile.obj
 0002:000003ec       ?beg@?$_Iosb@H@std@@2W4_Seekdir@12@B 004353ec     LogFile.obj
 0002:000003f0       ?cur@?$_Iosb@H@std@@2W4_Seekdir@12@B 004353f0     LogFile.obj
 0002:000003f4       ?end@?$_Iosb@H@std@@2W4_Seekdir@12@B 004353f4     LogFile.obj
 0002:00000408       ??_7bad_alloc@std@@6B@     00435408     LogFile.obj
 0002:00000414       ??_7CLogFile@@6B@          00435414     LogFile.obj
 0002:00000418       ??_C@_04JIMNDDED@?$CF08X?$AA@ 00435418     LogFile.obj
 0002:00000420       ??_C@_0BF@KJLDDEOH@?2?$CF02d_?$CF02d_?$CF02d_?$CF03d?$AA@ 00435420     LogFile.obj
 0002:00000438       ??_C@_0P@CCJCIIIP@?$CF04d_?$CF02d_?$CF02d?$AA@ 00435438     LogFile.obj
 0002:00000448       _IID_IIOCPServer           00435448     main.obj
 0002:00000458       _IID_IServerFactory        00435458     main.obj
 0002:00000468       _LIBID_ADO20               00435468     main.obj
 0002:00000478       _LIBID_ADO21               00435478     main.obj
 0002:00000488       _LIBID_ADOR20              00435488     main.obj
 0002:00000498       _LIBID_ADO25               00435498     main.obj
 0002:000004a8       _LIBID_ADO26               004354a8     main.obj
 0002:000004b8       _LIBID_ADOR25              004354b8     main.obj
 0002:000004c8       _IID_IADOError             004354c8     main.obj
 0002:000004d8       _IID_IADOErrors            004354d8     main.obj
 0002:000004e8       _IID_IADOProperty          004354e8     main.obj
 0002:000004f8       _IID_IADOProperties        004354f8     main.obj
 0002:00000508       _CLSID_CADOField           00435508     main.obj
 0002:00000518       _IID_IADOField15           00435518     main.obj
 0002:00000528       _IID_IADOField20           00435528     main.obj
 0002:00000538       _IID_IADOField             00435538     main.obj
 0002:00000548       _IID_IADOFields15          00435548     main.obj
 0002:00000558       _IID_IADOFields20          00435558     main.obj
 0002:00000568       _IID_IADOFields            00435568     main.obj
 0002:00000578       _CLSID_CADOCommand         00435578     main.obj
 0002:00000588       _IID_IADOCommand15         00435588     main.obj
 0002:00000598       _IID_IADOCommand25         00435598     main.obj
 0002:000005a8       _IID_IADOCommands          004355a8     main.obj
 0002:000005b8       _IID_IADOCommandConstruction 004355b8     main.obj
 0002:000005c8       _CLSID_CADOParameter       004355c8     main.obj
 0002:000005d8       _IID_IADOParameter         004355d8     main.obj
 0002:000005e8       _IID_IADOParameters        004355e8     main.obj
 0002:000005f8       _CLSID_CADORecordset       004355f8     main.obj
 0002:00000608       _IID_IADORecordset15       00435608     main.obj
 0002:00000618       _IID_IADORecordset20       00435618     main.obj
 0002:00000628       _IID_IADORecordset21       00435628     main.obj
 0002:00000638       _IID_IADORecordset25       00435638     main.obj
 0002:00000648       _IID_IADORecordset         00435648     main.obj
 0002:00000658       _IID_IADORecordsets        00435658     main.obj
 0002:00000668       _IID_IADORecordsetConstruction 00435668     main.obj
 0002:00000678       _IID_IADOCollection        00435678     main.obj
 0002:00000688       _IID_IADODynaCollection    00435688     main.obj
 0002:00000698       _CLSID_CADOConnection      00435698     main.obj
 0002:000006a8       _IID_IADOConnection15      004356a8     main.obj
 0002:000006b8       _IID_IADOConnection        004356b8     main.obj
 0002:000006c8       _IID_IADOConnectionConstruction15 004356c8     main.obj
 0002:000006d8       _IID_IADOConnectionConstruction 004356d8     main.obj
 0002:000006e8       _IID_IADOConnections       004356e8     main.obj
 0002:000006f8       _IID_IADORecordsetEvents   004356f8     main.obj
 0002:00000708       _IID_IADOConnectionEvents  00435708     main.obj
 0002:00000718       _IID_IADORecordsetEventsVt 00435718     main.obj
 0002:00000728       _IID_IADOConnectionEventsVt 00435728     main.obj
 0002:00000738       _CLSID_CADORecord          00435738     main.obj
 0002:00000748       _CLSID_CADORecField        00435748     main.obj
 0002:00000758       _IID_IADORecord            00435758     main.obj
 0002:00000768       _IID_IADORecord25          00435768     main.obj
 0002:00000778       _IID_IADORecord26          00435778     main.obj
 0002:00000788       _IID_IADOStream            00435788     main.obj
 0002:00000798       _CLSID_CADOStream          00435798     main.obj
 0002:000007a8       _IID_IADORecordConstruction 004357a8     main.obj
 0002:000007b8       _IID_IADOStreamConstruction 004357b8     main.obj
 0002:000007c8       _IID_EnumCursorType        004357c8     main.obj
 0002:000007d8       _IID_EnumCursorOption      004357d8     main.obj
 0002:000007e8       _IID_EnumLockType          004357e8     main.obj
 0002:000007f8       _IID_EnumExecuteOption     004357f8     main.obj
 0002:00000808       _IID_EnumDataType          00435808     main.obj
 0002:00000818       _IID_EnumConnectPrompt     00435818     main.obj
 0002:00000828       _IID_EnumConnectMode       00435828     main.obj
 0002:00000838       _IID_EnumPrepareOption     00435838     main.obj
 0002:00000848       _IID_EnumIsolationLevel    00435848     main.obj
 0002:00000858       _IID_EnumXactAttribute     00435858     main.obj
 0002:00000868       _IID_EnumFieldAttribute    00435868     main.obj
 0002:00000878       _IID_EnumEditMode          00435878     main.obj
 0002:00000888       _IID_EnumRecordStatus      00435888     main.obj
 0002:00000898       _IID_EnumPosition          00435898     main.obj
 0002:000008a8       _IID_EnumPropertyAttributes 004358a8     main.obj
 0002:000008b8       _IID_EnumErrorValue        004358b8     main.obj
 0002:000008c8       _IID_EnumParameterAttributes 004358c8     main.obj
 0002:000008d8       _IID_EnumParameterDirection 004358d8     main.obj
 0002:000008e8       _IID_EnumFilterCriteria    004358e8     main.obj
 0002:000008f8       _IID_EnumCommandType       004358f8     main.obj
 0002:00000908       _IID_EnumCursorLocation    00435908     main.obj
 0002:00000918       _IID_EnumEventStatus       00435918     main.obj
 0002:00000928       _IID_EnumEventReason       00435928     main.obj
 0002:00000938       _IID_EnumObjectState       00435938     main.obj
 0002:00000948       _IID_EnumSchema            00435948     main.obj
 0002:00000958       _IID_EnumMarshalOptions    00435958     main.obj
 0002:00000968       _IID_EnumConnectOption     00435968     main.obj
 0002:00000978       _IID_EnumGetRowsOption     00435978     main.obj
 0002:00000988       _IID_EnumAffect            00435988     main.obj
 0002:00000998       _IID_EnumResync            00435998     main.obj
 0002:000009a8       _IID_EnumCompare           004359a8     main.obj
 0002:000009b8       _IID_EnumFilterGroup       004359b8     main.obj
 0002:000009c8       _IID_EnumSearchDirection   004359c8     main.obj
 0002:000009d8       _IID_EnumPersistFormat     004359d8     main.obj
 0002:000009e8       _IID_EnumStringFormat      004359e8     main.obj
 0002:000009f8       _IID_EnumRDSUpdateCriteria 004359f8     main.obj
 0002:00000a08       _IID_EnumRDSAsyncThreadPriority 00435a08     main.obj
 0002:00000a18       _IID_EnumCEResync          00435a18     main.obj
 0002:00000a28       _IID_EnumRDSAutoRecalc     00435a28     main.obj
 0002:00000a38       _IID_EnumSeek              00435a38     main.obj
 0002:00000a48       _IID_IADORecordGroup       00435a48     main.obj
 0002:00000a58       _IID_IADOCustomError       00435a58     main.obj
 0002:00000a68       _CLSID_CADOError           00435a68     main.obj
 0002:00000a78       _IID_IPrivErrors           00435a78     main.obj
 0002:00000a88       _CLSID_CADOErrorLookup     00435a88     main.obj
 0002:00000a98       _CLSID_ADO                 00435a98     main.obj
 0002:00000aa8       _IID_ConnectionEvents      00435aa8     main.obj
 0002:00000ab8       _IID_ConnectionEventsVt    00435ab8     main.obj
 0002:00000ac8       _IID_IADO10StdObject       00435ac8     main.obj
 0002:00000ad8       _IID__ADO                  00435ad8     main.obj
 0002:00000ae8       _IID_IADOClass             00435ae8     main.obj
 0002:00000af8       _IID_EnumRecordCreateOptions 00435af8     main.obj
 0002:00000b08       _IID_EnumRecordOpenOptions 00435b08     main.obj
 0002:00000b18       _IID_EnumMoveRecordOptions 00435b18     main.obj
 0002:00000b28       _IID_EnumCopyRecordOptions 00435b28     main.obj
 0002:00000b38       _IID_EnumMode              00435b38     main.obj
 0002:00000b48       _IID_EnumStreamType        00435b48     main.obj
 0002:00000b58       _IID_EnumLineSeparator     00435b58     main.obj
 0002:00000b68       _IID_EnumStreamOpenOptions 00435b68     main.obj
 0002:00000b78       _IID_EnumStreamWrite       00435b78     main.obj
 0002:00000b88       _IID_EnumSaveOptions       00435b88     main.obj
 0002:00000b98       _IID_EnumRecordType        00435b98     main.obj
 0002:00000ba8       _IID_EnumFieldStatus       00435ba8     main.obj
 0002:00000bb8       _IID_IADOCommand           00435bb8     main.obj
 0002:00000bc8       _LIBID_ADO27               00435bc8     main.obj
 0002:00000bd8       _IID_ICMemStreamProperties 00435bd8     main.obj
 0002:00000be8       _LIBID_ADO28               00435be8     main.obj
 0002:00000c08       ??_C@_0FC@OKKANPFN@?$AN?6?$CK?$AN?6?$CK?$CK?$CK?$CK?$CK?5S3RelayServer?5Stop?5?$CI?$EA@ 00435c08     main.obj
 0002:00000c60       ??_C@_0FD@NACIFP@?$AN?6?$CK?$AN?6?$CK?$CK?$CK?$CK?$CK?5S3RelayServer?5Start?5?$CI@ 00435c60     main.obj
 0002:00000cb4       ??_C@_06FKPLNCAA@?$CFd?5?9?9?5?$AA@ 00435cb4     main.obj
 0002:00000cbc       ??_C@_0CC@HFHFPBMJ@?$FL?$CF04d?1?$CF02d?1?$CF02d?5?$CF02d?3?$CF02d?3?$CF02d?$FN?$CF@ 00435cbc     main.obj
 0002:00000ce0       ??_C@_02PCIJFNDE@?$AN?6?$AA@ 00435ce0     main.obj
 0002:00000ce4       ??_C@_01CLKCMJKC@?5?$AA@   00435ce4     main.obj
 0002:00000ce8       ??_C@_07OOFFCIDH@ListBox?$AA@ 00435ce8     main.obj
 0002:00000cf0       ??_C@_03EKFHOMB@Out?$AA@   00435cf0     main.obj
 0002:00000cf4       ??_C@_0P@NEBHMABB@Are?5you?5sure?5?$DP?$AA@ 00435cf4     main.obj
 0002:00000d04       ??_C@_07FPLKDJGL@warning?$AA@ 00435d04     main.obj
 0002:00000d0c       ??_C@_0BC@CELGFIGH@Connect?5DB?5Error?$CB?$AA@ 00435d0c     main.obj
 0002:00000d20       ??_C@_07PMDLEBNF@account?$AA@ 00435d20     main.obj
 0002:00000d28       ??_C@_0O@BGABDKNK@heaven?5Error?$CB?$AA@ 00435d28     main.obj
 0002:00000d38       ??_C@_0L@EAKOGNMN@DBConnects?$AA@ 00435d38     main.obj
 0002:00000d44       ??_C@_01BMBHCPLG@5?$AA@    00435d44     main.obj
 0002:00000d48       ??_C@_0N@OJKDOMML@DataBase?4ini?$AA@ 00435d48     main.obj
 0002:00000d58       ??_C@_0BA@OBHPCBFP@CreateInterface?$AA@ 00435d58     main.obj
 0002:00000d68       ??_C@_0L@MBMGBBBM@heaven?4dll?$AA@ 00435d68     main.obj
 0002:00000d74       ??_C@_07FBJGGLLF@timelog?$AA@ 00435d74     main.obj
 0002:00000d7c       ??_C@_04NEFKOBHG@3000?$AA@ 00435d7c     main.obj
 0002:00000d84       ??_C@_0L@DPCAELPM@sizebuffer?$AA@ 00435d84     main.obj
 0002:00000d90       ??_C@_07BKKOAKCI@1048576?$AA@ 00435d90     main.obj
 0002:00000d98       ??_C@_09BACNPOLI@maxbuffer?$AA@ 00435d98     main.obj
 0002:00000da4       ??_C@_02IHCGGLPM@15?$AA@   00435da4     main.obj
 0002:00000da8       ??_C@_09HJGOLHNF@precision?$AA@ 00435da8     main.obj
 0002:00000db4       ??_C@_01HIHLOKLC@1?$AA@    00435db4     main.obj
 0002:00000db8       ??_C@_0L@EADKGJEH@maxconnect?$AA@ 00435db8     main.obj
 0002:00000dc4       ??_C@_02PKFBJPLJ@10?$AA@   00435dc4     main.obj
 0002:00000dc8       ??_C@_05IEALKJIG@Local?$AA@ 00435dc8     main.obj
 0002:00000dd0       ??_C@_04LPGMAPLE@port?$AA@ 00435dd0     main.obj
 0002:00000dd8       ??_C@_02DPKJAMEF@?$CFd?$AA@ 00435dd8     main.obj
 0002:00000ddc       ??_C@_0BA@EFJINOJP@relay_setup?4ini?$AA@ 00435ddc     main.obj
 0002:00000dec       ??_C@_0BK@FPCFPMCI@Initializing?5LogFile?5fail?$AA@ 00435dec     main.obj
 0002:00000e08       ??_C@_05KKCIMGE@error?$AA@ 00435e08     main.obj
 0002:00000e14       ??_7_com_error@@6B@        00435e14     S3P_MSSQLServer_Result.obj
 0002:00000e18       __GUID_00000512_0000_0010_8000_00aa006d2ea4 00435e18     S3P_MSSQLServer_Result.obj
 0002:00000e28       __GUID_0000050e_0000_0010_8000_00aa006d2ea4 00435e28     S3P_MSSQLServer_Result.obj
 0002:00000e38       __GUID_00000556_0000_0010_8000_00aa006d2ea4 00435e38     S3P_MSSQLServer_Result.obj
 0002:00000e48       __GUID_00000506_0000_0010_8000_00aa006d2ea4 00435e48     S3P_MSSQLServer_Result.obj
 0002:00000e58       __GUID_00000000_0000_0000_c000_000000000046 00435e58     S3P_MSSQLServer_Result.obj
 0002:00000e6c       ??_7S3P_MSSQLServer_Result@@6B@ 00435e6c     S3P_MSSQLServer_Result.obj
 0002:00000e88       ??_C@_0BA@GPGMDGJN@ADODB?4Recordset?$AA@ 00435e88     S3P_MSSQLServer_Result.obj
 0002:00000e9c       ??_7S3PAccount@@6B@        00435e9c     S3PAccount.obj
 0002:00000ea0       ??_C@_0CO@EDAJGAFH@select?5iid?5from?5ServerList?5where@ 00435ea0     S3PAccount.obj
 0002:00000ed0       ??_C@_0DL@DNDKEMFN@select?5iClientID?5from?5Account_in@ 00435ed0     S3PAccount.obj
 0002:00000f0c       ??_C@_0DO@PKGLLHAH@update?5Account_info?5set?5iClientI@ 00435f0c     S3PAccount.obj
 0002:00000f4c       ??_C@_0DP@HJDPGCED@update?5Account_info?5set?5iClientI@ 00435f4c     S3PAccount.obj
 0002:00000f8c       ??_C@_0DN@ILMJHDNL@update?5Account_info?5set?5iClientI@ 00435f8c     S3PAccount.obj
 0002:00000fcc       ??_C@_0DG@FMKBKJJL@select?5iid?5from?5ServerList?5where@ 00435fcc     S3PAccount.obj
 0002:00001008       ??_7logic_error@std@@6B@   00436008     S3PAccount.obj
 0002:00001010       ??_C@_0BL@BOFKMNCO@?$CF02X?$CF02X?9?$CF02X?$CF02X?9?$CF02X?$CF02X?$AA@ 00436010     S3PAccount.obj
 0002:00001030       ??_C@_0HK@NELJAECM@select?5cIP?0?5iPort?0?5iid?0?5cMemo?5fr@ 00436030     S3PAccount.obj
 0002:000010b0       ??_7length_error@std@@6B@  004360b0     S3PAccount.obj
 0002:000010b8       ??_C@_0BB@MOGOBHAF@list?$DMT?$DO?5too?5long?$AA@ 004360b8     S3PAccount.obj
 0002:000010cc       ??_C@_0CF@JNOCHAPK@select?5count?$CI?$CK?$CJ?5from?5Account_inf@ 004360cc     S3PAccount.obj
 0002:000010f4       ??_C@_0CN@EDGMDEB@?$CIiClientID?5?$DM?$DO?50?$CJ?5and?5?$CIiClientID?5@ 004360f4     S3PAccount.obj
 0002:00001124       ??_C@_0BB@FGKKHELG@?$CIiClientID?5?$DN?5?$CFd?$CJ?$AA@ 00436124     S3PAccount.obj
 0002:00001138       ??_C@_06OEIHPOFA@where?5?$AA@ 00436138     S3PAccount.obj
 0002:00001140       ??_C@_0LI@BLNCBFNN@select?5datediff?$CIsecond?0?5getdate?$CI@ 00436140     S3PAccount.obj
 0002:000011f8       __GUID_00000508_0000_0010_8000_00aa006d2ea4 004361f8     S3PDB_MSSQLServer_Connection.obj
 0002:00001208       __GUID_00000515_0000_0010_8000_00aa006d2ea4 00436208     S3PDB_MSSQLServer_Connection.obj
 0002:00001218       __GUID_00000550_0000_0010_8000_00aa006d2ea4 00436218     S3PDB_MSSQLServer_Connection.obj
 0002:00001228       __GUID_b08400bd_f9d1_4d02_b856_71d5dba123e9 00436228     S3PDB_MSSQLServer_Connection.obj
 0002:00001238       ??_C@_0BF@IPPGFENJ@Unknown?5error?50x?$CF0lX?$AA@ 00436238     S3PDB_MSSQLServer_Connection.obj
 0002:00001250       ??_C@_0BE@NNIJINN@IDispatch?5error?5?$CD?$CFd?$AA@ 00436250     S3PDB_MSSQLServer_Connection.obj
 0002:00001268       ??_7S3PDB_MSSQLServer_Connection@@6B@ 00436268     S3PDB_MSSQLServer_Connection.obj
 0002:00001280       ??_C@_0DD@OBPHMCEE@?$FLS3PDB_MSSQLServer_Connection?3?3D@ 00436280     S3PDB_MSSQLServer_Connection.obj
 0002:000012b4       ??_C@_0DA@OJPPHDI@?$FLS3PDB_MSSQLServer_Connection?3?3D@ 004362b4     S3PDB_MSSQLServer_Connection.obj
 0002:000012e4       ??_C@_0DA@ICAOINCB@?$FLS3PDBConnectionPool?3?3OpenConnec@ 004362e4     S3PDB_MSSQLServer_Connection.obj
 0002:00001314       ??_C@_0O@LELKCJFH@ADODB?4Command?$AA@ 00436314     S3PDB_MSSQLServer_Connection.obj
 0002:00001324       ??_C@_09HJPHMDCE@Database?$DN?$AA@ 00436324     S3PDB_MSSQLServer_Connection.obj
 0002:00001330       ??_C@_01ICJEACDI@?$DL?$AA@ 00436330     S3PDB_MSSQLServer_Connection.obj
 0002:00001334       ??_C@_07JJOHPNOF@Server?$DN?$AA@ 00436334     S3PDB_MSSQLServer_Connection.obj
 0002:0000133c       ??_C@_0BF@PHDJJPHE@driver?$DN?$HLSQL?5Server?$HN?$DL?$AA@ 0043633c     S3PDB_MSSQLServer_Connection.obj
 0002:00001354       ??_C@_0BB@GHOJBECM@ADODB?4Connection?$AA@ 00436354     S3PDB_MSSQLServer_Connection.obj
 0002:00001368       ??_C@_0BI@DNLACAJM@DB?5Connect?5?$CFd?5is?5busy?5?$CB?$AA@ 00436368     S3PDBConnectionPool.obj
 0002:00001380       ??_C@_0BI@CBJFLODC@DB?5Connect?5?$CFd?5is?5free?5?$CB?$AA@ 00436380     S3PDBConnectionPool.obj
 0002:0000139c       ??_7S3PDBConnectionPool@@6B@ 0043639c     S3PDBConnectionPool.obj
 0002:000013a0       ??_C@_0BD@OLBABOEK@vector?$DMT?$DO?5too?5long?$AA@ 004363a0     S3PDBConnectionPool.obj
 0002:000013b4       ??_C@_0M@PMNHDFNB@gm?9kingsoft?$AA@ 004363b4     S3PDBConnectionPool.obj
 0002:000013c0       ??_C@_08JIEBFJMI@PassWord?$AA@ 004363c0     S3PDBConnectionPool.obj
 0002:000013cc       ??_C@_04ODLBFFJE@User?$AA@ 004363cc     S3PDBConnectionPool.obj
 0002:000013d4       ??_C@_08LCNCODBM@DataBase?$AA@ 004363d4     S3PDBConnectionPool.obj
 0002:000013e0       ??_C@_06LGMEBDBC@Server?$AA@ 004363e0     S3PDBConnectionPool.obj
 0002:000013e7       ??_C@_00CNPNBAHC@?$AA@     004363e7     S3PDBConnectionPool.obj
 0002:000013ec       ??_7S3PDBConVBC@@6B@       004363ec     S3PDBConVBC.obj
 0002:00001404       ??_7KThread_CS@@6BK_CS@@@  00436404     S3PDBSocketPool.obj
 0002:0000140c       ??_7KThread_CS@@6BKThread@@@ 0043640c     S3PDBSocketPool.obj
 0002:0000141c       ??_C@_0BA@INMFFGLD@GetAdaptersInfo?$AA@ 0043641c     S3PDBSocketPool.obj
 0002:0000142c       ??_C@_0N@BBCKHBCL@iphlpapi?4dll?$AA@ 0043642c     S3PDBSocketPool.obj
 0002:0000143c       ??_C@_0BC@JHJKHJGH@Client?5?$CFd?3?5?$CFs?$CI?$CFs?$CJ?$AA@ 0043643c     S3PDBSocketPool.obj
 0002:00001454       ??_7KGatewayDataProcess@@6BK_CS@@@ 00436454     S3PDBSocketPool.obj
 0002:0000145c       ??_7KGatewayDataProcess@@6BKThread@@@ 0043645c     S3PDBSocketPool.obj
 0002:00001474       ??_7out_of_range@std@@6B@  00436474     S3PDBSocketPool.obj
 0002:0000147c       ??_C@_0BM@PAPJHAGI@invalid?5map?1set?$DMT?$DO?5iterator?$AA@ 0043647c     S3PDBSocketPool.obj
 0002:00001498       ??_C@_0BE@JONHPENG@map?1set?$DMT?$DO?5too?5long?$AA@ 00436498     S3PDBSocketPool.obj
 0002:000014ac       ??_C@_0CF@GNKGLJJM@Remove?5Relay?5Client?5?$CFd?5?$CB?5?9?9?5Coun@ 004364ac     S3PDBSocketPool.obj
 0002:000014d8       ??_7S3PDBSocketPool@@6B@   004364d8     S3PDBSocketPool.obj
 0002:000014e4       ??_C@_0CG@ECCEMJFK@Add?5Relay?$CI?$CFs?$CJ?5Client?5?$CFd?5?$CB?5?9?9?5Cou@ 004364e4     S3PDBSocketPool.obj
 0002:0000150c       ??_C@_0BK@JKMJPNKC@Protocol?5?$CFd?5data?5is?5error?$AA@ 0043650c     S3PDBSocketPool.obj
 0002:00001528       ??_C@_0CA@BKIKIPEG@Relay?5?$CFs?$CI?$CFs?$CJ?$CFs?3?5Address?0?5Port?5?$CB?$AA@ 00436528     S3PDBSocketPool.obj
 0002:00001548       ??_C@_0CB@JCIAOJKH@Relay?5?$CFs?$CI?$CFs?$CJ?$CFs?3?5Name?0?5Password?5?$CB@ 00436548     S3PDBSocketPool.obj
 0002:0000156c       ??_C@_0CA@BDAEIMGP@Relay?5?$CFs?$CI?$CFs?$CJ?$CFs?3?5Already?5login?5?$CB?$AA@ 0043656c     S3PDBSocketPool.obj
 0002:0000158c       ??_C@_0BM@BOBPGPON@Relay?5?$CFs?$CI?$CFs?$CJ?$CFs?3?5Verify?5OK?5?$CB?$AA@ 0043658c     S3PDBSocketPool.obj
 0002:000015a8       ??_C@_0CB@HDLJFLHF@Gateway?5?$CFs?$CI?$CFs?$CJ?3?5User?5?$CFs?5Unlock?$CFs@ 004365a8     S3PDBSocketPool.obj
 0002:000015cc       ??_C@_09NCLNEDIM@?5Failed?5?$CB?$AA@ 004365cc     S3PDBSocketPool.obj
 0002:000015d8       ??_C@_0L@DFNKNDLC@?5Success?5?$CB?$AA@ 004365d8     S3PDBSocketPool.obj
 0002:000015e4       ??_C@_02DALMIMOA@GM?$AA@   004365e4     S3PDBSocketPool.obj
 0002:000015e8       ??_C@_0CJ@MFPMHDLF@Gateway?5?$CFs?$CI?$CFs?$CJ?3?5User?5?$CFs?5Freeze?5A@ 004365e8     S3PDBSocketPool.obj
 0002:00001614       ??_C@_0BI@LHBKLFMJ@Account?$CI?$CFs?$CJ?5is?5KickOff?$CB?$AA@ 00436614     S3PDBSocketPool.obj
 0002:0000162c       ??_C@_0CL@HDACHJLI@GlobalExecute?$CI?$CCdw?5KickOutAccount@ 0043662c     S3PDBSocketPool.obj
 0002:00001658       ??_C@_0CG@CHPBKBNA@?D?z?T?Z?S?N?O?$LH?V?P?$LL?$LJ?$LP?I?R?T?M?$KD?A?t?$CFd?C?k?0?5?G?k?$LI?O?$LP?l@ 00436658     S3PDBSocketPool.obj
 0002:00001680       ??_C@_0CI@JNJKNKO@?D?z?T?Z?S?N?O?$LH?V?P?$LL?$LJ?$LP?I?R?T?M?$KD?A?t?$CFd?$LH?V?V?S?0?5?G?k?$LI?O@ 00436680     S3PDBSocketPool.obj
 0002:000016a8       ??_C@_0BJ@NIIEKLGI@Relay?5?$CFs?$CI?$CFs?$CJ?3?5Ping?5?$CFd?$CIs?$CJ?$AA@ 004366a8     S3PDBSocketPool.obj
 0002:000016c8       ??_7S3PResultVBC@@6B@      004366c8     S3PResultVBC.obj
 0002:000016e0       ?ProcessDetach@NativeDll@<CrtImplementationDetails>@@0IB 004366e0     LIBCMT:mbsnbcmp.obj
 0002:000016e4       ?ProcessAttach@NativeDll@<CrtImplementationDetails>@@0IB 004366e4     LIBCMT:mbsnbcmp.obj
 0002:000016e8       ?ThreadAttach@NativeDll@<CrtImplementationDetails>@@0IB 004366e8     LIBCMT:mbsnbcmp.obj
 0002:000016ec       ?ThreadDetach@NativeDll@<CrtImplementationDetails>@@0IB 004366ec     LIBCMT:mbsnbcmp.obj
 0002:000016f0       ?ProcessVerifier@NativeDll@<CrtImplementationDetails>@@0IB 004366f0     LIBCMT:mbsnbcmp.obj
 0002:000016f8       ??_7type_info@@6B@         004366f8     LIBCMT:typinfo.obj
 0002:00001700       ??_7exception@std@@6B@     00436700     LIBCMT:stdexcpt.obj
 0002:00001708       ??_C@_0BC@EOODALEL@Unknown?5exception?$AA@ 00436708     LIBCMT:stdexcpt.obj
 0002:00001720       ??_7bad_cast@std@@6B@      00436720     LIBCMT:stdexcpt.obj
 0002:0000172c       ??_7bad_typeid@std@@6B@    0043672c     LIBCMT:stdexcpt.obj
 0002:00001738       ??_7__non_rtti_object@std@@6B@ 00436738     LIBCMT:stdexcpt.obj
 0002:00001760       ??_C@_07LCBHPJJN@LC_TIME?$AA@ 00436760     LIBCMT:setlocal.obj
 0002:00001768       ??_C@_0L@DLHIECNL@LC_NUMERIC?$AA@ 00436768     LIBCMT:setlocal.obj
 0002:00001774       ??_C@_0M@MIENIKLA@LC_MONETARY?$AA@ 00436774     LIBCMT:setlocal.obj
 0002:00001780       ??_C@_08EADHIDAD@LC_CTYPE?$AA@ 00436780     LIBCMT:setlocal.obj
 0002:0000178c       ??_C@_0L@KFJHEKIK@LC_COLLATE?$AA@ 0043678c     LIBCMT:setlocal.obj
 0002:00001798       ??_C@_06NEFDFEKB@LC_ALL?$AA@ 00436798     LIBCMT:setlocal.obj
 0002:000017a0       ___lc_category             004367a0     LIBCMT:setlocal.obj
 0002:00001868       ??_C@_03EGDHDPFD@_?4?0?$AA@ 00436868     LIBCMT:setlocal.obj
 0002:0000186c       ??_C@_01LFCBOECM@?4?$AA@   0043686c     LIBCMT:setlocal.obj
 0002:00001870       ??_C@_01IDAFKMJL@_?$AA@    00436870     LIBCMT:setlocal.obj
 0002:00001874       ??_C@_01NEMOKFLO@?$DN?$AA@ 00436874     LIBCMT:setlocal.obj
 0002:00001878       ??_C@_01GFHCPBMG@C?$AA@    00436878     LIBCMT:setlocal.obj
 0002:0000187c       ??_C@_02BALPLPBG@?$DN?$DL?$AA@ 0043687c     LIBCMT:setlocal.obj
 0002:00001880       ??_C@_07EPKMNAGK@?4mixcrt?$AA@ 00436880     LIBCMT:tidtable.obj
 0002:00001888       ??_C@_0O@NLDKAIKN@EncodePointer?$AA@ 00436888     LIBCMT:tidtable.obj
 0002:00001898       ??_C@_0N@NHGLKGEC@KERNEL32?4DLL?$AA@ 00436898     LIBCMT:tidtable.obj
 0002:000018a8       ??_C@_0O@KBPMFGHI@DecodePointer?$AA@ 004368a8     LIBCMT:tidtable.obj
 0002:000018b8       ??_C@_07PEJMOBNF@FlsFree?$AA@ 004368b8     LIBCMT:tidtable.obj
 0002:000018c0       ??_C@_0M@JCPCPOEF@FlsSetValue?$AA@ 004368c0     LIBCMT:tidtable.obj
 0002:000018cc       ??_C@_0M@GDNOONDI@FlsGetValue?$AA@ 004368cc     LIBCMT:tidtable.obj
 0002:000018d8       ??_C@_08KNHFBNJ@FlsAlloc?$AA@ 004368d8     LIBCMT:tidtable.obj
 0002:00001908       __pDestructExceptionObject 00436908     LIBCMT:frame.obj
 0002:00001910       ??_7bad_exception@std@@6B@ 00436910     LIBCMT:frame.obj
 0002:00001918       ??_C@_0O@DPKOEFFH@bad?5exception?$AA@ 00436918     LIBCMT:frame.obj
 0002:00001930       ??_C@_0P@MIGLKIOC@CorExitProcess?$AA@ 00436930     LIBCMT:crt0dat.obj
 0002:00001940       ??_C@_0M@MBOPBNBK@mscoree?4dll?$AA@ 00436940     LIBCMT:crt0dat.obj
 0002:0000194c       ??_C@_1O@CEDCILHN@?$AA?$CI?$AAn?$AAu?$AAl?$AAl?$AA?$CJ?$AA?$AA@ 0043694c     LIBCMT:output.obj
 0002:0000195c       ??_C@_06OJHGLDPL@?$CInull?$CJ?$AA@ 0043695c     LIBCMT:output.obj
 0002:00001968       ___lookuptable             00436968     LIBCMT:output.obj
 0002:000019c8       ___lookuptable_s           004369c8     LIBCMT:outputs.obj
 0002:00001a24       ??_C@_0P@GGKDKEEG@runtime?5error?5?$AA@ 00436a24     LIBCMT:crt0msg.obj
 0002:00001a34       ??_C@_0O@MJNIPGOH@TLOSS?5error?$AN?6?$AA@ 00436a34     LIBCMT:crt0msg.obj
 0002:00001a44       ??_C@_0N@BONNPDHF@SING?5error?$AN?6?$AA@ 00436a44     LIBCMT:crt0msg.obj
 0002:00001a54       ??_C@_0P@MBDAJNE@DOMAIN?5error?$AN?6?$AA@ 00436a54     LIBCMT:crt0msg.obj
 0002:00001a68       ??_C@_0JL@DFDOOABL@R6034?$AN?6An?5application?5has?5made?5a@ 00436a68     LIBCMT:crt0msg.obj
 0002:00001b08       ??_C@_0PH@EPAFIJ@R6033?$AN?6?9?5Attempt?5to?5use?5MSIL?5cod@ 00436b08     LIBCMT:crt0msg.obj
 0002:00001c00       ??_C@_0DD@BKEEABMM@R6032?$AN?6?9?5not?5enough?5space?5for?5lo@ 00436c00     LIBCMT:crt0msg.obj
 0002:00001c38       ??_C@_0GD@OFKILIED@R6031?$AN?6?9?5Attempt?5to?5initialize?5t@ 00436c38     LIBCMT:crt0msg.obj
 0002:00001c9c       ??_C@_0BP@LPMHJOKI@R6030?$AN?6?9?5CRT?5not?5initialized?$AN?6?$AA@ 00436c9c     LIBCMT:crt0msg.obj
 0002:00001cbc       ??_C@_0CF@KJDAIALP@R6028?$AN?6?9?5unable?5to?5initialize?5he@ 00436cbc     LIBCMT:crt0msg.obj
 0002:00001ce4       ??_C@_0DF@GAKBPDFP@R6027?$AN?6?9?5not?5enough?5space?5for?5lo@ 00436ce4     LIBCMT:crt0msg.obj
 0002:00001d1c       ??_C@_0DF@IBLNNAIG@R6026?$AN?6?9?5not?5enough?5space?5for?5st@ 00436d1c     LIBCMT:crt0msg.obj
 0002:00001d54       ??_C@_0CG@IOHKGFNJ@R6025?$AN?6?9?5pure?5virtual?5function?5c@ 00436d54     LIBCMT:crt0msg.obj
 0002:00001d7c       ??_C@_0DF@JIJJFJDC@R6024?$AN?6?9?5not?5enough?5space?5for?5_o@ 00436d7c     LIBCMT:crt0msg.obj
 0002:00001db4       ??_C@_0CJ@EGEJHFME@R6019?$AN?6?9?5unable?5to?5open?5console?5@ 00436db4     LIBCMT:crt0msg.obj
 0002:00001de0       ??_C@_0CB@GNHNIELH@R6018?$AN?6?9?5unexpected?5heap?5error?$AN?6@ 00436de0     LIBCMT:crt0msg.obj
 0002:00001e04       ??_C@_0CN@FOLDKNG@R6017?$AN?6?9?5unexpected?5multithread?5@ 00436e04     LIBCMT:crt0msg.obj
 0002:00001e34       ??_C@_0CM@FAHFJNHO@R6016?$AN?6?9?5not?5enough?5space?5for?5th@ 00436e34     LIBCMT:crt0msg.obj
 0002:00001e60       ??_C@_0JG@LBKMGKLD@?$AN?6This?5application?5has?5requested@ 00436e60     LIBCMT:crt0msg.obj
 0002:00001ef8       ??_C@_0CM@FLCNIPKK@R6009?$AN?6?9?5not?5enough?5space?5for?5en@ 00436ef8     LIBCMT:crt0msg.obj
 0002:00001f24       ??_C@_0CK@KMMJOAPP@R6008?$AN?6?9?5not?5enough?5space?5for?5ar@ 00436f24     LIBCMT:crt0msg.obj
 0002:00001f50       ??_C@_0CN@LEKKICBM@R6002?$AN?6?9?5floating?5point?5support?5@ 00436f50     LIBCMT:crt0msg.obj
 0002:00001f80       ??_C@_0CF@GOGNBNAK@Microsoft?5Visual?5C?$CL?$CL?5Runtime?5Lib@ 00436f80     LIBCMT:crt0msg.obj
 0002:00001fa8       ??_C@_02PHMGELLB@?6?6?$AA@ 00436fa8     LIBCMT:crt0msg.obj
 0002:00001fac       ??_C@_03KHICJKCI@?4?4?4?$AA@ 00436fac     LIBCMT:crt0msg.obj
 0002:00001fb0       ??_C@_0BH@DNAGHKFM@?$DMprogram?5name?5unknown?$DO?$AA@ 00436fb0     LIBCMT:crt0msg.obj
 0002:00001fc8       ??_C@_0BK@OFGJDLJJ@Runtime?5Error?$CB?6?6Program?3?5?$AA@ 00436fc8     LIBCMT:crt0msg.obj
 0002:00001fe4       ??_C@_02CLFPBFFP@TZ?$AA@   00436fe4     LIBCMT:tzset.obj
 0002:00001fe8       ___dnames                  00436fe8     LIBCMT:timeset.obj
 0002:00002000       ___mnames                  00437000     LIBCMT:timeset.obj
 0002:00002028       ??_C@_13NOLLCAOD@?$AA?$AA?$AA?$AA@ 00437028     LIBCMT:a_map.obj
 0002:00002030       ___newctype                00437030     LIBCMT:ctype.obj
 0002:00002330       __wctype                   00437330     LIBCMT:ctype.obj
 0002:00002538       ___newclmap                00437538     LIBCMT:ctype.obj
 0002:000026b8       ___newcumap                004376b8     LIBCMT:ctype.obj
 0002:00002838       ??_C@_08JCCMCCIL@HH?3mm?3ss?$AA@ 00437838     LIBCMT:strftime.obj
 0002:00002844       ??_C@_0BE@CKGJFCPC@dddd?0?5MMMM?5dd?0?5yyyy?$AA@ 00437844     LIBCMT:strftime.obj
 0002:00002858       ??_C@_08BPBNCDIB@MM?1dd?1yy?$AA@ 00437858     LIBCMT:strftime.obj
 0002:00002864       ??_C@_02CJNFDJBF@PM?$AA@   00437864     LIBCMT:strftime.obj
 0002:00002868       ??_C@_02DEDBPAFC@AM?$AA@   00437868     LIBCMT:strftime.obj
 0002:0000286c       ??_C@_08EDHMEBNP@December?$AA@ 0043786c     LIBCMT:strftime.obj
 0002:00002878       ??_C@_08HCHEGEOA@November?$AA@ 00437878     LIBCMT:strftime.obj
 0002:00002884       ??_C@_07JJNFCEND@October?$AA@ 00437884     LIBCMT:strftime.obj
 0002:0000288c       ??_C@_09BHHEALKD@September?$AA@ 0043788c     LIBCMT:strftime.obj
 0002:00002898       ??_C@_06LBBHFDDG@August?$AA@ 00437898     LIBCMT:strftime.obj
 0002:000028a0       ??_C@_04MIEPOIFP@July?$AA@ 004378a0     LIBCMT:strftime.obj
 0002:000028a8       ??_C@_04CNLMGBGM@June?$AA@ 004378a8     LIBCMT:strftime.obj
 0002:000028b0       ??_C@_05DMJDNLEJ@April?$AA@ 004378b0     LIBCMT:strftime.obj
 0002:000028b8       ??_C@_05HPCKOFNC@March?$AA@ 004378b8     LIBCMT:strftime.obj
 0002:000028c0       ??_C@_08GNJGEPFN@February?$AA@ 004378c0     LIBCMT:strftime.obj
 0002:000028cc       ??_C@_07CGJPFGJA@January?$AA@ 004378cc     LIBCMT:strftime.obj
 0002:000028d4       ??_C@_03MKABNOCG@Dec?$AA@  004378d4     LIBCMT:strftime.obj
 0002:000028d8       ??_C@_03JPJOFNIA@Nov?$AA@  004378d8     LIBCMT:strftime.obj
 0002:000028dc       ??_C@_03BMAOKBAD@Oct?$AA@  004378dc     LIBCMT:strftime.obj
 0002:000028e0       ??_C@_03GGCAPAJC@Sep?$AA@  004378e0     LIBCMT:strftime.obj
 0002:000028e4       ??_C@_03IFJFEIGA@Aug?$AA@  004378e4     LIBCMT:strftime.obj
 0002:000028e8       ??_C@_03LBGABGKK@Jul?$AA@  004378e8     LIBCMT:strftime.obj
 0002:000028ec       ??_C@_03IDFGHECI@Jun?$AA@  004378ec     LIBCMT:strftime.obj
 0002:000028f0       ??_C@_03CNMDKL@May?$AA@    004378f0     LIBCMT:strftime.obj
 0002:000028f4       ??_C@_03LEOLGMJP@Apr?$AA@  004378f4     LIBCMT:strftime.obj
 0002:000028f8       ??_C@_03ODNJBKGA@Mar?$AA@  004378f8     LIBCMT:strftime.obj
 0002:000028fc       ??_C@_03HJBDCHOM@Feb?$AA@  004378fc     LIBCMT:strftime.obj
 0002:00002900       ??_C@_03JIHJHPIE@Jan?$AA@  00437900     LIBCMT:strftime.obj
 0002:00002904       ??_C@_08INBOOONO@Saturday?$AA@ 00437904     LIBCMT:strftime.obj
 0002:00002910       ??_C@_06JECMNKMI@Friday?$AA@ 00437910     LIBCMT:strftime.obj
 0002:00002918       ??_C@_08HACCIKIA@Thursday?$AA@ 00437918     LIBCMT:strftime.obj
 0002:00002924       ??_C@_09DLIGFAKA@Wednesday?$AA@ 00437924     LIBCMT:strftime.obj
 0002:00002930       ??_C@_07BAAGCFCM@Tuesday?$AA@ 00437930     LIBCMT:strftime.obj
 0002:00002938       ??_C@_06JLEDEDGH@Monday?$AA@ 00437938     LIBCMT:strftime.obj
 0002:00002940       ??_C@_06OOPIFAJ@Sunday?$AA@ 00437940     LIBCMT:strftime.obj
 0002:00002948       ??_C@_03FEFJNEK@Sat?$AA@   00437948     LIBCMT:strftime.obj
 0002:0000294c       ??_C@_03IDIOELNC@Fri?$AA@  0043794c     LIBCMT:strftime.obj
 0002:00002950       ??_C@_03IOFIKPDN@Thu?$AA@  00437950     LIBCMT:strftime.obj
 0002:00002954       ??_C@_03MHOMLAJA@Wed?$AA@  00437954     LIBCMT:strftime.obj
 0002:00002958       ??_C@_03NAGEINEP@Tue?$AA@  00437958     LIBCMT:strftime.obj
 0002:0000295c       ??_C@_03PDAGKDH@Mon?$AA@   0043795c     LIBCMT:strftime.obj
 0002:00002960       ??_C@_03KOEHGMDN@Sun?$AA@  00437960     LIBCMT:strftime.obj
 0002:00002964       ??_C@_03EBAPMIKO@a?1p?$AA@ 00437964     LIBCMT:strftime.obj
 0002:00002968       ??_C@_05JAMEPDIN@am?1pm?$AA@ 00437968     LIBCMT:strftime.obj
 0002:00002970       ??_C@_0O@FMJNFNKE@united?9states?$AA@ 00437970     LIBCMT:getqloc.obj
 0002:00002980       ??_C@_0P@NDHFFKCA@united?9kingdom?$AA@ 00437980     LIBCMT:getqloc.obj
 0002:00002990       ??_C@_0BC@HHDADLGF@trinidad?5?$CG?5tobago?$AA@ 00437990     LIBCMT:getqloc.obj
 0002:000029a4       ??_C@_0M@IOAEBDAC@south?9korea?$AA@ 004379a4     LIBCMT:getqloc.obj
 0002:000029b0       ??_C@_0N@FIELFKIJ@south?9africa?$AA@ 004379b0     LIBCMT:getqloc.obj
 0002:000029c0       ??_C@_0M@OPNDHCMC@south?5korea?$AA@ 004379c0     LIBCMT:getqloc.obj
 0002:000029cc       ??_C@_0N@MDEOEPFI@south?5africa?$AA@ 004379cc     LIBCMT:getqloc.obj
 0002:000029dc       ??_C@_06FKAPCJLB@slovak?$AA@ 004379dc     LIBCMT:getqloc.obj
 0002:000029e4       ??_C@_0M@EFJANOAL@puerto?9rico?$AA@ 004379e4     LIBCMT:getqloc.obj
 0002:000029f0       ??_C@_08PGOJKDAI@pr?9china?$AA@ 004379f0     LIBCMT:getqloc.obj
 0002:000029fc       ??_C@_08JHDOMCMI@pr?5china?$AA@ 004379fc     LIBCMT:getqloc.obj
 0002:00002a08       ??_C@_02JHCHFBLL@nz?$AA@   00437a08     LIBCMT:getqloc.obj
 0002:00002a0c       ??_C@_0M@LINHDHKP@new?9zealand?$AA@ 00437a0c     LIBCMT:getqloc.obj
 0002:00002a18       ??_C@_09IIIPPBDB@hong?9kong?$AA@ 00437a18     LIBCMT:getqloc.obj
 0002:00002a24       ??_C@_07HJLCKBG@holland?$AA@ 00437a24     LIBCMT:getqloc.obj
 0002:00002a2c       ??_C@_0O@LEHGMHAG@great?5britain?$AA@ 00437a2c     LIBCMT:getqloc.obj
 0002:00002a3c       ??_C@_07FACOMELA@england?$AA@ 00437a3c     LIBCMT:getqloc.obj
 0002:00002a44       ??_C@_05JIHCEICB@czech?$AA@ 00437a44     LIBCMT:getqloc.obj
 0002:00002a4c       ??_C@_05BBJOBLGB@china?$AA@ 00437a4c     LIBCMT:getqloc.obj
 0002:00002a54       ??_C@_07GPKPHICP@britain?$AA@ 00437a54     LIBCMT:getqloc.obj
 0002:00002a5c       ??_C@_07MHIPBHMG@america?$AA@ 00437a5c     LIBCMT:getqloc.obj
 0002:00002a64       ??_C@_03KIALPMKC@usa?$AA@  00437a64     LIBCMT:getqloc.obj
 0002:00002a68       ??_C@_02FGJGKGGD@us?$AA@   00437a68     LIBCMT:getqloc.obj
 0002:00002a6c       ??_C@_02NEINDODK@uk?$AA@   00437a6c     LIBCMT:getqloc.obj
 0002:00002a70       ??_C@_05JMPCFJFJ@swiss?$AA@ 00437a70     LIBCMT:getqloc.obj
 0002:00002a78       ??_C@_0BA@HLOCPIOD@swedish?9finland?$AA@ 00437a78     LIBCMT:getqloc.obj
 0002:00002a88       ??_C@_0BC@PKCNIABK@spanish?9venezuela?$AA@ 00437a88     LIBCMT:getqloc.obj
 0002:00002a9c       ??_C@_0BA@GBHHMIJI@spanish?9uruguay?$AA@ 00437a9c     LIBCMT:getqloc.obj
 0002:00002aac       ??_C@_0BE@BHDOHPMC@spanish?9puerto?5rico?$AA@ 00437aac     LIBCMT:getqloc.obj
 0002:00002ac0       ??_C@_0N@KMOIDGGN@spanish?9peru?$AA@ 00437ac0     LIBCMT:getqloc.obj
 0002:00002ad0       ??_C@_0BB@HMHLPGPH@spanish?9paraguay?$AA@ 00437ad0     LIBCMT:getqloc.obj
 0002:00002ae4       ??_C@_0P@MCPKNGFD@spanish?9panama?$AA@ 00437ae4     LIBCMT:getqloc.obj
 0002:00002af4       ??_C@_0BC@IHOHGAIL@spanish?9nicaragua?$AA@ 00437af4     LIBCMT:getqloc.obj
 0002:00002b08       ??_C@_0P@KLMJDNFJ@spanish?9modern?$AA@ 00437b08     LIBCMT:getqloc.obj
 0002:00002b18       ??_C@_0BA@BPAPGBCM@spanish?9mexican?$AA@ 00437b18     LIBCMT:getqloc.obj
 0002:00002b28       ??_C@_0BB@PDECHHHE@spanish?9honduras?$AA@ 00437b28     LIBCMT:getqloc.obj
 0002:00002b3c       ??_C@_0BC@KLHKFGDB@spanish?9guatemala?$AA@ 00437b3c     LIBCMT:getqloc.obj
 0002:00002b50       ??_C@_0BE@MFOOKJAI@spanish?9el?5salvador?$AA@ 00437b50     LIBCMT:getqloc.obj
 0002:00002b64       ??_C@_0BA@FCOKFPFC@spanish?9ecuador?$AA@ 00437b64     LIBCMT:getqloc.obj
 0002:00002b74       ??_C@_0BL@PLMGIMOO@spanish?9dominican?5republic?$AA@ 00437b74     LIBCMT:getqloc.obj
 0002:00002b90       ??_C@_0BD@HLGDNMHB@spanish?9costa?5rica?$AA@ 00437b90     LIBCMT:getqloc.obj
 0002:00002ba4       ??_C@_0BB@PKCBKCPE@spanish?9colombia?$AA@ 00437ba4     LIBCMT:getqloc.obj
 0002:00002bb8       ??_C@_0O@MCBIJGNE@spanish?9chile?$AA@ 00437bb8     LIBCMT:getqloc.obj
 0002:00002bc8       ??_C@_0BA@BEFEIGJJ@spanish?9bolivia?$AA@ 00437bc8     LIBCMT:getqloc.obj
 0002:00002bd8       ??_C@_0BC@EMECMPD@spanish?9argentina?$AA@ 00437bd8     LIBCMT:getqloc.obj
 0002:00002bec       ??_C@_0BF@EALFLENP@portuguese?9brazilian?$AA@ 00437bec     LIBCMT:getqloc.obj
 0002:00002c04       ??_C@_0BC@HBLEBLNN@norwegian?9nynorsk?$AA@ 00437c04     LIBCMT:getqloc.obj
 0002:00002c18       ??_C@_0BB@HMACDDCK@norwegian?9bokmal?$AA@ 00437c18     LIBCMT:getqloc.obj
 0002:00002c2c       ??_C@_09BAFFPPHE@norwegian?$AA@ 00437c2c     LIBCMT:getqloc.obj
 0002:00002c38       ??_C@_0O@EAJFJDFG@italian?9swiss?$AA@ 00437c38     LIBCMT:getqloc.obj
 0002:00002c48       ??_C@_0O@CNOMPGD@irish?9english?$AA@ 00437c48     LIBCMT:getqloc.obj
 0002:00002c58       ??_C@_0N@EDHBGCKG@german?9swiss?$AA@ 00437c58     LIBCMT:getqloc.obj
 0002:00002c68       ??_C@_0BC@JACMHNBP@german?9luxembourg?$AA@ 00437c68     LIBCMT:getqloc.obj
 0002:00002c7c       ??_C@_0BE@HBGMGFEG@german?9lichtenstein?$AA@ 00437c7c     LIBCMT:getqloc.obj
 0002:00002c90       ??_C@_0BA@HKKBIBKL@german?9austrian?$AA@ 00437c90     LIBCMT:getqloc.obj
 0002:00002ca0       ??_C@_0N@GCAEPEBK@french?9swiss?$AA@ 00437ca0     LIBCMT:getqloc.obj
 0002:00002cb0       ??_C@_0BC@DJFJJCK@french?9luxembourg?$AA@ 00437cb0     LIBCMT:getqloc.obj
 0002:00002cc4       ??_C@_0BA@NNCEDFIC@french?9canadian?$AA@ 00437cc4     LIBCMT:getqloc.obj
 0002:00002cd4       ??_C@_0P@CMPOCLM@french?9belgian?$AA@ 00437cd4     LIBCMT:getqloc.obj
 0002:00002ce4       ??_C@_0M@GHHDJOK@english?9usa?$AA@ 00437ce4     LIBCMT:getqloc.obj
 0002:00002cf0       ??_C@_0L@PLDJKEIL@english?9us?$AA@ 00437cf0     LIBCMT:getqloc.obj
 0002:00002cfc       ??_C@_0L@HJCCDMNC@english?9uk?$AA@ 00437cfc     LIBCMT:getqloc.obj
 0002:00002d08       ??_C@_0BK@CKLIAGJB@english?9trinidad?5y?5tobago?$AA@ 00437d08     LIBCMT:getqloc.obj
 0002:00002d24       ??_C@_0BF@JMJMGNNF@english?9south?5africa?$AA@ 00437d24     LIBCMT:getqloc.obj
 0002:00002d3c       ??_C@_0L@DKIIFDFD@english?9nz?$AA@ 00437d3c     LIBCMT:getqloc.obj
 0002:00002d48       ??_C@_0BA@ONHGJCLH@english?9jamaica?$AA@ 00437d48     LIBCMT:getqloc.obj
 0002:00002d58       ??_C@_0M@HJBGHOPO@english?9ire?$AA@ 00437d58     LIBCMT:getqloc.obj
 0002:00002d64       ??_C@_0BC@LFEKMIFB@english?9caribbean?$AA@ 00437d64     LIBCMT:getqloc.obj
 0002:00002d78       ??_C@_0M@OLDPFKHI@english?9can?$AA@ 00437d78     LIBCMT:getqloc.obj
 0002:00002d84       ??_C@_0P@OMDEHBMP@english?9belize?$AA@ 00437d84     LIBCMT:getqloc.obj
 0002:00002d94       ??_C@_0M@KFHFPFED@english?9aus?$AA@ 00437d94     LIBCMT:getqloc.obj
 0002:00002da0       ??_C@_0BB@MNMBKDFE@english?9american?$AA@ 00437da0     LIBCMT:getqloc.obj
 0002:00002db4       ??_C@_0O@KIDLNNBA@dutch?9belgian?$AA@ 00437db4     LIBCMT:getqloc.obj
 0002:00002dc4       ??_C@_0BE@JBKABBMH@chinese?9traditional?$AA@ 00437dc4     LIBCMT:getqloc.obj
 0002:00002dd8       ??_C@_0BC@MJJMPKCG@chinese?9singapore?$AA@ 00437dd8     LIBCMT:getqloc.obj
 0002:00002dec       ??_C@_0BD@FDKADDCP@chinese?9simplified?$AA@ 00437dec     LIBCMT:getqloc.obj
 0002:00002e00       ??_C@_0BB@DBEFDDME@chinese?9hongkong?$AA@ 00437e00     LIBCMT:getqloc.obj
 0002:00002e14       ??_C@_07DHNMFMCI@chinese?$AA@ 00437e14     LIBCMT:getqloc.obj
 0002:00002e1c       ??_C@_03FNDDCHI@chi?$AA@   00437e1c     LIBCMT:getqloc.obj
 0002:00002e20       ??_C@_03BMMIADDJ@chh?$AA@  00437e20     LIBCMT:getqloc.obj
 0002:00002e24       ??_C@_08OAIPJDGI@canadian?$AA@ 00437e24     LIBCMT:getqloc.obj
 0002:00002e30       ??_C@_07HBPMNPNJ@belgian?$AA@ 00437e30     LIBCMT:getqloc.obj
 0002:00002e38       ??_C@_0L@OEKOPBEL@australian?$AA@ 00437e38     LIBCMT:getqloc.obj
 0002:00002e44       ??_C@_0BB@MEIMBEDG@american?9english?$AA@ 00437e44     LIBCMT:getqloc.obj
 0002:00002e58       ??_C@_0BB@DFMDPDGB@american?5english?$AA@ 00437e58     LIBCMT:getqloc.obj
 0002:00002e6c       ??_C@_08IJLOKOLL@american?$AA@ 00437e6c     LIBCMT:getqloc.obj
 0002:00002e78       ___rg_language             00437e78     LIBCMT:getqloc.obj
 0002:00003080       ___rg_country              00438080     LIBCMT:getqloc.obj
 0002:00003138       ___rglangidNotDefault      00438138     LIBCMT:getqloc.obj
 0002:0000314c       ??_C@_03NFKLAGEF@OCP?$AA@  0043814c     LIBCMT:getqloc.obj
 0002:00003150       ??_C@_03DFHEHBHG@ACP?$AA@  00438150     LIBCMT:getqloc.obj
 0002:00003154       ??_C@_0BC@NFIEMBLL@Norwegian?9Nynorsk?$AA@ 00438154     LIBCMT:getqloc.obj
 0002:00003168       ??_C@_0CG@PKBDLMEO@InitializeCriticalSectionAndSpin@ 00438168     LIBCMT:initcrit.obj
 0002:00003190       ??_C@_0N@MDJJJHMB@kernel32?4dll?$AA@ 00438190     LIBCMT:initcrit.obj
 0002:000031a0       ??_C@_0BC@JEAENNKH@SystemFunction036?$AA@ 004381a0     LIBCMT:rand_s.obj
 0002:000031b4       ??_C@_0N@JJPEKNFO@ADVAPI32?4DLL?$AA@ 004381b4     LIBCMT:rand_s.obj
 0002:000031c4       ??_C@_0BK@CFCOFLF@?5Complete?5Object?5Locator?8?$AA@ 004381c4     LIBCMT:undname.obj
 0002:000031e0       ??_C@_0BN@MECKDCOJ@?5Class?5Hierarchy?5Descriptor?8?$AA@ 004381e0     LIBCMT:undname.obj
 0002:00003200       ??_C@_0BD@LGICGFMM@?5Base?5Class?5Array?8?$AA@ 00438200     LIBCMT:undname.obj
 0002:00003214       ??_C@_0BM@LDKODKLH@?5Base?5Class?5Descriptor?5at?5?$CI?$AA@ 00438214     LIBCMT:undname.obj
 0002:00003230       ??_C@_0BC@DAFEJGAK@?5Type?5Descriptor?8?$AA@ 00438230     LIBCMT:undname.obj
 0002:00003244       ??_C@_0BM@PMGGMLDN@?$GAlocal?5static?5thread?5guard?8?$AA@ 00438244     LIBCMT:undname.obj
 0002:00003260       ??_C@_0CL@FGIJHLCE@?$GAmanaged?5vector?5copy?5constructor@ 00438260     LIBCMT:undname.obj
 0002:0000328c       ??_C@_0CJ@GJELGAMM@?$GAvector?5vbase?5copy?5constructor?5i@ 0043828c     LIBCMT:undname.obj
 0002:000032b8       ??_C@_0CD@CGAJBKEJ@?$GAvector?5copy?5constructor?5iterato@ 004382b8     LIBCMT:undname.obj
 0002:000032dc       ??_C@_0CB@PDBIFEP@?$GAdynamic?5atexit?5destructor?5for?5?8@ 004382dc     LIBCMT:undname.obj
 0002:00003300       ??_C@_0BL@CLIPGLGB@?$GAdynamic?5initializer?5for?5?8?$AA@ 00438300     LIBCMT:undname.obj
 0002:0000331c       ??_C@_0CM@FCBBDIGB@?$GAeh?5vector?5vbase?5copy?5constructo@ 0043831c     LIBCMT:undname.obj
 0002:00003348       ??_C@_0CG@HLDDJMAG@?$GAeh?5vector?5copy?5constructor?5iter@ 00438348     LIBCMT:undname.obj
 0002:00003370       ??_C@_0CF@IMGKMJNO@?$GAmanaged?5vector?5destructor?5itera@ 00438370     LIBCMT:undname.obj
 0002:00003398       ??_C@_0CG@CFDHKGGD@?$GAmanaged?5vector?5constructor?5iter@ 00438398     LIBCMT:undname.obj
 0002:000033c0       ??_C@_0BN@CKNJLHMB@?$GAplacement?5delete?$FL?$FN?5closure?8?$AA@ 004383c0     LIBCMT:undname.obj
 0002:000033e0       ??_C@_0BL@CNOONJFP@?$GAplacement?5delete?5closure?8?$AA@ 004383e0     LIBCMT:undname.obj
 0002:000033fc       ??_C@_0P@HJKNJFNN@?$GAomni?5callsig?8?$AA@ 004383fc     LIBCMT:undname.obj
 0002:0000340c       ??_C@_09LBNFPBCA@?5delete?$FL?$FN?$AA@ 0043840c     LIBCMT:undname.obj
 0002:00003418       ??_C@_06FHBGPFGH@?5new?$FL?$FN?$AA@ 00438418     LIBCMT:undname.obj
 0002:00003420       ??_C@_0CE@IIHCMGGL@?$GAlocal?5vftable?5constructor?5closu@ 00438420     LIBCMT:undname.obj
 0002:00003444       ??_C@_0BA@KKLDJDLB@?$GAlocal?5vftable?8?$AA@ 00438444     LIBCMT:undname.obj
 0002:00003454       ??_C@_05KHLCHHI@?$GARTTI?$AA@ 00438454     LIBCMT:undname.obj
 0002:0000345c       ??_C@_03KLGMFNMG@?$GAEH?$AA@ 0043845c     LIBCMT:undname.obj
 0002:00003460       ??_C@_0BA@KBCDOMBN@?$GAudt?5returning?8?$AA@ 00438460     LIBCMT:undname.obj
 0002:00003470       ??_C@_0BL@LLKPOHJI@?$GAcopy?5constructor?5closure?8?$AA@ 00438470     LIBCMT:undname.obj
 0002:0000348c       ??_C@_0CH@OOJPLCPH@?$GAeh?5vector?5vbase?5constructor?5ite@ 0043848c     LIBCMT:undname.obj
 0002:000034b4       ??_C@_0CA@GCEOPDGL@?$GAeh?5vector?5destructor?5iterator?8?$AA@ 004384b4     LIBCMT:undname.obj
 0002:000034d4       ??_C@_0CB@JONCMFFK@?$GAeh?5vector?5constructor?5iterator?8@ 004384d4     LIBCMT:undname.obj
 0002:000034f8       ??_C@_0BL@NILFHHPC@?$GAvirtual?5displacement?5map?8?$AA@ 004384f8     LIBCMT:undname.obj
 0002:00003514       ??_C@_0CE@IKBNEHA@?$GAvector?5vbase?5constructor?5iterat@ 00438514     LIBCMT:undname.obj
 0002:00003538       ??_C@_0BN@LFPFMEDL@?$GAvector?5destructor?5iterator?8?$AA@ 00438538     LIBCMT:undname.obj
 0002:00003558       ??_C@_0BO@PFGOCPJJ@?$GAvector?5constructor?5iterator?8?$AA@ 00438558     LIBCMT:undname.obj
 0002:00003578       ??_C@_0BN@IMDCHIKM@?$GAscalar?5deleting?5destructor?8?$AA@ 00438578     LIBCMT:undname.obj
 0002:00003598       ??_C@_0BO@OBMKPJIG@?$GAdefault?5constructor?5closure?8?$AA@ 00438598     LIBCMT:undname.obj
 0002:000035b8       ??_C@_0BN@DEGPLNFK@?$GAvector?5deleting?5destructor?8?$AA@ 004385b8     LIBCMT:undname.obj
 0002:000035d8       ??_C@_0BD@JDLKDPAB@?$GAvbase?5destructor?8?$AA@ 004385d8     LIBCMT:undname.obj
 0002:000035ec       ??_C@_08OBABFOLI@?$GAstring?8?$AA@ 004385ec     LIBCMT:undname.obj
 0002:000035f8       ??_C@_0BF@KDPPACIK@?$GAlocal?5static?5guard?8?$AA@ 004385f8     LIBCMT:undname.obj
 0002:00003610       ??_C@_08LLFFHHDJ@?$GAtypeof?8?$AA@ 00438610     LIBCMT:undname.obj
 0002:0000361c       ??_C@_07FEEIOKP@?$GAvcall?8?$AA@ 0043861c     LIBCMT:undname.obj
 0002:00003624       ??_C@_09BLBHBJP@?$GAvbtable?8?$AA@ 00438624     LIBCMT:undname.obj
 0002:00003630       ??_C@_09IFPLHPGF@?$GAvftable?8?$AA@ 00438630     LIBCMT:undname.obj
 0002:0000363c       ??_C@_02MHEGNOJ@?$FO?$DN?$AA@ 0043863c     LIBCMT:undname.obj
 0002:00003640       ??_C@_02DHLNPPGH@?$HM?$DN?$AA@ 00438640     LIBCMT:undname.obj
 0002:00003644       ??_C@_02FGJGFEAB@?$CG?$DN?$AA@ 00438644     LIBCMT:undname.obj
 0002:00003648       ??_C@_03CDNPDDLA@?$DM?$DM?$DN?$AA@ 00438648     LIBCMT:undname.obj
 0002:0000364c       ??_C@_03IKFCCPFF@?$DO?$DO?$DN?$AA@ 0043864c     LIBCMT:undname.obj
 0002:00003650       ??_C@_02FENAOKFI@?$CF?$DN?$AA@ 00438650     LIBCMT:undname.obj
 0002:00003654       ??_C@_02FJEHGPIO@?1?$DN?$AA@ 00438654     LIBCMT:undname.obj
 0002:00003658       ??_C@_02FKMDLLOA@?9?$DN?$AA@ 00438658     LIBCMT:undname.obj
 0002:0000365c       ??_C@_02FOEOMHFC@?$CL?$DN?$AA@ 0043865c     LIBCMT:undname.obj
 0002:00003660       ??_C@_02FPIMKNGF@?$CK?$DN?$AA@ 00438660     LIBCMT:undname.obj
 0002:00003664       ??_C@_02NONPIBCD@?$HM?$HM?$AA@ 00438664     LIBCMT:undname.obj
 0002:00003668       ??_C@_02PPKAJPJL@?$CG?$CG?$AA@ 00438668     LIBCMT:undname.obj
 0002:0000366c       ??_C@_01DNKMNLPK@?$HM?$AA@ 0043866c     LIBCMT:undname.obj
 0002:00003670       ??_C@_01JKBOJNNK@?$FO?$AA@ 00438670     LIBCMT:undname.obj
 0002:00003674       ??_C@_01PJKLJHI@?$HO?$AA@  00438674     LIBCMT:undname.obj
 0002:00003678       ??_C@_02HCKGKOFO@?$CI?$CJ?$AA@ 00438678     LIBCMT:undname.obj
 0002:0000367c       ??_C@_01IHBHIGKO@?0?$AA@   0043867c     LIBCMT:undname.obj
 0002:00003680       ??_C@_02EEKDKGMJ@?$DO?$DN?$AA@ 00438680     LIBCMT:undname.obj
 0002:00003684       ??_C@_01PPODPGHN@?$DO?$AA@ 00438684     LIBCMT:undname.obj
 0002:00003688       ??_C@_02EHCHHCKH@?$DM?$DN?$AA@ 00438688     LIBCMT:undname.obj
 0002:0000368c       ??_C@_01MNNFJEPP@?$DM?$AA@ 0043868c     LIBCMT:undname.obj
 0002:00003690       ??_C@_01FGNFDNOH@?$CF?$AA@ 00438690     LIBCMT:undname.obj
 0002:00003694       ??_C@_01KMDKNFGN@?1?$AA@   00438694     LIBCMT:undname.obj
 0002:00003698       ??_C@_03MNHNFDLC@?9?$DO?$CK?$AA@ 00438698     LIBCMT:undname.obj
 0002:0000369c       ??_C@_01HNPIGOCE@?$CG?$AA@ 0043869c     LIBCMT:undname.obj
 0002:000036a0       ??_C@_01MIFGBAGJ@?$CL?$AA@ 004386a0     LIBCMT:undname.obj
 0002:000036a4       ??_C@_01JOAMLHOP@?9?$AA@   004386a4     LIBCMT:undname.obj
 0002:000036a8       ??_C@_02BAABKJLB@?9?9?$AA@ 004386a8     LIBCMT:undname.obj
 0002:000036ac       ??_C@_02ECNGHCIF@?$CL?$CL?$AA@ 004386ac     LIBCMT:undname.obj
 0002:000036b0       ??_C@_01NBENCBCI@?$CK?$AA@ 004386b0     LIBCMT:undname.obj
 0002:000036b4       ??_C@_02HBOOOICD@?9?$DO?$AA@ 004386b4     LIBCMT:undname.obj
 0002:000036b8       ??_C@_08LHJFAFGD@operator?$AA@ 004386b8     LIBCMT:undname.obj
 0002:000036c4       ??_C@_02GPECMEKF@?$FL?$FN?$AA@ 004386c4     LIBCMT:undname.obj
 0002:000036c8       ??_C@_02FDNJECIE@?$CB?$DN?$AA@ 004386c8     LIBCMT:undname.obj
 0002:000036cc       ??_C@_02EGOFBIJA@?$DN?$DN?$AA@ 004386cc     LIBCMT:undname.obj
 0002:000036d0       ??_C@_01DCLJPIOD@?$CB?$AA@ 004386d0     LIBCMT:undname.obj
 0002:000036d4       ??_C@_02FODMEDOG@?$DM?$DM?$AA@ 004386d4     LIBCMT:undname.obj
 0002:000036d8       ??_C@_02GPIOPFAK@?$DO?$DO?$AA@ 004386d8     LIBCMT:undname.obj
 0002:000036dc       ??_C@_07FPCDHGMM@?5delete?$AA@ 004386dc     LIBCMT:undname.obj
 0002:000036e4       ??_C@_04NIHEBCM@?5new?$AA@ 004386e4     LIBCMT:undname.obj
 0002:000036ec       ??_C@_0M@GFIIJFMG@__unaligned?$AA@ 004386ec     LIBCMT:undname.obj
 0002:000036f8       ??_C@_0L@PILCLIHE@__restrict?$AA@ 004386f8     LIBCMT:undname.obj
 0002:00003704       ??_C@_07JOMMBBKO@__ptr64?$AA@ 00438704     LIBCMT:undname.obj
 0002:0000370c       ??_C@_09HIJEGCPM@__clrcall?$AA@ 0043870c     LIBCMT:undname.obj
 0002:00003718       ??_C@_0L@JMKHOMEK@__fastcall?$AA@ 00438718     LIBCMT:undname.obj
 0002:00003724       ??_C@_0L@NPHFGOKO@__thiscall?$AA@ 00438724     LIBCMT:undname.obj
 0002:00003730       ??_C@_09IFJBGAPI@__stdcall?$AA@ 00438730     LIBCMT:undname.obj
 0002:0000373c       ??_C@_08GHMPAG@__pascal?$AA@ 0043873c     LIBCMT:undname.obj
 0002:00003748       ??_C@_07KOLFKCDI@__cdecl?$AA@ 00438748     LIBCMT:undname.obj
 0002:00003750       ??_C@_08EHJDFFNH@__based?$CI?$AA@ 00438750     LIBCMT:undname.obj
 0002:000038e4       ??_7DNameNode@@6B@         004388e4     LIBCMT:undname.obj
 0002:000038f4       ??_7charNode@@6B@          004388f4     LIBCMT:undname.obj
 0002:00003904       ??_7pDNameNode@@6B@        00438904     LIBCMT:undname.obj
 0002:00003914       ??_7DNameStatusNode@@6B@   00438914     LIBCMT:undname.obj
 0002:00003924       ??_7pcharNode@@6B@         00438924     LIBCMT:undname.obj
 0002:00003930       ??_C@_04OKOHEJBO@?5?$DP?$DP?5?$AA@ 00438930     LIBCMT:undname.obj
 0002:00003938       ??_C@_06EEGAIFAK@?$HLflat?$HN?$AA@ 00438938     LIBCMT:undname.obj
 0002:00003940       ??_C@_05JIBOFOHK@?$HLfor?5?$AA@ 00438940     LIBCMT:undname.obj
 0002:00003948       ??_C@_0BN@IBLMMFAP@?$GAnon?9type?9template?9parameter?$AA@ 00438948     LIBCMT:undname.obj
 0002:00003968       ??_C@_09EBBEKKIH@unsigned?5?$AA@ 00438968     LIBCMT:undname.obj
 0002:00003974       ??_C@_05CJIMAING@long?5?$AA@ 00438974     LIBCMT:undname.obj
 0002:0000397c       ??_C@_04LAHKHJMA@int?5?$AA@ 0043897c     LIBCMT:undname.obj
 0002:00003984       ??_C@_06EHJMALKF@short?5?$AA@ 00438984     LIBCMT:undname.obj
 0002:0000398c       ??_C@_05CIHEBHNO@char?5?$AA@ 0043898c     LIBCMT:undname.obj
 0002:00003994       ??_C@_04GKJNKENE@void?$AA@ 00438994     LIBCMT:undname.obj
 0002:0000399c       ??_C@_0L@EGPHHEKN@?$DMellipsis?$DO?$AA@ 0043899c     LIBCMT:undname.obj
 0002:000039a8       ??_C@_0M@ELJOJFFH@?0?$DMellipsis?$DO?$AA@ 004389a8     LIBCMT:undname.obj
 0002:000039b4       ??_C@_04EENFHACM@?0?4?4?4?$AA@ 004389b4     LIBCMT:undname.obj
 0002:000039bc       ??_C@_07HDJPLPEK@?5throw?$CI?$AA@ 004389bc     LIBCMT:undname.obj
 0002:000039c4       ??_C@_02GOGNNPBN@?$CJ?$FL?$AA@ 004389c4     LIBCMT:undname.obj
 0002:000039c8       ??_C@_02MDINNEEG@s?5?$AA@  004389c8     LIBCMT:undname.obj
 0002:000039cc       ??_C@_0BE@EODMJLIF@?$GAtemplate?9parameter?$AA@ 004389cc     LIBCMT:undname.obj
 0002:000039e0       ??_C@_01GEODFPGF@?8?$AA@   004389e0     LIBCMT:undname.obj
 0002:000039e4       ??_C@_04HIBGFPH@NULL?$AA@  004389e4     LIBCMT:undname.obj
 0002:000039ec       ??_C@_0O@GKABPPIF@cli?3?3pin_ptr?$DM?$AA@ 004389ec     LIBCMT:undname.obj
 0002:000039fc       ??_C@_0M@EALIELKG@cli?3?3array?$DM?$AA@ 004389fc     LIBCMT:undname.obj
 0002:00003a08       ??_C@_05BEFAKPML@void?5?$AA@ 00438a08     LIBCMT:undname.obj
 0002:00003a10       ??_C@_02OHHJMEON@?8?8?$AA@ 00438a10     LIBCMT:undname.obj
 0002:00003a14       ??_C@_0BG@JNJLAMPM@?$GAanonymous?5namespace?8?$AA@ 00438a14     LIBCMT:undname.obj
 0002:00003a2c       ??_C@_01NLNLIGKH@?$GA?$AA@ 00438a2c     LIBCMT:undname.obj
 0002:00003a30       ??_C@_0O@KHGCOMHP@generic?9type?9?$AA@ 00438a30     LIBCMT:undname.obj
 0002:00003a40       ??_C@_0BE@JAEOCHPE@template?9parameter?9?$AA@ 00438a40     LIBCMT:undname.obj
 0002:00003a54       ??_C@_02MOLJINC@?3?3?$AA@  00438a54     LIBCMT:undname.obj
 0002:00003a58       ??_C@_0P@GCIFDJCJ@?$GAunknown?5ecsu?8?$AA@ 00438a58     LIBCMT:undname.obj
 0002:00003a68       ??_C@_06MOJHIBMG@union?5?$AA@ 00438a68     LIBCMT:undname.obj
 0002:00003a70       ??_C@_07DIBCDNGL@struct?5?$AA@ 00438a70     LIBCMT:undname.obj
 0002:00003a78       ??_C@_06LJBABKPM@class?5?$AA@ 00438a78     LIBCMT:undname.obj
 0002:00003a80       ??_C@_05LJGMCFOG@enum?5?$AA@ 00438a80     LIBCMT:undname.obj
 0002:00003a88       ??_C@_08KOFANOFK@coclass?5?$AA@ 00438a88     LIBCMT:undname.obj
 0002:00003a94       ??_C@_0N@DLIEFKNA@cointerface?5?$AA@ 00438a94     LIBCMT:undname.obj
 0002:00003aa4       ??_C@_02KCKGHPCA@?$CJ?5?$AA@ 00438aa4     LIBCMT:undname.obj
 0002:00003aa8       ??_C@_0M@DHNBOJMP@extern?5?$CCC?$CC?5?$AA@ 00438aa8     LIBCMT:undname.obj
 0002:00003ab4       ??_C@_08KJLFOPNE@?$FLthunk?$FN?3?$AA@ 00438ab4     LIBCMT:undname.obj
 0002:00003ac0       ??_C@_08GPDDCMKI@public?3?5?$AA@ 00438ac0     LIBCMT:undname.obj
 0002:00003acc       ??_C@_0M@GAIFPFIP@protected?3?5?$AA@ 00438acc     LIBCMT:undname.obj
 0002:00003ad8       ??_C@_09LAPHOOG@private?3?5?$AA@ 00438ad8     LIBCMT:undname.obj
 0002:00003ae4       ??_C@_08NIEOINHE@virtual?5?$AA@ 00438ae4     LIBCMT:undname.obj
 0002:00003af0       ??_C@_07PGOEDBHP@static?5?$AA@ 00438af0     LIBCMT:undname.obj
 0002:00003af8       ??_C@_0DA@HGFJFBBE@?$GAtemplate?5static?5data?5member?5des@ 00438af8     LIBCMT:undname.obj
 0002:00003b28       ??_C@_0DB@ILEFOCIJ@?$GAtemplate?5static?5data?5member?5con@ 00438b28     LIBCMT:undname.obj
 0002:00003b5c       ??_C@_0CB@KJDOOODE@?$GAlocal?5static?5destructor?5helper?8@ 00438b5c     LIBCMT:undname.obj
 0002:00003b80       ??_C@_0L@HNGCOGAE@?$GAadjustor?$HL?$AA@ 00438b80     LIBCMT:undname.obj
 0002:00003b8c       ??_C@_0L@GHPFDFH@?$GAvtordisp?$HL?$AA@ 00438b8c     LIBCMT:undname.obj
 0002:00003b98       ??_C@_0N@CBHHHENL@?$GAvtordispex?$HL?$AA@ 00438b98     LIBCMT:undname.obj
 0002:00003ba8       ??_C@_02IGFCGPIL@?$HN?8?$AA@ 00438ba8     LIBCMT:undname.obj
 0002:00003bac       ??_C@_03OPGICMGF@?$HN?8?5?$AA@ 00438bac     LIBCMT:undname.obj
 0002:00003bb0       ??_C@_06LIJLOJAG@const?5?$AA@ 00438bb0     LIBCMT:undname.obj
 0002:00003bb8       ??_C@_09GAIEOBLP@volatile?5?$AA@ 00438bb8     LIBCMT:undname.obj
 0002:00003bc4       ??_C@_04HEJADOOB@CV?3?5?$AA@ 00438bc4     LIBCMT:undname.obj
 0002:00003bcc       ??_C@_08PABEKFH@volatile?$AA@ 00438bcc     LIBCMT:undname.obj
 0002:00003bd8       ??_C@_09EFNPDFFP@?5volatile?$AA@ 00438bd8     LIBCMT:undname.obj
 0002:00003be4       ??_C@_05BNCCCJPP@const?$AA@ 00438be4     LIBCMT:undname.obj
 0002:00003bec       ??_C@_07EDHNAJHC@signed?5?$AA@ 00438bec     LIBCMT:undname.obj
 0002:00003bf4       ??_C@_06BNJCAIGJ@double?$AA@ 00438bf4     LIBCMT:undname.obj
 0002:00003bfc       ??_C@_04DDKJGDCM@bool?$AA@ 00438bfc     LIBCMT:undname.obj
 0002:00003c04       ??_C@_07CLGGIAMF@wchar_t?$AA@ 00438c04     LIBCMT:undname.obj
 0002:00003c0c       ??_C@_07NFANNNEC@UNKNOWN?$AA@ 00438c0c     LIBCMT:undname.obj
 0002:00003c14       ??_C@_08GAHOLHEO@__int128?$AA@ 00438c14     LIBCMT:undname.obj
 0002:00003c20       ??_C@_07OFLPPHGP@__int32?$AA@ 00438c20     LIBCMT:undname.obj
 0002:00003c28       ??_C@_07LFCOJCAC@__int64?$AA@ 00438c28     LIBCMT:undname.obj
 0002:00003c30       ??_C@_07ICFHOGAF@__int16?$AA@ 00438c30     LIBCMT:undname.obj
 0002:00003c38       ??_C@_06GCICPBLB@__w64?5?$AA@ 00438c38     LIBCMT:undname.obj
 0002:00003c40       ??_C@_06EBGKOKIG@__int8?$AA@ 00438c40     LIBCMT:undname.obj
 0002:00003c48       ??_C@_05KNFBNCOH@float?$AA@ 00438c48     LIBCMT:undname.obj
 0002:00003c50       ??_C@_04GOKPGOLB@long?$AA@ 00438c50     LIBCMT:undname.obj
 0002:00003c58       ??_C@_03JBIPMCLC@int?$AA@  00438c58     LIBCMT:undname.obj
 0002:00003c5c       ??_C@_05BFKKPKCG@short?$AA@ 00438c5c     LIBCMT:undname.obj
 0002:00003c64       ??_C@_04ENMBGAPA@char?$AA@ 00438c64     LIBCMT:undname.obj
 0002:00003c6c       ??_C@_0BI@DFKBFLJE@GetProcessWindowStation?$AA@ 00438c6c     LIBCMT:crtmbox.obj
 0002:00003c84       ??_C@_0BK@CIDNPOGP@GetUserObjectInformationA?$AA@ 00438c84     LIBCMT:crtmbox.obj
 0002:00003ca0       ??_C@_0BD@HHGDFDBJ@GetLastActivePopup?$AA@ 00438ca0     LIBCMT:crtmbox.obj
 0002:00003cb4       ??_C@_0BA@HNOPNCHB@GetActiveWindow?$AA@ 00438cb4     LIBCMT:crtmbox.obj
 0002:00003cc4       ??_C@_0M@CHKKJDAI@MessageBoxA?$AA@ 00438cc4     LIBCMT:crtmbox.obj
 0002:00003cd0       ??_C@_0L@NDEGIDAG@USER32?4DLL?$AA@ 00438cd0     LIBCMT:crtmbox.obj
 0002:00003cdc       ??_C@_06GDENEHCP@CONIN$?$AA@ 00438cdc     LIBCMT:initcon.obj
 0002:00003ce4       ??_C@_07GPDNMNG@CONOUT$?$AA@ 00438ce4     LIBCMT:initcon.obj
 0002:00003cf0       ??_7invalid_argument@std@@6B@ 00438cf0     libcpmt:string.obj
 0002:00003cf8       ??_C@_0BA@JFNIOLAK@string?5too?5long?$AA@ 00438cf8     libcpmt:string.obj
 0002:00003d08       ??_C@_0BI@CFPLBAOH@invalid?5string?5position?$AA@ 00438d08     libcpmt:string.obj
 0002:00003d20       ??_C@_0BI@ILCMCLF@invalid?5string?5argument?$AA@ 00438d20     libcpmt:string.obj
 0002:00003d38       __GUID_df0b3d60_548f_101b_8e65_08002b2bd119 00438d38     comsuppw:comsupp.obj
 0002:00003d48       __GUID_00000000_0000_0000_0000_000000000000 00438d48     comsuppw:invkprxy.obj
 0002:00003d58       __GUID_1cf2b120_547d_101b_8e65_08002b2bd119 00438d58     comsuppw:invkerr.obj
 0002:00003d68       __GUID_00020400_0000_0000_c000_000000000046 00438d68     comsuppw:invkerr.obj
 0002:00003d78       __FPinit                   00438d78     LIBCMT:fpinit.obj
 0002:00003d7c       __FPmtinit                 00438d7c     LIBCMT:fpinit.obj
 0002:00003d80       __FPmtterm                 00438d80     LIBCMT:fpinit.obj
 0002:00003d88       __real@0000000000000000    00438d88     LIBCMT:cvt.obj
 0002:00003d90       ??_C@_05KLBDPFGC@e?$CL000?$AA@ 00438d90     LIBCMT:cvt.obj
 0002:00003d98       __real@3ff0000000000000    00438d98     LIBCMT:testfdiv.obj
 0002:00003da0       __real@4150017ec0000000    00438da0     LIBCMT:testfdiv.obj
 0002:00003da8       __real@4147ffff80000000    00438da8     LIBCMT:testfdiv.obj
 0002:00003db0       ??_C@_0BK@NHEOCAHP@IsProcessorFeaturePresent?$AA@ 00438db0     LIBCMT:testfdiv.obj
 0002:00003dcc       ??_C@_08CPNIBGIE@KERNEL32?$AA@ 00438dcc     LIBCMT:testfdiv.obj
 0002:00003dd8       ??_C@_06IMKFLFPG@1?$CDQNAN?$AA@ 00438dd8     LIBCMT:x10fout.obj
 0002:00003de0       ??_C@_05DNEBIAHO@1?$CDINF?$AA@ 00438de0     LIBCMT:x10fout.obj
 0002:00003de8       ??_C@_05PHHOCPM@1?$CDIND?$AA@ 00438de8     LIBCMT:x10fout.obj
 0002:00003df0       ??_C@_06PGGFOGJG@1?$CDSNAN?$AA@ 00438df0     LIBCMT:x10fout.obj
 0002:00003df8       __load_config_used         00438df8     LIBCMT:loadcfg.obj
 0002:00003eac       ??_R4KThread@@6B@          00438eac     KThread.obj
 0002:00003ec0       ??_R3KThread@@8            00438ec0     KThread.obj
 0002:00003ed0       ??_R2KThread@@8            00438ed0     KThread.obj
 0002:00003ed8       ??_R1A@?0A@EA@KThread@@8   00438ed8     KThread.obj
 0002:00003ef4       ??_R4K_CS@@6B@             00438ef4     KThread.obj
 0002:00003f08       ??_R3K_CS@@8               00438f08     KThread.obj
 0002:00003f18       ??_R2K_CS@@8               00438f18     KThread.obj
 0002:00003f20       ??_R1A@?0A@EA@K_CS@@8      00438f20     KThread.obj
 0002:00003f3c       ??_R4bad_alloc@std@@6B@    00438f3c     LogFile.obj
 0002:00003f50       ??_R3bad_alloc@std@@8      00438f50     LogFile.obj
 0002:00003f60       ??_R2bad_alloc@std@@8      00438f60     LogFile.obj
 0002:00003f6c       ??_R1A@?0A@EA@bad_alloc@std@@8 00438f6c     LogFile.obj
 0002:00003f88       ??_R1A@?0A@EA@exception@std@@8 00438f88     LogFile.obj
 0002:00003fa4       ??_R3exception@std@@8      00438fa4     LogFile.obj
 0002:00003fb4       ??_R2exception@std@@8      00438fb4     LogFile.obj
 0002:00003fbc       ??_R4CLogFile@@6B@         00438fbc     LogFile.obj
 0002:00003fd0       ??_R3CLogFile@@8           00438fd0     LogFile.obj
 0002:00003fe0       ??_R2CLogFile@@8           00438fe0     LogFile.obj
 0002:00003fe8       ??_R1A@?0A@EA@CLogFile@@8  00438fe8     LogFile.obj
 0002:00004004       ??_R4_com_error@@6B@       00439004     S3P_MSSQLServer_Result.obj
 0002:00004018       ??_R3_com_error@@8         00439018     S3P_MSSQLServer_Result.obj
 0002:00004028       ??_R2_com_error@@8         00439028     S3P_MSSQLServer_Result.obj
 0002:00004030       ??_R1A@?0A@EA@_com_error@@8 00439030     S3P_MSSQLServer_Result.obj
 0002:0000404c       ??_R4S3P_MSSQLServer_Result@@6B@ 0043904c     S3P_MSSQLServer_Result.obj
 0002:00004060       ??_R3S3P_MSSQLServer_Result@@8 00439060     S3P_MSSQLServer_Result.obj
 0002:00004070       ??_R2S3P_MSSQLServer_Result@@8 00439070     S3P_MSSQLServer_Result.obj
 0002:0000407c       ??_R1A@?0A@EA@S3P_MSSQLServer_Result@@8 0043907c     S3P_MSSQLServer_Result.obj
 0002:00004098       ??_R1A@?0A@EA@S3PResultVBC@@8 00439098     S3P_MSSQLServer_Result.obj
 0002:000040b4       ??_R3S3PResultVBC@@8       004390b4     S3P_MSSQLServer_Result.obj
 0002:000040c4       ??_R2S3PResultVBC@@8       004390c4     S3P_MSSQLServer_Result.obj
 0002:000040cc       ??_R4S3PAccount@@6B@       004390cc     S3PAccount.obj
 0002:000040e0       ??_R3S3PAccount@@8         004390e0     S3PAccount.obj
 0002:000040f0       ??_R2S3PAccount@@8         004390f0     S3PAccount.obj
 0002:000040f8       ??_R1A@?0A@EA@S3PAccount@@8 004390f8     S3PAccount.obj
 0002:00004114       ??_R4logic_error@std@@6B@  00439114     S3PAccount.obj
 0002:00004128       ??_R3logic_error@std@@8    00439128     S3PAccount.obj
 0002:00004138       ??_R2logic_error@std@@8    00439138     S3PAccount.obj
 0002:00004144       ??_R1A@?0A@EA@logic_error@std@@8 00439144     S3PAccount.obj
 0002:00004160       ??_R4length_error@std@@6B@ 00439160     S3PAccount.obj
 0002:00004174       ??_R3length_error@std@@8   00439174     S3PAccount.obj
 0002:00004184       ??_R2length_error@std@@8   00439184     S3PAccount.obj
 0002:00004194       ??_R1A@?0A@EA@length_error@std@@8 00439194     S3PAccount.obj
 0002:000041b0       ??_R4S3PDB_MSSQLServer_Connection@@6B@ 004391b0     S3PDB_MSSQLServer_Connection.obj
 0002:000041c4       ??_R3S3PDB_MSSQLServer_Connection@@8 004391c4     S3PDB_MSSQLServer_Connection.obj
 0002:000041d4       ??_R2S3PDB_MSSQLServer_Connection@@8 004391d4     S3PDB_MSSQLServer_Connection.obj
 0002:000041e4       ??_R1A@?0A@EA@S3PDB_MSSQLServer_Connection@@8 004391e4     S3PDB_MSSQLServer_Connection.obj
 0002:00004200       ??_R1A@?0A@EA@S3PDBConVBC@@8 00439200     S3PDB_MSSQLServer_Connection.obj
 0002:0000421c       ??_R3S3PDBConVBC@@8        0043921c     S3PDB_MSSQLServer_Connection.obj
 0002:0000422c       ??_R2S3PDBConVBC@@8        0043922c     S3PDB_MSSQLServer_Connection.obj
 0002:00004238       ??_R4S3PDBConnectionPool@@6B@ 00439238     S3PDBConnectionPool.obj
 0002:0000424c       ??_R3S3PDBConnectionPool@@8 0043924c     S3PDBConnectionPool.obj
 0002:0000425c       ??_R2S3PDBConnectionPool@@8 0043925c     S3PDBConnectionPool.obj
 0002:00004268       ??_R1A@?0A@EA@S3PDBConnectionPool@@8 00439268     S3PDBConnectionPool.obj
 0002:00004284       ??_R4S3PDBConVBC@@6B@      00439284     S3PDBConVBC.obj
 0002:00004298       ??_R4KThread_CS@@6BKThread@@@ 00439298     S3PDBSocketPool.obj
 0002:000042ac       ??_R3KThread_CS@@8         004392ac     S3PDBSocketPool.obj
 0002:000042bc       ??_R2KThread_CS@@8         004392bc     S3PDBSocketPool.obj
 0002:000042cc       ??_R1A@?0A@EA@KThread_CS@@8 004392cc     S3PDBSocketPool.obj
 0002:000042e8       ??_R1M@?0A@EA@K_CS@@8      004392e8     S3PDBSocketPool.obj
 0002:00004304       ??_R4KThread_CS@@6BK_CS@@@ 00439304     S3PDBSocketPool.obj
 0002:00004318       ??_R4KGatewayDataProcess@@6BKThread@@@ 00439318     S3PDBSocketPool.obj
 0002:0000432c       ??_R3KGatewayDataProcess@@8 0043932c     S3PDBSocketPool.obj
 0002:0000433c       ??_R2KGatewayDataProcess@@8 0043933c     S3PDBSocketPool.obj
 0002:00004350       ??_R1A@?0A@EA@KGatewayDataProcess@@8 00439350     S3PDBSocketPool.obj
 0002:0000436c       ??_R4KGatewayDataProcess@@6BK_CS@@@ 0043936c     S3PDBSocketPool.obj
 0002:00004380       ??_R4out_of_range@std@@6B@ 00439380     S3PDBSocketPool.obj
 0002:00004394       ??_R3out_of_range@std@@8   00439394     S3PDBSocketPool.obj
 0002:000043a4       ??_R2out_of_range@std@@8   004393a4     S3PDBSocketPool.obj
 0002:000043b4       ??_R1A@?0A@EA@out_of_range@std@@8 004393b4     S3PDBSocketPool.obj
 0002:000043d0       ??_R4S3PDBSocketPool@@6B@  004393d0     S3PDBSocketPool.obj
 0002:000043e4       ??_R3S3PDBSocketPool@@8    004393e4     S3PDBSocketPool.obj
 0002:000043f4       ??_R2S3PDBSocketPool@@8    004393f4     S3PDBSocketPool.obj
 0002:00004400       ??_R1A@?0A@EA@S3PDBSocketPool@@8 00439400     S3PDBSocketPool.obj
 0002:0000441c       ??_R4S3PResultVBC@@6B@     0043941c     S3PResultVBC.obj
 0002:00004430       ??_R4type_info@@6B@        00439430     LIBCMT:typinfo.obj
 0002:00004444       ??_R3type_info@@8          00439444     LIBCMT:typinfo.obj
 0002:00004454       ??_R2type_info@@8          00439454     LIBCMT:typinfo.obj
 0002:0000445c       ??_R1A@?0A@EA@type_info@@8 0043945c     LIBCMT:typinfo.obj
 0002:00004478       ??_R4exception@std@@6B@    00439478     LIBCMT:stdexcpt.obj
 0002:0000448c       ??_R4bad_cast@std@@6B@     0043948c     LIBCMT:stdexcpt.obj
 0002:000044a0       ??_R3bad_cast@std@@8       004394a0     LIBCMT:stdexcpt.obj
 0002:000044b0       ??_R2bad_cast@std@@8       004394b0     LIBCMT:stdexcpt.obj
 0002:000044bc       ??_R1A@?0A@EA@bad_cast@std@@8 004394bc     LIBCMT:stdexcpt.obj
 0002:000044d8       ??_R4bad_typeid@std@@6B@   004394d8     LIBCMT:stdexcpt.obj
 0002:000044ec       ??_R3bad_typeid@std@@8     004394ec     LIBCMT:stdexcpt.obj
 0002:000044fc       ??_R2bad_typeid@std@@8     004394fc     LIBCMT:stdexcpt.obj
 0002:00004508       ??_R1A@?0A@EA@bad_typeid@std@@8 00439508     LIBCMT:stdexcpt.obj
 0002:00004524       ??_R4__non_rtti_object@std@@6B@ 00439524     LIBCMT:stdexcpt.obj
 0002:00004538       ??_R3__non_rtti_object@std@@8 00439538     LIBCMT:stdexcpt.obj
 0002:00004548       ??_R2__non_rtti_object@std@@8 00439548     LIBCMT:stdexcpt.obj
 0002:00004558       ??_R1A@?0A@EA@__non_rtti_object@std@@8 00439558     LIBCMT:stdexcpt.obj
 0002:00004574       ??_R4bad_exception@std@@6B@ 00439574     LIBCMT:frame.obj
 0002:00004588       ??_R3bad_exception@std@@8  00439588     LIBCMT:frame.obj
 0002:00004598       ??_R2bad_exception@std@@8  00439598     LIBCMT:frame.obj
 0002:000045a4       ??_R1A@?0A@EA@bad_exception@std@@8 004395a4     LIBCMT:frame.obj
 0002:000045c0       ??_R4DNameNode@@6B@        004395c0     LIBCMT:undname.obj
 0002:000045d4       ??_R3DNameNode@@8          004395d4     LIBCMT:undname.obj
 0002:000045e4       ??_R2DNameNode@@8          004395e4     LIBCMT:undname.obj
 0002:000045ec       ??_R1A@?0A@EA@DNameNode@@8 004395ec     LIBCMT:undname.obj
 0002:00004608       ??_R4charNode@@6B@         00439608     LIBCMT:undname.obj
 0002:0000461c       ??_R3charNode@@8           0043961c     LIBCMT:undname.obj
 0002:0000462c       ??_R2charNode@@8           0043962c     LIBCMT:undname.obj
 0002:00004638       ??_R1A@?0A@EA@charNode@@8  00439638     LIBCMT:undname.obj
 0002:00004654       ??_R4pDNameNode@@6B@       00439654     LIBCMT:undname.obj
 0002:00004668       ??_R3pDNameNode@@8         00439668     LIBCMT:undname.obj
 0002:00004678       ??_R2pDNameNode@@8         00439678     LIBCMT:undname.obj
 0002:00004684       ??_R1A@?0A@EA@pDNameNode@@8 00439684     LIBCMT:undname.obj
 0002:000046a0       ??_R4DNameStatusNode@@6B@  004396a0     LIBCMT:undname.obj
 0002:000046b4       ??_R3DNameStatusNode@@8    004396b4     LIBCMT:undname.obj
 0002:000046c4       ??_R2DNameStatusNode@@8    004396c4     LIBCMT:undname.obj
 0002:000046d0       ??_R1A@?0A@EA@DNameStatusNode@@8 004396d0     LIBCMT:undname.obj
 0002:000046ec       ??_R4pcharNode@@6B@        004396ec     LIBCMT:undname.obj
 0002:00004700       ??_R3pcharNode@@8          00439700     LIBCMT:undname.obj
 0002:00004710       ??_R2pcharNode@@8          00439710     LIBCMT:undname.obj
 0002:0000471c       ??_R1A@?0A@EA@pcharNode@@8 0043971c     LIBCMT:undname.obj
 0002:00004738       ??_R4invalid_argument@std@@6B@ 00439738     libcpmt:string.obj
 0002:0000474c       ??_R3invalid_argument@std@@8 0043974c     libcpmt:string.obj
 0002:0000475c       ??_R2invalid_argument@std@@8 0043975c     libcpmt:string.obj
 0002:0000476c       ??_R1A@?0A@EA@invalid_argument@std@@8 0043976c     libcpmt:string.obj
 0002:00004790       ___safe_se_handler_table   00439790     <linker-defined>
 0002:0000488c       ___rtc_iaa                 0043988c     LIBCMT:initsect.obj
 0002:00004890       ___rtc_izz                 00439890     LIBCMT:initsect.obj
 0002:00004894       ___rtc_taa                 00439894     LIBCMT:initsect.obj
 0002:00004898       ___rtc_tzz                 00439898     LIBCMT:initsect.obj
 0002:00004950       __TI2?AVbad_alloc@std@@    00439950     LogFile.obj
 0002:00004960       __CTA2?AVbad_alloc@std@@   00439960     LogFile.obj
 0002:0000496c       __CT??_R0?AVbad_alloc@std@@@8??0bad_alloc@std@@QAE@ABV01@@Z12 0043996c     LogFile.obj
 0002:00004988       __CT??_R0?AVexception@std@@@8??0exception@std@@QAE@ABV01@@Z12 00439988     LogFile.obj
 0002:00004ea4       __TI3?AVlength_error@std@@ 00439ea4     S3PAccount.obj
 0002:00004ee0       __CTA3?AVlength_error@std@@ 00439ee0     S3PAccount.obj
 0002:00004ef0       __CT??_R0?AVlength_error@std@@@8??0length_error@std@@QAE@ABV01@@Z40 00439ef0     S3PAccount.obj
 0002:00004f0c       __CT??_R0?AVlogic_error@std@@@8??0logic_error@std@@QAE@ABV01@@Z40 00439f0c     S3PAccount.obj
 0002:00005504       __TI3?AVout_of_range@std@@ 0043a504     S3PDBSocketPool.obj
 0002:00005540       __CTA3?AVout_of_range@std@@ 0043a540     S3PDBSocketPool.obj
 0002:00005550       __CT??_R0?AVout_of_range@std@@@8??0out_of_range@std@@QAE@ABV01@@Z40 0043a550     S3PDBSocketPool.obj
 0002:00005bd4       __TI2?AVbad_exception@std@@ 0043abd4     LIBCMT:frame.obj
 0002:00005be4       __CTA2?AVbad_exception@std@@ 0043abe4     LIBCMT:frame.obj
 0002:00005bf0       __CT??_R0?AVbad_exception@std@@@8??0bad_exception@std@@QAE@ABV01@@Z12 0043abf0     LIBCMT:frame.obj
 0002:0000618c       __TI3?AVinvalid_argument@std@@ 0043b18c     libcpmt:string.obj
 0002:000061c8       __CTA3?AVinvalid_argument@std@@ 0043b1c8     libcpmt:string.obj
 0002:000061d8       __CT??_R0?AVinvalid_argument@std@@@8??0invalid_argument@std@@QAE@ABV01@@Z40 0043b1d8     libcpmt:string.obj
 0002:0000626c       __TI1?AV_com_error@@       0043b26c     comsuppw:comraise.obj
 0002:0000627c       __CTA1?AV_com_error@@      0043b27c     comsuppw:comraise.obj
 0002:00006284       __CT??_R0?AV_com_error@@@8??0_com_error@@QAE@ABV0@@Z16 0043b284     comsuppw:comraise.obj
 0002:000062dc       __IMPORT_DESCRIPTOR_WS2_32 0043b2dc     Ws2_32:WS2_32.dll
 0002:000062f0       __IMPORT_DESCRIPTOR_KERNEL32 0043b2f0     kernel32:KERNEL32.dll
 0002:00006304       __IMPORT_DESCRIPTOR_USER32 0043b304     user32:USER32.dll
 0002:00006318       __IMPORT_DESCRIPTOR_ole32  0043b318     ole32:ole32.dll
 0002:0000632c       __IMPORT_DESCRIPTOR_OLEAUT32 0043b32c     oleaut32:OLEAUT32.dll
 0002:00006340       __NULL_IMPORT_DESCRIPTOR   0043b340     Ws2_32:WS2_32.dll
 0003:00000020       ??_R0?AVKThread@@@8        0043c020     KThread.obj
 0003:00000038       ??_R0?AVK_CS@@@8           0043c038     KThread.obj
 0003:00000050       ??_R0?AVbad_alloc@std@@@8  0043c050     LogFile.obj
 0003:0000006c       ??_R0?AVexception@std@@@8  0043c06c     LogFile.obj
 0003:00000088       ??_R0?AVCLogFile@@@8       0043c088     LogFile.obj
 0003:000000a4       ??_R0?AV_com_error@@@8     0043c0a4     S3P_MSSQLServer_Result.obj
 0003:000000c0       ??_R0?AVS3P_MSSQLServer_Result@@@8 0043c0c0     S3P_MSSQLServer_Result.obj
 0003:000000e8       ??_R0?AVS3PResultVBC@@@8   0043c0e8     S3P_MSSQLServer_Result.obj
 0003:00000108       ??_R0?AVS3PAccount@@@8     0043c108     S3PAccount.obj
 0003:00000124       ??_R0?AVlogic_error@std@@@8 0043c124     S3PAccount.obj
 0003:00000144       ??_R0?AVlength_error@std@@@8 0043c144     S3PAccount.obj
 0003:00000168       ??_R0?AVS3PDB_MSSQLServer_Connection@@@8 0043c168     S3PDB_MSSQLServer_Connection.obj
 0003:00000194       ??_R0?AVS3PDBConVBC@@@8    0043c194     S3PDB_MSSQLServer_Connection.obj
 0003:000001b4       ??_R0?AVS3PDBConnectionPool@@@8 0043c1b4     S3PDBConnectionPool.obj
 0003:000001e0       ??_R0?AVKThread_CS@@@8     0043c1e0     S3PDBSocketPool.obj
 0003:000001fc       ??_R0?AVKGatewayDataProcess@@@8 0043c1fc     S3PDBSocketPool.obj
 0003:00000220       ??_R0?AVout_of_range@std@@@8 0043c220     S3PDBSocketPool.obj
 0003:00000240       ??_R0?AVS3PDBSocketPool@@@8 0043c240     S3PDBSocketPool.obj
 0003:00000264       ___security_cookie         0043c264     LIBCMT:gs_cookie.obj
 0003:00000268       ___security_cookie_complement 0043c268     LIBCMT:gs_cookie.obj
 0003:00000274       ??_R0?AVtype_info@@@8      0043c274     LIBCMT:typinfo.obj
 0003:00000290       ??_R0?AVbad_cast@std@@@8   0043c290     LIBCMT:stdexcpt.obj
 0003:000002ac       ??_R0?AVbad_typeid@std@@@8 0043c2ac     LIBCMT:stdexcpt.obj
 0003:000002cc       ??_R0?AV__non_rtti_object@std@@@8 0043c2cc     LIBCMT:stdexcpt.obj
 0003:000002f0       ___app_type                0043c2f0     LIBCMT:wincrt0.obj
 0003:000002f8       ___initialmbcinfo          0043c2f8     LIBCMT:mbctype.obj
 0003:00000518       __mbctype                  0043c518     LIBCMT:mbctype.obj
 0003:00000620       __mbcasemap                0043c620     LIBCMT:mbctype.obj
 0003:00000720       ___ptmbcinfo               0043c720     LIBCMT:mbctype.obj
 0003:0000081c       ___globallocalestatus      0043c81c     LIBCMT:glstatus.obj
 0003:00000820       ___clocalestr              0043c820     LIBCMT:nlsdata2.obj
 0003:00000828       ___initiallocinfo          0043c828     LIBCMT:nlsdata2.obj
 0003:00000900       ___ptlocinfo               0043c900     LIBCMT:nlsdata2.obj
 0003:00000904       ___lc_clike                0043c904     LIBCMT:nlsdata2.obj
 0003:00000908       ___initiallocalestructinfo 0043c908     LIBCMT:nlsdata2.obj
 0003:00000910       ___flsindex                0043c910     LIBCMT:tidtable.obj
 0003:00000914       ___getvalueindex           0043c914     LIBCMT:tidtable.obj
 0003:00000a88       __iob                      0043ca88     LIBCMT:_file.obj
 0003:00000d08       __lookuptrailbytes         0043cd08     LIBCMT:read.obj
 0003:00000e08       ___badioinfo               0043ce08     LIBCMT:ioinit.obj
 0003:00000e44       ??_R0?AVbad_exception@std@@@8 0043ce44     LIBCMT:frame.obj
 0003:00000e70       __aexit_rtn                0043ce70     LIBCMT:crt0dat.obj
 0003:00000e78       __XcptActTab               0043ce78     LIBCMT:winxfltr.obj
 0003:00000ef0       __First_FPE_Indx           0043cef0     LIBCMT:winxfltr.obj
 0003:00000ef4       __Num_FPE                  0043cef4     LIBCMT:winxfltr.obj
 0003:00000ef8       __XcptActTabSize           0043cef8     LIBCMT:winxfltr.obj
 0003:00000efc       __XcptActTabCount          0043cefc     LIBCMT:winxfltr.obj
 0003:00000f00       ___nullstring              0043cf00     LIBCMT:output.obj
 0003:00000f04       ___wnullstring             0043cf04     LIBCMT:output.obj
 0003:00000f10       ___abort_behavior          0043cf10     LIBCMT:abort.obj
 0003:00000fe8       __timezone                 0043cfe8     LIBCMT:timeset.obj
 0003:00000fec       __daylight                 0043cfec     LIBCMT:timeset.obj
 0003:00000ff0       __dstbias                  0043cff0     LIBCMT:timeset.obj
 0003:00001078       __tzname                   0043d078     LIBCMT:timeset.obj
 0003:00001080       __amblksiz                 0043d080     LIBCMT:heapinit.obj
 0003:000011b0       __pctype                   0043d1b0     LIBCMT:ctype.obj
 0003:000011b4       __pwctype                  0043d1b4     LIBCMT:ctype.obj
 0003:000011b8       ___lc_time_c               0043d1b8     LIBCMT:strftime.obj
 0003:00001270       ___lc_time_curr            0043d270     LIBCMT:strftime.obj
 0003:00001274       ___lconv_static_decimal    0043d274     LIBCMT:lconv.obj
 0003:00001278       ___lconv_c                 0043d278     LIBCMT:lconv.obj
 0003:000012a8       ___lconv                   0043d2a8     LIBCMT:lconv.obj
 0003:000012ac       ___mb_cur_max              0043d2ac     LIBCMT:nlsdata1.obj
 0003:000012b0       ___decimal_point           0043d2b0     LIBCMT:nlsdata1.obj
 0003:000012b4       ___decimal_point_length    0043d2b4     LIBCMT:nlsdata1.obj
 0003:000012c4       __NLG_Destination          0043d2c4     LIBCMT:exsup.obj
 0003:000012d4       __cfltcvt_tab              0043d2d4     LIBCMT:cmiscdat.obj
 0003:00001300       ??_R0?AVDNameNode@@@8      0043d300     LIBCMT:undname.obj
 0003:00001318       ??_R0?AVcharNode@@@8       0043d318     LIBCMT:undname.obj
 0003:00001330       ??_R0?AVpDNameNode@@@8     0043d330     LIBCMT:undname.obj
 0003:0000134c       ??_R0?AVDNameStatusNode@@@8 0043d34c     LIBCMT:undname.obj
 0003:0000136c       ??_R0?AVpcharNode@@@8      0043d36c     LIBCMT:undname.obj
 0003:00001384       __lpdays                   0043d384     LIBCMT:days.obj
 0003:000013b8       __days                     0043d3b8     LIBCMT:days.obj
 0003:000013f0       __coninpfh                 0043d3f0     LIBCMT:initcon.obj
 0003:000013f4       __confh                    0043d3f4     LIBCMT:initcon.obj
 0003:00001404       ??_R0?AVinvalid_argument@std@@@8 0043d404     libcpmt:string.obj
 0003:00001428       ?__errorPfn@@3P6GXJPAUIErrorInfo@@@ZA 0043d428     comsuppw:comsupp.obj
 0003:00001430       ?vtMissing@@3V_variant_t@@A 0043d430     comsuppw:comutil.obj
 0003:00001440       __fltused                  0043d440     LIBCMT:fpinit.obj
 0003:00001444       __ldused                   0043d444     LIBCMT:fpinit.obj
 0003:00001480       __pow10pos                 0043d480     LIBCMT:constpow.obj
 0003:000015e0       __pow10neg                 0043d5e0     LIBCMT:constpow.obj
 0003:00001768       ?g_szWindowClass@@3PADA    0043d768     main.obj
 0003:0000186c       ?g_listwnd@@3PAUHWND__@@A  0043d86c     main.obj
 0003:00001870       ?g_cnt@@3JA                0043d870     main.obj
 0003:00001874       ?g_hInst@@3PAUHINSTANCE__@@A 0043d874     main.obj
 0003:00001878       ?g_nShowTime@@3HA          0043d878     main.obj
 0003:000018a8       ?g_TraceBuffer@@3VTwoFixBuffer@@A 0043d8a8     main.obj
 0003:002018dc       ?m_pInstance@S3PDBConnectionPool@@1PAV1@A 0063d8dc     S3PDBConnectionPool.obj
 0003:002018e4       ?m_pInstance@S3PDBSocketPool@@1PAV1@A 0063d8e4     S3PDBSocketPool.obj
 0003:002018e8       ?m_SelfAddress@S3PDBSocketPool@@2KA 0063d8e8     S3PDBSocketPool.obj
 0003:002018fc       ___pInvalidArgHandler      0063d8fc     LIBCMT:invarg.obj
 0003:00201900       __aenvptr                  0063d900     LIBCMT:wincrt0.obj
 0003:00201904       __wenvptr                  0063d904     LIBCMT:wincrt0.obj
 0003:00201908       ___error_mode              0063d908     LIBCMT:wincrt0.obj
 0003:00201910       ___mbulinfo                0063d910     LIBCMT:mbctype.obj
 0003:0020191c       ___mbcodepage              0063d91c     LIBCMT:mbctype.obj
 0003:00201920       ___ismbcodepage            0063d920     LIBCMT:mbctype.obj
 0003:00201924       ___mblcid                  0063d924     LIBCMT:mbctype.obj
 0003:00201928       ___locale_changed          0063d928     LIBCMT:setlocal.obj
 0003:0020192c       ___lc_handle               0063d92c     LIBCMT:nlsdata2.obj
 0003:00201944       ___lc_codepage             0063d944     LIBCMT:nlsdata2.obj
 0003:00201948       ___lc_collate_cp           0063d948     LIBCMT:nlsdata2.obj
 0003:0020194c       _gpFlsAlloc                0063d94c     LIBCMT:tidtable.obj
 0003:00201950       _gpFlsGetValue             0063d950     LIBCMT:tidtable.obj
 0003:00201954       _gpFlsSetValue             0063d954     LIBCMT:tidtable.obj
 0003:00201958       _gpFlsFree                 0063d958     LIBCMT:tidtable.obj
 0003:0020195c       ?_pnhHeap@@3P6AHI@ZA       0063d95c     LIBCMT:handler.obj
 0003:00201960       __cflush                   0063d960     LIBCMT:_file.obj
 0003:00201964       ?__pInconsistency@@3P6AXXZA 0063d964     LIBCMT:hooks.obj
 0003:00201c8c       __umaskval                 0063dc8c     LIBCMT:crt0dat.obj
 0003:00201c90       __osplatform               0063dc90     LIBCMT:crt0dat.obj
 0003:00201c94       __osver                    0063dc94     LIBCMT:crt0dat.obj
 0003:00201c98       __winver                   0063dc98     LIBCMT:crt0dat.obj
 0003:00201c9c       __winmajor                 0063dc9c     LIBCMT:crt0dat.obj
 0003:00201ca0       __winminor                 0063dca0     LIBCMT:crt0dat.obj
 0003:00201ca4       ___argc                    0063dca4     LIBCMT:crt0dat.obj
 0003:00201ca8       ___argv                    0063dca8     LIBCMT:crt0dat.obj
 0003:00201cac       ___wargv                   0063dcac     LIBCMT:crt0dat.obj
 0003:00201cb0       __environ                  0063dcb0     LIBCMT:crt0dat.obj
 0003:00201cb4       ___initenv                 0063dcb4     LIBCMT:crt0dat.obj
 0003:00201cb8       __wenviron                 0063dcb8     LIBCMT:crt0dat.obj
 0003:00201cbc       ___winitenv                0063dcbc     LIBCMT:crt0dat.obj
 0003:00201cc0       __pgmptr                   0063dcc0     LIBCMT:crt0dat.obj
 0003:00201cc4       __wpgmptr                  0063dcc4     LIBCMT:crt0dat.obj
 0003:00201cc8       __exitflag                 0063dcc8     LIBCMT:crt0dat.obj
 0003:00201ccc       __C_Termination_Done       0063dccc     LIBCMT:crt0dat.obj
 0003:00201cd0       __C_Exit_Done              0063dcd0     LIBCMT:crt0dat.obj
 0003:00201cd4       __maxwait                  0063dcd4     LIBCMT:crtheap.obj
 0003:00201cd8       __stdbuf                   0063dcd8     LIBCMT:_sftbuf.obj
 0003:00202004       ___pPurecall               0063e004     LIBCMT:inithelp.obj
 0003:002020c0       __crtheap                  0063e0c0     LIBCMT:heapinit.obj
 0003:00202218       ___sbh_pHeaderDefer        0063e218     LIBCMT:sbheap.obj
 0003:0020221c       __newmode                  0063e21c     LIBCMT:_newmode.obj
 0003:00202334       ___lconv_static_null       0063e334     LIBCMT:lconv.obj
 0003:0020233c       __commode                  0063e33c     LIBCMT:ncommode.obj
 0003:00202370       ?pArgList@UnDecorator@@0PAVReplicator@@A 0063e370     LIBCMT:undname.obj
 0003:00202374       ?pZNameList@UnDecorator@@0PAVReplicator@@A 0063e374     LIBCMT:undname.obj
 0003:00202378       ?pTemplateArgList@UnDecorator@@0PAVReplicator@@A 0063e378     LIBCMT:undname.obj
 0003:0020237c       ?gName@UnDecorator@@0PBDB  0063e37c     LIBCMT:undname.obj
 0003:00202380       ?name@UnDecorator@@0PBDB   0063e380     LIBCMT:undname.obj
 0003:00202384       ?outputString@UnDecorator@@0PADA 0063e384     LIBCMT:undname.obj
 0003:00202388       ?maxStringLength@UnDecorator@@0HA 0063e388     LIBCMT:undname.obj
 0003:0020238c       ?disableFlags@UnDecorator@@0KA 0063e38c     LIBCMT:undname.obj
 0003:00202390       ?m_pGetParameter@UnDecorator@@0P6APADJ@ZA 0063e390     LIBCMT:undname.obj
 0003:00202394       ?fExplicitTemplateParams@UnDecorator@@0_NA 0063e394     LIBCMT:undname.obj
 0003:00202395       ?fGetTemplateArgumentList@UnDecorator@@0_NA 0063e395     LIBCMT:undname.obj
 0003:002023b8       __fmode                    0063e3b8     LIBCMT:txtmode.obj
 0003:002023c0       ___fastflag                0063e3c0     LIBCMT:fpinit.obj
 0003:002023c4       __adjust_fdiv              0063e3c4     LIBCMT:fpinit.obj
 0003:002023c8       __outputformat             0063e3c8     LIBCMT:outputformat.obj
 0003:002023cc       ___sbh_initialized         0063e3cc     <common>
 0003:002023d0       ___sbh_cntHeaderList       0063e3d0     <common>
 0003:002023d4       ___sbh_pHeaderList         0063e3d4     <common>
 0003:002023d8       ___sbh_threshold           0063e3d8     <common>
 0003:002023dc       ___sbh_pHeaderScan         0063e3dc     <common>
 0003:002023e0       ___sbh_sizeHeaderList      0063e3e0     <common>
 0003:002023e4       ___sbh_indGroupDefer       0063e3e4     <common>
 0003:002023e8       ___active_heap             0063e3e8     <common>
 0003:002023ec       __debugger_hook_dummy      0063e3ec     <common>
 0003:002023f0       ___env_initialized         0063e3f0     <common>
 0003:002023f4       ___onexitend               0063e3f4     <common>
 0003:002023f8       ___onexitbegin             0063e3f8     <common>
 0003:002023fc       ___mbctype_initialized     0063e3fc     <common>
 0003:00202400       ___dyn_tls_init_callback   0063e400     <common>
 0003:00202404       ___use_sse2_mathfcns       0063e404     <common>
 0003:00202408       ___sse2_available          0063e408     <common>
 0003:0020240c       __nhandle                  0063e40c     <common>
 0003:00202420       ___pioinfo                 0063e420     <common>
 0003:00202520       ___piob                    0063e520     <common>
 0003:00202540       __bufin                    0063e540     <common>
 0003:00203540       __nstream                  0063f540     <common>
 0003:00203544       ___setlc_active            0063f544     <common>
 0003:00203548       ___unguarded_readlc_active 0063f548     <common>
 0003:0020354c       __acmdln                   0063f54c     <common>

 entry point at        0001:0000f87b

 Static symbols

 0001:fffff000       __ehhandler$?_Copy@?$basic_string@DU?$char_traits@D@std@@V?$allocator@D@2@@std@@IAEXII@Z 00400000 f   S3PDBConnectionPool.obj
 0001:fffff000       __ehhandler$?_Copy@?$basic_string@DU?$char_traits@D@std@@V?$allocator@D@2@@std@@IAEXII@Z 00400000 f   main.obj
 0001:fffff000       __unwindfunclet$??0logic_error@std@@QAE@ABV?$basic_string@DU?$char_traits@D@std@@V?$allocator@D@2@@1@@Z$0 00400000 f   S3PDBSocketPool.obj
 0001:fffff000       __unwindfunclet$??0logic_error@std@@QAE@ABV01@@Z$0 00400000 f   libcpmt:string.obj
 0001:fffff000       __unwindfunclet$??0logic_error@std@@QAE@ABV?$basic_string@DU?$char_traits@D@std@@V?$allocator@D@2@@1@@Z$0 00400000 f   S3PDBConnectionPool.obj
 0001:fffff000       __ehhandler$?_Copy@?$basic_string@DU?$char_traits@D@std@@V?$allocator@D@2@@std@@IAEXII@Z 00400000 f   S3PAccount.obj
 0001:fffff000       __ehhandler$?_Copy@?$basic_string@DU?$char_traits@D@std@@V?$allocator@D@2@@std@@IAEXII@Z 00400000 f   S3PDB_MSSQLServer_Connection.obj
 0001:fffff000       __unwindfunclet$??0logic_error@std@@QAE@ABV?$basic_string@DU?$char_traits@D@std@@V?$allocator@D@2@@1@@Z$0 00400000 f   libcpmt:string.obj
 0001:fffff000       __ehhandler$?_Copy@?$basic_string@DU?$char_traits@D@std@@V?$allocator@D@2@@std@@IAEXII@Z 00400000 f   libcpmt:string.obj
 0001:fffff000       __unwindfunclet$??0logic_error@std@@QAE@ABV01@@Z$0 00400000 f   S3PDBConnectionPool.obj
 0001:fffff000       __ehhandler$?_Copy@?$basic_string@DU?$char_traits@D@std@@V?$allocator@D@2@@std@@IAEXII@Z 00400000 f   S3PDBSocketPool.obj
 0001:fffff000       __unwindfunclet$??0logic_error@std@@QAE@ABV01@@Z$0 00400000 f   S3PDBSocketPool.obj
 0001:fffff008       __ehhandler$??0logic_error@std@@QAE@ABV?$basic_string@DU?$char_traits@D@std@@V?$allocator@D@2@@1@@Z 00400008 f   libcpmt:string.obj
 0001:fffff008       __ehhandler$??0logic_error@std@@QAE@ABV01@@Z 00400008 f   libcpmt:string.obj
 0001:fffff008       __ehhandler$??0logic_error@std@@QAE@ABV?$basic_string@DU?$char_traits@D@std@@V?$allocator@D@2@@1@@Z 00400008 f   S3PDBSocketPool.obj
 0001:fffff008       __ehhandler$??0logic_error@std@@QAE@ABV01@@Z 00400008 f   S3PDBSocketPool.obj
 0001:fffff008       __ehhandler$??0logic_error@std@@QAE@ABV01@@Z 00400008 f   S3PDBConnectionPool.obj
 0001:fffff008       __ehhandler$??0logic_error@std@@QAE@ABV?$basic_string@DU?$char_traits@D@std@@V?$allocator@D@2@@1@@Z 00400008 f   S3PDBConnectionPool.obj
 0001:fffff05b       __catch$?_Copy@?$basic_string@DU?$char_traits@D@std@@V?$allocator@D@2@@std@@IAEXII@Z$0 0040005b f   libcpmt:string.obj
 0001:fffff07d       __catch$?_Copy@?$basic_string@DU?$char_traits@D@std@@V?$allocator@D@2@@std@@IAEXII@Z$0 0040007d f   S3PDB_MSSQLServer_Connection.obj
 0001:fffff07d       __catch$?_Copy@?$basic_string@DU?$char_traits@D@std@@V?$allocator@D@2@@std@@IAEXII@Z$0 0040007d f   S3PDBConnectionPool.obj
 0001:fffff07d       __catch$?_Copy@?$basic_string@DU?$char_traits@D@std@@V?$allocator@D@2@@std@@IAEXII@Z$0 0040007d f   S3PAccount.obj
 0001:fffff07d       __catch$?_Copy@?$basic_string@DU?$char_traits@D@std@@V?$allocator@D@2@@std@@IAEXII@Z$0 0040007d f   S3PDBSocketPool.obj
 0001:fffff07d       __catch$?_Copy@?$basic_string@DU?$char_traits@D@std@@V?$allocator@D@2@@std@@IAEXII@Z$0 0040007d f   main.obj
 0001:fffff0cd       __catch$?_Copy@?$basic_string@DU?$char_traits@D@std@@V?$allocator@D@2@@std@@IAEXII@Z$1 004000cd f   libcpmt:string.obj
 0001:fffff110       __catch$?_Copy@?$basic_string@DU?$char_traits@D@std@@V?$allocator@D@2@@std@@IAEXII@Z$1 00400110 f   S3PDBConnectionPool.obj
 0001:fffff110       __catch$?_Copy@?$basic_string@DU?$char_traits@D@std@@V?$allocator@D@2@@std@@IAEXII@Z$1 00400110 f   S3PDB_MSSQLServer_Connection.obj
 0001:fffff110       __catch$?_Copy@?$basic_string@DU?$char_traits@D@std@@V?$allocator@D@2@@std@@IAEXII@Z$1 00400110 f   S3PDBSocketPool.obj
 0001:fffff110       __catch$?_Copy@?$basic_string@DU?$char_traits@D@std@@V?$allocator@D@2@@std@@IAEXII@Z$1 00400110 f   S3PAccount.obj
 0001:fffff110       __catch$?_Copy@?$basic_string@DU?$char_traits@D@std@@V?$allocator@D@2@@std@@IAEXII@Z$1 00400110 f   main.obj
 0001:00000010       ?IsEnterKey@@YAHPBDPAH@Z   00401010 f   GlobalFun.obj
 0001:000000a0       ?GetFirstLineLen@@YAJPBD@Z 004010a0 f   GlobalFun.obj
 0001:00000120       ?GetStrInStrPos@@YAHPBD0AAJ@Z 00401120 f   GlobalFun.obj
 0001:000001a0       ?GetPrivateProfileKeyPos@@YAHPBD00AAJ1@Z 004011a0 f   GlobalFun.obj
 0001:00000320       ?GetKeyValue@@YAPADPBDAAJ@Z 00401320 f   GlobalFun.obj
 0001:000008c7       __catch$?KPIWritePrivateProfileString@@YAHPBD000@Z$0 004018c7 f   GlobalFun.obj
 0001:00000a7e       __catch$?KPIGetPrivateProfileString@@YAKPBD00PADK0@Z$0 00401a7e f   GlobalFun.obj
 0001:0000176d       __catch$?_Copy@?$basic_string@DU?$char_traits@D@std@@V?$allocator@D@2@@std@@IAEXII@Z$0 0040276d f i LogFile.obj
 0001:00001800       __catch$?_Copy@?$basic_string@DU?$char_traits@D@std@@V?$allocator@D@2@@std@@IAEXII@Z$1 00402800 f i LogFile.obj
 0001:000028d0       _localtime                 004038d0 f   main.obj
 0001:000028e0       _time                      004038e0 f   main.obj
 0001:00002930       ?sLogProgram@@YAHH@Z       00403930 f   main.obj
 0001:0000400e       __catch$?num_rows@S3P_MSSQLServer_Result@@UBEHXZ$0 0040500e f   S3P_MSSQLServer_Result.obj
 0001:000041c1       __catch$?data_seek@S3P_MSSQLServer_Result@@UBEXIH@Z$0 004051c1 f   S3P_MSSQLServer_Result.obj
 0001:00004269       __catch$?unuse@S3P_MSSQLServer_Result@@UAEHXZ$0 00405269 f   S3P_MSSQLServer_Result.obj
 0001:000044f7       __catch$?num_fields@S3P_MSSQLServer_Result@@UBEHXZ$0 004054f7 f   S3P_MSSQLServer_Result.obj
 0001:00004645       __catch$?get_field_data@S3P_MSSQLServer_Result@@UAE_NIPAXK@Z$0 00405645 f   S3P_MSSQLServer_Result.obj
 0001:00006a1d       __catch$?DoSql@S3PDB_MSSQLServer_Connection@@UAE_NPBDPAU_Recordset@@@Z$0 00407a1d f   S3PDB_MSSQLServer_Connection.obj
 0001:0000742c       __catch$?Do@S3PDB_MSSQLServer_Connection@@UAE_NPBD@Z$0 0040842c f   S3PDB_MSSQLServer_Connection.obj
 0001:0000745d       __catch$?Do@S3PDB_MSSQLServer_Connection@@UAE_NPBD@Z$2 0040845d f   S3PDB_MSSQLServer_Connection.obj
 0001:000076e5       __catch$?OpenConnect@S3PDB_MSSQLServer_Connection@@UAE_NPAUtag_DATABASEINFO@@@Z$0 004086e5 f   S3PDB_MSSQLServer_Connection.obj
 0001:00008f2d       __catch$?SendData@S3PDBSocketPool@@QAEHKQBXABI@Z$0 00409f2d f   S3PDBSocketPool.obj
 0001:0000900a       __catch$?CustomSend@S3PDBSocketPool@@QAEHKDPAUKAccountHead@@@Z$0 0040a00a f   S3PDBSocketPool.obj
 0001:0000da04       ?CatchGuardHandler@@YA?AW4_EXCEPTION_DISPOSITION@@PAUEHExceptionRecord@@PAUCatchGuardRN@@PAX2@Z 0040ea04 f   LIBCMT:trnsctrl.obj
 0001:0000db09       ?TranslatorGuardHandler@@YA?AW4_EXCEPTION_DISPOSITION@@PAUEHExceptionRecord@@PAUTranslatorGuardRN@@PAX2@Z 0040eb09 f   LIBCMT:trnsctrl.obj
 0001:0000e0be       __callthreadstartex        0040f0be f   LIBCMT:threadex.obj
 0001:0000e0ff       __threadstartex@4          0040f0ff f   LIBCMT:threadex.obj
 0001:0000f14e       __onexit_nolock            0041014e f   LIBCMT:onexit.obj
 0001:0000f636       _fast_error_exit           00410636 f   LIBCMT:wincrt0.obj
 0001:0000f65a       _check_managed_app         0041065a f   LIBCMT:wincrt0.obj
 0001:0000f69b       ___tmainCRTStartup         0041069b f   LIBCMT:wincrt0.obj
 0001:0000f885       ?CPtoLCID@@YAHH@Z          00410885 f   LIBCMT:mbctype.obj
 0001:0000f8b4       ?setSBCS@@YAXPAUthreadmbcinfostruct@@@Z 004108b4 f   LIBCMT:mbctype.obj
 0001:0000f909       ?setSBUpLow@@YAXPAUthreadmbcinfostruct@@@Z 00410909 f   LIBCMT:mbctype.obj
 0001:0000fb37       ?getSystemCP@@YAHH@Z       00410b37 f   LIBCMT:mbctype.obj
 0001:000101dc       __copytlocinfo_nolock      004111dc f   LIBCMT:setlocal.obj
 0001:00010200       __updatetlocinfoEx_nolock  00411200 f   LIBCMT:setlocal.obj
 0001:0001031a       _sync_legacy_variables_lk  0041131a f   LIBCMT:setlocal.obj
 0001:0001066a       __setlocale_get_all        0041166a f   LIBCMT:setlocal.obj
 0001:000109af       __setlocale_set_cat        004119af f   LIBCMT:setlocal.obj
 0001:00010ca5       __setlocale_nolock         00411ca5 f   LIBCMT:setlocal.obj
 0001:000110db       __use_encode_pointer       004120db f   LIBCMT:tidtable.obj
 0001:0001224d       _flsall                    0041324d f   LIBCMT:fflush.obj
 0001:00012580       _ValidateLocalCookies      00413580 f   LIBCMT:chandler4.obj
 0001:000138ec       __unwind_handler4          004148ec f   LIBCMT:exsup4.obj
 0001:00013b76       ?ExFilterRethrow@@YAHPAU_EXCEPTION_POINTERS@@@Z 00414b76 f   LIBCMT:frame.obj
 0001:00013f55       ?IsInExceptionSpec@@YAEPAUEHExceptionRecord@@PBU_s_ESTypeList@@@Z 00414f55 f   LIBCMT:frame.obj
 0001:00013fce       ?CallUnexpected@@YAXPBU_s_ESTypeList@@@Z 00414fce f   LIBCMT:frame.obj
 0001:00013fff       __catch$?CallUnexpected@@YAXPBU_s_ESTypeList@@@Z$0 00414fff f   LIBCMT:frame.obj
 0001:00014017       ?Is_bad_exception_allowed@@YAEPBU_s_ESTypeList@@@Z 00415017 f   LIBCMT:frame.obj
 0001:000140c9       ?CallCatchBlock@@YAPAXPAUEHExceptionRecord@@PAUEHRegistrationNode@@PAU_CONTEXT@@PBU_s_FuncInfo@@PAXHK@Z 004150c9 f   LIBCMT:frame.obj
 0001:000145b8       ?CatchIt@@YAXPAUEHExceptionRecord@@PAUEHRegistrationNode@@PAU_CONTEXT@@PAXPBU_s_FuncInfo@@PBU_s_HandlerType@@PBU_s_CatchableType@@PBU_s_TryBlockMapEntry@@H1E@Z 004155b8 f   LIBCMT:frame.obj
 0001:00014624       ?FindHandlerForForeignException@@YAXPAUEHExceptionRecord@@PAUEHRegistrationNode@@PAU_CONTEXT@@PAXPBU_s_FuncInfo@@HH1@Z 00415624 f   LIBCMT:frame.obj
 0001:00014716       ?FindHandler@@YAXPAUEHExceptionRecord@@PAUEHRegistrationNode@@PAU_CONTEXT@@PAXPBU_s_FuncInfo@@EH1@Z 00415716 f   LIBCMT:frame.obj
 0001:00014d50       _fastcopy_I                00415d50 f   LIBCMT:p4_memcpy.obj
 0001:0001509c       __initterm                 0041609c f   LIBCMT:crt0dat.obj
 0001:000152fb       _doexit                    004162fb f   LIBCMT:crt0dat.obj
 0001:0001546a       _xcptlookup                0041646a f   LIBCMT:winxfltr.obj
 0001:00015785       _fastzero_I                00416785 f   LIBCMT:p4_memset.obj
 0001:00015930       _write_char                00416930 f   LIBCMT:output.obj
 0001:00015963       _write_multi_char          00416963 f   LIBCMT:output.obj
 0001:00015987       _write_string              00416987 f   LIBCMT:output.obj
 0001:00016390       _write_char                00417390 f   LIBCMT:outputs.obj
 0001:000163c3       _write_multi_char          004173c3 f   LIBCMT:outputs.obj
 0001:000163e7       _write_string              004173e7 f   LIBCMT:outputs.obj
 0001:00016f0a       _write_char                00417f0a f   LIBCMT:outputp.obj
 0001:00016f3d       _write_multi_char          00417f3d f   LIBCMT:outputp.obj
 0001:00016f61       _write_string              00417f61 f   LIBCMT:outputp.obj
 0001:00018f3d       __tzset_nolock             00419f3d f   LIBCMT:tzset.obj
 0001:00019286       _cvtdate                   0041a286 f   LIBCMT:tzset.obj
 0001:0001947b       __isindst_nolock           0041a47b f   LIBCMT:tzset.obj
 0001:00019e18       ?strtoxl@@YAKPAUlocaleinfo_struct@@PBDPAPBDHH@Z 0041ae18 f   LIBCMT:strtol.obj
 0001:0001a0cc       ?strtoxq@@YA_KPAUlocaleinfo_struct@@PBDPAPBDHH@Z 0041b0cc f   LIBCMT:strtoq.obj
 0001:0001b938       _parse_cmdline             0041c938 f   LIBCMT:stdargv.obj
 0001:0001bd9a       ?strncnt@@YAHPBDH@Z        0041cd9a f   LIBCMT:a_map.obj
 0001:0001bdb4       ?__crtLCMapStringA_stat@@YAHPAUlocaleinfo_struct@@KKPBDHPADHHH@Z 0041cdb4 f   LIBCMT:a_map.obj
 0001:0001c199       ?__crtGetStringTypeA_stat@@YAHPAUlocaleinfo_struct@@KPBDHPAGHHH@Z 0041d199 f   LIBCMT:a_str.obj
 0001:0001c3c0       __get_lc_time              0041d3c0 f   LIBCMT:inittime.obj
 0001:0001c9dc       _fix_grouping              0041d9dc f   LIBCMT:initnum.obj
 0001:0001cc17       _fix_grouping              0041dc17 f   LIBCMT:initmon.obj
 0001:0001d94c       ?_store_str@@YAXPADPAPADPAI@Z 0041e94c f   LIBCMT:strftime.obj
 0001:0001d96c       ?_store_number@@YAXHPAPADPAI@Z 0041e96c f   LIBCMT:strftime.obj
 0001:0001d9a2       ?_store_num@@YAXHHPAPADPAII@Z 0041e9a2 f   LIBCMT:strftime.obj
 0001:0001da1b       ?_expandtime@@YAHPAUlocaleinfo_struct@@DPBUtm@@PAPADPAIPAU__lc_time_data@@I@Z 0041ea1b f   LIBCMT:strftime.obj
 0001:0001de01       ?_store_winword@@YAHPAUlocaleinfo_struct@@HPBUtm@@PAPADPAIPAU__lc_time_data@@@Z 0041ee01 f   LIBCMT:strftime.obj
 0001:0001e5f9       _TranslateName             0041f5f9 f   LIBCMT:getqloc.obj
 0001:0001e659       _GetLcidFromDefault        0041f659 f   LIBCMT:getqloc.obj
 0001:0001e66d       _ProcessCodePage           0041f66d f   LIBCMT:getqloc.obj
 0001:0001e6e4       _TestDefaultCountry        0041f6e4 f   LIBCMT:getqloc.obj
 0001:0001e702       _LcidFromHexString         0041f702 f   LIBCMT:getqloc.obj
 0001:0001e734       _GetPrimaryLen             0041f734 f   LIBCMT:getqloc.obj
 0001:0001e74f       _CountryEnumProc@4         0041f74f f   LIBCMT:getqloc.obj
 0001:0001e7e5       _TestDefaultLanguage       0041f7e5 f   LIBCMT:getqloc.obj
 0001:0001e857       _LangCountryEnumProc@4     0041f857 f   LIBCMT:getqloc.obj
 0001:0001ea27       _LanguageEnumProc@4        0041fa27 f   LIBCMT:getqloc.obj
 0001:0001eae6       _GetLcidFromCountry        0041fae6 f   LIBCMT:getqloc.obj
 0001:0001eb12       _GetLcidFromLangCountry    0041fb12 f   LIBCMT:getqloc.obj
 0001:0001eb77       _GetLcidFromLanguage       0041fb77 f   LIBCMT:getqloc.obj
 0001:0001ed96       _cmpResult                 0041fd96 f   LIBCMT:memcmp.obj
 0001:0001eda8       _cmpBYTE                   0041fda8 f   LIBCMT:memcmp.obj
 0001:0001edc0       _cmpWORD                   0041fdc0 f   LIBCMT:memcmp.obj
 0001:0001ee00       _cmpDWORD                  0041fe00 f   LIBCMT:memcmp.obj
 0001:0001ee78       _unaligned_memcmp          0041fe78 f   LIBCMT:memcmp.obj
 0001:000227b1       ___crtInitCritSecNoSpinCount@8 004237b1 f   LIBCMT:initcrit.obj
 0001:00022886       __tsopen_nolock            00423886 f   LIBCMT:open.obj
 0001:000233fc       __unwind_handler           004243fc f   LIBCMT:exsup.obj
 0001:00023644       _has_osfxsr_set            00424644 f   LIBCMT:cpu_disp.obj
 0001:00023739       _ctrlevent_capture@4       00424739 f   LIBCMT:winsig.obj
 0001:000237d4       _siglookup                 004247d4 f   LIBCMT:winsig.obj
 0001:00024e3e       ?und_strlen@@YAIPBD@Z      00425e3e f   LIBCMT:undname.obj
 0001:00024e4c       ?und_strncpy@@YAPADPADPBDI@Z 00425e4c f   LIBCMT:undname.obj
 0001:00024e6c       ?und_strncmp@@YAIPBD0I@Z   00425e6c f   LIBCMT:undname.obj
 0001:0002a082       ?__crtGetLocaleInfoW_stat@@YAHPAUlocaleinfo_struct@@KKPA_WHH@Z 0042b082 f   LIBCMT:w_loc.obj
 0001:0002a1f8       ?__crtGetLocaleInfoA_stat@@YAHPAUlocaleinfo_struct@@KKPADHH@Z 0042b1f8 f   LIBCMT:a_loc.obj
 0001:0002a3f1       __getenv_s_helper          0042b3f1 f   LIBCMT:getenv.obj
 0001:0002a484       __dupenv_s_helper          0042b484 f   LIBCMT:getenv.obj
 0001:0002a889       ?x_ismbbtype_l@@YAHPAUlocaleinfo_struct@@IHH@Z 0042b889 f   LIBCMT:ismbbyte.obj
 0001:0002af80       _xtoa_s@20                 0042bf80 f   LIBCMT:xtoas.obj
 0001:0002b0c0       @x64toa_s@24               0042c0c0 f   LIBCMT:xtoas.obj
 0001:0002bcf1       ?__crtGetStringTypeW_stat@@YAHPAUlocaleinfo_struct@@KPB_WHPAGHH@Z 0042ccf1 f   LIBCMT:w_str.obj
 0001:0002bf53       ?strncnt@@YAHPBDH@Z        0042cf53 f   LIBCMT:a_cmp.obj
 0001:0002bf6d       ?__crtCompareStringA_stat@@YAHPAUlocaleinfo_struct@@KKPBDH1HH@Z 0042cf6d f   LIBCMT:a_cmp.obj
 0001:0002c455       _findenv                   0042d455 f   LIBCMT:setenv.obj
 0001:0002c4a2       _copy_environ              0042d4a2 f   LIBCMT:setenv.obj
 0001:0002ce70       __catch$?ConvertBSTRToString@_com_util@@YGPADPA_W@Z$0 0042de70 f   comsuppw:comutil.obj
 0001:0002db52       __shift                    0042eb52 f   LIBCMT:cvt.obj
 0001:0002db8b       __cftoe2_l                 0042eb8b f   LIBCMT:cvt.obj
 0001:0002e173       __cftof2_l                 0042f173 f   LIBCMT:cvt.obj
 0001:00031531       __abstract_cw              00432531 f   LIBCMT:ieee87.obj
 0001:000315c5       __hw_cw                    004325c5 f   LIBCMT:ieee87.obj
 0001:00031653       __abstract_sw              00432653 f   LIBCMT:ieee87.obj
 0001:00031691       ___abstract_cw_sse2        00432691 f   LIBCMT:ieee87.obj
 0001:0003172e       ___hw_cw_sse2              0043272e f   LIBCMT:ieee87.obj
 0001:000317ce       ___abstract_sw_sse2        004327ce f   LIBCMT:ieee87.obj
 0001:0003180c       ___fpreset_sse2            0043280c f   LIBCMT:ieee87.obj
 0001:000318de       ___statusfp_sse2           004328de f   LIBCMT:ieee87.obj
 0001:00031919       ___clearfp_sse2            00432919 f   LIBCMT:ieee87.obj
 0001:00031964       ___control87_sse2          00432964 f   LIBCMT:ieee87.obj
 0001:000328a0       __ehhandler$?KPIWritePrivateProfileString@@YAHPBD000@Z 004338a0 f   GlobalFun.obj
 0001:000328c0       __ehhandler$?KPIGetPrivateProfileString@@YAKPBD00PADK0@Z 004338c0 f   GlobalFun.obj
 0001:000328e0       __ehhandler$?_Copy@?$basic_string@DU?$char_traits@D@std@@V?$allocator@D@2@@std@@IAEXII@Z 004338e0 f   LogFile.obj
 0001:00032900       __unwindfunclet$??$?HDU?$char_traits@D@std@@V?$allocator@D@1@@std@@YA?AV?$basic_string@DU?$char_traits@D@std@@V?$allocator@D@2@@0@ABV10@PBD@Z$0 00433900 f   LogFile.obj
 0001:00032908       __ehhandler$??$?HDU?$char_traits@D@std@@V?$allocator@D@1@@std@@YA?AV?$basic_string@DU?$char_traits@D@std@@V?$allocator@D@2@@0@ABV10@PBD@Z 00433908 f   LogFile.obj
 0001:00032930       __unwindfunclet$?Initialize@CLogFile@@QAEHABV?$basic_string@DU?$char_traits@D@std@@V?$allocator@D@2@@std@@I@Z$0 00433930 f   LogFile.obj
 0001:00032938       __ehhandler$?Initialize@CLogFile@@QAEHABV?$basic_string@DU?$char_traits@D@std@@V?$allocator@D@2@@std@@I@Z 00433938 f   LogFile.obj
 0001:00032960       __unwindfunclet$?OpenUniDirectory@CLogFile@@CAHABV?$basic_string@DU?$char_traits@D@std@@V?$allocator@D@2@@std@@PAV23@@Z$2 00433960 f   LogFile.obj
 0001:00032968       __unwindfunclet$?OpenUniDirectory@CLogFile@@CAHABV?$basic_string@DU?$char_traits@D@std@@V?$allocator@D@2@@std@@PAV23@@Z$3 00433968 f   LogFile.obj
 0001:00032970       __ehhandler$?OpenUniDirectory@CLogFile@@CAHABV?$basic_string@DU?$char_traits@D@std@@V?$allocator@D@2@@std@@PAV23@@Z 00433970 f   LogFile.obj
 0001:000329a0       __unwindfunclet$?CreateUniFile@CLogFile@@CAPAXABV?$basic_string@DU?$char_traits@D@std@@V?$allocator@D@2@@std@@PAV23@@Z$0 004339a0 f   LogFile.obj
 0001:000329a8       __unwindfunclet$?CreateUniFile@CLogFile@@CAPAXABV?$basic_string@DU?$char_traits@D@std@@V?$allocator@D@2@@std@@PAV23@@Z$1 004339a8 f   LogFile.obj
 0001:000329b0       __ehhandler$?CreateUniFile@CLogFile@@CAPAXABV?$basic_string@DU?$char_traits@D@std@@V?$allocator@D@2@@std@@PAV23@@Z 004339b0 f   LogFile.obj
 0001:000329e0       __unwindfunclet$?PrepareFile@CLogFile@@AAEHXZ$0 004339e0 f   LogFile.obj
 0001:000329eb       __unwindfunclet$?PrepareFile@CLogFile@@AAEHXZ$1 004339eb f   LogFile.obj
 0001:000329f6       __unwindfunclet$?PrepareFile@CLogFile@@AAEHXZ$2 004339f6 f   LogFile.obj
 0001:00032a01       __unwindfunclet$?PrepareFile@CLogFile@@AAEHXZ$3 00433a01 f   LogFile.obj
 0001:00032a0c       __ehhandler$?PrepareFile@CLogFile@@AAEHXZ 00433a0c f   LogFile.obj
 0001:00032a40       __ehhandler$?num_rows@S3P_MSSQLServer_Result@@UBEHXZ 00433a40 f   S3P_MSSQLServer_Result.obj
 0001:00032a60       __ehhandler$?data_seek@S3P_MSSQLServer_Result@@UBEXIH@Z 00433a60 f   S3P_MSSQLServer_Result.obj
 0001:00032a80       __ehhandler$?unuse@S3P_MSSQLServer_Result@@UAEHXZ 00433a80 f   S3P_MSSQLServer_Result.obj
 0001:00032aa0       __unwindfunclet$?num_fields@S3P_MSSQLServer_Result@@UBEHXZ$2 00433aa0 f   S3P_MSSQLServer_Result.obj
 0001:00032aa8       __ehhandler$?num_fields@S3P_MSSQLServer_Result@@UBEHXZ 00433aa8 f   S3P_MSSQLServer_Result.obj
 0001:00032ad0       __unwindfunclet$?get_field_data@S3P_MSSQLServer_Result@@UAE_NIPAXK@Z$2 00433ad0 f   S3P_MSSQLServer_Result.obj
 0001:00032ad8       __unwindfunclet$?get_field_data@S3P_MSSQLServer_Result@@UAE_NIPAXK@Z$3 00433ad8 f   S3P_MSSQLServer_Result.obj
 0001:00032ae0       __unwindfunclet$?get_field_data@S3P_MSSQLServer_Result@@UAE_NIPAXK@Z$4 00433ae0 f   S3P_MSSQLServer_Result.obj
 0001:00032ae8       __ehhandler$?get_field_data@S3P_MSSQLServer_Result@@UAE_NIPAXK@Z 00433ae8 f   S3P_MSSQLServer_Result.obj
 0001:00032b10       __unwindfunclet$??1S3P_MSSQLServer_Result@@UAE@XZ$0 00433b10 f   S3P_MSSQLServer_Result.obj
 0001:00032b18       __unwindfunclet$??1S3P_MSSQLServer_Result@@UAE@XZ$1 00433b18 f   S3P_MSSQLServer_Result.obj
 0001:00032b23       __ehhandler$??1S3P_MSSQLServer_Result@@UAE@XZ 00433b23 f   S3P_MSSQLServer_Result.obj
 0001:00032b40       __unwindfunclet$?GetAccountGameID@S3PAccount@@SAHPAVS3PDBConVBC@@PBDAAK@Z$0 00433b40 f   S3PAccount.obj
 0001:00032b4b       __ehhandler$?GetAccountGameID@S3PAccount@@SAHPAVS3PDBConVBC@@PBDAAK@Z 00433b4b f   S3PAccount.obj
 0001:00032b80       __unwindfunclet$?GetServerID@S3PAccount@@SAHPAVS3PDBConVBC@@PBDAAK@Z$0 00433b80 f   S3PAccount.obj
 0001:00032b8b       __ehhandler$?GetServerID@S3PAccount@@SAHPAVS3PDBConVBC@@PBDAAK@Z 00433b8b f   S3PAccount.obj
 0001:00032bc0       __unwindfunclet$??0_bstr_t@@QAE@PA_W_N@Z$0 00433bc0 f   S3PAccount.obj
 0001:00032bcb       __ehhandler$??0_bstr_t@@QAE@PA_W_N@Z 00433bcb f   S3PAccount.obj
 0001:00032bf0       __unwindfunclet$??4_bstr_t@@QAEAAV0@PB_W@Z$0 00433bf0 f   S3PAccount.obj
 0001:00032bfb       __ehhandler$??4_bstr_t@@QAEAAV0@PB_W@Z 00433bfb f   S3PAccount.obj
 0001:00032c20       __unwindfunclet$??0_bstr_t@@QAE@ABV_variant_t@@@Z$0 00433c20 f   S3PAccount.obj
 0001:00032c28       __ehhandler$??0_bstr_t@@QAE@ABV_variant_t@@@Z 00433c28 f   S3PAccount.obj
 0001:00032c50       __unwindfunclet$?ServerLogin@S3PAccount@@SAHPAVS3PDBConVBC@@PBD1KFQBEAAK@Z$0 00433c50 f   S3PAccount.obj
 0001:00032c5b       __unwindfunclet$?ServerLogin@S3PAccount@@SAHPAVS3PDBConVBC@@PBD1KFQBEAAK@Z$1 00433c5b f   S3PAccount.obj
 0001:00032c66       __unwindfunclet$?ServerLogin@S3PAccount@@SAHPAVS3PDBConVBC@@PBD1KFQBEAAK@Z$2 00433c66 f   S3PAccount.obj
 0001:00032c71       __unwindfunclet$?ServerLogin@S3PAccount@@SAHPAVS3PDBConVBC@@PBD1KFQBEAAK@Z$3 00433c71 f   S3PAccount.obj
 0001:00032c7c       __unwindfunclet$?ServerLogin@S3PAccount@@SAHPAVS3PDBConVBC@@PBD1KFQBEAAK@Z$4 00433c7c f   S3PAccount.obj
 0001:00032c9e       __unwindfunclet$?ServerLogin@S3PAccount@@SAHPAVS3PDBConVBC@@PBD1KFQBEAAK@Z$5 00433c9e f   S3PAccount.obj
 0001:00032ca9       __ehhandler$?ServerLogin@S3PAccount@@SAHPAVS3PDBConVBC@@PBD1KFQBEAAK@Z 00433ca9 f   S3PAccount.obj
 0001:00032ce0       __unwindfunclet$??0logic_error@std@@QAE@ABV?$basic_string@DU?$char_traits@D@std@@V?$allocator@D@2@@1@@Z$0 00433ce0 f   S3PAccount.obj
 0001:00032ce8       __ehhandler$??0logic_error@std@@QAE@ABV?$basic_string@DU?$char_traits@D@std@@V?$allocator@D@2@@1@@Z 00433ce8 f   S3PAccount.obj
 0001:00032d10       __unwindfunclet$?_Incsize@?$list@UKAccountUserTimeInfo@@V?$allocator@UKAccountUserTimeInfo@@@std@@@std@@IAEXI@Z$0 00433d10 f   S3PAccount.obj
 0001:00032d18       __ehhandler$?_Incsize@?$list@UKAccountUserTimeInfo@@V?$allocator@UKAccountUserTimeInfo@@@std@@@std@@IAEXI@Z 00433d18 f   S3PAccount.obj
 0001:00032d40       __unwindfunclet$??0logic_error@std@@QAE@ABV01@@Z$0 00433d40 f   S3PAccount.obj
 0001:00032d48       __ehhandler$??0logic_error@std@@QAE@ABV01@@Z 00433d48 f   S3PAccount.obj
 0001:00032d70       __unwindfunclet$?GetAccountCount@S3PAccount@@SAHPAVS3PDBConVBC@@KHAAK@Z$0 00433d70 f   S3PAccount.obj
 0001:00032d7b       __unwindfunclet$?GetAccountCount@S3PAccount@@SAHPAVS3PDBConVBC@@KHAAK@Z$1 00433d7b f   S3PAccount.obj
 0001:00032d86       __ehhandler$?GetAccountCount@S3PAccount@@SAHPAVS3PDBConVBC@@KHAAK@Z 00433d86 f   S3PAccount.obj
 0001:00032dc0       __unwindfunclet$?GetAccountsTime@S3PAccount@@SAHPAVS3PDBConVBC@@KKAAV?$list@UKAccountUserTimeInfo@@V?$allocator@UKAccountUserTimeInfo@@@std@@@std@@@Z$0 00433dc0 f   S3PAccount.obj
 0001:00032dcb       __unwindfunclet$?GetAccountsTime@S3PAccount@@SAHPAVS3PDBConVBC@@KKAAV?$list@UKAccountUserTimeInfo@@V?$allocator@UKAccountUserTimeInfo@@@std@@@std@@@Z$1 00433dcb f   S3PAccount.obj
 0001:00032dd6       __unwindfunclet$?GetAccountsTime@S3PAccount@@SAHPAVS3PDBConVBC@@KKAAV?$list@UKAccountUserTimeInfo@@V?$allocator@UKAccountUserTimeInfo@@@std@@@std@@@Z$2 00433dd6 f   S3PAccount.obj
 0001:00032de1       __unwindfunclet$?GetAccountsTime@S3PAccount@@SAHPAVS3PDBConVBC@@KKAAV?$list@UKAccountUserTimeInfo@@V?$allocator@UKAccountUserTimeInfo@@@std@@@std@@@Z$3 00433de1 f   S3PAccount.obj
 0001:00032dec       __unwindfunclet$?GetAccountsTime@S3PAccount@@SAHPAVS3PDBConVBC@@KKAAV?$list@UKAccountUserTimeInfo@@V?$allocator@UKAccountUserTimeInfo@@@std@@@std@@@Z$4 00433dec f   S3PAccount.obj
 0001:00032df7       __ehhandler$?GetAccountsTime@S3PAccount@@SAHPAVS3PDBConVBC@@KKAAV?$list@UKAccountUserTimeInfo@@V?$allocator@UKAccountUserTimeInfo@@@std@@@std@@@Z 00433df7 f   S3PAccount.obj
 0001:00032e30       __unwindfunclet$??0_bstr_t@@QAE@PBD@Z$0 00433e30 f   S3PDB_MSSQLServer_Connection.obj
 0001:00032e3b       __ehhandler$??0_bstr_t@@QAE@PBD@Z 00433e3b f   S3PDB_MSSQLServer_Connection.obj
 0001:00032e60       __unwindfunclet$??1S3PDB_MSSQLServer_Connection@@UAE@XZ$0 00433e60 f   S3PDB_MSSQLServer_Connection.obj
 0001:00032e68       __unwindfunclet$??1S3PDB_MSSQLServer_Connection@@UAE@XZ$1 00433e68 f   S3PDB_MSSQLServer_Connection.obj
 0001:00032e73       __unwindfunclet$??1S3PDB_MSSQLServer_Connection@@UAE@XZ$2 00433e73 f   S3PDB_MSSQLServer_Connection.obj
 0001:00032e7e       __unwindfunclet$??1S3PDB_MSSQLServer_Connection@@UAE@XZ$3 00433e7e f   S3PDB_MSSQLServer_Connection.obj
 0001:00032e89       __ehhandler$??1S3PDB_MSSQLServer_Connection@@UAE@XZ 00433e89 f   S3PDB_MSSQLServer_Connection.obj
 0001:00032eb0       __unwindfunclet$?DoSql@S3PDB_MSSQLServer_Connection@@UAE_NPBDPAU_Recordset@@@Z$2 00433eb0 f   S3PDB_MSSQLServer_Connection.obj
 0001:00032eb8       __unwindfunclet$?DoSql@S3PDB_MSSQLServer_Connection@@UAE_NPBDPAU_Recordset@@@Z$3 00433eb8 f   S3PDB_MSSQLServer_Connection.obj
 0001:00032ec0       __ehhandler$?DoSql@S3PDB_MSSQLServer_Connection@@UAE_NPBDPAU_Recordset@@@Z 00433ec0 f   S3PDB_MSSQLServer_Connection.obj
 0001:00032ee0       __unwindfunclet$??0S3P_MSSQLServer_Result@@QAE@XZ$0 00433ee0 f   S3PDB_MSSQLServer_Connection.obj
 0001:00032ee8       __unwindfunclet$??0S3P_MSSQLServer_Result@@QAE@XZ$1 00433ee8 f   S3PDB_MSSQLServer_Connection.obj
 0001:00032ef3       __ehhandler$??0S3P_MSSQLServer_Result@@QAE@XZ 00433ef3 f   S3PDB_MSSQLServer_Connection.obj
 0001:00032f10       __unwindfunclet$??0S3PDB_MSSQLServer_Connection@@QAE@XZ$0 00433f10 f   S3PDB_MSSQLServer_Connection.obj
 0001:00032f18       __unwindfunclet$??0S3PDB_MSSQLServer_Connection@@QAE@XZ$1 00433f18 f   S3PDB_MSSQLServer_Connection.obj
 0001:00032f23       __unwindfunclet$??0S3PDB_MSSQLServer_Connection@@QAE@XZ$2 00433f23 f   S3PDB_MSSQLServer_Connection.obj
 0001:00032f2e       __unwindfunclet$??0S3PDB_MSSQLServer_Connection@@QAE@XZ$3 00433f2e f   S3PDB_MSSQLServer_Connection.obj
 0001:00032f39       __ehhandler$??0S3PDB_MSSQLServer_Connection@@QAE@XZ 00433f39 f   S3PDB_MSSQLServer_Connection.obj
 0001:00032f60       __unwindfunclet$?PutCommandText@Command15@@QAEXV_bstr_t@@@Z$0 00433f60 f   S3PDB_MSSQLServer_Connection.obj
 0001:00032f68       __ehhandler$?PutCommandText@Command15@@QAEXV_bstr_t@@@Z 00433f68 f   S3PDB_MSSQLServer_Connection.obj
 0001:00032f90       __unwindfunclet$?Open@Connection15@@QAEJV_bstr_t@@00J@Z$0 00433f90 f   S3PDB_MSSQLServer_Connection.obj
 0001:00032f98       __unwindfunclet$?Open@Connection15@@QAEJV_bstr_t@@00J@Z$1 00433f98 f   S3PDB_MSSQLServer_Connection.obj
 0001:00032fa0       __unwindfunclet$?Open@Connection15@@QAEJV_bstr_t@@00J@Z$2 00433fa0 f   S3PDB_MSSQLServer_Connection.obj
 0001:00032fa8       __ehhandler$?Open@Connection15@@QAEJV_bstr_t@@00J@Z 00433fa8 f   S3PDB_MSSQLServer_Connection.obj
 0001:00032fd0       __unwindfunclet$?Do@S3PDB_MSSQLServer_Connection@@UAE_NPBD@Z$4 00433fd0 f   S3PDB_MSSQLServer_Connection.obj
 0001:00032fd8       __unwindfunclet$?Do@S3PDB_MSSQLServer_Connection@@UAE_NPBD@Z$6 00433fd8 f   S3PDB_MSSQLServer_Connection.obj
 0001:00032fe0       __unwindfunclet$?Do@S3PDB_MSSQLServer_Connection@@UAE_NPBD@Z$7 00433fe0 f   S3PDB_MSSQLServer_Connection.obj
 0001:00032fe8       __ehhandler$?Do@S3PDB_MSSQLServer_Connection@@UAE_NPBD@Z 00433fe8 f   S3PDB_MSSQLServer_Connection.obj
 0001:00033010       __unwindfunclet$?OpenConnect@S3PDB_MSSQLServer_Connection@@UAE_NPAUtag_DATABASEINFO@@@Z$2 00434010 f   S3PDB_MSSQLServer_Connection.obj
 0001:00033018       __unwindfunclet$?OpenConnect@S3PDB_MSSQLServer_Connection@@UAE_NPAUtag_DATABASEINFO@@@Z$3 00434018 f   S3PDB_MSSQLServer_Connection.obj
 0001:00033020       __unwindfunclet$?OpenConnect@S3PDB_MSSQLServer_Connection@@UAE_NPAUtag_DATABASEINFO@@@Z$4 00434020 f   S3PDB_MSSQLServer_Connection.obj
 0001:00033028       __unwindfunclet$?OpenConnect@S3PDB_MSSQLServer_Connection@@UAE_NPAUtag_DATABASEINFO@@@Z$5 00434028 f   S3PDB_MSSQLServer_Connection.obj
 0001:00033030       __unwindfunclet$?OpenConnect@S3PDB_MSSQLServer_Connection@@UAE_NPAUtag_DATABASEINFO@@@Z$6 00434030 f   S3PDB_MSSQLServer_Connection.obj
 0001:00033038       __unwindfunclet$?OpenConnect@S3PDB_MSSQLServer_Connection@@UAE_NPAUtag_DATABASEINFO@@@Z$7 00434038 f   S3PDB_MSSQLServer_Connection.obj
 0001:00033040       __ehhandler$?OpenConnect@S3PDB_MSSQLServer_Connection@@UAE_NPAUtag_DATABASEINFO@@@Z 00434040 f   S3PDB_MSSQLServer_Connection.obj
 0001:00033070       __unwindfunclet$?CreateConnection@S3PDBConnectionPool@@IAEHPAUtag_DATABASEINFO@@PAPAVS3PDBConVBC@@@Z$0 00434070 f   S3PDBConnectionPool.obj
 0001:0003307b       __ehhandler$?CreateConnection@S3PDBConnectionPool@@IAEHPAUtag_DATABASEINFO@@PAPAVS3PDBConVBC@@@Z 0043407b f   S3PDBConnectionPool.obj
 0001:000330a0       __unwindfunclet$??1S3PDBConnectionPool@@MAE@XZ$0 004340a0 f   S3PDBConnectionPool.obj
 0001:000330a8       __unwindfunclet$??1S3PDBConnectionPool@@MAE@XZ$1 004340a8 f   S3PDBConnectionPool.obj
 0001:000330b3       __ehhandler$??1S3PDBConnectionPool@@MAE@XZ 004340b3 f   S3PDBConnectionPool.obj
 0001:000330d0       __unwindfunclet$?_Xlen@?$vector@PAVS3PDBConVBC@@V?$allocator@PAVS3PDBConVBC@@@std@@@std@@KAXXZ$0 004340d0 f   S3PDBConnectionPool.obj
 0001:000330d8       __ehhandler$?_Xlen@?$vector@PAVS3PDBConVBC@@V?$allocator@PAVS3PDBConVBC@@@std@@@std@@KAXXZ 004340d8 f   S3PDBConnectionPool.obj
 0001:00033100       __unwindfunclet$??0S3PDBConnectionPool@@IAE@XZ$0 00434100 f   S3PDBConnectionPool.obj
 0001:00033108       __ehhandler$??0S3PDBConnectionPool@@IAE@XZ 00434108 f   S3PDBConnectionPool.obj
 0001:00033130       __unwindfunclet$?Instance@S3PDBConnectionPool@@SAPAV1@XZ$0 00434130 f   S3PDBConnectionPool.obj
 0001:0003313b       __ehhandler$?Instance@S3PDBConnectionPool@@SAPAV1@XZ 0043413b f   S3PDBConnectionPool.obj
 0001:00033160       __unwindfunclet$?Init@S3PDBConnectionPool@@QAEHABV?$basic_string@DU?$char_traits@D@std@@V?$allocator@D@2@@std@@0K@Z$0 00434160 f   S3PDBConnectionPool.obj
 0001:0003316b       __ehhandler$?Init@S3PDBConnectionPool@@QAEHABV?$basic_string@DU?$char_traits@D@std@@V?$allocator@D@2@@std@@0K@Z 0043416b f   S3PDBConnectionPool.obj
 0001:000331a0       __unwindfunclet$??0KThread_CS@@QAE@XZ$0 004341a0 f   S3PDBSocketPool.obj
 0001:000331a8       __ehhandler$??0KThread_CS@@QAE@XZ 004341a8 f   S3PDBSocketPool.obj
 0001:000331d0       __unwindfunclet$??1KThread_CS@@UAE@XZ$0 004341d0 f   S3PDBSocketPool.obj
 0001:000331d8       __ehhandler$??1KThread_CS@@UAE@XZ 004341d8 f   S3PDBSocketPool.obj
 0001:00033200       __ehhandler$?SendData@S3PDBSocketPool@@QAEHKQBXABI@Z 00434200 f   S3PDBSocketPool.obj
 0001:00033220       __ehhandler$?CustomSend@S3PDBSocketPool@@QAEHKDPAUKAccountHead@@@Z 00434220 f   S3PDBSocketPool.obj
 0001:00033250       __unwindfunclet$??0KGatewayDataProcess@@QAE@KKF@Z$0 00434250 f   S3PDBSocketPool.obj
 0001:00033258       __unwindfunclet$??0KGatewayDataProcess@@QAE@KKF@Z$1 00434258 f   S3PDBSocketPool.obj
 0001:00033263       __ehhandler$??0KGatewayDataProcess@@QAE@KKF@Z 00434263 f   S3PDBSocketPool.obj
 0001:00033280       __unwindfunclet$?erase@?$_Tree@V?$_Tmap_traits@KPAVKGatewayDataProcess@@U?$less@K@std@@V?$allocator@U?$pair@$$CBKPAVKGatewayDataProcess@@@std@@@3@$0A@@std@@@std@@QAE?AViterator@12@V312@@Z$0 00434280 f   S3PDBSocketPool.obj
 0001:00033288       __ehhandler$?erase@?$_Tree@V?$_Tmap_traits@KPAVKGatewayDataProcess@@U?$less@K@std@@V?$allocator@U?$pair@$$CBKPAVKGatewayDataProcess@@@std@@@3@$0A@@std@@@std@@QAE?AViterator@12@V312@@Z 00434288 f   S3PDBSocketPool.obj
 0001:000332b0       __unwindfunclet$?_Insert@?$_Tree@V?$_Tmap_traits@KPAVKGatewayDataProcess@@U?$less@K@std@@V?$allocator@U?$pair@$$CBKPAVKGatewayDataProcess@@@std@@@3@$0A@@std@@@std@@IAE?AViterator@12@_NPAU_Node@?$_Tree_nod@V?$_Tmap_traits@KPAVKGatewayDataProcess@@U?$less@K@std@@V?$allocator@U?$pair@$$CBKPAVKGatewayDataProcess@@@std@@@3@$0A@@std@@@2@ABU?$pair@$$CBKPAVKGatewayDataProcess@@@2@@Z$0 004342b0 f   S3PDBSocketPool.obj
 0001:000332b8       __ehhandler$?_Insert@?$_Tree@V?$_Tmap_traits@KPAVKGatewayDataProcess@@U?$less@K@std@@V?$allocator@U?$pair@$$CBKPAVKGatewayDataProcess@@@std@@@3@$0A@@std@@@std@@IAE?AViterator@12@_NPAU_Node@?$_Tree_nod@V?$_Tmap_traits@KPAVKGatewayDataProcess@@U?$less@K@std@@V?$allocator@U?$pair@$$CBKPAVKGatewayDataProcess@@@std@@@3@$0A@@std@@@2@ABU?$pair@$$CBKPAVKGatewayDataProcess@@@2@@Z 004342b8 f   S3PDBSocketPool.obj
 0001:000332e0       __unwindfunclet$?RemoveUserClientID@S3PDBSocketPool@@QAEHK@Z$0 004342e0 f   S3PDBSocketPool.obj
 0001:000332e8       __ehhandler$?RemoveUserClientID@S3PDBSocketPool@@QAEHK@Z 004342e8 f   S3PDBSocketPool.obj
 0001:00033310       __unwindfunclet$??1S3PDBSocketPool@@UAE@XZ$0 00434310 f   S3PDBSocketPool.obj
 0001:00033318       __ehhandler$??1S3PDBSocketPool@@UAE@XZ 00434318 f   S3PDBSocketPool.obj
 0001:00033340       __unwindfunclet$??0S3PDBSocketPool@@IAE@XZ$0 00434340 f   S3PDBSocketPool.obj
 0001:00033348       __ehhandler$??0S3PDBSocketPool@@IAE@XZ 00434348 f   S3PDBSocketPool.obj
 0001:00033370       __unwindfunclet$?Instance@S3PDBSocketPool@@SAPAV1@XZ$0 00434370 f   S3PDBSocketPool.obj
 0001:0003337b       __ehhandler$?Instance@S3PDBSocketPool@@SAPAV1@XZ 0043437b f   S3PDBSocketPool.obj
 0001:000333a0       __unwindfunclet$?AddUserClientID@S3PDBSocketPool@@QAEHK@Z$0 004343a0 f   S3PDBSocketPool.obj
 0001:000333ab       __ehhandler$?AddUserClientID@S3PDBSocketPool@@QAEHK@Z 004343ab f   S3PDBSocketPool.obj
 0001:000333d0       __unwindfunclet$?ProAutoTime@KGatewayDataProcess@@IAEHPAVS3PDBConVBC@@@Z$0 004343d0 f   S3PDBSocketPool.obj
 0001:000333db       __ehhandler$?ProAutoTime@KGatewayDataProcess@@IAEHPAVS3PDBConVBC@@@Z 004343db f   S3PDBSocketPool.obj
 0001:00033409       __ehhandler$?CallUnexpected@@YAXPBU_s_ESTypeList@@@Z 00434409 f   LIBCMT:frame.obj
 0001:00033424       __unwindfunclet$?_Xlen@_String_base@std@@SAXXZ$0 00434424 f   libcpmt:string.obj
 0001:0003342c       __ehhandler$?_Xlen@_String_base@std@@SAXXZ 0043442c f   libcpmt:string.obj
 0001:00033447       __unwindfunclet$?_Xran@_String_base@std@@SAXXZ$0 00434447 f   libcpmt:string.obj
 0001:0003344f       __ehhandler$?_Xran@_String_base@std@@SAXXZ 0043444f f   libcpmt:string.obj
 0001:0003346a       __unwindfunclet$?_Xinvarg@_String_base@std@@SAXXZ$0 0043446a f   libcpmt:string.obj
 0001:00033472       __ehhandler$?_Xinvarg@_String_base@std@@SAXXZ 00434472 f   libcpmt:string.obj
 0001:00033490       __ehhandler$?ConvertBSTRToString@_com_util@@YGPADPA_W@Z 00434490 f   comsuppw:comutil.obj
 0001:000334b0       ??__EuiTabkey@@YAXXZ       004344b0 f   GlobalFun.obj
 0001:000334d0       ??__Egs_LogFile@@YAXXZ     004344d0 f   main.obj
 0001:000334f0       ??__Eg_TraceBuffer@@YAXXZ  004344f0 f   main.obj
 0001:00033510       ??__EvtMissing@@YAXXZ      00434510 f   comsuppw:comutil.obj
 0001:00033520       ??__Fgs_LogFile@@YAXXZ     00434520 f   main.obj
 0001:00033530       ??__Fg_TraceBuffer@@YAXXZ  00434530 f   main.obj
 0001:00033547       ??__Fnomem@?5???2@YAPAXI@Z@YAXXZ 00434547 f   LIBCMT:new.obj
 0001:00033560       ??__FvtMissing@@YAXXZ      00434560 f   comsuppw:comutil.obj
