 Sword3PaySys

 Timestamp is 507eb419 (Wed Oct 17 20:35:21 2012)

 Preferred load address is 00400000

 Start         Length     Name                   Class
 0001:00000000 00032428H .text                   CODE
 0001:00032430 00000babH .text$x                 CODE
 0001:00032fe0 0000006cH .text$yc                CODE
 0001:00033050 0000004cH .text$yd                CODE
 0002:00000000 0000026cH .idata$5                DATA
 0002:0000026c 00000004H .CRT$XCA                DATA
 0002:00000270 00000010H .CRT$XCU                DATA
 0002:00000280 00000004H .CRT$XCZ                DATA
 0002:00000284 00000004H .CRT$XIA                DATA
 0002:00000288 00000014H .CRT$XIC                DATA
 0002:0000029c 00000004H .CRT$XIY                DATA
 0002:000002a0 00000004H .CRT$XIZ                DATA
 0002:000002a4 00000004H .CRT$XPA                DATA
 0002:000002a8 00000004H .CRT$XPX                DATA
 0002:000002ac 00000004H .CRT$XPXA               DATA
 0002:000002b0 00000004H .CRT$XPZ                DATA
 0002:000002b4 00000004H .CRT$XTA                DATA
 0002:000002b8 00000004H .CRT$XTZ                DATA
 0002:000002c0 000041d8H .rdata                  DATA
 0002:00004498 00000067H .rdata$debug            DATA
 0002:00004500 000008dcH .rdata$r                DATA
 0002:00004de0 000000f8H .rdata$sxdata           DATA
 0002:00004ed8 00000004H .rtc$IAA                DATA
 0002:00004edc 00000004H .rtc$IZZ                DATA
 0002:00004ee0 00000004H .rtc$TAA                DATA
 0002:00004ee4 00000004H .rtc$TZZ                DATA
 0002:00004ee8 00001a6cH .xdata$x                DATA
 0002:00006954 00000064H .idata$2                DATA
 0002:000069b8 00000014H .idata$3                DATA
 0002:000069cc 0000026cH .idata$4                DATA
 0002:00006c38 0000094eH .idata$6                DATA
 0002:00007586 00000000H .edata                  DATA
 0003:00000000 00001758H .data                   DATA
 0003:00001760 00201df0H .bss                    DATA
 0004:00000000 00000280H .rsrc$01                DATA
 0004:00000280 00000a58H .rsrc$02                DATA

  Address         Publics by Value              Rva+Base       Lib:Object

 0000:00000000       __except_list              00000000     <absolute>
 0000:0000003e       ___safe_se_handler_count   0000003e     <absolute>
 0000:00000000       ___ImageBase               00400000     <linker-defined>
 0001:00000000       __tcsncmp                  00401000 f i GlobalFun.obj
 0001:000003c0       ?KPIWritePrivateProfileString@@YAHPBD000@Z 004013c0 f   GlobalFun.obj
 0001:000008f0       ?KPIGetPrivateProfileString@@YAKPBD00PADK0@Z 004018f0 f   GlobalFun.obj
 0001:00000b00       ?KPIWaitForSingleObject@@YAKPAXK@Z 00401b00 f   GlobalFun.obj
 0001:00000b30       ?KPICloseHandle@@YAHPAX@Z  00401b30 f   GlobalFun.obj
 0001:00000b40       ?KPITerminateThread@@YAHPAXK@Z 00401b40 f   GlobalFun.obj
 0001:00000b60       ?KPICreateThread@@YAPAXP6GKPAX@Z0PAK@Z 00401b60 f   GlobalFun.obj
 0001:00000b90       ?KPICreateUDPSocket@@YAIH@Z 00401b90 f   GlobalFun.obj
 0001:00000c60       ?KPICreateEvent@@YAPAXPAU_SECURITY_ATTRIBUTES@@HHPBD@Z 00401c60 f   GlobalFun.obj
 0001:00000c80       ?KPISetEvent@@YAHPAX@Z     00401c80 f   GlobalFun.obj
 0001:00000c90       ?KPIResetEvent@@YAHPAX@Z   00401c90 f   GlobalFun.obj
 0001:00000ca0       ?KPIGetExePath@@YAXPADK@Z  00401ca0 f   GlobalFun.obj
 0001:00000d00       ?KPICreateMutex@@YAPAXPAU_SECURITY_ATTRIBUTES@@HPBD@Z 00401d00 f   GlobalFun.obj
 0001:00000d20       ?KPIReleaseMutex@@YAHPAX@Z 00401d20 f   GlobalFun.obj
 0001:00000d30       ?KPIHash@@YAKPADKK@Z       00401d30 f   GlobalFun.obj
 0001:00000d70       ?KPIPrintToFile@@YAXPBD0ZZ 00401d70 f   GlobalFun.obj
 0001:00000dc0       ?KPIPrintToFile@@YAXPAU_iobuf@@PBDZZ 00401dc0 f   GlobalFun.obj
 0001:00000de0       ??0KThread@@QAE@XZ         00401de0 f   KThread.obj
 0001:00000e00       ??1KThread@@UAE@XZ         00401e00 f   KThread.obj
 0001:00000e10       ?Stop@KThread@@UAEHXZ      00401e10 f   KThread.obj
 0001:00000ea0       ?ThreadFun@KThread@@SGKPAX@Z 00401ea0 f   KThread.obj
 0001:00000eb0       ??0K_CS@@QAE@XZ            00401eb0 f   KThread.obj
 0001:00000ed0       ?Lock@K_CS@@QAEHXZ         00401ed0 f   KThread.obj
 0001:00000ef0       ?Unlock@K_CS@@QAEHXZ       00401ef0 f   KThread.obj
 0001:00000f20       ??_EKThread@@UAEPAXI@Z     00401f20 f i KThread.obj
 0001:00000f20       ??_GKThread@@UAEPAXI@Z     00401f20 f i KThread.obj
 0001:00000f40       ?Start@KThread@@UAEPAXXZ   00401f40 f   KThread.obj
 0001:00000f80       ??1K_CS@@UAE@XZ            00401f80 f   KThread.obj
 0001:00000fa0       ??_EK_CS@@UAEPAXI@Z        00401fa0 f i KThread.obj
 0001:00000fa0       ??_GK_CS@@UAEPAXI@Z        00401fa0 f i KThread.obj
 0001:00000fc0       ??0bad_alloc@std@@QAE@PBD@Z 00401fc0 f i LogFile.obj
 0001:00000fe0       ??1bad_alloc@std@@UAE@XZ   00401fe0 f i LogFile.obj
 0001:00000ff0       ??_Ebad_alloc@std@@UAEPAXI@Z 00401ff0 f i LogFile.obj
 0001:00000ff0       ??_Gbad_alloc@std@@UAEPAXI@Z 00401ff0 f i LogFile.obj
 0001:00001020       ?assign@?$char_traits@D@std@@SAXAADABD@Z 00402020 f i LogFile.obj
 0001:00001030       ?length@?$char_traits@D@std@@SAIPBD@Z 00402030 f i LogFile.obj
 0001:00001050       ?_Copy_s@?$char_traits@D@std@@SAPADPADIPBDI@Z 00402050 f i LogFile.obj
 0001:00001080       ?_Move_s@?$char_traits@D@std@@SAPADPADIPBDI@Z 00402080 f i LogFile.obj
 0001:000010b0       ?assign@?$char_traits@D@std@@SAPADPADID@Z 004020b0 f i LogFile.obj
 0001:000010d0       ??0_Iterator_base@std@@QAE@XZ 004020d0 f i LogFile.obj
 0001:000010e0       ?EndBatch@CLogFile@@QAEKXZ 004020e0 f   LogFile.obj
 0001:00001100       ?IsBatched@CLogFile@@QAEHXZ 00402100 f   LogFile.obj
 0001:00001110       ?size@?$basic_string@DU?$char_traits@D@std@@V?$allocator@D@2@@std@@QBEIXZ 00402110 f i LogFile.obj
 0001:00001120       ?empty@?$basic_string@DU?$char_traits@D@std@@V?$allocator@D@2@@std@@QBE_NXZ 00402120 f i LogFile.obj
 0001:00001130       ?_Myptr@?$basic_string@DU?$char_traits@D@std@@V?$allocator@D@2@@std@@IBEPBDXZ 00402130 f i LogFile.obj
 0001:00001140       ??0?$allocator@D@std@@QAE@XZ 00402140 f i LogFile.obj
 0001:00001150       ??0?$reverse_iterator@V?$_String_iterator@DU?$char_traits@D@std@@V?$allocator@D@2@@std@@@std@@QAE@V?$_String_iterator@DU?$char_traits@D@std@@V?$allocator@D@2@@1@@Z 00402150 f i LogFile.obj
 0001:00001170       ?_Myptr@?$basic_string@DU?$char_traits@D@std@@V?$allocator@D@2@@std@@IAEPADXZ 00402170 f i LogFile.obj
 0001:00001180       ??0?$allocator@D@std@@QAE@ABV01@@Z 00402180 f i LogFile.obj
 0001:00001190       ?deallocate@?$allocator@D@std@@QAEXPADI@Z 00402190 f i LogFile.obj
 0001:000011a0       ??D?$_String_const_iterator@DU?$char_traits@D@std@@V?$allocator@D@2@@std@@QBEABDXZ 004021a0 f i LogFile.obj
 0001:000011e0       ??F?$_String_const_iterator@DU?$char_traits@D@std@@V?$allocator@D@2@@std@@QAEAAV01@XZ 004021e0 f i LogFile.obj
 0001:00001220       ?_Inside@?$basic_string@DU?$char_traits@D@std@@V?$allocator@D@2@@std@@IAE_NPBD@Z 00402220 f i LogFile.obj
 0001:00001260       ??0?$_Ranit_base@DHPBDABDU_Iterator_base@std@@@std@@QAE@XZ 00402260 f i LogFile.obj
 0001:00001270       ?max_size@?$allocator@D@std@@QBEIXZ 00402270 f i LogFile.obj
 0001:00001280       ??$_Allocate@D@std@@YAPADIPAD@Z 00402280 f i LogFile.obj
 0001:000012e0       ??0bad_alloc@std@@QAE@ABV01@@Z 004022e0 f i LogFile.obj
 0001:00001300       ??$_Char_traits_cat@U?$char_traits@D@std@@@std@@YA?AU_Secure_char_traits_tag@0@XZ 00402300 f i LogFile.obj
 0001:00001310       ??$copy_s@U?$char_traits@D@std@@@_Traits_helper@std@@YAPADPADIPBDIU_Secure_char_traits_tag@1@@Z 00402310 f i LogFile.obj
 0001:00001340       ??$move_s@U?$char_traits@D@std@@@_Traits_helper@std@@YAPADPADIPBDIU_Secure_char_traits_tag@1@@Z 00402340 f i LogFile.obj
 0001:00001370       ?c_str@?$basic_string@DU?$char_traits@D@std@@V?$allocator@D@2@@std@@QBEPBDXZ 00402370 f i LogFile.obj
 0001:00001380       ??0?$_String_val@DV?$allocator@D@std@@@std@@IAE@V?$allocator@D@1@@Z 00402380 f i LogFile.obj
 0001:00001390       ??0?$_String_val@DV?$allocator@D@std@@@std@@QAE@ABV01@@Z 00402390 f i LogFile.obj
 0001:000013a0       ??D?$_String_iterator@DU?$char_traits@D@std@@V?$allocator@D@2@@std@@QBEAADXZ 004023a0 f i LogFile.obj
 0001:000013e0       ??F?$_String_iterator@DU?$char_traits@D@std@@V?$allocator@D@2@@std@@QAEAAV01@XZ 004023e0 f i LogFile.obj
 0001:00001420       ?_Chassign@?$basic_string@DU?$char_traits@D@std@@V?$allocator@D@2@@std@@IAEXIID@Z 00402420 f i LogFile.obj
 0001:00001480       ?_Eos@?$basic_string@DU?$char_traits@D@std@@V?$allocator@D@2@@std@@IAEXI@Z 00402480 f i LogFile.obj
 0001:000014a0       ?max_size@?$basic_string@DU?$char_traits@D@std@@V?$allocator@D@2@@std@@QBEIXZ 004024a0 f i LogFile.obj
 0001:000014b0       ??0?$_String_const_iterator@DU?$char_traits@D@std@@V?$allocator@D@2@@std@@QAE@PBDPBU_Container_base@1@@Z 004024b0 f i LogFile.obj
 0001:00001510       ?allocate@?$allocator@D@std@@QAEPADI@Z 00402510 f i LogFile.obj
 0001:00001530       ??$copy_s@U?$char_traits@D@std@@@_Traits_helper@std@@YAPADPADIPBDI@Z 00402530 f i LogFile.obj
 0001:00001560       ??$move_s@U?$char_traits@D@std@@@_Traits_helper@std@@YAPADPADIPBDI@Z 00402560 f i LogFile.obj
 0001:00001590       ??D?$reverse_iterator@V?$_String_iterator@DU?$char_traits@D@std@@V?$allocator@D@2@@std@@@std@@QBEAADXZ 00402590 f i LogFile.obj
 0001:000015f0       ?_Tidy@?$basic_string@DU?$char_traits@D@std@@V?$allocator@D@2@@std@@IAEX_NI@Z 004025f0 f i LogFile.obj
 0001:00001640       ?erase@?$basic_string@DU?$char_traits@D@std@@V?$allocator@D@2@@std@@QAEAAV12@II@Z 00402640 f i LogFile.obj
 0001:000016d0       ??0?$_String_iterator@DU?$char_traits@D@std@@V?$allocator@D@2@@std@@QAE@PADPBU_Container_base@1@@Z 004026d0 f i LogFile.obj
 0001:000016f0       ?_Copy@?$basic_string@DU?$char_traits@D@std@@V?$allocator@D@2@@std@@IAEXII@Z 004026f0 f i LogFile.obj
 0001:00001840       ??0?$basic_string@DU?$char_traits@D@std@@V?$allocator@D@2@@std@@QAE@XZ 00402840 f i LogFile.obj
 0001:00001860       ??1?$basic_string@DU?$char_traits@D@std@@V?$allocator@D@2@@std@@QAE@XZ 00402860 f i LogFile.obj
 0001:00001890       ?end@?$basic_string@DU?$char_traits@D@std@@V?$allocator@D@2@@std@@QAE?AV?$_String_iterator@DU?$char_traits@D@std@@V?$allocator@D@2@@2@XZ 00402890 f i LogFile.obj
 0001:000018c0       ?_Grow@?$basic_string@DU?$char_traits@D@std@@V?$allocator@D@2@@std@@IAE_NI_N@Z 004028c0 f i LogFile.obj
 0001:00001980       ?append@?$basic_string@DU?$char_traits@D@std@@V?$allocator@D@2@@std@@QAEAAV12@ABV12@II@Z 00402980 f i LogFile.obj
 0001:00001a80       ??0CLogFile@@QAE@XZ        00402a80 f   LogFile.obj
 0001:00001ab0       ??1CLogFile@@UAE@XZ        00402ab0 f   LogFile.obj
 0001:00001ae0       ?rbegin@?$basic_string@DU?$char_traits@D@std@@V?$allocator@D@2@@std@@QAE?AV?$reverse_iterator@V?$_String_iterator@DU?$char_traits@D@std@@V?$allocator@D@2@@std@@@2@XZ 00402ae0 f i LogFile.obj
 0001:00001b40       ?append@?$basic_string@DU?$char_traits@D@std@@V?$allocator@D@2@@std@@QAEAAV12@ID@Z 00402b40 f i LogFile.obj
 0001:00001bf0       ?assign@?$basic_string@DU?$char_traits@D@std@@V?$allocator@D@2@@std@@QAEAAV12@ABV12@II@Z 00402bf0 f i LogFile.obj
 0001:00001cd0       ?resize@?$basic_string@DU?$char_traits@D@std@@V?$allocator@D@2@@std@@QAEXID@Z 00402cd0 f i LogFile.obj
 0001:00001d00       ?append@?$basic_string@DU?$char_traits@D@std@@V?$allocator@D@2@@std@@QAEAAV12@PBDI@Z 00402d00 f i LogFile.obj
 0001:00001df0       ??_GCLogFile@@UAEPAXI@Z    00402df0 f i LogFile.obj
 0001:00001df0       ??_ECLogFile@@UAEPAXI@Z    00402df0 f i LogFile.obj
 0001:00001e10       ??0?$basic_string@DU?$char_traits@D@std@@V?$allocator@D@2@@std@@QAE@ABV01@@Z 00402e10 f i LogFile.obj
 0001:00001e40       ??Y?$basic_string@DU?$char_traits@D@std@@V?$allocator@D@2@@std@@QAEAAV01@D@Z 00402e40 f i LogFile.obj
 0001:00001e50       ?resize@?$basic_string@DU?$char_traits@D@std@@V?$allocator@D@2@@std@@QAEXI@Z 00402e50 f i LogFile.obj
 0001:00001e80       ?append@?$basic_string@DU?$char_traits@D@std@@V?$allocator@D@2@@std@@QAEAAV12@PBD@Z 00402e80 f i LogFile.obj
 0001:00001eb0       ?assign@?$basic_string@DU?$char_traits@D@std@@V?$allocator@D@2@@std@@QAEAAV12@ABV12@@Z 00402eb0 f i LogFile.obj
 0001:00001ed0       ?Uninitialize@CLogFile@@QAEHXZ 00402ed0 f   LogFile.obj
 0001:00001f10       ??4?$basic_string@DU?$char_traits@D@std@@V?$allocator@D@2@@std@@QAEAAV01@ABV01@@Z 00402f10 f i LogFile.obj
 0001:00001f30       ??Y?$basic_string@DU?$char_traits@D@std@@V?$allocator@D@2@@std@@QAEAAV01@PBD@Z 00402f30 f i LogFile.obj
 0001:00001f60       ??$?HDU?$char_traits@D@std@@V?$allocator@D@1@@std@@YA?AV?$basic_string@DU?$char_traits@D@std@@V?$allocator@D@2@@0@ABV10@PBD@Z 00402f60 f i LogFile.obj
 0001:00002020       ?Initialize@CLogFile@@QAEHABV?$basic_string@DU?$char_traits@D@std@@V?$allocator@D@2@@std@@I@Z 00403020 f   LogFile.obj
 0001:00002140       ?OpenUniDirectory@CLogFile@@CAHABV?$basic_string@DU?$char_traits@D@std@@V?$allocator@D@2@@std@@PAV23@@Z 00403140 f   LogFile.obj
 0001:000023a0       ?CreateUniFile@CLogFile@@CAPAXABV?$basic_string@DU?$char_traits@D@std@@V?$allocator@D@2@@std@@PAV23@@Z 004033a0 f   LogFile.obj
 0001:000025d0       ?PrepareFile@CLogFile@@AAEHXZ 004035d0 f   LogFile.obj
 0001:00002850       ?BeginBatch@CLogFile@@QAEKXZ 00403850 f   LogFile.obj
 0001:00002880       ?TraceLog@CLogFile@@QAEIPBXI@Z 00403880 f   LogFile.obj
 0001:000028f0       ?ServerEventNotify@@YGXPAXABK1@Z 004038f0 f   main.obj
 0001:00002a00       ?HasWriteInfo@TwoFixBuffer@@IAEHXZ 00403a00 f i main.obj
 0001:00002a20       ?HasReadInfo@TwoFixBuffer@@IAEHXZ 00403a20 f i main.obj
 0001:00002a40       ??0TwoFixBuffer@@QAE@XZ    00403a40 f i main.obj
 0001:00002aa0       ??1TwoFixBuffer@@QAE@XZ    00403aa0 f i main.obj
 0001:00002ac0       ?WriteInfo@TwoFixBuffer@@QAEHPAEK@Z 00403ac0 f i main.obj
 0001:00002ba0       ?ReadInfo@TwoFixBuffer@@QAEPAEXZ 00403ba0 f i main.obj
 0001:00002bf0       ?SwitchReadWrite@TwoFixBuffer@@QAEXXZ 00403bf0 f i main.obj
 0001:00002ca0       ?gTrace@@YAHPBDZZ          00403ca0 f   main.obj
 0001:00002d70       ?gClearTrace@@YAXXZ        00403d70 f   main.obj
 0001:00002d90       ?gTimeStamp@@YAHPAD0@Z     00403d90 f   main.obj
 0001:00002df0       ?InitInstance@@YAHPAUHINSTANCE__@@HH@Z 00403df0 f   main.obj
 0001:00002ed0       ?About@@YGJPAUHWND__@@IIJ@Z 00403ed0 f   main.obj
 0001:00002f10       ?gTraceLogFile@@YAXPBDJ@Z  00403f10 f   main.obj
 0001:00002fa0       ?gShowTrace@@YAXXZ         00403fa0 f   main.obj
 0001:000030b0       ?WndProc@@YGJPAUHWND__@@IIJ@Z 004040b0 f   main.obj
 0001:000032f0       ?RegisterSysClass@@YAGPAUHINSTANCE__@@@Z 004042f0 f   main.obj
 0001:00003380       ?assign@?$basic_string@DU?$char_traits@D@std@@V?$allocator@D@2@@std@@QAEAAV12@PBDI@Z 00404380 f i main.obj
 0001:00003450       ?assign@?$basic_string@DU?$char_traits@D@std@@V?$allocator@D@2@@std@@QAEAAV12@PBD@Z 00404450 f i main.obj
 0001:00003480       ??0?$basic_string@DU?$char_traits@D@std@@V?$allocator@D@2@@std@@QAE@PBD@Z 00404480 f i main.obj
 0001:000034c0       _WinMain@16                004044c0 f   main.obj
 0001:00003b40       ?CheckError@_com_util@@YAXJ@Z 00404b40 f i S3P_MSSQLServer_Result.obj
 0001:00003b50       ??0_variant_t@@QAE@XZ      00404b50 f i S3P_MSSQLServer_Result.obj
 0001:00003b60       ?Clear@_variant_t@@QAEXXZ  00404b60 f i S3P_MSSQLServer_Result.obj
 0001:00003b80       ??1_variant_t@@QAE@XZ      00404b80 f i S3P_MSSQLServer_Result.obj
 0001:00003b90       ??1_com_error@@UAE@XZ      00404b90 f i S3P_MSSQLServer_Result.obj
 0001:00003bd0       ?GetCount@_Collection@@QAEJXZ 00404bd0 f i S3P_MSSQLServer_Result.obj
 0001:00003c00       ?GetRecordCount@Recordset15@@QAEJXZ 00404c00 f i S3P_MSSQLServer_Result.obj
 0001:00003c30       ?Close@Recordset15@@QAEJXZ 00404c30 f i S3P_MSSQLServer_Result.obj
 0001:00003c60       ?Move@Recordset15@@QAEJJABV_variant_t@@@Z 00404c60 f i S3P_MSSQLServer_Result.obj
 0001:00003cb0       ?MoveNext@Recordset15@@QAEJXZ 00404cb0 f i S3P_MSSQLServer_Result.obj
 0001:00003ce0       ?MovePrevious@Recordset15@@QAEJXZ 00404ce0 f i S3P_MSSQLServer_Result.obj
 0001:00003d10       ?MoveFirst@Recordset15@@QAEJXZ 00404d10 f i S3P_MSSQLServer_Result.obj
 0001:00003d40       ?MoveLast@Recordset15@@QAEJXZ 00404d40 f i S3P_MSSQLServer_Result.obj
 0001:00003d70       ?GetState@Recordset15@@QAEJXZ 00404d70 f i S3P_MSSQLServer_Result.obj
 0001:00003da0       ??C?$_com_ptr_t@V?$_com_IIID@U_Recordset@@$1?_GUID_00000556_0000_0010_8000_00aa006d2ea4@@3U__s_GUID@@B@@@@QBEPAU_Recordset@@XZ 00404da0 f i S3P_MSSQLServer_Result.obj
 0001:00003dc0       ??B?$_com_ptr_t@V?$_com_IIID@U_Recordset@@$1?_GUID_00000556_0000_0010_8000_00aa006d2ea4@@3U__s_GUID@@B@@@@QBE_NXZ 00404dc0 f i S3P_MSSQLServer_Result.obj
 0001:00003dd0       ??C?$_com_ptr_t@V?$_com_IIID@UFields@@$1?_GUID_00000564_0000_0010_8000_00aa006d2ea4@@3U__s_GUID@@B@@@@QBEPAUFields@@XZ 00404dd0 f i S3P_MSSQLServer_Result.obj
 0001:00003df0       ??C?$_com_ptr_t@V?$_com_IIID@UField@@$1?_GUID_00000569_0000_0010_8000_00aa006d2ea4@@3U__s_GUID@@B@@@@QBEPAUField@@XZ 00404df0 f i S3P_MSSQLServer_Result.obj
 0001:00003e10       ?_AddRef@?$_com_ptr_t@V?$_com_IIID@U_Recordset@@$1?_GUID_00000556_0000_0010_8000_00aa006d2ea4@@3U__s_GUID@@B@@@@AAEXXZ 00404e10 f i S3P_MSSQLServer_Result.obj
 0001:00003e20       ?_Release@?$_com_ptr_t@V?$_com_IIID@UFields@@$1?_GUID_00000564_0000_0010_8000_00aa006d2ea4@@3U__s_GUID@@B@@@@AAEXXZ 00404e20 f i S3P_MSSQLServer_Result.obj
 0001:00003e30       ?_AddRef@?$_com_ptr_t@V?$_com_IIID@UFields@@$1?_GUID_00000564_0000_0010_8000_00aa006d2ea4@@3U__s_GUID@@B@@@@AAEXXZ 00404e30 f i S3P_MSSQLServer_Result.obj
 0001:00003e40       ?_Release@?$_com_ptr_t@V?$_com_IIID@UField@@$1?_GUID_00000569_0000_0010_8000_00aa006d2ea4@@3U__s_GUID@@B@@@@AAEXXZ 00404e40 f i S3P_MSSQLServer_Result.obj
 0001:00003e50       ?_AddRef@?$_com_ptr_t@V?$_com_IIID@UField@@$1?_GUID_00000569_0000_0010_8000_00aa006d2ea4@@3U__s_GUID@@B@@@@AAEXXZ 00404e50 f i S3P_MSSQLServer_Result.obj
 0001:00003e60       ??8?$_com_ptr_t@V?$_com_IIID@U_Recordset@@$1?_GUID_00000556_0000_0010_8000_00aa006d2ea4@@3U__s_GUID@@B@@@@QAE_NH@Z 00404e60 f i S3P_MSSQLServer_Result.obj
 0001:00003e80       ??4_variant_t@@QAEAAV0@J@Z 00404e80 f i S3P_MSSQLServer_Result.obj
 0001:00003ee0       ??_E_com_error@@UAEPAXI@Z  00404ee0 f i S3P_MSSQLServer_Result.obj
 0001:00003ee0       ??_G_com_error@@UAEPAXI@Z  00404ee0 f i S3P_MSSQLServer_Result.obj
 0001:00003f30       ?num_rows@S3P_MSSQLServer_Result@@UBEHXZ 00404f30 f   S3P_MSSQLServer_Result.obj
 0001:00003fd0       ?data_seek@S3P_MSSQLServer_Result@@UBEXIH@Z 00404fd0 f   S3P_MSSQLServer_Result.obj
 0001:00004160       ??0?$_com_ptr_t@V?$_com_IIID@UFields@@$1?_GUID_00000564_0000_0010_8000_00aa006d2ea4@@3U__s_GUID@@B@@@@QAE@PAUFields@@_N@Z 00405160 f i S3P_MSSQLServer_Result.obj
 0001:00004190       ??1?$_com_ptr_t@V?$_com_IIID@UFields@@$1?_GUID_00000564_0000_0010_8000_00aa006d2ea4@@3U__s_GUID@@B@@@@QAE@XZ 00405190 f i S3P_MSSQLServer_Result.obj
 0001:000041a0       ??0?$_com_ptr_t@V?$_com_IIID@UField@@$1?_GUID_00000569_0000_0010_8000_00aa006d2ea4@@3U__s_GUID@@B@@@@QAE@PAUField@@_N@Z 004051a0 f i S3P_MSSQLServer_Result.obj
 0001:000041d0       ??1?$_com_ptr_t@V?$_com_IIID@UField@@$1?_GUID_00000569_0000_0010_8000_00aa006d2ea4@@3U__s_GUID@@B@@@@QAE@XZ 004051d0 f i S3P_MSSQLServer_Result.obj
 0001:000041e0       ??$?4U_Recordset@@@?$_com_ptr_t@V?$_com_IIID@U_Recordset@@$1?_GUID_00000556_0000_0010_8000_00aa006d2ea4@@3U__s_GUID@@B@@@@QAEAAV0@PAU_Recordset@@@Z 004051e0 f i S3P_MSSQLServer_Result.obj
 0001:00004210       ??9?$_com_ptr_t@V?$_com_IIID@U_Recordset@@$1?_GUID_00000556_0000_0010_8000_00aa006d2ea4@@3U__s_GUID@@B@@@@QAE_NH@Z 00405210 f i S3P_MSSQLServer_Result.obj
 0001:00004230       ?GetFields@Recordset15@@QAE?AV?$_com_ptr_t@V?$_com_IIID@UFields@@$1?_GUID_00000564_0000_0010_8000_00aa006d2ea4@@3U__s_GUID@@B@@@@XZ 00405230 f i S3P_MSSQLServer_Result.obj
 0001:00004280       ?GetItem@Fields15@@QAE?AV?$_com_ptr_t@V?$_com_IIID@UField@@$1?_GUID_00000569_0000_0010_8000_00aa006d2ea4@@3U__s_GUID@@B@@@@ABV_variant_t@@@Z 00405280 f i S3P_MSSQLServer_Result.obj
 0001:000042f0       ?num_fields@S3P_MSSQLServer_Result@@UBEHXZ 004052f0 f   S3P_MSSQLServer_Result.obj
 0001:000043c0       ??4?$_com_ptr_t@V?$_com_IIID@U_Recordset@@$1?_GUID_00000556_0000_0010_8000_00aa006d2ea4@@3U__s_GUID@@B@@@@QAEAAV0@H@Z 004053c0 f i S3P_MSSQLServer_Result.obj
 0001:000043f0       ??$?9V?$_com_IIID@U_Recordset@@$1?_GUID_00000556_0000_0010_8000_00aa006d2ea4@@3U__s_GUID@@B@@@@YA_NHAAV?$_com_ptr_t@V?$_com_IIID@U_Recordset@@$1?_GUID_00000556_0000_0010_8000_00aa006d2ea4@@3U__s_GUID@@B@@@@@Z 004053f0 f i S3P_MSSQLServer_Result.obj
 0001:00004410       ?get_field_data@S3P_MSSQLServer_Result@@UAE_NIPAXK@Z 00405410 f   S3P_MSSQLServer_Result.obj
 0001:00004550       ?unuse@S3P_MSSQLServer_Result@@UAEHXZ 00405550 f   S3P_MSSQLServer_Result.obj
 0001:00004640       ??0Data_t@_bstr_t@@QAE@PB_W@Z 00405640 f i S3PAccount.obj
 0001:00004680       ?GetWString@Data_t@_bstr_t@@QAEAAPA_WXZ 00405680 f i S3PAccount.obj
 0001:00004690       ?GetString@Data_t@_bstr_t@@QBEPBDXZ 00405690 f i S3PAccount.obj
 0001:000046b0       ??2Data_t@_bstr_t@@SAPAXI@Z 004056b0 f i S3PAccount.obj
 0001:000046c0       ?_Free@Data_t@_bstr_t@@AAEXXZ 004056c0 f i S3PAccount.obj
 0001:000046f0       ??0_variant_t@@QAE@JG@Z    004056f0 f i S3PAccount.obj
 0001:00004760       ?ChangeType@_variant_t@@QAEXGPBV1@@Z 00405760 f i S3PAccount.obj
 0001:000047a0       ??0S3PAccount@@QAE@XZ      004057a0 f   S3PAccount.obj
 0001:000047b0       ??1S3PAccount@@UAE@XZ      004057b0 f   S3PAccount.obj
 0001:000047c0       ?GetServerID@S3PAccount@@SAHPAVS3PDBConVBC@@PBDAAK@Z 004057c0 f   S3PAccount.obj
 0001:00004900       ?CheckAddress@S3PAccount@@SAHPAVS3PDBConVBC@@KF@Z 00405900 f   S3PAccount.obj
 0001:000049c0       ?UnlockAll@S3PAccount@@SAHPAVS3PDBConVBC@@K@Z 004059c0 f   S3PAccount.obj
 0001:00004a40       ?ElapseAll@S3PAccount@@SAHPAVS3PDBConVBC@@K@Z 00405a40 f   S3PAccount.obj
 0001:00004ac0       ?GetAccountGameID@S3PAccount@@SAHPAVS3PDBConVBC@@PBDAAK@Z 00405ac0 f   S3PAccount.obj
 0001:00004bf0       ?GetLeftSecondsOfDeposit@S3PAccount@@KAHPAVS3PDBConVBC@@PBDAAJ2@Z 00405bf0 f   S3PAccount.obj
 0001:00004db0       ?VerifyUserModifyPassword@S3PAccount@@SAHPAVS3PDBConVBC@@KPBD1@Z 00405db0 f   S3PAccount.obj
 0001:00004eb0       ??B_bstr_t@@QBEPB_WXZ      00405eb0 f i S3PAccount.obj
 0001:00004ec0       ??B_bstr_t@@QBEPBDXZ       00405ec0 f i S3PAccount.obj
 0001:00004ef0       ??1Data_t@_bstr_t@@AAE@XZ  00405ef0 f i S3PAccount.obj
 0001:00004f20       ??_GS3PAccount@@UAEPAXI@Z  00405f20 f i S3PAccount.obj
 0001:00004f20       ??_ES3PAccount@@UAEPAXI@Z  00405f20 f i S3PAccount.obj
 0001:00004f40       ?Login@S3PAccount@@SAHPAVS3PDBConVBC@@PBD1KAAGAAK@Z 00405f40 f   S3PAccount.obj
 0001:00005120       ?LoginGame@S3PAccount@@SAHPAVS3PDBConVBC@@KPBD@Z 00406120 f   S3PAccount.obj
 0001:000051f0       ?Logout@S3PAccount@@SAHPAVS3PDBConVBC@@KPBDG@Z 004061f0 f   S3PAccount.obj
 0001:00005320       ?QueryTime@S3PAccount@@SAHPAVS3PDBConVBC@@KPBDAAK@Z 00406320 f   S3PAccount.obj
 0001:000053b0       ??_GData_t@_bstr_t@@AAEPAXI@Z 004063b0 f i S3PAccount.obj
 0001:000053f0       ?ElapseTime@S3PAccount@@SAHPAVS3PDBConVBC@@KPBDK@Z 004063f0 f   S3PAccount.obj
 0001:000054b0       ?Release@Data_t@_bstr_t@@QAEKXZ 004064b0 f i S3PAccount.obj
 0001:00005500       ?_Free@_bstr_t@@AAEXXZ     00406500 f i S3PAccount.obj
 0001:00005550       ??1_bstr_t@@QAE@XZ         00406550 f i S3PAccount.obj
 0001:000055a0       ??4_bstr_t@@QAEAAV0@PB_W@Z 004065a0 f i S3PAccount.obj
 0001:00005660       ??0_bstr_t@@QAE@ABV_variant_t@@@Z 00406660 f i S3PAccount.obj
 0001:00005710       ?ServerLogin@S3PAccount@@SAHPAVS3PDBConVBC@@PBD1KFQBEAAK@Z 00406710 f   S3PAccount.obj
 0001:00005a30       __MarkAllocaS              00406a30 f i S3PDB_MSSQLServer_Connection.obj
 0001:00005a50       __freea                    00406a50 f i S3PDB_MSSQLServer_Connection.obj
 0001:00005a70       ??0Data_t@_bstr_t@@QAE@PBD@Z 00406a70 f i S3PDB_MSSQLServer_Connection.obj
 0001:00005aa0       ??0_variant_t@@QAE@PBD@Z   00406aa0 f i S3PDB_MSSQLServer_Connection.obj
 0001:00005ac0       ??0_variant_t@@QAE@PAUIDispatch@@_N@Z 00406ac0 f i S3PDB_MSSQLServer_Connection.obj
 0001:00005af0       ?HRESULTToWCode@_com_error@@SAGJ@Z 00406af0 f i S3PDB_MSSQLServer_Connection.obj
 0001:00005b10       ?PutRefActiveConnection@Command15@@QAEXPAU_Connection@@@Z 00406b10 f i S3PDB_MSSQLServer_Connection.obj
 0001:00005b40       ?Close@Connection15@@QAEJXZ 00406b40 f i S3PDB_MSSQLServer_Connection.obj
 0001:00005b70       ?PutCursorLocation@Connection15@@QAEXW4CursorLocationEnum@@@Z 00406b70 f i S3PDB_MSSQLServer_Connection.obj
 0001:00005ba0       ?Open@Recordset15@@QAEJABV_variant_t@@0W4CursorTypeEnum@@W4LockTypeEnum@@J@Z 00406ba0 f i S3PDB_MSSQLServer_Connection.obj
 0001:00005c20       ??0?$_com_ptr_t@V?$_com_IIID@U_Connection@@$1?_GUID_00000550_0000_0010_8000_00aa006d2ea4@@3U__s_GUID@@B@@@@QAE@XZ 00406c20 f i S3PDB_MSSQLServer_Connection.obj
 0001:00005c30       ??0?$_com_ptr_t@V?$_com_IIID@U_Connection@@$1?_GUID_00000550_0000_0010_8000_00aa006d2ea4@@3U__s_GUID@@B@@@@QAE@H@Z 00406c30 f i S3PDB_MSSQLServer_Connection.obj
 0001:00005c50       ??B?$_com_ptr_t@V?$_com_IIID@U_Connection@@$1?_GUID_00000550_0000_0010_8000_00aa006d2ea4@@3U__s_GUID@@B@@@@QBEPAU_Connection@@XZ 00406c50 f i S3PDB_MSSQLServer_Connection.obj
 0001:00005c60       ??C?$_com_ptr_t@V?$_com_IIID@U_Connection@@$1?_GUID_00000550_0000_0010_8000_00aa006d2ea4@@3U__s_GUID@@B@@@@QBEPAU_Connection@@XZ 00406c60 f i S3PDB_MSSQLServer_Connection.obj
 0001:00005c80       ??8?$_com_ptr_t@V?$_com_IIID@U_Connection@@$1?_GUID_00000550_0000_0010_8000_00aa006d2ea4@@3U__s_GUID@@B@@@@QAE_NH@Z 00406c80 f i S3PDB_MSSQLServer_Connection.obj
 0001:00005ca0       ??0?$_com_ptr_t@V?$_com_IIID@U_Recordset@@$1?_GUID_00000556_0000_0010_8000_00aa006d2ea4@@3U__s_GUID@@B@@@@QAE@XZ 00406ca0 f i S3PDB_MSSQLServer_Connection.obj
 0001:00005cb0       ??0?$_com_ptr_t@V?$_com_IIID@U_Command@@$1?_GUID_b08400bd_f9d1_4d02_b856_71d5dba123e9@@3U__s_GUID@@B@@@@QAE@H@Z 00406cb0 f i S3PDB_MSSQLServer_Connection.obj
 0001:00005cd0       ??C?$_com_ptr_t@V?$_com_IIID@U_Command@@$1?_GUID_b08400bd_f9d1_4d02_b856_71d5dba123e9@@3U__s_GUID@@B@@@@QBEPAU_Command@@XZ 00406cd0 f i S3PDB_MSSQLServer_Connection.obj
 0001:00005cf0       ??B?$_com_ptr_t@V?$_com_IIID@U_Command@@$1?_GUID_b08400bd_f9d1_4d02_b856_71d5dba123e9@@3U__s_GUID@@B@@@@QBE_NXZ 00406cf0 f i S3PDB_MSSQLServer_Connection.obj
 0001:00005d00       ??8?$_com_ptr_t@V?$_com_IIID@U_Command@@$1?_GUID_b08400bd_f9d1_4d02_b856_71d5dba123e9@@3U__s_GUID@@B@@@@QAE_NH@Z 00406d00 f i S3PDB_MSSQLServer_Connection.obj
 0001:00005d20       ?_Release@?$_com_ptr_t@V?$_com_IIID@U_Connection@@$1?_GUID_00000550_0000_0010_8000_00aa006d2ea4@@3U__s_GUID@@B@@@@AAEXXZ 00406d20 f i S3PDB_MSSQLServer_Connection.obj
 0001:00005d30       ?_AddRef@?$_com_ptr_t@V?$_com_IIID@U_Connection@@$1?_GUID_00000550_0000_0010_8000_00aa006d2ea4@@3U__s_GUID@@B@@@@AAEXXZ 00406d30 f i S3PDB_MSSQLServer_Connection.obj
 0001:00005d40       ?_Release@?$_com_ptr_t@V?$_com_IIID@U_Recordset@@$1?_GUID_00000556_0000_0010_8000_00aa006d2ea4@@3U__s_GUID@@B@@@@AAEXXZ 00406d40 f i S3PDB_MSSQLServer_Connection.obj
 0001:00005d50       ?_Release@?$_com_ptr_t@V?$_com_IIID@U_Command@@$1?_GUID_b08400bd_f9d1_4d02_b856_71d5dba123e9@@3U__s_GUID@@B@@@@AAEXXZ 00406d50 f i S3PDB_MSSQLServer_Connection.obj
 0001:00005d60       ?_AddRef@?$_com_ptr_t@V?$_com_IIID@U_Command@@$1?_GUID_b08400bd_f9d1_4d02_b856_71d5dba123e9@@3U__s_GUID@@B@@@@AAEXXZ 00406d60 f i S3PDB_MSSQLServer_Connection.obj
 0001:00005d70       ?GetIID@?$_com_IIID@U_Connection@@$1?_GUID_00000550_0000_0010_8000_00aa006d2ea4@@3U__s_GUID@@B@@SAABU_GUID@@XZ 00406d70 f i S3PDB_MSSQLServer_Connection.obj
 0001:00005d80       ?GetIID@?$_com_IIID@U_Recordset@@$1?_GUID_00000556_0000_0010_8000_00aa006d2ea4@@3U__s_GUID@@B@@SAABU_GUID@@XZ 00406d80 f i S3PDB_MSSQLServer_Connection.obj
 0001:00005d90       ?GetIID@?$_com_IIID@U_Command@@$1?_GUID_b08400bd_f9d1_4d02_b856_71d5dba123e9@@3U__s_GUID@@B@@SAABU_GUID@@XZ 00406d90 f i S3PDB_MSSQLServer_Connection.obj
 0001:00005da0       ??$?8V?$_com_IIID@U_Connection@@$1?_GUID_00000550_0000_0010_8000_00aa006d2ea4@@3U__s_GUID@@B@@@@YA_NHAAV?$_com_ptr_t@V?$_com_IIID@U_Connection@@$1?_GUID_00000550_0000_0010_8000_00aa006d2ea4@@3U__s_GUID@@B@@@@@Z 00406da0 f i S3PDB_MSSQLServer_Connection.obj
 0001:00005dc0       ??9?$_com_ptr_t@V?$_com_IIID@U_Connection@@$1?_GUID_00000550_0000_0010_8000_00aa006d2ea4@@3U__s_GUID@@B@@@@QAE_NH@Z 00406dc0 f i S3PDB_MSSQLServer_Connection.obj
 0001:00005de0       ??9?$_com_ptr_t@V?$_com_IIID@U_Command@@$1?_GUID_b08400bd_f9d1_4d02_b856_71d5dba123e9@@3U__s_GUID@@B@@@@QAE_NH@Z 00406de0 f i S3PDB_MSSQLServer_Connection.obj
 0001:00005e00       ??0_bstr_t@@QAE@PBD@Z      00406e00 f i S3PDB_MSSQLServer_Connection.obj
 0001:00005e90       ??B_bstr_t@@QBEPA_WXZ      00406e90 f i S3PDB_MSSQLServer_Connection.obj
 0001:00005ea0       ?WCode@_com_error@@QBEGXZ  00406ea0 f i S3PDB_MSSQLServer_Connection.obj
 0001:00005ec0       ?ErrorMessage@_com_error@@QBEPBDXZ 00406ec0 f i S3PDB_MSSQLServer_Connection.obj
 0001:00005f90       ?GetFreeResult@S3PDB_MSSQLServer_Connection@@IAE_NPAPAVS3P_MSSQLServer_Result@@@Z 00406f90 f   S3PDB_MSSQLServer_Connection.obj
 0001:00005fc0       ??1?$_com_ptr_t@V?$_com_IIID@U_Connection@@$1?_GUID_00000550_0000_0010_8000_00aa006d2ea4@@3U__s_GUID@@B@@@@QAE@XZ 00406fc0 f i S3PDB_MSSQLServer_Connection.obj
 0001:00005fd0       ??0?$_com_ptr_t@V?$_com_IIID@U_Recordset@@$1?_GUID_00000556_0000_0010_8000_00aa006d2ea4@@3U__s_GUID@@B@@@@QAE@PAU_Recordset@@_N@Z 00406fd0 f i S3PDB_MSSQLServer_Connection.obj
 0001:00006000       ??1?$_com_ptr_t@V?$_com_IIID@U_Recordset@@$1?_GUID_00000556_0000_0010_8000_00aa006d2ea4@@3U__s_GUID@@B@@@@QAE@XZ 00407000 f i S3PDB_MSSQLServer_Connection.obj
 0001:00006010       ??1?$_com_ptr_t@V?$_com_IIID@U_Command@@$1?_GUID_b08400bd_f9d1_4d02_b856_71d5dba123e9@@3U__s_GUID@@B@@@@QAE@XZ 00407010 f i S3PDB_MSSQLServer_Connection.obj
 0001:00006020       ??$?4U_Connection@@@?$_com_ptr_t@V?$_com_IIID@U_Connection@@$1?_GUID_00000550_0000_0010_8000_00aa006d2ea4@@3U__s_GUID@@B@@@@QAEAAV0@PAU_Connection@@@Z 00407020 f i S3PDB_MSSQLServer_Connection.obj
 0001:00006050       ??$?4U_Command@@@?$_com_ptr_t@V?$_com_IIID@U_Command@@$1?_GUID_b08400bd_f9d1_4d02_b856_71d5dba123e9@@3U__s_GUID@@B@@@@QAEAAV0@PAU_Command@@@Z 00407050 f i S3PDB_MSSQLServer_Connection.obj
 0001:00006080       ?GetIID@?$_com_ptr_t@V?$_com_IIID@U_Connection@@$1?_GUID_00000550_0000_0010_8000_00aa006d2ea4@@3U__s_GUID@@B@@@@SAABU_GUID@@XZ 00407080 f i S3PDB_MSSQLServer_Connection.obj
 0001:00006090       ?GetIID@?$_com_ptr_t@V?$_com_IIID@U_Recordset@@$1?_GUID_00000556_0000_0010_8000_00aa006d2ea4@@3U__s_GUID@@B@@@@SAABU_GUID@@XZ 00407090 f i S3PDB_MSSQLServer_Connection.obj
 0001:000060a0       ?GetIID@?$_com_ptr_t@V?$_com_IIID@U_Command@@$1?_GUID_b08400bd_f9d1_4d02_b856_71d5dba123e9@@3U__s_GUID@@B@@@@SAABU_GUID@@XZ 004070a0 f i S3PDB_MSSQLServer_Connection.obj
 0001:000060b0       ??$?9V?$_com_IIID@U_Connection@@$1?_GUID_00000550_0000_0010_8000_00aa006d2ea4@@3U__s_GUID@@B@@@@YA_NHAAV?$_com_ptr_t@V?$_com_IIID@U_Connection@@$1?_GUID_00000550_0000_0010_8000_00aa006d2ea4@@3U__s_GUID@@B@@@@@Z 004070b0 f i S3PDB_MSSQLServer_Connection.obj
 0001:000060d0       ??$?9V?$_com_IIID@U_Command@@$1?_GUID_b08400bd_f9d1_4d02_b856_71d5dba123e9@@3U__s_GUID@@B@@@@YA_NHAAV?$_com_ptr_t@V?$_com_IIID@U_Command@@$1?_GUID_b08400bd_f9d1_4d02_b856_71d5dba123e9@@3U__s_GUID@@B@@@@@Z 004070d0 f i S3PDB_MSSQLServer_Connection.obj
 0001:000060f0       ?Execute@Command15@@QAE?AV?$_com_ptr_t@V?$_com_IIID@U_Recordset@@$1?_GUID_00000556_0000_0010_8000_00aa006d2ea4@@3U__s_GUID@@B@@@@PAUtagVARIANT@@0J@Z 004070f0 f i S3PDB_MSSQLServer_Connection.obj
 0001:00006150       ??4?$_com_ptr_t@V?$_com_IIID@U_Connection@@$1?_GUID_00000550_0000_0010_8000_00aa006d2ea4@@3U__s_GUID@@B@@@@QAEAAV0@ABV0@@Z 00407150 f i S3PDB_MSSQLServer_Connection.obj
 0001:00006190       ??4?$_com_ptr_t@V?$_com_IIID@U_Connection@@$1?_GUID_00000550_0000_0010_8000_00aa006d2ea4@@3U__s_GUID@@B@@@@QAEAAV0@H@Z 00407190 f i S3PDB_MSSQLServer_Connection.obj
 0001:000061c0       ??4?$_com_ptr_t@V?$_com_IIID@U_Recordset@@$1?_GUID_00000556_0000_0010_8000_00aa006d2ea4@@3U__s_GUID@@B@@@@QAEAAV0@ABV0@@Z 004071c0 f i S3PDB_MSSQLServer_Connection.obj
 0001:00006200       ??4?$_com_ptr_t@V?$_com_IIID@U_Command@@$1?_GUID_b08400bd_f9d1_4d02_b856_71d5dba123e9@@3U__s_GUID@@B@@@@QAEAAV0@H@Z 00407200 f i S3PDB_MSSQLServer_Connection.obj
 0001:00006230       ?CreateInstance@?$_com_ptr_t@V?$_com_IIID@U_Connection@@$1?_GUID_00000550_0000_0010_8000_00aa006d2ea4@@3U__s_GUID@@B@@@@QAEJABU_GUID@@PAUIUnknown@@K@Z 00407230 f i S3PDB_MSSQLServer_Connection.obj
 0001:000062d0       ?CreateInstance@?$_com_ptr_t@V?$_com_IIID@U_Recordset@@$1?_GUID_00000556_0000_0010_8000_00aa006d2ea4@@3U__s_GUID@@B@@@@QAEJABU_GUID@@PAUIUnknown@@K@Z 004072d0 f i S3PDB_MSSQLServer_Connection.obj
 0001:00006370       ?CreateInstance@?$_com_ptr_t@V?$_com_IIID@U_Command@@$1?_GUID_b08400bd_f9d1_4d02_b856_71d5dba123e9@@3U__s_GUID@@B@@@@QAEJABU_GUID@@PAUIUnknown@@K@Z 00407370 f i S3PDB_MSSQLServer_Connection.obj
 0001:00006410       ??0S3P_MSSQLServer_Result@@QAE@XZ 00407410 f i S3PDB_MSSQLServer_Connection.obj
 0001:00006480       ??1S3P_MSSQLServer_Result@@UAE@XZ 00407480 f i S3PDB_MSSQLServer_Connection.obj
 0001:00006500       ?AttachResult@S3P_MSSQLServer_Result@@QAEXAAV?$_com_ptr_t@V?$_com_IIID@U_Recordset@@$1?_GUID_00000556_0000_0010_8000_00aa006d2ea4@@3U__s_GUID@@B@@@@@Z 00407500 f i S3PDB_MSSQLServer_Connection.obj
 0001:00006530       ??_ES3P_MSSQLServer_Result@@UAEPAXI@Z 00407530 f i S3PDB_MSSQLServer_Connection.obj
 0001:00006530       ??_GS3P_MSSQLServer_Result@@UAEPAXI@Z 00407530 f i S3PDB_MSSQLServer_Connection.obj
 0001:00006550       ??0S3PDB_MSSQLServer_Connection@@QAE@XZ 00407550 f   S3PDB_MSSQLServer_Connection.obj
 0001:000065e0       ??1S3PDB_MSSQLServer_Connection@@UAE@XZ 004075e0 f   S3PDB_MSSQLServer_Connection.obj
 0001:00006690       ?CloseConnect@S3PDB_MSSQLServer_Connection@@UAEXXZ 00407690 f   S3PDB_MSSQLServer_Connection.obj
 0001:00006700       ?CreateInstance@?$_com_ptr_t@V?$_com_IIID@U_Connection@@$1?_GUID_00000550_0000_0010_8000_00aa006d2ea4@@3U__s_GUID@@B@@@@QAEJPB_WPAUIUnknown@@K@Z 00407700 f i S3PDB_MSSQLServer_Connection.obj
 0001:00006780       ?CreateInstance@?$_com_ptr_t@V?$_com_IIID@U_Recordset@@$1?_GUID_00000556_0000_0010_8000_00aa006d2ea4@@3U__s_GUID@@B@@@@QAEJPB_WPAUIUnknown@@K@Z 00407780 f i S3PDB_MSSQLServer_Connection.obj
 0001:00006800       ?CreateInstance@?$_com_ptr_t@V?$_com_IIID@U_Command@@$1?_GUID_b08400bd_f9d1_4d02_b856_71d5dba123e9@@3U__s_GUID@@B@@@@QAEJPB_WPAUIUnknown@@K@Z 00407800 f i S3PDB_MSSQLServer_Connection.obj
 0001:00006880       ??_ES3PDB_MSSQLServer_Connection@@UAEPAXI@Z 00407880 f i S3PDB_MSSQLServer_Connection.obj
 0001:00006880       ??_GS3PDB_MSSQLServer_Connection@@UAEPAXI@Z 00407880 f i S3PDB_MSSQLServer_Connection.obj
 0001:000068a0       ?CreateInstance@?$_com_ptr_t@V?$_com_IIID@U_Connection@@$1?_GUID_00000550_0000_0010_8000_00aa006d2ea4@@3U__s_GUID@@B@@@@QAEJPBDPAUIUnknown@@K@Z 004078a0 f i S3PDB_MSSQLServer_Connection.obj
 0001:000069b0       ?CreateInstance@?$_com_ptr_t@V?$_com_IIID@U_Recordset@@$1?_GUID_00000556_0000_0010_8000_00aa006d2ea4@@3U__s_GUID@@B@@@@QAEJPBDPAUIUnknown@@K@Z 004079b0 f i S3PDB_MSSQLServer_Connection.obj
 0001:00006ac0       ?CreateInstance@?$_com_ptr_t@V?$_com_IIID@U_Command@@$1?_GUID_b08400bd_f9d1_4d02_b856_71d5dba123e9@@3U__s_GUID@@B@@@@QAEJPBDPAUIUnknown@@K@Z 00407ac0 f i S3PDB_MSSQLServer_Connection.obj
 0001:00006bd0       ?PutCommandText@Command15@@QAEXV_bstr_t@@@Z 00407bd0 f i S3PDB_MSSQLServer_Connection.obj
 0001:00006c70       ?Open@Connection15@@QAEJV_bstr_t@@00J@Z 00407c70 f i S3PDB_MSSQLServer_Connection.obj
 0001:00006db0       ?DoCmd@S3PDB_MSSQLServer_Connection@@IAE_NPBD@Z 00407db0 f   S3PDB_MSSQLServer_Connection.obj
 0001:00006ec0       ?DoResult@S3PDB_MSSQLServer_Connection@@IAE_NPBD@Z 00407ec0 f   S3PDB_MSSQLServer_Connection.obj
 0001:00007010       ?QueryResult@S3PDB_MSSQLServer_Connection@@IAE_NPBDPAVS3P_MSSQLServer_Result@@@Z 00408010 f   S3PDB_MSSQLServer_Connection.obj
 0001:00007160       ?QueryCmd@S3PDB_MSSQLServer_Connection@@IAE_NPBDPAVS3P_MSSQLServer_Result@@@Z 00408160 f   S3PDB_MSSQLServer_Connection.obj
 0001:00007290       ?append@?$basic_string@DU?$char_traits@D@std@@V?$allocator@D@2@@std@@QAEAAV12@ABV12@@Z 00408290 f i S3PDB_MSSQLServer_Connection.obj
 0001:000072b0       ?Do@S3PDB_MSSQLServer_Connection@@UAE_NPBD@Z 004082b0 f   S3PDB_MSSQLServer_Connection.obj
 0001:000072c0       ?QuerySql@S3PDB_MSSQLServer_Connection@@UAE_NPBDPAPAVS3PResultVBC@@@Z 004082c0 f   S3PDB_MSSQLServer_Connection.obj
 0001:00007330       ??4?$basic_string@DU?$char_traits@D@std@@V?$allocator@D@2@@std@@QAEAAV01@PBD@Z 00408330 f i S3PDB_MSSQLServer_Connection.obj
 0001:00007360       ??Y?$basic_string@DU?$char_traits@D@std@@V?$allocator@D@2@@std@@QAEAAV01@ABV01@@Z 00408360 f i S3PDB_MSSQLServer_Connection.obj
 0001:00007380       ?OpenConnect@S3PDB_MSSQLServer_Connection@@UAE_NPAUtag_DATABASEINFO@@@Z 00408380 f   S3PDB_MSSQLServer_Connection.obj
 0001:00007620       ?IsLocked@K_CS@@QAEHXZ     00408620 f i S3PDBConnectionPool.obj
 0001:00007630       ?GetGMID@@YAKXZ            00408630 f   S3PDBConnectionPool.obj
 0001:00007640       ?ReleaseInstance@S3PDBConnectionPool@@SAXXZ 00408640 f   S3PDBConnectionPool.obj
 0001:00007660       ?CreateConnection@S3PDBConnectionPool@@IAEHPAUtag_DATABASEINFO@@PAPAVS3PDBConVBC@@@Z 00408660 f   S3PDBConnectionPool.obj
 0001:00007700       ?size@?$vector@PAVS3PDBConVBC@@V?$allocator@PAVS3PDBConVBC@@@std@@@std@@QBEIXZ 00408700 f i S3PDBConnectionPool.obj
 0001:00007720       ??A?$vector@PAVS3PDBConVBC@@V?$allocator@PAVS3PDBConVBC@@@std@@@std@@QAEAAPAVS3PDBConVBC@@I@Z 00408720 f i S3PDBConnectionPool.obj
 0001:00007750       ?capacity@?$vector@PAVS3PDBConVBC@@V?$allocator@PAVS3PDBConVBC@@@std@@@std@@QBEIXZ 00408750 f i S3PDBConnectionPool.obj
 0001:00007770       ??0?$allocator@PAVS3PDBConVBC@@@std@@QAE@XZ 00408770 f i S3PDBConnectionPool.obj
 0001:00007780       ??0?$allocator@PAVS3PDBConVBC@@@std@@QAE@ABV01@@Z 00408780 f i S3PDBConnectionPool.obj
 0001:00007790       ?deallocate@?$allocator@PAVS3PDBConVBC@@@std@@QAEXPAPAVS3PDBConVBC@@I@Z 00408790 f i S3PDBConnectionPool.obj
 0001:000077a0       ?max_size@?$allocator@PAVS3PDBConVBC@@@std@@QBEIXZ 004087a0 f i S3PDBConnectionPool.obj
 0001:000077b0       ??G?$_Vector_const_iterator@PAVS3PDBConVBC@@V?$allocator@PAVS3PDBConVBC@@@std@@@std@@QBEHABV01@@Z 004087b0 f i S3PDBConnectionPool.obj
 0001:000077e0       ??0?$_Ranit@PAVS3PDBConVBC@@HPBQAV1@ABQAV1@@std@@QAE@XZ 004087e0 f i S3PDBConnectionPool.obj
 0001:000077f0       ??Y?$_Vector_const_iterator@PAVS3PDBConVBC@@V?$allocator@PAVS3PDBConVBC@@@std@@@std@@QAEAAV01@H@Z 004087f0 f i S3PDBConnectionPool.obj
 0001:00007830       ??$_Allocate@PAVS3PDBConVBC@@@std@@YAPAPAVS3PDBConVBC@@IPAPAV1@@Z 00408830 f i S3PDBConnectionPool.obj
 0001:00007890       ??$_Ptr_cat@PAPAVS3PDBConVBC@@PAPAV1@@std@@YA?AU_Scalar_ptr_iterator_tag@0@AAPAPAVS3PDBConVBC@@0@Z 00408890 f i S3PDBConnectionPool.obj
 0001:000078a0       ??$_Destroy_range@PAVS3PDBConVBC@@V?$allocator@PAVS3PDBConVBC@@@std@@@std@@YAXPAPAVS3PDBConVBC@@0AAV?$allocator@PAVS3PDBConVBC@@@0@U_Scalar_ptr_iterator_tag@0@@Z 004088a0 f i S3PDBConnectionPool.obj
 0001:000078b0       ??$_Fill@PAPAVS3PDBConVBC@@PAV1@@std@@YAXPAPAVS3PDBConVBC@@0ABQAV1@@Z 004088b0 f i S3PDBConnectionPool.obj
 0001:000078d0       ??$_Iter_random@PAPAVS3PDBConVBC@@PAPAV1@@std@@YA?AUrandom_access_iterator_tag@0@ABQAPAVS3PDBConVBC@@0@Z 004088d0 f i S3PDBConnectionPool.obj
 0001:000078e0       ??$_Move_cat@PAPAVS3PDBConVBC@@@std@@YA?AU_Undefined_move_tag@0@ABQAPAVS3PDBConVBC@@@Z 004088e0 f i S3PDBConnectionPool.obj
 0001:000078f0       ??$_Checked_base@PAPAVS3PDBConVBC@@@std@@YAPAPAVS3PDBConVBC@@AAPAPAV1@U_Unchanged_checked_iterator_base_type_tag@0@@Z 004088f0 f i S3PDBConnectionPool.obj
 0001:00007900       ??$_Copy_backward_opt@PAPAVS3PDBConVBC@@PAPAV1@Urandom_access_iterator_tag@std@@@std@@YAPAPAVS3PDBConVBC@@PAPAV1@00Urandom_access_iterator_tag@0@U_Scalar_ptr_iterator_tag@0@U_Range_checked_iterator_tag@0@@Z 00408900 f i S3PDBConnectionPool.obj
 0001:00007930       ??$_Iter_cat@PAPAVS3PDBConVBC@@@std@@YA?AUrandom_access_iterator_tag@0@ABQAPAVS3PDBConVBC@@@Z 00408930 f i S3PDBConnectionPool.obj
 0001:00007940       ??$_Fill_n@PAPAVS3PDBConVBC@@IPAV1@@std@@YAXPAPAVS3PDBConVBC@@IABQAV1@U_Range_checked_iterator_tag@0@@Z 00408940 f i S3PDBConnectionPool.obj
 0001:00007970       ??$_Uninit_copy@PAPAVS3PDBConVBC@@PAPAV1@V?$allocator@PAVS3PDBConVBC@@@std@@@std@@YAPAPAVS3PDBConVBC@@PAPAV1@00AAV?$allocator@PAVS3PDBConVBC@@@0@U_Scalar_ptr_iterator_tag@0@U_Range_checked_iterator_tag@0@@Z 00408970 f i S3PDBConnectionPool.obj
 0001:000079a0       ?RemoveDBCon@S3PDBConnectionPool@@QAEHPAPAVS3PDBConVBC@@@Z 004089a0 f   S3PDBConnectionPool.obj
 0001:00007aa0       ?ReturnDBCon@S3PDBConnectionPool@@QAEHPAVS3PDBConVBC@@@Z 00408aa0 f   S3PDBConnectionPool.obj
 0001:00007b70       ??0?$_Vector_val@PAVS3PDBConVBC@@V?$allocator@PAVS3PDBConVBC@@@std@@@std@@IAE@V?$allocator@PAVS3PDBConVBC@@@1@@Z 00408b70 f i S3PDBConnectionPool.obj
 0001:00007b80       ?max_size@?$vector@PAVS3PDBConVBC@@V?$allocator@PAVS3PDBConVBC@@@std@@@std@@QBEIXZ 00408b80 f i S3PDBConnectionPool.obj
 0001:00007b90       ?allocate@?$allocator@PAVS3PDBConVBC@@@std@@QAEPAPAVS3PDBConVBC@@I@Z 00408b90 f i S3PDBConnectionPool.obj
 0001:00007bb0       ??G?$_Vector_iterator@PAVS3PDBConVBC@@V?$allocator@PAVS3PDBConVBC@@@std@@@std@@QBEHABV?$_Vector_const_iterator@PAVS3PDBConVBC@@V?$allocator@PAVS3PDBConVBC@@@std@@@1@@Z 00408bb0 f i S3PDBConnectionPool.obj
 0001:00007be0       ??Y?$_Vector_iterator@PAVS3PDBConVBC@@V?$allocator@PAVS3PDBConVBC@@@std@@@std@@QAEAAV01@H@Z 00408be0 f i S3PDBConnectionPool.obj
 0001:00007c20       ??0?$_Vector_const_iterator@PAVS3PDBConVBC@@V?$allocator@PAVS3PDBConVBC@@@std@@@std@@QAE@PAPAVS3PDBConVBC@@PBU_Container_base@1@@Z 00408c20 f i S3PDBConnectionPool.obj
 0001:00007c60       ??$_Destroy_range@PAVS3PDBConVBC@@V?$allocator@PAVS3PDBConVBC@@@std@@@std@@YAXPAPAVS3PDBConVBC@@0AAV?$allocator@PAVS3PDBConVBC@@@0@@Z 00408c60 f i S3PDBConnectionPool.obj
 0001:00007c70       ??$_Checked_base@PAPAVS3PDBConVBC@@@std@@YAPAPAVS3PDBConVBC@@AAPAPAV1@@Z 00408c70 f i S3PDBConnectionPool.obj
 0001:00007c80       ??$_Move_backward_opt@PAPAVS3PDBConVBC@@PAPAV1@Urandom_access_iterator_tag@std@@U_Undefined_move_tag@3@@std@@YAPAPAVS3PDBConVBC@@PAPAV1@00Urandom_access_iterator_tag@0@U_Undefined_move_tag@0@U_Range_checked_iterator_tag@0@@Z 00408c80 f i S3PDBConnectionPool.obj
 0001:00007cb0       ??$_Fill_n@PAPAVS3PDBConVBC@@IPAV1@@std@@YAXPAPAVS3PDBConVBC@@IABQAV1@Urandom_access_iterator_tag@0@U_Range_checked_iterator_tag@0@@Z 00408cb0 f i S3PDBConnectionPool.obj
 0001:00007ce0       ??$unchecked_uninitialized_copy@PAPAVS3PDBConVBC@@PAPAV1@V?$allocator@PAVS3PDBConVBC@@@std@@@stdext@@YAPAPAVS3PDBConVBC@@PAPAV1@00AAV?$allocator@PAVS3PDBConVBC@@@std@@@Z 00408ce0 f i S3PDBConnectionPool.obj
 0001:00007d10       ?_Destroy@?$vector@PAVS3PDBConVBC@@V?$allocator@PAVS3PDBConVBC@@@std@@@std@@IAEXPAPAVS3PDBConVBC@@0@Z 00408d10 f i S3PDBConnectionPool.obj
 0001:00007d20       ??0?$_Vector_iterator@PAVS3PDBConVBC@@V?$allocator@PAVS3PDBConVBC@@@std@@@std@@QAE@PAPAVS3PDBConVBC@@PBU_Container_base@1@@Z 00408d20 f i S3PDBConnectionPool.obj
 0001:00007d60       ??H?$_Vector_iterator@PAVS3PDBConVBC@@V?$allocator@PAVS3PDBConVBC@@@std@@@std@@QBE?AV01@H@Z 00408d60 f i S3PDBConnectionPool.obj
 0001:00007da0       ??$fill@PAPAVS3PDBConVBC@@PAV1@@std@@YAXPAPAVS3PDBConVBC@@0ABQAV1@@Z 00408da0 f i S3PDBConnectionPool.obj
 0001:00007dc0       ??$_Unchecked_move_backward@PAPAVS3PDBConVBC@@PAPAV1@@stdext@@YAPAPAVS3PDBConVBC@@PAPAV1@00@Z 00408dc0 f i S3PDBConnectionPool.obj
 0001:00007df0       ??$unchecked_fill_n@PAPAVS3PDBConVBC@@IPAV1@@stdext@@YAXPAPAVS3PDBConVBC@@IABQAV1@@Z 00408df0 f i S3PDBConnectionPool.obj
 0001:00007e20       ??$_Uninit_move@PAPAVS3PDBConVBC@@PAPAV1@V?$allocator@PAVS3PDBConVBC@@@std@@U_Undefined_move_tag@3@@std@@YAPAPAVS3PDBConVBC@@PAPAV1@00AAV?$allocator@PAVS3PDBConVBC@@@0@U_Undefined_move_tag@0@U_Range_checked_iterator_tag@0@@Z 00408e20 f i S3PDBConnectionPool.obj
 0001:00007e50       ?end@?$vector@PAVS3PDBConVBC@@V?$allocator@PAVS3PDBConVBC@@@std@@@std@@QAE?AV?$_Vector_iterator@PAVS3PDBConVBC@@V?$allocator@PAVS3PDBConVBC@@@std@@@2@XZ 00408e50 f i S3PDBConnectionPool.obj
 0001:00007e80       ?_Tidy@?$vector@PAVS3PDBConVBC@@V?$allocator@PAVS3PDBConVBC@@@std@@@std@@IAEXXZ 00408e80 f i S3PDBConnectionPool.obj
 0001:00007eb0       ?begin@?$vector@PAVS3PDBConVBC@@V?$allocator@PAVS3PDBConVBC@@@std@@@std@@QAE?AV?$_Vector_iterator@PAVS3PDBConVBC@@V?$allocator@PAVS3PDBConVBC@@@std@@@2@XZ 00408eb0 f i S3PDBConnectionPool.obj
 0001:00007ee0       ??$_Uninit_fill_n@PAPAVS3PDBConVBC@@IPAV1@V?$allocator@PAVS3PDBConVBC@@@std@@@std@@YAXPAPAVS3PDBConVBC@@IABQAV1@AAV?$allocator@PAVS3PDBConVBC@@@0@U_Scalar_ptr_iterator_tag@0@U_Range_checked_iterator_tag@0@@Z 00408ee0 f i S3PDBConnectionPool.obj
 0001:00007f10       ??$_Unchecked_uninitialized_move@PAPAVS3PDBConVBC@@PAPAV1@V?$allocator@PAVS3PDBConVBC@@@std@@@stdext@@YAPAPAVS3PDBConVBC@@PAPAV1@00AAV?$allocator@PAVS3PDBConVBC@@@std@@@Z 00408f10 f i S3PDBConnectionPool.obj
 0001:00007f40       ??1logic_error@std@@UAE@XZ 00408f40 f i S3PDBConnectionPool.obj
 0001:00007f80       ?what@logic_error@std@@UBEPBDXZ 00408f80 f i S3PDBConnectionPool.obj
 0001:00007f90       ??_Elogic_error@std@@UAEPAXI@Z 00408f90 f i S3PDBConnectionPool.obj
 0001:00007f90       ??_Glogic_error@std@@UAEPAXI@Z 00408f90 f i S3PDBConnectionPool.obj
 0001:00007fe0       ??0tag_DATABASEINFO@@QAE@XZ 00408fe0 f i S3PDBConnectionPool.obj
 0001:00008010       ??1tag_DATABASEINFO@@QAE@XZ 00409010 f i S3PDBConnectionPool.obj
 0001:00008090       ??1?$vector@PAVS3PDBConVBC@@V?$allocator@PAVS3PDBConVBC@@@std@@@std@@QAE@XZ 00409090 f i S3PDBConnectionPool.obj
 0001:000080c0       ??$unchecked_uninitialized_fill_n@PAPAVS3PDBConVBC@@IPAV1@V?$allocator@PAVS3PDBConVBC@@@std@@@stdext@@YAXPAPAVS3PDBConVBC@@IABQAV1@AAV?$allocator@PAVS3PDBConVBC@@@std@@@Z 004090c0 f i S3PDBConnectionPool.obj
 0001:000080f0       ??$_Umove@PAPAVS3PDBConVBC@@@?$vector@PAVS3PDBConVBC@@V?$allocator@PAVS3PDBConVBC@@@std@@@std@@IAEPAPAVS3PDBConVBC@@PAPAV2@00@Z 004090f0 f i S3PDBConnectionPool.obj
 0001:00008120       ??1S3PDBConnectionPool@@MAE@XZ 00409120 f   S3PDBConnectionPool.obj
 0001:00008230       ?_Ufill@?$vector@PAVS3PDBConVBC@@V?$allocator@PAVS3PDBConVBC@@@std@@@std@@IAEPAPAVS3PDBConVBC@@PAPAV3@IABQAV3@@Z 00409230 f i S3PDBConnectionPool.obj
 0001:00008260       ??0logic_error@std@@QAE@ABV?$basic_string@DU?$char_traits@D@std@@V?$allocator@D@2@@1@@Z 00409260 f i S3PDBConnectionPool.obj
 0001:000082d0       ??0length_error@std@@QAE@ABV?$basic_string@DU?$char_traits@D@std@@V?$allocator@D@2@@1@@Z 004092d0 f i S3PDBConnectionPool.obj
 0001:000082f0       ??1length_error@std@@UAE@XZ 004092f0 f i S3PDBConnectionPool.obj
 0001:00008330       ??_Glength_error@std@@UAEPAXI@Z 00409330 f i S3PDBConnectionPool.obj
 0001:00008330       ??_Elength_error@std@@UAEPAXI@Z 00409330 f i S3PDBConnectionPool.obj
 0001:00008380       ??_ES3PDBConnectionPool@@MAEPAXI@Z 00409380 f i S3PDBConnectionPool.obj
 0001:00008380       ??_GS3PDBConnectionPool@@MAEPAXI@Z 00409380 f i S3PDBConnectionPool.obj
 0001:000083a0       ?_Xlen@?$vector@PAVS3PDBConVBC@@V?$allocator@PAVS3PDBConVBC@@@std@@@std@@KAXXZ 004093a0 f i S3PDBConnectionPool.obj
 0001:00008420       ??0logic_error@std@@QAE@ABV01@@Z 00409420 f i S3PDBConnectionPool.obj
 0001:000084a0       ??0length_error@std@@QAE@ABV01@@Z 004094a0 f i S3PDBConnectionPool.obj
 0001:000084c0       ?_Buy@?$vector@PAVS3PDBConVBC@@V?$allocator@PAVS3PDBConVBC@@@std@@@std@@IAE_NI@Z 004094c0 f i S3PDBConnectionPool.obj
 0001:00008510       ?_Insert_n@?$vector@PAVS3PDBConVBC@@V?$allocator@PAVS3PDBConVBC@@@std@@@std@@IAEXV?$_Vector_iterator@PAVS3PDBConVBC@@V?$allocator@PAVS3PDBConVBC@@@std@@@2@IABQAVS3PDBConVBC@@@Z 00409510 f i S3PDBConnectionPool.obj
 0001:000086d0       ??0?$vector@PAVS3PDBConVBC@@V?$allocator@PAVS3PDBConVBC@@@std@@@std@@QAE@XZ 004096d0 f i S3PDBConnectionPool.obj
 0001:000086e0       ?insert@?$vector@PAVS3PDBConVBC@@V?$allocator@PAVS3PDBConVBC@@@std@@@std@@QAE?AV?$_Vector_iterator@PAVS3PDBConVBC@@V?$allocator@PAVS3PDBConVBC@@@std@@@2@V32@ABQAVS3PDBConVBC@@@Z 004096e0 f i S3PDBConnectionPool.obj
 0001:00008770       ??0S3PDBConnectionPool@@IAE@XZ 00409770 f   S3PDBConnectionPool.obj
 0001:000087c0       ?Instance@S3PDBConnectionPool@@SAPAV1@XZ 004097c0 f   S3PDBConnectionPool.obj
 0001:00008840       ?push_back@?$vector@PAVS3PDBConVBC@@V?$allocator@PAVS3PDBConVBC@@@std@@@std@@QAEXABQAVS3PDBConVBC@@@Z 00409840 f i S3PDBConnectionPool.obj
 0001:000088b0       ?Init@S3PDBConnectionPool@@QAEHABV?$basic_string@DU?$char_traits@D@std@@V?$allocator@D@2@@std@@0K@Z 004098b0 f   S3PDBConnectionPool.obj
 0001:00008bf0       ??0S3PDBConVBC@@IAE@XZ     00409bf0 f   S3PDBConVBC.obj
 0001:00008c10       ??1S3PDBConVBC@@UAE@XZ     00409c10 f   S3PDBConVBC.obj
 0001:00008c20       ??_ES3PDBConVBC@@UAEPAXI@Z 00409c20 f i S3PDBConVBC.obj
 0001:00008c20       ??_GS3PDBConVBC@@UAEPAXI@Z 00409c20 f i S3PDBConVBC.obj
 0001:00008c40       ??0KThread_CS@@QAE@XZ      00409c40 f i S3PDBSocketPool.obj
 0001:00008ca0       ??1KThread_CS@@UAE@XZ      00409ca0 f i S3PDBSocketPool.obj
 0001:00008d10       ??_GKThread_CS@@UAEPAXI@Z  00409d10 f i S3PDBSocketPool.obj
 0001:00008d10       ??_EKThread_CS@@UAEPAXI@Z  00409d10 f i S3PDBSocketPool.obj
 0001:00008d30       ??2@YAPAXIPAX@Z            00409d30 f i S3PDBSocketPool.obj
 0001:00008d40       ??3@YAXPAX0@Z              00409d40 f i S3PDBSocketPool.obj
 0001:00008d50       ??RUserNameCmp@@QBE_NABUUserName@@0@Z 00409d50 f i S3PDBSocketPool.obj
 0001:00008d70       ?ReleaseInstance@S3PDBSocketPool@@SAXXZ 00409d70 f   S3PDBSocketPool.obj
 0001:00008d90       ?SendData@S3PDBSocketPool@@QAEHKQBXABI@Z 00409d90 f   S3PDBSocketPool.obj
 0001:00008e50       ?CustomSend@S3PDBSocketPool@@QAEHKDPAUKAccountHead@@@Z 00409e50 f   S3PDBSocketPool.obj
 0001:00008f30       ?ProUndefine@KGatewayDataProcess@@IAEHPBDK@Z 00409f30 f   S3PDBSocketPool.obj
 0001:00008f40       ?GetDB@KGatewayDataProcess@@IAEPAVS3PDBConVBC@@K@Z 00409f40 f   S3PDBSocketPool.obj
 0001:00008f90       ?Start@KGatewayDataProcess@@UAEPAXPAUIServer@@K@Z 00409f90 f   S3PDBSocketPool.obj
 0001:00008fd0       ?Stop@KGatewayDataProcess@@UAEHXZ 00409fd0 f   S3PDBSocketPool.obj
 0001:00009000       ?ConnectErrorWork@KGatewayDataProcess@@QAEHKKF@Z 0040a000 f   S3PDBSocketPool.obj
 0001:00009050       ?ConnectFreeForErrorWork@KGatewayDataProcess@@QAEHKKF@Z 0040a050 f   S3PDBSocketPool.obj
 0001:000090a0       ?OutofWork@KGatewayDataProcess@@QAEHK@Z 0040a0a0 f   S3PDBSocketPool.obj
 0001:00009160       ?IsWork@KGatewayDataProcess@@QAEHXZ 0040a160 f   S3PDBSocketPool.obj
 0001:00009190       ?IsWorkAgain@KGatewayDataProcess@@QAEHXZ 0040a190 f   S3PDBSocketPool.obj
 0001:000091c0       ?IsWantData@KGatewayDataProcess@@QAEHXZ 0040a1c0 f   S3PDBSocketPool.obj
 0001:00009200       ?IsError@KGatewayDataProcess@@QAEHXZ 0040a200 f   S3PDBSocketPool.obj
 0001:00009230       ?GetStatus@KGatewayDataProcess@@QAEHXZ 0040a230 f   S3PDBSocketPool.obj
 0001:00009250       ?SetStatus@KGatewayDataProcess@@IAE_NH@Z 0040a250 f   S3PDBSocketPool.obj
 0001:00009300       ?IsVerifyTimeout@KGatewayDataProcess@@IAE_NXZ 0040a300 f   S3PDBSocketPool.obj
 0001:00009340       ??8const_iterator@?$_Tree@V?$_Tmap_traits@UUserName@@KUUserNameCmp@@V?$allocator@U?$pair@$$CBUUserName@@K@std@@@std@@$0A@@std@@@std@@QBE_NABV012@@Z 0040a340 f i S3PDBSocketPool.obj
 0001:00009370       ??9const_iterator@?$_Tree@V?$_Tmap_traits@UUserName@@KUUserNameCmp@@V?$allocator@U?$pair@$$CBUUserName@@K@std@@@std@@$0A@@std@@@std@@QBE_NABV012@@Z 0040a370 f i S3PDBSocketPool.obj
 0001:000093a0       ?_Color@?$_Tree@V?$_Tmap_traits@UUserName@@KUUserNameCmp@@V?$allocator@U?$pair@$$CBUUserName@@K@std@@@std@@$0A@@std@@@std@@KAAADPAU_Node@?$_Tree_nod@V?$_Tmap_traits@UUserName@@KUUserNameCmp@@V?$allocator@U?$pair@$$CBUUserName@@K@std@@@std@@$0A@@std@@@2@@Z 0040a3a0 f i S3PDBSocketPool.obj
 0001:000093b0       ?_Isnil@?$_Tree@V?$_Tmap_traits@UUserName@@KUUserNameCmp@@V?$allocator@U?$pair@$$CBUUserName@@K@std@@@std@@$0A@@std@@@std@@KAAADPAU_Node@?$_Tree_nod@V?$_Tmap_traits@UUserName@@KUUserNameCmp@@V?$allocator@U?$pair@$$CBUUserName@@K@std@@@std@@$0A@@std@@@2@@Z 0040a3b0 f i S3PDBSocketPool.obj
 0001:000093c0       ?_Left@?$_Tree@V?$_Tmap_traits@UUserName@@KUUserNameCmp@@V?$allocator@U?$pair@$$CBUUserName@@K@std@@@std@@$0A@@std@@@std@@KAAAPAU_Node@?$_Tree_nod@V?$_Tmap_traits@UUserName@@KUUserNameCmp@@V?$allocator@U?$pair@$$CBUUserName@@K@std@@@std@@$0A@@std@@@2@PAU342@@Z 0040a3c0 f i S3PDBSocketPool.obj
 0001:000093d0       ?_Parent@?$_Tree@V?$_Tmap_traits@UUserName@@KUUserNameCmp@@V?$allocator@U?$pair@$$CBUUserName@@K@std@@@std@@$0A@@std@@@std@@KAAAPAU_Node@?$_Tree_nod@V?$_Tmap_traits@UUserName@@KUUserNameCmp@@V?$allocator@U?$pair@$$CBUUserName@@K@std@@@std@@$0A@@std@@@2@PAU342@@Z 0040a3d0 f i S3PDBSocketPool.obj
 0001:000093e0       ?_Right@?$_Tree@V?$_Tmap_traits@UUserName@@KUUserNameCmp@@V?$allocator@U?$pair@$$CBUUserName@@K@std@@@std@@$0A@@std@@@std@@KAAAPAU_Node@?$_Tree_nod@V?$_Tmap_traits@UUserName@@KUUserNameCmp@@V?$allocator@U?$pair@$$CBUUserName@@K@std@@@std@@$0A@@std@@@2@PAU342@@Z 0040a3e0 f i S3PDBSocketPool.obj
 0001:000093f0       ?_Lmost@?$_Tree@V?$_Tmap_traits@UUserName@@KUUserNameCmp@@V?$allocator@U?$pair@$$CBUUserName@@K@std@@@std@@$0A@@std@@@std@@IBEAAPAU_Node@?$_Tree_nod@V?$_Tmap_traits@UUserName@@KUUserNameCmp@@V?$allocator@U?$pair@$$CBUUserName@@K@std@@@std@@$0A@@std@@@2@XZ 0040a3f0 f i S3PDBSocketPool.obj
 0001:00009400       ?_Max@?$_Tree@V?$_Tmap_traits@UUserName@@KUUserNameCmp@@V?$allocator@U?$pair@$$CBUUserName@@K@std@@@std@@$0A@@std@@@std@@KAPAU_Node@?$_Tree_nod@V?$_Tmap_traits@UUserName@@KUUserNameCmp@@V?$allocator@U?$pair@$$CBUUserName@@K@std@@@std@@$0A@@std@@@2@PAU342@@Z 0040a400 f i S3PDBSocketPool.obj
 0001:00009420       ?_Min@?$_Tree@V?$_Tmap_traits@UUserName@@KUUserNameCmp@@V?$allocator@U?$pair@$$CBUUserName@@K@std@@@std@@$0A@@std@@@std@@KAPAU_Node@?$_Tree_nod@V?$_Tmap_traits@UUserName@@KUUserNameCmp@@V?$allocator@U?$pair@$$CBUUserName@@K@std@@@std@@$0A@@std@@@2@PAU342@@Z 0040a420 f i S3PDBSocketPool.obj
 0001:00009440       ?_Rmost@?$_Tree@V?$_Tmap_traits@UUserName@@KUUserNameCmp@@V?$allocator@U?$pair@$$CBUUserName@@K@std@@@std@@$0A@@std@@@std@@IBEAAPAU_Node@?$_Tree_nod@V?$_Tmap_traits@UUserName@@KUUserNameCmp@@V?$allocator@U?$pair@$$CBUUserName@@K@std@@@std@@$0A@@std@@@2@XZ 0040a440 f i S3PDBSocketPool.obj
 0001:00009450       ?_Root@?$_Tree@V?$_Tmap_traits@UUserName@@KUUserNameCmp@@V?$allocator@U?$pair@$$CBUUserName@@K@std@@@std@@$0A@@std@@@std@@IBEAAPAU_Node@?$_Tree_nod@V?$_Tmap_traits@UUserName@@KUUserNameCmp@@V?$allocator@U?$pair@$$CBUUserName@@K@std@@@std@@$0A@@std@@@2@XZ 0040a450 f i S3PDBSocketPool.obj
 0001:00009460       ?_Rrotate@?$_Tree@V?$_Tmap_traits@UUserName@@KUUserNameCmp@@V?$allocator@U?$pair@$$CBUUserName@@K@std@@@std@@$0A@@std@@@std@@IAEXPAU_Node@?$_Tree_nod@V?$_Tmap_traits@UUserName@@KUUserNameCmp@@V?$allocator@U?$pair@$$CBUUserName@@K@std@@@std@@$0A@@std@@@2@@Z 0040a460 f i S3PDBSocketPool.obj
 0001:000094c0       ??0?$allocator@U?$pair@$$CBUUserName@@K@std@@@std@@QAE@XZ 0040a4c0 f i S3PDBSocketPool.obj
 0001:000094d0       ?deallocate@?$allocator@U_Node@?$_Tree_nod@V?$_Tmap_traits@UUserName@@KUUserNameCmp@@V?$allocator@U?$pair@$$CBUUserName@@K@std@@@std@@$0A@@std@@@std@@@std@@QAEXPAU_Node@?$_Tree_nod@V?$_Tmap_traits@UUserName@@KUUserNameCmp@@V?$allocator@U?$pair@$$CBUUserName@@K@std@@@std@@$0A@@std@@@2@I@Z 0040a4d0 f i S3PDBSocketPool.obj
 0001:000094e0       ?_Nextnode@?$list@PAVKGatewayDataProcess@@V?$allocator@PAVKGatewayDataProcess@@@std@@@std@@KAAAPAU_Node@?$_List_nod@PAVKGatewayDataProcess@@V?$allocator@PAVKGatewayDataProcess@@@std@@@2@PAU342@@Z 0040a4e0 f i S3PDBSocketPool.obj
 0001:000094f0       ?_Prevnode@?$list@PAVKGatewayDataProcess@@V?$allocator@PAVKGatewayDataProcess@@@std@@@std@@KAAAPAU_Node@?$_List_nod@PAVKGatewayDataProcess@@V?$allocator@PAVKGatewayDataProcess@@@std@@@2@PAU342@@Z 0040a4f0 f i S3PDBSocketPool.obj
 0001:00009500       ??0?$allocator@PAVKGatewayDataProcess@@@std@@QAE@XZ 0040a500 f i S3PDBSocketPool.obj
 0001:00009510       ?deallocate@?$allocator@U_Node@?$_List_nod@PAVKGatewayDataProcess@@V?$allocator@PAVKGatewayDataProcess@@@std@@@std@@@std@@QAEXPAU_Node@?$_List_nod@PAVKGatewayDataProcess@@V?$allocator@PAVKGatewayDataProcess@@@std@@@2@I@Z 0040a510 f i S3PDBSocketPool.obj
 0001:00009520       ??8?$_Const_iterator@$00@?$list@PAVKGatewayDataProcess@@V?$allocator@PAVKGatewayDataProcess@@@std@@@std@@QBE_NABV012@@Z 0040a520 f i S3PDBSocketPool.obj
 0001:00009550       ?_Mynode@const_iterator@?$_Tree@V?$_Tmap_traits@UUserName@@KUUserNameCmp@@V?$allocator@U?$pair@$$CBUUserName@@K@std@@@std@@$0A@@std@@@std@@QBEPAU_Node@?$_Tree_nod@V?$_Tmap_traits@UUserName@@KUUserNameCmp@@V?$allocator@U?$pair@$$CBUUserName@@K@std@@@std@@$0A@@std@@@3@XZ 0040a550 f i S3PDBSocketPool.obj
 0001:00009560       ??0?$pair@$$CBUUserName@@K@std@@QAE@ABUUserName@@ABK@Z 0040a560 f i S3PDBSocketPool.obj
 0001:00009580       ?_Myval@?$_Tree@V?$_Tmap_traits@UUserName@@KUUserNameCmp@@V?$allocator@U?$pair@$$CBUUserName@@K@std@@@std@@$0A@@std@@@std@@KAAAU?$pair@$$CBUUserName@@K@2@PAU_Node@?$_Tree_nod@V?$_Tmap_traits@UUserName@@KUUserNameCmp@@V?$allocator@U?$pair@$$CBUUserName@@K@std@@@std@@$0A@@std@@@2@@Z 0040a580 f i S3PDBSocketPool.obj
 0001:00009590       ?size@?$_Tree@V?$_Tmap_traits@UUserName@@KUUserNameCmp@@V?$allocator@U?$pair@$$CBUUserName@@K@std@@@std@@$0A@@std@@@std@@QBEIXZ 0040a590 f i S3PDBSocketPool.obj
 0001:000095a0       ?_Kfn@?$_Tmap_traits@UUserName@@KUUserNameCmp@@V?$allocator@U?$pair@$$CBUUserName@@K@std@@@std@@$0A@@std@@SAABUUserName@@ABU?$pair@$$CBUUserName@@K@2@@Z 0040a5a0 f i S3PDBSocketPool.obj
 0001:000095b0       ??0?$allocator@U?$pair@$$CBUUserName@@K@std@@@std@@QAE@ABV01@@Z 0040a5b0 f i S3PDBSocketPool.obj
 0001:000095c0       ?_Myval@?$list@PAVKGatewayDataProcess@@V?$allocator@PAVKGatewayDataProcess@@@std@@@std@@KAAAPAVKGatewayDataProcess@@PAU_Node@?$_List_nod@PAVKGatewayDataProcess@@V?$allocator@PAVKGatewayDataProcess@@@std@@@2@@Z 0040a5c0 f i S3PDBSocketPool.obj
 0001:000095d0       ??0?$allocator@PAVKGatewayDataProcess@@@std@@QAE@ABV01@@Z 0040a5d0 f i S3PDBSocketPool.obj
 0001:000095e0       ??E?$_Const_iterator@$00@?$list@PAVKGatewayDataProcess@@V?$allocator@PAVKGatewayDataProcess@@@std@@@std@@QAEAAV012@XZ 0040a5e0 f i S3PDBSocketPool.obj
 0001:00009610       ?_Mynode@?$_Const_iterator@$00@?$list@PAVKGatewayDataProcess@@V?$allocator@PAVKGatewayDataProcess@@@std@@@std@@QBEPAU_Node@?$_List_nod@PAVKGatewayDataProcess@@V?$allocator@PAVKGatewayDataProcess@@@std@@@3@XZ 0040a610 f i S3PDBSocketPool.obj
 0001:00009620       ??Dconst_iterator@?$_Tree@V?$_Tmap_traits@UUserName@@KUUserNameCmp@@V?$allocator@U?$pair@$$CBUUserName@@K@std@@@std@@$0A@@std@@@std@@QBEABU?$pair@$$CBUUserName@@K@2@XZ 0040a620 f i S3PDBSocketPool.obj
 0001:00009650       ??0?$pair@Viterator@?$_Tree@V?$_Tmap_traits@UUserName@@KUUserNameCmp@@V?$allocator@U?$pair@$$CBUUserName@@K@std@@@std@@$0A@@std@@@std@@V123@@std@@QAE@ABViterator@?$_Tree@V?$_Tmap_traits@UUserName@@KUUserNameCmp@@V?$allocator@U?$pair@$$CBUUserName@@K@std@@@std@@$0A@@std@@@1@0@Z 0040a650 f i S3PDBSocketPool.obj
 0001:00009680       ??0?$_Bidit@PAVKGatewayDataProcess@@HPBQAV1@ABQAV1@@std@@QAE@XZ 0040a680 f i S3PDBSocketPool.obj
 0001:00009690       ??0?$_Bidit@U?$pair@$$CBUUserName@@K@std@@HPBU12@ABU12@@std@@QAE@XZ 0040a690 f i S3PDBSocketPool.obj
 0001:000096a0       ??0const_iterator@?$_Tree@V?$_Tmap_traits@UUserName@@KUUserNameCmp@@V?$allocator@U?$pair@$$CBUUserName@@K@std@@@std@@$0A@@std@@@std@@QAE@XZ 0040a6a0 f i S3PDBSocketPool.obj
 0001:000096b0       ?_Inc@const_iterator@?$_Tree@V?$_Tmap_traits@UUserName@@KUUserNameCmp@@V?$allocator@U?$pair@$$CBUUserName@@K@std@@@std@@$0A@@std@@@std@@QAEXXZ 0040a6b0 f i S3PDBSocketPool.obj
 0001:00009720       ??0?$pair@Viterator@?$_Tree@V?$_Tmap_traits@UUserName@@KUUserNameCmp@@V?$allocator@U?$pair@$$CBUUserName@@K@std@@@std@@$0A@@std@@@std@@_N@std@@QAE@ABViterator@?$_Tree@V?$_Tmap_traits@UUserName@@KUUserNameCmp@@V?$allocator@U?$pair@$$CBUUserName@@K@std@@@std@@$0A@@std@@@1@AB_N@Z 0040a720 f i S3PDBSocketPool.obj
 0001:00009740       ?max_size@?$allocator@U?$pair@$$CBUUserName@@K@std@@@std@@QBEIXZ 0040a740 f i S3PDBSocketPool.obj
 0001:00009750       ?max_size@?$allocator@PAVKGatewayDataProcess@@@std@@QBEIXZ 0040a750 f i S3PDBSocketPool.obj
 0001:00009760       ?_Dec@const_iterator@?$_Tree@V?$_Tmap_traits@UUserName@@KUUserNameCmp@@V?$allocator@U?$pair@$$CBUUserName@@K@std@@@std@@$0A@@std@@@std@@QAEXXZ 0040a760 f i S3PDBSocketPool.obj
 0001:000097f0       ??0_Node@?$_Tree_nod@V?$_Tmap_traits@UUserName@@KUUserNameCmp@@V?$allocator@U?$pair@$$CBUUserName@@K@std@@@std@@$0A@@std@@@std@@QAE@PAU012@00ABU?$pair@$$CBUUserName@@K@2@D@Z 0040a7f0 f i S3PDBSocketPool.obj
 0001:00009830       ??0?$_Tmap_traits@UUserName@@KUUserNameCmp@@V?$allocator@U?$pair@$$CBUUserName@@K@std@@@std@@$0A@@std@@QAE@UUserNameCmp@@@Z 0040a830 f i S3PDBSocketPool.obj
 0001:00009840       ??$swap@D@std@@YAXAAD0@Z   0040a840 f i S3PDBSocketPool.obj
 0001:00009860       ??$_Destroy@U_Node@?$_Tree_nod@V?$_Tmap_traits@UUserName@@KUUserNameCmp@@V?$allocator@U?$pair@$$CBUUserName@@K@std@@@std@@$0A@@std@@@std@@@std@@YAXPAU_Node@?$_Tree_nod@V?$_Tmap_traits@UUserName@@KUUserNameCmp@@V?$allocator@U?$pair@$$CBUUserName@@K@std@@@std@@$0A@@std@@@0@@Z 0040a860 f i S3PDBSocketPool.obj
 0001:00009870       ??$_Destroy@U_Node@?$_List_nod@PAVKGatewayDataProcess@@V?$allocator@PAVKGatewayDataProcess@@@std@@@std@@@std@@YAXPAU_Node@?$_List_nod@PAVKGatewayDataProcess@@V?$allocator@PAVKGatewayDataProcess@@@std@@@0@@Z 0040a870 f i S3PDBSocketPool.obj
 0001:00009880       ??$_Destroy@PAU_Node@?$_Tree_nod@V?$_Tmap_traits@UUserName@@KUUserNameCmp@@V?$allocator@U?$pair@$$CBUUserName@@K@std@@@std@@$0A@@std@@@std@@@std@@YAXPAPAU_Node@?$_Tree_nod@V?$_Tmap_traits@UUserName@@KUUserNameCmp@@V?$allocator@U?$pair@$$CBUUserName@@K@std@@@std@@$0A@@std@@@0@@Z 0040a880 f i S3PDBSocketPool.obj
 0001:00009890       ??$?0PAVKGatewayDataProcess@@@?$allocator@PAU_Node@?$_List_nod@PAVKGatewayDataProcess@@V?$allocator@PAVKGatewayDataProcess@@@std@@@std@@@std@@QAE@ABV?$allocator@PAVKGatewayDataProcess@@@1@@Z 0040a890 f i S3PDBSocketPool.obj
 0001:000098a0       ??$_Allocate@U_Node@?$_List_nod@PAVKGatewayDataProcess@@V?$allocator@PAVKGatewayDataProcess@@@std@@@std@@@std@@YAPAU_Node@?$_List_nod@PAVKGatewayDataProcess@@V?$allocator@PAVKGatewayDataProcess@@@std@@@0@IPAU120@@Z 0040a8a0 f i S3PDBSocketPool.obj
 0001:00009900       ??$_Construct@PAU_Node@?$_List_nod@PAVKGatewayDataProcess@@V?$allocator@PAVKGatewayDataProcess@@@std@@@std@@PAU123@@std@@YAXPAPAU_Node@?$_List_nod@PAVKGatewayDataProcess@@V?$allocator@PAVKGatewayDataProcess@@@std@@@0@ABQAU120@@Z 0040a900 f i S3PDBSocketPool.obj
 0001:00009920       ??$_Destroy@PAU_Node@?$_List_nod@PAVKGatewayDataProcess@@V?$allocator@PAVKGatewayDataProcess@@@std@@@std@@@std@@YAXPAPAU_Node@?$_List_nod@PAVKGatewayDataProcess@@V?$allocator@PAVKGatewayDataProcess@@@std@@@0@@Z 0040a920 f i S3PDBSocketPool.obj
 0001:00009930       ??$?0U?$pair@$$CBUUserName@@K@std@@@?$allocator@PAU_Node@?$_Tree_nod@V?$_Tmap_traits@UUserName@@KUUserNameCmp@@V?$allocator@U?$pair@$$CBUUserName@@K@std@@@std@@$0A@@std@@@std@@@std@@QAE@ABV?$allocator@U?$pair@$$CBUUserName@@K@std@@@1@@Z 0040a930 f i S3PDBSocketPool.obj
 0001:00009940       ??$?0PAVKGatewayDataProcess@@@?$allocator@U_Node@?$_List_nod@PAVKGatewayDataProcess@@V?$allocator@PAVKGatewayDataProcess@@@std@@@std@@@std@@QAE@ABV?$allocator@PAVKGatewayDataProcess@@@1@@Z 0040a940 f i S3PDBSocketPool.obj
 0001:00009950       ??$_Construct@PAVKGatewayDataProcess@@PAV1@@std@@YAXPAPAVKGatewayDataProcess@@ABQAV1@@Z 0040a950 f i S3PDBSocketPool.obj
 0001:00009970       ??$?0U?$pair@$$CBUUserName@@K@std@@@?$allocator@U_Node@?$_Tree_nod@V?$_Tmap_traits@UUserName@@KUUserNameCmp@@V?$allocator@U?$pair@$$CBUUserName@@K@std@@@std@@$0A@@std@@@std@@@std@@QAE@ABV?$allocator@U?$pair@$$CBUUserName@@K@std@@@1@@Z 0040a970 f i S3PDBSocketPool.obj
 0001:00009980       ??$_Allocate@U_Node@?$_Tree_nod@V?$_Tmap_traits@UUserName@@KUUserNameCmp@@V?$allocator@U?$pair@$$CBUUserName@@K@std@@@std@@$0A@@std@@@std@@@std@@YAPAU_Node@?$_Tree_nod@V?$_Tmap_traits@UUserName@@KUUserNameCmp@@V?$allocator@U?$pair@$$CBUUserName@@K@std@@@std@@$0A@@std@@@0@IPAU120@@Z 0040a980 f i S3PDBSocketPool.obj
 0001:000099e0       ??$_Construct@PAU_Node@?$_Tree_nod@V?$_Tmap_traits@UUserName@@KUUserNameCmp@@V?$allocator@U?$pair@$$CBUUserName@@K@std@@@std@@$0A@@std@@@std@@PAU123@@std@@YAXPAPAU_Node@?$_Tree_nod@V?$_Tmap_traits@UUserName@@KUUserNameCmp@@V?$allocator@U?$pair@$$CBUUserName@@K@std@@@std@@$0A@@std@@@0@ABQAU120@@Z 0040a9e0 f i S3PDBSocketPool.obj
 0001:00009a00       ??$_Iter_cat@Viterator@?$_Tree@V?$_Tmap_traits@UUserName@@KUUserNameCmp@@V?$allocator@U?$pair@$$CBUUserName@@K@std@@@std@@$0A@@std@@@std@@@std@@YA?AUbidirectional_iterator_tag@0@ABViterator@?$_Tree@V?$_Tmap_traits@UUserName@@KUUserNameCmp@@V?$allocator@U?$pair@$$CBUUserName@@K@std@@@std@@$0A@@std@@@0@@Z 0040aa00 f i S3PDBSocketPool.obj
 0001:00009a10       ??_EKThread_CS@@WM@AEPAXI@Z 0040aa10 f i S3PDBSocketPool.obj
 0001:00009a20       ?CheckConnectAddress@KGatewayDataProcess@@IAEHK@Z 0040aa20 f   S3PDBSocketPool.obj
 0001:00009a60       ?ConnectFreeWork@KGatewayDataProcess@@QAEHKKF@Z 0040aa60 f   S3PDBSocketPool.obj
 0001:00009ac0       ?ConnectAgainWork@KGatewayDataProcess@@QAEHKKF@Z 0040aac0 f   S3PDBSocketPool.obj
 0001:00009b20       ??9?$_Const_iterator@$00@?$list@PAVKGatewayDataProcess@@V?$allocator@PAVKGatewayDataProcess@@@std@@@std@@QBE_NABV012@@Z 0040ab20 f i S3PDBSocketPool.obj
 0001:00009b50       ?_Key@?$_Tree@V?$_Tmap_traits@UUserName@@KUUserNameCmp@@V?$allocator@U?$pair@$$CBUUserName@@K@std@@@std@@$0A@@std@@@std@@KAABUUserName@@PAU_Node@?$_Tree_nod@V?$_Tmap_traits@UUserName@@KUUserNameCmp@@V?$allocator@U?$pair@$$CBUUserName@@K@std@@@std@@$0A@@std@@@2@@Z 0040ab50 f i S3PDBSocketPool.obj
 0001:00009b60       ?_Lrotate@?$_Tree@V?$_Tmap_traits@UUserName@@KUUserNameCmp@@V?$allocator@U?$pair@$$CBUUserName@@K@std@@@std@@$0A@@std@@@std@@IAEXPAU_Node@?$_Tree_nod@V?$_Tmap_traits@UUserName@@KUUserNameCmp@@V?$allocator@U?$pair@$$CBUUserName@@K@std@@@std@@$0A@@std@@@2@@Z 0040ab60 f i S3PDBSocketPool.obj
 0001:00009bb0       ?destroy@?$allocator@U_Node@?$_Tree_nod@V?$_Tmap_traits@UUserName@@KUUserNameCmp@@V?$allocator@U?$pair@$$CBUUserName@@K@std@@@std@@$0A@@std@@@std@@@std@@QAEXPAU_Node@?$_Tree_nod@V?$_Tmap_traits@UUserName@@KUUserNameCmp@@V?$allocator@U?$pair@$$CBUUserName@@K@std@@@std@@$0A@@std@@@2@@Z 0040abb0 f i S3PDBSocketPool.obj
 0001:00009bc0       ?destroy@?$allocator@U_Node@?$_List_nod@PAVKGatewayDataProcess@@V?$allocator@PAVKGatewayDataProcess@@@std@@@std@@@std@@QAEXPAU_Node@?$_List_nod@PAVKGatewayDataProcess@@V?$allocator@PAVKGatewayDataProcess@@@std@@@2@@Z 0040abc0 f i S3PDBSocketPool.obj
 0001:00009bd0       ??E?$_Iterator@$00@?$list@PAVKGatewayDataProcess@@V?$allocator@PAVKGatewayDataProcess@@@std@@@std@@QAEAAV012@XZ 0040abd0 f i S3PDBSocketPool.obj
 0001:00009c00       ??D?$_Const_iterator@$00@?$list@PAVKGatewayDataProcess@@V?$allocator@PAVKGatewayDataProcess@@@std@@@std@@QBEABQAVKGatewayDataProcess@@XZ 0040ac00 f i S3PDBSocketPool.obj
 0001:00009c30       ??Diterator@?$_Tree@V?$_Tmap_traits@UUserName@@KUUserNameCmp@@V?$allocator@U?$pair@$$CBUUserName@@K@std@@@std@@$0A@@std@@@std@@QBEAAU?$pair@$$CBUUserName@@K@2@XZ 0040ac30 f i S3PDBSocketPool.obj
 0001:00009c60       ?_Lbound@?$_Tree@V?$_Tmap_traits@UUserName@@KUUserNameCmp@@V?$allocator@U?$pair@$$CBUUserName@@K@std@@@std@@$0A@@std@@@std@@IBEPAU_Node@?$_Tree_nod@V?$_Tmap_traits@UUserName@@KUUserNameCmp@@V?$allocator@U?$pair@$$CBUUserName@@K@std@@@std@@$0A@@std@@@2@ABUUserName@@@Z 0040ac60 f i S3PDBSocketPool.obj
 0001:00009ca0       ?destroy@?$allocator@PAU_Node@?$_Tree_nod@V?$_Tmap_traits@UUserName@@KUUserNameCmp@@V?$allocator@U?$pair@$$CBUUserName@@K@std@@@std@@$0A@@std@@@std@@@std@@QAEXPAPAU_Node@?$_Tree_nod@V?$_Tmap_traits@UUserName@@KUUserNameCmp@@V?$allocator@U?$pair@$$CBUUserName@@K@std@@@std@@$0A@@std@@@2@@Z 0040aca0 f i S3PDBSocketPool.obj
 0001:00009cb0       ?allocate@?$allocator@U_Node@?$_List_nod@PAVKGatewayDataProcess@@V?$allocator@PAVKGatewayDataProcess@@@std@@@std@@@std@@QAEPAU_Node@?$_List_nod@PAVKGatewayDataProcess@@V?$allocator@PAVKGatewayDataProcess@@@std@@@2@I@Z 0040acb0 f i S3PDBSocketPool.obj
 0001:00009cd0       ?construct@?$allocator@PAU_Node@?$_List_nod@PAVKGatewayDataProcess@@V?$allocator@PAVKGatewayDataProcess@@@std@@@std@@@std@@QAEXPAPAU_Node@?$_List_nod@PAVKGatewayDataProcess@@V?$allocator@PAVKGatewayDataProcess@@@std@@@2@ABQAU342@@Z 0040acd0 f i S3PDBSocketPool.obj
 0001:00009cf0       ?destroy@?$allocator@PAU_Node@?$_List_nod@PAVKGatewayDataProcess@@V?$allocator@PAVKGatewayDataProcess@@@std@@@std@@@std@@QAEXPAPAU_Node@?$_List_nod@PAVKGatewayDataProcess@@V?$allocator@PAVKGatewayDataProcess@@@std@@@2@@Z 0040acf0 f i S3PDBSocketPool.obj
 0001:00009d00       ??0?$_Const_iterator@$00@?$list@PAVKGatewayDataProcess@@V?$allocator@PAVKGatewayDataProcess@@@std@@@std@@QAE@PAU_Node@?$_List_nod@PAVKGatewayDataProcess@@V?$allocator@PAVKGatewayDataProcess@@@std@@@2@PBV12@@Z 0040ad00 f i S3PDBSocketPool.obj
 0001:00009d30       ??0iterator@?$_Tree@V?$_Tmap_traits@UUserName@@KUUserNameCmp@@V?$allocator@U?$pair@$$CBUUserName@@K@std@@@std@@$0A@@std@@@std@@QAE@XZ 0040ad30 f i S3PDBSocketPool.obj
 0001:00009d40       ??0const_iterator@?$_Tree@V?$_Tmap_traits@UUserName@@KUUserNameCmp@@V?$allocator@U?$pair@$$CBUUserName@@K@std@@@std@@$0A@@std@@@std@@QAE@PAU_Node@?$_Tree_nod@V?$_Tmap_traits@UUserName@@KUUserNameCmp@@V?$allocator@U?$pair@$$CBUUserName@@K@std@@@std@@$0A@@std@@@2@PBV12@@Z 0040ad40 f i S3PDBSocketPool.obj
 0001:00009d70       ??Econst_iterator@?$_Tree@V?$_Tmap_traits@UUserName@@KUUserNameCmp@@V?$allocator@U?$pair@$$CBUUserName@@K@std@@@std@@$0A@@std@@@std@@QAEAAV012@XZ 0040ad70 f i S3PDBSocketPool.obj
 0001:00009d80       ?max_size@?$_Tree@V?$_Tmap_traits@UUserName@@KUUserNameCmp@@V?$allocator@U?$pair@$$CBUUserName@@K@std@@@std@@$0A@@std@@@std@@QBEIXZ 0040ad80 f i S3PDBSocketPool.obj
 0001:00009d90       ?_Erase@?$_Tree@V?$_Tmap_traits@UUserName@@KUUserNameCmp@@V?$allocator@U?$pair@$$CBUUserName@@K@std@@@std@@$0A@@std@@@std@@IAEXPAU_Node@?$_Tree_nod@V?$_Tmap_traits@UUserName@@KUUserNameCmp@@V?$allocator@U?$pair@$$CBUUserName@@K@std@@@std@@$0A@@std@@@2@@Z 0040ad90 f i S3PDBSocketPool.obj
 0001:00009dd0       ?_Ubound@?$_Tree@V?$_Tmap_traits@UUserName@@KUUserNameCmp@@V?$allocator@U?$pair@$$CBUUserName@@K@std@@@std@@$0A@@std@@@std@@IBEPAU_Node@?$_Tree_nod@V?$_Tmap_traits@UUserName@@KUUserNameCmp@@V?$allocator@U?$pair@$$CBUUserName@@K@std@@@std@@$0A@@std@@@2@ABUUserName@@@Z 0040add0 f i S3PDBSocketPool.obj
 0001:00009e10       ?max_size@?$list@PAVKGatewayDataProcess@@V?$allocator@PAVKGatewayDataProcess@@@std@@@std@@QBEIXZ 0040ae10 f i S3PDBSocketPool.obj
 0001:00009e20       ??0?$_List_nod@PAVKGatewayDataProcess@@V?$allocator@PAVKGatewayDataProcess@@@std@@@std@@IAE@V?$allocator@PAVKGatewayDataProcess@@@1@@Z 0040ae20 f i S3PDBSocketPool.obj
 0001:00009e30       ?construct@?$allocator@PAVKGatewayDataProcess@@@std@@QAEXPAPAVKGatewayDataProcess@@ABQAV3@@Z 0040ae30 f i S3PDBSocketPool.obj
 0001:00009e50       ??Fconst_iterator@?$_Tree@V?$_Tmap_traits@UUserName@@KUUserNameCmp@@V?$allocator@U?$pair@$$CBUUserName@@K@std@@@std@@$0A@@std@@@std@@QAEAAV012@XZ 0040ae50 f i S3PDBSocketPool.obj
 0001:00009e60       ??0?$_Tree_nod@V?$_Tmap_traits@UUserName@@KUUserNameCmp@@V?$allocator@U?$pair@$$CBUUserName@@K@std@@@std@@$0A@@std@@@std@@IAE@ABUUserNameCmp@@V?$allocator@U?$pair@$$CBUUserName@@K@std@@@1@@Z 0040ae60 f i S3PDBSocketPool.obj
 0001:00009e70       ?allocate@?$allocator@U_Node@?$_Tree_nod@V?$_Tmap_traits@UUserName@@KUUserNameCmp@@V?$allocator@U?$pair@$$CBUUserName@@K@std@@@std@@$0A@@std@@@std@@@std@@QAEPAU_Node@?$_Tree_nod@V?$_Tmap_traits@UUserName@@KUUserNameCmp@@V?$allocator@U?$pair@$$CBUUserName@@K@std@@@std@@$0A@@std@@@2@I@Z 0040ae70 f i S3PDBSocketPool.obj
 0001:00009e90       ?construct@?$allocator@PAU_Node@?$_Tree_nod@V?$_Tmap_traits@UUserName@@KUUserNameCmp@@V?$allocator@U?$pair@$$CBUUserName@@K@std@@@std@@$0A@@std@@@std@@@std@@QAEXPAPAU_Node@?$_Tree_nod@V?$_Tmap_traits@UUserName@@KUUserNameCmp@@V?$allocator@U?$pair@$$CBUUserName@@K@std@@@std@@$0A@@std@@@2@ABQAU342@@Z 0040ae90 f i S3PDBSocketPool.obj
 0001:00009eb0       ?clear@?$list@PAVKGatewayDataProcess@@V?$allocator@PAVKGatewayDataProcess@@@std@@@std@@QAEXXZ 0040aeb0 f i S3PDBSocketPool.obj
 0001:00009ef0       ??D?$_Iterator@$00@?$list@PAVKGatewayDataProcess@@V?$allocator@PAVKGatewayDataProcess@@@std@@@std@@QBEAAPAVKGatewayDataProcess@@XZ 0040aef0 f i S3PDBSocketPool.obj
 0001:00009f20       ??E?$_Iterator@$00@?$list@PAVKGatewayDataProcess@@V?$allocator@PAVKGatewayDataProcess@@@std@@@std@@QAE?AV012@H@Z 0040af20 f i S3PDBSocketPool.obj
 0001:00009f60       ??Citerator@?$_Tree@V?$_Tmap_traits@UUserName@@KUUserNameCmp@@V?$allocator@U?$pair@$$CBUUserName@@K@std@@@std@@$0A@@std@@@std@@QBEPAU?$pair@$$CBUUserName@@K@2@XZ 0040af60 f i S3PDBSocketPool.obj
 0001:00009f90       ?_Buynode@?$list@PAVKGatewayDataProcess@@V?$allocator@PAVKGatewayDataProcess@@@std@@@std@@IAEPAU_Node@?$_List_nod@PAVKGatewayDataProcess@@V?$allocator@PAVKGatewayDataProcess@@@std@@@2@XZ 0040af90 f i S3PDBSocketPool.obj
 0001:00009fb0       ?_Tidy@?$list@PAVKGatewayDataProcess@@V?$allocator@PAVKGatewayDataProcess@@@std@@@std@@IAEXXZ 0040afb0 f i S3PDBSocketPool.obj
 0001:0000a000       ??0?$_Iterator@$00@?$list@PAVKGatewayDataProcess@@V?$allocator@PAVKGatewayDataProcess@@@std@@@std@@QAE@PAU_Node@?$_List_nod@PAVKGatewayDataProcess@@V?$allocator@PAVKGatewayDataProcess@@@std@@@2@PBV12@@Z 0040b000 f i S3PDBSocketPool.obj
 0001:0000a030       ??0iterator@?$_Tree@V?$_Tmap_traits@UUserName@@KUUserNameCmp@@V?$allocator@U?$pair@$$CBUUserName@@K@std@@@std@@$0A@@std@@@std@@QAE@PAU_Node@?$_Tree_nod@V?$_Tmap_traits@UUserName@@KUUserNameCmp@@V?$allocator@U?$pair@$$CBUUserName@@K@std@@@std@@$0A@@std@@@2@PBV12@@Z 0040b030 f i S3PDBSocketPool.obj
 0001:0000a060       ??Eiterator@?$_Tree@V?$_Tmap_traits@UUserName@@KUUserNameCmp@@V?$allocator@U?$pair@$$CBUUserName@@K@std@@@std@@$0A@@std@@@std@@QAEAAV012@XZ 0040b060 f i S3PDBSocketPool.obj
 0001:0000a070       ?clear@?$_Tree@V?$_Tmap_traits@UUserName@@KUUserNameCmp@@V?$allocator@U?$pair@$$CBUUserName@@K@std@@@std@@$0A@@std@@@std@@QAEXXZ 0040b070 f i S3PDBSocketPool.obj
 0001:0000a0a0       ?upper_bound@?$_Tree@V?$_Tmap_traits@UUserName@@KUUserNameCmp@@V?$allocator@U?$pair@$$CBUUserName@@K@std@@@std@@$0A@@std@@@std@@QAE?AViterator@12@ABUUserName@@@Z 0040b0a0 f i S3PDBSocketPool.obj
 0001:0000a0d0       ?_Buynode@?$list@PAVKGatewayDataProcess@@V?$allocator@PAVKGatewayDataProcess@@@std@@@std@@IAEPAU_Node@?$_List_nod@PAVKGatewayDataProcess@@V?$allocator@PAVKGatewayDataProcess@@@std@@@2@PAU342@0ABQAVKGatewayDataProcess@@@Z 0040b0d0 f i S3PDBSocketPool.obj
 0001:0000a110       ??0?$_List_ptr@PAVKGatewayDataProcess@@V?$allocator@PAVKGatewayDataProcess@@@std@@@std@@IAE@V?$allocator@PAVKGatewayDataProcess@@@1@@Z 0040b110 f i S3PDBSocketPool.obj
 0001:0000a120       ??Fiterator@?$_Tree@V?$_Tmap_traits@UUserName@@KUUserNameCmp@@V?$allocator@U?$pair@$$CBUUserName@@K@std@@@std@@$0A@@std@@@std@@QAEAAV012@XZ 0040b120 f i S3PDBSocketPool.obj
 0001:0000a130       ?_Buynode@?$_Tree@V?$_Tmap_traits@UUserName@@KUUserNameCmp@@V?$allocator@U?$pair@$$CBUUserName@@K@std@@@std@@$0A@@std@@@std@@IAEPAU_Node@?$_Tree_nod@V?$_Tmap_traits@UUserName@@KUUserNameCmp@@V?$allocator@U?$pair@$$CBUUserName@@K@std@@@std@@$0A@@std@@@2@XZ 0040b130 f i S3PDBSocketPool.obj
 0001:0000a170       ?_Buynode@?$_Tree@V?$_Tmap_traits@UUserName@@KUUserNameCmp@@V?$allocator@U?$pair@$$CBUUserName@@K@std@@@std@@$0A@@std@@@std@@IAEPAU_Node@?$_Tree_nod@V?$_Tmap_traits@UUserName@@KUUserNameCmp@@V?$allocator@U?$pair@$$CBUUserName@@K@std@@@std@@$0A@@std@@@2@PAU342@00ABU?$pair@$$CBUUserName@@K@2@D@Z 0040b170 f i S3PDBSocketPool.obj
 0001:0000a1c0       ??0?$_Tree_ptr@V?$_Tmap_traits@UUserName@@KUUserNameCmp@@V?$allocator@U?$pair@$$CBUUserName@@K@std@@@std@@$0A@@std@@@std@@IAE@ABUUserNameCmp@@V?$allocator@U?$pair@$$CBUUserName@@K@std@@@1@@Z 0040b1c0 f i S3PDBSocketPool.obj
 0001:0000a1d0       ??$_Distance2@Viterator@?$_Tree@V?$_Tmap_traits@UUserName@@KUUserNameCmp@@V?$allocator@U?$pair@$$CBUUserName@@K@std@@@std@@$0A@@std@@@std@@I@std@@YAXViterator@?$_Tree@V?$_Tmap_traits@UUserName@@KUUserNameCmp@@V?$allocator@U?$pair@$$CBUUserName@@K@std@@@std@@$0A@@std@@@0@0AAIUbidirectional_iterator_tag@0@@Z 0040b1d0 f i S3PDBSocketPool.obj
 0001:0000a210       ?begin@?$_Tree@V?$_Tmap_traits@UUserName@@KUUserNameCmp@@V?$allocator@U?$pair@$$CBUUserName@@K@std@@@std@@$0A@@std@@@std@@QAE?AViterator@12@XZ 0040b210 f i S3PDBSocketPool.obj
 0001:0000a230       ?end@?$_Tree@V?$_Tmap_traits@UUserName@@KUUserNameCmp@@V?$allocator@U?$pair@$$CBUUserName@@K@std@@@std@@$0A@@std@@@std@@QAE?AViterator@12@XZ 0040b230 f i S3PDBSocketPool.obj
 0001:0000a240       ??1?$list@PAVKGatewayDataProcess@@V?$allocator@PAVKGatewayDataProcess@@@std@@@std@@QAE@XZ 0040b240 f i S3PDBSocketPool.obj
 0001:0000a250       ?begin@?$list@PAVKGatewayDataProcess@@V?$allocator@PAVKGatewayDataProcess@@@std@@@std@@QAE?AV?$_Iterator@$00@12@XZ 0040b250 f i S3PDBSocketPool.obj
 0001:0000a270       ?end@?$list@PAVKGatewayDataProcess@@V?$allocator@PAVKGatewayDataProcess@@@std@@@std@@QAE?AV?$_Iterator@$00@12@XZ 0040b270 f i S3PDBSocketPool.obj
 0001:0000a280       ??Eiterator@?$_Tree@V?$_Tmap_traits@UUserName@@KUUserNameCmp@@V?$allocator@U?$pair@$$CBUUserName@@K@std@@@std@@$0A@@std@@@std@@QAE?AV012@H@Z 0040b280 f i S3PDBSocketPool.obj
 0001:0000a2a0       ?lower_bound@?$_Tree@V?$_Tmap_traits@UUserName@@KUUserNameCmp@@V?$allocator@U?$pair@$$CBUUserName@@K@std@@@std@@$0A@@std@@@std@@QAE?AViterator@12@ABUUserName@@@Z 0040b2a0 f i S3PDBSocketPool.obj
 0001:0000a2d0       ?equal_range@?$_Tree@V?$_Tmap_traits@UUserName@@KUUserNameCmp@@V?$allocator@U?$pair@$$CBUUserName@@K@std@@@std@@$0A@@std@@@std@@QAE?AU?$pair@Viterator@?$_Tree@V?$_Tmap_traits@UUserName@@KUUserNameCmp@@V?$allocator@U?$pair@$$CBUUserName@@K@std@@@std@@$0A@@std@@@std@@V123@@2@ABUUserName@@@Z 0040b2d0 f i S3PDBSocketPool.obj
 0001:0000a320       ??0?$_List_val@PAVKGatewayDataProcess@@V?$allocator@PAVKGatewayDataProcess@@@std@@@std@@QAE@V?$allocator@PAVKGatewayDataProcess@@@1@@Z 0040b320 f i S3PDBSocketPool.obj
 0001:0000a330       ?_Init@?$_Tree@V?$_Tmap_traits@UUserName@@KUUserNameCmp@@V?$allocator@U?$pair@$$CBUUserName@@K@std@@@std@@$0A@@std@@@std@@IAEXXZ 0040b330 f i S3PDBSocketPool.obj
 0001:0000a360       ??0?$_Tree_val@V?$_Tmap_traits@UUserName@@KUUserNameCmp@@V?$allocator@U?$pair@$$CBUUserName@@K@std@@@std@@$0A@@std@@@std@@IAE@ABUUserNameCmp@@V?$allocator@U?$pair@$$CBUUserName@@K@std@@@1@@Z 0040b360 f i S3PDBSocketPool.obj
 0001:0000a370       ??$_Distance@Viterator@?$_Tree@V?$_Tmap_traits@UUserName@@KUUserNameCmp@@V?$allocator@U?$pair@$$CBUUserName@@K@std@@@std@@$0A@@std@@@std@@I@std@@YAXViterator@?$_Tree@V?$_Tmap_traits@UUserName@@KUUserNameCmp@@V?$allocator@U?$pair@$$CBUUserName@@K@std@@@std@@$0A@@std@@@0@0AAI@Z 0040b370 f i S3PDBSocketPool.obj
 0001:0000a3a0       ??1S3PDBSocketPool@@UAE@XZ 0040b3a0 f   S3PDBSocketPool.obj
 0001:0000a3c0       ?Stop@S3PDBSocketPool@@UAEHXZ 0040b3c0 f   S3PDBSocketPool.obj
 0001:0000a460       ?AddUserClientID@S3PDBSocketPool@@QAEHK@Z 0040b460 f   S3PDBSocketPool.obj
 0001:0000a670       ?RemoveUserClientID@S3PDBSocketPool@@QAEHK@Z 0040b670 f   S3PDBSocketPool.obj
 0001:0000a6e0       ?ShowAllClientInfo@S3PDBSocketPool@@QAEHXZ 0040b6e0 f   S3PDBSocketPool.obj
 0001:0000a880       ?find@?$_Tree@V?$_Tmap_traits@UUserName@@KUUserNameCmp@@V?$allocator@U?$pair@$$CBUUserName@@K@std@@@std@@$0A@@std@@@std@@QAE?AViterator@12@ABUUserName@@@Z 0040b880 f i S3PDBSocketPool.obj
 0001:0000a8f0       ??0?$list@PAVKGatewayDataProcess@@V?$allocator@PAVKGatewayDataProcess@@@std@@@std@@QAE@XZ 0040b8f0 f i S3PDBSocketPool.obj
 0001:0000a910       ??0?$_Tree@V?$_Tmap_traits@UUserName@@KUUserNameCmp@@V?$allocator@U?$pair@$$CBUUserName@@K@std@@@std@@$0A@@std@@@std@@QAE@ABUUserNameCmp@@ABV?$allocator@U?$pair@$$CBUUserName@@K@std@@@1@@Z 0040b910 f i S3PDBSocketPool.obj
 0001:0000a940       ??0S3PDBSocketPool@@IAE@XZ 0040b940 f   S3PDBSocketPool.obj
 0001:0000a9b0       ??_GS3PDBSocketPool@@UAEPAXI@Z 0040b9b0 f i S3PDBSocketPool.obj
 0001:0000a9b0       ??_ES3PDBSocketPool@@UAEPAXI@Z 0040b9b0 f i S3PDBSocketPool.obj
 0001:0000a9d0       ?Instance@S3PDBSocketPool@@SAPAV1@XZ 0040b9d0 f   S3PDBSocketPool.obj
 0001:0000aa50       ?SendPing@KGatewayDataProcess@@IAEXK@Z 0040ba50 f   S3PDBSocketPool.obj
 0001:0000aa90       ?ProGameLogin@KGatewayDataProcess@@IAEHPAVS3PDBConVBC@@PBDK@Z 0040ba90 f   S3PDBSocketPool.obj
 0001:0000abc0       ?ProAccountLogout@KGatewayDataProcess@@IAEHPAVS3PDBConVBC@@PBDK@Z 0040bbc0 f   S3PDBSocketPool.obj
 0001:0000ad10       ?ProGetwayVerify@KGatewayDataProcess@@IAEHPAVS3PDBConVBC@@PBDK@Z 0040bd10 f   S3PDBSocketPool.obj
 0001:0000aee0       ??0out_of_range@std@@QAE@ABV?$basic_string@DU?$char_traits@D@std@@V?$allocator@D@2@@1@@Z 0040bee0 f i S3PDBSocketPool.obj
 0001:0000af00       ??1out_of_range@std@@UAE@XZ 0040bf00 f i S3PDBSocketPool.obj
 0001:0000af40       ??_Eout_of_range@std@@UAEPAXI@Z 0040bf40 f i S3PDBSocketPool.obj
 0001:0000af40       ??_Gout_of_range@std@@UAEPAXI@Z 0040bf40 f i S3PDBSocketPool.obj
 0001:0000af90       ?ProcessData@KGatewayDataProcess@@IAEKPAVS3PDBConVBC@@PBXK@Z 0040bf90 f   S3PDBSocketPool.obj
 0001:0000b1f0       ?erase@?$_Tree@V?$_Tmap_traits@UUserName@@KUUserNameCmp@@V?$allocator@U?$pair@$$CBUUserName@@K@std@@@std@@$0A@@std@@@std@@QAE?AViterator@12@V312@@Z 0040c1f0 f i S3PDBSocketPool.obj
 0001:0000b4b0       ?erase@?$_Tree@V?$_Tmap_traits@UUserName@@KUUserNameCmp@@V?$allocator@U?$pair@$$CBUUserName@@K@std@@@std@@$0A@@std@@@std@@QAE?AViterator@12@V312@0@Z 0040c4b0 f i S3PDBSocketPool.obj
 0001:0000b580       ?_Tidy@?$_Tree@V?$_Tmap_traits@UUserName@@KUUserNameCmp@@V?$allocator@U?$pair@$$CBUUserName@@K@std@@@std@@$0A@@std@@@std@@IAEXXZ 0040c580 f i S3PDBSocketPool.obj
 0001:0000b5c0       ?_Insert@?$_Tree@V?$_Tmap_traits@UUserName@@KUUserNameCmp@@V?$allocator@U?$pair@$$CBUUserName@@K@std@@@std@@$0A@@std@@@std@@IAE?AViterator@12@_NPAU_Node@?$_Tree_nod@V?$_Tmap_traits@UUserName@@KUUserNameCmp@@V?$allocator@U?$pair@$$CBUUserName@@K@std@@@std@@$0A@@std@@@2@ABU?$pair@$$CBUUserName@@K@2@@Z 0040c5c0 f i S3PDBSocketPool.obj
 0001:0000b7c0       ?_Incsize@?$list@PAVKGatewayDataProcess@@V?$allocator@PAVKGatewayDataProcess@@@std@@@std@@IAEXI@Z 0040c7c0 f i S3PDBSocketPool.obj
 0001:0000b860       ??0out_of_range@std@@QAE@ABV01@@Z 0040c860 f i S3PDBSocketPool.obj
 0001:0000b880       ?AutoTime@KGatewayDataProcess@@IAEXXZ 0040c880 f   S3PDBSocketPool.obj
 0001:0000b9f0       ?ProcessClientData@KGatewayDataProcess@@IAEXPBXK@Z 0040c9f0 f   S3PDBSocketPool.obj
 0001:0000ba80       ?Main@KGatewayDataProcess@@MAEKPAX@Z 0040ca80 f   S3PDBSocketPool.obj
 0001:0000bba0       ??1?$_Tree@V?$_Tmap_traits@UUserName@@KUUserNameCmp@@V?$allocator@U?$pair@$$CBUUserName@@K@std@@@std@@$0A@@std@@@std@@QAE@XZ 0040cba0 f i S3PDBSocketPool.obj
 0001:0000bbe0       ?erase@?$_Tree@V?$_Tmap_traits@UUserName@@KUUserNameCmp@@V?$allocator@U?$pair@$$CBUUserName@@K@std@@@std@@$0A@@std@@@std@@QAEIABUUserName@@@Z 0040cbe0 f i S3PDBSocketPool.obj
 0001:0000bc50       ?_Insert@?$list@PAVKGatewayDataProcess@@V?$allocator@PAVKGatewayDataProcess@@@std@@@std@@QAEXV?$_Iterator@$00@12@ABQAVKGatewayDataProcess@@@Z 0040cc50 f i S3PDBSocketPool.obj
 0001:0000bc90       ?insert@?$_Tree@V?$_Tmap_traits@UUserName@@KUUserNameCmp@@V?$allocator@U?$pair@$$CBUUserName@@K@std@@@std@@$0A@@std@@@std@@QAE?AU?$pair@Viterator@?$_Tree@V?$_Tmap_traits@UUserName@@KUUserNameCmp@@V?$allocator@U?$pair@$$CBUUserName@@K@std@@@std@@$0A@@std@@@std@@_N@2@ABU?$pair@$$CBUUserName@@K@2@@Z 0040cc90 f i S3PDBSocketPool.obj
 0001:0000bd90       ??1?$map@UUserName@@KUUserNameCmp@@V?$allocator@U?$pair@$$CBUUserName@@K@std@@@std@@@std@@QAE@XZ 0040cd90 f i S3PDBSocketPool.obj
 0001:0000bdd0       ??1KGatewayDataProcess@@UAE@XZ 0040cdd0 f   S3PDBSocketPool.obj
 0001:0000be70       ??_EKGatewayDataProcess@@WM@AEPAXI@Z 0040ce70 f i S3PDBSocketPool.obj
 0001:0000be80       ??0?$map@UUserName@@KUUserNameCmp@@V?$allocator@U?$pair@$$CBUUserName@@K@std@@@std@@@std@@QAE@XZ 0040ce80 f i S3PDBSocketPool.obj
 0001:0000beb0       ?push_back@?$list@PAVKGatewayDataProcess@@V?$allocator@PAVKGatewayDataProcess@@@std@@@std@@QAEXABQAVKGatewayDataProcess@@@Z 0040ceb0 f i S3PDBSocketPool.obj
 0001:0000bef0       ?insert@?$_Tree@V?$_Tmap_traits@UUserName@@KUUserNameCmp@@V?$allocator@U?$pair@$$CBUUserName@@K@std@@@std@@$0A@@std@@@std@@QAE?AViterator@12@V312@ABU?$pair@$$CBUUserName@@K@2@@Z 0040cef0 f i S3PDBSocketPool.obj
 0001:0000c0f0       ??_EKGatewayDataProcess@@UAEPAXI@Z 0040d0f0 f i S3PDBSocketPool.obj
 0001:0000c0f0       ??_GKGatewayDataProcess@@UAEPAXI@Z 0040d0f0 f i S3PDBSocketPool.obj
 0001:0000c110       ??A?$map@UUserName@@KUUserNameCmp@@V?$allocator@U?$pair@$$CBUUserName@@K@std@@@std@@@std@@QAEAAKABUUserName@@@Z 0040d110 f i S3PDBSocketPool.obj
 0001:0000c190       ?ProAccountLogin@KGatewayDataProcess@@IAEHPAVS3PDBConVBC@@PBDK@Z 0040d190 f   S3PDBSocketPool.obj
 0001:0000c3e0       ??0KGatewayDataProcess@@QAE@XZ 0040d3e0 f   S3PDBSocketPool.obj
 0001:0000c4e0       ?Start@S3PDBSocketPool@@UAEPAXPAUIServer@@H@Z 0040d4e0 f   S3PDBSocketPool.obj
 0001:0000c5e0       ??0S3PResultVBC@@IAE@XZ    0040d5e0 f   S3PResultVBC.obj
 0001:0000c5f0       ??1S3PResultVBC@@MAE@XZ    0040d5f0 f   S3PResultVBC.obj
 0001:0000c600       ??_ES3PResultVBC@@MAEPAXI@Z 0040d600 f i S3PResultVBC.obj
 0001:0000c600       ??_GS3PResultVBC@@MAEPAXI@Z 0040d600 f i S3PResultVBC.obj
 0001:0000c61e       _WSACleanup@0              0040d61e f   Ws2_32:WS2_32.dll
 0001:0000c624       _closesocket@4             0040d624 f   Ws2_32:WS2_32.dll
 0001:0000c62a       _bind@12                   0040d62a f   Ws2_32:WS2_32.dll
 0001:0000c630       _htonl@4                   0040d630 f   Ws2_32:WS2_32.dll
 0001:0000c636       _htons@4                   0040d636 f   Ws2_32:WS2_32.dll
 0001:0000c63c       _socket@12                 0040d63c f   Ws2_32:WS2_32.dll
 0001:0000c642       _WSAStartup@8              0040d642 f   Ws2_32:WS2_32.dll
 0001:0000c648       _inet_ntoa@4               0040d648 f   Ws2_32:WS2_32.dll
 0001:0000c64e       _inet_addr@4               0040d64e f   Ws2_32:WS2_32.dll
 0001:0000c654       _WaitForSingleObject@8     0040d654 f   kernel32:KERNEL32.dll
 0001:0000c65a       _CloseHandle@4             0040d65a f   kernel32:KERNEL32.dll
 0001:0000c660       _TerminateThread@8         0040d660 f   kernel32:KERNEL32.dll
 0001:0000c666       _CreateEventA@16           0040d666 f   kernel32:KERNEL32.dll
 0001:0000c66c       _SetEvent@4                0040d66c f   kernel32:KERNEL32.dll
 0001:0000c672       _ResetEvent@4              0040d672 f   kernel32:KERNEL32.dll
 0001:0000c678       _GetModuleFileNameA@12     0040d678 f   kernel32:KERNEL32.dll
 0001:0000c67e       _CreateMutexA@12           0040d67e f   kernel32:KERNEL32.dll
 0001:0000c684       _ReleaseMutex@4            0040d684 f   kernel32:KERNEL32.dll
 0001:0000c68a       _InitializeCriticalSection@4 0040d68a f   kernel32:KERNEL32.dll
 0001:0000c690       _EnterCriticalSection@4    0040d690 f   kernel32:KERNEL32.dll
 0001:0000c696       _LeaveCriticalSection@4    0040d696 f   kernel32:KERNEL32.dll
 0001:0000c69c       _DeleteCriticalSection@4   0040d69c f   kernel32:KERNEL32.dll
 0001:0000c6a2       _GetFileAttributesA@4      0040d6a2 f   kernel32:KERNEL32.dll
 0001:0000c6a8       _CreateDirectoryA@8        0040d6a8 f   kernel32:KERNEL32.dll
 0001:0000c6ae       _CreateFileA@28            0040d6ae f   kernel32:KERNEL32.dll
 0001:0000c6b4       _GetLocalTime@4            0040d6b4 f   kernel32:KERNEL32.dll
 0001:0000c6ba       _GetFileSize@8             0040d6ba f   kernel32:KERNEL32.dll
 0001:0000c6c0       _WriteFile@20              0040d6c0 f   kernel32:KERNEL32.dll
 0001:0000c6c6       _FreeLibrary@4             0040d6c6 f   kernel32:KERNEL32.dll
 0001:0000c6cc       _GetProcAddress@8          0040d6cc f   kernel32:KERNEL32.dll
 0001:0000c6d2       _LoadLibraryA@4            0040d6d2 f   kernel32:KERNEL32.dll
 0001:0000c6d8       _HeapFree@12               0040d6d8 f   kernel32:KERNEL32.dll
 0001:0000c6de       _GetProcessHeap@0          0040d6de f   kernel32:KERNEL32.dll
 0001:0000c6e4       _InterlockedDecrement@4    0040d6e4 f   kernel32:KERNEL32.dll
 0001:0000c6ea       _HeapAlloc@12              0040d6ea f   kernel32:KERNEL32.dll
 0001:0000c6f0       _lstrlenA@4                0040d6f0 f   kernel32:KERNEL32.dll
 0001:0000c6f6       _FormatMessageA@28         0040d6f6 f   kernel32:KERNEL32.dll
 0001:0000c6fc       _GetLastError@0            0040d6fc f   kernel32:KERNEL32.dll
 0001:0000c702       _MultiByteToWideChar@24    0040d702 f   kernel32:KERNEL32.dll
 0001:0000c708       _Sleep@4                   0040d708 f   kernel32:KERNEL32.dll
 0001:0000c70e       _GetTickCount@0            0040d70e f   kernel32:KERNEL32.dll
 0001:0000c714       _SendMessageA@16           0040d714 f   user32:USER32.dll
 0001:0000c71a       _SetTimer@16               0040d71a f   user32:USER32.dll
 0001:0000c720       _UpdateWindow@4            0040d720 f   user32:USER32.dll
 0001:0000c726       _ShowWindow@8              0040d726 f   user32:USER32.dll
 0001:0000c72c       _GetClientRect@8           0040d72c f   user32:USER32.dll
 0001:0000c732       _CreateWindowExA@48        0040d732 f   user32:USER32.dll
 0001:0000c738       _EndDialog@8               0040d738 f   user32:USER32.dll
 0001:0000c73e       _DefWindowProcA@16         0040d73e f   user32:USER32.dll
 0001:0000c744       _DialogBoxParamA@20        0040d744 f   user32:USER32.dll
 0001:0000c74a       _DestroyWindow@4           0040d74a f   user32:USER32.dll
 0001:0000c750       _MessageBoxA@16            0040d750 f   user32:USER32.dll
 0001:0000c756       _PostQuitMessage@4         0040d756 f   user32:USER32.dll
 0001:0000c75c       _KillTimer@8               0040d75c f   user32:USER32.dll
 0001:0000c762       _MoveWindow@24             0040d762 f   user32:USER32.dll
 0001:0000c768       _EndPaint@8                0040d768 f   user32:USER32.dll
 0001:0000c76e       _BeginPaint@8              0040d76e f   user32:USER32.dll
 0001:0000c774       _RegisterClassExA@4        0040d774 f   user32:USER32.dll
 0001:0000c77a       _LoadCursorA@8             0040d77a f   user32:USER32.dll
 0001:0000c780       _LoadIconA@8               0040d780 f   user32:USER32.dll
 0001:0000c786       _DispatchMessageA@4        0040d786 f   user32:USER32.dll
 0001:0000c78c       _TranslateMessage@4        0040d78c f   user32:USER32.dll
 0001:0000c792       _GetMessageA@16            0040d792 f   user32:USER32.dll
 0001:0000c798       _LoadStringA@16            0040d798 f   user32:USER32.dll
 0001:0000c79e       _OleRun@4                  0040d79e f   ole32:ole32.dll
 0001:0000c7a4       _CoCreateInstance@20       0040d7a4 f   ole32:ole32.dll
 0001:0000c7aa       _CoInitializeEx@8          0040d7aa f   ole32:ole32.dll
 0001:0000c7b0       _CoUninitialize@0          0040d7b0 f   ole32:ole32.dll
 0001:0000c7b6       _CLSIDFromProgID@8         0040d7b6 f   ole32:ole32.dll
 0001:0000c7bc       _CLSIDFromString@8         0040d7bc f   ole32:ole32.dll
 0001:0000c7c2       _VariantInit@4             0040d7c2 f   oleaut32:OLEAUT32.dll
 0001:0000c7c8       _VariantClear@4            0040d7c8 f   oleaut32:OLEAUT32.dll
 0001:0000c7ce       _SysAllocString@4          0040d7ce f   oleaut32:OLEAUT32.dll
 0001:0000c7d4       _SysFreeString@4           0040d7d4 f   oleaut32:OLEAUT32.dll
 0001:0000c7da       _VariantChangeType@16      0040d7da f   oleaut32:OLEAUT32.dll
 0001:0000c7e0       ??0_LocaleUpdate@@QAE@PAUlocaleinfo_struct@@@Z 0040d7e0 f i LIBCMT:mbsnbcmp.obj
 0001:0000c862       ??1_LocaleUpdate@@QAE@XZ   0040d862 f i LIBCMT:mbsnbcmp.obj
 0001:0000c870       ?GetLocaleT@_LocaleUpdate@@QAEPAUlocaleinfo_struct@@XZ 0040d870 f i LIBCMT:mbsnbcmp.obj
 0001:0000c873       __mbsnbcmp_l               0040d873 f   LIBCMT:mbsnbcmp.obj
 0001:0000c9dc       __mbsnbcmp                 0040d9dc f   LIBCMT:mbsnbcmp.obj
 0001:0000c9f3       ??3@YAXPAX@Z               0040d9f3 f   LIBCMT:delete.obj
 0001:0000c9f8       ??0bad_alloc@std@@QAE@XZ   0040d9f8 f i LIBCMT:new.obj
 0001:0000ca11       ??2@YAPAXI@Z               0040da11 f   LIBCMT:new.obj
 0001:0000ca7b       __fwrite_nolock            0040da7b f   LIBCMT:fwrite.obj
 0001:0000cbda       _fwrite                    0040dbda f   LIBCMT:fwrite.obj
 0001:0000cc5c       __fclose_nolock            0040dc5c f   LIBCMT:fclose.obj
 0001:0000ccce       _fclose                    0040dcce f   LIBCMT:fclose.obj
 0001:0000cd4a       __fread_nolock_s           0040dd4a f   LIBCMT:fread.obj
 0001:0000cf50       __fread_nolock             0040df50 f   LIBCMT:fread.obj
 0001:0000cf6b       _fread_s                   0040df6b f   LIBCMT:fread.obj
 0001:0000d001       _fread                     0040e001 f   LIBCMT:fread.obj
 0001:0000d01c       __ftell_nolock             0040e01c f   LIBCMT:ftell.obj
 0001:0000d1b4       _ftell                     0040e1b4 f   LIBCMT:ftell.obj
 0001:0000d222       __fseek_nolock             0040e222 f   LIBCMT:fseek.obj
 0001:0000d2a9       _fseek                     0040e2a9 f   LIBCMT:fseek.obj
 0001:0000d32e       __fsopen                   0040e32e f   LIBCMT:fopen.obj
 0001:0000d3f2       _fopen                     0040e3f2 f   LIBCMT:fopen.obj
 0001:0000d405       _fopen_s                   0040e405 f   LIBCMT:fopen.obj
 0001:0000d455       ?_JumpToContinuation@@YGXPAXPAUEHRegistrationNode@@@Z 0040e455 f   LIBCMT:trnsctrl.obj
 0001:0000d485       ?_CallMemberFunction0@@YGXPAX0@Z 0040e485 f   LIBCMT:trnsctrl.obj
 0001:0000d48c       ?_CallMemberFunction1@@YGXPAX00@Z 0040e48c f   LIBCMT:trnsctrl.obj
 0001:0000d493       ?_CallMemberFunction2@@YGXPAX00H@Z 0040e493 f   LIBCMT:trnsctrl.obj
 0001:0000d49a       ?_UnwindNestedFrames@@YGXPAUEHRegistrationNode@@PAUEHExceptionRecord@@@Z 0040e49a f   LIBCMT:trnsctrl.obj
 0001:0000d4ec       ___CxxFrameHandler         0040e4ec f   LIBCMT:trnsctrl.obj
 0001:0000d522       ___CxxFrameHandler3        0040e522 f   LIBCMT:trnsctrl.obj
 0001:0000d558       ___CxxFrameHandler2        0040e558 f   LIBCMT:trnsctrl.obj
 0001:0000d58e       ___CxxLongjmpUnwind@4      0040e58e f   LIBCMT:trnsctrl.obj
 0001:0000d5d8       ?_CallSETranslator@@YAHPAUEHExceptionRecord@@PAUEHRegistrationNode@@PAX2PBU_s_FuncInfo@@H1@Z 0040e5d8 f   LIBCMT:trnsctrl.obj
 0001:0000d74a       ?_GetRangeOfTrysToCheck@@YAPBU_s_TryBlockMapEntry@@PBU_s_FuncInfo@@HHPAI1@Z 0040e74a f   LIBCMT:trnsctrl.obj
 0001:0000d7bd       __CreateFrameInfo          0040e7bd f   LIBCMT:trnsctrl.obj
 0001:0000d7e5       __IsExceptionObjectToBeDestroyed 0040e7e5 f   LIBCMT:trnsctrl.obj
 0001:0000d806       __FindAndUnlinkFrame       0040e806 f   LIBCMT:trnsctrl.obj
 0001:0000d852       ?_CallCatchBlock2@@YAPAXPAUEHRegistrationNode@@PBU_s_FuncInfo@@PAXHK@Z 0040e852 f   LIBCMT:trnsctrl.obj
 0001:0000d8b0       @__security_check_cookie@4 0040e8b0 f   LIBCMT:secchk.obj
 0001:0000d8c0       _memcpy                    0040e8c0 f   LIBCMT:memcpy.obj
 0001:0000dc25       __endthreadex              0040ec25 f   LIBCMT:threadex.obj
 0001:0000dd1f       __beginthreadex            0040ed1f f   LIBCMT:threadex.obj
 0001:0000ddd0       _memset                    0040edd0 f   LIBCMT:memset.obj
 0001:0000de4a       _vfprintf_helper           0040ee4a f   LIBCMT:vfprintf.obj
 0001:0000df98       __vfprintf_l               0040ef98 f   LIBCMT:vfprintf.obj
 0001:0000dfb6       __vfprintf_s_l             0040efb6 f   LIBCMT:vfprintf.obj
 0001:0000dfd4       __vfprintf_p_l             0040efd4 f   LIBCMT:vfprintf.obj
 0001:0000dff2       _vfprintf                  0040eff2 f   LIBCMT:vfprintf.obj
 0001:0000e00e       _vfprintf_s                0040f00e f   LIBCMT:vfprintf.obj
 0001:0000e02a       __vfprintf_p               0040f02a f   LIBCMT:vfprintf.obj
 0001:0000e046       ?name@type_info@@QBEPBDPAU__type_info_node@@@Z 0040f046 f   LIBCMT:typinfo.obj
 0001:0000e055       ??1type_info@@UAE@XZ       0040f055 f   LIBCMT:typinfo.obj
 0001:0000e063       ??_Etype_info@@UAEPAXI@Z   0040f063 f i LIBCMT:typinfo.obj
 0001:0000e063       ??_Gtype_info@@UAEPAXI@Z   0040f063 f i LIBCMT:typinfo.obj
 0001:0000e07f       ?_name_internal_method@type_info@@QBEPBDPAU__type_info_node@@@Z 0040f07f f   LIBCMT:typinfo.obj
 0001:0000e08e       ?_type_info_dtor_internal_method@type_info@@QAEXXZ 0040f08e f   LIBCMT:typinfo.obj
 0001:0000e096       ??8type_info@@QBE_NABV0@@Z 0040f096 f   LIBCMT:typinfo.obj
 0001:0000e0b1       ??9type_info@@QBE_NABV0@@Z 0040f0b1 f   LIBCMT:typinfo.obj
 0001:0000e0cd       ?before@type_info@@QBEHABV1@@Z 0040f0cd f   LIBCMT:typinfo.obj
 0001:0000e0ec       ?raw_name@type_info@@QBEPBDXZ 0040f0ec f   LIBCMT:typinfo.obj
 0001:0000e0f0       ??0type_info@@AAE@ABV0@@Z  0040f0f0 f   LIBCMT:typinfo.obj
 0001:0000e0fb       ??4type_info@@AAEAAV0@ABV0@@Z 0040f0fb f   LIBCMT:typinfo.obj
 0001:0000e100       __purecall                 0040f100 f   LIBCMT:purevirt.obj
 0001:0000e12a       __set_purecall_handler     0040f12a f   LIBCMT:purevirt.obj
 0001:0000e14c       __get_purecall_handler     0040f14c f   LIBCMT:purevirt.obj
 0001:0000e159       ??0exception@std@@QAE@XZ   0040f159 f   LIBCMT:stdexcpt.obj
 0001:0000e16a       ??0exception@std@@QAE@ABQBD@Z 0040f16a f   LIBCMT:stdexcpt.obj
 0001:0000e1b8       ??0exception@std@@QAE@ABQBDH@Z 0040f1b8 f   LIBCMT:stdexcpt.obj
 0001:0000e1d0       ??0exception@std@@QAE@ABV01@@Z 0040f1d0 f   LIBCMT:stdexcpt.obj
 0001:0000e228       ??4exception@std@@QAEAAV01@ABV01@@Z 0040f228 f   LIBCMT:stdexcpt.obj
 0001:0000e27e       ??1exception@std@@UAE@XZ   0040f27e f   LIBCMT:stdexcpt.obj
 0001:0000e294       ?what@exception@std@@UBEPBDXZ 0040f294 f   LIBCMT:stdexcpt.obj
 0001:0000e2a1       ??0bad_cast@std@@QAE@PBD@Z 0040f2a1 f   LIBCMT:stdexcpt.obj
 0001:0000e2ba       ??0bad_cast@std@@QAE@ABV01@@Z 0040f2ba f   LIBCMT:stdexcpt.obj
 0001:0000e2d2       ??1bad_cast@std@@UAE@XZ    0040f2d2 f   LIBCMT:stdexcpt.obj
 0001:0000e2dd       ??0bad_typeid@std@@QAE@PBD@Z 0040f2dd f   LIBCMT:stdexcpt.obj
 0001:0000e2f6       ??0bad_typeid@std@@QAE@ABV01@@Z 0040f2f6 f   LIBCMT:stdexcpt.obj
 0001:0000e30e       ??1bad_typeid@std@@UAE@XZ  0040f30e f   LIBCMT:stdexcpt.obj
 0001:0000e319       ??0__non_rtti_object@std@@QAE@PBD@Z 0040f319 f   LIBCMT:stdexcpt.obj
 0001:0000e331       ??0__non_rtti_object@std@@QAE@ABV01@@Z 0040f331 f   LIBCMT:stdexcpt.obj
 0001:0000e349       ??1__non_rtti_object@std@@UAE@XZ 0040f349 f   LIBCMT:stdexcpt.obj
 0001:0000e354       ??_Gexception@std@@UAEPAXI@Z 0040f354 f i LIBCMT:stdexcpt.obj
 0001:0000e354       ??_Eexception@std@@UAEPAXI@Z 0040f354 f i LIBCMT:stdexcpt.obj
 0001:0000e370       ??_Gbad_cast@std@@UAEPAXI@Z 0040f370 f i LIBCMT:stdexcpt.obj
 0001:0000e370       ??_Ebad_cast@std@@UAEPAXI@Z 0040f370 f i LIBCMT:stdexcpt.obj
 0001:0000e392       ??_Ebad_typeid@std@@UAEPAXI@Z 0040f392 f i LIBCMT:stdexcpt.obj
 0001:0000e392       ??_Gbad_typeid@std@@UAEPAXI@Z 0040f392 f i LIBCMT:stdexcpt.obj
 0001:0000e3b4       ??_G__non_rtti_object@std@@UAEPAXI@Z 0040f3b4 f i LIBCMT:stdexcpt.obj
 0001:0000e3b4       ??_E__non_rtti_object@std@@UAEPAXI@Z 0040f3b4 f i LIBCMT:stdexcpt.obj
 0001:0000e3d6       _memcpy_s                  0040f3d6 f   LIBCMT:memcpy_s.obj
 0001:0000e451       _memmove_s                 0040f451 f   LIBCMT:memmove_s.obj
 0001:0000e4ac       __initp_misc_invarg        0040f4ac f   LIBCMT:invarg.obj
 0001:0000e4b6       __invoke_watson            0040f4b6 f   LIBCMT:invarg.obj
 0001:0000e5b2       __set_invalid_parameter_handler 0040f5b2 f   LIBCMT:invarg.obj
 0001:0000e5d4       __get_invalid_parameter_handler 0040f5d4 f   LIBCMT:invarg.obj
 0001:0000e5e1       ?_invoke_watson@@YAXPBG00II@Z 0040f5e1 f   LIBCMT:invarg.obj
 0001:0000e5ea       __invalid_parameter        0040f5ea f   LIBCMT:invarg.obj
 0001:0000e60e       __invalid_parameter_noinfo 0040f60e f   LIBCMT:invarg.obj
 0001:0000e61e       ?_invalid_parameter@@YAXPBG00II@Z 0040f61e f   LIBCMT:invarg.obj
 0001:0000e627       __CxxThrowException@8      0040f627 f   LIBCMT:throw.obj
 0001:0000e671       _sprintf                   0040f671 f   LIBCMT:sprintf.obj
 0001:0000e6ec       __sprintf_l                0040f6ec f   LIBCMT:sprintf.obj
 0001:0000e706       _sprintf_s                 0040f706 f   LIBCMT:sprintf.obj
 0001:0000e722       __sprintf_s_l              0040f722 f   LIBCMT:sprintf.obj
 0001:0000e73f       __snprintf_s               0040f73f f   LIBCMT:sprintf.obj
 0001:0000e75e       __snprintf_s_l             0040f75e f   LIBCMT:sprintf.obj
 0001:0000e77e       __sprintf_p                0040f77e f   LIBCMT:sprintf.obj
 0001:0000e79a       __sprintf_p_l              0040f79a f   LIBCMT:sprintf.obj
 0001:0000e7b7       __scprintf                 0040f7b7 f   LIBCMT:sprintf.obj
 0001:0000e7c8       __scprintf_p               0040f7c8 f   LIBCMT:sprintf.obj
 0001:0000e7d9       __scprintf_l               0040f7d9 f   LIBCMT:sprintf.obj
 0001:0000e7ef       __scprintf_p_l             0040f7ef f   LIBCMT:sprintf.obj
 0001:0000e805       __invoke_watson_if_error   0040f805 f i LIBCMT:loctim64.obj
 0001:0000e827       __localtime64_s            0040f827 f   LIBCMT:loctim64.obj
 0001:0000eaec       __localtime64              0040faec f   LIBCMT:loctim64.obj
 0001:0000eb10       __time64                   0040fb10 f   LIBCMT:time64.obj
 0001:0000eb4c       __vsprintf_l               0040fb4c f   LIBCMT:vsprintf.obj
 0001:0000ebc8       _vsprintf                  0040fbc8 f   LIBCMT:vsprintf.obj
 0001:0000ebdf       __vscprintf_helper         0040fbdf f   LIBCMT:vsprintf.obj
 0001:0000ec34       __vscprintf                0040fc34 f   LIBCMT:vsprintf.obj
 0001:0000ec4c       __vscprintf_l              0040fc4c f   LIBCMT:vsprintf.obj
 0001:0000ec66       __vscprintf_p              0040fc66 f   LIBCMT:vsprintf.obj
 0001:0000ec7e       __vscprintf_p_l            0040fc7e f   LIBCMT:vsprintf.obj
 0001:0000ec98       _atol                      0040fc98 f   LIBCMT:atox.obj
 0001:0000eca9       __atol_l                   0040fca9 f   LIBCMT:atox.obj
 0001:0000ecbe       _atoi                      0040fcbe f   LIBCMT:atox.obj
 0001:0000ecc3       __atoi_l                   0040fcc3 f   LIBCMT:atox.obj
 0001:0000ecc8       __atoi64                   0040fcc8 f   LIBCMT:atox.obj
 0001:0000ecd9       __atoi64_l                 0040fcd9 f   LIBCMT:atox.obj
 0001:0000eda7       ___onexitinit              0040fda7 f   LIBCMT:onexit.obj
 0001:0000edd6       __onexit                   0040fdd6 f   LIBCMT:onexit.obj
 0001:0000ee12       _atexit                    0040fe12 f   LIBCMT:onexit.obj
 0001:0000ee24       ??_V@YAXPAX@Z              0040fe24 f   LIBCMT:delete2.obj
 0001:0000ee29       _free                      0040fe29 f   LIBCMT:free.obj
 0001:0000eeb7       _V6_HeapAlloc              0040feb7 f   LIBCMT:malloc.obj
 0001:0000ef06       __heap_alloc               0040ff06 f i LIBCMT:malloc.obj
 0001:0000ef7b       _malloc                    0040ff7b f   LIBCMT:malloc.obj
 0001:0000f040       __alloca_probe_16          00410040 f   LIBCMT:alloca16.obj
 0001:0000f056       __alloca_probe_8           00410056     LIBCMT:alloca16.obj
 0001:0000f070       _strncpy                   00410070 f   LIBCMT:strncpy.obj
 0001:0000f194       __set_osplatform           00410194 f i LIBCMT:wincrt0.obj
 0001:0000f19e       __set_osver                0041019e f i LIBCMT:wincrt0.obj
 0001:0000f1a8       __set_winver               004101a8 f i LIBCMT:wincrt0.obj
 0001:0000f1b2       __set_winmajor             004101b2 f i LIBCMT:wincrt0.obj
 0001:0000f1bc       __set_winminor             004101bc f i LIBCMT:wincrt0.obj
 0001:0000f40b       _WinMainCRTStartup         0041040b f   LIBCMT:wincrt0.obj
 0001:0000f623       ___updatetmbcinfo          00410623 f   LIBCMT:mbctype.obj
 0001:0000f741       __setmbcp_nolock           00410741 f   LIBCMT:mbctype.obj
 0001:0000f91a       __getmbcp                  0041091a f   LIBCMT:mbctype.obj
 0001:0000f956       __setmbcp                  00410956 f   LIBCMT:mbctype.obj
 0001:0000faf0       ___initmbctable            00410af0 f   LIBCMT:mbctype.obj
 0001:0000fb0e       ____setlc_active_func      00410b0e f   LIBCMT:setlocal.obj
 0001:0000fb14       ____unguarded_readlc_active_add_func 00410b14 f   LIBCMT:setlocal.obj
 0001:0000fb1a       ___freetlocinfo            00410b1a f   LIBCMT:setlocal.obj
 0001:0000fc5a       ___addlocaleref            00410c5a f   LIBCMT:setlocal.obj
 0001:0000fce0       ___removelocaleref         00410ce0 f   LIBCMT:setlocal.obj
 0001:0000fdce       ___updatetlocinfo          00410dce f   LIBCMT:setlocal.obj
 0001:0000fe44       __configthreadlocale       00410e44 f   LIBCMT:setlocal.obj
 0001:0000fefd       __free_locale              00410efd f   LIBCMT:setlocal.obj
 0001:0000ff93       ___free_locale             00410f93 f   LIBCMT:setlocal.obj
 0001:0000ff98       __get_current_locale       00410f98 f   LIBCMT:setlocal.obj
 0001:00010020       ___get_current_locale      00411020 f   LIBCMT:setlocal.obj
 0001:00010025       ___init_dummy              00411025 f   LIBCMT:setlocal.obj
 0001:00010028       __strcats                  00411028 f   LIBCMT:setlocal.obj
 0001:00010066       ___lc_strtolc              00411066 f   LIBCMT:setlocal.obj
 0001:0001018f       ___lc_lctostr              0041118f f   LIBCMT:setlocal.obj
 0001:0001036b       __expandlocale             0041136b f   LIBCMT:setlocal.obj
 0001:00010a03       __create_locale            00411a03 f   LIBCMT:setlocal.obj
 0001:00010af6       ___create_locale           00411af6 f   LIBCMT:setlocal.obj
 0001:00010afb       _setlocale                 00411afb f   LIBCMT:setlocal.obj
 0001:00010cd7       __encode_pointer           00411cd7 f   LIBCMT:tidtable.obj
 0001:00010d45       __encoded_null             00411d45 f   LIBCMT:tidtable.obj
 0001:00010d4e       __decode_pointer           00411d4e f   LIBCMT:tidtable.obj
 0001:00010dbc       ___crtTlsAlloc@4           00411dbc f   LIBCMT:tidtable.obj
 0001:00010dc5       ___fls_getvalue@4          00411dc5 f   LIBCMT:tidtable.obj
 0001:00010dda       ___get_flsindex            00411dda f   LIBCMT:tidtable.obj
 0001:00010de0       ___set_flsgetvalue         00411de0 f   LIBCMT:tidtable.obj
 0001:00010e12       ___fls_setvalue@8          00411e12 f   LIBCMT:tidtable.obj
 0001:00010e2b       __mtterm                   00411e2b f   LIBCMT:tidtable.obj
 0001:00010e68       __initptd                  00411e68 f   LIBCMT:tidtable.obj
 0001:00010f27       __getptd_noexit            00411f27 f   LIBCMT:tidtable.obj
 0001:00010f9e       __getptd                   00411f9e f   LIBCMT:tidtable.obj
 0001:00010fb6       __freefls@4                00411fb6 f   LIBCMT:tidtable.obj
 0001:000110d7       __freeptd                  004120d7 f   LIBCMT:tidtable.obj
 0001:00011140       ___threadid                00412140 f   LIBCMT:tidtable.obj
 0001:00011146       ___threadhandle            00412146 f   LIBCMT:tidtable.obj
 0001:0001114c       __mtinit                   0041214c f   LIBCMT:tidtable.obj
 0001:000112d0       __get_errno_from_oserr     004122d0 f   LIBCMT:dosmap.obj
 0001:0001130b       __errno                    0041230b f   LIBCMT:dosmap.obj
 0001:0001131e       ___doserrno                0041231e f   LIBCMT:dosmap.obj
 0001:00011331       __dosmaperr                00412331 f   LIBCMT:dosmap.obj
 0001:0001134f       __set_errno                0041234f f   LIBCMT:dosmap.obj
 0001:0001136a       __get_errno                0041236a f   LIBCMT:dosmap.obj
 0001:00011394       __set_doserrno             00412394 f   LIBCMT:dosmap.obj
 0001:000113af       __get_doserrno             004123af f   LIBCMT:dosmap.obj
 0001:000113d9       _strncmp                   004123d9 f   LIBCMT:strncmp.obj
 0001:00011497       __initp_heap_handler       00412497 f   LIBCMT:handler.obj
 0001:000114a1       ?_set_new_handler@@YAP6AHI@ZP6AHI@Z@Z 004124a1 f   LIBCMT:handler.obj
 0001:000114d2       ?_set_new_handler@@YAP6AHI@ZH@Z 004124d2 f   LIBCMT:handler.obj
 0001:000114db       ?_query_new_handler@@YAP6AHI@ZXZ 004124db f   LIBCMT:handler.obj
 0001:000114e8       __callnewh                 004124e8 f   LIBCMT:handler.obj
 0001:0001150a       __flsbuf                   0041250a f   LIBCMT:_flsbuf.obj
 0001:0001166a       __write_nolock             0041266a f   LIBCMT:write.obj
 0001:00011c30       __write                    00412c30 f   LIBCMT:write.obj
 0001:00011d0c       __fileno                   00412d0c f   LIBCMT:fileno.obj
 0001:00011d39       __flush                    00412d39 f   LIBCMT:fflush.obj
 0001:00011d9b       __fflush_nolock            00412d9b f   LIBCMT:fflush.obj
 0001:00011eb7       _fflush                    00412eb7 f   LIBCMT:fflush.obj
 0001:00011f0a       __flushall                 00412f0a f   LIBCMT:fflush.obj
 0001:00011f13       ___iob_func                00412f13 f   LIBCMT:_file.obj
 0001:00011f19       ___initstdio               00412f19 f   LIBCMT:_file.obj
 0001:00011fca       ___endstdio                00412fca f   LIBCMT:_file.obj
 0001:00011fea       __lock_file                00412fea f   LIBCMT:_file.obj
 0001:00012026       __lock_file2               00413026 f   LIBCMT:_file.obj
 0001:00012054       __unlock_file              00413054 f   LIBCMT:_file.obj
 0001:0001208a       __unlock_file2             0041308a f   LIBCMT:_file.obj
 0001:000120b4       __SEH_prolog4              004130b4 f   LIBCMT:sehprolg4.obj
 0001:000120f9       __SEH_epilog4              004130f9 f   LIBCMT:sehprolg4.obj
 0001:00012140       __except_handler4          00413140 f   LIBCMT:chandler4.obj
 0001:000122d6       __close_nolock             004132d6 f   LIBCMT:close.obj
 0001:0001236a       __close                    0041336a f   LIBCMT:close.obj
 0001:00012437       __freebuf                  00413437 f   LIBCMT:_freebuf.obj
 0001:00012463       __filbuf                   00413463 f   LIBCMT:_filbuf.obj
 0001:00012583       __read_nolock              00413583 f   LIBCMT:read.obj
 0001:00012b44       __read                     00413b44 f   LIBCMT:read.obj
 0001:00012c41       __ioinit                   00413c41 f   LIBCMT:ioinit.obj
 0001:00012e81       __ioterm                   00413e81 f   LIBCMT:ioinit.obj
 0001:00012ecd       __lseek_nolock             00413ecd f   LIBCMT:lseek.obj
 0001:00012f3f       __lseek                    00413f3f f   LIBCMT:lseek.obj
 0001:0001301b       __openfile                 0041401b f   LIBCMT:_open.obj
 0001:000132bb       __getstream                004142bb f   LIBCMT:stream.obj
 0001:000133ec       __local_unwind4            004143ec f   LIBCMT:exsup4.obj
 0001:000134c2       __seh_longjmp_unwind4@4    004144c2 f   LIBCMT:exsup4.obj
 0001:000134de       @_EH4_CallFilterFunc@8     004144de f   LIBCMT:exsup4.obj
 0001:000134f5       @_EH4_TransferToHandler@8  004144f5 f   LIBCMT:exsup4.obj
 0001:0001350e       @_EH4_GlobalUnwind@4       0041450e f   LIBCMT:exsup4.obj
 0001:00013528       @_EH4_LocalUnwind@16       00414528 f   LIBCMT:exsup4.obj
 0001:0001353f       ??0bad_exception@std@@QAE@PBD@Z 0041453f f i LIBCMT:frame.obj
 0001:00013558       ??1bad_exception@std@@UAE@XZ 00414558 f i LIBCMT:frame.obj
 0001:00013563       ??_Ebad_exception@std@@UAEPAXI@Z 00414563 f i LIBCMT:frame.obj
 0001:00013563       ??_Gbad_exception@std@@UAEPAXI@Z 00414563 f i LIBCMT:frame.obj
 0001:00013585       ___TypeMatch               00414585 f   LIBCMT:frame.obj
 0001:000135e1       ___FrameUnwindFilter       004145e1 f   LIBCMT:frame.obj
 0001:00013625       ___FrameUnwindToState      00414625 f   LIBCMT:frame.obj
 0001:0001374b       ___DestructExceptionObject 0041474b f   LIBCMT:frame.obj
 0001:0001379f       ___AdjustPointer           0041479f f   LIBCMT:frame.obj
 0001:000137c4       ?__uncaught_exception@@YA_NXZ 004147c4 f   LIBCMT:frame.obj
 0001:000137d7       ___CxxRegisterExceptionObject 004147d7 f   LIBCMT:frame.obj
 0001:0001388a       ___CxxDetectRethrow        0041488a f   LIBCMT:frame.obj
 0001:000138d6       ___CxxUnregisterExceptionObject 004148d6 f   LIBCMT:frame.obj
 0001:00013a0f       ___CxxQueryExceptionSize   00414a0f f   LIBCMT:frame.obj
 0001:00013a13       ___CxxCallUnwindDtor       00414a13 f   LIBCMT:frame.obj
 0001:00013a45       ___CxxCallUnwindDelDtor    00414a45 f   LIBCMT:frame.obj
 0001:00013a78       ___CxxCallUnwindStdDelDtor 00414a78 f   LIBCMT:frame.obj
 0001:00013aaa       ___CxxCallUnwindVecDtor    00414aaa f   LIBCMT:frame.obj
 0001:00013bd7       ?_is_exception_typeof@@YAHABVtype_info@@PAU_EXCEPTION_POINTERS@@@Z 00414bd7 f   LIBCMT:frame.obj
 0001:00013df5       ___BuildCatchObjectHelper  00414df5 f   LIBCMT:frame.obj
 0001:00013f74       ___BuildCatchObject        00414f74 f   LIBCMT:frame.obj
 0001:00014005       ___CxxExceptionFilter      00415005 f   LIBCMT:frame.obj
 0001:000145fc       ??0bad_exception@std@@QAE@ABV01@@Z 004155fc f i LIBCMT:frame.obj
 0001:00014614       ___InternalCxxFrameHandler 00415614 f   LIBCMT:frame.obj
 0001:000146f8       ?terminate@@YAXXZ          004156f8 f   LIBCMT:hooks.obj
 0001:00014731       ?unexpected@@YAXXZ         00415731 f   LIBCMT:hooks.obj
 0001:00014744       ?_inconsistency@@YAXXZ     00415744 f   LIBCMT:hooks.obj
 0001:0001477b       __initp_eh_hooks           0041577b f   LIBCMT:hooks.obj
 0001:00014790       __CallSettingFrame@12      00415790 f   LIBCMT:lowhelpr.obj
 0001:000147b7       __NLG_Return               004157b7     LIBCMT:lowhelpr.obj
 0001:000147dc       ___report_gsfailure        004157dc f   LIBCMT:gs_report.obj
 0001:00014967       __VEC_memcpy               00415967 f   LIBCMT:p4_memcpy.obj
 0001:00014a4a       __sse2_mathfcns_init       00415a4a f   LIBCMT:mathfcns.obj
 0001:00014a5e       __set_SSE2_enable          00415a5e f   LIBCMT:mathfcns.obj
 0001:00014a80       __ValidateImageBase        00415a80 f   LIBCMT:pesect.obj
 0001:00014ab0       __FindPESection            00415ab0 f   LIBCMT:pesect.obj
 0001:00014b00       __IsNonwritableInCurrentImage 00415b00 f   LIBCMT:pesect.obj
 0001:00014bbb       __amsg_exit                00415bbb f   LIBCMT:crt0dat.obj
 0001:00014bdf       ___crtCorExitProcess       00415bdf f   LIBCMT:crt0dat.obj
 0001:00014c05       ___crtExitProcess          00415c05 f   LIBCMT:crt0dat.obj
 0001:00014c1a       __lockexit                 00415c1a f   LIBCMT:crt0dat.obj
 0001:00014c23       __unlockexit               00415c23 f   LIBCMT:crt0dat.obj
 0001:00014c44       __initterm_e               00415c44 f   LIBCMT:crt0dat.obj
 0001:00014c64       __get_osplatform           00415c64 f   LIBCMT:crt0dat.obj
 0001:00014c9b       __get_osver                00415c9b f   LIBCMT:crt0dat.obj
 0001:00014cd7       __get_winver               00415cd7 f   LIBCMT:crt0dat.obj
 0001:00014d13       __get_winmajor             00415d13 f   LIBCMT:crt0dat.obj
 0001:00014d4f       __get_winminor             00415d4f f   LIBCMT:crt0dat.obj
 0001:00014d8b       __get_wpgmptr              00415d8b f   LIBCMT:crt0dat.obj
 0001:00014dc2       __get_pgmptr               00415dc2 f   LIBCMT:crt0dat.obj
 0001:00014df9       __cinit                    00415df9 f   LIBCMT:crt0dat.obj
 0001:00014f6d       _exit                      00415f6d f   LIBCMT:crt0dat.obj
 0001:00014f7e       __exit                     00415f7e f   LIBCMT:crt0dat.obj
 0001:00014f8f       __cexit                    00415f8f f   LIBCMT:crt0dat.obj
 0001:00014f9e       __c_exit                   00415f9e f   LIBCMT:crt0dat.obj
 0001:00014fad       __init_pointers            00415fad f   LIBCMT:crt0dat.obj
 0001:00014ff9       __initp_misc_winxfltr      00415ff9 f   LIBCMT:winxfltr.obj
 0001:0001502c       __XcptFilter               0041602c f   LIBCMT:winxfltr.obj
 0001:0001518a       ___CppXcptFilter           0041618a f   LIBCMT:winxfltr.obj
 0001:000151a5       _wait_a_bit                004161a5 f i LIBCMT:crtheap.obj
 0001:000151c6       __set_malloc_crt_max_wait  004161c6 f   LIBCMT:crtheap.obj
 0001:000151d6       __malloc_crt               004161d6 f   LIBCMT:crtheap.obj
 0001:00015216       __calloc_crt               00416216 f   LIBCMT:crtheap.obj
 0001:0001525e       __realloc_crt              0041625e f   LIBCMT:crtheap.obj
 0001:000152a9       __recalloc_crt             004162a9 f   LIBCMT:crtheap.obj
 0001:000152f9       @_malloc_crt_fastcall@4    004162f9 f   LIBCMT:crtheap.obj
 0001:00015301       @_calloc_crt_fastcall@8    00416301 f   LIBCMT:crtheap.obj
 0001:0001530b       @_realloc_crt_fastcall@8   0041630b f   LIBCMT:crtheap.obj
 0001:0001536c       __VEC_memzero              0041636c f   LIBCMT:p4_memset.obj
 0001:000153fb       __stbuf                    004163fb f   LIBCMT:_sftbuf.obj
 0001:00015491       __ftbuf                    00416491 f   LIBCMT:_sftbuf.obj
 0001:00015561       _get_int_arg               00416561 f i LIBCMT:output.obj
 0001:0001556e       _get_int64_arg             0041656e f i LIBCMT:output.obj
 0001:0001557e       _get_short_arg             0041657e f i LIBCMT:output.obj
 0001:0001558c       __output_l                 0041658c f   LIBCMT:output.obj
 0001:00015fc1       __output_s_l               00416fc1 f   LIBCMT:outputs.obj
 0001:00016971       __validate_param_reuseA    00417971 f   LIBCMT:outputp.obj
 0001:00016b3b       _get_crtdouble_arg         00417b3b f i LIBCMT:outputp.obj
 0001:00016b4b       __output_p_l               00417b4b f   LIBCMT:outputp.obj
 0001:00017ad3       ?_Type_info_dtor@type_info@@CAXPAV1@@Z 00418ad3 f   LIBCMT:typname.obj
 0001:00017b43       ?_Name_base@type_info@@CAPBDPBV1@PAU__type_info_node@@@Z 00418b43 f   LIBCMT:typname.obj
 0001:00017c38       ?_Type_info_dtor_internal@type_info@@CAXPAV1@@Z 00418c38 f   LIBCMT:typname.obj
 0001:00017ca8       ___unDNameHelper           00418ca8 f   LIBCMT:typname.obj
 0001:00017cd9       ?_Name_base_internal@type_info@@CAPBDPBV1@PAU__type_info_node@@@Z 00418cd9 f   LIBCMT:typname.obj
 0001:00017dc4       ___clean_type_info_names_internal 00418dc4 f   LIBCMT:typname.obj
 0001:00017e20       _strcmp                    00418e20 f   LIBCMT:strcmp.obj
 0001:00017ea8       _abort                     00418ea8 f   LIBCMT:abort.obj
 0001:00017f9b       __set_abort_behavior       00418f9b f   LIBCMT:abort.obj
 0001:00017fb9       __NMSG_WRITE               00418fb9 f   LIBCMT:crt0msg.obj
 0001:00018159       __GET_RTERRMSG             00419159 f   LIBCMT:crt0msg.obj
 0001:00018179       __FF_MSGBANNER             00419179 f   LIBCMT:crt0msg.obj
 0001:000181b2       ___getlocaleinfo           004191b2 f   LIBCMT:inithelp.obj
 0001:0001830c       __initp_misc_purevirt      0041930c f   LIBCMT:inithelp.obj
 0001:00018316       _strcpy_s                  00419316 f   LIBCMT:strcpy_s.obj
 0001:00018380       _strlen                    00419380 f   LIBCMT:strlen.obj
 0001:00018410       _memmove                   00419410 f   LIBCMT:memmove.obj
 0001:00018775       __crt_debugger_hook        00419775 f   LIBCMT:dbghook.obj
 0001:0001877d       __vsnprintf_helper         0041977d f   LIBCMT:vsnprnc.obj
 0001:00018847       __vsnprintf_c              00419847 f   LIBCMT:vsnprnc.obj
 0001:0001886e       __vsnprintf_c_l            0041986e f   LIBCMT:vsnprnc.obj
 0001:00018896       __vsprintf_s_l             00419896 f   LIBCMT:vsnprnc.obj
 0001:0001891c       _vsprintf_s                0041991c f   LIBCMT:vsnprnc.obj
 0001:00018937       __vsnprintf_s_l            00419937 f   LIBCMT:vsnprnc.obj
 0001:00018a3c       __vsnprintf_s              00419a3c f   LIBCMT:vsnprnc.obj
 0001:00018a5a       __vsprintf_p               00419a5a f   LIBCMT:vsnprnc.obj
 0001:00018a81       __vsprintf_p_l             00419a81 f   LIBCMT:vsnprnc.obj
 0001:00018aa9       __set_daylight             00419aa9 f i LIBCMT:tzset.obj
 0001:00018ab5       __set_dstbias              00419ab5 f i LIBCMT:tzset.obj
 0001:00018ac1       __set_timezone             00419ac1 f i LIBCMT:tzset.obj
 0001:000191b9       ___tzset                   0041a1b9 f   LIBCMT:tzset.obj
 0001:00019208       __tzset                    0041a208 f   LIBCMT:tzset.obj
 0001:00019240       __isindst                  0041a240 f   LIBCMT:tzset.obj
 0001:00019281       __gmtime64_s               0041a281 f   LIBCMT:gmtime64.obj
 0001:000194bd       __gmtime64                 0041a4bd f   LIBCMT:gmtime64.obj
 0001:000194e1       __get_daylight             0041a4e1 f   LIBCMT:timeset.obj
 0001:00019515       __get_dstbias              0041a515 f   LIBCMT:timeset.obj
 0001:00019549       __get_timezone             0041a549 f   LIBCMT:timeset.obj
 0001:0001957d       __get_tzname               0041a57d f   LIBCMT:timeset.obj
 0001:0001961f       ___daylight                0041a61f f   LIBCMT:timeset.obj
 0001:00019625       ___dstbias                 0041a625 f   LIBCMT:timeset.obj
 0001:0001962b       ___timezone                0041a62b f   LIBCMT:timeset.obj
 0001:00019631       ___tzname                  0041a631 f   LIBCMT:timeset.obj
 0001:00019640       __alldiv                   0041a640 f   LIBCMT:lldiv.obj
 0001:000196f0       __allrem                   0041a6f0 f   LIBCMT:llrem.obj
 0001:000197a2       __gmtime32_s               0041a7a2 f   LIBCMT:gmtime.obj
 0001:000198cf       ___getgmtimebuf            0041a8cf f   LIBCMT:gmtime.obj
 0001:00019917       __gmtime32                 0041a917 f   LIBCMT:gmtime.obj
 0001:00019940       __aulldiv                  0041a940 f   LIBCMT:ulldiv.obj
 0001:00019bd3       _strtol                    0041abd3 f   LIBCMT:strtol.obj
 0001:00019bfc       __strtol_l                 0041abfc f   LIBCMT:strtol.obj
 0001:00019c17       _strtoul                   0041ac17 f   LIBCMT:strtol.obj
 0001:00019c41       __strtoul_l                0041ac41 f   LIBCMT:strtol.obj
 0001:00019ef0       __strtoi64                 0041aef0 f   LIBCMT:strtoq.obj
 0001:00019f19       __strtoi64_l               0041af19 f   LIBCMT:strtoq.obj
 0001:00019f34       __strtoui64                0041af34 f   LIBCMT:strtoq.obj
 0001:00019f5e       __strtoui64_l              0041af5e f   LIBCMT:strtoq.obj
 0001:00019f79       __msize                    0041af79 f   LIBCMT:msize.obj
 0001:0001a01c       ___heap_select             0041b01c f   LIBCMT:heapinit.obj
 0001:0001a077       __heap_init                0041b077 f   LIBCMT:heapinit.obj
 0001:0001a0d1       __heap_term                0041b0d1 f   LIBCMT:heapinit.obj
 0001:0001a145       __get_heap_handle          0041b145 f   LIBCMT:heapinit.obj
 0001:0001a14b       __mtinitlocks              0041b14b f   LIBCMT:mlock.obj
 0001:0001a194       __mtdeletelocks            0041b194 f   LIBCMT:mlock.obj
 0001:0001a1e9       __unlock                   0041b1e9 f   LIBCMT:mlock.obj
 0001:0001a1fe       __lockerr_exit             0041b1fe f   LIBCMT:mlock.obj
 0001:0001a216       __mtinitlocknum            0041b216 f   LIBCMT:mlock.obj
 0001:0001a2d9       __lock                     0041b2d9 f   LIBCMT:mlock.obj
 0001:0001a30a       __get_sbh_threshold        0041b30a f   LIBCMT:sbheap.obj
 0001:0001a32b       __set_amblksiz             0041b32b f   LIBCMT:sbheap.obj
 0001:0001a371       __get_amblksiz             0041b371 f   LIBCMT:sbheap.obj
 0001:0001a3ad       ___sbh_heap_init           0041b3ad f   LIBCMT:sbheap.obj
 0001:0001a3f5       ___sbh_find_block          0041b3f5 f   LIBCMT:sbheap.obj
 0001:0001a420       ___sbh_free_block          0041b420 f   LIBCMT:sbheap.obj
 0001:0001a734       ___sbh_alloc_new_region    0041b734 f   LIBCMT:sbheap.obj
 0001:0001a7e4       ___sbh_alloc_new_group     0041b7e4 f   LIBCMT:sbheap.obj
 0001:0001a8ea       ___sbh_resize_block        0041b8ea f   LIBCMT:sbheap.obj
 0001:0001abc9       ___sbh_heapmin             0041bbc9 f   LIBCMT:sbheap.obj
 0001:0001ac96       ___sbh_heap_check          0041bc96 f   LIBCMT:sbheap.obj
 0001:0001af78       __set_sbh_threshold        0041bf78 f   LIBCMT:sbheap.obj
 0001:0001b020       ___sbh_alloc_block         0041c020 f   LIBCMT:sbheap.obj
 0001:0001b310       __alloca_probe             0041c310     LIBCMT:chkstk.obj
 0001:0001b310       __chkstk                   0041c310 f   LIBCMT:chkstk.obj
 0001:0001b33b       ?__CxxUnhandledExceptionFilter@@YGJPAU_EXCEPTION_POINTERS@@@Z 0041c33b f   LIBCMT:unhandld.obj
 0001:0001b378       ___CxxSetUnhandledExceptionFilter 0041c378 f   LIBCMT:unhandld.obj
 0001:0001b386       __wincmdln                 0041c386 f   LIBCMT:wincmdln.obj
 0001:0001b3e3       __setenvp                  0041c3e3 f   LIBCMT:stdenvp.obj
 0001:0001b4be       __set_pgmptr               0041c4be f i LIBCMT:stdargv.obj
 0001:0001b660       __setargv                  0041c660 f   LIBCMT:stdargv.obj
 0001:0001b719       ___crtGetEnvironmentStringsA 0041c719 f   LIBCMT:a_env.obj
 0001:0001b84e       __RTC_Initialize           0041c84e f   LIBCMT:initsect.obj
 0001:0001b872       __RTC_Terminate            0041c872 f   LIBCMT:initsect.obj
 0001:0001b896       ___security_init_cookie    0041c896 f   LIBCMT:gs_support.obj
 0001:0001bce6       ___crtLCMapStringA         0041cce6 f   LIBCMT:a_map.obj
 0001:0001bee1       ___crtGetStringTypeA       0041cee1 f   LIBCMT:a_str.obj
 0001:0001bf21       ___pwctype_func            0041cf21 f   LIBCMT:ctype.obj
 0001:0001bf27       ___pctype_func             0041cf27 f   LIBCMT:ctype.obj
 0001:0001c369       ___free_lc_time            0041d369 f   LIBCMT:inittime.obj
 0001:0001c4f9       ___init_time               0041d4f9 f   LIBCMT:inittime.obj
 0001:0001c59f       ___free_lconv_num          0041d59f f   LIBCMT:initnum.obj
 0001:0001c5df       ___init_numeric            0041d5df f   LIBCMT:initnum.obj
 0001:0001c7da       ___free_lconv_mon          0041d7da f   LIBCMT:initmon.obj
 0001:0001c863       ___init_monetary           0041d863 f   LIBCMT:initmon.obj
 0001:0001cb27       ___init_ctype              0041db27 f   LIBCMT:initctyp.obj
 0001:0001cebc       ____mb_cur_max_func        0041debc f   LIBCMT:initctyp.obj
 0001:0001cee5       ____mb_cur_max_l_func      0041dee5 f   LIBCMT:initctyp.obj
 0001:0001cefb       ____lc_codepage_func       0041defb f   LIBCMT:initctyp.obj
 0001:0001cf21       ____lc_collate_cp_func     0041df21 f   LIBCMT:initctyp.obj
 0001:0001cf47       ____lc_handle_func         0041df47 f   LIBCMT:initctyp.obj
 0001:0001cf6d       ___init_collate            0041df6d f   LIBCMT:initcoll.obj
 0001:0001cf70       __Getdays_l                0041df70 f   LIBCMT:strftime.obj
 0001:0001d06e       __Getdays                  0041e06e f   LIBCMT:strftime.obj
 0001:0001d077       __Getmonths_l              0041e077 f   LIBCMT:strftime.obj
 0001:0001d175       __Getmonths                0041e175 f   LIBCMT:strftime.obj
 0001:0001d17e       __Gettnames_l              0041e17e f   LIBCMT:strftime.obj
 0001:0001d4d3       __Gettnames                0041e4d3 f   LIBCMT:strftime.obj
 0001:0001ddee       __Strftime_l               0041edee f   LIBCMT:strftime.obj
 0001:0001df9d       __strftime_l               0041ef9d f   LIBCMT:strftime.obj
 0001:0001dfbb       _strftime                  0041efbb f   LIBCMT:strftime.obj
 0001:0001dfd8       __Strftime                 0041efd8 f   LIBCMT:strftime.obj
 0001:0001dff6       _localeconv                0041eff6 f   LIBCMT:lconv.obj
 0001:0001e01c       _strcat_s                  0041f01c f   LIBCMT:strcat_s.obj
 0001:0001e090       _strcspn                   0041f090 f   LIBCMT:strcspn.obj
 0001:0001e0d6       _strncpy_s                 0041f0d6 f   LIBCMT:strncpy_s.obj
 0001:0001e743       ___get_qualified_locale    0041f743 f   LIBCMT:getqloc.obj
 0001:0001fe98       _memcmp                    00420e98 f   LIBCMT:memcmp.obj
 0001:00021520       _strpbrk                   00422520 f   LIBCMT:strpbrk.obj
 0001:00021560       __lseeki64_nolock          00422560 f   LIBCMT:lseeki64.obj
 0001:000215e3       __lseeki64                 004225e3 f   LIBCMT:lseeki64.obj
 0001:000216fc       __getbuf                   004226fc f   LIBCMT:_getbuf.obj
 0001:00021740       __isatty                   00422740 f   LIBCMT:isatty.obj
 0001:0002179e       __putwch_nolock            0042279e f   LIBCMT:putwch.obj
 0001:00021860       __cputws                   00422860 f   LIBCMT:putwch.obj
 0001:000218fb       __putwch                   004228fb f   LIBCMT:putwch.obj
 0001:00021941       __mbtowc_l                 00422941 f   LIBCMT:mbtowc.obj
 0001:00021a54       _mbtowc                    00422a54 f   LIBCMT:mbtowc.obj
 0001:00021a6b       __isleadbyte_l             00422a6b f i LIBCMT:_wctype.obj
 0001:00021aa1       _isleadbyte                00422aa1 f i LIBCMT:_wctype.obj
 0001:00021aaf       __iswalpha_l               00422aaf f i LIBCMT:_wctype.obj
 0001:00021ac5       _iswalpha                  00422ac5 f i LIBCMT:_wctype.obj
 0001:00021ad6       __iswupper_l               00422ad6 f i LIBCMT:_wctype.obj
 0001:00021ae9       _iswupper                  00422ae9 f i LIBCMT:_wctype.obj
 0001:00021af7       __iswlower_l               00422af7 f i LIBCMT:_wctype.obj
 0001:00021b0a       _iswlower                  00422b0a f i LIBCMT:_wctype.obj
 0001:00021b18       __iswdigit_l               00422b18 f i LIBCMT:_wctype.obj
 0001:00021b2b       _iswdigit                  00422b2b f i LIBCMT:_wctype.obj
 0001:00021b39       __iswxdigit_l              00422b39 f i LIBCMT:_wctype.obj
 0001:00021b4f       _iswxdigit                 00422b4f f i LIBCMT:_wctype.obj
 0001:00021b60       __iswspace_l               00422b60 f i LIBCMT:_wctype.obj
 0001:00021b73       _iswspace                  00422b73 f i LIBCMT:_wctype.obj
 0001:00021b81       __iswpunct_l               00422b81 f i LIBCMT:_wctype.obj
 0001:00021b94       _iswpunct                  00422b94 f i LIBCMT:_wctype.obj
 0001:00021ba2       __iswalnum_l               00422ba2 f i LIBCMT:_wctype.obj
 0001:00021bb8       _iswalnum                  00422bb8 f i LIBCMT:_wctype.obj
 0001:00021bc9       __iswprint_l               00422bc9 f i LIBCMT:_wctype.obj
 0001:00021bdf       _iswprint                  00422bdf f i LIBCMT:_wctype.obj
 0001:00021bf0       __iswgraph_l               00422bf0 f i LIBCMT:_wctype.obj
 0001:00021c06       _iswgraph                  00422c06 f i LIBCMT:_wctype.obj
 0001:00021c17       __iswcntrl_l               00422c17 f i LIBCMT:_wctype.obj
 0001:00021c2a       _iswcntrl                  00422c2a f i LIBCMT:_wctype.obj
 0001:00021c38       _iswascii                  00422c38 f i LIBCMT:_wctype.obj
 0001:00021c44       __iswcsym_l                00422c44 f i LIBCMT:_wctype.obj
 0001:00021c6a       ___iswcsym                 00422c6a f i LIBCMT:_wctype.obj
 0001:00021c8b       __iswcsymf_l               00422c8b f i LIBCMT:_wctype.obj
 0001:00021cb1       ___iswcsymf                00422cb1 f i LIBCMT:_wctype.obj
 0001:00021cd2       __set_osfhnd               00422cd2 f   LIBCMT:osfinfo.obj
 0001:00021d4f       __free_osfhnd              00422d4f f   LIBCMT:osfinfo.obj
 0001:00021dd0       __get_osfhandle            00422dd0 f   LIBCMT:osfinfo.obj
 0001:00021e41       ___lock_fhandle            00422e41 f   LIBCMT:osfinfo.obj
 0001:00021ee1       __unlock_fhandle           00422ee1 f   LIBCMT:osfinfo.obj
 0001:00021f03       __alloc_osfhnd             00422f03 f   LIBCMT:osfinfo.obj
 0001:000220a2       __open_osfhandle           004230a2 f   LIBCMT:osfinfo.obj
 0001:000221b7       __commit                   004231b7 f   LIBCMT:commit.obj
 0001:00022298       __fcloseall                00423298 f   LIBCMT:closeall.obj
 0001:00022337       __initp_misc_initcrit      00423337 f   LIBCMT:initcrit.obj
 0001:00022351       ___crtInitCritSecAndSpinCount 00423351 f   LIBCMT:initcrit.obj
 0001:00022b6f       __open                     00423b6f f   LIBCMT:open.obj
 0001:00022c25       __sopen_helper             00423c25 f   LIBCMT:open.obj
 0001:00022cf1       __sopen                    00423cf1 f   LIBCMT:open.obj
 0001:00022d21       __sopen_s                  00423d21 f   LIBCMT:open.obj
 0001:00022d3f       __mbsicmp_l                00423d3f f   LIBCMT:mbsicmp.obj
 0001:00022f59       __mbsicmp                  00423f59 f   LIBCMT:mbsicmp.obj
 0001:00022f6c       __global_unwind2           00423f6c f   LIBCMT:exsup.obj
 0001:00022fd1       __local_unwind2            00423fd1 f   LIBCMT:exsup.obj
 0001:00023055       __abnormal_termination     00424055 f   LIBCMT:exsup.obj
 0001:00023078       __NLG_Notify1              00424078 f   LIBCMT:exsup.obj
 0001:00023081       __NLG_Notify               00424081 f   LIBCMT:exsup.obj
 0001:00023098       __NLG_Dispatch2            00424098     LIBCMT:exsup.obj
 0001:00023098       __NLG_Dispatch             00424098     LIBCMT:exsup.obj
 0001:000230a0       __NLG_Call                 004240a0 f   LIBCMT:exsup.obj
 0001:000230a2       __NLG_Return2              004240a2     LIBCMT:exsup.obj
 0001:000230a3       __EH_prolog3               004240a3 f   LIBCMT:ehprolg3.obj
 0001:000230d6       __EH_prolog3_catch         004240d6 f   LIBCMT:ehprolg3.obj
 0001:0002310c       __EH_prolog3_GS            0042410c f   LIBCMT:ehprolg3.obj
 0001:00023142       __EH_prolog3_catch_GS      00424142 f   LIBCMT:ehprolg3.obj
 0001:0002317b       __EH_epilog3               0042417b f   LIBCMT:ehprolg3.obj
 0001:0002318f       __EH_epilog3_GS            0042418f f   LIBCMT:ehprolg3.obj
 0001:0002319e       __EH_epilog3_catch_GS      0042419e f   LIBCMT:ehprolg3.obj
 0001:000231ad       ?_ValidateRead@@YAHPBXI@Z  004241ad f   LIBCMT:validate.obj
 0001:000231ba       ?_ValidateWrite@@YAHPAXI@Z 004241ba f   LIBCMT:validate.obj
 0001:000231c7       ?_ValidateExecute@@YAHP6GHXZ@Z 004241c7 f   LIBCMT:validate.obj
 0001:00023224       __get_sse2_info            00424224 f   LIBCMT:cpu_disp.obj
 0001:00023284       ___sse2_available_init     00424284 f   LIBCMT:cpu_disp.obj
 0001:00023291       __initp_misc_cfltcvt_tab   00424291 f   LIBCMT:cmiscdat.obj
 0001:000232b0       __initp_misc_winsig        004242b0 f   LIBCMT:winsig.obj
 0001:00023398       ___get_sigabrt             00424398 f   LIBCMT:winsig.obj
 0001:000233a5       ___fpecode                 004243a5 f   LIBCMT:winsig.obj
 0001:000233ae       ___pxcptinfoptrs           004243ae f   LIBCMT:winsig.obj
 0001:000233b7       _signal                    004243b7 f   LIBCMT:winsig.obj
 0001:000235f4       _raise                     004245f4 f   LIBCMT:winsig.obj
 0001:000237a4       __initp_misc_rand_s        004247a4 f   LIBCMT:rand_s.obj
 0001:000237ae       _rand_s                    004247ae f   LIBCMT:rand_s.obj
 0001:000238b2       __calloc_impl              004248b2 f   LIBCMT:calloc.obj
 0001:000239d0       _calloc                    004249d0 f   LIBCMT:calloc.obj
 0001:00023a0f       _realloc                   00424a0f f   LIBCMT:realloc.obj
 0001:00023c2a       __recalloc                 00424c2a f   LIBCMT:realloc.obj
 0001:00023ca3       _printf                    00424ca3 f   LIBCMT:printf.obj
 0001:00023d52       __printf_l                 00424d52 f   LIBCMT:printf.obj
 0001:00023d68       __printf_s_l               00424d68 f   LIBCMT:printf.obj
 0001:00023d7e       _printf_s                  00424d7e f   LIBCMT:printf.obj
 0001:00023d92       __printf_p_l               00424d92 f   LIBCMT:printf.obj
 0001:00023da8       __printf_p                 00424da8 f   LIBCMT:printf.obj
 0001:00023dbc       __set_printf_count_output  00424dbc f   LIBCMT:printf.obj
 0001:00023de1       __get_printf_count_output  00424de1 f   LIBCMT:printf.obj
 0001:00023df7       __wctomb_s_l               00424df7 f   LIBCMT:wctomb.obj
 0001:00023f56       _wctomb_s                  00424f56 f   LIBCMT:wctomb.obj
 0001:00023f71       __wctomb_l                 00424f71 f   LIBCMT:wctomb.obj
 0001:00023fc0       _wctomb                    00424fc0 f   LIBCMT:wctomb.obj
 0001:00023ff0       __aulldvrm                 00424ff0 f   LIBCMT:ulldvrm.obj
 0001:00024085       ??0Block@HeapManager@@QAE@XZ 00425085 f i LIBCMT:undname.obj
 0001:0002408b       ?Constructor@HeapManager@@QAEXP6APAXI@ZP6AXPAX@Z@Z 0042508b f i LIBCMT:undname.obj
 0001:000240a6       ?Destructor@HeapManager@@QAEXXZ 004250a6 f i LIBCMT:undname.obj
 0001:000240cc       ?getNumberOfDimensions@UnDecorator@@CAHXZ 004250cc f   LIBCMT:undname.obj
 0001:0002412f       ?getTypeEncoding@UnDecorator@@CAHXZ 0042512f f i LIBCMT:undname.obj
 0001:000245a3       ?doUnderScore@UnDecorator@@SAHXZ 004255a3 f i LIBCMT:undname.obj
 0001:000245ae       ?doMSKeywords@UnDecorator@@SAHXZ 004255ae f i LIBCMT:undname.obj
 0001:000245bb       ?doPtr64@UnDecorator@@SAHXZ 004255bb f i LIBCMT:undname.obj
 0001:000245c9       ?doFunctionReturns@UnDecorator@@SAHXZ 004255c9 f i LIBCMT:undname.obj
 0001:000245d7       ?doAllocationModel@UnDecorator@@SAHXZ 004255d7 f i LIBCMT:undname.obj
 0001:000245e5       ?doAllocationLanguage@UnDecorator@@SAHXZ 004255e5 f i LIBCMT:undname.obj
 0001:000245f3       ?doThisTypes@UnDecorator@@SAHXZ 004255f3 f i LIBCMT:undname.obj
 0001:00024605       ?doAccessSpecifiers@UnDecorator@@SAHXZ 00425605 f i LIBCMT:undname.obj
 0001:00024613       ?doThrowTypes@UnDecorator@@SAHXZ 00425613 f i LIBCMT:undname.obj
 0001:00024621       ?doMemberTypes@UnDecorator@@SAHXZ 00425621 f i LIBCMT:undname.obj
 0001:0002462f       ?doNameOnly@UnDecorator@@SAHXZ 0042562f f i LIBCMT:undname.obj
 0001:0002463a       ?doTypeOnly@UnDecorator@@SAHXZ 0042563a f i LIBCMT:undname.obj
 0001:00024645       ?haveTemplateParameters@UnDecorator@@SAHXZ 00425645 f i LIBCMT:undname.obj
 0001:00024650       ?doEcsu@UnDecorator@@SAHXZ 00425650 f i LIBCMT:undname.obj
 0001:0002465e       ?doNoIdentCharCheck@UnDecorator@@SAHXZ 0042565e f i LIBCMT:undname.obj
 0001:00024669       ?doEllipsis@UnDecorator@@SAHXZ 00425669 f i LIBCMT:undname.obj
 0001:00024677       ?UScore@UnDecorator@@SAPBDW4Tokens@@@Z 00425677 f   LIBCMT:undname.obj
 0001:00024690       ?getMemory@HeapManager@@QAEPAXIH@Z 00425690 f   LIBCMT:undname.obj
 0001:00024714       ??0DName@@QAE@XZ           00425714 f i LIBCMT:undname.obj
 0001:00024721       ??0DName@@QAE@PAVDNameNode@@@Z 00425721 f i LIBCMT:undname.obj
 0001:00024733       ??0DName@@QAE@ABV0@@Z      00425733 f i LIBCMT:undname.obj
 0001:000247cf       ?status@DName@@QBE?AW4DNameStatus@@XZ 004257cf f i LIBCMT:undname.obj
 0001:000247d9       ?clearStatus@DName@@QAEXXZ 004257d9 f i LIBCMT:undname.obj
 0001:000247de       ?setPtrRef@DName@@QAEAAV1@XZ 004257de f i LIBCMT:undname.obj
 0001:000247e5       ?isPtrRef@DName@@QBEHXZ    004257e5 f i LIBCMT:undname.obj
 0001:000247ef       ?setIsArray@DName@@QAEXXZ  004257ef f i LIBCMT:undname.obj
 0001:000247f7       ?isArray@DName@@QBEHXZ     004257f7 f i LIBCMT:undname.obj
 0001:00024801       ?isNoTE@DName@@QBEHXZ      00425801 f i LIBCMT:undname.obj
 0001:0002480b       ?setIsNoTE@DName@@QAEXXZ   0042580b f i LIBCMT:undname.obj
 0001:00024813       ?isPinPtr@DName@@QBEHXZ    00425813 f i LIBCMT:undname.obj
 0001:0002481d       ?setIsPinPtr@DName@@QAEXXZ 0042581d f i LIBCMT:undname.obj
 0001:00024825       ?isComArray@DName@@QBEHXZ  00425825 f i LIBCMT:undname.obj
 0001:0002482f       ?setIsComArray@DName@@QAEXXZ 0042582f f i LIBCMT:undname.obj
 0001:00024837       ?isVCallThunk@DName@@QBEHXZ 00425837 f i LIBCMT:undname.obj
 0001:00024841       ?setIsVCallThunk@DName@@QAEXXZ 00425841 f i LIBCMT:undname.obj
 0001:00024849       ??4DName@@QAEAAV0@ABV0@@Z  00425849 f   LIBCMT:undname.obj
 0001:000248c4       ?isFull@Replicator@@QBEHXZ 004258c4 f i LIBCMT:undname.obj
 0001:000248cd       ??AReplicator@@QBEABVDName@@H@Z 004258cd f   LIBCMT:undname.obj
 0001:000248f2       ??0DNameNode@@IAE@XZ       004258f2 f   LIBCMT:undname.obj
 0001:000248ff       ?nextNode@DNameNode@@QBEPAV1@XZ 004258ff f i LIBCMT:undname.obj
 0001:00024903       ??YDNameNode@@QAEAAV0@PAV0@@Z 00425903 f   LIBCMT:undname.obj
 0001:0002492c       ??0charNode@@QAE@D@Z       0042592c f   LIBCMT:undname.obj
 0001:00024942       ?length@charNode@@UBEHXZ   00425942 f i LIBCMT:undname.obj
 0001:00024946       ?getLastChar@charNode@@UBEDXZ 00425946 f i LIBCMT:undname.obj
 0001:0002494a       ?getString@charNode@@UBEPADPADH@Z 0042594a f   LIBCMT:undname.obj
 0001:00024965       ?length@pcharNode@@UBEHXZ  00425965 f i LIBCMT:undname.obj
 0001:00024969       ??0pDNameNode@@QAE@PAVDName@@@Z 00425969 f   LIBCMT:undname.obj
 0001:00024998       ??0DNameStatusNode@@QAE@W4DNameStatus@@@Z 00425998 f   LIBCMT:undname.obj
 0001:000249bd       ?length@DNameStatusNode@@UBEHXZ 004259bd f i LIBCMT:undname.obj
 0001:000249c1       ?getLastChar@DNameStatusNode@@UBEDXZ 004259c1 f i LIBCMT:undname.obj
 0001:00024a21       ?getDataIndirectType@UnDecorator@@CA?AVDName@@XZ 00425a21 f i LIBCMT:undname.obj
 0001:00024a54       ?getThisType@UnDecorator@@CA?AVDName@@XZ 00425a54 f i LIBCMT:undname.obj
 0001:00024a88       ??2@YAPAXIAAVHeapManager@@H@Z 00425a88 f i LIBCMT:undname.obj
 0001:00024a9b       ??0DName@@QAE@PAV0@@Z      00425a9b f   LIBCMT:undname.obj
 0001:00024af1       ??0DName@@QAE@W4DNameStatus@@@Z 00425af1 f   LIBCMT:undname.obj
 0001:00024b52       ?isValid@DName@@QBEHXZ     00425b52 f   LIBCMT:undname.obj
 0001:00024b69       ?isEmpty@DName@@QBEHXZ     00425b69 f   LIBCMT:undname.obj
 0001:00024b7e       ?isUDC@DName@@QBEHXZ       00425b7e f i LIBCMT:undname.obj
 0001:00024b92       ?setIsUDC@DName@@QAEXXZ    00425b92 f i LIBCMT:undname.obj
 0001:00024ba0       ?isUDTThunk@DName@@QBEHXZ  00425ba0 f i LIBCMT:undname.obj
 0001:00024bb4       ?length@DName@@QBEHXZ      00425bb4 f   LIBCMT:undname.obj
 0001:00024bd9       ?getLastChar@DName@@QBEDXZ 00425bd9 f   LIBCMT:undname.obj
 0001:00024c11       ?getString@DName@@QBEPADPADH@Z 00425c11 f   LIBCMT:undname.obj
 0001:00024ca2       ??_5DName@@QAEAAV0@ABV0@@Z 00425ca2 f   LIBCMT:undname.obj
 0001:00024cd7       ??4DName@@QAEAAV0@W4DNameStatus@@@Z 00425cd7 f   LIBCMT:undname.obj
 0001:00024d58       ??0Replicator@@QAE@XZ      00425d58 f i LIBCMT:undname.obj
 0001:00024d76       ??YReplicator@@QAEAAV0@ABVDName@@@Z 00425d76 f   LIBCMT:undname.obj
 0001:00024dbd       ?clone@DNameNode@@QAEPAV1@XZ 00425dbd f   LIBCMT:undname.obj
 0001:00024e04       ??0pcharNode@@QAE@PBDH@Z   00425e04 f   LIBCMT:undname.obj
 0001:00024e69       ?getLastChar@pcharNode@@UBEDXZ 00425e69 f i LIBCMT:undname.obj
 0001:00024e7b       ?getString@pcharNode@@UBEPADPADH@Z 00425e7b f   LIBCMT:undname.obj
 0001:00024eac       ?length@pDNameNode@@UBEHXZ 00425eac f i LIBCMT:undname.obj
 0001:00024ebb       ?getLastChar@pDNameNode@@UBEDXZ 00425ebb f i LIBCMT:undname.obj
 0001:00024eca       ?getString@pDNameNode@@UBEPADPADH@Z 00425eca f   LIBCMT:undname.obj
 0001:00024ee7       ?getString@DNameStatusNode@@UBEPADPADH@Z 00425ee7 f   LIBCMT:undname.obj
 0001:00024f1a       ??0UnDecorator@@QAE@PADPBDHP6APADJ@ZK@Z 00425f1a f i LIBCMT:undname.obj
 0001:00024f8d       ?getReturnType@UnDecorator@@CA?AVDName@@PAV2@@Z 00425f8d f   LIBCMT:undname.obj
 0001:00024fbc       ?getStorageConvention@UnDecorator@@CA?AVDName@@XZ 00425fbc f i LIBCMT:undname.obj
 0001:00024fcb       ??YDName@@QAEAAV0@W4DNameStatus@@@Z 00425fcb f   LIBCMT:undname.obj
 0001:00025044       ??4DName@@QAEAAV0@PAV0@@Z  00426044 f   LIBCMT:undname.obj
 0001:000250ac       ?doPchar@DName@@AAEXPBDH@Z 004260ac f   LIBCMT:undname.obj
 0001:00025152       ??0DName@@QAE@D@Z          00426152 f   LIBCMT:undname.obj
 0001:00025178       ??0DName@@QAE@PBD@Z        00426178 f   LIBCMT:undname.obj
 0001:000251a9       ??0DName@@QAE@AAPBDD@Z     004261a9 f   LIBCMT:undname.obj
 0001:00025279       ??0DName@@QAE@_K@Z         00426279 f   LIBCMT:undname.obj
 0001:000252e2       ??0DName@@QAE@_J@Z         004262e2 f   LIBCMT:undname.obj
 0001:00025378       ??HDName@@QBE?AV0@W4DNameStatus@@@Z 00426378 f   LIBCMT:undname.obj
 0001:000253a6       ??YDName@@QAEAAV0@ABV0@@Z  004263a6 f   LIBCMT:undname.obj
 0001:00025408       ??YDName@@QAEAAV0@PAV0@@Z  00426408 f   LIBCMT:undname.obj
 0001:00025493       ??4DName@@QAEAAV0@D@Z      00426493 f   LIBCMT:undname.obj
 0001:000254af       ??4DName@@QAEAAV0@PBD@Z    004264af f   LIBCMT:undname.obj
 0001:000254d9       ?getCallingConvention@UnDecorator@@CA?AVDName@@XZ 004264d9 f   LIBCMT:undname.obj
 0001:0002557f       ?getVCallThunkType@UnDecorator@@CA?AVDName@@XZ 0042657f f i LIBCMT:undname.obj
 0001:000255b6       ??HDName@@QBE?AV0@ABV0@@Z  004265b6 f   LIBCMT:undname.obj
 0001:00025607       ??HDName@@QBE?AV0@PAV0@@Z  00426607 f   LIBCMT:undname.obj
 0001:00025635       ??YDName@@QAEAAV0@D@Z      00426635 f   LIBCMT:undname.obj
 0001:0002569f       ??YDName@@QAEAAV0@PBD@Z    0042669f f   LIBCMT:undname.obj
 0001:0002570b       ?getArgumentList@UnDecorator@@CA?AVDName@@XZ 0042670b f   LIBCMT:undname.obj
 0001:000257eb       ?getVdispMapType@UnDecorator@@CA?AVDName@@ABV2@@Z 004267eb f i LIBCMT:undname.obj
 0001:0002583a       ??H@YA?AVDName@@DABV0@@Z   0042683a f i LIBCMT:undname.obj
 0001:0002585c       ??H@YA?AVDName@@W4DNameStatus@@ABV0@@Z 0042685c f i LIBCMT:undname.obj
 0001:0002587e       ??H@YA?AVDName@@PBDABV0@@Z 0042687e f i LIBCMT:undname.obj
 0001:000258a0       ??HDName@@QBE?AV0@D@Z      004268a0 f   LIBCMT:undname.obj
 0001:000258ce       ??HDName@@QBE?AV0@PBD@Z    004268ce f   LIBCMT:undname.obj
 0001:000258fc       ?getDimension@UnDecorator@@CA?AVDName@@_N@Z 004268fc f   LIBCMT:undname.obj
 0001:00025a3d       ?getEnumType@UnDecorator@@CA?AVDName@@XZ 00426a3d f i LIBCMT:undname.obj
 0001:00025b11       ?getArgumentTypes@UnDecorator@@CA?AVDName@@XZ 00426b11 f   LIBCMT:undname.obj
 0001:00025bd5       ?getThrowTypes@UnDecorator@@CA?AVDName@@XZ 00426bd5 f   LIBCMT:undname.obj
 0001:00025c53       ?getExtendedDataIndirectType@UnDecorator@@CA?AVDName@@AADAA_NH@Z 00426c53 f   LIBCMT:undname.obj
 0001:00025d78       ?getArrayType@UnDecorator@@CA?AVDName@@ABV2@@Z 00426d78 f i LIBCMT:undname.obj
 0001:00025ed7       ?getLexicalFrame@UnDecorator@@CA?AVDName@@XZ 00426ed7 f i LIBCMT:undname.obj
 0001:00025f08       ?getDisplacement@UnDecorator@@CA?AVDName@@XZ 00426f08 f i LIBCMT:undname.obj
 0001:00025f1a       ?getCallIndex@UnDecorator@@CA?AVDName@@XZ 00426f1a f i LIBCMT:undname.obj
 0001:00025f2c       ?getGuardNumber@UnDecorator@@CA?AVDName@@XZ 00426f2c f i LIBCMT:undname.obj
 0001:00025f3e       ?getVfTableType@UnDecorator@@CA?AVDName@@ABV2@@Z 00426f3e f i LIBCMT:undname.obj
 0001:0002608e       ?getStringEncoding@UnDecorator@@CA?AVDName@@PADH@Z 0042708e f   LIBCMT:undname.obj
 0001:0002612e       ?getSignedDimension@UnDecorator@@CA?AVDName@@XZ 0042712e f   LIBCMT:undname.obj
 0001:0002617e       ?getTemplateConstant@UnDecorator@@CA?AVDName@@XZ 0042717e f   LIBCMT:undname.obj
 0001:00026439       ?getPtrRefDataType@UnDecorator@@CA?AVDName@@ABV2@H@Z 00427439 f i LIBCMT:undname.obj
 0001:00026512       ?getVbTableType@UnDecorator@@CA?AVDName@@ABV2@@Z 00427512 f i LIBCMT:undname.obj
 0001:00026526       ?getTemplateArgumentList@UnDecorator@@CA?AVDName@@XZ 00427526 f   LIBCMT:undname.obj
 0001:000266de       ?getOperatorName@UnDecorator@@CA?AVDName@@_NPA_N@Z 004276de f i LIBCMT:undname.obj
 0001:00026c4d       ?getTemplateName@UnDecorator@@CA?AVDName@@_N@Z 00427c4d f   LIBCMT:undname.obj
 0001:00026da0       ?getZName@UnDecorator@@CA?AVDName@@_N@Z 00427da0 f   LIBCMT:undname.obj
 0001:00026f8a       ?getScopedName@UnDecorator@@CA?AVDName@@XZ 00427f8a f   LIBCMT:undname.obj
 0001:0002706e       ?getECSUName@UnDecorator@@CA?AVDName@@XZ 0042806e f i LIBCMT:undname.obj
 0001:0002707d       ?getECSUDataType@UnDecorator@@CA?AVDName@@XZ 0042807d f   LIBCMT:undname.obj
 0001:0002717d       ?getSymbolName@UnDecorator@@CA?AVDName@@XZ 0042817d f i LIBCMT:undname.obj
 0001:000271c3       ?getBasedType@UnDecorator@@CA?AVDName@@XZ 004281c3 f   LIBCMT:undname.obj
 0001:00027255       ?composeDeclaration@UnDecorator@@CA?AVDName@@ABV2@@Z 00428255 f i LIBCMT:undname.obj
 0001:00027d97       ?getDecoratedName@UnDecorator@@CA?AVDName@@XZ 00428d97 f   LIBCMT:undname.obj
 0001:00027fa8       ?getScope@UnDecorator@@CA?AVDName@@XZ 00428fa8 f   LIBCMT:undname.obj
 0001:00028233       ?getFunctionIndirectType@UnDecorator@@CA?AVDName@@ABV2@@Z 00429233 f   LIBCMT:undname.obj
 0001:00028574       ?getDataIndirectType@UnDecorator@@CA?AVDName@@ABV2@D0H@Z 00429574 f   LIBCMT:undname.obj
 0001:00028a58       ??BUnDecorator@@QAEPADXZ   00429a58 f i LIBCMT:undname.obj
 0001:00028ba4       ?getPtrRefType@UnDecorator@@CA?AVDName@@ABV2@0D@Z 00429ba4 f   LIBCMT:undname.obj
 0001:00028cba       ?getPointerType@UnDecorator@@CA?AVDName@@ABV2@0@Z 00429cba f i LIBCMT:undname.obj
 0001:00028cd5       ?getPointerTypeArray@UnDecorator@@CA?AVDName@@ABV2@0@Z 00429cd5 f i LIBCMT:undname.obj
 0001:00028cf0       ?getReferenceType@UnDecorator@@CA?AVDName@@ABV2@0@Z 00429cf0 f i LIBCMT:undname.obj
 0001:00028d0b       ___unDName                 00429d0b f   LIBCMT:undname.obj
 0001:00028dae       ___unDNameEx               00429dae f   LIBCMT:undname.obj
 0001:00028e51       ?getBasicDataType@UnDecorator@@CA?AVDName@@ABV2@@Z 00429e51 f   LIBCMT:undname.obj
 0001:000291d8       ?getPrimaryDataType@UnDecorator@@CA?AVDName@@ABV2@@Z 0042a1d8 f   LIBCMT:undname.obj
 0001:00029316       ?getDataType@UnDecorator@@CA?AVDName@@PAV2@@Z 0042a316 f   LIBCMT:undname.obj
 0001:000293c7       ?getExternalDataType@UnDecorator@@CA?AVDName@@ABV2@@Z 0042a3c7 f i LIBCMT:undname.obj
 0001:0002942b       ___crtMessageBoxA          0042a42b f   LIBCMT:crtmbox.obj
 0001:000295e8       __set_error_mode           0042a5e8 f   LIBCMT:errmode.obj
 0001:0002962e       ___set_app_type            0042a62e f   LIBCMT:errmode.obj
 0001:00029638       ___get_app_type            0042a638 f   LIBCMT:errmode.obj
 0001:0002963e       __isalpha_l                0042a63e f i LIBCMT:_ctype.obj
 0001:00029692       _isalpha                   0042a692 f i LIBCMT:_ctype.obj
 0001:000296bd       __isupper_l                0042a6bd f i LIBCMT:_ctype.obj
 0001:0002970c       _isupper                   0042a70c f i LIBCMT:_ctype.obj
 0001:00029735       __islower_l                0042a735 f i LIBCMT:_ctype.obj
 0001:00029784       _islower                   0042a784 f i LIBCMT:_ctype.obj
 0001:000297ad       __isdigit_l                0042a7ad f i LIBCMT:_ctype.obj
 0001:000297fc       _isdigit                   0042a7fc f i LIBCMT:_ctype.obj
 0001:00029825       __isxdigit_l               0042a825 f i LIBCMT:_ctype.obj
 0001:00029879       _isxdigit                  0042a879 f i LIBCMT:_ctype.obj
 0001:000298a4       __isspace_l                0042a8a4 f i LIBCMT:_ctype.obj
 0001:000298f3       _isspace                   0042a8f3 f i LIBCMT:_ctype.obj
 0001:0002991c       __ispunct_l                0042a91c f i LIBCMT:_ctype.obj
 0001:0002996b       _ispunct                   0042a96b f i LIBCMT:_ctype.obj
 0001:00029994       __isalnum_l                0042a994 f i LIBCMT:_ctype.obj
 0001:000299e8       _isalnum                   0042a9e8 f i LIBCMT:_ctype.obj
 0001:00029a13       __isprint_l                0042aa13 f i LIBCMT:_ctype.obj
 0001:00029a67       _isprint                   0042aa67 f i LIBCMT:_ctype.obj
 0001:00029a92       __isgraph_l                0042aa92 f i LIBCMT:_ctype.obj
 0001:00029ae6       _isgraph                   0042aae6 f i LIBCMT:_ctype.obj
 0001:00029b11       __iscntrl_l                0042ab11 f i LIBCMT:_ctype.obj
 0001:00029b60       _iscntrl                   0042ab60 f i LIBCMT:_ctype.obj
 0001:00029b89       ___isascii                 0042ab89 f i LIBCMT:_ctype.obj
 0001:00029b96       ___toascii                 0042ab96 f i LIBCMT:_ctype.obj
 0001:00029b9e       __iscsymf_l                0042ab9e f i LIBCMT:_ctype.obj
 0001:00029bbd       ___iscsymf                 0042abbd f i LIBCMT:_ctype.obj
 0001:00029bd7       __iscsym_l                 0042abd7 f i LIBCMT:_ctype.obj
 0001:00029bf6       ___iscsym                  0042abf6 f i LIBCMT:_ctype.obj
 0001:00029d4d       ___crtGetLocaleInfoW       0042ad4d f   LIBCMT:w_loc.obj
 0001:00029ec5       ___crtGetLocaleInfoA       0042aec5 f   LIBCMT:a_loc.obj
 0001:00029f00       __getenv_helper_nolock     0042af00 f   LIBCMT:getenv.obj
 0001:0002a0b6       _getenv                    0042b0b6 f   LIBCMT:getenv.obj
 0001:0002a139       _getenv_s                  0042b139 f   LIBCMT:getenv.obj
 0001:0002a211       __dupenv_s                 0042b211 f   LIBCMT:getenv.obj
 0001:0002a300       __allmul                   0042b300 f   LIBCMT:llmul.obj
 0001:0002a334       __isctype_l                0042b334 f   LIBCMT:isctype.obj
 0001:0002a3ea       __isctype                  0042b3ea f   LIBCMT:isctype.obj
 0001:0002a46a       __ismbbkalnum_l            0042b46a f   LIBCMT:ismbbyte.obj
 0001:0002a47f       __ismbbkalnum              0042b47f f   LIBCMT:ismbbyte.obj
 0001:0002a492       __ismbbkprint_l            0042b492 f   LIBCMT:ismbbyte.obj
 0001:0002a4a7       __ismbbkprint              0042b4a7 f   LIBCMT:ismbbyte.obj
 0001:0002a4ba       __ismbbkpunct_l            0042b4ba f   LIBCMT:ismbbyte.obj
 0001:0002a4cf       __ismbbkpunct              0042b4cf f   LIBCMT:ismbbyte.obj
 0001:0002a4e2       __ismbbalnum_l             0042b4e2 f   LIBCMT:ismbbyte.obj
 0001:0002a4fa       __ismbbalnum               0042b4fa f   LIBCMT:ismbbyte.obj
 0001:0002a510       __ismbbalpha_l             0042b510 f   LIBCMT:ismbbyte.obj
 0001:0002a528       __ismbbalpha               0042b528 f   LIBCMT:ismbbyte.obj
 0001:0002a53e       __ismbbgraph_l             0042b53e f   LIBCMT:ismbbyte.obj
 0001:0002a556       __ismbbgraph               0042b556 f   LIBCMT:ismbbyte.obj
 0001:0002a56c       __ismbbprint_l             0042b56c f   LIBCMT:ismbbyte.obj
 0001:0002a584       __ismbbprint               0042b584 f   LIBCMT:ismbbyte.obj
 0001:0002a59a       __ismbbpunct_l             0042b59a f   LIBCMT:ismbbyte.obj
 0001:0002a5af       __ismbbpunct               0042b5af f   LIBCMT:ismbbyte.obj
 0001:0002a5c2       __ismbblead_l              0042b5c2 f   LIBCMT:ismbbyte.obj
 0001:0002a5d7       __ismbblead                0042b5d7 f   LIBCMT:ismbbyte.obj
 0001:0002a5ea       __ismbbtrail_l             0042b5ea f   LIBCMT:ismbbyte.obj
 0001:0002a5ff       __ismbbtrail               0042b5ff f   LIBCMT:ismbbyte.obj
 0001:0002a612       __ismbbkana_l              0042b612 f   LIBCMT:ismbbyte.obj
 0001:0002a665       __ismbbkana                0042b665 f   LIBCMT:ismbbyte.obj
 0001:0002a673       ___ansicp                  0042b673 f   LIBCMT:convrtcp.obj
 0001:0002a6ba       ___convertcp               0042b6ba f   LIBCMT:convrtcp.obj
 0001:0002a86c       ___ascii_stricmp           0042b86c f   LIBCMT:stricmp.obj
 0001:0002a8a1       __stricmp_l                0042b8a1 f   LIBCMT:stricmp.obj
 0001:0002a974       _strcmpi                   0042b974 f   LIBCMT:stricmp.obj
 0001:0002a974       _stricmp                   0042b974 f   LIBCMT:stricmp.obj
 0001:0002a974       __stricmp                  0042b974 f   LIBCMT:stricmp.obj
 0001:0002a9c4       __strnicmp_l               0042b9c4 f   LIBCMT:strnicmp.obj
 0001:0002aab4       __strnicmp                 0042bab4 f   LIBCMT:strnicmp.obj
 0001:0002abeb       __itoa_s                   0042bbeb f   LIBCMT:xtoas.obj
 0001:0002ac13       __ltoa_s                   0042bc13 f   LIBCMT:xtoas.obj
 0001:0002ac38       __ultoa_s                  0042bc38 f   LIBCMT:xtoas.obj
 0001:0002ad46       __i64toa_s                 0042bd46 f   LIBCMT:xtoas.obj
 0001:0002ad79       __ui64toa_s                0042bd79 f   LIBCMT:xtoas.obj
 0001:0002ad96       ___initconin               0042bd96 f   LIBCMT:initcon.obj
 0001:0002adb5       ___initconout              0042bdb5 f   LIBCMT:initcon.obj
 0001:0002add4       ___termcon                 0042bdd4 f   LIBCMT:initcon.obj
 0001:0002ae01       _wcslen                    0042be01 f   LIBCMT:wcslen.obj
 0001:0002ae17       __iswctype_l               0042be17 f   LIBCMT:iswctype.obj
 0001:0002ae99       _iswctype                  0042be99 f   LIBCMT:iswctype.obj
 0001:0002af07       _is_wctype                 0042bf07 f   LIBCMT:iswctype.obj
 0001:0002af0c       __chsize_nolock            0042bf0c f   LIBCMT:chsize.obj
 0001:0002b0c0       __chsize_s                 0042c0c0 f   LIBCMT:chsize.obj
 0001:0002b1ad       __chsize                   0042c1ad f   LIBCMT:chsize.obj
 0001:0002b1c5       __setmode_nolock           0042c1c5 f   LIBCMT:setmode.obj
 0001:0002b281       __set_fmode                0042c281 f   LIBCMT:setmode.obj
 0001:0002b2c7       __get_fmode                0042c2c7 f   LIBCMT:setmode.obj
 0001:0002b2fb       __setmode                  0042c2fb f   LIBCMT:setmode.obj
 0001:0002b3f2       __fptrap                   0042c3f2 f   LIBCMT:crt0fp.obj
 0001:0002b3fb       _vprintf_helper            0042c3fb f   LIBCMT:vprintf.obj
 0001:0002b48b       __vprintf_l                0042c48b f   LIBCMT:vprintf.obj
 0001:0002b4a5       __vprintf_s_l              0042c4a5 f   LIBCMT:vprintf.obj
 0001:0002b4bf       __vprintf_p_l              0042c4bf f   LIBCMT:vprintf.obj
 0001:0002b4d9       _vprintf                   0042c4d9 f   LIBCMT:vprintf.obj
 0001:0002b4f1       _vprintf_s                 0042c4f1 f   LIBCMT:vprintf.obj
 0001:0002b509       __vprintf_p                0042c509 f   LIBCMT:vprintf.obj
 0001:0002b521       __mbsnbicoll_l             0042c521 f   LIBCMT:mbsnbico.obj
 0001:0002b60d       __mbsnbicoll               0042c60d f   LIBCMT:mbsnbico.obj
 0001:0002b624       ___wtomb_environ           0042c624 f   LIBCMT:wtombenv.obj
 0001:0002b6b9       _strnlen                   0042c6b9 f   LIBCMT:strlen_s.obj
 0001:0002b6d3       __tolower                  0042c6d3 f   LIBCMT:tolower.obj
 0001:0002b6db       __tolower_l                0042c6db f   LIBCMT:tolower.obj
 0001:0002b7f2       _tolower                   0042c7f2 f   LIBCMT:tolower.obj
 0001:0002b820       ___ascii_strnicmp          0042c820 f   LIBCMT:_strnicm.obj
 0001:0002baa5       ___crtGetStringTypeW       0042caa5 f   LIBCMT:w_str.obj
 0001:0002be86       ___crtCompareStringA       0042ce86 f   LIBCMT:a_cmp.obj
 0001:0002bec6       __strnicoll_l              0042cec6 f   LIBCMT:strnicol.obj
 0001:0002bfbe       __strnicoll                0042cfbe f   LIBCMT:strnicol.obj
 0001:0002c08f       ___crtsetenv               0042d08f f   LIBCMT:setenv.obj
 0001:0002c2db       __strdup                   0042d2db f   LIBCMT:strdup.obj
 0001:0002c32b       __mbschr_l                 0042d32b f   LIBCMT:mbschr.obj
 0001:0002c3e5       __mbschr                   0042d3e5 f   LIBCMT:mbschr.obj
 0001:0002c410       _strchr                    0042d410 f   LIBCMT:strchr.obj
 0001:0002c416       ___from_strstr_to_strchr   0042d416     LIBCMT:strchr.obj
 0001:0002c4ce       ??0invalid_argument@std@@QAE@ABV?$basic_string@DU?$char_traits@D@std@@V?$allocator@D@2@@1@@Z 0042d4ce f i libcpmt:string.obj
 0001:0002c4e6       ??1invalid_argument@std@@UAE@XZ 0042d4e6 f i libcpmt:string.obj
 0001:0002c4f1       ??_Ginvalid_argument@std@@UAEPAXI@Z 0042d4f1 f i libcpmt:string.obj
 0001:0002c4f1       ??_Einvalid_argument@std@@UAEPAXI@Z 0042d4f1 f i libcpmt:string.obj
 0001:0002c513       ?_Xlen@_String_base@std@@SAXXZ 0042d513 f   libcpmt:string.obj
 0001:0002c552       ?_Xran@_String_base@std@@SAXXZ 0042d552 f   libcpmt:string.obj
 0001:0002c591       ?_Xinvarg@_String_base@std@@SAXXZ 0042d591 f   libcpmt:string.obj
 0001:0002c5d0       ??0invalid_argument@std@@QAE@ABV01@@Z 0042d5d0 f i libcpmt:string.obj
 0001:0002c5f0       ?_set_com_error_handler@@YGXP6GXJPAUIErrorInfo@@@Z@Z 0042d5f0 f   comsuppw:comsupp.obj
 0001:0002c600       ?_com_issue_error@@YGXJ@Z  0042d600 f   comsuppw:comsupp.obj
 0001:0002c610       ?_com_issue_errorex@@YGXJPAUIUnknown@@ABU_GUID@@@Z 0042d610 f   comsuppw:comsupp.obj
 0001:0002c690       ?_com_dispatch_method@@YAJPAUIDispatch@@JGGPAXPB_WZZ 0042d690 f   comsuppw:comsupp.obj
 0001:0002c6e0       ?_com_dispatch_propget@@YGJPAUIDispatch@@JGPAX@Z 0042d6e0 f   comsuppw:comsupp.obj
 0001:0002c710       ?_com_dispatch_propput@@YAJPAUIDispatch@@JGZZ 0042d710 f   comsuppw:comsupp.obj
 0001:0002c780       ?ConvertStringToBSTR@_com_util@@YGPA_WPBD@Z 0042d780 f   comsuppw:comutil.obj
 0001:0002c910       ?ConvertBSTRToString@_com_util@@YGPADPA_W@Z 0042d910 f   comsuppw:comutil.obj
 0001:0002ca70       ??0_com_error@@QAE@JPAUIErrorInfo@@_N@Z 0042da70 f i comsuppw:comraise.obj
 0001:0002cab0       ?_com_raise_error@@YGXJPAUIErrorInfo@@@Z 0042dab0 f   comsuppw:comraise.obj
 0001:0002caf0       ??0_com_error@@QAE@ABV0@@Z 0042daf0 f i comsuppw:comraise.obj
 0001:0002cb30       ?_com_invoke_helper@@YAJPAUIDispatch@@JGGPAXPB_WPADPAPAUIErrorInfo@@@Z 0042db30 f   comsuppw:invkprxy.obj
 0001:0002d110       ?_com_dispatch_raw_method@@YAJPAUIDispatch@@JGGPAXPB_WZZ 0042e110 f   comsuppw:invkprxy.obj
 0001:0002d160       ?_com_dispatch_raw_propget@@YGJPAUIDispatch@@JGPAX@Z 0042e160 f   comsuppw:invkprxy.obj
 0001:0002d190       ?_com_dispatch_raw_propput@@YAJPAUIDispatch@@JGZZ 0042e190 f   comsuppw:invkprxy.obj
 0001:0002d200       ?WCodeToHRESULT@_com_error@@SAJG@Z 0042e200 f i comsuppw:invkerr.obj
 0001:0002d220       ?_com_handle_excepinfo@@YGJAAUtagEXCEPINFO@@PAPAUIErrorInfo@@@Z 0042e220 f   comsuppw:invkerr.obj
 0001:0002d32e       _RtlUnwind@16              0042e32e f   kernel32:KERNEL32.dll
 0001:0002d334       _ExitThread@4              0042e334 f   kernel32:KERNEL32.dll
 0001:0002d33a       _GetCurrentThreadId@0      0042e33a f   kernel32:KERNEL32.dll
 0001:0002d340       _CreateThread@24           0042e340 f   kernel32:KERNEL32.dll
 0001:0002d346       _TerminateProcess@8        0042e346 f   kernel32:KERNEL32.dll
 0001:0002d34c       _GetCurrentProcess@0       0042e34c f   kernel32:KERNEL32.dll
 0001:0002d352       _UnhandledExceptionFilter@4 0042e352 f   kernel32:KERNEL32.dll
 0001:0002d358       _SetUnhandledExceptionFilter@4 0042e358 f   kernel32:KERNEL32.dll
 0001:0002d35e       _IsDebuggerPresent@0       0042e35e f   kernel32:KERNEL32.dll
 0001:0002d364       _RaiseException@16         0042e364 f   kernel32:KERNEL32.dll
 0001:0002d36a       _GetSystemTimeAsFileTime@4 0042e36a f   kernel32:KERNEL32.dll
 0001:0002d370       _GetCommandLineA@0         0042e370 f   kernel32:KERNEL32.dll
 0001:0002d376       _GetVersionExA@4           0042e376 f   kernel32:KERNEL32.dll
 0001:0002d37c       _GetStartupInfoA@4         0042e37c f   kernel32:KERNEL32.dll
 0001:0002d382       _GetCPInfo@8               0042e382 f   kernel32:KERNEL32.dll
 0001:0002d388       _InterlockedIncrement@4    0042e388 f   kernel32:KERNEL32.dll
 0001:0002d38e       _GetACP@0                  0042e38e f   kernel32:KERNEL32.dll
 0001:0002d394       _GetOEMCP@0                0042e394 f   kernel32:KERNEL32.dll
 0001:0002d39a       _IsValidCodePage@4         0042e39a f   kernel32:KERNEL32.dll
 0001:0002d3a0       _GetModuleHandleA@4        0042e3a0 f   kernel32:KERNEL32.dll
 0001:0002d3a6       _TlsGetValue@4             0042e3a6 f   kernel32:KERNEL32.dll
 0001:0002d3ac       _TlsAlloc@0                0042e3ac f   kernel32:KERNEL32.dll
 0001:0002d3b2       _TlsSetValue@8             0042e3b2 f   kernel32:KERNEL32.dll
 0001:0002d3b8       _TlsFree@4                 0042e3b8 f   kernel32:KERNEL32.dll
 0001:0002d3be       _SetLastError@4            0042e3be f   kernel32:KERNEL32.dll
 0001:0002d3c4       _GetCurrentThread@0        0042e3c4 f   kernel32:KERNEL32.dll
 0001:0002d3ca       _WideCharToMultiByte@32    0042e3ca f   kernel32:KERNEL32.dll
 0001:0002d3d0       _GetConsoleCP@0            0042e3d0 f   kernel32:KERNEL32.dll
 0001:0002d3d6       _GetConsoleMode@8          0042e3d6 f   kernel32:KERNEL32.dll
 0001:0002d3dc       _ReadFile@20               0042e3dc f   kernel32:KERNEL32.dll
 0001:0002d3e2       _SetHandleCount@4          0042e3e2 f   kernel32:KERNEL32.dll
 0001:0002d3e8       _GetStdHandle@4            0042e3e8 f   kernel32:KERNEL32.dll
 0001:0002d3ee       _GetFileType@4             0042e3ee f   kernel32:KERNEL32.dll
 0001:0002d3f4       _SetFilePointer@16         0042e3f4 f   kernel32:KERNEL32.dll
 0001:0002d3fa       _ExitProcess@4             0042e3fa f   kernel32:KERNEL32.dll
 0001:0002d400       _GetTimeZoneInformation@4  0042e400 f   kernel32:KERNEL32.dll
 0001:0002d406       _HeapSize@12               0042e406 f   kernel32:KERNEL32.dll
 0001:0002d40c       _HeapDestroy@4             0042e40c f   kernel32:KERNEL32.dll
 0001:0002d412       _HeapCreate@12             0042e412 f   kernel32:KERNEL32.dll
 0001:0002d418       _VirtualFree@12            0042e418 f   kernel32:KERNEL32.dll
 0001:0002d41e       _FatalAppExitA@8           0042e41e f   kernel32:KERNEL32.dll
 0001:0002d424       _VirtualAlloc@16           0042e424 f   kernel32:KERNEL32.dll
 0001:0002d42a       _HeapReAlloc@16            0042e42a f   kernel32:KERNEL32.dll
 0001:0002d430       _FreeEnvironmentStringsA@4 0042e430 f   kernel32:KERNEL32.dll
 0001:0002d436       _GetEnvironmentStrings@0   0042e436 f   kernel32:KERNEL32.dll
 0001:0002d43c       _FreeEnvironmentStringsW@4 0042e43c f   kernel32:KERNEL32.dll
 0001:0002d442       _GetEnvironmentStringsW@0  0042e442 f   kernel32:KERNEL32.dll
 0001:0002d448       _QueryPerformanceCounter@4 0042e448 f   kernel32:KERNEL32.dll
 0001:0002d44e       _GetCurrentProcessId@0     0042e44e f   kernel32:KERNEL32.dll
 0001:0002d454       _LCMapStringA@24           0042e454 f   kernel32:KERNEL32.dll
 0001:0002d45a       _LCMapStringW@24           0042e45a f   kernel32:KERNEL32.dll
 0001:0002d460       _GetStringTypeA@20         0042e460 f   kernel32:KERNEL32.dll
 0001:0002d466       _GetStringTypeW@16         0042e466 f   kernel32:KERNEL32.dll
 0001:0002d46c       _GetTimeFormatA@24         0042e46c f   kernel32:KERNEL32.dll
 0001:0002d472       _GetDateFormatA@24         0042e472 f   kernel32:KERNEL32.dll
 0001:0002d478       _GetUserDefaultLCID@0      0042e478 f   kernel32:KERNEL32.dll
 0001:0002d47e       _GetLocaleInfoA@16         0042e47e f   kernel32:KERNEL32.dll
 0001:0002d484       _EnumSystemLocalesA@8      0042e484 f   kernel32:KERNEL32.dll
 0001:0002d48a       _IsValidLocale@8           0042e48a f   kernel32:KERNEL32.dll
 0001:0002d490       _WriteConsoleA@20          0042e490 f   kernel32:KERNEL32.dll
 0001:0002d496       _GetConsoleOutputCP@0      0042e496 f   kernel32:KERNEL32.dll
 0001:0002d49c       _WriteConsoleW@20          0042e49c f   kernel32:KERNEL32.dll
 0001:0002d4a2       _SetStdHandle@8            0042e4a2 f   kernel32:KERNEL32.dll
 0001:0002d4a8       _FlushFileBuffers@4        0042e4a8 f   kernel32:KERNEL32.dll
 0001:0002d4ae       _SetConsoleCtrlHandler@8   0042e4ae f   kernel32:KERNEL32.dll
 0001:0002d4b4       _InterlockedExchange@8     0042e4b4 f   kernel32:KERNEL32.dll
 0001:0002d4ba       _GetLocaleInfoW@16         0042e4ba f   kernel32:KERNEL32.dll
 0001:0002d4c0       _SetEndOfFile@4            0042e4c0 f   kernel32:KERNEL32.dll
 0001:0002d4c6       _CompareStringA@24         0042e4c6 f   kernel32:KERNEL32.dll
 0001:0002d4cc       _CompareStringW@24         0042e4cc f   kernel32:KERNEL32.dll
 0001:0002d4d2       _SetEnvironmentVariableA@8 0042e4d2 f   kernel32:KERNEL32.dll
 0001:0002d4d8       _lstrlenW@4                0042e4d8 f   kernel32:KERNEL32.dll
 0001:0002d4de       _GetErrorInfo@8            0042e4de f   oleaut32:OLEAUT32.dll
 0001:0002d4e4       _SetErrorInfo@8            0042e4e4 f   oleaut32:OLEAUT32.dll
 0001:0002d4ea       _CreateErrorInfo@4         0042e4ea f   oleaut32:OLEAUT32.dll
 0001:0002d4f0       __fpclear                  0042e4f0 f   LIBCMT:fpinit.obj
 0001:0002d4f1       __cfltcvt_init             0042e4f1 f   LIBCMT:fpinit.obj
 0001:0002d551       ___setfflag                0042e551 f   LIBCMT:fpinit.obj
 0001:0002d561       __fpmath                   0042e561 f   LIBCMT:fpinit.obj
 0001:0002d57f       ?strrchr@@YAPADPADH@Z      0042e57f f i LIBCMT:cvt.obj
 0001:0002d584       __forcdecpt_l              0042e584 f   LIBCMT:cvt.obj
 0001:0002d5f5       __cropzeros_l              0042e5f5 f   LIBCMT:cvt.obj
 0001:0002d675       __positive                 0042e675 f   LIBCMT:cvt.obj
 0001:0002d68b       __fassign_l                0042e68b f   LIBCMT:cvt.obj
 0001:0002d6cb       __fassign                  0042e6cb f   LIBCMT:cvt.obj
 0001:0002d6ff       __forcdecpt                0042e6ff f   LIBCMT:cvt.obj
 0001:0002d70d       __cropzeros                0042e70d f   LIBCMT:cvt.obj
 0001:0002d888       __cftoe_l                  0042e888 f   LIBCMT:cvt.obj
 0001:0002d956       __cftoe                    0042e956 f   LIBCMT:cvt.obj
 0001:0002d974       __cftoa_l                  0042e974 f   LIBCMT:cvt.obj
 0001:0002dce5       __cftoa                    0042ece5 f   LIBCMT:cvt.obj
 0001:0002ddf8       __cftof_l                  0042edf8 f   LIBCMT:cvt.obj
 0001:0002deb1       __cftof                    0042eeb1 f   LIBCMT:cvt.obj
 0001:0002decc       __cftog_l                  0042eecc f   LIBCMT:cvt.obj
 0001:0002dfc4       __cftog                    0042efc4 f   LIBCMT:cvt.obj
 0001:0002dfe2       __cfltcvt_l                0042efe2 f   LIBCMT:cvt.obj
 0001:0002e068       __cfltcvt                  0042f068 f   LIBCMT:cvt.obj
 0001:0002e089       __setdefaultprecision      0042f089 f   LIBCMT:fp8.obj
 0001:0002e0b2       __ms_p5_test_fdiv          0042f0b2 f   LIBCMT:testfdiv.obj
 0001:0002e0ee       __ms_p5_mp_test_fdiv       0042f0ee f   LIBCMT:testfdiv.obj
 0001:0002e120       _strrchr                   0042f120 f   LIBCMT:strrchr.obj
 0001:0002e14d       __atodbl_l                 0042f14d f   LIBCMT:atodbl.obj
 0001:0002e1f3       __atodbl                   0042f1f3 f   LIBCMT:atodbl.obj
 0001:0002e206       __atoldbl_l                0042f206 f   LIBCMT:atodbl.obj
 0001:0002e2ad       __atoldbl                  0042f2ad f   LIBCMT:atodbl.obj
 0001:0002e2c0       __atoflt_l                 0042f2c0 f   LIBCMT:atodbl.obj
 0001:0002e366       __atoflt                   0042f366 f   LIBCMT:atodbl.obj
 0001:0002e379       __set_output_format        0042f379 f   LIBCMT:outputformat.obj
 0001:0002e3b0       __get_output_format        0042f3b0 f   LIBCMT:outputformat.obj
 0001:0002e3b6       __fptostr                  0042f3b6 f   LIBCMT:_fptostr.obj
 0001:0002e473       ___dtold                   0042f473 f   LIBCMT:cfout.obj
 0001:0002e52e       __fltout2                  0042f52e f   LIBCMT:cfout.obj
 0001:0002e5c0       __alldvrm                  0042f5c0 f   LIBCMT:lldvrm.obj
 0001:0002e6a0       __aullshr                  0042f6a0 f   LIBCMT:ullshr.obj
 0001:0002e6bf       __controlfp_s              0042f6bf f   LIBCMT:contrlfp.obj
 0001:0002e729       ___addl                    0042f729 f i LIBCMT:intrncvt.obj
 0001:0002e74a       __ZeroTail                 0042f74a f i LIBCMT:intrncvt.obj
 0001:0002e78f       __IncMan                   0042f78f f i LIBCMT:intrncvt.obj
 0001:0002e7f9       __RoundMan                 0042f7f9 f i LIBCMT:intrncvt.obj
 0001:0002e8e7       __CopyMan                  0042f8e7 f i LIBCMT:intrncvt.obj
 0001:0002e902       __FillZeroMan              0042f902 f i LIBCMT:intrncvt.obj
 0001:0002e90e       __IsZeroMan                0042f90e f i LIBCMT:intrncvt.obj
 0001:0002e927       __ShrMan                   0042f927 f i LIBCMT:intrncvt.obj
 0001:0002e9bf       __ld12cvt                  0042f9bf f i LIBCMT:intrncvt.obj
 0001:0002eee8       __ld12tod                  0042fee8 f   LIBCMT:intrncvt.obj
 0001:0002f42a       __ld12tof                  0043042a f   LIBCMT:intrncvt.obj
 0001:0002f96c       __ld12told                 0043096c f   LIBCMT:intrncvt.obj
 0001:0002fa2e       ___shl_12                  00430a2e f i LIBCMT:strgtold.obj
 0001:0002fa5c       ___shr_12                  00430a5c f i LIBCMT:strgtold.obj
 0001:0002fa89       ___ld12mul                 00430a89 f i LIBCMT:strgtold.obj
 0001:0002fcfd       ___multtenpow12            00430cfd f i LIBCMT:strgtold.obj
 0001:00030006       ___strgtold12_l            00431006 f   LIBCMT:strgtold.obj
 0001:000306c6       ___STRINGTOLD_L            004316c6 f   LIBCMT:strgtold.obj
 0001:0003071f       ___add_12                  0043171f f i LIBCMT:x10fout.obj
 0001:0003078c       _$I10_OUTPUT               0043178c f   LIBCMT:x10fout.obj
 0001:00031052       __set_controlfp            00432052 f   LIBCMT:ieee87.obj
 0001:000313a8       __statusfp                 004323a8 f   LIBCMT:ieee87.obj
 0001:00031438       __fpreset                  00432438 f   LIBCMT:ieee87.obj
 0001:00031668       __statusfp2                00432668 f   LIBCMT:ieee87.obj
 0001:000316c0       __clearfp                  004326c0 f   LIBCMT:ieee87.obj
 0001:00031797       ___control87_2             00432797 f   LIBCMT:ieee87.obj
 0001:00031aa1       __control87                00432aa1 f i LIBCMT:ieee87.obj
 0001:00031da4       __controlfp                00432da4 f   LIBCMT:ieee87.obj
 0001:000320ad       ___mtold12                 004330ad f   LIBCMT:mantold.obj
 0001:00032279       __statfp                   00433279 f   LIBCMT:fpctrl.obj
 0001:00032284       __clrfp                    00433284 f   LIBCMT:fpctrl.obj
 0001:00032290       __ctrlfp                   00433290 f   LIBCMT:fpctrl.obj
 0001:000322b7       __set_statfp               004332b7 f   LIBCMT:fpctrl.obj
 0001:0003230d       ___get_fpsr_sse2           0043330d f   LIBCMT:fpctrl.obj
 0001:00032329       ___set_fpsr_sse2           00433329 f   LIBCMT:fpctrl.obj
 0001:0003239b       ___fclrf_sse2              0043339b f   LIBCMT:fpctrl.obj
 0001:000323b3       ___statfp_sse2             004333b3 f   LIBCMT:fpctrl.obj
 0001:000323c6       ___clrfp_sse2              004333c6 f   LIBCMT:fpctrl.obj
 0001:000323de       ___ctrlfp_sse2             004333de f   LIBCMT:fpctrl.obj
 0001:00032412       ___set_statfp_sse2         00433412 f   LIBCMT:fpctrl.obj
 0002:00000000       __imp__LCMapStringW@24     00435000     kernel32:KERNEL32.dll
 0002:00000004       __imp__GetFileType@4       00435004     kernel32:KERNEL32.dll
 0002:00000008       __imp__GetStdHandle@4      00435008     kernel32:KERNEL32.dll
 0002:0000000c       __imp__lstrlenW@4          0043500c     kernel32:KERNEL32.dll
 0002:00000010       __imp__SetEnvironmentVariableA@8 00435010     kernel32:KERNEL32.dll
 0002:00000014       __imp__CompareStringW@24   00435014     kernel32:KERNEL32.dll
 0002:00000018       __imp__CompareStringA@24   00435018     kernel32:KERNEL32.dll
 0002:0000001c       __imp__SetEndOfFile@4      0043501c     kernel32:KERNEL32.dll
 0002:00000020       __imp__GetLocaleInfoW@16   00435020     kernel32:KERNEL32.dll
 0002:00000024       __imp__InterlockedExchange@8 00435024     kernel32:KERNEL32.dll
 0002:00000028       __imp__WaitForSingleObject@8 00435028     kernel32:KERNEL32.dll
 0002:0000002c       __imp__CloseHandle@4       0043502c     kernel32:KERNEL32.dll
 0002:00000030       __imp__TerminateThread@8   00435030     kernel32:KERNEL32.dll
 0002:00000034       __imp__CreateEventA@16     00435034     kernel32:KERNEL32.dll
 0002:00000038       __imp__SetEvent@4          00435038     kernel32:KERNEL32.dll
 0002:0000003c       __imp__ResetEvent@4        0043503c     kernel32:KERNEL32.dll
 0002:00000040       __imp__GetModuleFileNameA@12 00435040     kernel32:KERNEL32.dll
 0002:00000044       __imp__CreateMutexA@12     00435044     kernel32:KERNEL32.dll
 0002:00000048       __imp__ReleaseMutex@4      00435048     kernel32:KERNEL32.dll
 0002:0000004c       __imp__InitializeCriticalSection@4 0043504c     kernel32:KERNEL32.dll
 0002:00000050       __imp__EnterCriticalSection@4 00435050     kernel32:KERNEL32.dll
 0002:00000054       __imp__LeaveCriticalSection@4 00435054     kernel32:KERNEL32.dll
 0002:00000058       __imp__DeleteCriticalSection@4 00435058     kernel32:KERNEL32.dll
 0002:0000005c       __imp__GetFileAttributesA@4 0043505c     kernel32:KERNEL32.dll
 0002:00000060       __imp__CreateDirectoryA@8  00435060     kernel32:KERNEL32.dll
 0002:00000064       __imp__CreateFileA@28      00435064     kernel32:KERNEL32.dll
 0002:00000068       __imp__GetLocalTime@4      00435068     kernel32:KERNEL32.dll
 0002:0000006c       __imp__GetFileSize@8       0043506c     kernel32:KERNEL32.dll
 0002:00000070       __imp__WriteFile@20        00435070     kernel32:KERNEL32.dll
 0002:00000074       __imp__FreeLibrary@4       00435074     kernel32:KERNEL32.dll
 0002:00000078       __imp__GetProcAddress@8    00435078     kernel32:KERNEL32.dll
 0002:0000007c       __imp__LoadLibraryA@4      0043507c     kernel32:KERNEL32.dll
 0002:00000080       __imp__HeapFree@12         00435080     kernel32:KERNEL32.dll
 0002:00000084       __imp__GetProcessHeap@0    00435084     kernel32:KERNEL32.dll
 0002:00000088       __imp__InterlockedDecrement@4 00435088     kernel32:KERNEL32.dll
 0002:0000008c       __imp__HeapAlloc@12        0043508c     kernel32:KERNEL32.dll
 0002:00000090       __imp__lstrlenA@4          00435090     kernel32:KERNEL32.dll
 0002:00000094       __imp__FormatMessageA@28   00435094     kernel32:KERNEL32.dll
 0002:00000098       __imp__GetLastError@0      00435098     kernel32:KERNEL32.dll
 0002:0000009c       __imp__MultiByteToWideChar@24 0043509c     kernel32:KERNEL32.dll
 0002:000000a0       __imp__Sleep@4             004350a0     kernel32:KERNEL32.dll
 0002:000000a4       __imp__GetTickCount@0      004350a4     kernel32:KERNEL32.dll
 0002:000000a8       __imp__SetConsoleCtrlHandler@8 004350a8     kernel32:KERNEL32.dll
 0002:000000ac       __imp__FlushFileBuffers@4  004350ac     kernel32:KERNEL32.dll
 0002:000000b0       __imp__SetStdHandle@8      004350b0     kernel32:KERNEL32.dll
 0002:000000b4       __imp__WriteConsoleW@20    004350b4     kernel32:KERNEL32.dll
 0002:000000b8       __imp__GetConsoleOutputCP@0 004350b8     kernel32:KERNEL32.dll
 0002:000000bc       __imp__WriteConsoleA@20    004350bc     kernel32:KERNEL32.dll
 0002:000000c0       __imp__IsValidLocale@8     004350c0     kernel32:KERNEL32.dll
 0002:000000c4       __imp__EnumSystemLocalesA@8 004350c4     kernel32:KERNEL32.dll
 0002:000000c8       __imp__GetLocaleInfoA@16   004350c8     kernel32:KERNEL32.dll
 0002:000000cc       __imp__GetUserDefaultLCID@0 004350cc     kernel32:KERNEL32.dll
 0002:000000d0       __imp__GetDateFormatA@24   004350d0     kernel32:KERNEL32.dll
 0002:000000d4       __imp__GetTimeFormatA@24   004350d4     kernel32:KERNEL32.dll
 0002:000000d8       __imp__GetStringTypeW@16   004350d8     kernel32:KERNEL32.dll
 0002:000000dc       __imp__GetStringTypeA@20   004350dc     kernel32:KERNEL32.dll
 0002:000000e0       __imp__SetFilePointer@16   004350e0     kernel32:KERNEL32.dll
 0002:000000e4       __imp__LCMapStringA@24     004350e4     kernel32:KERNEL32.dll
 0002:000000e8       __imp__GetCurrentProcessId@0 004350e8     kernel32:KERNEL32.dll
 0002:000000ec       __imp__QueryPerformanceCounter@4 004350ec     kernel32:KERNEL32.dll
 0002:000000f0       __imp__GetEnvironmentStringsW@0 004350f0     kernel32:KERNEL32.dll
 0002:000000f4       __imp__FreeEnvironmentStringsW@4 004350f4     kernel32:KERNEL32.dll
 0002:000000f8       __imp__GetEnvironmentStrings@0 004350f8     kernel32:KERNEL32.dll
 0002:000000fc       __imp__FreeEnvironmentStringsA@4 004350fc     kernel32:KERNEL32.dll
 0002:00000100       __imp__HeapReAlloc@16      00435100     kernel32:KERNEL32.dll
 0002:00000104       __imp__VirtualAlloc@16     00435104     kernel32:KERNEL32.dll
 0002:00000108       __imp__FatalAppExitA@8     00435108     kernel32:KERNEL32.dll
 0002:0000010c       __imp__VirtualFree@12      0043510c     kernel32:KERNEL32.dll
 0002:00000110       __imp__HeapCreate@12       00435110     kernel32:KERNEL32.dll
 0002:00000114       __imp__HeapDestroy@4       00435114     kernel32:KERNEL32.dll
 0002:00000118       __imp__HeapSize@12         00435118     kernel32:KERNEL32.dll
 0002:0000011c       __imp__GetTimeZoneInformation@4 0043511c     kernel32:KERNEL32.dll
 0002:00000120       __imp__ExitProcess@4       00435120     kernel32:KERNEL32.dll
 0002:00000124       __imp__SetHandleCount@4    00435124     kernel32:KERNEL32.dll
 0002:00000128       __imp__ReadFile@20         00435128     kernel32:KERNEL32.dll
 0002:0000012c       __imp__GetConsoleMode@8    0043512c     kernel32:KERNEL32.dll
 0002:00000130       __imp__GetConsoleCP@0      00435130     kernel32:KERNEL32.dll
 0002:00000134       __imp__WideCharToMultiByte@32 00435134     kernel32:KERNEL32.dll
 0002:00000138       __imp__GetCurrentThread@0  00435138     kernel32:KERNEL32.dll
 0002:0000013c       __imp__RtlUnwind@16        0043513c     kernel32:KERNEL32.dll
 0002:00000140       __imp__ExitThread@4        00435140     kernel32:KERNEL32.dll
 0002:00000144       __imp__GetCurrentThreadId@0 00435144     kernel32:KERNEL32.dll
 0002:00000148       __imp__CreateThread@24     00435148     kernel32:KERNEL32.dll
 0002:0000014c       __imp__TerminateProcess@8  0043514c     kernel32:KERNEL32.dll
 0002:00000150       __imp__GetCurrentProcess@0 00435150     kernel32:KERNEL32.dll
 0002:00000154       __imp__UnhandledExceptionFilter@4 00435154     kernel32:KERNEL32.dll
 0002:00000158       __imp__SetUnhandledExceptionFilter@4 00435158     kernel32:KERNEL32.dll
 0002:0000015c       __imp__IsDebuggerPresent@0 0043515c     kernel32:KERNEL32.dll
 0002:00000160       __imp__RaiseException@16   00435160     kernel32:KERNEL32.dll
 0002:00000164       __imp__GetSystemTimeAsFileTime@4 00435164     kernel32:KERNEL32.dll
 0002:00000168       __imp__GetCommandLineA@0   00435168     kernel32:KERNEL32.dll
 0002:0000016c       __imp__GetVersionExA@4     0043516c     kernel32:KERNEL32.dll
 0002:00000170       __imp__GetStartupInfoA@4   00435170     kernel32:KERNEL32.dll
 0002:00000174       __imp__GetCPInfo@8         00435174     kernel32:KERNEL32.dll
 0002:00000178       __imp__InterlockedIncrement@4 00435178     kernel32:KERNEL32.dll
 0002:0000017c       __imp__GetACP@0            0043517c     kernel32:KERNEL32.dll
 0002:00000180       __imp__GetOEMCP@0          00435180     kernel32:KERNEL32.dll
 0002:00000184       __imp__IsValidCodePage@4   00435184     kernel32:KERNEL32.dll
 0002:00000188       __imp__GetModuleHandleA@4  00435188     kernel32:KERNEL32.dll
 0002:0000018c       __imp__TlsGetValue@4       0043518c     kernel32:KERNEL32.dll
 0002:00000190       __imp__TlsAlloc@0          00435190     kernel32:KERNEL32.dll
 0002:00000194       __imp__TlsSetValue@8       00435194     kernel32:KERNEL32.dll
 0002:00000198       __imp__TlsFree@4           00435198     kernel32:KERNEL32.dll
 0002:0000019c       __imp__SetLastError@4      0043519c     kernel32:KERNEL32.dll
 0002:000001a0       \177KERNEL32_NULL_THUNK_DATA 004351a0     kernel32:KERNEL32.dll
 0002:000001a4       __imp__VariantChangeType@16 004351a4     oleaut32:OLEAUT32.dll
 0002:000001a8       __imp__CreateErrorInfo@4   004351a8     oleaut32:OLEAUT32.dll
 0002:000001ac       __imp__SysAllocString@4    004351ac     oleaut32:OLEAUT32.dll
 0002:000001b0       __imp__VariantClear@4      004351b0     oleaut32:OLEAUT32.dll
 0002:000001b4       __imp__VariantInit@4       004351b4     oleaut32:OLEAUT32.dll
 0002:000001b8       __imp__GetErrorInfo@8      004351b8     oleaut32:OLEAUT32.dll
 0002:000001bc       __imp__SetErrorInfo@8      004351bc     oleaut32:OLEAUT32.dll
 0002:000001c0       __imp__SysFreeString@4     004351c0     oleaut32:OLEAUT32.dll
 0002:000001c4       \177OLEAUT32_NULL_THUNK_DATA 004351c4     oleaut32:OLEAUT32.dll
 0002:000001c8       __imp__MessageBoxA@16      004351c8     user32:USER32.dll
 0002:000001cc       __imp__SetTimer@16         004351cc     user32:USER32.dll
 0002:000001d0       __imp__UpdateWindow@4      004351d0     user32:USER32.dll
 0002:000001d4       __imp__ShowWindow@8        004351d4     user32:USER32.dll
 0002:000001d8       __imp__GetClientRect@8     004351d8     user32:USER32.dll
 0002:000001dc       __imp__CreateWindowExA@48  004351dc     user32:USER32.dll
 0002:000001e0       __imp__EndDialog@8         004351e0     user32:USER32.dll
 0002:000001e4       __imp__LoadStringA@16      004351e4     user32:USER32.dll
 0002:000001e8       __imp__GetMessageA@16      004351e8     user32:USER32.dll
 0002:000001ec       __imp__TranslateMessage@4  004351ec     user32:USER32.dll
 0002:000001f0       __imp__DispatchMessageA@4  004351f0     user32:USER32.dll
 0002:000001f4       __imp__LoadIconA@8         004351f4     user32:USER32.dll
 0002:000001f8       __imp__LoadCursorA@8       004351f8     user32:USER32.dll
 0002:000001fc       __imp__RegisterClassExA@4  004351fc     user32:USER32.dll
 0002:00000200       __imp__BeginPaint@8        00435200     user32:USER32.dll
 0002:00000204       __imp__EndPaint@8          00435204     user32:USER32.dll
 0002:00000208       __imp__MoveWindow@24       00435208     user32:USER32.dll
 0002:0000020c       __imp__KillTimer@8         0043520c     user32:USER32.dll
 0002:00000210       __imp__PostQuitMessage@4   00435210     user32:USER32.dll
 0002:00000214       __imp__DefWindowProcA@16   00435214     user32:USER32.dll
 0002:00000218       __imp__DestroyWindow@4     00435218     user32:USER32.dll
 0002:0000021c       __imp__DialogBoxParamA@20  0043521c     user32:USER32.dll
 0002:00000220       __imp__SendMessageA@16     00435220     user32:USER32.dll
 0002:00000224       \177USER32_NULL_THUNK_DATA 00435224     user32:USER32.dll
 0002:00000228       __imp__socket@12           00435228     Ws2_32:WS2_32.dll
 0002:0000022c       __imp__htons@4             0043522c     Ws2_32:WS2_32.dll
 0002:00000230       __imp__htonl@4             00435230     Ws2_32:WS2_32.dll
 0002:00000234       __imp__bind@12             00435234     Ws2_32:WS2_32.dll
 0002:00000238       __imp__closesocket@4       00435238     Ws2_32:WS2_32.dll
 0002:0000023c       __imp__WSAStartup@8        0043523c     Ws2_32:WS2_32.dll
 0002:00000240       __imp__WSACleanup@0        00435240     Ws2_32:WS2_32.dll
 0002:00000244       __imp__inet_addr@4         00435244     Ws2_32:WS2_32.dll
 0002:00000248       __imp__inet_ntoa@4         00435248     Ws2_32:WS2_32.dll
 0002:0000024c       \177WS2_32_NULL_THUNK_DATA 0043524c     Ws2_32:WS2_32.dll
 0002:00000250       __imp__CoCreateInstance@20 00435250     ole32:ole32.dll
 0002:00000254       __imp__CoInitializeEx@8    00435254     ole32:ole32.dll
 0002:00000258       __imp__CoUninitialize@0    00435258     ole32:ole32.dll
 0002:0000025c       __imp__CLSIDFromProgID@8   0043525c     ole32:ole32.dll
 0002:00000260       __imp__CLSIDFromString@8   00435260     ole32:ole32.dll
 0002:00000264       __imp__OleRun@4            00435264     ole32:ole32.dll
 0002:00000268       \177ole32_NULL_THUNK_DATA  00435268     ole32:ole32.dll
 0002:0000026c       ___xc_a                    0043526c     LIBCMT:crt0init.obj
 0002:00000280       ___xc_z                    00435280     LIBCMT:crt0init.obj
 0002:00000284       ___xi_a                    00435284     LIBCMT:crt0init.obj
 0002:000002a0       ___xi_z                    004352a0     LIBCMT:crt0init.obj
 0002:000002a4       ___xp_a                    004352a4     LIBCMT:crt0init.obj
 0002:000002b0       ___xp_z                    004352b0     LIBCMT:crt0init.obj
 0002:000002b4       ___xt_a                    004352b4     LIBCMT:crt0init.obj
 0002:000002b8       ___xt_z                    004352b8     LIBCMT:crt0init.obj
 0002:00000300       ??_C@_02GMLFBBN@wb?$AA@    00435300     GlobalFun.obj
 0002:00000304       ??_C@_02JDPG@rb?$AA@       00435304     GlobalFun.obj
 0002:00000308       ??_C@_03DOPCBAKB@a?$CLb?$AA@ 00435308     GlobalFun.obj
 0002:00000310       ??_7KThread@@6B@           00435310     KThread.obj
 0002:00000324       ??_7K_CS@@6B@              00435324     KThread.obj
 0002:00000328       ??_C@_0P@GHFPNOJB@bad?5allocation?$AA@ 00435328     LogFile.obj
 0002:00000338       ?collate@?$_Locbase@H@std@@2HB 00435338     LogFile.obj
 0002:0000033c       ?ctype@?$_Locbase@H@std@@2HB 0043533c     LogFile.obj
 0002:00000340       ?monetary@?$_Locbase@H@std@@2HB 00435340     LogFile.obj
 0002:00000344       ?numeric@?$_Locbase@H@std@@2HB 00435344     LogFile.obj
 0002:00000348       ?time@?$_Locbase@H@std@@2HB 00435348     LogFile.obj
 0002:0000034c       ?messages@?$_Locbase@H@std@@2HB 0043534c     LogFile.obj
 0002:00000350       ?all@?$_Locbase@H@std@@2HB 00435350     LogFile.obj
 0002:00000354       ?none@?$_Locbase@H@std@@2HB 00435354     LogFile.obj
 0002:00000358       ?table_size@?$ctype@D@std@@2IB 00435358     LogFile.obj
 0002:0000035c       ?skipws@?$_Iosb@H@std@@2W4_Fmtflags@12@B 0043535c     LogFile.obj
 0002:00000360       ?unitbuf@?$_Iosb@H@std@@2W4_Fmtflags@12@B 00435360     LogFile.obj
 0002:00000364       ?uppercase@?$_Iosb@H@std@@2W4_Fmtflags@12@B 00435364     LogFile.obj
 0002:00000368       ?showbase@?$_Iosb@H@std@@2W4_Fmtflags@12@B 00435368     LogFile.obj
 0002:0000036c       ?showpoint@?$_Iosb@H@std@@2W4_Fmtflags@12@B 0043536c     LogFile.obj
 0002:00000370       ?showpos@?$_Iosb@H@std@@2W4_Fmtflags@12@B 00435370     LogFile.obj
 0002:00000374       ?left@?$_Iosb@H@std@@2W4_Fmtflags@12@B 00435374     LogFile.obj
 0002:00000378       ?right@?$_Iosb@H@std@@2W4_Fmtflags@12@B 00435378     LogFile.obj
 0002:0000037c       ?internal@?$_Iosb@H@std@@2W4_Fmtflags@12@B 0043537c     LogFile.obj
 0002:00000380       ?dec@?$_Iosb@H@std@@2W4_Fmtflags@12@B 00435380     LogFile.obj
 0002:00000384       ?oct@?$_Iosb@H@std@@2W4_Fmtflags@12@B 00435384     LogFile.obj
 0002:00000388       ?hex@?$_Iosb@H@std@@2W4_Fmtflags@12@B 00435388     LogFile.obj
 0002:0000038c       ?scientific@?$_Iosb@H@std@@2W4_Fmtflags@12@B 0043538c     LogFile.obj
 0002:00000390       ?fixed@?$_Iosb@H@std@@2W4_Fmtflags@12@B 00435390     LogFile.obj
 0002:00000394       ?boolalpha@?$_Iosb@H@std@@2W4_Fmtflags@12@B 00435394     LogFile.obj
 0002:00000398       ?_Stdio@?$_Iosb@H@std@@2W4_Fmtflags@12@B 00435398     LogFile.obj
 0002:0000039c       ?adjustfield@?$_Iosb@H@std@@2W4_Fmtflags@12@B 0043539c     LogFile.obj
 0002:000003a0       ?basefield@?$_Iosb@H@std@@2W4_Fmtflags@12@B 004353a0     LogFile.obj
 0002:000003a4       ?floatfield@?$_Iosb@H@std@@2W4_Fmtflags@12@B 004353a4     LogFile.obj
 0002:000003a8       ?goodbit@?$_Iosb@H@std@@2W4_Iostate@12@B 004353a8     LogFile.obj
 0002:000003ac       ?eofbit@?$_Iosb@H@std@@2W4_Iostate@12@B 004353ac     LogFile.obj
 0002:000003b0       ?failbit@?$_Iosb@H@std@@2W4_Iostate@12@B 004353b0     LogFile.obj
 0002:000003b4       ?badbit@?$_Iosb@H@std@@2W4_Iostate@12@B 004353b4     LogFile.obj
 0002:000003b8       ?_Hardfail@?$_Iosb@H@std@@2W4_Iostate@12@B 004353b8     LogFile.obj
 0002:000003bc       ?in@?$_Iosb@H@std@@2W4_Openmode@12@B 004353bc     LogFile.obj
 0002:000003c0       ?out@?$_Iosb@H@std@@2W4_Openmode@12@B 004353c0     LogFile.obj
 0002:000003c4       ?ate@?$_Iosb@H@std@@2W4_Openmode@12@B 004353c4     LogFile.obj
 0002:000003c8       ?app@?$_Iosb@H@std@@2W4_Openmode@12@B 004353c8     LogFile.obj
 0002:000003cc       ?trunc@?$_Iosb@H@std@@2W4_Openmode@12@B 004353cc     LogFile.obj
 0002:000003d0       ?_Nocreate@?$_Iosb@H@std@@2W4_Openmode@12@B 004353d0     LogFile.obj
 0002:000003d4       ?_Noreplace@?$_Iosb@H@std@@2W4_Openmode@12@B 004353d4     LogFile.obj
 0002:000003d8       ?binary@?$_Iosb@H@std@@2W4_Openmode@12@B 004353d8     LogFile.obj
 0002:000003dc       ?beg@?$_Iosb@H@std@@2W4_Seekdir@12@B 004353dc     LogFile.obj
 0002:000003e0       ?cur@?$_Iosb@H@std@@2W4_Seekdir@12@B 004353e0     LogFile.obj
 0002:000003e4       ?end@?$_Iosb@H@std@@2W4_Seekdir@12@B 004353e4     LogFile.obj
 0002:000003f8       ??_7bad_alloc@std@@6B@     004353f8     LogFile.obj
 0002:00000404       ??_7CLogFile@@6B@          00435404     LogFile.obj
 0002:00000408       ??_C@_04JIMNDDED@?$CF08X?$AA@ 00435408     LogFile.obj
 0002:00000410       ??_C@_0BF@KJLDDEOH@?2?$CF02d_?$CF02d_?$CF02d_?$CF03d?$AA@ 00435410     LogFile.obj
 0002:00000428       ??_C@_0P@CCJCIIIP@?$CF04d_?$CF02d_?$CF02d?$AA@ 00435428     LogFile.obj
 0002:00000438       _IID_IIOCPServer           00435438     main.obj
 0002:00000448       _IID_IServerFactory        00435448     main.obj
 0002:00000458       _LIBID_ADO20               00435458     main.obj
 0002:00000468       _LIBID_ADO21               00435468     main.obj
 0002:00000478       _LIBID_ADOR20              00435478     main.obj
 0002:00000488       _LIBID_ADO25               00435488     main.obj
 0002:00000498       _LIBID_ADO26               00435498     main.obj
 0002:000004a8       _LIBID_ADOR25              004354a8     main.obj
 0002:000004b8       _IID_IADOError             004354b8     main.obj
 0002:000004c8       _IID_IADOErrors            004354c8     main.obj
 0002:000004d8       _IID_IADOProperty          004354d8     main.obj
 0002:000004e8       _IID_IADOProperties        004354e8     main.obj
 0002:000004f8       _CLSID_CADOField           004354f8     main.obj
 0002:00000508       _IID_IADOField15           00435508     main.obj
 0002:00000518       _IID_IADOField20           00435518     main.obj
 0002:00000528       _IID_IADOField             00435528     main.obj
 0002:00000538       _IID_IADOFields15          00435538     main.obj
 0002:00000548       _IID_IADOFields20          00435548     main.obj
 0002:00000558       _IID_IADOFields            00435558     main.obj
 0002:00000568       _CLSID_CADOCommand         00435568     main.obj
 0002:00000578       _IID_IADOCommand15         00435578     main.obj
 0002:00000588       _IID_IADOCommand25         00435588     main.obj
 0002:00000598       _IID_IADOCommands          00435598     main.obj
 0002:000005a8       _IID_IADOCommandConstruction 004355a8     main.obj
 0002:000005b8       _CLSID_CADOParameter       004355b8     main.obj
 0002:000005c8       _IID_IADOParameter         004355c8     main.obj
 0002:000005d8       _IID_IADOParameters        004355d8     main.obj
 0002:000005e8       _CLSID_CADORecordset       004355e8     main.obj
 0002:000005f8       _IID_IADORecordset15       004355f8     main.obj
 0002:00000608       _IID_IADORecordset20       00435608     main.obj
 0002:00000618       _IID_IADORecordset21       00435618     main.obj
 0002:00000628       _IID_IADORecordset25       00435628     main.obj
 0002:00000638       _IID_IADORecordset         00435638     main.obj
 0002:00000648       _IID_IADORecordsets        00435648     main.obj
 0002:00000658       _IID_IADORecordsetConstruction 00435658     main.obj
 0002:00000668       _IID_IADOCollection        00435668     main.obj
 0002:00000678       _IID_IADODynaCollection    00435678     main.obj
 0002:00000688       _CLSID_CADOConnection      00435688     main.obj
 0002:00000698       _IID_IADOConnection15      00435698     main.obj
 0002:000006a8       _IID_IADOConnection        004356a8     main.obj
 0002:000006b8       _IID_IADOConnectionConstruction15 004356b8     main.obj
 0002:000006c8       _IID_IADOConnectionConstruction 004356c8     main.obj
 0002:000006d8       _IID_IADOConnections       004356d8     main.obj
 0002:000006e8       _IID_IADORecordsetEvents   004356e8     main.obj
 0002:000006f8       _IID_IADOConnectionEvents  004356f8     main.obj
 0002:00000708       _IID_IADORecordsetEventsVt 00435708     main.obj
 0002:00000718       _IID_IADOConnectionEventsVt 00435718     main.obj
 0002:00000728       _CLSID_CADORecord          00435728     main.obj
 0002:00000738       _CLSID_CADORecField        00435738     main.obj
 0002:00000748       _IID_IADORecord            00435748     main.obj
 0002:00000758       _IID_IADORecord25          00435758     main.obj
 0002:00000768       _IID_IADORecord26          00435768     main.obj
 0002:00000778       _IID_IADOStream            00435778     main.obj
 0002:00000788       _CLSID_CADOStream          00435788     main.obj
 0002:00000798       _IID_IADORecordConstruction 00435798     main.obj
 0002:000007a8       _IID_IADOStreamConstruction 004357a8     main.obj
 0002:000007b8       _IID_EnumCursorType        004357b8     main.obj
 0002:000007c8       _IID_EnumCursorOption      004357c8     main.obj
 0002:000007d8       _IID_EnumLockType          004357d8     main.obj
 0002:000007e8       _IID_EnumExecuteOption     004357e8     main.obj
 0002:000007f8       _IID_EnumDataType          004357f8     main.obj
 0002:00000808       _IID_EnumConnectPrompt     00435808     main.obj
 0002:00000818       _IID_EnumConnectMode       00435818     main.obj
 0002:00000828       _IID_EnumPrepareOption     00435828     main.obj
 0002:00000838       _IID_EnumIsolationLevel    00435838     main.obj
 0002:00000848       _IID_EnumXactAttribute     00435848     main.obj
 0002:00000858       _IID_EnumFieldAttribute    00435858     main.obj
 0002:00000868       _IID_EnumEditMode          00435868     main.obj
 0002:00000878       _IID_EnumRecordStatus      00435878     main.obj
 0002:00000888       _IID_EnumPosition          00435888     main.obj
 0002:00000898       _IID_EnumPropertyAttributes 00435898     main.obj
 0002:000008a8       _IID_EnumErrorValue        004358a8     main.obj
 0002:000008b8       _IID_EnumParameterAttributes 004358b8     main.obj
 0002:000008c8       _IID_EnumParameterDirection 004358c8     main.obj
 0002:000008d8       _IID_EnumFilterCriteria    004358d8     main.obj
 0002:000008e8       _IID_EnumCommandType       004358e8     main.obj
 0002:000008f8       _IID_EnumCursorLocation    004358f8     main.obj
 0002:00000908       _IID_EnumEventStatus       00435908     main.obj
 0002:00000918       _IID_EnumEventReason       00435918     main.obj
 0002:00000928       _IID_EnumObjectState       00435928     main.obj
 0002:00000938       _IID_EnumSchema            00435938     main.obj
 0002:00000948       _IID_EnumMarshalOptions    00435948     main.obj
 0002:00000958       _IID_EnumConnectOption     00435958     main.obj
 0002:00000968       _IID_EnumGetRowsOption     00435968     main.obj
 0002:00000978       _IID_EnumAffect            00435978     main.obj
 0002:00000988       _IID_EnumResync            00435988     main.obj
 0002:00000998       _IID_EnumCompare           00435998     main.obj
 0002:000009a8       _IID_EnumFilterGroup       004359a8     main.obj
 0002:000009b8       _IID_EnumSearchDirection   004359b8     main.obj
 0002:000009c8       _IID_EnumPersistFormat     004359c8     main.obj
 0002:000009d8       _IID_EnumStringFormat      004359d8     main.obj
 0002:000009e8       _IID_EnumRDSUpdateCriteria 004359e8     main.obj
 0002:000009f8       _IID_EnumRDSAsyncThreadPriority 004359f8     main.obj
 0002:00000a08       _IID_EnumCEResync          00435a08     main.obj
 0002:00000a18       _IID_EnumRDSAutoRecalc     00435a18     main.obj
 0002:00000a28       _IID_EnumSeek              00435a28     main.obj
 0002:00000a38       _IID_IADORecordGroup       00435a38     main.obj
 0002:00000a48       _IID_IADOCustomError       00435a48     main.obj
 0002:00000a58       _CLSID_CADOError           00435a58     main.obj
 0002:00000a68       _IID_IPrivErrors           00435a68     main.obj
 0002:00000a78       _CLSID_CADOErrorLookup     00435a78     main.obj
 0002:00000a88       _CLSID_ADO                 00435a88     main.obj
 0002:00000a98       _IID_ConnectionEvents      00435a98     main.obj
 0002:00000aa8       _IID_ConnectionEventsVt    00435aa8     main.obj
 0002:00000ab8       _IID_IADO10StdObject       00435ab8     main.obj
 0002:00000ac8       _IID__ADO                  00435ac8     main.obj
 0002:00000ad8       _IID_IADOClass             00435ad8     main.obj
 0002:00000ae8       _IID_EnumRecordCreateOptions 00435ae8     main.obj
 0002:00000af8       _IID_EnumRecordOpenOptions 00435af8     main.obj
 0002:00000b08       _IID_EnumMoveRecordOptions 00435b08     main.obj
 0002:00000b18       _IID_EnumCopyRecordOptions 00435b18     main.obj
 0002:00000b28       _IID_EnumMode              00435b28     main.obj
 0002:00000b38       _IID_EnumStreamType        00435b38     main.obj
 0002:00000b48       _IID_EnumLineSeparator     00435b48     main.obj
 0002:00000b58       _IID_EnumStreamOpenOptions 00435b58     main.obj
 0002:00000b68       _IID_EnumStreamWrite       00435b68     main.obj
 0002:00000b78       _IID_EnumSaveOptions       00435b78     main.obj
 0002:00000b88       _IID_EnumRecordType        00435b88     main.obj
 0002:00000b98       _IID_EnumFieldStatus       00435b98     main.obj
 0002:00000ba8       _IID_IADOCommand           00435ba8     main.obj
 0002:00000bb8       _LIBID_ADO27               00435bb8     main.obj
 0002:00000bc8       _IID_ICMemStreamProperties 00435bc8     main.obj
 0002:00000bd8       _LIBID_ADO28               00435bd8     main.obj
 0002:00000bf8       ??_C@_0FB@PNKCHLOE@?$AN?6?$CK?$AN?6?$CK?$CK?$CK?$CK?$CK?5Sword3PaySys?5Stop?5?$CI?$EA?5@ 00435bf8     main.obj
 0002:00000c50       ??_C@_0FC@LCHKCBND@?$AN?6?$CK?$AN?6?$CK?$CK?$CK?$CK?$CK?5Sword3PaySys?5Start?5?$CI?$EA@ 00435c50     main.obj
 0002:00000ca4       ??_C@_06GDHDHFI@?$CFd?5?$DO?$DO?5?$AA@ 00435ca4     main.obj
 0002:00000cac       ??_C@_0CC@HFHFPBMJ@?$FL?$CF04d?1?$CF02d?1?$CF02d?5?$CF02d?3?$CF02d?3?$CF02d?$FN?$CF@ 00435cac     main.obj
 0002:00000cd0       ??_C@_07OOFFCIDH@ListBox?$AA@ 00435cd0     main.obj
 0002:00000cd8       ??_C@_03EKFHOMB@Out?$AA@   00435cd8     main.obj
 0002:00000cdc       ??_C@_02PCIJFNDE@?$AN?6?$AA@ 00435cdc     main.obj
 0002:00000ce0       ??_C@_01CLKCMJKC@?5?$AA@   00435ce0     main.obj
 0002:00000ce4       ??_C@_0P@NEBHMABB@Are?5you?5sure?5?$DP?$AA@ 00435ce4     main.obj
 0002:00000cf4       ??_C@_07FPLKDJGL@warning?$AA@ 00435cf4     main.obj
 0002:00000cfc       ??_C@_0P@LBNFOPOD@Nomal?5exit?5?$CB?$CB?$CB?$AA@ 00435cfc     main.obj
 0002:00000d0c       ??_C@_0BC@CELGFIGH@Connect?5DB?5Error?$CB?$AA@ 00435d0c     main.obj
 0002:00000d20       ??_C@_07PMDLEBNF@account?$AA@ 00435d20     main.obj
 0002:00000d28       ??_C@_0O@BGABDKNK@heaven?5Error?$CB?$AA@ 00435d28     main.obj
 0002:00000d38       ??_C@_0L@EAKOGNMN@DBConnects?$AA@ 00435d38     main.obj
 0002:00000d44       ??_C@_01BMBHCPLG@5?$AA@    00435d44     main.obj
 0002:00000d48       ??_C@_0N@OJKDOMML@DataBase?4ini?$AA@ 00435d48     main.obj
 0002:00000d58       ??_C@_0BA@OBHPCBFP@CreateInterface?$AA@ 00435d58     main.obj
 0002:00000d68       ??_C@_0L@MBMGBBBM@heaven?4dll?$AA@ 00435d68     main.obj
 0002:00000d74       ??_C@_07FBJGGLLF@timelog?$AA@ 00435d74     main.obj
 0002:00000d7c       ??_C@_04NEFKOBHG@3000?$AA@ 00435d7c     main.obj
 0002:00000d84       ??_C@_0L@DPCAELPM@sizebuffer?$AA@ 00435d84     main.obj
 0002:00000d90       ??_C@_07BKKOAKCI@1048576?$AA@ 00435d90     main.obj
 0002:00000d98       ??_C@_09BACNPOLI@maxbuffer?$AA@ 00435d98     main.obj
 0002:00000da4       ??_C@_02IHCGGLPM@15?$AA@   00435da4     main.obj
 0002:00000da8       ??_C@_09HJGOLHNF@precision?$AA@ 00435da8     main.obj
 0002:00000db4       ??_C@_01HIHLOKLC@1?$AA@    00435db4     main.obj
 0002:00000db8       ??_C@_0L@EADKGJEH@maxconnect?$AA@ 00435db8     main.obj
 0002:00000dc4       ??_C@_02PKFBJPLJ@10?$AA@   00435dc4     main.obj
 0002:00000dc8       ??_C@_05IEALKJIG@Local?$AA@ 00435dc8     main.obj
 0002:00000dd0       ??_C@_04LPGMAPLE@port?$AA@ 00435dd0     main.obj
 0002:00000dd8       ??_C@_02DPKJAMEF@?$CFd?$AA@ 00435dd8     main.obj
 0002:00000ddc       ??_C@_0O@GAGOEBJC@acc_setup?4ini?$AA@ 00435ddc     main.obj
 0002:00000dec       ??_C@_0BK@FPCFPMCI@Initializing?5LogFile?5fail?$AA@ 00435dec     main.obj
 0002:00000e08       ??_C@_05KKCIMGE@error?$AA@ 00435e08     main.obj
 0002:00000e14       ??_7_com_error@@6B@        00435e14     S3P_MSSQLServer_Result.obj
 0002:00000e18       __GUID_00000512_0000_0010_8000_00aa006d2ea4 00435e18     S3P_MSSQLServer_Result.obj
 0002:00000e28       __GUID_0000050e_0000_0010_8000_00aa006d2ea4 00435e28     S3P_MSSQLServer_Result.obj
 0002:00000e38       __GUID_00000506_0000_0010_8000_00aa006d2ea4 00435e38     S3P_MSSQLServer_Result.obj
 0002:00000e4c       ??_7S3PAccount@@6B@        00435e4c     S3PAccount.obj
 0002:00000e50       ??_C@_0DG@FMKBKJJL@select?5iid?5from?5ServerList?5where@ 00435e50     S3PAccount.obj
 0002:00000e88       ??_C@_0CO@EDAJGAFH@select?5iid?5from?5ServerList?5where@ 00435e88     S3PAccount.obj
 0002:00000eb8       ??_C@_0FG@EFICPKBA@update?5Account_info?5set?5iClientI@ 00435eb8     S3PAccount.obj
 0002:00000f10       ??_C@_0MI@GOIFGPBI@update?5View_AccountMoney?5set?5iLe@ 00435f10     S3PAccount.obj
 0002:00000fd8       ??_C@_0DL@DNDKEMFN@select?5iClientID?5from?5Account_in@ 00435fd8     S3PAccount.obj
 0002:00001018       ??_C@_0HE@OJKALGAB@select?5datediff?$CIsecond?0?5getdate?$CI@ 00436018     S3PAccount.obj
 0002:00001090       ??_C@_0GO@PICGOECL@select?5cAccName?5from?5Account_inf@ 00436090     S3PAccount.obj
 0002:00001100       ??_C@_0FC@CHMBFAJA@update?5Account_info?5set?5iClientI@ 00436100     S3PAccount.obj
 0002:00001158       ??_C@_0GM@PHDLIJPH@select?5iClientID?5from?5Account_in@ 00436158     S3PAccount.obj
 0002:000011c8       ??_C@_0HF@JHDHGMCD@update?5Account_info?5set?5dLoginDa@ 004361c8     S3PAccount.obj
 0002:00001240       ??_C@_0GM@JJPAFNAI@update?5Account_info?5set?5iClientI@ 00436240     S3PAccount.obj
 0002:000012b0       ??_C@_0BAL@HNMMEHBO@update?5View_AccountMoney?5set?5nEx@ 004362b0     S3PAccount.obj
 0002:000013c0       ??_C@_0PA@HJKACPAG@update?5View_AccountMoney?5set?5iLe@ 004363c0     S3PAccount.obj
 0002:000014b0       ??_C@_0JK@PPKOLJED@update?5View_AccountMoney?5set?5iLe@ 004364b0     S3PAccount.obj
 0002:0000154c       ??_C@_0BL@BOFKMNCO@?$CF02X?$CF02X?9?$CF02X?$CF02X?9?$CF02X?$CF02X?$AA@ 0043654c     S3PAccount.obj
 0002:00001568       ??_C@_0HK@NELJAECM@select?5cIP?0?5iPort?0?5iid?0?5cMemo?5fr@ 00436568     S3PAccount.obj
 0002:000015e4       __GUID_00000508_0000_0010_8000_00aa006d2ea4 004365e4     S3PDB_MSSQLServer_Connection.obj
 0002:000015f4       __GUID_00000515_0000_0010_8000_00aa006d2ea4 004365f4     S3PDB_MSSQLServer_Connection.obj
 0002:00001604       __GUID_00000550_0000_0010_8000_00aa006d2ea4 00436604     S3PDB_MSSQLServer_Connection.obj
 0002:00001614       __GUID_00000556_0000_0010_8000_00aa006d2ea4 00436614     S3PDB_MSSQLServer_Connection.obj
 0002:00001624       __GUID_b08400bd_f9d1_4d02_b856_71d5dba123e9 00436624     S3PDB_MSSQLServer_Connection.obj
 0002:00001634       ??_C@_0BF@IPPGFENJ@Unknown?5error?50x?$CF0lX?$AA@ 00436634     S3PDB_MSSQLServer_Connection.obj
 0002:0000164c       ??_C@_0BE@NNIJINN@IDispatch?5error?5?$CD?$CFd?$AA@ 0043664c     S3PDB_MSSQLServer_Connection.obj
 0002:00001660       __GUID_00000000_0000_0000_c000_000000000046 00436660     S3PDB_MSSQLServer_Connection.obj
 0002:00001674       ??_7S3P_MSSQLServer_Result@@6B@ 00436674     S3PDB_MSSQLServer_Connection.obj
 0002:00001690       ??_7S3PDB_MSSQLServer_Connection@@6B@ 00436690     S3PDB_MSSQLServer_Connection.obj
 0002:000016a4       ??_C@_0DA@OJPPHDI@?$FLS3PDB_MSSQLServer_Connection?3?3D@ 004366a4     S3PDB_MSSQLServer_Connection.obj
 0002:000016d4       ??_C@_0BA@GPGMDGJN@ADODB?4Recordset?$AA@ 004366d4     S3PDB_MSSQLServer_Connection.obj
 0002:000016e4       ??_C@_0DD@OBPHMCEE@?$FLS3PDB_MSSQLServer_Connection?3?3D@ 004366e4     S3PDB_MSSQLServer_Connection.obj
 0002:00001718       ??_C@_0DA@ICAOINCB@?$FLS3PDBConnectionPool?3?3OpenConnec@ 00436718     S3PDB_MSSQLServer_Connection.obj
 0002:00001748       ??_C@_0O@LELKCJFH@ADODB?4Command?$AA@ 00436748     S3PDB_MSSQLServer_Connection.obj
 0002:00001758       ??_C@_09HJPHMDCE@Database?$DN?$AA@ 00436758     S3PDB_MSSQLServer_Connection.obj
 0002:00001764       ??_C@_01ICJEACDI@?$DL?$AA@ 00436764     S3PDB_MSSQLServer_Connection.obj
 0002:00001768       ??_C@_07JJOHPNOF@Server?$DN?$AA@ 00436768     S3PDB_MSSQLServer_Connection.obj
 0002:00001770       ??_C@_0BF@PHDJJPHE@driver?$DN?$HLSQL?5Server?$HN?$DL?$AA@ 00436770     S3PDB_MSSQLServer_Connection.obj
 0002:00001788       ??_C@_0BB@GHOJBECM@ADODB?4Connection?$AA@ 00436788     S3PDB_MSSQLServer_Connection.obj
 0002:0000179c       ??_C@_0BI@DNLACAJM@DB?5Connect?5?$CFd?5is?5busy?5?$CB?$AA@ 0043679c     S3PDBConnectionPool.obj
 0002:000017b4       ??_C@_0BI@CBJFLODC@DB?5Connect?5?$CFd?5is?5free?5?$CB?$AA@ 004367b4     S3PDBConnectionPool.obj
 0002:000017d0       ??_7logic_error@std@@6B@   004367d0     S3PDBConnectionPool.obj
 0002:000017dc       ??_7S3PDBConnectionPool@@6B@ 004367dc     S3PDBConnectionPool.obj
 0002:000017e4       ??_7length_error@std@@6B@  004367e4     S3PDBConnectionPool.obj
 0002:000017ec       ??_C@_0BD@OLBABOEK@vector?$DMT?$DO?5too?5long?$AA@ 004367ec     S3PDBConnectionPool.obj
 0002:00001800       ??_C@_0M@PMNHDFNB@gm?9kingsoft?$AA@ 00436800     S3PDBConnectionPool.obj
 0002:0000180c       ??_C@_08JIEBFJMI@PassWord?$AA@ 0043680c     S3PDBConnectionPool.obj
 0002:00001818       ??_C@_04ODLBFFJE@User?$AA@ 00436818     S3PDBConnectionPool.obj
 0002:00001820       ??_C@_08LCNCODBM@DataBase?$AA@ 00436820     S3PDBConnectionPool.obj
 0002:0000182c       ??_C@_06LGMEBDBC@Server?$AA@ 0043682c     S3PDBConnectionPool.obj
 0002:00001833       ??_C@_00CNPNBAHC@?$AA@     00436833     S3PDBConnectionPool.obj
 0002:00001838       ??_7S3PDBConVBC@@6B@       00436838     S3PDBConVBC.obj
 0002:00001850       ??_7KThread_CS@@6BK_CS@@@  00436850     S3PDBSocketPool.obj
 0002:00001858       ??_7KThread_CS@@6BKThread@@@ 00436858     S3PDBSocketPool.obj
 0002:00001868       ??_C@_0DB@IBOPAEKF@Failed?5to?5feed?5back?$CI?5S3PDBSocket@ 00436868     S3PDBSocketPool.obj
 0002:0000189c       ??_C@_0DD@BKPILNKO@Failed?5to?5feed?5back?$CI?5S3PDBSocket@ 0043689c     S3PDBSocketPool.obj
 0002:000018d4       ??_7S3PDBSocketPool@@6B@   004368d4     S3PDBSocketPool.obj
 0002:000018e0       ??_C@_0CF@HGBAGOBH@Add?5Gateway?$CI?$CFs?$CJ?5Client?5?$CFd?5?$CB?5?9?9?5A@ 004368e0     S3PDBSocketPool.obj
 0002:00001908       ??_C@_0CH@GPDJMGAK@ReAdd?5Gateway?$CI?$CFs?$CJ?5Client?5?$CFd?5?$CB?5?9?9@ 00436908     S3PDBSocketPool.obj
 0002:00001930       ??_C@_0CK@DMCBADLM@ErrorAdd?5Gateway?$CI?$CFs?$CJ?5Client?5?$CFd?5?$CB@ 00436930     S3PDBSocketPool.obj
 0002:0000195c       ??_C@_0CE@EOAHIHLM@Remove?5Gateway?5Client?5?$CFd?5?$CB?5?9?9?5At@ 0043695c     S3PDBSocketPool.obj
 0002:00001980       ??_C@_0BG@NGAJBAOD@Game?5is?5unknown?5at?5?$CFd?$AA@ 00436980     S3PDBSocketPool.obj
 0002:00001998       ??_C@_0BE@BLBOGLNN@Game?5is?5error?5at?5?$CFd?$AA@ 00436998     S3PDBSocketPool.obj
 0002:000019ac       ??_C@_0BK@LAICBPLF@Game?5is?5verifyagain?5at?5?$CFd?$AA@ 004369ac     S3PDBSocketPool.obj
 0002:000019c8       ??_C@_0BF@EIMMIDK@Game?5is?5verify?5at?5?$CFd?$AA@ 004369c8     S3PDBSocketPool.obj
 0002:000019e0       ??_C@_0BD@OGBKELJK@Game?5is?5free?5at?5?$CFd?$AA@ 004369e0     S3PDBSocketPool.obj
 0002:000019f4       ??_C@_0BO@IJGHNNDJ@Game?5?$CFd?3?5?$CFs?$CI?$CFs?3?$CFd?$CJ?5is?5waiting?$AA@ 004369f4     S3PDBSocketPool.obj
 0002:00001a14       ??_C@_0BO@FCPJFEGP@Game?5?$CFd?3?5?$CFs?$CI?$CFs?3?$CFd?$CJ?5is?5working?$AA@ 00436a14     S3PDBSocketPool.obj
 0002:00001a34       ??_C@_0BK@JKMJPNKC@Protocol?5?$CFd?5data?5is?5error?$AA@ 00436a34     S3PDBSocketPool.obj
 0002:00001a50       ??_C@_0CF@LNKGNLDD@Gateway?5?$CFs?$CI?$CFs?$CJ?3?5User?5?$CFs?5Enter?5Ga@ 00436a50     S3PDBSocketPool.obj
 0002:00001a78       ??_C@_09NCLNEDIM@?5Failed?5?$CB?$AA@ 00436a78     S3PDBSocketPool.obj
 0002:00001a84       ??_C@_0BK@FCHIJHNJ@?5Failed?5?$CB?5?9?9?9?5Login?5first?$AA@ 00436a84     S3PDBSocketPool.obj
 0002:00001aa0       ??_C@_0BN@GKFCKCOH@?5Failed?5?$CB?5?9?9?9?5Name?0?5Password?$AA@ 00436aa0     S3PDBSocketPool.obj
 0002:00001ac0       ??_C@_0L@DFNKNDLC@?5Success?5?$CB?$AA@ 00436ac0     S3PDBSocketPool.obj
 0002:00001acc       ??_C@_0CB@FKKNNONA@Gateway?5?$CFs?$CI?$CFs?$CJ?3?5User?5?$CFs?5Logout?$CFs@ 00436acc     S3PDBSocketPool.obj
 0002:00001af0       ??_C@_0BE@JKNMGOLE@?5Success?5?$CB?5?$CIExt?3?$CFd?$CJ?$AA@ 00436af0     S3PDBSocketPool.obj
 0002:00001b04       ??_C@_0CC@NLLLDJKF@Gateway?5?$CFs?$CI?$CFs?$CJ?$CFs?3?5Address?0?5Port?5@ 00436b04     S3PDBSocketPool.obj
 0002:00001b28       ??_C@_0CD@KLECGLND@Gateway?5?$CFs?$CI?$CFs?$CJ?$CFs?3?5Name?0?5Password@ 00436b28     S3PDBSocketPool.obj
 0002:00001b4c       ??_C@_0CC@NCDFDKIM@Gateway?5?$CFs?$CI?$CFs?$CJ?$CFs?3?5Already?5login?5@ 00436b4c     S3PDBSocketPool.obj
 0002:00001b70       ??_C@_0BO@MOPBLEKK@Gateway?5?$CFs?$CI?$CFs?$CJ?$CFs?3?5Verify?5OK?5?$CB?$AA@ 00436b70     S3PDBSocketPool.obj
 0002:00001b94       ??_7out_of_range@std@@6B@  00436b94     S3PDBSocketPool.obj
 0002:00001b9c       ??_C@_0BK@BBGLJHEH@Gateway?5Connect?5Again?5OK?$CB?$AA@ 00436b9c     S3PDBSocketPool.obj
 0002:00001bb8       ??_C@_0BE@GMDAJMBO@Gateway?5Connect?5OK?$CB?$AA@ 00436bb8     S3PDBSocketPool.obj
 0002:00001bcc       ??_C@_0BD@OGPDDIL@Gateway?5unlock?5OK?$CB?$AA@ 00436bcc     S3PDBSocketPool.obj
 0002:00001be0       ??_C@_0BM@PAPJHAGI@invalid?5map?1set?$DMT?$DO?5iterator?$AA@ 00436be0     S3PDBSocketPool.obj
 0002:00001bfc       ??_C@_0BE@JONHPENG@map?1set?$DMT?$DO?5too?5long?$AA@ 00436bfc     S3PDBSocketPool.obj
 0002:00001c10       ??_C@_0BB@MOGOBHAF@list?$DMT?$DO?5too?5long?$AA@ 00436c10     S3PDBSocketPool.obj
 0002:00001c24       ??_C@_0BL@FLIOLFOP@Gateway?5?$CFs?$CI?$CFs?$CJ?3?5Ping?5?$CFd?$CIs?$CJ?$AA@ 00436c24     S3PDBSocketPool.obj
 0002:00001c44       ??_7KGatewayDataProcess@@6BK_CS@@@ 00436c44     S3PDBSocketPool.obj
 0002:00001c4c       ??_7KGatewayDataProcess@@6BKThread@@@ 00436c4c     S3PDBSocketPool.obj
 0002:00001c60       ??_C@_0CJ@EAHKLCNE@Gateway?5?$CFs?$CI?$CFs?$CJ?3?5User?5?$CFs?5SecondPa@ 00436c60     S3PDBSocketPool.obj
 0002:00001c8c       ??_C@_0CA@OIMKHABD@Gateway?5?$CFs?$CI?$CFs?$CJ?3?5User?5?$CFs?5Login?$CFs?$AA@ 00436c8c     S3PDBSocketPool.obj
 0002:00001cac       ??_C@_0BN@CFFNJJEH@?5Failed?5?$CB?5?9?9?9?5Account?5Freeze?$AA@ 00436cac     S3PDBSocketPool.obj
 0002:00001ccc       ??_C@_0BM@FJKFLLOB@?5Failed?5?$CB?5?9?9?9?5Address?0?5Port?$AA@ 00436ccc     S3PDBSocketPool.obj
 0002:00001ce8       ??_C@_0BH@BMLBDMCN@?5Failed?5?$CB?5?9?9?9?5No?5Money?$AA@ 00436ce8     S3PDBSocketPool.obj
 0002:00001d00       ??_C@_0BM@MOGFHDED@?5Failed?5?$CB?5?9?9?9?5Already?5login?$AA@ 00436d00     S3PDBSocketPool.obj
 0002:00001d20       ??_7S3PResultVBC@@6B@      00436d20     S3PResultVBC.obj
 0002:00001d38       ?ProcessDetach@NativeDll@<CrtImplementationDetails>@@0IB 00436d38     LIBCMT:mbsnbcmp.obj
 0002:00001d3c       ?ProcessAttach@NativeDll@<CrtImplementationDetails>@@0IB 00436d3c     LIBCMT:mbsnbcmp.obj
 0002:00001d40       ?ThreadAttach@NativeDll@<CrtImplementationDetails>@@0IB 00436d40     LIBCMT:mbsnbcmp.obj
 0002:00001d44       ?ThreadDetach@NativeDll@<CrtImplementationDetails>@@0IB 00436d44     LIBCMT:mbsnbcmp.obj
 0002:00001d48       ?ProcessVerifier@NativeDll@<CrtImplementationDetails>@@0IB 00436d48     LIBCMT:mbsnbcmp.obj
 0002:00001d50       ??_7type_info@@6B@         00436d50     LIBCMT:typinfo.obj
 0002:00001d58       ??_7exception@std@@6B@     00436d58     LIBCMT:stdexcpt.obj
 0002:00001d60       ??_C@_0BC@EOODALEL@Unknown?5exception?$AA@ 00436d60     LIBCMT:stdexcpt.obj
 0002:00001d78       ??_7bad_cast@std@@6B@      00436d78     LIBCMT:stdexcpt.obj
 0002:00001d84       ??_7bad_typeid@std@@6B@    00436d84     LIBCMT:stdexcpt.obj
 0002:00001d90       ??_7__non_rtti_object@std@@6B@ 00436d90     LIBCMT:stdexcpt.obj
 0002:00001db8       ??_C@_07LCBHPJJN@LC_TIME?$AA@ 00436db8     LIBCMT:setlocal.obj
 0002:00001dc0       ??_C@_0L@DLHIECNL@LC_NUMERIC?$AA@ 00436dc0     LIBCMT:setlocal.obj
 0002:00001dcc       ??_C@_0M@MIENIKLA@LC_MONETARY?$AA@ 00436dcc     LIBCMT:setlocal.obj
 0002:00001dd8       ??_C@_08EADHIDAD@LC_CTYPE?$AA@ 00436dd8     LIBCMT:setlocal.obj
 0002:00001de4       ??_C@_0L@KFJHEKIK@LC_COLLATE?$AA@ 00436de4     LIBCMT:setlocal.obj
 0002:00001df0       ??_C@_06NEFDFEKB@LC_ALL?$AA@ 00436df0     LIBCMT:setlocal.obj
 0002:00001df8       ___lc_category             00436df8     LIBCMT:setlocal.obj
 0002:00001ec0       ??_C@_03EGDHDPFD@_?4?0?$AA@ 00436ec0     LIBCMT:setlocal.obj
 0002:00001ec4       ??_C@_01LFCBOECM@?4?$AA@   00436ec4     LIBCMT:setlocal.obj
 0002:00001ec8       ??_C@_01IDAFKMJL@_?$AA@    00436ec8     LIBCMT:setlocal.obj
 0002:00001ecc       ??_C@_01NEMOKFLO@?$DN?$AA@ 00436ecc     LIBCMT:setlocal.obj
 0002:00001ed0       ??_C@_01GFHCPBMG@C?$AA@    00436ed0     LIBCMT:setlocal.obj
 0002:00001ed4       ??_C@_02BALPLPBG@?$DN?$DL?$AA@ 00436ed4     LIBCMT:setlocal.obj
 0002:00001ed8       ??_C@_07EPKMNAGK@?4mixcrt?$AA@ 00436ed8     LIBCMT:tidtable.obj
 0002:00001ee0       ??_C@_0O@NLDKAIKN@EncodePointer?$AA@ 00436ee0     LIBCMT:tidtable.obj
 0002:00001ef0       ??_C@_0N@NHGLKGEC@KERNEL32?4DLL?$AA@ 00436ef0     LIBCMT:tidtable.obj
 0002:00001f00       ??_C@_0O@KBPMFGHI@DecodePointer?$AA@ 00436f00     LIBCMT:tidtable.obj
 0002:00001f10       ??_C@_07PEJMOBNF@FlsFree?$AA@ 00436f10     LIBCMT:tidtable.obj
 0002:00001f18       ??_C@_0M@JCPCPOEF@FlsSetValue?$AA@ 00436f18     LIBCMT:tidtable.obj
 0002:00001f24       ??_C@_0M@GDNOONDI@FlsGetValue?$AA@ 00436f24     LIBCMT:tidtable.obj
 0002:00001f30       ??_C@_08KNHFBNJ@FlsAlloc?$AA@ 00436f30     LIBCMT:tidtable.obj
 0002:00001f60       __pDestructExceptionObject 00436f60     LIBCMT:frame.obj
 0002:00001f68       ??_7bad_exception@std@@6B@ 00436f68     LIBCMT:frame.obj
 0002:00001f70       ??_C@_0O@DPKOEFFH@bad?5exception?$AA@ 00436f70     LIBCMT:frame.obj
 0002:00001f88       ??_C@_0P@MIGLKIOC@CorExitProcess?$AA@ 00436f88     LIBCMT:crt0dat.obj
 0002:00001f98       ??_C@_0M@MBOPBNBK@mscoree?4dll?$AA@ 00436f98     LIBCMT:crt0dat.obj
 0002:00001fa4       ??_C@_1O@CEDCILHN@?$AA?$CI?$AAn?$AAu?$AAl?$AAl?$AA?$CJ?$AA?$AA@ 00436fa4     LIBCMT:output.obj
 0002:00001fb4       ??_C@_06OJHGLDPL@?$CInull?$CJ?$AA@ 00436fb4     LIBCMT:output.obj
 0002:00001fc0       ___lookuptable             00436fc0     LIBCMT:output.obj
 0002:00002020       ___lookuptable_s           00437020     LIBCMT:outputs.obj
 0002:0000207c       ??_C@_0P@GGKDKEEG@runtime?5error?5?$AA@ 0043707c     LIBCMT:crt0msg.obj
 0002:0000208c       ??_C@_0O@MJNIPGOH@TLOSS?5error?$AN?6?$AA@ 0043708c     LIBCMT:crt0msg.obj
 0002:0000209c       ??_C@_0N@BONNPDHF@SING?5error?$AN?6?$AA@ 0043709c     LIBCMT:crt0msg.obj
 0002:000020ac       ??_C@_0P@MBDAJNE@DOMAIN?5error?$AN?6?$AA@ 004370ac     LIBCMT:crt0msg.obj
 0002:000020c0       ??_C@_0JL@DFDOOABL@R6034?$AN?6An?5application?5has?5made?5a@ 004370c0     LIBCMT:crt0msg.obj
 0002:00002160       ??_C@_0PH@EPAFIJ@R6033?$AN?6?9?5Attempt?5to?5use?5MSIL?5cod@ 00437160     LIBCMT:crt0msg.obj
 0002:00002258       ??_C@_0DD@BKEEABMM@R6032?$AN?6?9?5not?5enough?5space?5for?5lo@ 00437258     LIBCMT:crt0msg.obj
 0002:00002290       ??_C@_0GD@OFKILIED@R6031?$AN?6?9?5Attempt?5to?5initialize?5t@ 00437290     LIBCMT:crt0msg.obj
 0002:000022f4       ??_C@_0BP@LPMHJOKI@R6030?$AN?6?9?5CRT?5not?5initialized?$AN?6?$AA@ 004372f4     LIBCMT:crt0msg.obj
 0002:00002314       ??_C@_0CF@KJDAIALP@R6028?$AN?6?9?5unable?5to?5initialize?5he@ 00437314     LIBCMT:crt0msg.obj
 0002:0000233c       ??_C@_0DF@GAKBPDFP@R6027?$AN?6?9?5not?5enough?5space?5for?5lo@ 0043733c     LIBCMT:crt0msg.obj
 0002:00002374       ??_C@_0DF@IBLNNAIG@R6026?$AN?6?9?5not?5enough?5space?5for?5st@ 00437374     LIBCMT:crt0msg.obj
 0002:000023ac       ??_C@_0CG@IOHKGFNJ@R6025?$AN?6?9?5pure?5virtual?5function?5c@ 004373ac     LIBCMT:crt0msg.obj
 0002:000023d4       ??_C@_0DF@JIJJFJDC@R6024?$AN?6?9?5not?5enough?5space?5for?5_o@ 004373d4     LIBCMT:crt0msg.obj
 0002:0000240c       ??_C@_0CJ@EGEJHFME@R6019?$AN?6?9?5unable?5to?5open?5console?5@ 0043740c     LIBCMT:crt0msg.obj
 0002:00002438       ??_C@_0CB@GNHNIELH@R6018?$AN?6?9?5unexpected?5heap?5error?$AN?6@ 00437438     LIBCMT:crt0msg.obj
 0002:0000245c       ??_C@_0CN@FOLDKNG@R6017?$AN?6?9?5unexpected?5multithread?5@ 0043745c     LIBCMT:crt0msg.obj
 0002:0000248c       ??_C@_0CM@FAHFJNHO@R6016?$AN?6?9?5not?5enough?5space?5for?5th@ 0043748c     LIBCMT:crt0msg.obj
 0002:000024b8       ??_C@_0JG@LBKMGKLD@?$AN?6This?5application?5has?5requested@ 004374b8     LIBCMT:crt0msg.obj
 0002:00002550       ??_C@_0CM@FLCNIPKK@R6009?$AN?6?9?5not?5enough?5space?5for?5en@ 00437550     LIBCMT:crt0msg.obj
 0002:0000257c       ??_C@_0CK@KMMJOAPP@R6008?$AN?6?9?5not?5enough?5space?5for?5ar@ 0043757c     LIBCMT:crt0msg.obj
 0002:000025a8       ??_C@_0CN@LEKKICBM@R6002?$AN?6?9?5floating?5point?5support?5@ 004375a8     LIBCMT:crt0msg.obj
 0002:000025d8       ??_C@_0CF@GOGNBNAK@Microsoft?5Visual?5C?$CL?$CL?5Runtime?5Lib@ 004375d8     LIBCMT:crt0msg.obj
 0002:00002600       ??_C@_02PHMGELLB@?6?6?$AA@ 00437600     LIBCMT:crt0msg.obj
 0002:00002604       ??_C@_03KHICJKCI@?4?4?4?$AA@ 00437604     LIBCMT:crt0msg.obj
 0002:00002608       ??_C@_0BH@DNAGHKFM@?$DMprogram?5name?5unknown?$DO?$AA@ 00437608     LIBCMT:crt0msg.obj
 0002:00002620       ??_C@_0BK@OFGJDLJJ@Runtime?5Error?$CB?6?6Program?3?5?$AA@ 00437620     LIBCMT:crt0msg.obj
 0002:0000263c       ??_C@_02CLFPBFFP@TZ?$AA@   0043763c     LIBCMT:tzset.obj
 0002:00002640       ___dnames                  00437640     LIBCMT:timeset.obj
 0002:00002658       ___mnames                  00437658     LIBCMT:timeset.obj
 0002:00002680       ??_C@_13NOLLCAOD@?$AA?$AA?$AA?$AA@ 00437680     LIBCMT:a_map.obj
 0002:00002688       ___newctype                00437688     LIBCMT:ctype.obj
 0002:00002988       __wctype                   00437988     LIBCMT:ctype.obj
 0002:00002b90       ___newclmap                00437b90     LIBCMT:ctype.obj
 0002:00002d10       ___newcumap                00437d10     LIBCMT:ctype.obj
 0002:00002e90       ??_C@_08JCCMCCIL@HH?3mm?3ss?$AA@ 00437e90     LIBCMT:strftime.obj
 0002:00002e9c       ??_C@_0BE@CKGJFCPC@dddd?0?5MMMM?5dd?0?5yyyy?$AA@ 00437e9c     LIBCMT:strftime.obj
 0002:00002eb0       ??_C@_08BPBNCDIB@MM?1dd?1yy?$AA@ 00437eb0     LIBCMT:strftime.obj
 0002:00002ebc       ??_C@_02CJNFDJBF@PM?$AA@   00437ebc     LIBCMT:strftime.obj
 0002:00002ec0       ??_C@_02DEDBPAFC@AM?$AA@   00437ec0     LIBCMT:strftime.obj
 0002:00002ec4       ??_C@_08EDHMEBNP@December?$AA@ 00437ec4     LIBCMT:strftime.obj
 0002:00002ed0       ??_C@_08HCHEGEOA@November?$AA@ 00437ed0     LIBCMT:strftime.obj
 0002:00002edc       ??_C@_07JJNFCEND@October?$AA@ 00437edc     LIBCMT:strftime.obj
 0002:00002ee4       ??_C@_09BHHEALKD@September?$AA@ 00437ee4     LIBCMT:strftime.obj
 0002:00002ef0       ??_C@_06LBBHFDDG@August?$AA@ 00437ef0     LIBCMT:strftime.obj
 0002:00002ef8       ??_C@_04MIEPOIFP@July?$AA@ 00437ef8     LIBCMT:strftime.obj
 0002:00002f00       ??_C@_04CNLMGBGM@June?$AA@ 00437f00     LIBCMT:strftime.obj
 0002:00002f08       ??_C@_05DMJDNLEJ@April?$AA@ 00437f08     LIBCMT:strftime.obj
 0002:00002f10       ??_C@_05HPCKOFNC@March?$AA@ 00437f10     LIBCMT:strftime.obj
 0002:00002f18       ??_C@_08GNJGEPFN@February?$AA@ 00437f18     LIBCMT:strftime.obj
 0002:00002f24       ??_C@_07CGJPFGJA@January?$AA@ 00437f24     LIBCMT:strftime.obj
 0002:00002f2c       ??_C@_03MKABNOCG@Dec?$AA@  00437f2c     LIBCMT:strftime.obj
 0002:00002f30       ??_C@_03JPJOFNIA@Nov?$AA@  00437f30     LIBCMT:strftime.obj
 0002:00002f34       ??_C@_03BMAOKBAD@Oct?$AA@  00437f34     LIBCMT:strftime.obj
 0002:00002f38       ??_C@_03GGCAPAJC@Sep?$AA@  00437f38     LIBCMT:strftime.obj
 0002:00002f3c       ??_C@_03IFJFEIGA@Aug?$AA@  00437f3c     LIBCMT:strftime.obj
 0002:00002f40       ??_C@_03LBGABGKK@Jul?$AA@  00437f40     LIBCMT:strftime.obj
 0002:00002f44       ??_C@_03IDFGHECI@Jun?$AA@  00437f44     LIBCMT:strftime.obj
 0002:00002f48       ??_C@_03CNMDKL@May?$AA@    00437f48     LIBCMT:strftime.obj
 0002:00002f4c       ??_C@_03LEOLGMJP@Apr?$AA@  00437f4c     LIBCMT:strftime.obj
 0002:00002f50       ??_C@_03ODNJBKGA@Mar?$AA@  00437f50     LIBCMT:strftime.obj
 0002:00002f54       ??_C@_03HJBDCHOM@Feb?$AA@  00437f54     LIBCMT:strftime.obj
 0002:00002f58       ??_C@_03JIHJHPIE@Jan?$AA@  00437f58     LIBCMT:strftime.obj
 0002:00002f5c       ??_C@_08INBOOONO@Saturday?$AA@ 00437f5c     LIBCMT:strftime.obj
 0002:00002f68       ??_C@_06JECMNKMI@Friday?$AA@ 00437f68     LIBCMT:strftime.obj
 0002:00002f70       ??_C@_08HACCIKIA@Thursday?$AA@ 00437f70     LIBCMT:strftime.obj
 0002:00002f7c       ??_C@_09DLIGFAKA@Wednesday?$AA@ 00437f7c     LIBCMT:strftime.obj
 0002:00002f88       ??_C@_07BAAGCFCM@Tuesday?$AA@ 00437f88     LIBCMT:strftime.obj
 0002:00002f90       ??_C@_06JLEDEDGH@Monday?$AA@ 00437f90     LIBCMT:strftime.obj
 0002:00002f98       ??_C@_06OOPIFAJ@Sunday?$AA@ 00437f98     LIBCMT:strftime.obj
 0002:00002fa0       ??_C@_03FEFJNEK@Sat?$AA@   00437fa0     LIBCMT:strftime.obj
 0002:00002fa4       ??_C@_03IDIOELNC@Fri?$AA@  00437fa4     LIBCMT:strftime.obj
 0002:00002fa8       ??_C@_03IOFIKPDN@Thu?$AA@  00437fa8     LIBCMT:strftime.obj
 0002:00002fac       ??_C@_03MHOMLAJA@Wed?$AA@  00437fac     LIBCMT:strftime.obj
 0002:00002fb0       ??_C@_03NAGEINEP@Tue?$AA@  00437fb0     LIBCMT:strftime.obj
 0002:00002fb4       ??_C@_03PDAGKDH@Mon?$AA@   00437fb4     LIBCMT:strftime.obj
 0002:00002fb8       ??_C@_03KOEHGMDN@Sun?$AA@  00437fb8     LIBCMT:strftime.obj
 0002:00002fbc       ??_C@_03EBAPMIKO@a?1p?$AA@ 00437fbc     LIBCMT:strftime.obj
 0002:00002fc0       ??_C@_05JAMEPDIN@am?1pm?$AA@ 00437fc0     LIBCMT:strftime.obj
 0002:00002fc8       ??_C@_0O@FMJNFNKE@united?9states?$AA@ 00437fc8     LIBCMT:getqloc.obj
 0002:00002fd8       ??_C@_0P@NDHFFKCA@united?9kingdom?$AA@ 00437fd8     LIBCMT:getqloc.obj
 0002:00002fe8       ??_C@_0BC@HHDADLGF@trinidad?5?$CG?5tobago?$AA@ 00437fe8     LIBCMT:getqloc.obj
 0002:00002ffc       ??_C@_0M@IOAEBDAC@south?9korea?$AA@ 00437ffc     LIBCMT:getqloc.obj
 0002:00003008       ??_C@_0N@FIELFKIJ@south?9africa?$AA@ 00438008     LIBCMT:getqloc.obj
 0002:00003018       ??_C@_0M@OPNDHCMC@south?5korea?$AA@ 00438018     LIBCMT:getqloc.obj
 0002:00003024       ??_C@_0N@MDEOEPFI@south?5africa?$AA@ 00438024     LIBCMT:getqloc.obj
 0002:00003034       ??_C@_06FKAPCJLB@slovak?$AA@ 00438034     LIBCMT:getqloc.obj
 0002:0000303c       ??_C@_0M@EFJANOAL@puerto?9rico?$AA@ 0043803c     LIBCMT:getqloc.obj
 0002:00003048       ??_C@_08PGOJKDAI@pr?9china?$AA@ 00438048     LIBCMT:getqloc.obj
 0002:00003054       ??_C@_08JHDOMCMI@pr?5china?$AA@ 00438054     LIBCMT:getqloc.obj
 0002:00003060       ??_C@_02JHCHFBLL@nz?$AA@   00438060     LIBCMT:getqloc.obj
 0002:00003064       ??_C@_0M@LINHDHKP@new?9zealand?$AA@ 00438064     LIBCMT:getqloc.obj
 0002:00003070       ??_C@_09IIIPPBDB@hong?9kong?$AA@ 00438070     LIBCMT:getqloc.obj
 0002:0000307c       ??_C@_07HJLCKBG@holland?$AA@ 0043807c     LIBCMT:getqloc.obj
 0002:00003084       ??_C@_0O@LEHGMHAG@great?5britain?$AA@ 00438084     LIBCMT:getqloc.obj
 0002:00003094       ??_C@_07FACOMELA@england?$AA@ 00438094     LIBCMT:getqloc.obj
 0002:0000309c       ??_C@_05JIHCEICB@czech?$AA@ 0043809c     LIBCMT:getqloc.obj
 0002:000030a4       ??_C@_05BBJOBLGB@china?$AA@ 004380a4     LIBCMT:getqloc.obj
 0002:000030ac       ??_C@_07GPKPHICP@britain?$AA@ 004380ac     LIBCMT:getqloc.obj
 0002:000030b4       ??_C@_07MHIPBHMG@america?$AA@ 004380b4     LIBCMT:getqloc.obj
 0002:000030bc       ??_C@_03KIALPMKC@usa?$AA@  004380bc     LIBCMT:getqloc.obj
 0002:000030c0       ??_C@_02FGJGKGGD@us?$AA@   004380c0     LIBCMT:getqloc.obj
 0002:000030c4       ??_C@_02NEINDODK@uk?$AA@   004380c4     LIBCMT:getqloc.obj
 0002:000030c8       ??_C@_05JMPCFJFJ@swiss?$AA@ 004380c8     LIBCMT:getqloc.obj
 0002:000030d0       ??_C@_0BA@HLOCPIOD@swedish?9finland?$AA@ 004380d0     LIBCMT:getqloc.obj
 0002:000030e0       ??_C@_0BC@PKCNIABK@spanish?9venezuela?$AA@ 004380e0     LIBCMT:getqloc.obj
 0002:000030f4       ??_C@_0BA@GBHHMIJI@spanish?9uruguay?$AA@ 004380f4     LIBCMT:getqloc.obj
 0002:00003104       ??_C@_0BE@BHDOHPMC@spanish?9puerto?5rico?$AA@ 00438104     LIBCMT:getqloc.obj
 0002:00003118       ??_C@_0N@KMOIDGGN@spanish?9peru?$AA@ 00438118     LIBCMT:getqloc.obj
 0002:00003128       ??_C@_0BB@HMHLPGPH@spanish?9paraguay?$AA@ 00438128     LIBCMT:getqloc.obj
 0002:0000313c       ??_C@_0P@MCPKNGFD@spanish?9panama?$AA@ 0043813c     LIBCMT:getqloc.obj
 0002:0000314c       ??_C@_0BC@IHOHGAIL@spanish?9nicaragua?$AA@ 0043814c     LIBCMT:getqloc.obj
 0002:00003160       ??_C@_0P@KLMJDNFJ@spanish?9modern?$AA@ 00438160     LIBCMT:getqloc.obj
 0002:00003170       ??_C@_0BA@BPAPGBCM@spanish?9mexican?$AA@ 00438170     LIBCMT:getqloc.obj
 0002:00003180       ??_C@_0BB@PDECHHHE@spanish?9honduras?$AA@ 00438180     LIBCMT:getqloc.obj
 0002:00003194       ??_C@_0BC@KLHKFGDB@spanish?9guatemala?$AA@ 00438194     LIBCMT:getqloc.obj
 0002:000031a8       ??_C@_0BE@MFOOKJAI@spanish?9el?5salvador?$AA@ 004381a8     LIBCMT:getqloc.obj
 0002:000031bc       ??_C@_0BA@FCOKFPFC@spanish?9ecuador?$AA@ 004381bc     LIBCMT:getqloc.obj
 0002:000031cc       ??_C@_0BL@PLMGIMOO@spanish?9dominican?5republic?$AA@ 004381cc     LIBCMT:getqloc.obj
 0002:000031e8       ??_C@_0BD@HLGDNMHB@spanish?9costa?5rica?$AA@ 004381e8     LIBCMT:getqloc.obj
 0002:000031fc       ??_C@_0BB@PKCBKCPE@spanish?9colombia?$AA@ 004381fc     LIBCMT:getqloc.obj
 0002:00003210       ??_C@_0O@MCBIJGNE@spanish?9chile?$AA@ 00438210     LIBCMT:getqloc.obj
 0002:00003220       ??_C@_0BA@BEFEIGJJ@spanish?9bolivia?$AA@ 00438220     LIBCMT:getqloc.obj
 0002:00003230       ??_C@_0BC@EMECMPD@spanish?9argentina?$AA@ 00438230     LIBCMT:getqloc.obj
 0002:00003244       ??_C@_0BF@EALFLENP@portuguese?9brazilian?$AA@ 00438244     LIBCMT:getqloc.obj
 0002:0000325c       ??_C@_0BC@HBLEBLNN@norwegian?9nynorsk?$AA@ 0043825c     LIBCMT:getqloc.obj
 0002:00003270       ??_C@_0BB@HMACDDCK@norwegian?9bokmal?$AA@ 00438270     LIBCMT:getqloc.obj
 0002:00003284       ??_C@_09BAFFPPHE@norwegian?$AA@ 00438284     LIBCMT:getqloc.obj
 0002:00003290       ??_C@_0O@EAJFJDFG@italian?9swiss?$AA@ 00438290     LIBCMT:getqloc.obj
 0002:000032a0       ??_C@_0O@CNOMPGD@irish?9english?$AA@ 004382a0     LIBCMT:getqloc.obj
 0002:000032b0       ??_C@_0N@EDHBGCKG@german?9swiss?$AA@ 004382b0     LIBCMT:getqloc.obj
 0002:000032c0       ??_C@_0BC@JACMHNBP@german?9luxembourg?$AA@ 004382c0     LIBCMT:getqloc.obj
 0002:000032d4       ??_C@_0BE@HBGMGFEG@german?9lichtenstein?$AA@ 004382d4     LIBCMT:getqloc.obj
 0002:000032e8       ??_C@_0BA@HKKBIBKL@german?9austrian?$AA@ 004382e8     LIBCMT:getqloc.obj
 0002:000032f8       ??_C@_0N@GCAEPEBK@french?9swiss?$AA@ 004382f8     LIBCMT:getqloc.obj
 0002:00003308       ??_C@_0BC@DJFJJCK@french?9luxembourg?$AA@ 00438308     LIBCMT:getqloc.obj
 0002:0000331c       ??_C@_0BA@NNCEDFIC@french?9canadian?$AA@ 0043831c     LIBCMT:getqloc.obj
 0002:0000332c       ??_C@_0P@CMPOCLM@french?9belgian?$AA@ 0043832c     LIBCMT:getqloc.obj
 0002:0000333c       ??_C@_0M@GHHDJOK@english?9usa?$AA@ 0043833c     LIBCMT:getqloc.obj
 0002:00003348       ??_C@_0L@PLDJKEIL@english?9us?$AA@ 00438348     LIBCMT:getqloc.obj
 0002:00003354       ??_C@_0L@HJCCDMNC@english?9uk?$AA@ 00438354     LIBCMT:getqloc.obj
 0002:00003360       ??_C@_0BK@CKLIAGJB@english?9trinidad?5y?5tobago?$AA@ 00438360     LIBCMT:getqloc.obj
 0002:0000337c       ??_C@_0BF@JMJMGNNF@english?9south?5africa?$AA@ 0043837c     LIBCMT:getqloc.obj
 0002:00003394       ??_C@_0L@DKIIFDFD@english?9nz?$AA@ 00438394     LIBCMT:getqloc.obj
 0002:000033a0       ??_C@_0BA@ONHGJCLH@english?9jamaica?$AA@ 004383a0     LIBCMT:getqloc.obj
 0002:000033b0       ??_C@_0M@HJBGHOPO@english?9ire?$AA@ 004383b0     LIBCMT:getqloc.obj
 0002:000033bc       ??_C@_0BC@LFEKMIFB@english?9caribbean?$AA@ 004383bc     LIBCMT:getqloc.obj
 0002:000033d0       ??_C@_0M@OLDPFKHI@english?9can?$AA@ 004383d0     LIBCMT:getqloc.obj
 0002:000033dc       ??_C@_0P@OMDEHBMP@english?9belize?$AA@ 004383dc     LIBCMT:getqloc.obj
 0002:000033ec       ??_C@_0M@KFHFPFED@english?9aus?$AA@ 004383ec     LIBCMT:getqloc.obj
 0002:000033f8       ??_C@_0BB@MNMBKDFE@english?9american?$AA@ 004383f8     LIBCMT:getqloc.obj
 0002:0000340c       ??_C@_0O@KIDLNNBA@dutch?9belgian?$AA@ 0043840c     LIBCMT:getqloc.obj
 0002:0000341c       ??_C@_0BE@JBKABBMH@chinese?9traditional?$AA@ 0043841c     LIBCMT:getqloc.obj
 0002:00003430       ??_C@_0BC@MJJMPKCG@chinese?9singapore?$AA@ 00438430     LIBCMT:getqloc.obj
 0002:00003444       ??_C@_0BD@FDKADDCP@chinese?9simplified?$AA@ 00438444     LIBCMT:getqloc.obj
 0002:00003458       ??_C@_0BB@DBEFDDME@chinese?9hongkong?$AA@ 00438458     LIBCMT:getqloc.obj
 0002:0000346c       ??_C@_07DHNMFMCI@chinese?$AA@ 0043846c     LIBCMT:getqloc.obj
 0002:00003474       ??_C@_03FNDDCHI@chi?$AA@   00438474     LIBCMT:getqloc.obj
 0002:00003478       ??_C@_03BMMIADDJ@chh?$AA@  00438478     LIBCMT:getqloc.obj
 0002:0000347c       ??_C@_08OAIPJDGI@canadian?$AA@ 0043847c     LIBCMT:getqloc.obj
 0002:00003488       ??_C@_07HBPMNPNJ@belgian?$AA@ 00438488     LIBCMT:getqloc.obj
 0002:00003490       ??_C@_0L@OEKOPBEL@australian?$AA@ 00438490     LIBCMT:getqloc.obj
 0002:0000349c       ??_C@_0BB@MEIMBEDG@american?9english?$AA@ 0043849c     LIBCMT:getqloc.obj
 0002:000034b0       ??_C@_0BB@DFMDPDGB@american?5english?$AA@ 004384b0     LIBCMT:getqloc.obj
 0002:000034c4       ??_C@_08IJLOKOLL@american?$AA@ 004384c4     LIBCMT:getqloc.obj
 0002:000034d0       ___rg_language             004384d0     LIBCMT:getqloc.obj
 0002:000036d8       ___rg_country              004386d8     LIBCMT:getqloc.obj
 0002:00003790       ___rglangidNotDefault      00438790     LIBCMT:getqloc.obj
 0002:000037a4       ??_C@_03NFKLAGEF@OCP?$AA@  004387a4     LIBCMT:getqloc.obj
 0002:000037a8       ??_C@_03DFHEHBHG@ACP?$AA@  004387a8     LIBCMT:getqloc.obj
 0002:000037ac       ??_C@_0BC@NFIEMBLL@Norwegian?9Nynorsk?$AA@ 004387ac     LIBCMT:getqloc.obj
 0002:000037c0       ??_C@_0CG@PKBDLMEO@InitializeCriticalSectionAndSpin@ 004387c0     LIBCMT:initcrit.obj
 0002:000037e8       ??_C@_0N@MDJJJHMB@kernel32?4dll?$AA@ 004387e8     LIBCMT:initcrit.obj
 0002:000037f8       ??_C@_0BC@JEAENNKH@SystemFunction036?$AA@ 004387f8     LIBCMT:rand_s.obj
 0002:0000380c       ??_C@_0N@JJPEKNFO@ADVAPI32?4DLL?$AA@ 0043880c     LIBCMT:rand_s.obj
 0002:0000381c       ??_C@_0BK@CFCOFLF@?5Complete?5Object?5Locator?8?$AA@ 0043881c     LIBCMT:undname.obj
 0002:00003838       ??_C@_0BN@MECKDCOJ@?5Class?5Hierarchy?5Descriptor?8?$AA@ 00438838     LIBCMT:undname.obj
 0002:00003858       ??_C@_0BD@LGICGFMM@?5Base?5Class?5Array?8?$AA@ 00438858     LIBCMT:undname.obj
 0002:0000386c       ??_C@_0BM@LDKODKLH@?5Base?5Class?5Descriptor?5at?5?$CI?$AA@ 0043886c     LIBCMT:undname.obj
 0002:00003888       ??_C@_0BC@DAFEJGAK@?5Type?5Descriptor?8?$AA@ 00438888     LIBCMT:undname.obj
 0002:0000389c       ??_C@_0BM@PMGGMLDN@?$GAlocal?5static?5thread?5guard?8?$AA@ 0043889c     LIBCMT:undname.obj
 0002:000038b8       ??_C@_0CL@FGIJHLCE@?$GAmanaged?5vector?5copy?5constructor@ 004388b8     LIBCMT:undname.obj
 0002:000038e4       ??_C@_0CJ@GJELGAMM@?$GAvector?5vbase?5copy?5constructor?5i@ 004388e4     LIBCMT:undname.obj
 0002:00003910       ??_C@_0CD@CGAJBKEJ@?$GAvector?5copy?5constructor?5iterato@ 00438910     LIBCMT:undname.obj
 0002:00003934       ??_C@_0CB@PDBIFEP@?$GAdynamic?5atexit?5destructor?5for?5?8@ 00438934     LIBCMT:undname.obj
 0002:00003958       ??_C@_0BL@CLIPGLGB@?$GAdynamic?5initializer?5for?5?8?$AA@ 00438958     LIBCMT:undname.obj
 0002:00003974       ??_C@_0CM@FCBBDIGB@?$GAeh?5vector?5vbase?5copy?5constructo@ 00438974     LIBCMT:undname.obj
 0002:000039a0       ??_C@_0CG@HLDDJMAG@?$GAeh?5vector?5copy?5constructor?5iter@ 004389a0     LIBCMT:undname.obj
 0002:000039c8       ??_C@_0CF@IMGKMJNO@?$GAmanaged?5vector?5destructor?5itera@ 004389c8     LIBCMT:undname.obj
 0002:000039f0       ??_C@_0CG@CFDHKGGD@?$GAmanaged?5vector?5constructor?5iter@ 004389f0     LIBCMT:undname.obj
 0002:00003a18       ??_C@_0BN@CKNJLHMB@?$GAplacement?5delete?$FL?$FN?5closure?8?$AA@ 00438a18     LIBCMT:undname.obj
 0002:00003a38       ??_C@_0BL@CNOONJFP@?$GAplacement?5delete?5closure?8?$AA@ 00438a38     LIBCMT:undname.obj
 0002:00003a54       ??_C@_0P@HJKNJFNN@?$GAomni?5callsig?8?$AA@ 00438a54     LIBCMT:undname.obj
 0002:00003a64       ??_C@_09LBNFPBCA@?5delete?$FL?$FN?$AA@ 00438a64     LIBCMT:undname.obj
 0002:00003a70       ??_C@_06FHBGPFGH@?5new?$FL?$FN?$AA@ 00438a70     LIBCMT:undname.obj
 0002:00003a78       ??_C@_0CE@IIHCMGGL@?$GAlocal?5vftable?5constructor?5closu@ 00438a78     LIBCMT:undname.obj
 0002:00003a9c       ??_C@_0BA@KKLDJDLB@?$GAlocal?5vftable?8?$AA@ 00438a9c     LIBCMT:undname.obj
 0002:00003aac       ??_C@_05KHLCHHI@?$GARTTI?$AA@ 00438aac     LIBCMT:undname.obj
 0002:00003ab4       ??_C@_03KLGMFNMG@?$GAEH?$AA@ 00438ab4     LIBCMT:undname.obj
 0002:00003ab8       ??_C@_0BA@KBCDOMBN@?$GAudt?5returning?8?$AA@ 00438ab8     LIBCMT:undname.obj
 0002:00003ac8       ??_C@_0BL@LLKPOHJI@?$GAcopy?5constructor?5closure?8?$AA@ 00438ac8     LIBCMT:undname.obj
 0002:00003ae4       ??_C@_0CH@OOJPLCPH@?$GAeh?5vector?5vbase?5constructor?5ite@ 00438ae4     LIBCMT:undname.obj
 0002:00003b0c       ??_C@_0CA@GCEOPDGL@?$GAeh?5vector?5destructor?5iterator?8?$AA@ 00438b0c     LIBCMT:undname.obj
 0002:00003b2c       ??_C@_0CB@JONCMFFK@?$GAeh?5vector?5constructor?5iterator?8@ 00438b2c     LIBCMT:undname.obj
 0002:00003b50       ??_C@_0BL@NILFHHPC@?$GAvirtual?5displacement?5map?8?$AA@ 00438b50     LIBCMT:undname.obj
 0002:00003b6c       ??_C@_0CE@IKBNEHA@?$GAvector?5vbase?5constructor?5iterat@ 00438b6c     LIBCMT:undname.obj
 0002:00003b90       ??_C@_0BN@LFPFMEDL@?$GAvector?5destructor?5iterator?8?$AA@ 00438b90     LIBCMT:undname.obj
 0002:00003bb0       ??_C@_0BO@PFGOCPJJ@?$GAvector?5constructor?5iterator?8?$AA@ 00438bb0     LIBCMT:undname.obj
 0002:00003bd0       ??_C@_0BN@IMDCHIKM@?$GAscalar?5deleting?5destructor?8?$AA@ 00438bd0     LIBCMT:undname.obj
 0002:00003bf0       ??_C@_0BO@OBMKPJIG@?$GAdefault?5constructor?5closure?8?$AA@ 00438bf0     LIBCMT:undname.obj
 0002:00003c10       ??_C@_0BN@DEGPLNFK@?$GAvector?5deleting?5destructor?8?$AA@ 00438c10     LIBCMT:undname.obj
 0002:00003c30       ??_C@_0BD@JDLKDPAB@?$GAvbase?5destructor?8?$AA@ 00438c30     LIBCMT:undname.obj
 0002:00003c44       ??_C@_08OBABFOLI@?$GAstring?8?$AA@ 00438c44     LIBCMT:undname.obj
 0002:00003c50       ??_C@_0BF@KDPPACIK@?$GAlocal?5static?5guard?8?$AA@ 00438c50     LIBCMT:undname.obj
 0002:00003c68       ??_C@_08LLFFHHDJ@?$GAtypeof?8?$AA@ 00438c68     LIBCMT:undname.obj
 0002:00003c74       ??_C@_07FEEIOKP@?$GAvcall?8?$AA@ 00438c74     LIBCMT:undname.obj
 0002:00003c7c       ??_C@_09BLBHBJP@?$GAvbtable?8?$AA@ 00438c7c     LIBCMT:undname.obj
 0002:00003c88       ??_C@_09IFPLHPGF@?$GAvftable?8?$AA@ 00438c88     LIBCMT:undname.obj
 0002:00003c94       ??_C@_02MHEGNOJ@?$FO?$DN?$AA@ 00438c94     LIBCMT:undname.obj
 0002:00003c98       ??_C@_02DHLNPPGH@?$HM?$DN?$AA@ 00438c98     LIBCMT:undname.obj
 0002:00003c9c       ??_C@_02FGJGFEAB@?$CG?$DN?$AA@ 00438c9c     LIBCMT:undname.obj
 0002:00003ca0       ??_C@_03CDNPDDLA@?$DM?$DM?$DN?$AA@ 00438ca0     LIBCMT:undname.obj
 0002:00003ca4       ??_C@_03IKFCCPFF@?$DO?$DO?$DN?$AA@ 00438ca4     LIBCMT:undname.obj
 0002:00003ca8       ??_C@_02FENAOKFI@?$CF?$DN?$AA@ 00438ca8     LIBCMT:undname.obj
 0002:00003cac       ??_C@_02FJEHGPIO@?1?$DN?$AA@ 00438cac     LIBCMT:undname.obj
 0002:00003cb0       ??_C@_02FKMDLLOA@?9?$DN?$AA@ 00438cb0     LIBCMT:undname.obj
 0002:00003cb4       ??_C@_02FOEOMHFC@?$CL?$DN?$AA@ 00438cb4     LIBCMT:undname.obj
 0002:00003cb8       ??_C@_02FPIMKNGF@?$CK?$DN?$AA@ 00438cb8     LIBCMT:undname.obj
 0002:00003cbc       ??_C@_02NONPIBCD@?$HM?$HM?$AA@ 00438cbc     LIBCMT:undname.obj
 0002:00003cc0       ??_C@_02PPKAJPJL@?$CG?$CG?$AA@ 00438cc0     LIBCMT:undname.obj
 0002:00003cc4       ??_C@_01DNKMNLPK@?$HM?$AA@ 00438cc4     LIBCMT:undname.obj
 0002:00003cc8       ??_C@_01JKBOJNNK@?$FO?$AA@ 00438cc8     LIBCMT:undname.obj
 0002:00003ccc       ??_C@_01PJKLJHI@?$HO?$AA@  00438ccc     LIBCMT:undname.obj
 0002:00003cd0       ??_C@_02HCKGKOFO@?$CI?$CJ?$AA@ 00438cd0     LIBCMT:undname.obj
 0002:00003cd4       ??_C@_01IHBHIGKO@?0?$AA@   00438cd4     LIBCMT:undname.obj
 0002:00003cd8       ??_C@_02EEKDKGMJ@?$DO?$DN?$AA@ 00438cd8     LIBCMT:undname.obj
 0002:00003cdc       ??_C@_01PPODPGHN@?$DO?$AA@ 00438cdc     LIBCMT:undname.obj
 0002:00003ce0       ??_C@_02EHCHHCKH@?$DM?$DN?$AA@ 00438ce0     LIBCMT:undname.obj
 0002:00003ce4       ??_C@_01MNNFJEPP@?$DM?$AA@ 00438ce4     LIBCMT:undname.obj
 0002:00003ce8       ??_C@_01FGNFDNOH@?$CF?$AA@ 00438ce8     LIBCMT:undname.obj
 0002:00003cec       ??_C@_01KMDKNFGN@?1?$AA@   00438cec     LIBCMT:undname.obj
 0002:00003cf0       ??_C@_03MNHNFDLC@?9?$DO?$CK?$AA@ 00438cf0     LIBCMT:undname.obj
 0002:00003cf4       ??_C@_01HNPIGOCE@?$CG?$AA@ 00438cf4     LIBCMT:undname.obj
 0002:00003cf8       ??_C@_01MIFGBAGJ@?$CL?$AA@ 00438cf8     LIBCMT:undname.obj
 0002:00003cfc       ??_C@_01JOAMLHOP@?9?$AA@   00438cfc     LIBCMT:undname.obj
 0002:00003d00       ??_C@_02BAABKJLB@?9?9?$AA@ 00438d00     LIBCMT:undname.obj
 0002:00003d04       ??_C@_02ECNGHCIF@?$CL?$CL?$AA@ 00438d04     LIBCMT:undname.obj
 0002:00003d08       ??_C@_01NBENCBCI@?$CK?$AA@ 00438d08     LIBCMT:undname.obj
 0002:00003d0c       ??_C@_02HBOOOICD@?9?$DO?$AA@ 00438d0c     LIBCMT:undname.obj
 0002:00003d10       ??_C@_08LHJFAFGD@operator?$AA@ 00438d10     LIBCMT:undname.obj
 0002:00003d1c       ??_C@_02GPECMEKF@?$FL?$FN?$AA@ 00438d1c     LIBCMT:undname.obj
 0002:00003d20       ??_C@_02FDNJECIE@?$CB?$DN?$AA@ 00438d20     LIBCMT:undname.obj
 0002:00003d24       ??_C@_02EGOFBIJA@?$DN?$DN?$AA@ 00438d24     LIBCMT:undname.obj
 0002:00003d28       ??_C@_01DCLJPIOD@?$CB?$AA@ 00438d28     LIBCMT:undname.obj
 0002:00003d2c       ??_C@_02FODMEDOG@?$DM?$DM?$AA@ 00438d2c     LIBCMT:undname.obj
 0002:00003d30       ??_C@_02GPIOPFAK@?$DO?$DO?$AA@ 00438d30     LIBCMT:undname.obj
 0002:00003d34       ??_C@_07FPCDHGMM@?5delete?$AA@ 00438d34     LIBCMT:undname.obj
 0002:00003d3c       ??_C@_04NIHEBCM@?5new?$AA@ 00438d3c     LIBCMT:undname.obj
 0002:00003d44       ??_C@_0M@GFIIJFMG@__unaligned?$AA@ 00438d44     LIBCMT:undname.obj
 0002:00003d50       ??_C@_0L@PILCLIHE@__restrict?$AA@ 00438d50     LIBCMT:undname.obj
 0002:00003d5c       ??_C@_07JOMMBBKO@__ptr64?$AA@ 00438d5c     LIBCMT:undname.obj
 0002:00003d64       ??_C@_09HIJEGCPM@__clrcall?$AA@ 00438d64     LIBCMT:undname.obj
 0002:00003d70       ??_C@_0L@JMKHOMEK@__fastcall?$AA@ 00438d70     LIBCMT:undname.obj
 0002:00003d7c       ??_C@_0L@NPHFGOKO@__thiscall?$AA@ 00438d7c     LIBCMT:undname.obj
 0002:00003d88       ??_C@_09IFJBGAPI@__stdcall?$AA@ 00438d88     LIBCMT:undname.obj
 0002:00003d94       ??_C@_08GHMPAG@__pascal?$AA@ 00438d94     LIBCMT:undname.obj
 0002:00003da0       ??_C@_07KOLFKCDI@__cdecl?$AA@ 00438da0     LIBCMT:undname.obj
 0002:00003da8       ??_C@_08EHJDFFNH@__based?$CI?$AA@ 00438da8     LIBCMT:undname.obj
 0002:00003f3c       ??_7DNameNode@@6B@         00438f3c     LIBCMT:undname.obj
 0002:00003f4c       ??_7charNode@@6B@          00438f4c     LIBCMT:undname.obj
 0002:00003f5c       ??_7pDNameNode@@6B@        00438f5c     LIBCMT:undname.obj
 0002:00003f6c       ??_7DNameStatusNode@@6B@   00438f6c     LIBCMT:undname.obj
 0002:00003f7c       ??_7pcharNode@@6B@         00438f7c     LIBCMT:undname.obj
 0002:00003f88       ??_C@_04OKOHEJBO@?5?$DP?$DP?5?$AA@ 00438f88     LIBCMT:undname.obj
 0002:00003f90       ??_C@_06EEGAIFAK@?$HLflat?$HN?$AA@ 00438f90     LIBCMT:undname.obj
 0002:00003f98       ??_C@_05JIBOFOHK@?$HLfor?5?$AA@ 00438f98     LIBCMT:undname.obj
 0002:00003fa0       ??_C@_0BN@IBLMMFAP@?$GAnon?9type?9template?9parameter?$AA@ 00438fa0     LIBCMT:undname.obj
 0002:00003fc0       ??_C@_09EBBEKKIH@unsigned?5?$AA@ 00438fc0     LIBCMT:undname.obj
 0002:00003fcc       ??_C@_05CJIMAING@long?5?$AA@ 00438fcc     LIBCMT:undname.obj
 0002:00003fd4       ??_C@_04LAHKHJMA@int?5?$AA@ 00438fd4     LIBCMT:undname.obj
 0002:00003fdc       ??_C@_06EHJMALKF@short?5?$AA@ 00438fdc     LIBCMT:undname.obj
 0002:00003fe4       ??_C@_05CIHEBHNO@char?5?$AA@ 00438fe4     LIBCMT:undname.obj
 0002:00003fec       ??_C@_04GKJNKENE@void?$AA@ 00438fec     LIBCMT:undname.obj
 0002:00003ff4       ??_C@_0L@EGPHHEKN@?$DMellipsis?$DO?$AA@ 00438ff4     LIBCMT:undname.obj
 0002:00004000       ??_C@_0M@ELJOJFFH@?0?$DMellipsis?$DO?$AA@ 00439000     LIBCMT:undname.obj
 0002:0000400c       ??_C@_04EENFHACM@?0?4?4?4?$AA@ 0043900c     LIBCMT:undname.obj
 0002:00004014       ??_C@_07HDJPLPEK@?5throw?$CI?$AA@ 00439014     LIBCMT:undname.obj
 0002:0000401c       ??_C@_02GOGNNPBN@?$CJ?$FL?$AA@ 0043901c     LIBCMT:undname.obj
 0002:00004020       ??_C@_02MDINNEEG@s?5?$AA@  00439020     LIBCMT:undname.obj
 0002:00004024       ??_C@_0BE@EODMJLIF@?$GAtemplate?9parameter?$AA@ 00439024     LIBCMT:undname.obj
 0002:00004038       ??_C@_01GEODFPGF@?8?$AA@   00439038     LIBCMT:undname.obj
 0002:0000403c       ??_C@_04HIBGFPH@NULL?$AA@  0043903c     LIBCMT:undname.obj
 0002:00004044       ??_C@_0O@GKABPPIF@cli?3?3pin_ptr?$DM?$AA@ 00439044     LIBCMT:undname.obj
 0002:00004054       ??_C@_0M@EALIELKG@cli?3?3array?$DM?$AA@ 00439054     LIBCMT:undname.obj
 0002:00004060       ??_C@_05BEFAKPML@void?5?$AA@ 00439060     LIBCMT:undname.obj
 0002:00004068       ??_C@_02OHHJMEON@?8?8?$AA@ 00439068     LIBCMT:undname.obj
 0002:0000406c       ??_C@_0BG@JNJLAMPM@?$GAanonymous?5namespace?8?$AA@ 0043906c     LIBCMT:undname.obj
 0002:00004084       ??_C@_01NLNLIGKH@?$GA?$AA@ 00439084     LIBCMT:undname.obj
 0002:00004088       ??_C@_0O@KHGCOMHP@generic?9type?9?$AA@ 00439088     LIBCMT:undname.obj
 0002:00004098       ??_C@_0BE@JAEOCHPE@template?9parameter?9?$AA@ 00439098     LIBCMT:undname.obj
 0002:000040ac       ??_C@_02MOLJINC@?3?3?$AA@  004390ac     LIBCMT:undname.obj
 0002:000040b0       ??_C@_0P@GCIFDJCJ@?$GAunknown?5ecsu?8?$AA@ 004390b0     LIBCMT:undname.obj
 0002:000040c0       ??_C@_06MOJHIBMG@union?5?$AA@ 004390c0     LIBCMT:undname.obj
 0002:000040c8       ??_C@_07DIBCDNGL@struct?5?$AA@ 004390c8     LIBCMT:undname.obj
 0002:000040d0       ??_C@_06LJBABKPM@class?5?$AA@ 004390d0     LIBCMT:undname.obj
 0002:000040d8       ??_C@_05LJGMCFOG@enum?5?$AA@ 004390d8     LIBCMT:undname.obj
 0002:000040e0       ??_C@_08KOFANOFK@coclass?5?$AA@ 004390e0     LIBCMT:undname.obj
 0002:000040ec       ??_C@_0N@DLIEFKNA@cointerface?5?$AA@ 004390ec     LIBCMT:undname.obj
 0002:000040fc       ??_C@_02KCKGHPCA@?$CJ?5?$AA@ 004390fc     LIBCMT:undname.obj
 0002:00004100       ??_C@_0M@DHNBOJMP@extern?5?$CCC?$CC?5?$AA@ 00439100     LIBCMT:undname.obj
 0002:0000410c       ??_C@_08KJLFOPNE@?$FLthunk?$FN?3?$AA@ 0043910c     LIBCMT:undname.obj
 0002:00004118       ??_C@_08GPDDCMKI@public?3?5?$AA@ 00439118     LIBCMT:undname.obj
 0002:00004124       ??_C@_0M@GAIFPFIP@protected?3?5?$AA@ 00439124     LIBCMT:undname.obj
 0002:00004130       ??_C@_09LAPHOOG@private?3?5?$AA@ 00439130     LIBCMT:undname.obj
 0002:0000413c       ??_C@_08NIEOINHE@virtual?5?$AA@ 0043913c     LIBCMT:undname.obj
 0002:00004148       ??_C@_07PGOEDBHP@static?5?$AA@ 00439148     LIBCMT:undname.obj
 0002:00004150       ??_C@_0DA@HGFJFBBE@?$GAtemplate?5static?5data?5member?5des@ 00439150     LIBCMT:undname.obj
 0002:00004180       ??_C@_0DB@ILEFOCIJ@?$GAtemplate?5static?5data?5member?5con@ 00439180     LIBCMT:undname.obj
 0002:000041b4       ??_C@_0CB@KJDOOODE@?$GAlocal?5static?5destructor?5helper?8@ 004391b4     LIBCMT:undname.obj
 0002:000041d8       ??_C@_0L@HNGCOGAE@?$GAadjustor?$HL?$AA@ 004391d8     LIBCMT:undname.obj
 0002:000041e4       ??_C@_0L@GHPFDFH@?$GAvtordisp?$HL?$AA@ 004391e4     LIBCMT:undname.obj
 0002:000041f0       ??_C@_0N@CBHHHENL@?$GAvtordispex?$HL?$AA@ 004391f0     LIBCMT:undname.obj
 0002:00004200       ??_C@_02IGFCGPIL@?$HN?8?$AA@ 00439200     LIBCMT:undname.obj
 0002:00004204       ??_C@_03OPGICMGF@?$HN?8?5?$AA@ 00439204     LIBCMT:undname.obj
 0002:00004208       ??_C@_06LIJLOJAG@const?5?$AA@ 00439208     LIBCMT:undname.obj
 0002:00004210       ??_C@_09GAIEOBLP@volatile?5?$AA@ 00439210     LIBCMT:undname.obj
 0002:0000421c       ??_C@_04HEJADOOB@CV?3?5?$AA@ 0043921c     LIBCMT:undname.obj
 0002:00004224       ??_C@_08PABEKFH@volatile?$AA@ 00439224     LIBCMT:undname.obj
 0002:00004230       ??_C@_09EFNPDFFP@?5volatile?$AA@ 00439230     LIBCMT:undname.obj
 0002:0000423c       ??_C@_05BNCCCJPP@const?$AA@ 0043923c     LIBCMT:undname.obj
 0002:00004244       ??_C@_07EDHNAJHC@signed?5?$AA@ 00439244     LIBCMT:undname.obj
 0002:0000424c       ??_C@_06BNJCAIGJ@double?$AA@ 0043924c     LIBCMT:undname.obj
 0002:00004254       ??_C@_04DDKJGDCM@bool?$AA@ 00439254     LIBCMT:undname.obj
 0002:0000425c       ??_C@_07CLGGIAMF@wchar_t?$AA@ 0043925c     LIBCMT:undname.obj
 0002:00004264       ??_C@_07NFANNNEC@UNKNOWN?$AA@ 00439264     LIBCMT:undname.obj
 0002:0000426c       ??_C@_08GAHOLHEO@__int128?$AA@ 0043926c     LIBCMT:undname.obj
 0002:00004278       ??_C@_07OFLPPHGP@__int32?$AA@ 00439278     LIBCMT:undname.obj
 0002:00004280       ??_C@_07LFCOJCAC@__int64?$AA@ 00439280     LIBCMT:undname.obj
 0002:00004288       ??_C@_07ICFHOGAF@__int16?$AA@ 00439288     LIBCMT:undname.obj
 0002:00004290       ??_C@_06GCICPBLB@__w64?5?$AA@ 00439290     LIBCMT:undname.obj
 0002:00004298       ??_C@_06EBGKOKIG@__int8?$AA@ 00439298     LIBCMT:undname.obj
 0002:000042a0       ??_C@_05KNFBNCOH@float?$AA@ 004392a0     LIBCMT:undname.obj
 0002:000042a8       ??_C@_04GOKPGOLB@long?$AA@ 004392a8     LIBCMT:undname.obj
 0002:000042b0       ??_C@_03JBIPMCLC@int?$AA@  004392b0     LIBCMT:undname.obj
 0002:000042b4       ??_C@_05BFKKPKCG@short?$AA@ 004392b4     LIBCMT:undname.obj
 0002:000042bc       ??_C@_04ENMBGAPA@char?$AA@ 004392bc     LIBCMT:undname.obj
 0002:000042c4       ??_C@_0BI@DFKBFLJE@GetProcessWindowStation?$AA@ 004392c4     LIBCMT:crtmbox.obj
 0002:000042dc       ??_C@_0BK@CIDNPOGP@GetUserObjectInformationA?$AA@ 004392dc     LIBCMT:crtmbox.obj
 0002:000042f8       ??_C@_0BD@HHGDFDBJ@GetLastActivePopup?$AA@ 004392f8     LIBCMT:crtmbox.obj
 0002:0000430c       ??_C@_0BA@HNOPNCHB@GetActiveWindow?$AA@ 0043930c     LIBCMT:crtmbox.obj
 0002:0000431c       ??_C@_0M@CHKKJDAI@MessageBoxA?$AA@ 0043931c     LIBCMT:crtmbox.obj
 0002:00004328       ??_C@_0L@NDEGIDAG@USER32?4DLL?$AA@ 00439328     LIBCMT:crtmbox.obj
 0002:00004334       ??_C@_06GDENEHCP@CONIN$?$AA@ 00439334     LIBCMT:initcon.obj
 0002:0000433c       ??_C@_07GPDNMNG@CONOUT$?$AA@ 0043933c     LIBCMT:initcon.obj
 0002:00004348       ??_7invalid_argument@std@@6B@ 00439348     libcpmt:string.obj
 0002:00004350       ??_C@_0BA@JFNIOLAK@string?5too?5long?$AA@ 00439350     libcpmt:string.obj
 0002:00004360       ??_C@_0BI@CFPLBAOH@invalid?5string?5position?$AA@ 00439360     libcpmt:string.obj
 0002:00004378       ??_C@_0BI@ILCMCLF@invalid?5string?5argument?$AA@ 00439378     libcpmt:string.obj
 0002:00004390       __GUID_df0b3d60_548f_101b_8e65_08002b2bd119 00439390     comsuppw:comsupp.obj
 0002:000043a0       __GUID_00000000_0000_0000_0000_000000000000 004393a0     comsuppw:invkprxy.obj
 0002:000043b0       __GUID_1cf2b120_547d_101b_8e65_08002b2bd119 004393b0     comsuppw:invkerr.obj
 0002:000043c0       __GUID_00020400_0000_0000_c000_000000000046 004393c0     comsuppw:invkerr.obj
 0002:000043d0       __FPinit                   004393d0     LIBCMT:fpinit.obj
 0002:000043d4       __FPmtinit                 004393d4     LIBCMT:fpinit.obj
 0002:000043d8       __FPmtterm                 004393d8     LIBCMT:fpinit.obj
 0002:000043e0       __real@0000000000000000    004393e0     LIBCMT:cvt.obj
 0002:000043e8       ??_C@_05KLBDPFGC@e?$CL000?$AA@ 004393e8     LIBCMT:cvt.obj
 0002:000043f0       __real@3ff0000000000000    004393f0     LIBCMT:testfdiv.obj
 0002:000043f8       __real@4150017ec0000000    004393f8     LIBCMT:testfdiv.obj
 0002:00004400       __real@4147ffff80000000    00439400     LIBCMT:testfdiv.obj
 0002:00004408       ??_C@_0BK@NHEOCAHP@IsProcessorFeaturePresent?$AA@ 00439408     LIBCMT:testfdiv.obj
 0002:00004424       ??_C@_08CPNIBGIE@KERNEL32?$AA@ 00439424     LIBCMT:testfdiv.obj
 0002:00004430       ??_C@_06IMKFLFPG@1?$CDQNAN?$AA@ 00439430     LIBCMT:x10fout.obj
 0002:00004438       ??_C@_05DNEBIAHO@1?$CDINF?$AA@ 00439438     LIBCMT:x10fout.obj
 0002:00004440       ??_C@_05PHHOCPM@1?$CDIND?$AA@ 00439440     LIBCMT:x10fout.obj
 0002:00004448       ??_C@_06PGGFOGJG@1?$CDSNAN?$AA@ 00439448     LIBCMT:x10fout.obj
 0002:00004450       __load_config_used         00439450     LIBCMT:loadcfg.obj
 0002:00004500       ??_R4KThread@@6B@          00439500     KThread.obj
 0002:00004514       ??_R3KThread@@8            00439514     KThread.obj
 0002:00004524       ??_R2KThread@@8            00439524     KThread.obj
 0002:0000452c       ??_R1A@?0A@EA@KThread@@8   0043952c     KThread.obj
 0002:00004548       ??_R4K_CS@@6B@             00439548     KThread.obj
 0002:0000455c       ??_R3K_CS@@8               0043955c     KThread.obj
 0002:0000456c       ??_R2K_CS@@8               0043956c     KThread.obj
 0002:00004574       ??_R1A@?0A@EA@K_CS@@8      00439574     KThread.obj
 0002:00004590       ??_R4bad_alloc@std@@6B@    00439590     LogFile.obj
 0002:000045a4       ??_R3bad_alloc@std@@8      004395a4     LogFile.obj
 0002:000045b4       ??_R2bad_alloc@std@@8      004395b4     LogFile.obj
 0002:000045c0       ??_R1A@?0A@EA@bad_alloc@std@@8 004395c0     LogFile.obj
 0002:000045dc       ??_R1A@?0A@EA@exception@std@@8 004395dc     LogFile.obj
 0002:000045f8       ??_R3exception@std@@8      004395f8     LogFile.obj
 0002:00004608       ??_R2exception@std@@8      00439608     LogFile.obj
 0002:00004610       ??_R4CLogFile@@6B@         00439610     LogFile.obj
 0002:00004624       ??_R3CLogFile@@8           00439624     LogFile.obj
 0002:00004634       ??_R2CLogFile@@8           00439634     LogFile.obj
 0002:0000463c       ??_R1A@?0A@EA@CLogFile@@8  0043963c     LogFile.obj
 0002:00004658       ??_R4_com_error@@6B@       00439658     S3P_MSSQLServer_Result.obj
 0002:0000466c       ??_R3_com_error@@8         0043966c     S3P_MSSQLServer_Result.obj
 0002:0000467c       ??_R2_com_error@@8         0043967c     S3P_MSSQLServer_Result.obj
 0002:00004684       ??_R1A@?0A@EA@_com_error@@8 00439684     S3P_MSSQLServer_Result.obj
 0002:000046a0       ??_R4S3PAccount@@6B@       004396a0     S3PAccount.obj
 0002:000046b4       ??_R3S3PAccount@@8         004396b4     S3PAccount.obj
 0002:000046c4       ??_R2S3PAccount@@8         004396c4     S3PAccount.obj
 0002:000046cc       ??_R1A@?0A@EA@S3PAccount@@8 004396cc     S3PAccount.obj
 0002:000046e8       ??_R4S3P_MSSQLServer_Result@@6B@ 004396e8     S3PDB_MSSQLServer_Connection.obj
 0002:000046fc       ??_R3S3P_MSSQLServer_Result@@8 004396fc     S3PDB_MSSQLServer_Connection.obj
 0002:0000470c       ??_R2S3P_MSSQLServer_Result@@8 0043970c     S3PDB_MSSQLServer_Connection.obj
 0002:00004718       ??_R1A@?0A@EA@S3P_MSSQLServer_Result@@8 00439718     S3PDB_MSSQLServer_Connection.obj
 0002:00004734       ??_R1A@?0A@EA@S3PResultVBC@@8 00439734     S3PDB_MSSQLServer_Connection.obj
 0002:00004750       ??_R3S3PResultVBC@@8       00439750     S3PDB_MSSQLServer_Connection.obj
 0002:00004760       ??_R2S3PResultVBC@@8       00439760     S3PDB_MSSQLServer_Connection.obj
 0002:00004768       ??_R4S3PDB_MSSQLServer_Connection@@6B@ 00439768     S3PDB_MSSQLServer_Connection.obj
 0002:0000477c       ??_R3S3PDB_MSSQLServer_Connection@@8 0043977c     S3PDB_MSSQLServer_Connection.obj
 0002:0000478c       ??_R2S3PDB_MSSQLServer_Connection@@8 0043978c     S3PDB_MSSQLServer_Connection.obj
 0002:0000479c       ??_R1A@?0A@EA@S3PDB_MSSQLServer_Connection@@8 0043979c     S3PDB_MSSQLServer_Connection.obj
 0002:000047b8       ??_R1A@?0A@EA@S3PDBConVBC@@8 004397b8     S3PDB_MSSQLServer_Connection.obj
 0002:000047d4       ??_R3S3PDBConVBC@@8        004397d4     S3PDB_MSSQLServer_Connection.obj
 0002:000047e4       ??_R2S3PDBConVBC@@8        004397e4     S3PDB_MSSQLServer_Connection.obj
 0002:000047f0       ??_R4logic_error@std@@6B@  004397f0     S3PDBConnectionPool.obj
 0002:00004804       ??_R3logic_error@std@@8    00439804     S3PDBConnectionPool.obj
 0002:00004814       ??_R2logic_error@std@@8    00439814     S3PDBConnectionPool.obj
 0002:00004820       ??_R1A@?0A@EA@logic_error@std@@8 00439820     S3PDBConnectionPool.obj
 0002:0000483c       ??_R4S3PDBConnectionPool@@6B@ 0043983c     S3PDBConnectionPool.obj
 0002:00004850       ??_R3S3PDBConnectionPool@@8 00439850     S3PDBConnectionPool.obj
 0002:00004860       ??_R2S3PDBConnectionPool@@8 00439860     S3PDBConnectionPool.obj
 0002:0000486c       ??_R1A@?0A@EA@S3PDBConnectionPool@@8 0043986c     S3PDBConnectionPool.obj
 0002:00004888       ??_R4length_error@std@@6B@ 00439888     S3PDBConnectionPool.obj
 0002:0000489c       ??_R3length_error@std@@8   0043989c     S3PDBConnectionPool.obj
 0002:000048ac       ??_R2length_error@std@@8   004398ac     S3PDBConnectionPool.obj
 0002:000048bc       ??_R1A@?0A@EA@length_error@std@@8 004398bc     S3PDBConnectionPool.obj
 0002:000048d8       ??_R4S3PDBConVBC@@6B@      004398d8     S3PDBConVBC.obj
 0002:000048ec       ??_R4KThread_CS@@6BKThread@@@ 004398ec     S3PDBSocketPool.obj
 0002:00004900       ??_R3KThread_CS@@8         00439900     S3PDBSocketPool.obj
 0002:00004910       ??_R2KThread_CS@@8         00439910     S3PDBSocketPool.obj
 0002:00004920       ??_R1A@?0A@EA@KThread_CS@@8 00439920     S3PDBSocketPool.obj
 0002:0000493c       ??_R1M@?0A@EA@K_CS@@8      0043993c     S3PDBSocketPool.obj
 0002:00004958       ??_R4KThread_CS@@6BK_CS@@@ 00439958     S3PDBSocketPool.obj
 0002:0000496c       ??_R4S3PDBSocketPool@@6B@  0043996c     S3PDBSocketPool.obj
 0002:00004980       ??_R3S3PDBSocketPool@@8    00439980     S3PDBSocketPool.obj
 0002:00004990       ??_R2S3PDBSocketPool@@8    00439990     S3PDBSocketPool.obj
 0002:0000499c       ??_R1A@?0A@EA@S3PDBSocketPool@@8 0043999c     S3PDBSocketPool.obj
 0002:000049b8       ??_R4out_of_range@std@@6B@ 004399b8     S3PDBSocketPool.obj
 0002:000049cc       ??_R3out_of_range@std@@8   004399cc     S3PDBSocketPool.obj
 0002:000049dc       ??_R2out_of_range@std@@8   004399dc     S3PDBSocketPool.obj
 0002:000049ec       ??_R1A@?0A@EA@out_of_range@std@@8 004399ec     S3PDBSocketPool.obj
 0002:00004a08       ??_R4KGatewayDataProcess@@6BKThread@@@ 00439a08     S3PDBSocketPool.obj
 0002:00004a1c       ??_R3KGatewayDataProcess@@8 00439a1c     S3PDBSocketPool.obj
 0002:00004a2c       ??_R2KGatewayDataProcess@@8 00439a2c     S3PDBSocketPool.obj
 0002:00004a40       ??_R1A@?0A@EA@KGatewayDataProcess@@8 00439a40     S3PDBSocketPool.obj
 0002:00004a5c       ??_R4KGatewayDataProcess@@6BK_CS@@@ 00439a5c     S3PDBSocketPool.obj
 0002:00004a70       ??_R4S3PResultVBC@@6B@     00439a70     S3PResultVBC.obj
 0002:00004a84       ??_R4type_info@@6B@        00439a84     LIBCMT:typinfo.obj
 0002:00004a98       ??_R3type_info@@8          00439a98     LIBCMT:typinfo.obj
 0002:00004aa8       ??_R2type_info@@8          00439aa8     LIBCMT:typinfo.obj
 0002:00004ab0       ??_R1A@?0A@EA@type_info@@8 00439ab0     LIBCMT:typinfo.obj
 0002:00004acc       ??_R4exception@std@@6B@    00439acc     LIBCMT:stdexcpt.obj
 0002:00004ae0       ??_R4bad_cast@std@@6B@     00439ae0     LIBCMT:stdexcpt.obj
 0002:00004af4       ??_R3bad_cast@std@@8       00439af4     LIBCMT:stdexcpt.obj
 0002:00004b04       ??_R2bad_cast@std@@8       00439b04     LIBCMT:stdexcpt.obj
 0002:00004b10       ??_R1A@?0A@EA@bad_cast@std@@8 00439b10     LIBCMT:stdexcpt.obj
 0002:00004b2c       ??_R4bad_typeid@std@@6B@   00439b2c     LIBCMT:stdexcpt.obj
 0002:00004b40       ??_R3bad_typeid@std@@8     00439b40     LIBCMT:stdexcpt.obj
 0002:00004b50       ??_R2bad_typeid@std@@8     00439b50     LIBCMT:stdexcpt.obj
 0002:00004b5c       ??_R1A@?0A@EA@bad_typeid@std@@8 00439b5c     LIBCMT:stdexcpt.obj
 0002:00004b78       ??_R4__non_rtti_object@std@@6B@ 00439b78     LIBCMT:stdexcpt.obj
 0002:00004b8c       ??_R3__non_rtti_object@std@@8 00439b8c     LIBCMT:stdexcpt.obj
 0002:00004b9c       ??_R2__non_rtti_object@std@@8 00439b9c     LIBCMT:stdexcpt.obj
 0002:00004bac       ??_R1A@?0A@EA@__non_rtti_object@std@@8 00439bac     LIBCMT:stdexcpt.obj
 0002:00004bc8       ??_R4bad_exception@std@@6B@ 00439bc8     LIBCMT:frame.obj
 0002:00004bdc       ??_R3bad_exception@std@@8  00439bdc     LIBCMT:frame.obj
 0002:00004bec       ??_R2bad_exception@std@@8  00439bec     LIBCMT:frame.obj
 0002:00004bf8       ??_R1A@?0A@EA@bad_exception@std@@8 00439bf8     LIBCMT:frame.obj
 0002:00004c14       ??_R4DNameNode@@6B@        00439c14     LIBCMT:undname.obj
 0002:00004c28       ??_R3DNameNode@@8          00439c28     LIBCMT:undname.obj
 0002:00004c38       ??_R2DNameNode@@8          00439c38     LIBCMT:undname.obj
 0002:00004c40       ??_R1A@?0A@EA@DNameNode@@8 00439c40     LIBCMT:undname.obj
 0002:00004c5c       ??_R4charNode@@6B@         00439c5c     LIBCMT:undname.obj
 0002:00004c70       ??_R3charNode@@8           00439c70     LIBCMT:undname.obj
 0002:00004c80       ??_R2charNode@@8           00439c80     LIBCMT:undname.obj
 0002:00004c8c       ??_R1A@?0A@EA@charNode@@8  00439c8c     LIBCMT:undname.obj
 0002:00004ca8       ??_R4pDNameNode@@6B@       00439ca8     LIBCMT:undname.obj
 0002:00004cbc       ??_R3pDNameNode@@8         00439cbc     LIBCMT:undname.obj
 0002:00004ccc       ??_R2pDNameNode@@8         00439ccc     LIBCMT:undname.obj
 0002:00004cd8       ??_R1A@?0A@EA@pDNameNode@@8 00439cd8     LIBCMT:undname.obj
 0002:00004cf4       ??_R4DNameStatusNode@@6B@  00439cf4     LIBCMT:undname.obj
 0002:00004d08       ??_R3DNameStatusNode@@8    00439d08     LIBCMT:undname.obj
 0002:00004d18       ??_R2DNameStatusNode@@8    00439d18     LIBCMT:undname.obj
 0002:00004d24       ??_R1A@?0A@EA@DNameStatusNode@@8 00439d24     LIBCMT:undname.obj
 0002:00004d40       ??_R4pcharNode@@6B@        00439d40     LIBCMT:undname.obj
 0002:00004d54       ??_R3pcharNode@@8          00439d54     LIBCMT:undname.obj
 0002:00004d64       ??_R2pcharNode@@8          00439d64     LIBCMT:undname.obj
 0002:00004d70       ??_R1A@?0A@EA@pcharNode@@8 00439d70     LIBCMT:undname.obj
 0002:00004d8c       ??_R4invalid_argument@std@@6B@ 00439d8c     libcpmt:string.obj
 0002:00004da0       ??_R3invalid_argument@std@@8 00439da0     libcpmt:string.obj
 0002:00004db0       ??_R2invalid_argument@std@@8 00439db0     libcpmt:string.obj
 0002:00004dc0       ??_R1A@?0A@EA@invalid_argument@std@@8 00439dc0     libcpmt:string.obj
 0002:00004de0       ___safe_se_handler_table   00439de0     <linker-defined>
 0002:00004ed8       ___rtc_iaa                 00439ed8     LIBCMT:initsect.obj
 0002:00004edc       ___rtc_izz                 00439edc     LIBCMT:initsect.obj
 0002:00004ee0       ___rtc_taa                 00439ee0     LIBCMT:initsect.obj
 0002:00004ee4       ___rtc_tzz                 00439ee4     LIBCMT:initsect.obj
 0002:00004f98       __TI2?AVbad_alloc@std@@    00439f98     LogFile.obj
 0002:00004fa8       __CTA2?AVbad_alloc@std@@   00439fa8     LogFile.obj
 0002:00004fb4       __CT??_R0?AVbad_alloc@std@@@8??0bad_alloc@std@@QAE@ABV01@@Z12 00439fb4     LogFile.obj
 0002:00004fd0       __CT??_R0?AVexception@std@@@8??0exception@std@@QAE@ABV01@@Z12 00439fd0     LogFile.obj
 0002:0000593c       __TI3?AVlength_error@std@@ 0043a93c     S3PDBConnectionPool.obj
 0002:00005978       __CTA3?AVlength_error@std@@ 0043a978     S3PDBConnectionPool.obj
 0002:00005988       __CT??_R0?AVlength_error@std@@@8??0length_error@std@@QAE@ABV01@@Z40 0043a988     S3PDBConnectionPool.obj
 0002:000059a4       __CT??_R0?AVlogic_error@std@@@8??0logic_error@std@@QAE@ABV01@@Z40 0043a9a4     S3PDBConnectionPool.obj
 0002:00005bd0       __TI3?AVout_of_range@std@@ 0043abd0     S3PDBSocketPool.obj
 0002:00005c0c       __CTA3?AVout_of_range@std@@ 0043ac0c     S3PDBSocketPool.obj
 0002:00005c1c       __CT??_R0?AVout_of_range@std@@@8??0out_of_range@std@@QAE@ABV01@@Z40 0043ac1c     S3PDBSocketPool.obj
 0002:0000624c       __TI2?AVbad_exception@std@@ 0043b24c     LIBCMT:frame.obj
 0002:0000625c       __CTA2?AVbad_exception@std@@ 0043b25c     LIBCMT:frame.obj
 0002:00006268       __CT??_R0?AVbad_exception@std@@@8??0bad_exception@std@@QAE@ABV01@@Z12 0043b268     LIBCMT:frame.obj
 0002:00006804       __TI3?AVinvalid_argument@std@@ 0043b804     libcpmt:string.obj
 0002:00006840       __CTA3?AVinvalid_argument@std@@ 0043b840     libcpmt:string.obj
 0002:00006850       __CT??_R0?AVinvalid_argument@std@@@8??0invalid_argument@std@@QAE@ABV01@@Z40 0043b850     libcpmt:string.obj
 0002:000068e4       __TI1?AV_com_error@@       0043b8e4     comsuppw:comraise.obj
 0002:000068f4       __CTA1?AV_com_error@@      0043b8f4     comsuppw:comraise.obj
 0002:000068fc       __CT??_R0?AV_com_error@@@8??0_com_error@@QAE@ABV0@@Z16 0043b8fc     comsuppw:comraise.obj
 0002:00006954       __IMPORT_DESCRIPTOR_WS2_32 0043b954     Ws2_32:WS2_32.dll
 0002:00006968       __IMPORT_DESCRIPTOR_KERNEL32 0043b968     kernel32:KERNEL32.dll
 0002:0000697c       __IMPORT_DESCRIPTOR_USER32 0043b97c     user32:USER32.dll
 0002:00006990       __IMPORT_DESCRIPTOR_ole32  0043b990     ole32:ole32.dll
 0002:000069a4       __IMPORT_DESCRIPTOR_OLEAUT32 0043b9a4     oleaut32:OLEAUT32.dll
 0002:000069b8       __NULL_IMPORT_DESCRIPTOR   0043b9b8     Ws2_32:WS2_32.dll
 0003:00000020       ??_R0?AVKThread@@@8        0043d020     KThread.obj
 0003:00000038       ??_R0?AVK_CS@@@8           0043d038     KThread.obj
 0003:00000050       ??_R0?AVbad_alloc@std@@@8  0043d050     LogFile.obj
 0003:0000006c       ??_R0?AVexception@std@@@8  0043d06c     LogFile.obj
 0003:00000088       ??_R0?AVCLogFile@@@8       0043d088     LogFile.obj
 0003:000000a4       ??_R0?AV_com_error@@@8     0043d0a4     S3P_MSSQLServer_Result.obj
 0003:000000c4       ??_R0?AVS3PAccount@@@8     0043d0c4     S3PAccount.obj
 0003:000000e4       ??_R0?AVS3P_MSSQLServer_Result@@@8 0043d0e4     S3PDB_MSSQLServer_Connection.obj
 0003:0000010c       ??_R0?AVS3PResultVBC@@@8   0043d10c     S3PDB_MSSQLServer_Connection.obj
 0003:00000128       ??_R0?AVS3PDB_MSSQLServer_Connection@@@8 0043d128     S3PDB_MSSQLServer_Connection.obj
 0003:00000154       ??_R0?AVS3PDBConVBC@@@8    0043d154     S3PDB_MSSQLServer_Connection.obj
 0003:00000174       ??_R0?AVlogic_error@std@@@8 0043d174     S3PDBConnectionPool.obj
 0003:00000194       ??_R0?AVS3PDBConnectionPool@@@8 0043d194     S3PDBConnectionPool.obj
 0003:000001b8       ??_R0?AVlength_error@std@@@8 0043d1b8     S3PDBConnectionPool.obj
 0003:000001e0       ??_R0?AVKThread_CS@@@8     0043d1e0     S3PDBSocketPool.obj
 0003:000001fc       ??_R0?AVS3PDBSocketPool@@@8 0043d1fc     S3PDBSocketPool.obj
 0003:0000021c       ??_R0?AVout_of_range@std@@@8 0043d21c     S3PDBSocketPool.obj
 0003:0000023c       ??_R0?AVKGatewayDataProcess@@@8 0043d23c     S3PDBSocketPool.obj
 0003:00000264       ___security_cookie         0043d264     LIBCMT:gs_cookie.obj
 0003:00000268       ___security_cookie_complement 0043d268     LIBCMT:gs_cookie.obj
 0003:00000274       ??_R0?AVtype_info@@@8      0043d274     LIBCMT:typinfo.obj
 0003:00000290       ??_R0?AVbad_cast@std@@@8   0043d290     LIBCMT:stdexcpt.obj
 0003:000002ac       ??_R0?AVbad_typeid@std@@@8 0043d2ac     LIBCMT:stdexcpt.obj
 0003:000002cc       ??_R0?AV__non_rtti_object@std@@@8 0043d2cc     LIBCMT:stdexcpt.obj
 0003:000002f0       ___app_type                0043d2f0     LIBCMT:wincrt0.obj
 0003:000002f8       ___initialmbcinfo          0043d2f8     LIBCMT:mbctype.obj
 0003:00000518       __mbctype                  0043d518     LIBCMT:mbctype.obj
 0003:00000620       __mbcasemap                0043d620     LIBCMT:mbctype.obj
 0003:00000720       ___ptmbcinfo               0043d720     LIBCMT:mbctype.obj
 0003:0000081c       ___globallocalestatus      0043d81c     LIBCMT:glstatus.obj
 0003:00000820       ___clocalestr              0043d820     LIBCMT:nlsdata2.obj
 0003:00000828       ___initiallocinfo          0043d828     LIBCMT:nlsdata2.obj
 0003:00000900       ___ptlocinfo               0043d900     LIBCMT:nlsdata2.obj
 0003:00000904       ___lc_clike                0043d904     LIBCMT:nlsdata2.obj
 0003:00000908       ___initiallocalestructinfo 0043d908     LIBCMT:nlsdata2.obj
 0003:00000910       ___flsindex                0043d910     LIBCMT:tidtable.obj
 0003:00000914       ___getvalueindex           0043d914     LIBCMT:tidtable.obj
 0003:00000a88       __iob                      0043da88     LIBCMT:_file.obj
 0003:00000d08       __lookuptrailbytes         0043dd08     LIBCMT:read.obj
 0003:00000e08       ___badioinfo               0043de08     LIBCMT:ioinit.obj
 0003:00000e44       ??_R0?AVbad_exception@std@@@8 0043de44     LIBCMT:frame.obj
 0003:00000e70       __aexit_rtn                0043de70     LIBCMT:crt0dat.obj
 0003:00000e78       __XcptActTab               0043de78     LIBCMT:winxfltr.obj
 0003:00000ef0       __First_FPE_Indx           0043def0     LIBCMT:winxfltr.obj
 0003:00000ef4       __Num_FPE                  0043def4     LIBCMT:winxfltr.obj
 0003:00000ef8       __XcptActTabSize           0043def8     LIBCMT:winxfltr.obj
 0003:00000efc       __XcptActTabCount          0043defc     LIBCMT:winxfltr.obj
 0003:00000f00       ___nullstring              0043df00     LIBCMT:output.obj
 0003:00000f04       ___wnullstring             0043df04     LIBCMT:output.obj
 0003:00000f10       ___abort_behavior          0043df10     LIBCMT:abort.obj
 0003:00000fe8       __timezone                 0043dfe8     LIBCMT:timeset.obj
 0003:00000fec       __daylight                 0043dfec     LIBCMT:timeset.obj
 0003:00000ff0       __dstbias                  0043dff0     LIBCMT:timeset.obj
 0003:00001078       __tzname                   0043e078     LIBCMT:timeset.obj
 0003:00001080       __amblksiz                 0043e080     LIBCMT:heapinit.obj
 0003:000011b0       __pctype                   0043e1b0     LIBCMT:ctype.obj
 0003:000011b4       __pwctype                  0043e1b4     LIBCMT:ctype.obj
 0003:000011b8       ___lc_time_c               0043e1b8     LIBCMT:strftime.obj
 0003:00001270       ___lc_time_curr            0043e270     LIBCMT:strftime.obj
 0003:00001274       ___lconv_static_decimal    0043e274     LIBCMT:lconv.obj
 0003:00001278       ___lconv_c                 0043e278     LIBCMT:lconv.obj
 0003:000012a8       ___lconv                   0043e2a8     LIBCMT:lconv.obj
 0003:000012ac       ___mb_cur_max              0043e2ac     LIBCMT:nlsdata1.obj
 0003:000012b0       ___decimal_point           0043e2b0     LIBCMT:nlsdata1.obj
 0003:000012b4       ___decimal_point_length    0043e2b4     LIBCMT:nlsdata1.obj
 0003:000012c4       __NLG_Destination          0043e2c4     LIBCMT:exsup.obj
 0003:000012d4       __cfltcvt_tab              0043e2d4     LIBCMT:cmiscdat.obj
 0003:00001300       ??_R0?AVDNameNode@@@8      0043e300     LIBCMT:undname.obj
 0003:00001318       ??_R0?AVcharNode@@@8       0043e318     LIBCMT:undname.obj
 0003:00001330       ??_R0?AVpDNameNode@@@8     0043e330     LIBCMT:undname.obj
 0003:0000134c       ??_R0?AVDNameStatusNode@@@8 0043e34c     LIBCMT:undname.obj
 0003:0000136c       ??_R0?AVpcharNode@@@8      0043e36c     LIBCMT:undname.obj
 0003:00001384       __lpdays                   0043e384     LIBCMT:days.obj
 0003:000013b8       __days                     0043e3b8     LIBCMT:days.obj
 0003:000013f0       __coninpfh                 0043e3f0     LIBCMT:initcon.obj
 0003:000013f4       __confh                    0043e3f4     LIBCMT:initcon.obj
 0003:00001404       ??_R0?AVinvalid_argument@std@@@8 0043e404     libcpmt:string.obj
 0003:00001428       ?__errorPfn@@3P6GXJPAUIErrorInfo@@@ZA 0043e428     comsuppw:comsupp.obj
 0003:00001430       ?vtMissing@@3V_variant_t@@A 0043e430     comsuppw:comutil.obj
 0003:00001440       __fltused                  0043e440     LIBCMT:fpinit.obj
 0003:00001444       __ldused                   0043e444     LIBCMT:fpinit.obj
 0003:00001480       __pow10pos                 0043e480     LIBCMT:constpow.obj
 0003:000015e0       __pow10neg                 0043e5e0     LIBCMT:constpow.obj
 0003:00001768       ?g_szWindowClass@@3PADA    0043e768     main.obj
 0003:0000186c       ?g_listwnd@@3PAUHWND__@@A  0043e86c     main.obj
 0003:00001870       ?g_cnt@@3JA                0043e870     main.obj
 0003:00001874       ?g_hInst@@3PAUHINSTANCE__@@A 0043e874     main.obj
 0003:00001878       ?g_nShowTime@@3HA          0043e878     main.obj
 0003:000018a8       ?g_TraceBuffer@@3VTwoFixBuffer@@A 0043e8a8     main.obj
 0003:002018dc       ?m_pInstance@S3PDBConnectionPool@@1PAV1@A 0063e8dc     S3PDBConnectionPool.obj
 0003:002018e4       ?m_pInstance@S3PDBSocketPool@@1PAV1@A 0063e8e4     S3PDBSocketPool.obj
 0003:002018f8       ___pInvalidArgHandler      0063e8f8     LIBCMT:invarg.obj
 0003:002018fc       __aenvptr                  0063e8fc     LIBCMT:wincrt0.obj
 0003:00201900       __wenvptr                  0063e900     LIBCMT:wincrt0.obj
 0003:00201904       ___error_mode              0063e904     LIBCMT:wincrt0.obj
 0003:0020190c       ___mbulinfo                0063e90c     LIBCMT:mbctype.obj
 0003:00201918       ___mbcodepage              0063e918     LIBCMT:mbctype.obj
 0003:0020191c       ___ismbcodepage            0063e91c     LIBCMT:mbctype.obj
 0003:00201920       ___mblcid                  0063e920     LIBCMT:mbctype.obj
 0003:00201924       ___locale_changed          0063e924     LIBCMT:setlocal.obj
 0003:00201928       ___lc_handle               0063e928     LIBCMT:nlsdata2.obj
 0003:00201940       ___lc_codepage             0063e940     LIBCMT:nlsdata2.obj
 0003:00201944       ___lc_collate_cp           0063e944     LIBCMT:nlsdata2.obj
 0003:00201948       _gpFlsAlloc                0063e948     LIBCMT:tidtable.obj
 0003:0020194c       _gpFlsGetValue             0063e94c     LIBCMT:tidtable.obj
 0003:00201950       _gpFlsSetValue             0063e950     LIBCMT:tidtable.obj
 0003:00201954       _gpFlsFree                 0063e954     LIBCMT:tidtable.obj
 0003:00201958       ?_pnhHeap@@3P6AHI@ZA       0063e958     LIBCMT:handler.obj
 0003:0020195c       __cflush                   0063e95c     LIBCMT:_file.obj
 0003:00201960       ?__pInconsistency@@3P6AXXZA 0063e960     LIBCMT:hooks.obj
 0003:00201c8c       __umaskval                 0063ec8c     LIBCMT:crt0dat.obj
 0003:00201c90       __osplatform               0063ec90     LIBCMT:crt0dat.obj
 0003:00201c94       __osver                    0063ec94     LIBCMT:crt0dat.obj
 0003:00201c98       __winver                   0063ec98     LIBCMT:crt0dat.obj
 0003:00201c9c       __winmajor                 0063ec9c     LIBCMT:crt0dat.obj
 0003:00201ca0       __winminor                 0063eca0     LIBCMT:crt0dat.obj
 0003:00201ca4       ___argc                    0063eca4     LIBCMT:crt0dat.obj
 0003:00201ca8       ___argv                    0063eca8     LIBCMT:crt0dat.obj
 0003:00201cac       ___wargv                   0063ecac     LIBCMT:crt0dat.obj
 0003:00201cb0       __environ                  0063ecb0     LIBCMT:crt0dat.obj
 0003:00201cb4       ___initenv                 0063ecb4     LIBCMT:crt0dat.obj
 0003:00201cb8       __wenviron                 0063ecb8     LIBCMT:crt0dat.obj
 0003:00201cbc       ___winitenv                0063ecbc     LIBCMT:crt0dat.obj
 0003:00201cc0       __pgmptr                   0063ecc0     LIBCMT:crt0dat.obj
 0003:00201cc4       __wpgmptr                  0063ecc4     LIBCMT:crt0dat.obj
 0003:00201cc8       __exitflag                 0063ecc8     LIBCMT:crt0dat.obj
 0003:00201ccc       __C_Termination_Done       0063eccc     LIBCMT:crt0dat.obj
 0003:00201cd0       __C_Exit_Done              0063ecd0     LIBCMT:crt0dat.obj
 0003:00201cd4       __maxwait                  0063ecd4     LIBCMT:crtheap.obj
 0003:00201cd8       __stdbuf                   0063ecd8     LIBCMT:_sftbuf.obj
 0003:00202004       ___pPurecall               0063f004     LIBCMT:inithelp.obj
 0003:002020c0       __crtheap                  0063f0c0     LIBCMT:heapinit.obj
 0003:00202218       ___sbh_pHeaderDefer        0063f218     LIBCMT:sbheap.obj
 0003:0020221c       __newmode                  0063f21c     LIBCMT:_newmode.obj
 0003:00202334       ___lconv_static_null       0063f334     LIBCMT:lconv.obj
 0003:0020233c       __commode                  0063f33c     LIBCMT:ncommode.obj
 0003:00202370       ?pArgList@UnDecorator@@0PAVReplicator@@A 0063f370     LIBCMT:undname.obj
 0003:00202374       ?pZNameList@UnDecorator@@0PAVReplicator@@A 0063f374     LIBCMT:undname.obj
 0003:00202378       ?pTemplateArgList@UnDecorator@@0PAVReplicator@@A 0063f378     LIBCMT:undname.obj
 0003:0020237c       ?gName@UnDecorator@@0PBDB  0063f37c     LIBCMT:undname.obj
 0003:00202380       ?name@UnDecorator@@0PBDB   0063f380     LIBCMT:undname.obj
 0003:00202384       ?outputString@UnDecorator@@0PADA 0063f384     LIBCMT:undname.obj
 0003:00202388       ?maxStringLength@UnDecorator@@0HA 0063f388     LIBCMT:undname.obj
 0003:0020238c       ?disableFlags@UnDecorator@@0KA 0063f38c     LIBCMT:undname.obj
 0003:00202390       ?m_pGetParameter@UnDecorator@@0P6APADJ@ZA 0063f390     LIBCMT:undname.obj
 0003:00202394       ?fExplicitTemplateParams@UnDecorator@@0_NA 0063f394     LIBCMT:undname.obj
 0003:00202395       ?fGetTemplateArgumentList@UnDecorator@@0_NA 0063f395     LIBCMT:undname.obj
 0003:002023b8       __fmode                    0063f3b8     LIBCMT:txtmode.obj
 0003:002023c0       ___fastflag                0063f3c0     LIBCMT:fpinit.obj
 0003:002023c4       __adjust_fdiv              0063f3c4     LIBCMT:fpinit.obj
 0003:002023c8       __outputformat             0063f3c8     LIBCMT:outputformat.obj
 0003:002023cc       ___sbh_initialized         0063f3cc     <common>
 0003:002023d0       ___sbh_cntHeaderList       0063f3d0     <common>
 0003:002023d4       ___sbh_pHeaderList         0063f3d4     <common>
 0003:002023d8       ___sbh_threshold           0063f3d8     <common>
 0003:002023dc       ___sbh_pHeaderScan         0063f3dc     <common>
 0003:002023e0       ___sbh_sizeHeaderList      0063f3e0     <common>
 0003:002023e4       ___sbh_indGroupDefer       0063f3e4     <common>
 0003:002023e8       ___active_heap             0063f3e8     <common>
 0003:002023ec       __debugger_hook_dummy      0063f3ec     <common>
 0003:002023f0       ___env_initialized         0063f3f0     <common>
 0003:002023f4       ___onexitend               0063f3f4     <common>
 0003:002023f8       ___onexitbegin             0063f3f8     <common>
 0003:002023fc       ___mbctype_initialized     0063f3fc     <common>
 0003:00202400       ___dyn_tls_init_callback   0063f400     <common>
 0003:00202404       ___use_sse2_mathfcns       0063f404     <common>
 0003:00202408       ___sse2_available          0063f408     <common>
 0003:0020240c       __nhandle                  0063f40c     <common>
 0003:00202420       ___pioinfo                 0063f420     <common>
 0003:00202520       ___piob                    0063f520     <common>
 0003:00202540       __bufin                    0063f540     <common>
 0003:00203540       __nstream                  00640540     <common>
 0003:00203544       ___setlc_active            00640544     <common>
 0003:00203548       ___unguarded_readlc_active 00640548     <common>
 0003:0020354c       __acmdln                   0064054c     <common>

 entry point at        0001:0000f40b

 Static symbols

 0001:fffff000       __ehhandler$?_Copy@?$basic_string@DU?$char_traits@D@std@@V?$allocator@D@2@@std@@IAEXII@Z 00400000 f   S3PDBSocketPool.obj
 0001:fffff000       __unwindfunclet$??0logic_error@std@@QAE@ABV01@@Z$0 00400000 f   S3PDBSocketPool.obj
 0001:fffff000       __ehhandler$?_Copy@?$basic_string@DU?$char_traits@D@std@@V?$allocator@D@2@@std@@IAEXII@Z 00400000 f   libcpmt:string.obj
 0001:fffff000       __unwindfunclet$??0logic_error@std@@QAE@ABV01@@Z$0 00400000 f   libcpmt:string.obj
 0001:fffff000       __ehhandler$?_Copy@?$basic_string@DU?$char_traits@D@std@@V?$allocator@D@2@@std@@IAEXII@Z 00400000 f   main.obj
 0001:fffff000       __unwindfunclet$??0logic_error@std@@QAE@ABV?$basic_string@DU?$char_traits@D@std@@V?$allocator@D@2@@1@@Z$0 00400000 f   S3PDBSocketPool.obj
 0001:fffff000       __ehhandler$?_Copy@?$basic_string@DU?$char_traits@D@std@@V?$allocator@D@2@@std@@IAEXII@Z 00400000 f   S3PDBConnectionPool.obj
 0001:fffff000       __unwindfunclet$??0logic_error@std@@QAE@ABV?$basic_string@DU?$char_traits@D@std@@V?$allocator@D@2@@1@@Z$0 00400000 f   libcpmt:string.obj
 0001:fffff000       __ehhandler$?_Copy@?$basic_string@DU?$char_traits@D@std@@V?$allocator@D@2@@std@@IAEXII@Z 00400000 f   S3PDB_MSSQLServer_Connection.obj
 0001:fffff008       __ehhandler$??0logic_error@std@@QAE@ABV01@@Z 00400008 f   S3PDBSocketPool.obj
 0001:fffff008       __ehhandler$??0logic_error@std@@QAE@ABV01@@Z 00400008 f   libcpmt:string.obj
 0001:fffff008       __ehhandler$??0logic_error@std@@QAE@ABV?$basic_string@DU?$char_traits@D@std@@V?$allocator@D@2@@1@@Z 00400008 f   libcpmt:string.obj
 0001:fffff008       __ehhandler$??0logic_error@std@@QAE@ABV?$basic_string@DU?$char_traits@D@std@@V?$allocator@D@2@@1@@Z 00400008 f   S3PDBSocketPool.obj
 0001:fffff05b       __catch$?_Copy@?$basic_string@DU?$char_traits@D@std@@V?$allocator@D@2@@std@@IAEXII@Z$0 0040005b f   libcpmt:string.obj
 0001:fffff07d       __catch$?_Copy@?$basic_string@DU?$char_traits@D@std@@V?$allocator@D@2@@std@@IAEXII@Z$0 0040007d f   S3PDBSocketPool.obj
 0001:fffff07d       __catch$?_Copy@?$basic_string@DU?$char_traits@D@std@@V?$allocator@D@2@@std@@IAEXII@Z$0 0040007d f   main.obj
 0001:fffff07d       __catch$?_Copy@?$basic_string@DU?$char_traits@D@std@@V?$allocator@D@2@@std@@IAEXII@Z$0 0040007d f   S3PDB_MSSQLServer_Connection.obj
 0001:fffff07d       __catch$?_Copy@?$basic_string@DU?$char_traits@D@std@@V?$allocator@D@2@@std@@IAEXII@Z$0 0040007d f   S3PDBConnectionPool.obj
 0001:fffff0cd       __catch$?_Copy@?$basic_string@DU?$char_traits@D@std@@V?$allocator@D@2@@std@@IAEXII@Z$1 004000cd f   libcpmt:string.obj
 0001:fffff110       __catch$?_Copy@?$basic_string@DU?$char_traits@D@std@@V?$allocator@D@2@@std@@IAEXII@Z$1 00400110 f   S3PDBSocketPool.obj
 0001:fffff110       __catch$?_Copy@?$basic_string@DU?$char_traits@D@std@@V?$allocator@D@2@@std@@IAEXII@Z$1 00400110 f   S3PDB_MSSQLServer_Connection.obj
 0001:fffff110       __catch$?_Copy@?$basic_string@DU?$char_traits@D@std@@V?$allocator@D@2@@std@@IAEXII@Z$1 00400110 f   S3PDBConnectionPool.obj
 0001:fffff110       __catch$?_Copy@?$basic_string@DU?$char_traits@D@std@@V?$allocator@D@2@@std@@IAEXII@Z$1 00400110 f   main.obj
 0001:00000010       ?IsEnterKey@@YAHPBDPAH@Z   00401010 f   GlobalFun.obj
 0001:000000a0       ?GetFirstLineLen@@YAJPBD@Z 004010a0 f   GlobalFun.obj
 0001:00000120       ?GetStrInStrPos@@YAHPBD0AAJ@Z 00401120 f   GlobalFun.obj
 0001:000001a0       ?GetPrivateProfileKeyPos@@YAHPBD00AAJ1@Z 004011a0 f   GlobalFun.obj
 0001:00000320       ?GetKeyValue@@YAPADPBDAAJ@Z 00401320 f   GlobalFun.obj
 0001:000008c7       __catch$?KPIWritePrivateProfileString@@YAHPBD000@Z$0 004018c7 f   GlobalFun.obj
 0001:00000a7e       __catch$?KPIGetPrivateProfileString@@YAKPBD00PADK0@Z$0 00401a7e f   GlobalFun.obj
 0001:0000176d       __catch$?_Copy@?$basic_string@DU?$char_traits@D@std@@V?$allocator@D@2@@std@@IAEXII@Z$0 0040276d f i LogFile.obj
 0001:00001800       __catch$?_Copy@?$basic_string@DU?$char_traits@D@std@@V?$allocator@D@2@@std@@IAEXII@Z$1 00402800 f i LogFile.obj
 0001:000028d0       _localtime                 004038d0 f   main.obj
 0001:000028e0       _time                      004038e0 f   main.obj
 0001:00002930       ?sLogProgram@@YAHH@Z       00403930 f   main.obj
 0001:00003f9e       __catch$?num_rows@S3P_MSSQLServer_Result@@UBEHXZ$0 00404f9e f   S3P_MSSQLServer_Result.obj
 0001:00004151       __catch$?data_seek@S3P_MSSQLServer_Result@@UBEXIH@Z$0 00405151 f   S3P_MSSQLServer_Result.obj
 0001:00004397       __catch$?num_fields@S3P_MSSQLServer_Result@@UBEHXZ$0 00405397 f   S3P_MSSQLServer_Result.obj
 0001:00004535       __catch$?get_field_data@S3P_MSSQLServer_Result@@UAE_NIPAXK@Z$0 00405535 f   S3P_MSSQLServer_Result.obj
 0001:000045f4       __catch$?unuse@S3P_MSSQLServer_Result@@UAEHXZ$0 004055f4 f   S3P_MSSQLServer_Result.obj
 0001:00006e6d       __catch$?DoCmd@S3PDB_MSSQLServer_Connection@@IAE_NPBD@Z$0 00407e6d f   S3PDB_MSSQLServer_Connection.obj
 0001:00006fca       __catch$?DoResult@S3PDB_MSSQLServer_Connection@@IAE_NPBD@Z$0 00407fca f   S3PDB_MSSQLServer_Connection.obj
 0001:00006fe6       __catch$?DoResult@S3PDB_MSSQLServer_Connection@@IAE_NPBD@Z$2 00407fe6 f   S3PDB_MSSQLServer_Connection.obj
 0001:00007119       __catch$?QueryResult@S3PDB_MSSQLServer_Connection@@IAE_NPBDPAVS3P_MSSQLServer_Result@@@Z$0 00408119 f   S3PDB_MSSQLServer_Connection.obj
 0001:00007243       __catch$?QueryCmd@S3PDB_MSSQLServer_Connection@@IAE_NPBDPAVS3P_MSSQLServer_Result@@@Z$0 00408243 f   S3PDB_MSSQLServer_Connection.obj
 0001:00007585       __catch$?OpenConnect@S3PDB_MSSQLServer_Connection@@UAE_NPAUtag_DATABASEINFO@@@Z$0 00408585 f   S3PDB_MSSQLServer_Connection.obj
 0001:00008dfd       __catch$?SendData@S3PDBSocketPool@@QAEHKQBXABI@Z$0 00409dfd f   S3PDBSocketPool.obj
 0001:00008ee7       __catch$?CustomSend@S3PDBSocketPool@@QAEHKDPAUKAccountHead@@@Z$0 00409ee7 f   S3PDBSocketPool.obj
 0001:0000d5a8       ?CatchGuardHandler@@YA?AW4_EXCEPTION_DISPOSITION@@PAUEHExceptionRecord@@PAUCatchGuardRN@@PAX2@Z 0040e5a8 f   LIBCMT:trnsctrl.obj
 0001:0000d6ad       ?TranslatorGuardHandler@@YA?AW4_EXCEPTION_DISPOSITION@@PAUEHExceptionRecord@@PAUTranslatorGuardRN@@PAX2@Z 0040e6ad f   LIBCMT:trnsctrl.obj
 0001:0000dc5e       __callthreadstartex        0040ec5e f   LIBCMT:threadex.obj
 0001:0000dc9f       __threadstartex@4          0040ec9f f   LIBCMT:threadex.obj
 0001:0000ecee       __onexit_nolock            0040fcee f   LIBCMT:onexit.obj
 0001:0000f1c6       _fast_error_exit           004101c6 f   LIBCMT:wincrt0.obj
 0001:0000f1ea       _check_managed_app         004101ea f   LIBCMT:wincrt0.obj
 0001:0000f22b       ___tmainCRTStartup         0041022b f   LIBCMT:wincrt0.obj
 0001:0000f415       ?CPtoLCID@@YAHH@Z          00410415 f   LIBCMT:mbctype.obj
 0001:0000f444       ?setSBCS@@YAXPAUthreadmbcinfostruct@@@Z 00410444 f   LIBCMT:mbctype.obj
 0001:0000f499       ?setSBUpLow@@YAXPAUthreadmbcinfostruct@@@Z 00410499 f   LIBCMT:mbctype.obj
 0001:0000f6c7       ?getSystemCP@@YAHH@Z       004106c7 f   LIBCMT:mbctype.obj
 0001:0000fd6c       __copytlocinfo_nolock      00410d6c f   LIBCMT:setlocal.obj
 0001:0000fd90       __updatetlocinfoEx_nolock  00410d90 f   LIBCMT:setlocal.obj
 0001:0000feaa       _sync_legacy_variables_lk  00410eaa f   LIBCMT:setlocal.obj
 0001:000101fa       __setlocale_get_all        004111fa f   LIBCMT:setlocal.obj
 0001:0001053f       __setlocale_set_cat        0041153f f   LIBCMT:setlocal.obj
 0001:00010835       __setlocale_nolock         00411835 f   LIBCMT:setlocal.obj
 0001:00010c6b       __use_encode_pointer       00411c6b f   LIBCMT:tidtable.obj
 0001:00011ddd       _flsall                    00412ddd f   LIBCMT:fflush.obj
 0001:00012110       _ValidateLocalCookies      00413110 f   LIBCMT:chandler4.obj
 0001:0001347c       __unwind_handler4          0041447c f   LIBCMT:exsup4.obj
 0001:00013706       ?ExFilterRethrow@@YAHPAU_EXCEPTION_POINTERS@@@Z 00414706 f   LIBCMT:frame.obj
 0001:00013ae5       ?IsInExceptionSpec@@YAEPAUEHExceptionRecord@@PBU_s_ESTypeList@@@Z 00414ae5 f   LIBCMT:frame.obj
 0001:00013b5e       ?CallUnexpected@@YAXPBU_s_ESTypeList@@@Z 00414b5e f   LIBCMT:frame.obj
 0001:00013b8f       __catch$?CallUnexpected@@YAXPBU_s_ESTypeList@@@Z$0 00414b8f f   LIBCMT:frame.obj
 0001:00013ba7       ?Is_bad_exception_allowed@@YAEPBU_s_ESTypeList@@@Z 00414ba7 f   LIBCMT:frame.obj
 0001:00013c59       ?CallCatchBlock@@YAPAXPAUEHExceptionRecord@@PAUEHRegistrationNode@@PAU_CONTEXT@@PBU_s_FuncInfo@@PAXHK@Z 00414c59 f   LIBCMT:frame.obj
 0001:00014148       ?CatchIt@@YAXPAUEHExceptionRecord@@PAUEHRegistrationNode@@PAU_CONTEXT@@PAXPBU_s_FuncInfo@@PBU_s_HandlerType@@PBU_s_CatchableType@@PBU_s_TryBlockMapEntry@@H1E@Z 00415148 f   LIBCMT:frame.obj
 0001:000141b4       ?FindHandlerForForeignException@@YAXPAUEHExceptionRecord@@PAUEHRegistrationNode@@PAU_CONTEXT@@PAXPBU_s_FuncInfo@@HH1@Z 004151b4 f   LIBCMT:frame.obj
 0001:000142a6       ?FindHandler@@YAXPAUEHExceptionRecord@@PAUEHRegistrationNode@@PAU_CONTEXT@@PAXPBU_s_FuncInfo@@EH1@Z 004152a6 f   LIBCMT:frame.obj
 0001:000148e0       _fastcopy_I                004158e0 f   LIBCMT:p4_memcpy.obj
 0001:00014c2c       __initterm                 00415c2c f   LIBCMT:crt0dat.obj
 0001:00014e8b       _doexit                    00415e8b f   LIBCMT:crt0dat.obj
 0001:00014ffa       _xcptlookup                00415ffa f   LIBCMT:winxfltr.obj
 0001:00015315       _fastzero_I                00416315 f   LIBCMT:p4_memset.obj
 0001:000154c0       _write_char                004164c0 f   LIBCMT:output.obj
 0001:000154f3       _write_multi_char          004164f3 f   LIBCMT:output.obj
 0001:00015517       _write_string              00416517 f   LIBCMT:output.obj
 0001:00015f20       _write_char                00416f20 f   LIBCMT:outputs.obj
 0001:00015f53       _write_multi_char          00416f53 f   LIBCMT:outputs.obj
 0001:00015f77       _write_string              00416f77 f   LIBCMT:outputs.obj
 0001:00016a9a       _write_char                00417a9a f   LIBCMT:outputp.obj
 0001:00016acd       _write_multi_char          00417acd f   LIBCMT:outputp.obj
 0001:00016af1       _write_string              00417af1 f   LIBCMT:outputp.obj
 0001:00018acd       __tzset_nolock             00419acd f   LIBCMT:tzset.obj
 0001:00018e16       _cvtdate                   00419e16 f   LIBCMT:tzset.obj
 0001:0001900b       __isindst_nolock           0041a00b f   LIBCMT:tzset.obj
 0001:000199a8       ?strtoxl@@YAKPAUlocaleinfo_struct@@PBDPAPBDHH@Z 0041a9a8 f   LIBCMT:strtol.obj
 0001:00019c5c       ?strtoxq@@YA_KPAUlocaleinfo_struct@@PBDPAPBDHH@Z 0041ac5c f   LIBCMT:strtoq.obj
 0001:0001b4c8       _parse_cmdline             0041c4c8 f   LIBCMT:stdargv.obj
 0001:0001b92a       ?strncnt@@YAHPBDH@Z        0041c92a f   LIBCMT:a_map.obj
 0001:0001b944       ?__crtLCMapStringA_stat@@YAHPAUlocaleinfo_struct@@KKPBDHPADHHH@Z 0041c944 f   LIBCMT:a_map.obj
 0001:0001bd29       ?__crtGetStringTypeA_stat@@YAHPAUlocaleinfo_struct@@KPBDHPAGHHH@Z 0041cd29 f   LIBCMT:a_str.obj
 0001:0001bf50       __get_lc_time              0041cf50 f   LIBCMT:inittime.obj
 0001:0001c56c       _fix_grouping              0041d56c f   LIBCMT:initnum.obj
 0001:0001c7a7       _fix_grouping              0041d7a7 f   LIBCMT:initmon.obj
 0001:0001d4dc       ?_store_str@@YAXPADPAPADPAI@Z 0041e4dc f   LIBCMT:strftime.obj
 0001:0001d4fc       ?_store_number@@YAXHPAPADPAI@Z 0041e4fc f   LIBCMT:strftime.obj
 0001:0001d532       ?_store_num@@YAXHHPAPADPAII@Z 0041e532 f   LIBCMT:strftime.obj
 0001:0001d5ab       ?_expandtime@@YAHPAUlocaleinfo_struct@@DPBUtm@@PAPADPAIPAU__lc_time_data@@I@Z 0041e5ab f   LIBCMT:strftime.obj
 0001:0001d991       ?_store_winword@@YAHPAUlocaleinfo_struct@@HPBUtm@@PAPADPAIPAU__lc_time_data@@@Z 0041e991 f   LIBCMT:strftime.obj
 0001:0001e189       _TranslateName             0041f189 f   LIBCMT:getqloc.obj
 0001:0001e1e9       _GetLcidFromDefault        0041f1e9 f   LIBCMT:getqloc.obj
 0001:0001e1fd       _ProcessCodePage           0041f1fd f   LIBCMT:getqloc.obj
 0001:0001e274       _TestDefaultCountry        0041f274 f   LIBCMT:getqloc.obj
 0001:0001e292       _LcidFromHexString         0041f292 f   LIBCMT:getqloc.obj
 0001:0001e2c4       _GetPrimaryLen             0041f2c4 f   LIBCMT:getqloc.obj
 0001:0001e2df       _CountryEnumProc@4         0041f2df f   LIBCMT:getqloc.obj
 0001:0001e375       _TestDefaultLanguage       0041f375 f   LIBCMT:getqloc.obj
 0001:0001e3e7       _LangCountryEnumProc@4     0041f3e7 f   LIBCMT:getqloc.obj
 0001:0001e5b7       _LanguageEnumProc@4        0041f5b7 f   LIBCMT:getqloc.obj
 0001:0001e676       _GetLcidFromCountry        0041f676 f   LIBCMT:getqloc.obj
 0001:0001e6a2       _GetLcidFromLangCountry    0041f6a2 f   LIBCMT:getqloc.obj
 0001:0001e707       _GetLcidFromLanguage       0041f707 f   LIBCMT:getqloc.obj
 0001:0001e926       _cmpResult                 0041f926 f   LIBCMT:memcmp.obj
 0001:0001e938       _cmpBYTE                   0041f938 f   LIBCMT:memcmp.obj
 0001:0001e950       _cmpWORD                   0041f950 f   LIBCMT:memcmp.obj
 0001:0001e990       _cmpDWORD                  0041f990 f   LIBCMT:memcmp.obj
 0001:0001ea08       _unaligned_memcmp          0041fa08 f   LIBCMT:memcmp.obj
 0001:00022341       ___crtInitCritSecNoSpinCount@8 00423341 f   LIBCMT:initcrit.obj
 0001:00022416       __tsopen_nolock            00423416 f   LIBCMT:open.obj
 0001:00022f8c       __unwind_handler           00423f8c f   LIBCMT:exsup.obj
 0001:000231d4       _has_osfxsr_set            004241d4 f   LIBCMT:cpu_disp.obj
 0001:000232c9       _ctrlevent_capture@4       004242c9 f   LIBCMT:winsig.obj
 0001:00023364       _siglookup                 00424364 f   LIBCMT:winsig.obj
 0001:000249ce       ?und_strlen@@YAIPBD@Z      004259ce f   LIBCMT:undname.obj
 0001:000249dc       ?und_strncpy@@YAPADPADPBDI@Z 004259dc f   LIBCMT:undname.obj
 0001:000249fc       ?und_strncmp@@YAIPBD0I@Z   004259fc f   LIBCMT:undname.obj
 0001:00029c12       ?__crtGetLocaleInfoW_stat@@YAHPAUlocaleinfo_struct@@KKPA_WHH@Z 0042ac12 f   LIBCMT:w_loc.obj
 0001:00029d88       ?__crtGetLocaleInfoA_stat@@YAHPAUlocaleinfo_struct@@KKPADHH@Z 0042ad88 f   LIBCMT:a_loc.obj
 0001:00029f81       __getenv_s_helper          0042af81 f   LIBCMT:getenv.obj
 0001:0002a014       __dupenv_s_helper          0042b014 f   LIBCMT:getenv.obj
 0001:0002a419       ?x_ismbbtype_l@@YAHPAUlocaleinfo_struct@@IHH@Z 0042b419 f   LIBCMT:ismbbyte.obj
 0001:0002ab10       _xtoa_s@20                 0042bb10 f   LIBCMT:xtoas.obj
 0001:0002ac50       @x64toa_s@24               0042bc50 f   LIBCMT:xtoas.obj
 0001:0002b881       ?__crtGetStringTypeW_stat@@YAHPAUlocaleinfo_struct@@KPB_WHPAGHH@Z 0042c881 f   LIBCMT:w_str.obj
 0001:0002bae3       ?strncnt@@YAHPBDH@Z        0042cae3 f   LIBCMT:a_cmp.obj
 0001:0002bafd       ?__crtCompareStringA_stat@@YAHPAUlocaleinfo_struct@@KKPBDH1HH@Z 0042cafd f   LIBCMT:a_cmp.obj
 0001:0002bfe5       _findenv                   0042cfe5 f   LIBCMT:setenv.obj
 0001:0002c032       _copy_environ              0042d032 f   LIBCMT:setenv.obj
 0001:0002ca00       __catch$?ConvertBSTRToString@_com_util@@YGPADPA_W@Z$0 0042da00 f   comsuppw:comutil.obj
 0001:0002d6e2       __shift                    0042e6e2 f   LIBCMT:cvt.obj
 0001:0002d71b       __cftoe2_l                 0042e71b f   LIBCMT:cvt.obj
 0001:0002dd03       __cftof2_l                 0042ed03 f   LIBCMT:cvt.obj
 0001:000310c1       __abstract_cw              004320c1 f   LIBCMT:ieee87.obj
 0001:00031155       __hw_cw                    00432155 f   LIBCMT:ieee87.obj
 0001:000311e3       __abstract_sw              004321e3 f   LIBCMT:ieee87.obj
 0001:00031221       ___abstract_cw_sse2        00432221 f   LIBCMT:ieee87.obj
 0001:000312be       ___hw_cw_sse2              004322be f   LIBCMT:ieee87.obj
 0001:0003135e       ___abstract_sw_sse2        0043235e f   LIBCMT:ieee87.obj
 0001:0003139c       ___fpreset_sse2            0043239c f   LIBCMT:ieee87.obj
 0001:0003146e       ___statusfp_sse2           0043246e f   LIBCMT:ieee87.obj
 0001:000314a9       ___clearfp_sse2            004324a9 f   LIBCMT:ieee87.obj
 0001:000314f4       ___control87_sse2          004324f4 f   LIBCMT:ieee87.obj
 0001:00032430       __ehhandler$?KPIWritePrivateProfileString@@YAHPBD000@Z 00433430 f   GlobalFun.obj
 0001:00032450       __ehhandler$?KPIGetPrivateProfileString@@YAKPBD00PADK0@Z 00433450 f   GlobalFun.obj
 0001:00032470       __ehhandler$?_Copy@?$basic_string@DU?$char_traits@D@std@@V?$allocator@D@2@@std@@IAEXII@Z 00433470 f   LogFile.obj
 0001:00032490       __unwindfunclet$??$?HDU?$char_traits@D@std@@V?$allocator@D@1@@std@@YA?AV?$basic_string@DU?$char_traits@D@std@@V?$allocator@D@2@@0@ABV10@PBD@Z$0 00433490 f   LogFile.obj
 0001:00032498       __ehhandler$??$?HDU?$char_traits@D@std@@V?$allocator@D@1@@std@@YA?AV?$basic_string@DU?$char_traits@D@std@@V?$allocator@D@2@@0@ABV10@PBD@Z 00433498 f   LogFile.obj
 0001:000324c0       __unwindfunclet$?Initialize@CLogFile@@QAEHABV?$basic_string@DU?$char_traits@D@std@@V?$allocator@D@2@@std@@I@Z$0 004334c0 f   LogFile.obj
 0001:000324c8       __ehhandler$?Initialize@CLogFile@@QAEHABV?$basic_string@DU?$char_traits@D@std@@V?$allocator@D@2@@std@@I@Z 004334c8 f   LogFile.obj
 0001:000324f0       __unwindfunclet$?OpenUniDirectory@CLogFile@@CAHABV?$basic_string@DU?$char_traits@D@std@@V?$allocator@D@2@@std@@PAV23@@Z$2 004334f0 f   LogFile.obj
 0001:000324f8       __unwindfunclet$?OpenUniDirectory@CLogFile@@CAHABV?$basic_string@DU?$char_traits@D@std@@V?$allocator@D@2@@std@@PAV23@@Z$3 004334f8 f   LogFile.obj
 0001:00032500       __ehhandler$?OpenUniDirectory@CLogFile@@CAHABV?$basic_string@DU?$char_traits@D@std@@V?$allocator@D@2@@std@@PAV23@@Z 00433500 f   LogFile.obj
 0001:00032530       __unwindfunclet$?CreateUniFile@CLogFile@@CAPAXABV?$basic_string@DU?$char_traits@D@std@@V?$allocator@D@2@@std@@PAV23@@Z$0 00433530 f   LogFile.obj
 0001:00032538       __unwindfunclet$?CreateUniFile@CLogFile@@CAPAXABV?$basic_string@DU?$char_traits@D@std@@V?$allocator@D@2@@std@@PAV23@@Z$1 00433538 f   LogFile.obj
 0001:00032540       __ehhandler$?CreateUniFile@CLogFile@@CAPAXABV?$basic_string@DU?$char_traits@D@std@@V?$allocator@D@2@@std@@PAV23@@Z 00433540 f   LogFile.obj
 0001:00032570       __unwindfunclet$?PrepareFile@CLogFile@@AAEHXZ$0 00433570 f   LogFile.obj
 0001:0003257b       __unwindfunclet$?PrepareFile@CLogFile@@AAEHXZ$1 0043357b f   LogFile.obj
 0001:00032586       __unwindfunclet$?PrepareFile@CLogFile@@AAEHXZ$2 00433586 f   LogFile.obj
 0001:00032591       __unwindfunclet$?PrepareFile@CLogFile@@AAEHXZ$3 00433591 f   LogFile.obj
 0001:0003259c       __ehhandler$?PrepareFile@CLogFile@@AAEHXZ 0043359c f   LogFile.obj
 0001:000325d0       __ehhandler$?num_rows@S3P_MSSQLServer_Result@@UBEHXZ 004335d0 f   S3P_MSSQLServer_Result.obj
 0001:000325f0       __ehhandler$?data_seek@S3P_MSSQLServer_Result@@UBEXIH@Z 004335f0 f   S3P_MSSQLServer_Result.obj
 0001:00032610       __unwindfunclet$?num_fields@S3P_MSSQLServer_Result@@UBEHXZ$2 00433610 f   S3P_MSSQLServer_Result.obj
 0001:00032618       __ehhandler$?num_fields@S3P_MSSQLServer_Result@@UBEHXZ 00433618 f   S3P_MSSQLServer_Result.obj
 0001:00032640       __unwindfunclet$?get_field_data@S3P_MSSQLServer_Result@@UAE_NIPAXK@Z$2 00433640 f   S3P_MSSQLServer_Result.obj
 0001:00032648       __unwindfunclet$?get_field_data@S3P_MSSQLServer_Result@@UAE_NIPAXK@Z$3 00433648 f   S3P_MSSQLServer_Result.obj
 0001:00032650       __unwindfunclet$?get_field_data@S3P_MSSQLServer_Result@@UAE_NIPAXK@Z$4 00433650 f   S3P_MSSQLServer_Result.obj
 0001:00032658       __ehhandler$?get_field_data@S3P_MSSQLServer_Result@@UAE_NIPAXK@Z 00433658 f   S3P_MSSQLServer_Result.obj
 0001:00032680       __ehhandler$?unuse@S3P_MSSQLServer_Result@@UAEHXZ 00433680 f   S3P_MSSQLServer_Result.obj
 0001:000326a0       __unwindfunclet$?GetServerID@S3PAccount@@SAHPAVS3PDBConVBC@@PBDAAK@Z$0 004336a0 f   S3PAccount.obj
 0001:000326ab       __ehhandler$?GetServerID@S3PAccount@@SAHPAVS3PDBConVBC@@PBDAAK@Z 004336ab f   S3PAccount.obj
 0001:000326e0       __unwindfunclet$?GetAccountGameID@S3PAccount@@SAHPAVS3PDBConVBC@@PBDAAK@Z$0 004336e0 f   S3PAccount.obj
 0001:000326eb       __ehhandler$?GetAccountGameID@S3PAccount@@SAHPAVS3PDBConVBC@@PBDAAK@Z 004336eb f   S3PAccount.obj
 0001:00032720       __unwindfunclet$?GetLeftSecondsOfDeposit@S3PAccount@@KAHPAVS3PDBConVBC@@PBDAAJ2@Z$0 00433720 f   S3PAccount.obj
 0001:0003272b       __unwindfunclet$?GetLeftSecondsOfDeposit@S3PAccount@@KAHPAVS3PDBConVBC@@PBDAAJ2@Z$1 0043372b f   S3PAccount.obj
 0001:00032736       __unwindfunclet$?GetLeftSecondsOfDeposit@S3PAccount@@KAHPAVS3PDBConVBC@@PBDAAJ2@Z$2 00433736 f   S3PAccount.obj
 0001:00032741       __ehhandler$?GetLeftSecondsOfDeposit@S3PAccount@@KAHPAVS3PDBConVBC@@PBDAAJ2@Z 00433741 f   S3PAccount.obj
 0001:00032770       __unwindfunclet$?Login@S3PAccount@@SAHPAVS3PDBConVBC@@PBD1KAAGAAK@Z$0 00433770 f   S3PAccount.obj
 0001:0003277b       __ehhandler$?Login@S3PAccount@@SAHPAVS3PDBConVBC@@PBD1KAAGAAK@Z 0043377b f   S3PAccount.obj
 0001:000327b0       __unwindfunclet$??4_bstr_t@@QAEAAV0@PB_W@Z$0 004337b0 f   S3PAccount.obj
 0001:000327bb       __ehhandler$??4_bstr_t@@QAEAAV0@PB_W@Z 004337bb f   S3PAccount.obj
 0001:000327e0       __unwindfunclet$??0_bstr_t@@QAE@ABV_variant_t@@@Z$0 004337e0 f   S3PAccount.obj
 0001:000327e8       __ehhandler$??0_bstr_t@@QAE@ABV_variant_t@@@Z 004337e8 f   S3PAccount.obj
 0001:00032810       __unwindfunclet$?ServerLogin@S3PAccount@@SAHPAVS3PDBConVBC@@PBD1KFQBEAAK@Z$0 00433810 f   S3PAccount.obj
 0001:0003281b       __unwindfunclet$?ServerLogin@S3PAccount@@SAHPAVS3PDBConVBC@@PBD1KFQBEAAK@Z$1 0043381b f   S3PAccount.obj
 0001:00032826       __unwindfunclet$?ServerLogin@S3PAccount@@SAHPAVS3PDBConVBC@@PBD1KFQBEAAK@Z$2 00433826 f   S3PAccount.obj
 0001:00032831       __unwindfunclet$?ServerLogin@S3PAccount@@SAHPAVS3PDBConVBC@@PBD1KFQBEAAK@Z$3 00433831 f   S3PAccount.obj
 0001:0003283c       __unwindfunclet$?ServerLogin@S3PAccount@@SAHPAVS3PDBConVBC@@PBD1KFQBEAAK@Z$4 0043383c f   S3PAccount.obj
 0001:0003285e       __unwindfunclet$?ServerLogin@S3PAccount@@SAHPAVS3PDBConVBC@@PBD1KFQBEAAK@Z$5 0043385e f   S3PAccount.obj
 0001:00032869       __ehhandler$?ServerLogin@S3PAccount@@SAHPAVS3PDBConVBC@@PBD1KFQBEAAK@Z 00433869 f   S3PAccount.obj
 0001:000328a0       __unwindfunclet$??0_bstr_t@@QAE@PBD@Z$0 004338a0 f   S3PDB_MSSQLServer_Connection.obj
 0001:000328ab       __ehhandler$??0_bstr_t@@QAE@PBD@Z 004338ab f   S3PDB_MSSQLServer_Connection.obj
 0001:000328d0       __unwindfunclet$??0S3P_MSSQLServer_Result@@QAE@XZ$0 004338d0 f   S3PDB_MSSQLServer_Connection.obj
 0001:000328d8       __unwindfunclet$??0S3P_MSSQLServer_Result@@QAE@XZ$1 004338d8 f   S3PDB_MSSQLServer_Connection.obj
 0001:000328e3       __ehhandler$??0S3P_MSSQLServer_Result@@QAE@XZ 004338e3 f   S3PDB_MSSQLServer_Connection.obj
 0001:00032900       __unwindfunclet$??1S3P_MSSQLServer_Result@@UAE@XZ$0 00433900 f   S3PDB_MSSQLServer_Connection.obj
 0001:00032908       __unwindfunclet$??1S3P_MSSQLServer_Result@@UAE@XZ$1 00433908 f   S3PDB_MSSQLServer_Connection.obj
 0001:00032913       __ehhandler$??1S3P_MSSQLServer_Result@@UAE@XZ 00433913 f   S3PDB_MSSQLServer_Connection.obj
 0001:00032930       __unwindfunclet$??0S3PDB_MSSQLServer_Connection@@QAE@XZ$0 00433930 f   S3PDB_MSSQLServer_Connection.obj
 0001:00032938       __unwindfunclet$??0S3PDB_MSSQLServer_Connection@@QAE@XZ$1 00433938 f   S3PDB_MSSQLServer_Connection.obj
 0001:00032943       __unwindfunclet$??0S3PDB_MSSQLServer_Connection@@QAE@XZ$2 00433943 f   S3PDB_MSSQLServer_Connection.obj
 0001:0003294e       __unwindfunclet$??0S3PDB_MSSQLServer_Connection@@QAE@XZ$3 0043394e f   S3PDB_MSSQLServer_Connection.obj
 0001:00032959       __ehhandler$??0S3PDB_MSSQLServer_Connection@@QAE@XZ 00433959 f   S3PDB_MSSQLServer_Connection.obj
 0001:00032980       __unwindfunclet$??1S3PDB_MSSQLServer_Connection@@UAE@XZ$0 00433980 f   S3PDB_MSSQLServer_Connection.obj
 0001:00032988       __unwindfunclet$??1S3PDB_MSSQLServer_Connection@@UAE@XZ$1 00433988 f   S3PDB_MSSQLServer_Connection.obj
 0001:00032993       __unwindfunclet$??1S3PDB_MSSQLServer_Connection@@UAE@XZ$2 00433993 f   S3PDB_MSSQLServer_Connection.obj
 0001:0003299e       __unwindfunclet$??1S3PDB_MSSQLServer_Connection@@UAE@XZ$3 0043399e f   S3PDB_MSSQLServer_Connection.obj
 0001:000329a9       __ehhandler$??1S3PDB_MSSQLServer_Connection@@UAE@XZ 004339a9 f   S3PDB_MSSQLServer_Connection.obj
 0001:000329d0       __unwindfunclet$?PutCommandText@Command15@@QAEXV_bstr_t@@@Z$0 004339d0 f   S3PDB_MSSQLServer_Connection.obj
 0001:000329d8       __ehhandler$?PutCommandText@Command15@@QAEXV_bstr_t@@@Z 004339d8 f   S3PDB_MSSQLServer_Connection.obj
 0001:00032a00       __unwindfunclet$?Open@Connection15@@QAEJV_bstr_t@@00J@Z$0 00433a00 f   S3PDB_MSSQLServer_Connection.obj
 0001:00032a08       __unwindfunclet$?Open@Connection15@@QAEJV_bstr_t@@00J@Z$1 00433a08 f   S3PDB_MSSQLServer_Connection.obj
 0001:00032a10       __unwindfunclet$?Open@Connection15@@QAEJV_bstr_t@@00J@Z$2 00433a10 f   S3PDB_MSSQLServer_Connection.obj
 0001:00032a18       __ehhandler$?Open@Connection15@@QAEJV_bstr_t@@00J@Z 00433a18 f   S3PDB_MSSQLServer_Connection.obj
 0001:00032a40       __unwindfunclet$?DoCmd@S3PDB_MSSQLServer_Connection@@IAE_NPBD@Z$2 00433a40 f   S3PDB_MSSQLServer_Connection.obj
 0001:00032a48       __ehhandler$?DoCmd@S3PDB_MSSQLServer_Connection@@IAE_NPBD@Z 00433a48 f   S3PDB_MSSQLServer_Connection.obj
 0001:00032a70       __unwindfunclet$?DoResult@S3PDB_MSSQLServer_Connection@@IAE_NPBD@Z$4 00433a70 f   S3PDB_MSSQLServer_Connection.obj
 0001:00032a78       __unwindfunclet$?DoResult@S3PDB_MSSQLServer_Connection@@IAE_NPBD@Z$5 00433a78 f   S3PDB_MSSQLServer_Connection.obj
 0001:00032a80       __unwindfunclet$?DoResult@S3PDB_MSSQLServer_Connection@@IAE_NPBD@Z$6 00433a80 f   S3PDB_MSSQLServer_Connection.obj
 0001:00032a88       __ehhandler$?DoResult@S3PDB_MSSQLServer_Connection@@IAE_NPBD@Z 00433a88 f   S3PDB_MSSQLServer_Connection.obj
 0001:00032ab0       __unwindfunclet$?QueryResult@S3PDB_MSSQLServer_Connection@@IAE_NPBDPAVS3P_MSSQLServer_Result@@@Z$2 00433ab0 f   S3PDB_MSSQLServer_Connection.obj
 0001:00032ab8       __unwindfunclet$?QueryResult@S3PDB_MSSQLServer_Connection@@IAE_NPBDPAVS3P_MSSQLServer_Result@@@Z$3 00433ab8 f   S3PDB_MSSQLServer_Connection.obj
 0001:00032ac0       __unwindfunclet$?QueryResult@S3PDB_MSSQLServer_Connection@@IAE_NPBDPAVS3P_MSSQLServer_Result@@@Z$4 00433ac0 f   S3PDB_MSSQLServer_Connection.obj
 0001:00032ac8       __ehhandler$?QueryResult@S3PDB_MSSQLServer_Connection@@IAE_NPBDPAVS3P_MSSQLServer_Result@@@Z 00433ac8 f   S3PDB_MSSQLServer_Connection.obj
 0001:00032af0       __unwindfunclet$?QueryCmd@S3PDB_MSSQLServer_Connection@@IAE_NPBDPAVS3P_MSSQLServer_Result@@@Z$2 00433af0 f   S3PDB_MSSQLServer_Connection.obj
 0001:00032af8       __unwindfunclet$?QueryCmd@S3PDB_MSSQLServer_Connection@@IAE_NPBDPAVS3P_MSSQLServer_Result@@@Z$3 00433af8 f   S3PDB_MSSQLServer_Connection.obj
 0001:00032b00       __ehhandler$?QueryCmd@S3PDB_MSSQLServer_Connection@@IAE_NPBDPAVS3P_MSSQLServer_Result@@@Z 00433b00 f   S3PDB_MSSQLServer_Connection.obj
 0001:00032b20       __unwindfunclet$?OpenConnect@S3PDB_MSSQLServer_Connection@@UAE_NPAUtag_DATABASEINFO@@@Z$2 00433b20 f   S3PDB_MSSQLServer_Connection.obj
 0001:00032b28       __unwindfunclet$?OpenConnect@S3PDB_MSSQLServer_Connection@@UAE_NPAUtag_DATABASEINFO@@@Z$3 00433b28 f   S3PDB_MSSQLServer_Connection.obj
 0001:00032b30       __unwindfunclet$?OpenConnect@S3PDB_MSSQLServer_Connection@@UAE_NPAUtag_DATABASEINFO@@@Z$4 00433b30 f   S3PDB_MSSQLServer_Connection.obj
 0001:00032b38       __unwindfunclet$?OpenConnect@S3PDB_MSSQLServer_Connection@@UAE_NPAUtag_DATABASEINFO@@@Z$5 00433b38 f   S3PDB_MSSQLServer_Connection.obj
 0001:00032b40       __unwindfunclet$?OpenConnect@S3PDB_MSSQLServer_Connection@@UAE_NPAUtag_DATABASEINFO@@@Z$6 00433b40 f   S3PDB_MSSQLServer_Connection.obj
 0001:00032b48       __unwindfunclet$?OpenConnect@S3PDB_MSSQLServer_Connection@@UAE_NPAUtag_DATABASEINFO@@@Z$7 00433b48 f   S3PDB_MSSQLServer_Connection.obj
 0001:00032b50       __ehhandler$?OpenConnect@S3PDB_MSSQLServer_Connection@@UAE_NPAUtag_DATABASEINFO@@@Z 00433b50 f   S3PDB_MSSQLServer_Connection.obj
 0001:00032b80       __unwindfunclet$?CreateConnection@S3PDBConnectionPool@@IAEHPAUtag_DATABASEINFO@@PAPAVS3PDBConVBC@@@Z$0 00433b80 f   S3PDBConnectionPool.obj
 0001:00032b8b       __ehhandler$?CreateConnection@S3PDBConnectionPool@@IAEHPAUtag_DATABASEINFO@@PAPAVS3PDBConVBC@@@Z 00433b8b f   S3PDBConnectionPool.obj
 0001:00032bb0       __unwindfunclet$??1S3PDBConnectionPool@@MAE@XZ$0 00433bb0 f   S3PDBConnectionPool.obj
 0001:00032bb8       __unwindfunclet$??1S3PDBConnectionPool@@MAE@XZ$1 00433bb8 f   S3PDBConnectionPool.obj
 0001:00032bc3       __ehhandler$??1S3PDBConnectionPool@@MAE@XZ 00433bc3 f   S3PDBConnectionPool.obj
 0001:00032be0       __unwindfunclet$??0logic_error@std@@QAE@ABV?$basic_string@DU?$char_traits@D@std@@V?$allocator@D@2@@1@@Z$0 00433be0 f   S3PDBConnectionPool.obj
 0001:00032be8       __ehhandler$??0logic_error@std@@QAE@ABV?$basic_string@DU?$char_traits@D@std@@V?$allocator@D@2@@1@@Z 00433be8 f   S3PDBConnectionPool.obj
 0001:00032c10       __unwindfunclet$?_Xlen@?$vector@PAVS3PDBConVBC@@V?$allocator@PAVS3PDBConVBC@@@std@@@std@@KAXXZ$0 00433c10 f   S3PDBConnectionPool.obj
 0001:00032c18       __ehhandler$?_Xlen@?$vector@PAVS3PDBConVBC@@V?$allocator@PAVS3PDBConVBC@@@std@@@std@@KAXXZ 00433c18 f   S3PDBConnectionPool.obj
 0001:00032c40       __unwindfunclet$??0logic_error@std@@QAE@ABV01@@Z$0 00433c40 f   S3PDBConnectionPool.obj
 0001:00032c48       __ehhandler$??0logic_error@std@@QAE@ABV01@@Z 00433c48 f   S3PDBConnectionPool.obj
 0001:00032c70       __unwindfunclet$??0S3PDBConnectionPool@@IAE@XZ$0 00433c70 f   S3PDBConnectionPool.obj
 0001:00032c78       __ehhandler$??0S3PDBConnectionPool@@IAE@XZ 00433c78 f   S3PDBConnectionPool.obj
 0001:00032ca0       __unwindfunclet$?Instance@S3PDBConnectionPool@@SAPAV1@XZ$0 00433ca0 f   S3PDBConnectionPool.obj
 0001:00032cab       __ehhandler$?Instance@S3PDBConnectionPool@@SAPAV1@XZ 00433cab f   S3PDBConnectionPool.obj
 0001:00032cd0       __unwindfunclet$?Init@S3PDBConnectionPool@@QAEHABV?$basic_string@DU?$char_traits@D@std@@V?$allocator@D@2@@std@@0K@Z$0 00433cd0 f   S3PDBConnectionPool.obj
 0001:00032cdb       __ehhandler$?Init@S3PDBConnectionPool@@QAEHABV?$basic_string@DU?$char_traits@D@std@@V?$allocator@D@2@@std@@0K@Z 00433cdb f   S3PDBConnectionPool.obj
 0001:00032d10       __unwindfunclet$??0KThread_CS@@QAE@XZ$0 00433d10 f   S3PDBSocketPool.obj
 0001:00032d18       __ehhandler$??0KThread_CS@@QAE@XZ 00433d18 f   S3PDBSocketPool.obj
 0001:00032d40       __unwindfunclet$??1KThread_CS@@UAE@XZ$0 00433d40 f   S3PDBSocketPool.obj
 0001:00032d48       __ehhandler$??1KThread_CS@@UAE@XZ 00433d48 f   S3PDBSocketPool.obj
 0001:00032d70       __ehhandler$?SendData@S3PDBSocketPool@@QAEHKQBXABI@Z 00433d70 f   S3PDBSocketPool.obj
 0001:00032d90       __ehhandler$?CustomSend@S3PDBSocketPool@@QAEHKDPAUKAccountHead@@@Z 00433d90 f   S3PDBSocketPool.obj
 0001:00032dc0       __unwindfunclet$??0S3PDBSocketPool@@IAE@XZ$0 00433dc0 f   S3PDBSocketPool.obj
 0001:00032dc8       __ehhandler$??0S3PDBSocketPool@@IAE@XZ 00433dc8 f   S3PDBSocketPool.obj
 0001:00032df0       __unwindfunclet$?Instance@S3PDBSocketPool@@SAPAV1@XZ$0 00433df0 f   S3PDBSocketPool.obj
 0001:00032dfb       __ehhandler$?Instance@S3PDBSocketPool@@SAPAV1@XZ 00433dfb f   S3PDBSocketPool.obj
 0001:00032e20       __unwindfunclet$?erase@?$_Tree@V?$_Tmap_traits@UUserName@@KUUserNameCmp@@V?$allocator@U?$pair@$$CBUUserName@@K@std@@@std@@$0A@@std@@@std@@QAE?AViterator@12@V312@@Z$0 00433e20 f   S3PDBSocketPool.obj
 0001:00032e28       __ehhandler$?erase@?$_Tree@V?$_Tmap_traits@UUserName@@KUUserNameCmp@@V?$allocator@U?$pair@$$CBUUserName@@K@std@@@std@@$0A@@std@@@std@@QAE?AViterator@12@V312@@Z 00433e28 f   S3PDBSocketPool.obj
 0001:00032e50       __unwindfunclet$?_Insert@?$_Tree@V?$_Tmap_traits@UUserName@@KUUserNameCmp@@V?$allocator@U?$pair@$$CBUUserName@@K@std@@@std@@$0A@@std@@@std@@IAE?AViterator@12@_NPAU_Node@?$_Tree_nod@V?$_Tmap_traits@UUserName@@KUUserNameCmp@@V?$allocator@U?$pair@$$CBUUserName@@K@std@@@std@@$0A@@std@@@2@ABU?$pair@$$CBUUserName@@K@2@@Z$0 00433e50 f   S3PDBSocketPool.obj
 0001:00032e58       __ehhandler$?_Insert@?$_Tree@V?$_Tmap_traits@UUserName@@KUUserNameCmp@@V?$allocator@U?$pair@$$CBUUserName@@K@std@@@std@@$0A@@std@@@std@@IAE?AViterator@12@_NPAU_Node@?$_Tree_nod@V?$_Tmap_traits@UUserName@@KUUserNameCmp@@V?$allocator@U?$pair@$$CBUUserName@@K@std@@@std@@$0A@@std@@@2@ABU?$pair@$$CBUUserName@@K@2@@Z 00433e58 f   S3PDBSocketPool.obj
 0001:00032e80       __unwindfunclet$?_Incsize@?$list@PAVKGatewayDataProcess@@V?$allocator@PAVKGatewayDataProcess@@@std@@@std@@IAEXI@Z$0 00433e80 f   S3PDBSocketPool.obj
 0001:00032e88       __ehhandler$?_Incsize@?$list@PAVKGatewayDataProcess@@V?$allocator@PAVKGatewayDataProcess@@@std@@@std@@IAEXI@Z 00433e88 f   S3PDBSocketPool.obj
 0001:00032eb0       __unwindfunclet$??1KGatewayDataProcess@@UAE@XZ$0 00433eb0 f   S3PDBSocketPool.obj
 0001:00032eb8       __ehhandler$??1KGatewayDataProcess@@UAE@XZ 00433eb8 f   S3PDBSocketPool.obj
 0001:00032ee0       __unwindfunclet$??0KGatewayDataProcess@@QAE@XZ$0 00433ee0 f   S3PDBSocketPool.obj
 0001:00032ee8       __ehhandler$??0KGatewayDataProcess@@QAE@XZ 00433ee8 f   S3PDBSocketPool.obj
 0001:00032f10       __unwindfunclet$?Start@S3PDBSocketPool@@UAEPAXPAUIServer@@H@Z$0 00433f10 f   S3PDBSocketPool.obj
 0001:00032f1b       __ehhandler$?Start@S3PDBSocketPool@@UAEPAXPAUIServer@@H@Z 00433f1b f   S3PDBSocketPool.obj
 0001:00032f36       __ehhandler$?CallUnexpected@@YAXPBU_s_ESTypeList@@@Z 00433f36 f   LIBCMT:frame.obj
 0001:00032f51       __unwindfunclet$?_Xlen@_String_base@std@@SAXXZ$0 00433f51 f   libcpmt:string.obj
 0001:00032f59       __ehhandler$?_Xlen@_String_base@std@@SAXXZ 00433f59 f   libcpmt:string.obj
 0001:00032f74       __unwindfunclet$?_Xran@_String_base@std@@SAXXZ$0 00433f74 f   libcpmt:string.obj
 0001:00032f7c       __ehhandler$?_Xran@_String_base@std@@SAXXZ 00433f7c f   libcpmt:string.obj
 0001:00032f97       __unwindfunclet$?_Xinvarg@_String_base@std@@SAXXZ$0 00433f97 f   libcpmt:string.obj
 0001:00032f9f       __ehhandler$?_Xinvarg@_String_base@std@@SAXXZ 00433f9f f   libcpmt:string.obj
 0001:00032fc0       __ehhandler$?ConvertBSTRToString@_com_util@@YGPADPA_W@Z 00433fc0 f   comsuppw:comutil.obj
 0001:00032fe0       ??__EuiTabkey@@YAXXZ       00433fe0 f   GlobalFun.obj
 0001:00033000       ??__Egs_LogFile@@YAXXZ     00434000 f   main.obj
 0001:00033020       ??__Eg_TraceBuffer@@YAXXZ  00434020 f   main.obj
 0001:00033040       ??__EvtMissing@@YAXXZ      00434040 f   comsuppw:comutil.obj
 0001:00033050       ??__Fgs_LogFile@@YAXXZ     00434050 f   main.obj
 0001:00033060       ??__Fg_TraceBuffer@@YAXXZ  00434060 f   main.obj
 0001:00033077       ??__Fnomem@?5???2@YAPAXI@Z@YAXXZ 00434077 f   LIBCMT:new.obj
 0001:00033090       ??__FvtMissing@@YAXXZ      00434090 f   comsuppw:comutil.obj
