 Rainbow

 Timestamp is 507eb51a (Wed Oct 17 20:39:38 2012)

 Preferred load address is 10000000

 Start         Length     Name                   Class
 0001:00000000 0002a7beH .text                   CODE
 0001:0002a7c0 000017c0H .text$x                 CODE
 0001:0002bf80 000000b1H .text$yc                CODE
 0001:0002c040 0000018cH .text$yd                CODE
 0002:00000000 00000228H .idata$5                DATA
 0002:00000228 00000004H .CRT$XCA                DATA
 0002:0000022c 0000000cH .CRT$XCC                DATA
 0002:00000238 00000014H .CRT$XCU                DATA
 0002:0000024c 00000004H .CRT$XCZ                DATA
 0002:00000250 00000004H .CRT$XIA                DATA
 0002:00000254 00000014H .CRT$XIC                DATA
 0002:00000268 00000004H .CRT$XIZ                DATA
 0002:0000026c 00000004H .CRT$XPA                DATA
 0002:00000270 00000004H .CRT$XPX                DATA
 0002:00000274 00000004H .CRT$XPXA               DATA
 0002:00000278 00000004H .CRT$XPZ                DATA
 0002:0000027c 00000004H .CRT$XTA                DATA
 0002:00000280 00000004H .CRT$XTZ                DATA
 0002:00000290 000035a0H .rdata                  DATA
 0002:00003830 00000062H .rdata$debug            DATA
 0002:00003894 00000fc4H .rdata$r                DATA
 0002:00004860 000001b0H .rdata$sxdata           DATA
 0002:00004a10 00000004H .rtc$IAA                DATA
 0002:00004a14 00000004H .rtc$IZZ                DATA
 0002:00004a18 00000004H .rtc$TAA                DATA
 0002:00004a1c 00000004H .rtc$TZZ                DATA
 0002:00004a20 00002488H .xdata$x                DATA
 0002:00006ea8 00000004H ATL$__a                 DATA
 0002:00006eac 00000004H ATL$__z                 DATA
 0002:00006eb0 00000064H .idata$2                DATA
 0002:00006f14 00000014H .idata$3                DATA
 0002:00006f28 00000228H .idata$4                DATA
 0002:00007150 00000882H .idata$6                DATA
 0002:000079e0 0000004eH .edata                  DATA
 0003:00000000 00001898H .data                   DATA
 0003:000018a0 00001f44H .bss                    DATA

  Address         Publics by Value              Rva+Base       Lib:Object

 0000:00000000       __except_list              00000000     <absolute>
 0000:0000006c       ___safe_se_handler_count   0000006c     <absolute>
 0000:00000000       ___ImageBase               10000000     <linker-defined>
 0001:00000000       _DllMain@12                10001000 f   Rainbow.obj
 0001:00000010       _IsEqualGUID               10001010 f i ClientStage.obj
 0001:000000b0       _==                        100010b0 f i ClientStage.obj
 0001:000000c0       ??0bad_alloc@std@@QAE@PBD@Z 100010c0 f i ClientStage.obj
 0001:000000e0       ??1bad_alloc@std@@UAE@XZ   100010e0 f i ClientStage.obj
 0001:000000f0       ??_Gbad_alloc@std@@UAEPAXI@Z 100010f0 f i ClientStage.obj
 0001:000000f0       ??_Ebad_alloc@std@@UAEPAXI@Z 100010f0 f i ClientStage.obj
 0001:00000120       ?assign@?$char_traits@D@std@@SAXAADABD@Z 10001120 f i ClientStage.obj
 0001:00000130       ?length@?$char_traits@D@std@@SAIPBD@Z 10001130 f i ClientStage.obj
 0001:00000150       ?_Copy_s@?$char_traits@D@std@@SAPADPADIPBDI@Z 10001150 f i ClientStage.obj
 0001:00000180       ?_Move_s@?$char_traits@D@std@@SAPADPADIPBDI@Z 10001180 f i ClientStage.obj
 0001:000001b0       ??0Thank_you@Define_the_symbol__ATL_MIXED@@QAE@XZ 100011b0 f i ClientStage.obj
 0001:000001c0       ?one@Thank_you@Define_the_symbol__ATL_MIXED@@UAEXXZ 100011c0 f i ClientStage.obj
 0001:000001d0       ??0IUnknown@@QAE@XZ        100011d0 f i ClientStage.obj
 0001:000001e0       ?Enter@CCriticalSection@Win32@OnlineGameLib@@QAEXXZ 100011e0 f i ClientStage.obj
 0001:000001f0       ?Leave@CCriticalSection@Win32@OnlineGameLib@@QAEXXZ 100011f0 f i ClientStage.obj
 0001:00000200       ??0CCriticalSection@Win32@OnlineGameLib@@QAE@XZ 10001200 f i ClientStage.obj
 0001:00000210       ??1CCriticalSection@Win32@OnlineGameLib@@QAE@XZ 10001210 f i ClientStage.obj
 0001:00000220       ??0Owner@CCriticalSection@Win32@OnlineGameLib@@QAE@AAV123@@Z 10001220 f i ClientStage.obj
 0001:00000240       ??1Owner@CCriticalSection@Win32@OnlineGameLib@@QAE@XZ 10001240 f i ClientStage.obj
 0001:00000250       ?GetUsed@CIOBuffer@Win32@OnlineGameLib@@QBEIXZ 10001250 f i ClientStage.obj
 0001:00000260       ?GetSize@CIOBuffer@Win32@OnlineGameLib@@QBEIXZ 10001260 f i ClientStage.obj
 0001:00000270       ?GetBuffer@CIOBuffer@Win32@OnlineGameLib@@QBEPBEXZ 10001270 f i ClientStage.obj
 0001:00000280       ?KSG_DecodeBuf@@YAHIPAEPAI@Z 10001280 f i ClientStage.obj
 0001:000002b0       ?KSG_EncodeBuf@@YAHIPAEPAI@Z 100012b0 f i ClientStage.obj
 0001:000002f0       ??0IClient@@QAE@XZ         100012f0 f i ClientStage.obj
 0001:00000300       ??1CGameClient@@UAE@XZ     10001300 f   ClientStage.obj
 0001:000003a0       ?OnBufferCreated@Allocator@CIOBuffer@Win32@OnlineGameLib@@EAEXXZ 100013a0 f i ClientStage.obj
 0001:000003b0       ?OnBufferAllocated@Allocator@CIOBuffer@Win32@OnlineGameLib@@EAEXXZ 100013b0 f i ClientStage.obj
 0001:000003c0       ?OnBufferReleased@Allocator@CIOBuffer@Win32@OnlineGameLib@@EAEXXZ 100013c0 f i ClientStage.obj
 0001:000003d0       ?OnShutdownInitiated@CSocketClient@Win32@OnlineGameLib@@EAEXXZ 100013d0 f i ClientStage.obj
 0001:000003e0       ?OnShutdownComplete@CSocketClient@Win32@OnlineGameLib@@EAEXXZ 100013e0 f i ClientStage.obj
 0001:000003f0       ?OnConnect@CSocketClient@Win32@OnlineGameLib@@EAEXXZ 100013f0 f i ClientStage.obj
 0001:00000400       ?OnClose@CSocketClient@Win32@OnlineGameLib@@EAEXXZ 10001400 f i ClientStage.obj
 0001:00000410       ?OnWrite@CSocketClient@Win32@OnlineGameLib@@EAEXXZ 10001410 f i ClientStage.obj
 0001:00000420       ?RegisterMsgFilter@CGameClient@@UAGJPAXP6GX0ABK@Z@Z 10001420 f   ClientStage.obj
 0001:00000440       ?SendPackToServer@CGameClient@@UAGJQBXABI@Z 10001440 f   ClientStage.obj
 0001:000004d0       ?Shutdown@CGameClient@@UAGJXZ 100014d0 f   ClientStage.obj
 0001:000004f0       ?QueryInterface@CGameClient@@UAGJABU_GUID@@PAPAX@Z 100014f0 f   ClientStage.obj
 0001:00000550       ?AddRef@CGameClient@@UAGKXZ 10001550 f   ClientStage.obj
 0001:00000570       ?Release@CGameClient@@UAGKXZ 10001570 f   ClientStage.obj
 0001:000005b0       ?ProcessCommand@CGameClient@@IAEXPBVCIOBuffer@Win32@OnlineGameLib@@@Z 100015b0 f   ClientStage.obj
 0001:00000600       ?GetMinimumMessageSize@CGameClient@@IBEIXZ 10001600 f   ClientStage.obj
 0001:00000610       ?GetMessageSize@CGameClient@@IBEIPBVCIOBuffer@Win32@OnlineGameLib@@@Z 10001610 f   ClientStage.obj
 0001:00000620       ?OnStartConnections@CGameClient@@EAEXXZ 10001620 f   ClientStage.obj
 0001:00000650       ?OnStopConnections@CGameClient@@EAEXXZ 10001650 f   ClientStage.obj
 0001:00000680       ??0IClientFactory@@QAE@XZ  10001680 f i ClientStage.obj
 0001:00000690       ??1CClientFactory@@UAE@XZ  10001690 f   ClientStage.obj
 0001:000006a0       ?SetEnvironment@CClientFactory@@UAGJABI@Z 100016a0 f   ClientStage.obj
 0001:000006c0       ?QueryInterface@CClientFactory@@UAGJABU_GUID@@PAPAX@Z 100016c0 f   ClientStage.obj
 0001:00000720       ?AddRef@CClientFactory@@UAGKXZ 10001720 f   ClientStage.obj
 0001:00000740       ?Release@CClientFactory@@UAGKXZ 10001740 f   ClientStage.obj
 0001:00000780       ?size@?$basic_string@DU?$char_traits@D@std@@V?$allocator@D@2@@std@@QBEIXZ 10001780 f i ClientStage.obj
 0001:00000790       ?_Myptr@?$basic_string@DU?$char_traits@D@std@@V?$allocator@D@2@@std@@IBEPBDXZ 10001790 f i ClientStage.obj
 0001:000007a0       ??0?$allocator@D@std@@QAE@XZ 100017a0 f i ClientStage.obj
 0001:000007b0       ?_Myptr@?$basic_string@DU?$char_traits@D@std@@V?$allocator@D@2@@std@@IAEPADXZ 100017b0 f i ClientStage.obj
 0001:000007c0       ??0?$allocator@D@std@@QAE@ABV01@@Z 100017c0 f i ClientStage.obj
 0001:000007d0       ?deallocate@?$allocator@D@std@@QAEXPADI@Z 100017d0 f i ClientStage.obj
 0001:000007e0       ?_Inside@?$basic_string@DU?$char_traits@D@std@@V?$allocator@D@2@@std@@IAE_NPBD@Z 100017e0 f i ClientStage.obj
 0001:00000820       ?max_size@?$allocator@D@std@@QBEIXZ 10001820 f i ClientStage.obj
 0001:00000830       ??$_Allocate@D@std@@YAPADIPAD@Z 10001830 f i ClientStage.obj
 0001:00000890       ??0bad_alloc@std@@QAE@ABV01@@Z 10001890 f i ClientStage.obj
 0001:000008b0       ??$_Char_traits_cat@U?$char_traits@D@std@@@std@@YA?AU_Secure_char_traits_tag@0@XZ 100018b0 f i ClientStage.obj
 0001:000008c0       ??$copy_s@U?$char_traits@D@std@@@_Traits_helper@std@@YAPADPADIPBDIU_Secure_char_traits_tag@1@@Z 100018c0 f i ClientStage.obj
 0001:000008f0       ??$move_s@U?$char_traits@D@std@@@_Traits_helper@std@@YAPADPADIPBDIU_Secure_char_traits_tag@1@@Z 100018f0 f i ClientStage.obj
 0001:00000920       ??_ECGameClient@@WM@AEPAXI@Z 10001920 f i ClientStage.obj
 0001:00000930       ??_ECGameClient@@W3AEPAXI@Z 10001930 f i ClientStage.obj
 0001:00000940       ??0CGameClient@@QAE@IIII@Z 10001940 f   ClientStage.obj
 0001:00000a10       ??_ECGameClient@@UAEPAXI@Z 10001a10 f i ClientStage.obj
 0001:00000a10       ??_GCGameClient@@UAEPAXI@Z 10001a10 f i ClientStage.obj
 0001:00000a30       ??0CClientFactory@@QAE@XZ  10001a30 f   ClientStage.obj
 0001:00000a50       ??_GCClientFactory@@UAEPAXI@Z 10001a50 f i ClientStage.obj
 0001:00000a50       ??_ECClientFactory@@UAEPAXI@Z 10001a50 f i ClientStage.obj
 0001:00000a70       ?CreateClientInterface@CClientFactory@@UAGJABU_GUID@@PAPAX@Z 10001a70 f   ClientStage.obj
 0001:00000b40       ??0?$_String_val@DV?$allocator@D@std@@@std@@IAE@V?$allocator@D@1@@Z 10001b40 f i ClientStage.obj
 0001:00000b50       ??0?$_String_val@DV?$allocator@D@std@@@std@@QAE@ABV01@@Z 10001b50 f i ClientStage.obj
 0001:00000b60       ?_Eos@?$basic_string@DU?$char_traits@D@std@@V?$allocator@D@2@@std@@IAEXI@Z 10001b60 f i ClientStage.obj
 0001:00000b80       ?max_size@?$basic_string@DU?$char_traits@D@std@@V?$allocator@D@2@@std@@QBEIXZ 10001b80 f i ClientStage.obj
 0001:00000b90       ?allocate@?$allocator@D@std@@QAEPADI@Z 10001b90 f i ClientStage.obj
 0001:00000bb0       ??$copy_s@U?$char_traits@D@std@@@_Traits_helper@std@@YAPADPADIPBDI@Z 10001bb0 f i ClientStage.obj
 0001:00000be0       ??$move_s@U?$char_traits@D@std@@@_Traits_helper@std@@YAPADPADIPBDI@Z 10001be0 f i ClientStage.obj
 0001:00000c10       _CreateInterface@8         10001c10 f   ClientStage.obj
 0001:00000c70       ?_Tidy@?$basic_string@DU?$char_traits@D@std@@V?$allocator@D@2@@std@@IAEX_NI@Z 10001c70 f i ClientStage.obj
 0001:00000cc0       ?erase@?$basic_string@DU?$char_traits@D@std@@V?$allocator@D@2@@std@@QAEAAV12@II@Z 10001cc0 f i ClientStage.obj
 0001:00000d50       ?_Copy@?$basic_string@DU?$char_traits@D@std@@V?$allocator@D@2@@std@@IAEXII@Z 10001d50 f i ClientStage.obj
 0001:00000ea0       ??1?$basic_string@DU?$char_traits@D@std@@V?$allocator@D@2@@std@@QAE@XZ 10001ea0 f i ClientStage.obj
 0001:00000ed0       ?_Grow@?$basic_string@DU?$char_traits@D@std@@V?$allocator@D@2@@std@@IAE_NI_N@Z 10001ed0 f i ClientStage.obj
 0001:00000f90       ?append@?$basic_string@DU?$char_traits@D@std@@V?$allocator@D@2@@std@@QAEAAV12@ABV12@II@Z 10001f90 f i ClientStage.obj
 0001:00001090       ?append@?$basic_string@DU?$char_traits@D@std@@V?$allocator@D@2@@std@@QAEAAV12@PBDI@Z 10002090 f i ClientStage.obj
 0001:00001180       ?assign@?$basic_string@DU?$char_traits@D@std@@V?$allocator@D@2@@std@@QAEAAV12@ABV12@II@Z 10002180 f i ClientStage.obj
 0001:00001260       ?assign@?$basic_string@DU?$char_traits@D@std@@V?$allocator@D@2@@std@@QAEAAV12@PBDI@Z 10002260 f i ClientStage.obj
 0001:00001330       ?append@?$basic_string@DU?$char_traits@D@std@@V?$allocator@D@2@@std@@QAEAAV12@ABV12@@Z 10002330 f i ClientStage.obj
 0001:00001350       ?append@?$basic_string@DU?$char_traits@D@std@@V?$allocator@D@2@@std@@QAEAAV12@PBD@Z 10002350 f i ClientStage.obj
 0001:00001380       ??0?$basic_string@DU?$char_traits@D@std@@V?$allocator@D@2@@std@@QAE@ABV01@@Z 10002380 f i ClientStage.obj
 0001:000013b0       ?assign@?$basic_string@DU?$char_traits@D@std@@V?$allocator@D@2@@std@@QAEAAV12@PBD@Z 100023b0 f i ClientStage.obj
 0001:000013e0       ??Y?$basic_string@DU?$char_traits@D@std@@V?$allocator@D@2@@std@@QAEAAV01@ABV01@@Z 100023e0 f i ClientStage.obj
 0001:00001400       ??Y?$basic_string@DU?$char_traits@D@std@@V?$allocator@D@2@@std@@QAEAAV01@PBD@Z 10002400 f i ClientStage.obj
 0001:00001430       ??0?$basic_string@DU?$char_traits@D@std@@V?$allocator@D@2@@std@@QAE@PBD@Z 10002430 f i ClientStage.obj
 0001:00001470       ??$?HDU?$char_traits@D@std@@V?$allocator@D@1@@std@@YA?AV?$basic_string@DU?$char_traits@D@std@@V?$allocator@D@2@@0@PBDABV10@@Z 10002470 f i ClientStage.obj
 0001:00001530       ??$?HDU?$char_traits@D@std@@V?$allocator@D@1@@std@@YA?AV?$basic_string@DU?$char_traits@D@std@@V?$allocator@D@2@@0@ABV10@PBD@Z 10002530 f i ClientStage.obj
 0001:000015f0       ??$?HDU?$char_traits@D@std@@V?$allocator@D@1@@std@@YA?AV?$basic_string@DU?$char_traits@D@std@@V?$allocator@D@2@@0@ABV10@0@Z 100025f0 f i ClientStage.obj
 0001:000016a0       ?Startup@CGameClient@@UAGJXZ 100026a0 f   ClientStage.obj
 0001:000017d0       ?Cleanup@CGameClient@@UAGJXZ 100027d0 f   ClientStage.obj
 0001:00001900       ?ConnectTo@CGameClient@@UAGJABQBDG@Z 10002900 f   ClientStage.obj
 0001:00001a90       ?ProcessDataStream@CGameClient@@IAEPAVCIOBuffer@Win32@OnlineGameLib@@PAV234@@Z 10002a90 f   ClientStage.obj
 0001:00001c40       ?ReadCompleted@CGameClient@@EAEXPAVCIOBuffer@Win32@OnlineGameLib@@@Z 10002c40 f   ClientStage.obj
 0001:00001dc0       ?GetPackFromServer@CGameClient@@UAGPBXAAI@Z 10002dc0 f   ClientStage.obj
 0001:00001e50       _EnterCriticalSection@4    10002e50 f   kernel32:KERNEL32.dll
 0001:00001e56       _LeaveCriticalSection@4    10002e56 f   kernel32:KERNEL32.dll
 0001:00001e5c       _InitializeCriticalSection@4 10002e5c f   kernel32:KERNEL32.dll
 0001:00001e62       _DeleteCriticalSection@4   10002e62 f   kernel32:KERNEL32.dll
 0001:00001e68       _InterlockedIncrement@4    10002e68 f   kernel32:KERNEL32.dll
 0001:00001e6e       _InterlockedDecrement@4    10002e6e f   kernel32:KERNEL32.dll
 0001:00001e80       ?KSG_DecodeEncode@@YAHIPAEPAI@Z 10002e80 f   common:KSG_EncodeDecode.obj
 0001:00001ee0       ?KSG_DecodeEncode_ASM@@YAHIPAEPAI@Z 10002ee0 f   common:KSG_EncodeDecode.obj
 0001:00001f40       ?_trace@@YAXPBDZZ          10002f40 f i common:SocketClient.obj
 0001:00001f50       ?GetWSABUF@CIOBuffer@Win32@OnlineGameLib@@QBEPAU_WSABUF@@XZ 10002f50 f i common:SocketClient.obj
 0001:00001f60       ?Use@CIOBuffer@Win32@OnlineGameLib@@QAEXI@Z 10002f60 f i common:SocketClient.obj
 0001:00001f70       ?SetupRead@CIOBuffer@Win32@OnlineGameLib@@QAEXXZ 10002f70 f i common:SocketClient.obj
 0001:00001fa0       ?SetupWrite@CIOBuffer@Win32@OnlineGameLib@@QAEXXZ 10002fa0 f i common:SocketClient.obj
 0001:00001fc0       ?GetEvent@CEvent@Win32@OnlineGameLib@@QBEPAXXZ 10002fc0 f i common:SocketClient.obj
 0001:00001fd0       ?IsError@CEventSelect@Win32@OnlineGameLib@@QAE_NXZ 10002fd0 f i common:SocketClient.obj
 0001:00001fe0       ?WaitForEnumEvent@CEventSelect@Win32@OnlineGameLib@@QAE_NIK@Z 10002fe0 f i common:SocketClient.obj
 0001:00002040       ?Read@CEventSelect@Win32@OnlineGameLib@@QAEHXZ 10003040 f i common:SocketClient.obj
 0001:00002060       ?Connect@CEventSelect@Win32@OnlineGameLib@@QAEHXZ 10003060 f i common:SocketClient.obj
 0001:00002080       ?Close@CEventSelect@Win32@OnlineGameLib@@QAEHXZ 10003080 f i common:SocketClient.obj
 0001:000020a0       ??1CManualResetEvent@Win32@OnlineGameLib@@UAE@XZ 100030a0 f i common:SocketClient.obj
 0001:000020b0       ?ReleaseBuffers@CSocketClient@Win32@OnlineGameLib@@IAEXXZ 100030b0 f   common:SocketClient.obj
 0001:000020c0       ?OnError@CSocketClient@Win32@OnlineGameLib@@EAEXABV?$basic_string@DU?$char_traits@D@std@@V?$allocator@D@2@@std@@@Z 100030c0 f   common:SocketClient.obj
 0001:000020d0       ??0?$basic_string@DU?$char_traits@D@std@@V?$allocator@D@2@@std@@QAE@XZ 100030d0 f i common:SocketClient.obj
 0001:000020f0       ??0CSocketClient@Win32@OnlineGameLib@@IAE@II@Z 100030f0 f   common:SocketClient.obj
 0001:000021d0       ?OnStartConnections@CSocketClient@Win32@OnlineGameLib@@EAEXXZ 100031d0 f i common:SocketClient.obj
 0001:000021e0       ?OnStopConnections@CSocketClient@Win32@OnlineGameLib@@EAEXXZ 100031e0 f i common:SocketClient.obj
 0001:000021f0       ??_ECSocketClient@Win32@OnlineGameLib@@W7AEPAXI@Z 100031f0 f i common:SocketClient.obj
 0001:00002200       ?assign@?$basic_string@DU?$char_traits@D@std@@V?$allocator@D@2@@std@@QAEAAV12@ABV12@@Z 10003200 f i common:SocketClient.obj
 0001:00002220       ??0CSocketClient@Win32@OnlineGameLib@@IAE@ABV?$basic_string@DU?$char_traits@D@std@@V?$allocator@D@2@@std@@GII@Z 10003220 f   common:SocketClient.obj
 0001:00002320       ??4?$basic_string@DU?$char_traits@D@std@@V?$allocator@D@2@@std@@QAEAAV01@ABV01@@Z 10003320 f i common:SocketClient.obj
 0001:00002340       ?Connect@CSocketClient@Win32@OnlineGameLib@@QAEXABV?$basic_string@DU?$char_traits@D@std@@V?$allocator@D@2@@std@@G@Z 10003340 f   common:SocketClient.obj
 0001:00002370       ?StopConnections@CSocketClient@Win32@OnlineGameLib@@QAEXXZ 10003370 f   common:SocketClient.obj
 0001:00002530       ?CreateConnectionSocket@CSocketClient@Win32@OnlineGameLib@@EAEIABV?$basic_string@DU?$char_traits@D@std@@V?$allocator@D@2@@std@@G@Z 10003530 f   common:SocketClient.obj
 0001:00002650       ??1CException@Win32@OnlineGameLib@@UAE@XZ 10003650 f i common:SocketClient.obj
 0001:000026a0       ??_GCException@Win32@OnlineGameLib@@UAEPAXI@Z 100036a0 f i common:SocketClient.obj
 0001:000026a0       ??_ECException@Win32@OnlineGameLib@@UAEPAXI@Z 100036a0 f i common:SocketClient.obj
 0001:000026c0       ??1CWin32Exception@Win32@OnlineGameLib@@UAE@XZ 100036c0 f i common:SocketClient.obj
 0001:000026d0       ??0CException@Win32@OnlineGameLib@@QAE@ABV012@@Z 100036d0 f i common:SocketClient.obj
 0001:00002760       ??0CWin32Exception@Win32@OnlineGameLib@@QAE@ABV012@@Z 10003760 f i common:SocketClient.obj
 0001:00002790       ??_GCWin32Exception@Win32@OnlineGameLib@@UAEPAXI@Z 10003790 f i common:SocketClient.obj
 0001:00002790       ??_ECWin32Exception@Win32@OnlineGameLib@@UAEPAXI@Z 10003790 f i common:SocketClient.obj
 0001:000027b0       ?InitiateShutdown@CSocketClient@Win32@OnlineGameLib@@QAEXXZ 100037b0 f   common:SocketClient.obj
 0001:000027d0       ?WaitForShutdownToComplete@CSocketClient@Win32@OnlineGameLib@@QAEXXZ 100037d0 f   common:SocketClient.obj
 0001:000027e0       ?OnRead@CSocketClient@Win32@OnlineGameLib@@AAEXPAVCIOBuffer@23@@Z 100037e0 f   common:SocketClient.obj
 0001:00002930       ?Write@CSocketClient@Win32@OnlineGameLib@@QAEXPAVCIOBuffer@23@@Z 10003930 f   common:SocketClient.obj
 0001:00002bf0       ?WaitAndVerifyCipher@CSocketClient@Win32@OnlineGameLib@@IAE_NXZ 10003bf0 f   common:SocketClient.obj
 0001:00002df0       ??1CSocketClient@Win32@OnlineGameLib@@UAE@XZ 10003df0 f   common:SocketClient.obj
 0001:00002f00       ?StartConnections@CSocketClient@Win32@OnlineGameLib@@QAE_NXZ 10003f00 f   common:SocketClient.obj
 0001:00002fd0       ?Run@CSocketClient@Win32@OnlineGameLib@@MAEHXZ 10003fd0 f   common:SocketClient.obj
 0001:00003320       ?Write@CSocketClient@Win32@OnlineGameLib@@QAEXPBDI@Z 10004320 f   common:SocketClient.obj
 0001:00003370       ??_ECSocketClient@Win32@OnlineGameLib@@UAEPAXI@Z 10004370 f i common:SocketClient.obj
 0001:00003370       ??_GCSocketClient@Win32@OnlineGameLib@@UAEPAXI@Z 10004370 f i common:SocketClient.obj
 0001:00003390       ??2@YAPAXIPAX@Z            10004390 f i common:IOBuffer.obj
 0001:000033a0       ??3@YAXPAX0@Z              100043a0 f i common:IOBuffer.obj
 0001:000033b0       ??0_Iterator_base@std@@QAE@XZ 100043b0 f i common:IOBuffer.obj
 0001:000033c0       ?Count@CNodeList@OnlineGameLib@@QBEIXZ 100043c0 f i common:IOBuffer.obj
 0001:000033d0       ?Empty@CNodeList@OnlineGameLib@@QBE_NXZ 100043d0 f i common:IOBuffer.obj
 0001:000033e0       ??0COpaqueUserData@OnlineGameLib@@IAE@XZ 100043e0 f i common:IOBuffer.obj
 0001:000033f0       ??1COpaqueUserData@OnlineGameLib@@IAE@XZ 100043f0 f i common:IOBuffer.obj
 0001:00003400       ?AddRef@CIOBuffer@Win32@OnlineGameLib@@QAEXXZ 10004400 f i common:IOBuffer.obj
 0001:00003410       ?GetSequenceNumber@CIOBuffer@Win32@OnlineGameLib@@QBEIXZ 10004410 f i common:IOBuffer.obj
 0001:00003420       ??1CIOBuffer@Win32@OnlineGameLib@@AAE@XZ 10004420 f   common:IOBuffer.obj
 0001:00003450       ?Empty@CIOBuffer@Win32@OnlineGameLib@@QAEXXZ 10004450 f   common:IOBuffer.obj
 0001:00003470       ??2CIOBuffer@Win32@OnlineGameLib@@CAPAXII@Z 10004470 f   common:IOBuffer.obj
 0001:00003480       ??3CIOBuffer@Win32@OnlineGameLib@@CAXPAXI@Z 10004480 f   common:IOBuffer.obj
 0001:00003490       ?RemoveBuffer@CIOBuffer@Win32@OnlineGameLib@@QAEXI@Z 10004490 f   common:IOBuffer.obj
 0001:000034c0       ??0?$TNodeList@VCIOBuffer@Win32@OnlineGameLib@@@OnlineGameLib@@QAE@XZ 100044c0 f i common:IOBuffer.obj
 0001:000034d0       ??_GCIOBuffer@Win32@OnlineGameLib@@AAEPAXI@Z 100044d0 f i common:IOBuffer.obj
 0001:000034f0       ?ProcessBuffer@InOrderBufferList@CIOBuffer@Win32@OnlineGameLib@@QAEXXZ 100044f0 f   common:IOBuffer.obj
 0001:00003510       ??0?$pair@$$CBIPAVCIOBuffer@Win32@OnlineGameLib@@@std@@QAE@ABIABQAVCIOBuffer@Win32@OnlineGameLib@@@Z 10004510 f i common:IOBuffer.obj
 0001:00003530       ?_Color@?$_Tree@V?$_Tmap_traits@IPAVCIOBuffer@Win32@OnlineGameLib@@U?$less@I@std@@V?$allocator@U?$pair@$$CBIPAVCIOBuffer@Win32@OnlineGameLib@@@std@@@5@$0A@@std@@@std@@KAAADPAU_Node@?$_Tree_nod@V?$_Tmap_traits@IPAVCIOBuffer@Win32@OnlineGameLib@@U?$less@I@std@@V?$allocator@U?$pair@$$CBIPAVCIOBuffer@Win32@OnlineGameLib@@@std@@@5@$0A@@std@@@2@@Z 10004530 f i common:IOBuffer.obj
 0001:00003540       ?_Isnil@?$_Tree@V?$_Tmap_traits@IPAVCIOBuffer@Win32@OnlineGameLib@@U?$less@I@std@@V?$allocator@U?$pair@$$CBIPAVCIOBuffer@Win32@OnlineGameLib@@@std@@@5@$0A@@std@@@std@@KAAADPAU_Node@?$_Tree_nod@V?$_Tmap_traits@IPAVCIOBuffer@Win32@OnlineGameLib@@U?$less@I@std@@V?$allocator@U?$pair@$$CBIPAVCIOBuffer@Win32@OnlineGameLib@@@std@@@5@$0A@@std@@@2@@Z 10004540 f i common:IOBuffer.obj
 0001:00003550       ?_Left@?$_Tree@V?$_Tmap_traits@IPAVCIOBuffer@Win32@OnlineGameLib@@U?$less@I@std@@V?$allocator@U?$pair@$$CBIPAVCIOBuffer@Win32@OnlineGameLib@@@std@@@5@$0A@@std@@@std@@KAAAPAU_Node@?$_Tree_nod@V?$_Tmap_traits@IPAVCIOBuffer@Win32@OnlineGameLib@@U?$less@I@std@@V?$allocator@U?$pair@$$CBIPAVCIOBuffer@Win32@OnlineGameLib@@@std@@@5@$0A@@std@@@2@PAU342@@Z 10004550 f i common:IOBuffer.obj
 0001:00003560       ?_Parent@?$_Tree@V?$_Tmap_traits@IPAVCIOBuffer@Win32@OnlineGameLib@@U?$less@I@std@@V?$allocator@U?$pair@$$CBIPAVCIOBuffer@Win32@OnlineGameLib@@@std@@@5@$0A@@std@@@std@@KAAAPAU_Node@?$_Tree_nod@V?$_Tmap_traits@IPAVCIOBuffer@Win32@OnlineGameLib@@U?$less@I@std@@V?$allocator@U?$pair@$$CBIPAVCIOBuffer@Win32@OnlineGameLib@@@std@@@5@$0A@@std@@@2@PAU342@@Z 10004560 f i common:IOBuffer.obj
 0001:00003570       ?_Right@?$_Tree@V?$_Tmap_traits@IPAVCIOBuffer@Win32@OnlineGameLib@@U?$less@I@std@@V?$allocator@U?$pair@$$CBIPAVCIOBuffer@Win32@OnlineGameLib@@@std@@@5@$0A@@std@@@std@@KAAAPAU_Node@?$_Tree_nod@V?$_Tmap_traits@IPAVCIOBuffer@Win32@OnlineGameLib@@U?$less@I@std@@V?$allocator@U?$pair@$$CBIPAVCIOBuffer@Win32@OnlineGameLib@@@std@@@5@$0A@@std@@@2@PAU342@@Z 10004570 f i common:IOBuffer.obj
 0001:00003580       ?size@?$_Tree@V?$_Tmap_traits@IPAVCIOBuffer@Win32@OnlineGameLib@@U?$less@I@std@@V?$allocator@U?$pair@$$CBIPAVCIOBuffer@Win32@OnlineGameLib@@@std@@@5@$0A@@std@@@std@@QBEIXZ 10004580 f i common:IOBuffer.obj
 0001:00003590       ?_Lmost@?$_Tree@V?$_Tmap_traits@IPAVCIOBuffer@Win32@OnlineGameLib@@U?$less@I@std@@V?$allocator@U?$pair@$$CBIPAVCIOBuffer@Win32@OnlineGameLib@@@std@@@5@$0A@@std@@@std@@IBEAAPAU_Node@?$_Tree_nod@V?$_Tmap_traits@IPAVCIOBuffer@Win32@OnlineGameLib@@U?$less@I@std@@V?$allocator@U?$pair@$$CBIPAVCIOBuffer@Win32@OnlineGameLib@@@std@@@5@$0A@@std@@@2@XZ 10004590 f i common:IOBuffer.obj
 0001:000035a0       ?_Max@?$_Tree@V?$_Tmap_traits@IPAVCIOBuffer@Win32@OnlineGameLib@@U?$less@I@std@@V?$allocator@U?$pair@$$CBIPAVCIOBuffer@Win32@OnlineGameLib@@@std@@@5@$0A@@std@@@std@@KAPAU_Node@?$_Tree_nod@V?$_Tmap_traits@IPAVCIOBuffer@Win32@OnlineGameLib@@U?$less@I@std@@V?$allocator@U?$pair@$$CBIPAVCIOBuffer@Win32@OnlineGameLib@@@std@@@5@$0A@@std@@@2@PAU342@@Z 100045a0 f i common:IOBuffer.obj
 0001:000035c0       ?_Min@?$_Tree@V?$_Tmap_traits@IPAVCIOBuffer@Win32@OnlineGameLib@@U?$less@I@std@@V?$allocator@U?$pair@$$CBIPAVCIOBuffer@Win32@OnlineGameLib@@@std@@@5@$0A@@std@@@std@@KAPAU_Node@?$_Tree_nod@V?$_Tmap_traits@IPAVCIOBuffer@Win32@OnlineGameLib@@U?$less@I@std@@V?$allocator@U?$pair@$$CBIPAVCIOBuffer@Win32@OnlineGameLib@@@std@@@5@$0A@@std@@@2@PAU342@@Z 100045c0 f i common:IOBuffer.obj
 0001:000035e0       ?_Rmost@?$_Tree@V?$_Tmap_traits@IPAVCIOBuffer@Win32@OnlineGameLib@@U?$less@I@std@@V?$allocator@U?$pair@$$CBIPAVCIOBuffer@Win32@OnlineGameLib@@@std@@@5@$0A@@std@@@std@@IBEAAPAU_Node@?$_Tree_nod@V?$_Tmap_traits@IPAVCIOBuffer@Win32@OnlineGameLib@@U?$less@I@std@@V?$allocator@U?$pair@$$CBIPAVCIOBuffer@Win32@OnlineGameLib@@@std@@@5@$0A@@std@@@2@XZ 100045e0 f i common:IOBuffer.obj
 0001:000035f0       ?_Root@?$_Tree@V?$_Tmap_traits@IPAVCIOBuffer@Win32@OnlineGameLib@@U?$less@I@std@@V?$allocator@U?$pair@$$CBIPAVCIOBuffer@Win32@OnlineGameLib@@@std@@@5@$0A@@std@@@std@@IBEAAPAU_Node@?$_Tree_nod@V?$_Tmap_traits@IPAVCIOBuffer@Win32@OnlineGameLib@@U?$less@I@std@@V?$allocator@U?$pair@$$CBIPAVCIOBuffer@Win32@OnlineGameLib@@@std@@@5@$0A@@std@@@2@XZ 100045f0 f i common:IOBuffer.obj
 0001:00003600       ?_Rrotate@?$_Tree@V?$_Tmap_traits@IPAVCIOBuffer@Win32@OnlineGameLib@@U?$less@I@std@@V?$allocator@U?$pair@$$CBIPAVCIOBuffer@Win32@OnlineGameLib@@@std@@@5@$0A@@std@@@std@@IAEXPAU_Node@?$_Tree_nod@V?$_Tmap_traits@IPAVCIOBuffer@Win32@OnlineGameLib@@U?$less@I@std@@V?$allocator@U?$pair@$$CBIPAVCIOBuffer@Win32@OnlineGameLib@@@std@@@5@$0A@@std@@@2@@Z 10004600 f i common:IOBuffer.obj
 0001:00003660       ?_Kfn@?$_Tmap_traits@IPAVCIOBuffer@Win32@OnlineGameLib@@U?$less@I@std@@V?$allocator@U?$pair@$$CBIPAVCIOBuffer@Win32@OnlineGameLib@@@std@@@5@$0A@@std@@SAABIABU?$pair@$$CBIPAVCIOBuffer@Win32@OnlineGameLib@@@2@@Z 10004660 f i common:IOBuffer.obj
 0001:00003670       ??0?$allocator@U?$pair@$$CBIPAVCIOBuffer@Win32@OnlineGameLib@@@std@@@std@@QAE@XZ 10004670 f i common:IOBuffer.obj
 0001:00003680       ??R?$less@I@std@@QBE_NABI0@Z 10004680 f i common:IOBuffer.obj
 0001:000036a0       ?deallocate@?$allocator@U_Node@?$_Tree_nod@V?$_Tmap_traits@IPAVCIOBuffer@Win32@OnlineGameLib@@U?$less@I@std@@V?$allocator@U?$pair@$$CBIPAVCIOBuffer@Win32@OnlineGameLib@@@std@@@5@$0A@@std@@@std@@@std@@QAEXPAU_Node@?$_Tree_nod@V?$_Tmap_traits@IPAVCIOBuffer@Win32@OnlineGameLib@@U?$less@I@std@@V?$allocator@U?$pair@$$CBIPAVCIOBuffer@Win32@OnlineGameLib@@@std@@@5@$0A@@std@@@2@I@Z 100046a0 f i common:IOBuffer.obj
 0001:000036b0       ??0?$pair@Viterator@?$_Tree@V?$_Tmap_traits@IPAVCIOBuffer@Win32@OnlineGameLib@@U?$less@I@std@@V?$allocator@U?$pair@$$CBIPAVCIOBuffer@Win32@OnlineGameLib@@@std@@@5@$0A@@std@@@std@@_N@std@@QAE@ABViterator@?$_Tree@V?$_Tmap_traits@IPAVCIOBuffer@Win32@OnlineGameLib@@U?$less@I@std@@V?$allocator@U?$pair@$$CBIPAVCIOBuffer@Win32@OnlineGameLib@@@std@@@5@$0A@@std@@@1@AB_N@Z 100046b0 f i common:IOBuffer.obj
 0001:000036d0       ??8const_iterator@?$_Tree@V?$_Tmap_traits@IPAVCIOBuffer@Win32@OnlineGameLib@@U?$less@I@std@@V?$allocator@U?$pair@$$CBIPAVCIOBuffer@Win32@OnlineGameLib@@@std@@@5@$0A@@std@@@std@@QBE_NABV012@@Z 100046d0 f i common:IOBuffer.obj
 0001:00003700       ?_Mynode@const_iterator@?$_Tree@V?$_Tmap_traits@IPAVCIOBuffer@Win32@OnlineGameLib@@U?$less@I@std@@V?$allocator@U?$pair@$$CBIPAVCIOBuffer@Win32@OnlineGameLib@@@std@@@5@$0A@@std@@@std@@QBEPAU_Node@?$_Tree_nod@V?$_Tmap_traits@IPAVCIOBuffer@Win32@OnlineGameLib@@U?$less@I@std@@V?$allocator@U?$pair@$$CBIPAVCIOBuffer@Win32@OnlineGameLib@@@std@@@5@$0A@@std@@@3@XZ 10004700 f i common:IOBuffer.obj
 0001:00003710       ??0?$_Bidit@U?$pair@$$CBIPAVCIOBuffer@Win32@OnlineGameLib@@@std@@HPBU12@ABU12@@std@@QAE@XZ 10004710 f i common:IOBuffer.obj
 0001:00003720       ?_Myval@?$_Tree@V?$_Tmap_traits@IPAVCIOBuffer@Win32@OnlineGameLib@@U?$less@I@std@@V?$allocator@U?$pair@$$CBIPAVCIOBuffer@Win32@OnlineGameLib@@@std@@@5@$0A@@std@@@std@@KAAAU?$pair@$$CBIPAVCIOBuffer@Win32@OnlineGameLib@@@2@PAU_Node@?$_Tree_nod@V?$_Tmap_traits@IPAVCIOBuffer@Win32@OnlineGameLib@@U?$less@I@std@@V?$allocator@U?$pair@$$CBIPAVCIOBuffer@Win32@OnlineGameLib@@@std@@@5@$0A@@std@@@2@@Z 10004720 f i common:IOBuffer.obj
 0001:00003730       ??0?$allocator@U?$pair@$$CBIPAVCIOBuffer@Win32@OnlineGameLib@@@std@@@std@@QAE@ABV01@@Z 10004730 f i common:IOBuffer.obj
 0001:00003740       ??0const_iterator@?$_Tree@V?$_Tmap_traits@IPAVCIOBuffer@Win32@OnlineGameLib@@U?$less@I@std@@V?$allocator@U?$pair@$$CBIPAVCIOBuffer@Win32@OnlineGameLib@@@std@@@5@$0A@@std@@@std@@QAE@PAU_Node@?$_Tree_nod@V?$_Tmap_traits@IPAVCIOBuffer@Win32@OnlineGameLib@@U?$less@I@std@@V?$allocator@U?$pair@$$CBIPAVCIOBuffer@Win32@OnlineGameLib@@@std@@@5@$0A@@std@@@2@PBV12@@Z 10004740 f i common:IOBuffer.obj
 0001:00003770       ??Dconst_iterator@?$_Tree@V?$_Tmap_traits@IPAVCIOBuffer@Win32@OnlineGameLib@@U?$less@I@std@@V?$allocator@U?$pair@$$CBIPAVCIOBuffer@Win32@OnlineGameLib@@@std@@@5@$0A@@std@@@std@@QBEABU?$pair@$$CBIPAVCIOBuffer@Win32@OnlineGameLib@@@2@XZ 10004770 f i common:IOBuffer.obj
 0001:000037a0       ?max_size@?$allocator@U?$pair@$$CBIPAVCIOBuffer@Win32@OnlineGameLib@@@std@@@std@@QBEIXZ 100047a0 f i common:IOBuffer.obj
 0001:000037b0       ?_Dec@const_iterator@?$_Tree@V?$_Tmap_traits@IPAVCIOBuffer@Win32@OnlineGameLib@@U?$less@I@std@@V?$allocator@U?$pair@$$CBIPAVCIOBuffer@Win32@OnlineGameLib@@@std@@@5@$0A@@std@@@std@@QAEXXZ 100047b0 f i common:IOBuffer.obj
 0001:00003840       ?_Inc@const_iterator@?$_Tree@V?$_Tmap_traits@IPAVCIOBuffer@Win32@OnlineGameLib@@U?$less@I@std@@V?$allocator@U?$pair@$$CBIPAVCIOBuffer@Win32@OnlineGameLib@@@std@@@5@$0A@@std@@@std@@QAEXXZ 10004840 f i common:IOBuffer.obj
 0001:000038b0       ??0_Node@?$_Tree_nod@V?$_Tmap_traits@IPAVCIOBuffer@Win32@OnlineGameLib@@U?$less@I@std@@V?$allocator@U?$pair@$$CBIPAVCIOBuffer@Win32@OnlineGameLib@@@std@@@5@$0A@@std@@@std@@QAE@PAU012@00ABU?$pair@$$CBIPAVCIOBuffer@Win32@OnlineGameLib@@@2@D@Z 100048b0 f i common:IOBuffer.obj
 0001:000038f0       ??0?$_Tmap_traits@IPAVCIOBuffer@Win32@OnlineGameLib@@U?$less@I@std@@V?$allocator@U?$pair@$$CBIPAVCIOBuffer@Win32@OnlineGameLib@@@std@@@5@$0A@@std@@QAE@U?$less@I@1@@Z 100048f0 f i common:IOBuffer.obj
 0001:00003900       ?PopNode@?$TNodeList@VCIOBuffer@Win32@OnlineGameLib@@@OnlineGameLib@@QAEPAVCIOBuffer@Win32@2@XZ 10004900 f i common:IOBuffer.obj
 0001:00003910       ??$swap@D@std@@YAXAAD0@Z   10004910 f i common:IOBuffer.obj
 0001:00003930       ??$_Destroy@U_Node@?$_Tree_nod@V?$_Tmap_traits@IPAVCIOBuffer@Win32@OnlineGameLib@@U?$less@I@std@@V?$allocator@U?$pair@$$CBIPAVCIOBuffer@Win32@OnlineGameLib@@@std@@@5@$0A@@std@@@std@@@std@@YAXPAU_Node@?$_Tree_nod@V?$_Tmap_traits@IPAVCIOBuffer@Win32@OnlineGameLib@@U?$less@I@std@@V?$allocator@U?$pair@$$CBIPAVCIOBuffer@Win32@OnlineGameLib@@@std@@@5@$0A@@std@@@0@@Z 10004930 f i common:IOBuffer.obj
 0001:00003940       ??$_Destroy@PAU_Node@?$_Tree_nod@V?$_Tmap_traits@IPAVCIOBuffer@Win32@OnlineGameLib@@U?$less@I@std@@V?$allocator@U?$pair@$$CBIPAVCIOBuffer@Win32@OnlineGameLib@@@std@@@5@$0A@@std@@@std@@@std@@YAXPAPAU_Node@?$_Tree_nod@V?$_Tmap_traits@IPAVCIOBuffer@Win32@OnlineGameLib@@U?$less@I@std@@V?$allocator@U?$pair@$$CBIPAVCIOBuffer@Win32@OnlineGameLib@@@std@@@5@$0A@@std@@@0@@Z 10004940 f i common:IOBuffer.obj
 0001:00003950       ??$?0U?$pair@$$CBIPAVCIOBuffer@Win32@OnlineGameLib@@@std@@@?$allocator@PAU_Node@?$_Tree_nod@V?$_Tmap_traits@IPAVCIOBuffer@Win32@OnlineGameLib@@U?$less@I@std@@V?$allocator@U?$pair@$$CBIPAVCIOBuffer@Win32@OnlineGameLib@@@std@@@5@$0A@@std@@@std@@@std@@QAE@ABV?$allocator@U?$pair@$$CBIPAVCIOBuffer@Win32@OnlineGameLib@@@std@@@1@@Z 10004950 f i common:IOBuffer.obj
 0001:00003960       ??$_Allocate@U_Node@?$_Tree_nod@V?$_Tmap_traits@IPAVCIOBuffer@Win32@OnlineGameLib@@U?$less@I@std@@V?$allocator@U?$pair@$$CBIPAVCIOBuffer@Win32@OnlineGameLib@@@std@@@5@$0A@@std@@@std@@@std@@YAPAU_Node@?$_Tree_nod@V?$_Tmap_traits@IPAVCIOBuffer@Win32@OnlineGameLib@@U?$less@I@std@@V?$allocator@U?$pair@$$CBIPAVCIOBuffer@Win32@OnlineGameLib@@@std@@@5@$0A@@std@@@0@IPAU120@@Z 10004960 f i common:IOBuffer.obj
 0001:000039c0       ??$?0U?$pair@$$CBIPAVCIOBuffer@Win32@OnlineGameLib@@@std@@@?$allocator@U_Node@?$_Tree_nod@V?$_Tmap_traits@IPAVCIOBuffer@Win32@OnlineGameLib@@U?$less@I@std@@V?$allocator@U?$pair@$$CBIPAVCIOBuffer@Win32@OnlineGameLib@@@std@@@5@$0A@@std@@@std@@@std@@QAE@ABV?$allocator@U?$pair@$$CBIPAVCIOBuffer@Win32@OnlineGameLib@@@std@@@1@@Z 100049c0 f i common:IOBuffer.obj
 0001:000039d0       ??$_Construct@PAU_Node@?$_Tree_nod@V?$_Tmap_traits@IPAVCIOBuffer@Win32@OnlineGameLib@@U?$less@I@std@@V?$allocator@U?$pair@$$CBIPAVCIOBuffer@Win32@OnlineGameLib@@@std@@@5@$0A@@std@@@std@@PAU123@@std@@YAXPAPAU_Node@?$_Tree_nod@V?$_Tmap_traits@IPAVCIOBuffer@Win32@OnlineGameLib@@U?$less@I@std@@V?$allocator@U?$pair@$$CBIPAVCIOBuffer@Win32@OnlineGameLib@@@std@@@5@$0A@@std@@@0@ABQAU120@@Z 100049d0 f i common:IOBuffer.obj
 0001:000039f0       ??0CIOBuffer@Win32@OnlineGameLib@@AAE@AAVAllocator@012@I@Z 100049f0 f   common:IOBuffer.obj
 0001:00003a90       ??0Allocator@CIOBuffer@Win32@OnlineGameLib@@QAE@II@Z 10004a90 f   common:IOBuffer.obj
 0001:00003ad0       ?DestroyBuffer@Allocator@CIOBuffer@Win32@OnlineGameLib@@AAEXPAV234@@Z 10004ad0 f   common:IOBuffer.obj
 0001:00003b40       ?Flush@Allocator@CIOBuffer@Win32@OnlineGameLib@@IAEXXZ 10004b40 f   common:IOBuffer.obj
 0001:00003be0       ?empty@?$_Tree@V?$_Tmap_traits@IPAVCIOBuffer@Win32@OnlineGameLib@@U?$less@I@std@@V?$allocator@U?$pair@$$CBIPAVCIOBuffer@Win32@OnlineGameLib@@@std@@@5@$0A@@std@@@std@@QBE_NXZ 10004be0 f i common:IOBuffer.obj
 0001:00003bf0       ??9const_iterator@?$_Tree@V?$_Tmap_traits@IPAVCIOBuffer@Win32@OnlineGameLib@@U?$less@I@std@@V?$allocator@U?$pair@$$CBIPAVCIOBuffer@Win32@OnlineGameLib@@@std@@@5@$0A@@std@@@std@@QBE_NABV012@@Z 10004bf0 f i common:IOBuffer.obj
 0001:00003c20       ?_Key@?$_Tree@V?$_Tmap_traits@IPAVCIOBuffer@Win32@OnlineGameLib@@U?$less@I@std@@V?$allocator@U?$pair@$$CBIPAVCIOBuffer@Win32@OnlineGameLib@@@std@@@5@$0A@@std@@@std@@KAABIPAU_Node@?$_Tree_nod@V?$_Tmap_traits@IPAVCIOBuffer@Win32@OnlineGameLib@@U?$less@I@std@@V?$allocator@U?$pair@$$CBIPAVCIOBuffer@Win32@OnlineGameLib@@@std@@@5@$0A@@std@@@2@@Z 10004c20 f i common:IOBuffer.obj
 0001:00003c30       ?_Lrotate@?$_Tree@V?$_Tmap_traits@IPAVCIOBuffer@Win32@OnlineGameLib@@U?$less@I@std@@V?$allocator@U?$pair@$$CBIPAVCIOBuffer@Win32@OnlineGameLib@@@std@@@5@$0A@@std@@@std@@IAEXPAU_Node@?$_Tree_nod@V?$_Tmap_traits@IPAVCIOBuffer@Win32@OnlineGameLib@@U?$less@I@std@@V?$allocator@U?$pair@$$CBIPAVCIOBuffer@Win32@OnlineGameLib@@@std@@@5@$0A@@std@@@2@@Z 10004c30 f i common:IOBuffer.obj
 0001:00003c80       ?destroy@?$allocator@U_Node@?$_Tree_nod@V?$_Tmap_traits@IPAVCIOBuffer@Win32@OnlineGameLib@@U?$less@I@std@@V?$allocator@U?$pair@$$CBIPAVCIOBuffer@Win32@OnlineGameLib@@@std@@@5@$0A@@std@@@std@@@std@@QAEXPAU_Node@?$_Tree_nod@V?$_Tmap_traits@IPAVCIOBuffer@Win32@OnlineGameLib@@U?$less@I@std@@V?$allocator@U?$pair@$$CBIPAVCIOBuffer@Win32@OnlineGameLib@@@std@@@5@$0A@@std@@@2@@Z 10004c80 f i common:IOBuffer.obj
 0001:00003c90       ??0iterator@?$_Tree@V?$_Tmap_traits@IPAVCIOBuffer@Win32@OnlineGameLib@@U?$less@I@std@@V?$allocator@U?$pair@$$CBIPAVCIOBuffer@Win32@OnlineGameLib@@@std@@@5@$0A@@std@@@std@@QAE@PAU_Node@?$_Tree_nod@V?$_Tmap_traits@IPAVCIOBuffer@Win32@OnlineGameLib@@U?$less@I@std@@V?$allocator@U?$pair@$$CBIPAVCIOBuffer@Win32@OnlineGameLib@@@std@@@5@$0A@@std@@@2@PBV12@@Z 10004c90 f i common:IOBuffer.obj
 0001:00003cc0       ??Diterator@?$_Tree@V?$_Tmap_traits@IPAVCIOBuffer@Win32@OnlineGameLib@@U?$less@I@std@@V?$allocator@U?$pair@$$CBIPAVCIOBuffer@Win32@OnlineGameLib@@@std@@@5@$0A@@std@@@std@@QBEAAU?$pair@$$CBIPAVCIOBuffer@Win32@OnlineGameLib@@@2@XZ 10004cc0 f i common:IOBuffer.obj
 0001:00003cf0       ??0const_iterator@?$_Tree@V?$_Tmap_traits@IPAVCIOBuffer@Win32@OnlineGameLib@@U?$less@I@std@@V?$allocator@U?$pair@$$CBIPAVCIOBuffer@Win32@OnlineGameLib@@@std@@@5@$0A@@std@@@std@@QAE@XZ 10004cf0 f i common:IOBuffer.obj
 0001:00003d00       ?max_size@?$_Tree@V?$_Tmap_traits@IPAVCIOBuffer@Win32@OnlineGameLib@@U?$less@I@std@@V?$allocator@U?$pair@$$CBIPAVCIOBuffer@Win32@OnlineGameLib@@@std@@@5@$0A@@std@@@std@@QBEIXZ 10004d00 f i common:IOBuffer.obj
 0001:00003d10       ?destroy@?$allocator@PAU_Node@?$_Tree_nod@V?$_Tmap_traits@IPAVCIOBuffer@Win32@OnlineGameLib@@U?$less@I@std@@V?$allocator@U?$pair@$$CBIPAVCIOBuffer@Win32@OnlineGameLib@@@std@@@5@$0A@@std@@@std@@@std@@QAEXPAPAU_Node@?$_Tree_nod@V?$_Tmap_traits@IPAVCIOBuffer@Win32@OnlineGameLib@@U?$less@I@std@@V?$allocator@U?$pair@$$CBIPAVCIOBuffer@Win32@OnlineGameLib@@@std@@@5@$0A@@std@@@2@@Z 10004d10 f i common:IOBuffer.obj
 0001:00003d20       ??Econst_iterator@?$_Tree@V?$_Tmap_traits@IPAVCIOBuffer@Win32@OnlineGameLib@@U?$less@I@std@@V?$allocator@U?$pair@$$CBIPAVCIOBuffer@Win32@OnlineGameLib@@@std@@@5@$0A@@std@@@std@@QAEAAV012@XZ 10004d20 f i common:IOBuffer.obj
 0001:00003d30       ??Fconst_iterator@?$_Tree@V?$_Tmap_traits@IPAVCIOBuffer@Win32@OnlineGameLib@@U?$less@I@std@@V?$allocator@U?$pair@$$CBIPAVCIOBuffer@Win32@OnlineGameLib@@@std@@@5@$0A@@std@@@std@@QAEAAV012@XZ 10004d30 f i common:IOBuffer.obj
 0001:00003d40       ?allocate@?$allocator@U_Node@?$_Tree_nod@V?$_Tmap_traits@IPAVCIOBuffer@Win32@OnlineGameLib@@U?$less@I@std@@V?$allocator@U?$pair@$$CBIPAVCIOBuffer@Win32@OnlineGameLib@@@std@@@5@$0A@@std@@@std@@@std@@QAEPAU_Node@?$_Tree_nod@V?$_Tmap_traits@IPAVCIOBuffer@Win32@OnlineGameLib@@U?$less@I@std@@V?$allocator@U?$pair@$$CBIPAVCIOBuffer@Win32@OnlineGameLib@@@std@@@5@$0A@@std@@@2@I@Z 10004d40 f i common:IOBuffer.obj
 0001:00003d60       ?_Erase@?$_Tree@V?$_Tmap_traits@IPAVCIOBuffer@Win32@OnlineGameLib@@U?$less@I@std@@V?$allocator@U?$pair@$$CBIPAVCIOBuffer@Win32@OnlineGameLib@@@std@@@5@$0A@@std@@@std@@IAEXPAU_Node@?$_Tree_nod@V?$_Tmap_traits@IPAVCIOBuffer@Win32@OnlineGameLib@@U?$less@I@std@@V?$allocator@U?$pair@$$CBIPAVCIOBuffer@Win32@OnlineGameLib@@@std@@@5@$0A@@std@@@2@@Z 10004d60 f i common:IOBuffer.obj
 0001:00003da0       ??0?$_Tree_nod@V?$_Tmap_traits@IPAVCIOBuffer@Win32@OnlineGameLib@@U?$less@I@std@@V?$allocator@U?$pair@$$CBIPAVCIOBuffer@Win32@OnlineGameLib@@@std@@@5@$0A@@std@@@std@@IAE@ABU?$less@I@1@V?$allocator@U?$pair@$$CBIPAVCIOBuffer@Win32@OnlineGameLib@@@std@@@1@@Z 10004da0 f i common:IOBuffer.obj
 0001:00003db0       ?construct@?$allocator@PAU_Node@?$_Tree_nod@V?$_Tmap_traits@IPAVCIOBuffer@Win32@OnlineGameLib@@U?$less@I@std@@V?$allocator@U?$pair@$$CBIPAVCIOBuffer@Win32@OnlineGameLib@@@std@@@5@$0A@@std@@@std@@@std@@QAEXPAPAU_Node@?$_Tree_nod@V?$_Tmap_traits@IPAVCIOBuffer@Win32@OnlineGameLib@@U?$less@I@std@@V?$allocator@U?$pair@$$CBIPAVCIOBuffer@Win32@OnlineGameLib@@@std@@@5@$0A@@std@@@2@ABQAU342@@Z 10004db0 f i common:IOBuffer.obj
 0001:00003dd0       ??1Allocator@CIOBuffer@Win32@OnlineGameLib@@UAE@XZ 10004dd0 f   common:IOBuffer.obj
 0001:00003e40       ?Reset@InOrderBufferList@CIOBuffer@Win32@OnlineGameLib@@QAEXXZ 10004e40 f   common:IOBuffer.obj
 0001:00003e50       ?begin@?$_Tree@V?$_Tmap_traits@IPAVCIOBuffer@Win32@OnlineGameLib@@U?$less@I@std@@V?$allocator@U?$pair@$$CBIPAVCIOBuffer@Win32@OnlineGameLib@@@std@@@5@$0A@@std@@@std@@QAE?AViterator@12@XZ 10004e50 f i common:IOBuffer.obj
 0001:00003e70       ?end@?$_Tree@V?$_Tmap_traits@IPAVCIOBuffer@Win32@OnlineGameLib@@U?$less@I@std@@V?$allocator@U?$pair@$$CBIPAVCIOBuffer@Win32@OnlineGameLib@@@std@@@5@$0A@@std@@@std@@QAE?AViterator@12@XZ 10004e70 f i common:IOBuffer.obj
 0001:00003e80       ??0iterator@?$_Tree@V?$_Tmap_traits@IPAVCIOBuffer@Win32@OnlineGameLib@@U?$less@I@std@@V?$allocator@U?$pair@$$CBIPAVCIOBuffer@Win32@OnlineGameLib@@@std@@@5@$0A@@std@@@std@@QAE@XZ 10004e80 f i common:IOBuffer.obj
 0001:00003e90       ??Citerator@?$_Tree@V?$_Tmap_traits@IPAVCIOBuffer@Win32@OnlineGameLib@@U?$less@I@std@@V?$allocator@U?$pair@$$CBIPAVCIOBuffer@Win32@OnlineGameLib@@@std@@@5@$0A@@std@@@std@@QBEPAU?$pair@$$CBIPAVCIOBuffer@Win32@OnlineGameLib@@@2@XZ 10004e90 f i common:IOBuffer.obj
 0001:00003ec0       ??Eiterator@?$_Tree@V?$_Tmap_traits@IPAVCIOBuffer@Win32@OnlineGameLib@@U?$less@I@std@@V?$allocator@U?$pair@$$CBIPAVCIOBuffer@Win32@OnlineGameLib@@@std@@@5@$0A@@std@@@std@@QAEAAV012@XZ 10004ec0 f i common:IOBuffer.obj
 0001:00003ed0       ??Fiterator@?$_Tree@V?$_Tmap_traits@IPAVCIOBuffer@Win32@OnlineGameLib@@U?$less@I@std@@V?$allocator@U?$pair@$$CBIPAVCIOBuffer@Win32@OnlineGameLib@@@std@@@5@$0A@@std@@@std@@QAEAAV012@XZ 10004ed0 f i common:IOBuffer.obj
 0001:00003ee0       ?_Buynode@?$_Tree@V?$_Tmap_traits@IPAVCIOBuffer@Win32@OnlineGameLib@@U?$less@I@std@@V?$allocator@U?$pair@$$CBIPAVCIOBuffer@Win32@OnlineGameLib@@@std@@@5@$0A@@std@@@std@@IAEPAU_Node@?$_Tree_nod@V?$_Tmap_traits@IPAVCIOBuffer@Win32@OnlineGameLib@@U?$less@I@std@@V?$allocator@U?$pair@$$CBIPAVCIOBuffer@Win32@OnlineGameLib@@@std@@@5@$0A@@std@@@2@PAU342@00ABU?$pair@$$CBIPAVCIOBuffer@Win32@OnlineGameLib@@@2@D@Z 10004ee0 f i common:IOBuffer.obj
 0001:00003f20       ?clear@?$_Tree@V?$_Tmap_traits@IPAVCIOBuffer@Win32@OnlineGameLib@@U?$less@I@std@@V?$allocator@U?$pair@$$CBIPAVCIOBuffer@Win32@OnlineGameLib@@@std@@@5@$0A@@std@@@std@@QAEXXZ 10004f20 f i common:IOBuffer.obj
 0001:00003f50       ?_Buynode@?$_Tree@V?$_Tmap_traits@IPAVCIOBuffer@Win32@OnlineGameLib@@U?$less@I@std@@V?$allocator@U?$pair@$$CBIPAVCIOBuffer@Win32@OnlineGameLib@@@std@@@5@$0A@@std@@@std@@IAEPAU_Node@?$_Tree_nod@V?$_Tmap_traits@IPAVCIOBuffer@Win32@OnlineGameLib@@U?$less@I@std@@V?$allocator@U?$pair@$$CBIPAVCIOBuffer@Win32@OnlineGameLib@@@std@@@5@$0A@@std@@@2@XZ 10004f50 f i common:IOBuffer.obj
 0001:00003f90       ??0?$_Tree_ptr@V?$_Tmap_traits@IPAVCIOBuffer@Win32@OnlineGameLib@@U?$less@I@std@@V?$allocator@U?$pair@$$CBIPAVCIOBuffer@Win32@OnlineGameLib@@@std@@@5@$0A@@std@@@std@@IAE@ABU?$less@I@1@V?$allocator@U?$pair@$$CBIPAVCIOBuffer@Win32@OnlineGameLib@@@std@@@1@@Z 10004f90 f i common:IOBuffer.obj
 0001:00003fa0       ??Eiterator@?$_Tree@V?$_Tmap_traits@IPAVCIOBuffer@Win32@OnlineGameLib@@U?$less@I@std@@V?$allocator@U?$pair@$$CBIPAVCIOBuffer@Win32@OnlineGameLib@@@std@@@5@$0A@@std@@@std@@QAE?AV012@H@Z 10004fa0 f i common:IOBuffer.obj
 0001:00003fc0       ??_EAllocator@CIOBuffer@Win32@OnlineGameLib@@UAEPAXI@Z 10004fc0 f i common:IOBuffer.obj
 0001:00003fc0       ??_GAllocator@CIOBuffer@Win32@OnlineGameLib@@UAEPAXI@Z 10004fc0 f i common:IOBuffer.obj
 0001:00003fe0       ?_Init@?$_Tree@V?$_Tmap_traits@IPAVCIOBuffer@Win32@OnlineGameLib@@U?$less@I@std@@V?$allocator@U?$pair@$$CBIPAVCIOBuffer@Win32@OnlineGameLib@@@std@@@5@$0A@@std@@@std@@IAEXXZ 10004fe0 f i common:IOBuffer.obj
 0001:00004010       ??0?$_Tree_val@V?$_Tmap_traits@IPAVCIOBuffer@Win32@OnlineGameLib@@U?$less@I@std@@V?$allocator@U?$pair@$$CBIPAVCIOBuffer@Win32@OnlineGameLib@@@std@@@5@$0A@@std@@@std@@IAE@ABU?$less@I@1@V?$allocator@U?$pair@$$CBIPAVCIOBuffer@Win32@OnlineGameLib@@@std@@@1@@Z 10005010 f i common:IOBuffer.obj
 0001:00004020       ??1logic_error@std@@UAE@XZ 10005020 f i common:IOBuffer.obj
 0001:00004060       ?c_str@?$basic_string@DU?$char_traits@D@std@@V?$allocator@D@2@@std@@QBEPBDXZ 10005060 f i common:IOBuffer.obj
 0001:00004070       ?what@logic_error@std@@UBEPBDXZ 10005070 f i common:IOBuffer.obj
 0001:00004080       ??_Glogic_error@std@@UAEPAXI@Z 10005080 f i common:IOBuffer.obj
 0001:00004080       ??_Elogic_error@std@@UAEPAXI@Z 10005080 f i common:IOBuffer.obj
 0001:000040d0       ??0?$_Tree@V?$_Tmap_traits@IPAVCIOBuffer@Win32@OnlineGameLib@@U?$less@I@std@@V?$allocator@U?$pair@$$CBIPAVCIOBuffer@Win32@OnlineGameLib@@@std@@@5@$0A@@std@@@std@@QAE@ABU?$less@I@1@ABV?$allocator@U?$pair@$$CBIPAVCIOBuffer@Win32@OnlineGameLib@@@std@@@1@@Z 100050d0 f i common:IOBuffer.obj
 0001:00004100       ??0logic_error@std@@QAE@ABV?$basic_string@DU?$char_traits@D@std@@V?$allocator@D@2@@1@@Z 10005100 f i common:IOBuffer.obj
 0001:00004170       ??0length_error@std@@QAE@ABV?$basic_string@DU?$char_traits@D@std@@V?$allocator@D@2@@1@@Z 10005170 f i common:IOBuffer.obj
 0001:00004190       ??1length_error@std@@UAE@XZ 10005190 f i common:IOBuffer.obj
 0001:000041d0       ??_Elength_error@std@@UAEPAXI@Z 100051d0 f i common:IOBuffer.obj
 0001:000041d0       ??_Glength_error@std@@UAEPAXI@Z 100051d0 f i common:IOBuffer.obj
 0001:00004220       ??0out_of_range@std@@QAE@ABV?$basic_string@DU?$char_traits@D@std@@V?$allocator@D@2@@1@@Z 10005220 f i common:IOBuffer.obj
 0001:00004240       ??1out_of_range@std@@UAE@XZ 10005240 f i common:IOBuffer.obj
 0001:00004280       ??_Gout_of_range@std@@UAEPAXI@Z 10005280 f i common:IOBuffer.obj
 0001:00004280       ??_Eout_of_range@std@@UAEPAXI@Z 10005280 f i common:IOBuffer.obj
 0001:000042d0       ?erase@?$_Tree@V?$_Tmap_traits@IPAVCIOBuffer@Win32@OnlineGameLib@@U?$less@I@std@@V?$allocator@U?$pair@$$CBIPAVCIOBuffer@Win32@OnlineGameLib@@@std@@@5@$0A@@std@@@std@@QAE?AViterator@12@V312@@Z 100052d0 f i common:IOBuffer.obj
 0001:00004590       ??0logic_error@std@@QAE@ABV01@@Z 10005590 f i common:IOBuffer.obj
 0001:00004610       ?_Insert@?$_Tree@V?$_Tmap_traits@IPAVCIOBuffer@Win32@OnlineGameLib@@U?$less@I@std@@V?$allocator@U?$pair@$$CBIPAVCIOBuffer@Win32@OnlineGameLib@@@std@@@5@$0A@@std@@@std@@IAE?AViterator@12@_NPAU_Node@?$_Tree_nod@V?$_Tmap_traits@IPAVCIOBuffer@Win32@OnlineGameLib@@U?$less@I@std@@V?$allocator@U?$pair@$$CBIPAVCIOBuffer@Win32@OnlineGameLib@@@std@@@5@$0A@@std@@@2@ABU?$pair@$$CBIPAVCIOBuffer@Win32@OnlineGameLib@@@2@@Z 10005610 f i common:IOBuffer.obj
 0001:00004810       ??0length_error@std@@QAE@ABV01@@Z 10005810 f i common:IOBuffer.obj
 0001:00004830       ?erase@?$_Tree@V?$_Tmap_traits@IPAVCIOBuffer@Win32@OnlineGameLib@@U?$less@I@std@@V?$allocator@U?$pair@$$CBIPAVCIOBuffer@Win32@OnlineGameLib@@@std@@@5@$0A@@std@@@std@@QAE?AViterator@12@V312@0@Z 10005830 f i common:IOBuffer.obj
 0001:00004900       ??0out_of_range@std@@QAE@ABV01@@Z 10005900 f i common:IOBuffer.obj
 0001:00004920       ?AddData@CIOBuffer@Win32@OnlineGameLib@@QAEXQBDI@Z 10005920 f   common:IOBuffer.obj
 0001:00004a10       ?AddData@CIOBuffer@Win32@OnlineGameLib@@QAEXQBEI@Z 10005a10 f   common:IOBuffer.obj
 0001:00004a20       ?AddData@CIOBuffer@Win32@OnlineGameLib@@QAEXE@Z 10005a20 f   common:IOBuffer.obj
 0001:00004a30       ?Allocate@Allocator@CIOBuffer@Win32@OnlineGameLib@@QAEPAV234@XZ 10005a30 f   common:IOBuffer.obj
 0001:00004b90       ?Release@Allocator@CIOBuffer@Win32@OnlineGameLib@@AAEXPAV234@@Z 10005b90 f   common:IOBuffer.obj
 0001:00004cb0       ?ProcessAndGetNext@InOrderBufferList@CIOBuffer@Win32@OnlineGameLib@@QAEPAV234@XZ 10005cb0 f   common:IOBuffer.obj
 0001:00004d60       ?GetNext@InOrderBufferList@CIOBuffer@Win32@OnlineGameLib@@QAEPAV234@XZ 10005d60 f   common:IOBuffer.obj
 0001:00004e10       ?insert@?$_Tree@V?$_Tmap_traits@IPAVCIOBuffer@Win32@OnlineGameLib@@U?$less@I@std@@V?$allocator@U?$pair@$$CBIPAVCIOBuffer@Win32@OnlineGameLib@@@std@@@5@$0A@@std@@@std@@QAE?AU?$pair@Viterator@?$_Tree@V?$_Tmap_traits@IPAVCIOBuffer@Win32@OnlineGameLib@@U?$less@I@std@@V?$allocator@U?$pair@$$CBIPAVCIOBuffer@Win32@OnlineGameLib@@@std@@@5@$0A@@std@@@std@@_N@2@ABU?$pair@$$CBIPAVCIOBuffer@Win32@OnlineGameLib@@@2@@Z 10005e10 f i common:IOBuffer.obj
 0001:00004ed0       ?_Tidy@?$_Tree@V?$_Tmap_traits@IPAVCIOBuffer@Win32@OnlineGameLib@@U?$less@I@std@@V?$allocator@U?$pair@$$CBIPAVCIOBuffer@Win32@OnlineGameLib@@@std@@@5@$0A@@std@@@std@@IAEXXZ 10005ed0 f i common:IOBuffer.obj
 0001:00004f10       ?SplitBuffer@CIOBuffer@Win32@OnlineGameLib@@QAEPAV123@I@Z 10005f10 f   common:IOBuffer.obj
 0001:00004f50       ?AllocateNewBuffer@CIOBuffer@Win32@OnlineGameLib@@QBEPAV123@XZ 10005f50 f   common:IOBuffer.obj
 0001:00004f60       ?Release@CIOBuffer@Win32@OnlineGameLib@@QAEXXZ 10005f60 f   common:IOBuffer.obj
 0001:00005040       ?AddBuffer@InOrderBufferList@CIOBuffer@Win32@OnlineGameLib@@QAEXPAV234@@Z 10006040 f   common:IOBuffer.obj
 0001:000050c0       ?GetNext@InOrderBufferList@CIOBuffer@Win32@OnlineGameLib@@QAEPAV234@PAV234@@Z 100060c0 f   common:IOBuffer.obj
 0001:000051a0       ??1?$_Tree@V?$_Tmap_traits@IPAVCIOBuffer@Win32@OnlineGameLib@@U?$less@I@std@@V?$allocator@U?$pair@$$CBIPAVCIOBuffer@Win32@OnlineGameLib@@@std@@@5@$0A@@std@@@std@@QAE@XZ 100061a0 f i common:IOBuffer.obj
 0001:000051e0       ??1?$map@IPAVCIOBuffer@Win32@OnlineGameLib@@U?$less@I@std@@V?$allocator@U?$pair@$$CBIPAVCIOBuffer@Win32@OnlineGameLib@@@std@@@5@@std@@QAE@XZ 100061e0 f i common:IOBuffer.obj
 0001:00005220       ??0?$map@IPAVCIOBuffer@Win32@OnlineGameLib@@U?$less@I@std@@V?$allocator@U?$pair@$$CBIPAVCIOBuffer@Win32@OnlineGameLib@@@std@@@5@@std@@QAE@XZ 10006220 f i common:IOBuffer.obj
 0001:00005250       ??0InOrderBufferList@CIOBuffer@Win32@OnlineGameLib@@QAE@AAVCCriticalSection@23@@Z 10006250 f   common:IOBuffer.obj
 0001:000052a0       ?assign@?$char_traits@D@std@@SAPADPADID@Z 100062a0 f i common:Utils.obj
 0001:000052c0       ?eq_int_type@?$char_traits@D@std@@SA_NABH0@Z 100062c0 f i common:Utils.obj
 0001:000052e0       ?eof@?$char_traits@D@std@@SAHXZ 100062e0 f i common:Utils.obj
 0001:000052f0       ?_Getctype@_Locinfo@std@@QBE?AU_Ctypevec@@XZ 100062f0 f i common:Utils.obj
 0001:00005320       ??0id@locale@std@@QAE@I@Z  10006320 f i common:Utils.obj
 0001:00005330       ??Bid@locale@std@@QAEIXZ   10006330 f i common:Utils.obj
 0001:00005370       ?_Incref@facet@locale@std@@QAEXXZ 10006370 f i common:Utils.obj
 0001:000053a0       ?_Decref@facet@locale@std@@QAEPAV123@XZ 100063a0 f i common:Utils.obj
 0001:000053e0       ?_Register@facet@locale@std@@QAEXXZ 100063e0 f i common:Utils.obj
 0001:000053f0       ??1facet@locale@std@@UAE@XZ 100063f0 f i common:Utils.obj
 0001:00005400       ??0facet@locale@std@@IAE@I@Z 10006400 f i common:Utils.obj
 0001:00005420       ??0locale@std@@QAE@XZ      10006420 f i common:Utils.obj
 0001:00005460       ??0locale@std@@QAE@ABV01@@Z 10006460 f i common:Utils.obj
 0001:000054a0       ??1locale@std@@QAE@XZ      100064a0 f i common:Utils.obj
 0001:000054f0       ?_Getfacet@locale@std@@QBEPBVfacet@12@I@Z 100064f0 f i common:Utils.obj
 0001:00005530       ??_Efacet@locale@std@@UAEPAXI@Z 10006530 f i common:Utils.obj
 0001:00005530       ??_Gfacet@locale@std@@UAEPAXI@Z 10006530 f i common:Utils.obj
 0001:00005550       ??0ctype_base@std@@QAE@I@Z 10006550 f i common:Utils.obj
 0001:00005570       ??1ctype_base@std@@UAE@XZ  10006570 f i common:Utils.obj
 0001:00005580       ??_Gctype_base@std@@UAEPAXI@Z 10006580 f i common:Utils.obj
 0001:00005580       ??_Ectype_base@std@@UAEPAXI@Z 10006580 f i common:Utils.obj
 0001:000055a0       ?widen@?$ctype@D@std@@QBEDD@Z 100065a0 f i common:Utils.obj
 0001:000055b0       ?_Init@?$ctype@D@std@@IAEXABV_Locinfo@2@@Z 100065b0 f i common:Utils.obj
 0001:000055f0       ?_Tidy@?$ctype@D@std@@IAEXXZ 100065f0 f i common:Utils.obj
 0001:00005620       ?rdstate@ios_base@std@@QBEHXZ 10006620 f i common:Utils.obj
 0001:00005630       ?getloc@ios_base@std@@QBE?AVlocale@2@XZ 10006630 f i common:Utils.obj
 0001:00005670       ??1ios_base@std@@UAE@XZ    10006670 f i common:Utils.obj
 0001:00005680       ??0ios_base@std@@IAE@XZ    10006680 f i common:Utils.obj
 0001:00005690       ??_Gios_base@std@@UAEPAXI@Z 10006690 f i common:Utils.obj
 0001:00005690       ??_Eios_base@std@@UAEPAXI@Z 10006690 f i common:Utils.obj
 0001:000056c0       ?_AtlGetConversionACP@ATL@@YGIXZ 100066c0 f i common:Utils.obj
 0001:000056d0       ?T2A@@YAPADPAD@Z           100066d0 f i common:Utils.obj
 0001:000056e0       ?Message@Win32@OnlineGameLib@@YAXQBD@Z 100066e0 f   common:Utils.obj
 0001:00005710       ?Output@Win32@OnlineGameLib@@YAXABV?$basic_string@DU?$char_traits@D@std@@V?$allocator@D@2@@std@@@Z 10006710 f   common:Utils.obj
 0001:00005720       ?Trace@Win32@OnlineGameLib@@YAXABV?$basic_string@DU?$char_traits@D@std@@V?$allocator@D@2@@std@@0@Z 10006720 f   common:Utils.obj
 0001:00005730       ?HexStringToDWORD@Win32@OnlineGameLib@@YAKPBD@Z 10006730 f   common:Utils.obj
 0001:000057a0       ?HashStr2ID@Win32@OnlineGameLib@@YAKQBD@Z 100067a0 f   common:Utils.obj
 0001:00005800       ?net_aton@Win32@OnlineGameLib@@YAKPBD@Z 10006800 f   common:Utils.obj
 0001:00005890       ?net_ntoa@Win32@OnlineGameLib@@YAPBDK@Z 10006890 f   common:Utils.obj
 0001:000058d0       ?GetLocalName@Win32@OnlineGameLib@@YA_NPADI@Z 100068d0 f   common:Utils.obj
 0001:000059d0       ?GetLocalAddress@Win32@OnlineGameLib@@YA_NPADIH@Z 100069d0 f   common:Utils.obj
 0001:00005b10       ?length@?$basic_string@DU?$char_traits@D@std@@V?$allocator@D@2@@std@@QBEIXZ 10006b10 f i common:Utils.obj
 0001:00005b20       ??1?$basic_ostream@DU?$char_traits@D@std@@@std@@UAE@XZ 10006b20 f i common:Utils.obj
 0001:00005b30       ??1?$basic_ios@DU?$char_traits@D@std@@@std@@UAE@XZ 10006b30 f i common:Utils.obj
 0001:00005b40       ??0?$basic_ios@DU?$char_traits@D@std@@@std@@IAE@XZ 10006b40 f i common:Utils.obj
 0001:00005b50       ??1?$basic_istream@DU?$char_traits@D@std@@@std@@UAE@XZ 10006b50 f i common:Utils.obj
 0001:00005b60       ?setg@?$basic_streambuf@DU?$char_traits@D@std@@@std@@IAEXPAD00@Z 10006b60 f i common:Utils.obj
 0001:00005b80       ?setp@?$basic_streambuf@DU?$char_traits@D@std@@@std@@IAEXPAD0@Z 10006b80 f i common:Utils.obj
 0001:00005ba0       ?_Init@?$basic_streambuf@DU?$char_traits@D@std@@@std@@IAEXXZ 10006ba0 f i common:Utils.obj
 0001:00005c00       ??1?$basic_iostream@DU?$char_traits@D@std@@@std@@UAE@XZ 10006c00 f i common:Utils.obj
 0001:00005c40       ??0?$auto_ptr@D@std@@QAE@PAD@Z 10006c40 f i common:Utils.obj
 0001:00005c50       ??1?$auto_ptr@D@std@@QAE@XZ 10006c50 f i common:Utils.obj
 0001:00005c60       ?get@?$auto_ptr@D@std@@QBEPADXZ 10006c60 f i common:Utils.obj
 0001:00005c70       ??0?$auto_ptr@E@std@@QAE@PAE@Z 10006c70 f i common:Utils.obj
 0001:00005c80       ??1?$auto_ptr@E@std@@QAE@XZ 10006c80 f i common:Utils.obj
 0001:00005c90       ?get@?$auto_ptr@E@std@@QBEPAEXZ 10006c90 f i common:Utils.obj
 0001:00005ca0       ??_G?$basic_ios@DU?$char_traits@D@std@@@std@@UAEPAXI@Z 10006ca0 f i common:Utils.obj
 0001:00005ca0       ??_E?$basic_ios@DU?$char_traits@D@std@@@std@@UAEPAXI@Z 10006ca0 f i common:Utils.obj
 0001:00005cd0       ??_Glocale@std@@QAEPAXI@Z  10006cd0 f i common:Utils.obj
 0001:00005d40       ??_D?$basic_ostream@DU?$char_traits@D@std@@@std@@QAEXXZ 10006d40 f i common:Utils.obj
 0001:00005d60       ??_D?$basic_istream@DU?$char_traits@D@std@@@std@@QAEXXZ 10006d60 f i common:Utils.obj
 0001:00005d80       ??_D?$basic_iostream@DU?$char_traits@D@std@@@std@@QAEXXZ 10006d80 f i common:Utils.obj
 0001:00005dd0       ??0?$basic_ostream@DU?$char_traits@D@std@@@std@@QAE@W4_Uninitialized@1@_N@Z 10006dd0 f i common:Utils.obj
 0001:00005e60       ?is_open@?$basic_filebuf@DU?$char_traits@D@std@@@std@@QBE_NXZ 10006e60 f i common:Utils.obj
 0001:00005e70       ?_Init@?$basic_streambuf@DU?$char_traits@D@std@@@std@@IAEXPAPAD0PAH001@Z 10006e70 f i common:Utils.obj
 0001:00005ea0       ??D?$_String_const_iterator@DU?$char_traits@D@std@@V?$allocator@D@2@@std@@QBEABDXZ 10006ea0 f i common:Utils.obj
 0001:00005ee0       ?unshift@?$codecvt@DDH@std@@QBEHAAHPAD1AAPAD@Z 10006ee0 f i common:Utils.obj
 0001:00005ef0       ??0?$_Ranit_base@DHPBDABDU_Iterator_base@std@@@std@@QAE@XZ 10006ef0 f i common:Utils.obj
 0001:00005f00       ??A?$basic_string@DU?$char_traits@D@std@@V?$allocator@D@2@@std@@QBEABDI@Z 10006f00 f i common:Utils.obj
 0001:00005f30       ??0?$basic_streambuf@DU?$char_traits@D@std@@@std@@IAE@XZ 10006f30 f i common:Utils.obj
 0001:00005fe0       ?to_char_type@?$char_traits@D@std@@SADABH@Z 10006fe0 f i common:Utils.obj
 0001:00005ff0       ?to_int_type@?$char_traits@D@std@@SAHABD@Z 10006ff0 f i common:Utils.obj
 0001:00006000       ?gptr@?$basic_streambuf@DU?$char_traits@D@std@@@std@@IBEPADXZ 10007000 f i common:Utils.obj
 0001:00006010       ?pptr@?$basic_streambuf@DU?$char_traits@D@std@@@std@@IBEPADXZ 10007010 f i common:Utils.obj
 0001:00006020       ?gbump@?$basic_streambuf@DU?$char_traits@D@std@@@std@@IAEXH@Z 10007020 f i common:Utils.obj
 0001:00006040       ?pbump@?$basic_streambuf@DU?$char_traits@D@std@@@std@@IAEXH@Z 10007040 f i common:Utils.obj
 0001:00006060       ?overflow@?$basic_streambuf@DU?$char_traits@D@std@@@std@@MAEHH@Z 10007060 f i common:Utils.obj
 0001:00006070       ?pbackfail@?$basic_streambuf@DU?$char_traits@D@std@@@std@@MAEHH@Z 10007070 f i common:Utils.obj
 0001:00006080       ?showmanyc@?$basic_streambuf@DU?$char_traits@D@std@@@std@@MAEHXZ 10007080 f i common:Utils.obj
 0001:00006090       ?underflow@?$basic_streambuf@DU?$char_traits@D@std@@@std@@MAEHXZ 10007090 f i common:Utils.obj
 0001:000060a0       ?xsgetn@?$basic_streambuf@DU?$char_traits@D@std@@@std@@MAEHPADH@Z 100070a0 f i common:Utils.obj
 0001:000060c0       ?setbuf@?$basic_streambuf@DU?$char_traits@D@std@@@std@@MAEPAV12@PADH@Z 100070c0 f i common:Utils.obj
 0001:000060d0       ?sync@?$basic_streambuf@DU?$char_traits@D@std@@@std@@MAEHXZ 100070d0 f i common:Utils.obj
 0001:000060e0       ?imbue@?$basic_streambuf@DU?$char_traits@D@std@@@std@@MAEXABVlocale@2@@Z 100070e0 f i common:Utils.obj
 0001:000060f0       ??0?$fpos@H@std@@QAE@J@Z   100070f0 f i common:Utils.obj
 0001:00006110       ?_Gninc@?$basic_streambuf@DU?$char_traits@D@std@@@std@@IAEPADXZ 10007110 f i common:Utils.obj
 0001:00006130       ?_Gnavail@?$basic_streambuf@DU?$char_traits@D@std@@@std@@IBEHXZ 10007130 f i common:Utils.obj
 0001:00006150       ?_Pnavail@?$basic_streambuf@DU?$char_traits@D@std@@@std@@IBEHXZ 10007150 f i common:Utils.obj
 0001:00006170       ??1?$basic_streambuf@DU?$char_traits@D@std@@@std@@UAE@XZ 10007170 f i common:Utils.obj
 0001:000061f0       ?uflow@?$basic_streambuf@DU?$char_traits@D@std@@@std@@MAEHXZ 100071f0 f i common:Utils.obj
 0001:00006220       ?seekoff@?$basic_streambuf@DU?$char_traits@D@std@@@std@@MAE?AV?$fpos@H@2@JHH@Z 10007220 f i common:Utils.obj
 0001:00006240       ?seekpos@?$basic_streambuf@DU?$char_traits@D@std@@@std@@MAE?AV?$fpos@H@2@V32@H@Z 10007240 f i common:Utils.obj
 0001:00006260       ?is_open@?$basic_fstream@DU?$char_traits@D@std@@@std@@QBE_NXZ 10007260 f i common:Utils.obj
 0001:00006270       ??_E?$basic_ostream@DU?$char_traits@D@std@@@std@@UAEPAXI@Z 10007270 f i common:Utils.obj
 0001:00006270       ??_G?$basic_ostream@DU?$char_traits@D@std@@@std@@UAEPAXI@Z 10007270 f i common:Utils.obj
 0001:000062b0       ??_E?$basic_istream@DU?$char_traits@D@std@@@std@@UAEPAXI@Z 100072b0 f i common:Utils.obj
 0001:000062b0       ??_G?$basic_istream@DU?$char_traits@D@std@@@std@@UAEPAXI@Z 100072b0 f i common:Utils.obj
 0001:000062f0       ??_E?$basic_streambuf@DU?$char_traits@D@std@@@std@@UAEPAXI@Z 100072f0 f i common:Utils.obj
 0001:000062f0       ??_G?$basic_streambuf@DU?$char_traits@D@std@@@std@@UAEPAXI@Z 100072f0 f i common:Utils.obj
 0001:00006310       ??_E?$basic_iostream@DU?$char_traits@D@std@@@std@@UAEPAXI@Z 10007310 f i common:Utils.obj
 0001:00006310       ??_G?$basic_iostream@DU?$char_traits@D@std@@@std@@UAEPAXI@Z 10007310 f i common:Utils.obj
 0001:00006380       ?_Init@?$basic_filebuf@DU?$char_traits@D@std@@@std@@IAEXPAU_iobuf@@W4_Initfl@12@@Z 10007380 f i common:Utils.obj
 0001:000063d0       ??D?$_String_iterator@DU?$char_traits@D@std@@V?$allocator@D@2@@std@@QBEAADXZ 100073d0 f i common:Utils.obj
 0001:00006410       ?_Chassign@?$basic_string@DU?$char_traits@D@std@@V?$allocator@D@2@@std@@IAEXIID@Z 10007410 f i common:Utils.obj
 0001:00006470       ??0?$_String_const_iterator@DU?$char_traits@D@std@@V?$allocator@D@2@@std@@QAE@PBDPBU_Container_base@1@@Z 10007470 f i common:Utils.obj
 0001:000064d0       ?_Xsgetn_s@?$basic_streambuf@DU?$char_traits@D@std@@@std@@MAEHPADIH@Z 100074d0 f i common:Utils.obj
 0001:00006570       ?xsputn@?$basic_streambuf@DU?$char_traits@D@std@@@std@@MAEHPBDH@Z 10007570 f i common:Utils.obj
 0001:00006610       ??0?$basic_filebuf@DU?$char_traits@D@std@@@std@@QAE@PAU_iobuf@@@Z 10007610 f i common:Utils.obj
 0001:00006670       ?not_eof@?$char_traits@D@std@@SAHABH@Z 10007670 f i common:Utils.obj
 0001:00006690       ??0codecvt_base@std@@QAE@I@Z 10007690 f i common:Utils.obj
 0001:000066b0       ?always_noconv@codecvt_base@std@@QBE_NXZ 100076b0 f i common:Utils.obj
 0001:000066c0       ??1codecvt_base@std@@UAE@XZ 100076c0 f i common:Utils.obj
 0001:000066d0       ?do_always_noconv@codecvt_base@std@@MBE_NXZ 100076d0 f i common:Utils.obj
 0001:000066e0       ?do_max_length@codecvt_base@std@@MBEHXZ 100076e0 f i common:Utils.obj
 0001:000066f0       ?do_encoding@codecvt_base@std@@MBEHXZ 100076f0 f i common:Utils.obj
 0001:00006700       ??_Ecodecvt_base@std@@UAEPAXI@Z 10007700 f i common:Utils.obj
 0001:00006700       ??_Gcodecvt_base@std@@UAEPAXI@Z 10007700 f i common:Utils.obj
 0001:00006720       ??$_Fgetc@D@std@@YA_NAADPAU_iobuf@@@Z 10007720 f i common:Utils.obj
 0001:00006740       ??$_Fputc@D@std@@YA_NDPAU_iobuf@@@Z 10007740 f i common:Utils.obj
 0001:00006760       ??$_Ungetc@D@std@@YA_NABDPAU_iobuf@@@Z 10007760 f i common:Utils.obj
 0001:00006780       ?eback@?$basic_streambuf@DU?$char_traits@D@std@@@std@@IBEPADXZ 10007780 f i common:Utils.obj
 0001:00006790       ?egptr@?$basic_streambuf@DU?$char_traits@D@std@@@std@@IBEPADXZ 10007790 f i common:Utils.obj
 0001:000067a0       ?epptr@?$basic_streambuf@DU?$char_traits@D@std@@@std@@IBEPADXZ 100077a0 f i common:Utils.obj
 0001:000067b0       ?_Pninc@?$basic_streambuf@DU?$char_traits@D@std@@@std@@IAEPADXZ 100077b0 f i common:Utils.obj
 0001:000067d0       ??B?$fpos@H@std@@QBEJXZ    100077d0 f i common:Utils.obj
 0001:000067e0       ?underflow@?$basic_filebuf@DU?$char_traits@D@std@@@std@@MAEHXZ 100077e0 f i common:Utils.obj
 0001:00006830       ?sync@?$basic_filebuf@DU?$char_traits@D@std@@@std@@MAEHXZ 10007830 f i common:Utils.obj
 0001:00006860       ?_Gndec@?$basic_streambuf@DU?$char_traits@D@std@@@std@@IAEPADXZ 10007860 f i common:Utils.obj
 0001:00006880       ??0?$fpos@H@std@@QAE@H_J@Z 10007880 f i common:Utils.obj
 0001:000068a0       ?state@?$fpos@H@std@@QBEHXZ 100078a0 f i common:Utils.obj
 0001:000068b0       ?seekpos@?$fpos@H@std@@QBE_JXZ 100078b0 f i common:Utils.obj
 0001:000068c0       ?_Initcvt@?$basic_filebuf@DU?$char_traits@D@std@@@std@@IAEXPAV?$codecvt@DDH@2@@Z 100078c0 f i common:Utils.obj
 0001:000068f0       ?in@?$codecvt@DDH@std@@QBEHAAHPBD1AAPBDPAD3AAPAD@Z 100078f0 f i common:Utils.obj
 0001:00006900       ?out@?$codecvt@DDH@std@@QBEHAAHPBD1AAPBDPAD3AAPAD@Z 10007900 f i common:Utils.obj
 0001:00006910       ?_Init@?$codecvt@DDH@std@@IAEXABV_Locinfo@2@@Z 10007910 f i common:Utils.obj
 0001:00006920       ?pbackfail@?$basic_filebuf@DU?$char_traits@D@std@@@std@@MAEHH@Z 10007920 f i common:Utils.obj
 0001:00006990       ?setbuf@?$basic_filebuf@DU?$char_traits@D@std@@@std@@MAEPAV?$basic_streambuf@DU?$char_traits@D@std@@@2@PADH@Z 10007990 f i common:Utils.obj
 0001:00006a10       ??0?$_String_iterator@DU?$char_traits@D@std@@V?$allocator@D@2@@std@@QAE@PADPBU_Container_base@1@@Z 10007a10 f i common:Utils.obj
 0001:00006a30       ?begin@?$basic_string@DU?$char_traits@D@std@@V?$allocator@D@2@@std@@QAE?AV?$_String_iterator@DU?$char_traits@D@std@@V?$allocator@D@2@@2@XZ 10007a30 f i common:Utils.obj
 0001:00006a70       ??1runtime_error@std@@UAE@XZ 10007a70 f i common:Utils.obj
 0001:00006ab0       ?what@runtime_error@std@@UBEPBDXZ 10007ab0 f i common:Utils.obj
 0001:00006ac0       ??_Gruntime_error@std@@UAEPAXI@Z 10007ac0 f i common:Utils.obj
 0001:00006ac0       ??_Eruntime_error@std@@UAEPAXI@Z 10007ac0 f i common:Utils.obj
 0001:00006b10       ??1_Locinfo@std@@QAE@XZ    10007b10 f i common:Utils.obj
 0001:00006bf0       ?append@?$basic_string@DU?$char_traits@D@std@@V?$allocator@D@2@@std@@QAEAAV12@ID@Z 10007bf0 f i common:Utils.obj
 0001:00006ca0       ?assign@?$basic_string@DU?$char_traits@D@std@@V?$allocator@D@2@@std@@QAEAAV12@ID@Z 10007ca0 f i common:Utils.obj
 0001:00006d30       ??Y?$basic_string@DU?$char_traits@D@std@@V?$allocator@D@2@@std@@QAEAAV01@D@Z 10007d30 f i common:Utils.obj
 0001:00006d40       ?uflow@?$basic_filebuf@DU?$char_traits@D@std@@@std@@MAEHXZ 10007d40 f i common:Utils.obj
 0001:000070a0       ??0?$basic_string@DU?$char_traits@D@std@@V?$allocator@D@2@@std@@QAE@ABV01@II@Z 100080a0 f i common:Utils.obj
 0001:000070d0       ??0?$basic_string@DU?$char_traits@D@std@@V?$allocator@D@2@@std@@QAE@ID@Z 100080d0 f i common:Utils.obj
 0001:00007100       ?_Endwrite@?$basic_filebuf@DU?$char_traits@D@std@@@std@@IAE_NXZ 10008100 f i common:Utils.obj
 0001:00007420       ??0runtime_error@std@@QAE@ABV?$basic_string@DU?$char_traits@D@std@@V?$allocator@D@2@@1@@Z 10008420 f i common:Utils.obj
 0001:00007490       ??0failure@ios_base@std@@QAE@ABV?$basic_string@DU?$char_traits@D@std@@V?$allocator@D@2@@2@@Z 10008490 f i common:Utils.obj
 0001:000074b0       ??1failure@ios_base@std@@UAE@XZ 100084b0 f i common:Utils.obj
 0001:000074f0       ??_Gfailure@ios_base@std@@UAEPAXI@Z 100084f0 f i common:Utils.obj
 0001:000074f0       ??_Efailure@ios_base@std@@UAEPAXI@Z 100084f0 f i common:Utils.obj
 0001:00007540       ?HexToString@Win32@OnlineGameLib@@YA?AV?$basic_string@DU?$char_traits@D@std@@V?$allocator@D@2@@std@@PBEI@Z 10008540 f   common:Utils.obj
 0001:00007600       ??4?$basic_string@DU?$char_traits@D@std@@V?$allocator@D@2@@std@@QAEAAV01@PBD@Z 10008600 f i common:Utils.obj
 0001:00007630       ?substr@?$basic_string@DU?$char_traits@D@std@@V?$allocator@D@2@@std@@QBE?AV12@II@Z 10008630 f i common:Utils.obj
 0001:00007670       ?overflow@?$basic_filebuf@DU?$char_traits@D@std@@@std@@MAEHH@Z 10008670 f i common:Utils.obj
 0001:00007a40       ?seekoff@?$basic_filebuf@DU?$char_traits@D@std@@@std@@MAE?AV?$fpos@H@2@JHH@Z 10008a40 f i common:Utils.obj
 0001:00007b20       ?seekpos@?$basic_filebuf@DU?$char_traits@D@std@@@std@@MAE?AV?$fpos@H@2@V32@H@Z 10008b20 f i common:Utils.obj
 0001:00007c10       ?close@?$basic_filebuf@DU?$char_traits@D@std@@@std@@QAEPAV12@XZ 10008c10 f i common:Utils.obj
 0001:00007c60       ??0_Locinfo@std@@QAE@PBD@Z 10008c60 f i common:Utils.obj
 0001:00007d30       ??0runtime_error@std@@QAE@ABV01@@Z 10008d30 f i common:Utils.obj
 0001:00007db0       ??0?$ctype@D@std@@QAE@PBF_NI@Z 10008db0 f i common:Utils.obj
 0001:00007eb0       ?do_tolower@?$ctype@D@std@@MBEDD@Z 10008eb0 f i common:Utils.obj
 0001:00007ed0       ?do_tolower@?$ctype@D@std@@MBEPBDPADPBD@Z 10008ed0 f i common:Utils.obj
 0001:00007f00       ?do_toupper@?$ctype@D@std@@MBEDD@Z 10008f00 f i common:Utils.obj
 0001:00007f20       ?do_toupper@?$ctype@D@std@@MBEPBDPADPBD@Z 10008f20 f i common:Utils.obj
 0001:00007f50       ?do_widen@?$ctype@D@std@@MBEDD@Z 10008f50 f i common:Utils.obj
 0001:00007f60       ?do_widen@?$ctype@D@std@@MBEPBDPBD0PAD@Z 10008f60 f i common:Utils.obj
 0001:00007f90       ?_Do_widen_s@?$ctype@D@std@@MBEPBDPBD0PADI@Z 10008f90 f i common:Utils.obj
 0001:00007fd0       ?do_narrow@?$ctype@D@std@@MBEDDD@Z 10008fd0 f i common:Utils.obj
 0001:00007fe0       ?do_narrow@?$ctype@D@std@@MBEPBDPBD0DPAD@Z 10008fe0 f i common:Utils.obj
 0001:00008010       ?_Do_narrow_s@?$ctype@D@std@@MBEPBDPBD0DPADI@Z 10009010 f i common:Utils.obj
 0001:00008050       ??1?$ctype@D@std@@MAE@XZ   10009050 f i common:Utils.obj
 0001:00008090       ??_G?$ctype@D@std@@MAEPAXI@Z 10009090 f i common:Utils.obj
 0001:00008090       ??_E?$ctype@D@std@@MAEPAXI@Z 10009090 f i common:Utils.obj
 0001:000080e0       ?_Getcat@?$ctype@D@std@@SAIPAPBVfacet@locale@2@@Z 100090e0 f i common:Utils.obj
 0001:00008160       ?clear@ios_base@std@@QAEXH_N@Z 10009160 f i common:Utils.obj
 0001:00008290       ??0failure@ios_base@std@@QAE@ABV012@@Z 10009290 f i common:Utils.obj
 0001:000082b0       ?clear@ios_base@std@@QAEXH@Z 100092b0 f i common:Utils.obj
 0001:000082c0       ?_Init@ios_base@std@@IAEXXZ 100092c0 f i common:Utils.obj
 0001:00008340       ?GetLastErrorMessage@Win32@OnlineGameLib@@YA?AV?$basic_string@DU?$char_traits@D@std@@V?$allocator@D@2@@std@@K@Z 10009340 f   common:Utils.obj
 0001:00008400       ?StringToHex@Win32@OnlineGameLib@@YAXABV?$basic_string@DU?$char_traits@D@std@@V?$allocator@D@2@@std@@PAEI@Z 10009400 f   common:Utils.obj
 0001:00008540       ?GetCurrentDirectoryA@Win32@OnlineGameLib@@YA?AV?$basic_string@DU?$char_traits@D@std@@V?$allocator@D@2@@std@@XZ 10009540 f   common:Utils.obj
 0001:00008660       ?GetAppFullPath@Win32@OnlineGameLib@@YA?AV?$basic_string@DU?$char_traits@D@std@@V?$allocator@D@2@@std@@PAUHINSTANCE__@@@Z 10009660 f   common:Utils.obj
 0001:00008770       ?GetDateStamp@Win32@OnlineGameLib@@YA?AV?$basic_string@DU?$char_traits@D@std@@V?$allocator@D@2@@std@@XZ 10009770 f   common:Utils.obj
 0001:00008800       ?GetTimeStamp@Win32@OnlineGameLib@@YA?AV?$basic_string@DU?$char_traits@D@std@@V?$allocator@D@2@@std@@XZ 10009800 f   common:Utils.obj
 0001:00008880       ?ToHex@Win32@OnlineGameLib@@YA?AV?$basic_string@DU?$char_traits@D@std@@V?$allocator@D@2@@std@@E@Z 10009880 f   common:Utils.obj
 0001:000088e0       ?DumpData@Win32@OnlineGameLib@@YA?AV?$basic_string@DU?$char_traits@D@std@@V?$allocator@D@2@@std@@QBEII@Z 100098e0 f   common:Utils.obj
 0001:00008c40       ?GetComputerNameA@Win32@OnlineGameLib@@YA?AV?$basic_string@DU?$char_traits@D@std@@V?$allocator@D@2@@std@@XZ 10009c40 f   common:Utils.obj
 0001:00008d60       ?GetModuleFileNameA@Win32@OnlineGameLib@@YA?AV?$basic_string@DU?$char_traits@D@std@@V?$allocator@D@2@@std@@PAUHINSTANCE__@@@Z 10009d60 f   common:Utils.obj
 0001:00008e90       ?GetUserNameA@Win32@OnlineGameLib@@YA?AV?$basic_string@DU?$char_traits@D@std@@V?$allocator@D@2@@std@@XZ 10009e90 f   common:Utils.obj
 0001:00008fc0       ?StripLeading@Win32@OnlineGameLib@@YA?AV?$basic_string@DU?$char_traits@D@std@@V?$allocator@D@2@@std@@ABV34@D@Z 10009fc0 f   common:Utils.obj
 0001:00009030       ?StripTrailing@Win32@OnlineGameLib@@YA?AV?$basic_string@DU?$char_traits@D@std@@V?$allocator@D@2@@std@@ABV34@D@Z 1000a030 f   common:Utils.obj
 0001:00009090       ?GetFileVersion@Win32@OnlineGameLib@@YA?AV?$basic_string@DU?$char_traits@D@std@@V?$allocator@D@2@@std@@XZ 1000a090 f   common:Utils.obj
 0001:000092c0       ??1?$basic_filebuf@DU?$char_traits@D@std@@@std@@UAE@XZ 1000a2c0 f i common:Utils.obj
 0001:00009330       ??_G?$basic_filebuf@DU?$char_traits@D@std@@@std@@UAEPAXI@Z 1000a330 f i common:Utils.obj
 0001:00009330       ??_E?$basic_filebuf@DU?$char_traits@D@std@@@std@@UAEPAXI@Z 1000a330 f i common:Utils.obj
 0001:00009350       ?clear@?$basic_ios@DU?$char_traits@D@std@@@std@@QAEXH_N@Z 1000a350 f i common:Utils.obj
 0001:00009370       ??$use_facet@V?$ctype@D@std@@@std@@YAABV?$ctype@D@0@ABVlocale@0@@Z 1000a370 f i common:Utils.obj
 0001:000094a0       ??0?$codecvt@DDH@std@@QAE@I@Z 1000a4a0 f i common:Utils.obj
 0001:00009530       ??1?$codecvt@DDH@std@@MAE@XZ 1000a530 f i common:Utils.obj
 0001:00009540       ?do_in@?$codecvt@DDH@std@@MBEHAAHPBD1AAPBDPAD3AAPAD@Z 1000a540 f i common:Utils.obj
 0001:00009560       ?do_out@?$codecvt@DDH@std@@MBEHAAHPBD1AAPBDPAD3AAPAD@Z 1000a560 f i common:Utils.obj
 0001:00009580       ?do_unshift@?$codecvt@DDH@std@@MBEHAAHPAD1AAPAD@Z 1000a580 f i common:Utils.obj
 0001:000095a0       ?do_length@?$codecvt@DDH@std@@MBEHABHPBD1I@Z 1000a5a0 f i common:Utils.obj
 0001:000095c0       ??_G?$codecvt@DDH@std@@MAEPAXI@Z 1000a5c0 f i common:Utils.obj
 0001:000095c0       ??_E?$codecvt@DDH@std@@MAEPAXI@Z 1000a5c0 f i common:Utils.obj
 0001:000095e0       ?setstate@?$basic_ios@DU?$char_traits@D@std@@@std@@QAEXH_N@Z 1000a5e0 f i common:Utils.obj
 0001:00009610       ??1?$basic_fstream@DU?$char_traits@D@std@@@std@@UAE@XZ 1000a610 f i common:Utils.obj
 0001:000096a0       ?close@?$basic_fstream@DU?$char_traits@D@std@@@std@@QAEXXZ 1000a6a0 f i common:Utils.obj
 0001:000096d0       ?widen@?$basic_ios@DU?$char_traits@D@std@@@std@@QBEDD@Z 1000a6d0 f i common:Utils.obj
 0001:00009790       ?_Getcat@?$codecvt@DDH@std@@SAIPAPBVfacet@locale@2@@Z 1000a790 f i common:Utils.obj
 0001:00009800       ??_D?$basic_fstream@DU?$char_traits@D@std@@@std@@QAEXXZ 1000a800 f i common:Utils.obj
 0001:00009820       ?SetLogFileName@Win32@OnlineGameLib@@YAXABV?$basic_string@DU?$char_traits@D@std@@V?$allocator@D@2@@std@@@Z 1000a820 f   common:Utils.obj
 0001:000098a0       ??_G?$basic_fstream@DU?$char_traits@D@std@@@std@@UAEPAXI@Z 1000a8a0 f i common:Utils.obj
 0001:000098a0       ??_E?$basic_fstream@DU?$char_traits@D@std@@@std@@UAEPAXI@Z 1000a8a0 f i common:Utils.obj
 0001:000098e0       ?init@?$basic_ios@DU?$char_traits@D@std@@@std@@IAEXPAV?$basic_streambuf@DU?$char_traits@D@std@@@2@_N@Z 1000a8e0 f i common:Utils.obj
 0001:00009940       ??$use_facet@V?$codecvt@DDH@std@@@std@@YAABV?$codecvt@DDH@0@ABVlocale@0@@Z 1000a940 f i common:Utils.obj
 0001:00009a70       ??0?$basic_istream@DU?$char_traits@D@std@@@std@@QAE@PAV?$basic_streambuf@DU?$char_traits@D@std@@@1@_N@Z 1000aa70 f i common:Utils.obj
 0001:00009b00       ??0?$basic_iostream@DU?$char_traits@D@std@@@std@@QAE@PAV?$basic_streambuf@DU?$char_traits@D@std@@@1@@Z 1000ab00 f i common:Utils.obj
 0001:00009be0       ??0?$basic_fstream@DU?$char_traits@D@std@@@std@@QAE@XZ 1000abe0 f i common:Utils.obj
 0001:00009ca0       ?imbue@?$basic_filebuf@DU?$char_traits@D@std@@@std@@MAEXABVlocale@2@@Z 1000aca0 f i common:Utils.obj
 0001:00009ce0       ??0CThread@Win32@OnlineGameLib@@QAE@XZ 1000ace0 f   common:Thread.obj
 0001:00009cf0       ??1CThread@Win32@OnlineGameLib@@UAE@XZ 1000acf0 f   common:Thread.obj
 0001:00009d10       ?GetHandle@CThread@Win32@OnlineGameLib@@QBEPAXXZ 1000ad10 f   common:Thread.obj
 0001:00009d20       ?ThreadFunction@CThread@Win32@OnlineGameLib@@CGIPAX@Z 1000ad20 f   common:Thread.obj
 0001:00009da0       ?Terminate@CThread@Win32@OnlineGameLib@@QAEXK@Z 1000ada0 f   common:Thread.obj
 0001:00009dd0       ??_GCThread@Win32@OnlineGameLib@@UAEPAXI@Z 1000add0 f i common:Thread.obj
 0001:00009dd0       ??_ECThread@Win32@OnlineGameLib@@UAEPAXI@Z 1000add0 f i common:Thread.obj
 0001:00009df0       ?Start@CThread@Win32@OnlineGameLib@@QAEXXZ 1000adf0 f   common:Thread.obj
 0001:00009f30       ?Wait@CThread@Win32@OnlineGameLib@@QBE_NK@Z 1000af30 f   common:Thread.obj
 0001:00009fe0       ?Wait@CThread@Win32@OnlineGameLib@@QBEXXZ 1000afe0 f   common:Thread.obj
 0001:0000a0a0       ??1CEvent@Win32@OnlineGameLib@@UAE@XZ 1000b0a0 f   common:Event.obj
 0001:0000a0c0       ??_GCEvent@Win32@OnlineGameLib@@UAEPAXI@Z 1000b0c0 f i common:Event.obj
 0001:0000a0c0       ??_ECEvent@Win32@OnlineGameLib@@UAEPAXI@Z 1000b0c0 f i common:Event.obj
 0001:0000a180       ??0CEvent@Win32@OnlineGameLib@@QAE@PAU_SECURITY_ATTRIBUTES@@_N1@Z 1000b180 f   common:Event.obj
 0001:0000a1b0       ??0CEvent@Win32@OnlineGameLib@@QAE@PAU_SECURITY_ATTRIBUTES@@_N1PBD@Z 1000b1b0 f   common:Event.obj
 0001:0000a1e0       ?Wait@CEvent@Win32@OnlineGameLib@@QBE_NK@Z 1000b1e0 f   common:Event.obj
 0001:0000a2a0       ?Reset@CEvent@Win32@OnlineGameLib@@QAEXXZ 1000b2a0 f   common:Event.obj
 0001:0000a330       ?Set@CEvent@Win32@OnlineGameLib@@QAEXXZ 1000b330 f   common:Event.obj
 0001:0000a3c0       ?Pulse@CEvent@Win32@OnlineGameLib@@QAEXXZ 1000b3c0 f   common:Event.obj
 0001:0000a450       ?Wait@CEvent@Win32@OnlineGameLib@@QBEXXZ 1000b450 f   common:Event.obj
 0001:0000a510       ??0CEventSelect@Win32@OnlineGameLib@@QAE@XZ 1000b510 f   common:EventSelect.obj
 0001:0000a540       ??1CEventSelect@Win32@OnlineGameLib@@QAE@XZ 1000b540 f   common:EventSelect.obj
 0001:0000a560       ?DissociateEvent@CEventSelect@Win32@OnlineGameLib@@QAEXXZ 1000b560 f   common:EventSelect.obj
 0001:0000a580       ?AssociateEvent@CEventSelect@Win32@OnlineGameLib@@QAEXIJ@Z 1000b580 f   common:EventSelect.obj
 0001:0000a6a0       ??1CUsesWinsock@Win32@OnlineGameLib@@QAE@XZ 1000b6a0 f   common:UsesWinsock.obj
 0001:0000a6b0       ??0CUsesWinsock@Win32@OnlineGameLib@@QAE@XZ 1000b6b0 f   common:UsesWinsock.obj
 0001:0000a750       ??0CManualResetEvent@Win32@OnlineGameLib@@QAE@_N@Z 1000b750 f   common:ManualResetEvent.obj
 0001:0000a770       ??0CManualResetEvent@Win32@OnlineGameLib@@QAE@PBD_N@Z 1000b770 f   common:ManualResetEvent.obj
 0001:0000a7a0       ??_GCManualResetEvent@Win32@OnlineGameLib@@UAEPAXI@Z 1000b7a0 f i common:ManualResetEvent.obj
 0001:0000a7a0       ??_ECManualResetEvent@Win32@OnlineGameLib@@UAEPAXI@Z 1000b7a0 f i common:ManualResetEvent.obj
 0001:0000a7c0       ??0CSocket@Win32@OnlineGameLib@@QAE@XZ 1000b7c0 f   common:Socket.obj
 0001:0000a7d0       ?Detatch@CSocket@Win32@OnlineGameLib@@QAEIXZ 1000b7d0 f   common:Socket.obj
 0001:0000a7e0       ??0InternetAddress@CSocket@Win32@OnlineGameLib@@QAE@KG@Z 1000b7e0 f   common:Socket.obj
 0001:0000a810       ??0InternetAddress@CSocket@Win32@OnlineGameLib@@QAE@ABV?$basic_string@DU?$char_traits@D@std@@V?$allocator@D@2@@std@@G@Z 1000b810 f   common:Socket.obj
 0001:0000a860       ??0Exception@CSocket@Win32@OnlineGameLib@@AAE@ABV?$basic_string@DU?$char_traits@D@std@@V?$allocator@D@2@@std@@K@Z 1000b860 f   common:Socket.obj
 0001:0000a880       ??1Exception@CSocket@Win32@OnlineGameLib@@UAE@XZ 1000b880 f i common:Socket.obj
 0001:0000a890       ??_EException@CSocket@Win32@OnlineGameLib@@UAEPAXI@Z 1000b890 f i common:Socket.obj
 0001:0000a890       ??_GException@CSocket@Win32@OnlineGameLib@@UAEPAXI@Z 1000b890 f i common:Socket.obj
 0001:0000a8b0       ??0CSocket@Win32@OnlineGameLib@@QAE@I@Z 1000b8b0 f   common:Socket.obj
 0001:0000a950       ?Close@CSocket@Win32@OnlineGameLib@@QAEXXZ 1000b950 f   common:Socket.obj
 0001:0000a9f0       ?AbortiveClose@CSocket@Win32@OnlineGameLib@@QAEXXZ 1000b9f0 f   common:Socket.obj
 0001:0000aab0       ?Shutdown@CSocket@Win32@OnlineGameLib@@QAEXH@Z 1000bab0 f   common:Socket.obj
 0001:0000ab50       ?Listen@CSocket@Win32@OnlineGameLib@@QAEXH@Z 1000bb50 f   common:Socket.obj
 0001:0000abf0       ?Bind@CSocket@Win32@OnlineGameLib@@QAEXABUsockaddr_in@@@Z 1000bbf0 f   common:Socket.obj
 0001:0000ac90       ?Bind@CSocket@Win32@OnlineGameLib@@QAEXABUsockaddr@@I@Z 1000bc90 f   common:Socket.obj
 0001:0000ad30       ?Connect@CSocket@Win32@OnlineGameLib@@QAEXABUsockaddr_in@@@Z 1000bd30 f   common:Socket.obj
 0001:0000add0       ?Connect@CSocket@Win32@OnlineGameLib@@QAEXABUsockaddr@@I@Z 1000bdd0 f   common:Socket.obj
 0001:0000ae70       ??0Exception@CSocket@Win32@OnlineGameLib@@QAE@ABV0123@@Z 1000be70 f i common:Socket.obj
 0001:0000aea0       ??1CSocket@Win32@OnlineGameLib@@QAE@XZ 1000bea0 f   common:Socket.obj
 0001:0000af00       ?Attach@CSocket@Win32@OnlineGameLib@@QAEXI@Z 1000bf00 f   common:Socket.obj
 0001:0000af20       ??0CWin32Exception@Win32@OnlineGameLib@@QAE@ABV?$basic_string@DU?$char_traits@D@std@@V?$allocator@D@2@@std@@K@Z 1000bf20 f   common:Win32Exception.obj
 0001:0000afb0       ?MessageBoxA@CException@Win32@OnlineGameLib@@QBEXPAUHWND__@@@Z 1000bfb0 f   common:Exception.obj
 0001:0000b080       ??0CException@Win32@OnlineGameLib@@QAE@ABV?$basic_string@DU?$char_traits@D@std@@V?$allocator@D@2@@std@@0@Z 1000c080 f   common:Exception.obj
 0001:0000b110       ?GetWhere@CException@Win32@OnlineGameLib@@UBE?AV?$basic_string@DU?$char_traits@D@std@@V?$allocator@D@2@@std@@XZ 1000c110 f   common:Exception.obj
 0001:0000b140       ?GetMessageA@CException@Win32@OnlineGameLib@@UBE?AV?$basic_string@DU?$char_traits@D@std@@V?$allocator@D@2@@std@@XZ 1000c140 f   common:Exception.obj
 0001:0000b170       ?Next@Node@CNodeList@OnlineGameLib@@QBEPAV123@XZ 1000c170 f i common:NodeList.obj
 0001:0000b180       ?Next@Node@CNodeList@OnlineGameLib@@QAEXPAV123@@Z 1000c180 f i common:NodeList.obj
 0001:0000b190       ??0CNodeList@OnlineGameLib@@QAE@XZ 1000c190 f   common:NodeList.obj
 0001:0000b1a0       ??0Node@CNodeList@OnlineGameLib@@IAE@XZ 1000c1a0 f   common:NodeList.obj
 0001:0000b1b0       ?AddToList@Node@CNodeList@OnlineGameLib@@QAEXPAV23@@Z 1000c1b0 f   common:NodeList.obj
 0001:0000b1c0       ?Unlink@Node@CNodeList@OnlineGameLib@@AAEXXZ 1000c1c0 f   common:NodeList.obj
 0001:0000b1f0       ?PushNode@CNodeList@OnlineGameLib@@QAEXPAVNode@12@@Z 1000c1f0 f   common:NodeList.obj
 0001:0000b210       ?RemoveNode@CNodeList@OnlineGameLib@@AAEXPAVNode@12@@Z 1000c210 f   common:NodeList.obj
 0001:0000b230       ?RemoveFromList@Node@CNodeList@OnlineGameLib@@QAEXXZ 1000c230 f   common:NodeList.obj
 0001:0000b240       ?PopNode@CNodeList@OnlineGameLib@@QAEPAVNode@12@XZ 1000c240 f   common:NodeList.obj
 0001:0000b260       ??1Node@CNodeList@OnlineGameLib@@IAE@XZ 1000c260 f   common:NodeList.obj
 0001:0000b274       ??3@YAXPAX@Z               1000c274 f   LIBCMT:delete.obj
 0001:0000b279       ??0exception@std@@QAE@XZ   1000c279 f   LIBCMT:stdexcpt.obj
 0001:0000b28a       ??0exception@std@@QAE@ABQBD@Z 1000c28a f   LIBCMT:stdexcpt.obj
 0001:0000b2d8       ??0exception@std@@QAE@ABQBDH@Z 1000c2d8 f   LIBCMT:stdexcpt.obj
 0001:0000b2f0       ??0exception@std@@QAE@ABV01@@Z 1000c2f0 f   LIBCMT:stdexcpt.obj
 0001:0000b348       ??4exception@std@@QAEAAV01@ABV01@@Z 1000c348 f   LIBCMT:stdexcpt.obj
 0001:0000b39e       ??1exception@std@@UAE@XZ   1000c39e f   LIBCMT:stdexcpt.obj
 0001:0000b3b4       ?what@exception@std@@UBEPBDXZ 1000c3b4 f   LIBCMT:stdexcpt.obj
 0001:0000b3c1       ??0bad_cast@std@@QAE@PBD@Z 1000c3c1 f   LIBCMT:stdexcpt.obj
 0001:0000b3da       ??0bad_cast@std@@QAE@ABV01@@Z 1000c3da f   LIBCMT:stdexcpt.obj
 0001:0000b3f2       ??1bad_cast@std@@UAE@XZ    1000c3f2 f   LIBCMT:stdexcpt.obj
 0001:0000b3fd       ??0bad_typeid@std@@QAE@PBD@Z 1000c3fd f   LIBCMT:stdexcpt.obj
 0001:0000b416       ??0bad_typeid@std@@QAE@ABV01@@Z 1000c416 f   LIBCMT:stdexcpt.obj
 0001:0000b42e       ??1bad_typeid@std@@UAE@XZ  1000c42e f   LIBCMT:stdexcpt.obj
 0001:0000b439       ??0__non_rtti_object@std@@QAE@PBD@Z 1000c439 f   LIBCMT:stdexcpt.obj
 0001:0000b451       ??0__non_rtti_object@std@@QAE@ABV01@@Z 1000c451 f   LIBCMT:stdexcpt.obj
 0001:0000b469       ??1__non_rtti_object@std@@UAE@XZ 1000c469 f   LIBCMT:stdexcpt.obj
 0001:0000b474       ??_Gexception@std@@UAEPAXI@Z 1000c474 f i LIBCMT:stdexcpt.obj
 0001:0000b474       ??_Eexception@std@@UAEPAXI@Z 1000c474 f i LIBCMT:stdexcpt.obj
 0001:0000b490       ??_Ebad_cast@std@@UAEPAXI@Z 1000c490 f i LIBCMT:stdexcpt.obj
 0001:0000b490       ??_Gbad_cast@std@@UAEPAXI@Z 1000c490 f i LIBCMT:stdexcpt.obj
 0001:0000b4b2       ??_Gbad_typeid@std@@UAEPAXI@Z 1000c4b2 f i LIBCMT:stdexcpt.obj
 0001:0000b4b2       ??_Ebad_typeid@std@@UAEPAXI@Z 1000c4b2 f i LIBCMT:stdexcpt.obj
 0001:0000b4d4       ??_G__non_rtti_object@std@@UAEPAXI@Z 1000c4d4 f i LIBCMT:stdexcpt.obj
 0001:0000b4d4       ??_E__non_rtti_object@std@@UAEPAXI@Z 1000c4d4 f i LIBCMT:stdexcpt.obj
 0001:0000b4f6       ?name@type_info@@QBEPBDPAU__type_info_node@@@Z 1000c4f6 f   LIBCMT:typinfo.obj
 0001:0000b505       ??1type_info@@UAE@XZ       1000c505 f   LIBCMT:typinfo.obj
 0001:0000b513       ??_Gtype_info@@UAEPAXI@Z   1000c513 f i LIBCMT:typinfo.obj
 0001:0000b513       ??_Etype_info@@UAEPAXI@Z   1000c513 f i LIBCMT:typinfo.obj
 0001:0000b52f       ?_name_internal_method@type_info@@QBEPBDPAU__type_info_node@@@Z 1000c52f f   LIBCMT:typinfo.obj
 0001:0000b53e       ?_type_info_dtor_internal_method@type_info@@QAEXXZ 1000c53e f   LIBCMT:typinfo.obj
 0001:0000b546       ??8type_info@@QBE_NABV0@@Z 1000c546 f   LIBCMT:typinfo.obj
 0001:0000b561       ??9type_info@@QBE_NABV0@@Z 1000c561 f   LIBCMT:typinfo.obj
 0001:0000b57d       ?before@type_info@@QBEHABV1@@Z 1000c57d f   LIBCMT:typinfo.obj
 0001:0000b59c       ?raw_name@type_info@@QBEPBDXZ 1000c59c f   LIBCMT:typinfo.obj
 0001:0000b5a0       ??0type_info@@AAE@ABV0@@Z  1000c5a0 f   LIBCMT:typinfo.obj
 0001:0000b5ab       ??4type_info@@AAEAAV0@ABV0@@Z 1000c5ab f   LIBCMT:typinfo.obj
 0001:0000b5b0       _memcpy_s                  1000c5b0 f   LIBCMT:memcpy_s.obj
 0001:0000b62b       _memmove_s                 1000c62b f   LIBCMT:memmove_s.obj
 0001:0000b686       __time64                   1000c686 f   LIBCMT:time64.obj
 0001:0000b6c2       ?_JumpToContinuation@@YGXPAXPAUEHRegistrationNode@@@Z 1000c6c2 f   LIBCMT:trnsctrl.obj
 0001:0000b6f2       ?_CallMemberFunction0@@YGXPAX0@Z 1000c6f2 f   LIBCMT:trnsctrl.obj
 0001:0000b6f9       ?_CallMemberFunction1@@YGXPAX00@Z 1000c6f9 f   LIBCMT:trnsctrl.obj
 0001:0000b700       ?_CallMemberFunction2@@YGXPAX00H@Z 1000c700 f   LIBCMT:trnsctrl.obj
 0001:0000b707       ?_UnwindNestedFrames@@YGXPAUEHRegistrationNode@@PAUEHExceptionRecord@@@Z 1000c707 f   LIBCMT:trnsctrl.obj
 0001:0000b759       ___CxxFrameHandler         1000c759 f   LIBCMT:trnsctrl.obj
 0001:0000b78f       ___CxxFrameHandler3        1000c78f f   LIBCMT:trnsctrl.obj
 0001:0000b7c5       ___CxxFrameHandler2        1000c7c5 f   LIBCMT:trnsctrl.obj
 0001:0000b7fb       ___CxxLongjmpUnwind@4      1000c7fb f   LIBCMT:trnsctrl.obj
 0001:0000b845       ?_CallSETranslator@@YAHPAUEHExceptionRecord@@PAUEHRegistrationNode@@PAX2PBU_s_FuncInfo@@H1@Z 1000c845 f   LIBCMT:trnsctrl.obj
 0001:0000b9b7       ?_GetRangeOfTrysToCheck@@YAPBU_s_TryBlockMapEntry@@PBU_s_FuncInfo@@HHPAI1@Z 1000c9b7 f   LIBCMT:trnsctrl.obj
 0001:0000ba2a       __CreateFrameInfo          1000ca2a f   LIBCMT:trnsctrl.obj
 0001:0000ba52       __IsExceptionObjectToBeDestroyed 1000ca52 f   LIBCMT:trnsctrl.obj
 0001:0000ba73       __FindAndUnlinkFrame       1000ca73 f   LIBCMT:trnsctrl.obj
 0001:0000babf       ?_CallCatchBlock2@@YAPAXPAUEHRegistrationNode@@PBU_s_FuncInfo@@PAXHK@Z 1000cabf f   LIBCMT:trnsctrl.obj
 0001:0000bb1d       @__security_check_cookie@4 1000cb1d f   LIBCMT:secchk.obj
 0001:0000bb2c       ??0bad_alloc@std@@QAE@XZ   1000cb2c f i LIBCMT:new.obj
 0001:0000bb45       ??2@YAPAXI@Z               1000cb45 f   LIBCMT:new.obj
 0001:0000bbaf       __CxxThrowException@8      1000cbaf f   LIBCMT:throw.obj
 0001:0000bbf9       __set_osplatform           1000cbf9 f i LIBCMT:dllcrt0.obj
 0001:0000bc03       __set_osver                1000cc03 f i LIBCMT:dllcrt0.obj
 0001:0000bc0d       __set_winver               1000cc0d f i LIBCMT:dllcrt0.obj
 0001:0000bc17       __set_winmajor             1000cc17 f i LIBCMT:dllcrt0.obj
 0001:0000bc21       __set_winminor             1000cc21 f i LIBCMT:dllcrt0.obj
 0001:0000bc2b       __CRT_INIT@12              1000cc2b f   LIBCMT:dllcrt0.obj
 0001:0000befa       __DllMainCRTStartup@12     1000cefa f   LIBCMT:dllcrt0.obj
 0001:0000bf20       _memset                    1000cf20 f   LIBCMT:memset.obj
 0001:0000bf9a       __purecall                 1000cf9a f   LIBCMT:purevirt.obj
 0001:0000bfc4       __set_purecall_handler     1000cfc4 f   LIBCMT:purevirt.obj
 0001:0000bfe6       __get_purecall_handler     1000cfe6 f   LIBCMT:purevirt.obj
 0001:0000bff3       ??_V@YAXPAX@Z              1000cff3 f   LIBCMT:delete2.obj
 0001:0000bff8       ??_U@YAPAXI@Z              1000cff8 f   LIBCMT:new2.obj
 0001:0000c000       _memmove                   1000d000 f   LIBCMT:memmove.obj
 0001:0000c365       __initp_misc_invarg        1000d365 f   LIBCMT:invarg.obj
 0001:0000c36f       __invoke_watson            1000d36f f   LIBCMT:invarg.obj
 0001:0000c46b       __set_invalid_parameter_handler 1000d46b f   LIBCMT:invarg.obj
 0001:0000c48d       __get_invalid_parameter_handler 1000d48d f   LIBCMT:invarg.obj
 0001:0000c49a       ?_invoke_watson@@YAXPBG00II@Z 1000d49a f   LIBCMT:invarg.obj
 0001:0000c4a3       __invalid_parameter        1000d4a3 f   LIBCMT:invarg.obj
 0001:0000c4c7       __invalid_parameter_noinfo 1000d4c7 f   LIBCMT:invarg.obj
 0001:0000c4d7       ?_invalid_parameter@@YAXPBG00II@Z 1000d4d7 f   LIBCMT:invarg.obj
 0001:0000c4e0       _memcpy                    1000d4e0 f   LIBCMT:memcpy.obj
 0001:0000c845       _free                      1000d845 f   LIBCMT:free.obj
 0001:0000c8d3       _atol                      1000d8d3 f   LIBCMT:atox.obj
 0001:0000c8e4       __atol_l                   1000d8e4 f   LIBCMT:atox.obj
 0001:0000c8f9       _atoi                      1000d8f9 f   LIBCMT:atox.obj
 0001:0000c8fe       __atoi_l                   1000d8fe f   LIBCMT:atox.obj
 0001:0000c903       __atoi64                   1000d903 f   LIBCMT:atox.obj
 0001:0000c914       __atoi64_l                 1000d914 f   LIBCMT:atox.obj
 0001:0000c929       _strtok                    1000d929 f   LIBCMT:strtok.obj
 0001:0000c9e8       _sprintf                   1000d9e8 f   LIBCMT:sprintf.obj
 0001:0000ca63       __sprintf_l                1000da63 f   LIBCMT:sprintf.obj
 0001:0000ca7d       _sprintf_s                 1000da7d f   LIBCMT:sprintf.obj
 0001:0000ca99       __sprintf_s_l              1000da99 f   LIBCMT:sprintf.obj
 0001:0000cab6       __snprintf_s               1000dab6 f   LIBCMT:sprintf.obj
 0001:0000cad5       __snprintf_s_l             1000dad5 f   LIBCMT:sprintf.obj
 0001:0000caf5       __sprintf_p                1000daf5 f   LIBCMT:sprintf.obj
 0001:0000cb11       __sprintf_p_l              1000db11 f   LIBCMT:sprintf.obj
 0001:0000cb2e       __scprintf                 1000db2e f   LIBCMT:sprintf.obj
 0001:0000cb3f       __scprintf_p               1000db3f f   LIBCMT:sprintf.obj
 0001:0000cb50       __scprintf_l               1000db50 f   LIBCMT:sprintf.obj
 0001:0000cb66       __scprintf_p_l             1000db66 f   LIBCMT:sprintf.obj
 0001:0000cb7c       _fgetc                     1000db7c f   LIBCMT:fgetc.obj
 0001:0000ccb3       _getc                      1000dcb3 f   LIBCMT:fgetc.obj
 0001:0000cdea       __getc_nolock              1000ddea f   LIBCMT:fgetc.obj
 0001:0000ce04       _fputc                     1000de04 f   LIBCMT:fputc.obj
 0001:0000cf43       _putc                      1000df43 f   LIBCMT:fputc.obj
 0001:0000d082       __ungetc_nolock            1000e082 f   LIBCMT:ungetc.obj
 0001:0000d1a0       _ungetc                    1000e1a0 f   LIBCMT:ungetc.obj
 0001:0000d212       __flush                    1000e212 f   LIBCMT:fflush.obj
 0001:0000d274       __fflush_nolock            1000e274 f   LIBCMT:fflush.obj
 0001:0000d390       _fflush                    1000e390 f   LIBCMT:fflush.obj
 0001:0000d3e3       __flushall                 1000e3e3 f   LIBCMT:fflush.obj
 0001:0000d3ec       _setvbuf                   1000e3ec f   LIBCMT:setvbuf.obj
 0001:0000d4ea       __fwrite_nolock            1000e4ea f   LIBCMT:fwrite.obj
 0001:0000d649       _fwrite                    1000e649 f   LIBCMT:fwrite.obj
 0001:0000d6cb       _fgetpos                   1000e6cb f   LIBCMT:fgetpos.obj
 0001:0000d736       __fseek_nolock             1000e736 f   LIBCMT:fseek.obj
 0001:0000d7bd       _fseek                     1000e7bd f   LIBCMT:fseek.obj
 0001:0000d842       _fsetpos                   1000e842 f   LIBCMT:fsetpos.obj
 0001:0000d884       __fclose_nolock            1000e884 f   LIBCMT:fclose.obj
 0001:0000d8f6       _fclose                    1000e8f6 f   LIBCMT:fclose.obj
 0001:0000d972       ??0_LocaleUpdate@@QAE@PAUlocaleinfo_struct@@@Z 1000e972 f i LIBCMT:toupper.obj
 0001:0000d9f4       ??1_LocaleUpdate@@QAE@XZ   1000e9f4 f i LIBCMT:toupper.obj
 0001:0000da02       ?GetLocaleT@_LocaleUpdate@@QAEPAUlocaleinfo_struct@@XZ 1000ea02 f i LIBCMT:toupper.obj
 0001:0000da05       __toupper                  1000ea05 f   LIBCMT:toupper.obj
 0001:0000da0d       __toupper_l                1000ea0d f   LIBCMT:toupper.obj
 0001:0000db25       _toupper                   1000eb25 f   LIBCMT:toupper.obj
 0001:0000db4c       __isalpha_l                1000eb4c f i LIBCMT:_ctype.obj
 0001:0000dba0       _isalpha                   1000eba0 f i LIBCMT:_ctype.obj
 0001:0000dbcb       __isupper_l                1000ebcb f i LIBCMT:_ctype.obj
 0001:0000dc1a       _isupper                   1000ec1a f i LIBCMT:_ctype.obj
 0001:0000dc43       __islower_l                1000ec43 f i LIBCMT:_ctype.obj
 0001:0000dc92       _islower                   1000ec92 f i LIBCMT:_ctype.obj
 0001:0000dcbb       __isdigit_l                1000ecbb f i LIBCMT:_ctype.obj
 0001:0000dd0a       _isdigit                   1000ed0a f i LIBCMT:_ctype.obj
 0001:0000dd33       __isxdigit_l               1000ed33 f i LIBCMT:_ctype.obj
 0001:0000dd87       _isxdigit                  1000ed87 f i LIBCMT:_ctype.obj
 0001:0000ddb2       __isspace_l                1000edb2 f i LIBCMT:_ctype.obj
 0001:0000de01       _isspace                   1000ee01 f i LIBCMT:_ctype.obj
 0001:0000de2a       __ispunct_l                1000ee2a f i LIBCMT:_ctype.obj
 0001:0000de79       _ispunct                   1000ee79 f i LIBCMT:_ctype.obj
 0001:0000dea2       __isalnum_l                1000eea2 f i LIBCMT:_ctype.obj
 0001:0000def6       _isalnum                   1000eef6 f i LIBCMT:_ctype.obj
 0001:0000df21       __isprint_l                1000ef21 f i LIBCMT:_ctype.obj
 0001:0000df75       _isprint                   1000ef75 f i LIBCMT:_ctype.obj
 0001:0000dfa0       __isgraph_l                1000efa0 f i LIBCMT:_ctype.obj
 0001:0000dff4       _isgraph                   1000eff4 f i LIBCMT:_ctype.obj
 0001:0000e01f       __iscntrl_l                1000f01f f i LIBCMT:_ctype.obj
 0001:0000e06e       _iscntrl                   1000f06e f i LIBCMT:_ctype.obj
 0001:0000e097       ___isascii                 1000f097 f i LIBCMT:_ctype.obj
 0001:0000e0a4       ___toascii                 1000f0a4 f i LIBCMT:_ctype.obj
 0001:0000e0ac       __iscsymf_l                1000f0ac f i LIBCMT:_ctype.obj
 0001:0000e0cb       ___iscsymf                 1000f0cb f i LIBCMT:_ctype.obj
 0001:0000e0e5       __iscsym_l                 1000f0e5 f i LIBCMT:_ctype.obj
 0001:0000e104       ___iscsym                  1000f104 f i LIBCMT:_ctype.obj
 0001:0000e1d9       ___onexitinit              1000f1d9 f   LIBCMT:onexit.obj
 0001:0000e208       __onexit                   1000f208 f   LIBCMT:onexit.obj
 0001:0000e244       _atexit                    1000f244 f   LIBCMT:onexit.obj
 0001:0000e256       __endthreadex              1000f256 f   LIBCMT:threadex.obj
 0001:0000e350       __beginthreadex            1000f350 f   LIBCMT:threadex.obj
 0001:0000e3fe       _strcpy_s                  1000f3fe f   LIBCMT:strcpy_s.obj
 0001:0000e463       _V6_HeapAlloc              1000f463 f   LIBCMT:malloc.obj
 0001:0000e4b2       __heap_alloc               1000f4b2 f i LIBCMT:malloc.obj
 0001:0000e527       _malloc                    1000f527 f   LIBCMT:malloc.obj
 0001:0000e5f0       _strlen                    1000f5f0 f   LIBCMT:strlen.obj
 0001:0000e67b       __invoke_watson_if_error   1000f67b f i LIBCMT:typname.obj
 0001:0000e69d       ?_Type_info_dtor@type_info@@CAXPAV1@@Z 1000f69d f   LIBCMT:typname.obj
 0001:0000e70d       ?_Name_base@type_info@@CAPBDPBV1@PAU__type_info_node@@@Z 1000f70d f   LIBCMT:typname.obj
 0001:0000e802       ?_Type_info_dtor_internal@type_info@@CAXPAV1@@Z 1000f802 f   LIBCMT:typname.obj
 0001:0000e872       ___unDNameHelper           1000f872 f   LIBCMT:typname.obj
 0001:0000e8a3       ?_Name_base_internal@type_info@@CAPBDPBV1@PAU__type_info_node@@@Z 1000f8a3 f   LIBCMT:typname.obj
 0001:0000e98e       ___clean_type_info_names_internal 1000f98e f   LIBCMT:typname.obj
 0001:0000e9f0       _strcmp                    1000f9f0 f   LIBCMT:strcmp.obj
 0001:0000ea78       __get_errno_from_oserr     1000fa78 f   LIBCMT:dosmap.obj
 0001:0000eab3       __errno                    1000fab3 f   LIBCMT:dosmap.obj
 0001:0000eac6       ___doserrno                1000fac6 f   LIBCMT:dosmap.obj
 0001:0000ead9       __dosmaperr                1000fad9 f   LIBCMT:dosmap.obj
 0001:0000eaf7       __set_errno                1000faf7 f   LIBCMT:dosmap.obj
 0001:0000eb12       __get_errno                1000fb12 f   LIBCMT:dosmap.obj
 0001:0000eb3c       __set_doserrno             1000fb3c f   LIBCMT:dosmap.obj
 0001:0000eb57       __get_doserrno             1000fb57 f   LIBCMT:dosmap.obj
 0001:0000eb90       __aulldiv                  1000fb90 f   LIBCMT:ulldiv.obj
 0001:0000ebf8       ??0bad_exception@std@@QAE@PBD@Z 1000fbf8 f i LIBCMT:frame.obj
 0001:0000ec11       ??1bad_exception@std@@UAE@XZ 1000fc11 f i LIBCMT:frame.obj
 0001:0000ec1c       ??_Ebad_exception@std@@UAEPAXI@Z 1000fc1c f i LIBCMT:frame.obj
 0001:0000ec1c       ??_Gbad_exception@std@@UAEPAXI@Z 1000fc1c f i LIBCMT:frame.obj
 0001:0000ec3e       ___TypeMatch               1000fc3e f   LIBCMT:frame.obj
 0001:0000ec9a       ___FrameUnwindFilter       1000fc9a f   LIBCMT:frame.obj
 0001:0000ecde       ___FrameUnwindToState      1000fcde f   LIBCMT:frame.obj
 0001:0000ee04       ___DestructExceptionObject 1000fe04 f   LIBCMT:frame.obj
 0001:0000ee58       ___AdjustPointer           1000fe58 f   LIBCMT:frame.obj
 0001:0000ee7d       ?__uncaught_exception@@YA_NXZ 1000fe7d f   LIBCMT:frame.obj
 0001:0000ee90       ___CxxRegisterExceptionObject 1000fe90 f   LIBCMT:frame.obj
 0001:0000ef43       ___CxxDetectRethrow        1000ff43 f   LIBCMT:frame.obj
 0001:0000ef8f       ___CxxUnregisterExceptionObject 1000ff8f f   LIBCMT:frame.obj
 0001:0000f0c8       ___CxxQueryExceptionSize   100100c8 f   LIBCMT:frame.obj
 0001:0000f0cc       ___CxxCallUnwindDtor       100100cc f   LIBCMT:frame.obj
 0001:0000f0fe       ___CxxCallUnwindDelDtor    100100fe f   LIBCMT:frame.obj
 0001:0000f131       ___CxxCallUnwindStdDelDtor 10010131 f   LIBCMT:frame.obj
 0001:0000f163       ___CxxCallUnwindVecDtor    10010163 f   LIBCMT:frame.obj
 0001:0000f290       ?_is_exception_typeof@@YAHABVtype_info@@PAU_EXCEPTION_POINTERS@@@Z 10010290 f   LIBCMT:frame.obj
 0001:0000f4ae       ___BuildCatchObjectHelper  100104ae f   LIBCMT:frame.obj
 0001:0000f62d       ___BuildCatchObject        1001062d f   LIBCMT:frame.obj
 0001:0000f6be       ___CxxExceptionFilter      100106be f   LIBCMT:frame.obj
 0001:0000fcb5       ??0bad_exception@std@@QAE@ABV01@@Z 10010cb5 f i LIBCMT:frame.obj
 0001:0000fccd       ___InternalCxxFrameHandler 10010ccd f   LIBCMT:frame.obj
 0001:0000fe1d       __encode_pointer           10010e1d f   LIBCMT:tidtable.obj
 0001:0000fe8b       __encoded_null             10010e8b f   LIBCMT:tidtable.obj
 0001:0000fe94       __decode_pointer           10010e94 f   LIBCMT:tidtable.obj
 0001:0000ff02       ___crtTlsAlloc@4           10010f02 f   LIBCMT:tidtable.obj
 0001:0000ff0b       ___fls_getvalue@4          10010f0b f   LIBCMT:tidtable.obj
 0001:0000ff20       ___get_flsindex            10010f20 f   LIBCMT:tidtable.obj
 0001:0000ff26       ___set_flsgetvalue         10010f26 f   LIBCMT:tidtable.obj
 0001:0000ff58       ___fls_setvalue@8          10010f58 f   LIBCMT:tidtable.obj
 0001:0000ff71       __mtterm                   10010f71 f   LIBCMT:tidtable.obj
 0001:0000ffae       __initptd                  10010fae f   LIBCMT:tidtable.obj
 0001:0001006d       __getptd_noexit            1001106d f   LIBCMT:tidtable.obj
 0001:000100e4       __getptd                   100110e4 f   LIBCMT:tidtable.obj
 0001:000100fc       __freefls@4                100110fc f   LIBCMT:tidtable.obj
 0001:0001021d       __freeptd                  1001121d f   LIBCMT:tidtable.obj
 0001:00010286       ___threadid                10011286 f   LIBCMT:tidtable.obj
 0001:0001028c       ___threadhandle            1001128c f   LIBCMT:tidtable.obj
 0001:00010292       __mtinit                   10011292 f   LIBCMT:tidtable.obj
 0001:00010416       ?terminate@@YAXXZ          10011416 f   LIBCMT:hooks.obj
 0001:0001044f       ?unexpected@@YAXXZ         1001144f f   LIBCMT:hooks.obj
 0001:00010462       ?_inconsistency@@YAXXZ     10011462 f   LIBCMT:hooks.obj
 0001:00010499       __initp_eh_hooks           10011499 f   LIBCMT:hooks.obj
 0001:000104b0       __CallSettingFrame@12      100114b0 f   LIBCMT:lowhelpr.obj
 0001:000104d7       __NLG_Return               100114d7     LIBCMT:lowhelpr.obj
 0001:000104fc       ___report_gsfailure        100114fc f   LIBCMT:gs_report.obj
 0001:00010600       __initp_heap_handler       10011600 f   LIBCMT:handler.obj
 0001:0001060a       ?_set_new_handler@@YAP6AHI@ZP6AHI@Z@Z 1001160a f   LIBCMT:handler.obj
 0001:0001063b       ?_set_new_handler@@YAP6AHI@ZH@Z 1001163b f   LIBCMT:handler.obj
 0001:00010644       ?_query_new_handler@@YAP6AHI@ZXZ 10011644 f   LIBCMT:handler.obj
 0001:00010651       __callnewh                 10011651 f   LIBCMT:handler.obj
 0001:00010673       __amsg_exit                10011673 f   LIBCMT:crt0dat.obj
 0001:00010697       ___crtCorExitProcess       10011697 f   LIBCMT:crt0dat.obj
 0001:000106bd       ___crtExitProcess          100116bd f   LIBCMT:crt0dat.obj
 0001:000106d2       __lockexit                 100116d2 f   LIBCMT:crt0dat.obj
 0001:000106db       __unlockexit               100116db f   LIBCMT:crt0dat.obj
 0001:000106fc       __initterm_e               100116fc f   LIBCMT:crt0dat.obj
 0001:0001071c       __get_osplatform           1001171c f   LIBCMT:crt0dat.obj
 0001:00010753       __get_osver                10011753 f   LIBCMT:crt0dat.obj
 0001:0001078f       __get_winver               1001178f f   LIBCMT:crt0dat.obj
 0001:000107cb       __get_winmajor             100117cb f   LIBCMT:crt0dat.obj
 0001:00010807       __get_winminor             10011807 f   LIBCMT:crt0dat.obj
 0001:00010843       __get_wpgmptr              10011843 f   LIBCMT:crt0dat.obj
 0001:0001087a       __get_pgmptr               1001187a f   LIBCMT:crt0dat.obj
 0001:000108b1       __cinit                    100118b1 f   LIBCMT:crt0dat.obj
 0001:00010a25       _exit                      10011a25 f   LIBCMT:crt0dat.obj
 0001:00010a36       __exit                     10011a36 f   LIBCMT:crt0dat.obj
 0001:00010a47       __cexit                    10011a47 f   LIBCMT:crt0dat.obj
 0001:00010a56       __c_exit                   10011a56 f   LIBCMT:crt0dat.obj
 0001:00010a65       __init_pointers            10011a65 f   LIBCMT:crt0dat.obj
 0001:00010ab1       _wait_a_bit                10011ab1 f i LIBCMT:crtheap.obj
 0001:00010ad2       __set_malloc_crt_max_wait  10011ad2 f   LIBCMT:crtheap.obj
 0001:00010ae2       __malloc_crt               10011ae2 f   LIBCMT:crtheap.obj
 0001:00010b22       __calloc_crt               10011b22 f   LIBCMT:crtheap.obj
 0001:00010b6a       __realloc_crt              10011b6a f   LIBCMT:crtheap.obj
 0001:00010bb5       __recalloc_crt             10011bb5 f   LIBCMT:crtheap.obj
 0001:00010c05       @_malloc_crt_fastcall@4    10011c05 f   LIBCMT:crtheap.obj
 0001:00010c0d       @_calloc_crt_fastcall@8    10011c0d f   LIBCMT:crtheap.obj
 0001:00010c17       @_realloc_crt_fastcall@8   10011c17 f   LIBCMT:crtheap.obj
 0001:00010c21       __ioinit                   10011c21 f   LIBCMT:ioinit.obj
 0001:00010e61       __ioterm                   10011e61 f   LIBCMT:ioinit.obj
 0001:00010ead       __setenvp                  10011ead f   LIBCMT:stdenvp.obj
 0001:00010f88       __set_pgmptr               10011f88 f i LIBCMT:stdargv.obj
 0001:0001112a       __setargv                  1001212a f   LIBCMT:stdargv.obj
 0001:000111e3       ___crtGetEnvironmentStringsA 100121e3 f   LIBCMT:a_env.obj
 0001:00011318       __RTC_Initialize           10012318 f   LIBCMT:initsect.obj
 0001:0001133c       __RTC_Terminate            1001233c f   LIBCMT:initsect.obj
 0001:00011360       ___heap_select             10012360 f   LIBCMT:heapinit.obj
 0001:000113bb       __heap_init                100123bb f   LIBCMT:heapinit.obj
 0001:00011415       __heap_term                10012415 f   LIBCMT:heapinit.obj
 0001:00011489       __get_heap_handle          10012489 f   LIBCMT:heapinit.obj
 0001:0001148f       __initp_misc_winxfltr      1001248f f   LIBCMT:winxfltr.obj
 0001:000114c2       __XcptFilter               100124c2 f   LIBCMT:winxfltr.obj
 0001:00011620       ___CppXcptFilter           10012620 f   LIBCMT:winxfltr.obj
 0001:0001163c       __SEH_prolog4              1001263c f   LIBCMT:sehprolg4.obj
 0001:00011681       __SEH_epilog4              10012681 f   LIBCMT:sehprolg4.obj
 0001:000116d0       __except_handler4          100126d0 f   LIBCMT:chandler4.obj
 0001:00011866       ___security_init_cookie    10012866 f   LIBCMT:gs_support.obj
 0001:00011951       __VEC_memzero              10012951 f   LIBCMT:p4_memset.obj
 0001:000119e0       __sse2_mathfcns_init       100129e0 f   LIBCMT:mathfcns.obj
 0001:000119f4       __set_SSE2_enable          100129f4 f   LIBCMT:mathfcns.obj
 0001:00011a08       _abort                     10012a08 f   LIBCMT:abort.obj
 0001:00011afb       __set_abort_behavior       10012afb f   LIBCMT:abort.obj
 0001:00011b19       __NMSG_WRITE               10012b19 f   LIBCMT:crt0msg.obj
 0001:00011cb9       __GET_RTERRMSG             10012cb9 f   LIBCMT:crt0msg.obj
 0001:00011cd9       __FF_MSGBANNER             10012cd9 f   LIBCMT:crt0msg.obj
 0001:00011d12       ___getlocaleinfo           10012d12 f   LIBCMT:inithelp.obj
 0001:00011e6c       __initp_misc_purevirt      10012e6c f   LIBCMT:inithelp.obj
 0001:00011efd       __VEC_memcpy               10012efd f   LIBCMT:p4_memcpy.obj
 0001:00011fe0       __crt_debugger_hook        10012fe0 f   LIBCMT:dbghook.obj
 0001:00011fe8       __mtinitlocks              10012fe8 f   LIBCMT:mlock.obj
 0001:00012031       __mtdeletelocks            10013031 f   LIBCMT:mlock.obj
 0001:00012086       __unlock                   10013086 f   LIBCMT:mlock.obj
 0001:0001209b       __lockerr_exit             1001309b f   LIBCMT:mlock.obj
 0001:000120b3       __mtinitlocknum            100130b3 f   LIBCMT:mlock.obj
 0001:00012176       __lock                     10013176 f   LIBCMT:mlock.obj
 0001:000121a7       __get_sbh_threshold        100131a7 f   LIBCMT:sbheap.obj
 0001:000121c8       __set_amblksiz             100131c8 f   LIBCMT:sbheap.obj
 0001:0001220e       __get_amblksiz             1001320e f   LIBCMT:sbheap.obj
 0001:0001224a       ___sbh_heap_init           1001324a f   LIBCMT:sbheap.obj
 0001:00012292       ___sbh_find_block          10013292 f   LIBCMT:sbheap.obj
 0001:000122bd       ___sbh_free_block          100132bd f   LIBCMT:sbheap.obj
 0001:000125d1       ___sbh_alloc_new_region    100135d1 f   LIBCMT:sbheap.obj
 0001:00012681       ___sbh_alloc_new_group     10013681 f   LIBCMT:sbheap.obj
 0001:00012787       ___sbh_resize_block        10013787 f   LIBCMT:sbheap.obj
 0001:00012a66       ___sbh_heapmin             10013a66 f   LIBCMT:sbheap.obj
 0001:00012b33       ___sbh_heap_check          10013b33 f   LIBCMT:sbheap.obj
 0001:00012e15       __set_sbh_threshold        10013e15 f   LIBCMT:sbheap.obj
 0001:00012ebd       ___sbh_alloc_block         10013ebd f   LIBCMT:sbheap.obj
 0001:000133cb       _strtol                    100143cb f   LIBCMT:strtol.obj
 0001:000133f4       __strtol_l                 100143f4 f   LIBCMT:strtol.obj
 0001:0001340f       _strtoul                   1001440f f   LIBCMT:strtol.obj
 0001:00013439       __strtoul_l                10014439 f   LIBCMT:strtol.obj
 0001:000136e8       __strtoi64                 100146e8 f   LIBCMT:strtoq.obj
 0001:00013711       __strtoi64_l               10014711 f   LIBCMT:strtoq.obj
 0001:0001372c       __strtoui64                1001472c f   LIBCMT:strtoq.obj
 0001:00013756       __strtoui64_l              10014756 f   LIBCMT:strtoq.obj
 0001:00013771       __flsbuf                   10014771 f   LIBCMT:_flsbuf.obj
 0001:00013972       _get_int_arg               10014972 f i LIBCMT:output.obj
 0001:0001397f       _get_int64_arg             1001497f f i LIBCMT:output.obj
 0001:0001398f       _get_short_arg             1001498f f i LIBCMT:output.obj
 0001:0001399d       __output_l                 1001499d f   LIBCMT:output.obj
 0001:00014331       __vsprintf_l               10015331 f   LIBCMT:vsprintf.obj
 0001:000143ad       _vsprintf                  100153ad f   LIBCMT:vsprintf.obj
 0001:000143c4       __vscprintf_helper         100153c4 f   LIBCMT:vsprintf.obj
 0001:00014419       __vscprintf                10015419 f   LIBCMT:vsprintf.obj
 0001:00014431       __vscprintf_l              10015431 f   LIBCMT:vsprintf.obj
 0001:0001444b       __vscprintf_p              1001544b f   LIBCMT:vsprintf.obj
 0001:00014463       __vscprintf_p_l            10015463 f   LIBCMT:vsprintf.obj
 0001:0001447d       __vsnprintf_helper         1001547d f   LIBCMT:vsnprnc.obj
 0001:00014547       __vsnprintf_c              10015547 f   LIBCMT:vsnprnc.obj
 0001:0001456e       __vsnprintf_c_l            1001556e f   LIBCMT:vsnprnc.obj
 0001:00014596       __vsprintf_s_l             10015596 f   LIBCMT:vsnprnc.obj
 0001:0001461c       _vsprintf_s                1001561c f   LIBCMT:vsnprnc.obj
 0001:00014637       __vsnprintf_s_l            10015637 f   LIBCMT:vsnprnc.obj
 0001:0001473c       __vsnprintf_s              1001573c f   LIBCMT:vsnprnc.obj
 0001:0001475a       __vsprintf_p               1001575a f   LIBCMT:vsnprnc.obj
 0001:00014781       __vsprintf_p_l             10015781 f   LIBCMT:vsnprnc.obj
 0001:000147a9       ___iob_func                100157a9 f   LIBCMT:_file.obj
 0001:000147af       ___initstdio               100157af f   LIBCMT:_file.obj
 0001:00014860       ___endstdio                10015860 f   LIBCMT:_file.obj
 0001:00014880       __lock_file                10015880 f   LIBCMT:_file.obj
 0001:000148bc       __lock_file2               100158bc f   LIBCMT:_file.obj
 0001:000148ea       __unlock_file              100158ea f   LIBCMT:_file.obj
 0001:00014920       __unlock_file2             10015920 f   LIBCMT:_file.obj
 0001:0001494a       __filbuf                   1001594a f   LIBCMT:_filbuf.obj
 0001:00014a6a       __fileno                   10015a6a f   LIBCMT:fileno.obj
 0001:00014a97       __getbuf                   10015a97 f   LIBCMT:_getbuf.obj
 0001:00014adb       __write_nolock             10015adb f   LIBCMT:write.obj
 0001:000150a1       __write                    100160a1 f   LIBCMT:write.obj
 0001:0001517d       __commit                   1001617d f   LIBCMT:commit.obj
 0001:0001525e       __freebuf                  1001625e f   LIBCMT:_freebuf.obj
 0001:0001528a       __ftelli64_nolock          1001628a f   LIBCMT:ftelli64.obj
 0001:00015566       __ftelli64                 10016566 f   LIBCMT:ftelli64.obj
 0001:000155b0       __lseek_nolock             100165b0 f   LIBCMT:lseek.obj
 0001:00015622       __lseek                    10016622 f   LIBCMT:lseek.obj
 0001:000156fe       __ftell_nolock             100166fe f   LIBCMT:ftell.obj
 0001:00015896       _ftell                     10016896 f   LIBCMT:ftell.obj
 0001:00015904       __fseeki64_nolock          10016904 f   LIBCMT:fseeki64.obj
 0001:0001599d       __fseeki64                 1001699d f   LIBCMT:fseeki64.obj
 0001:000159ec       __close_nolock             100169ec f   LIBCMT:close.obj
 0001:00015a80       __close                    10016a80 f   LIBCMT:close.obj
 0001:00015d5b       ___updatetmbcinfo          10016d5b f   LIBCMT:mbctype.obj
 0001:00015e79       __setmbcp_nolock           10016e79 f   LIBCMT:mbctype.obj
 0001:00016052       __getmbcp                  10017052 f   LIBCMT:mbctype.obj
 0001:0001608e       __setmbcp                  1001708e f   LIBCMT:mbctype.obj
 0001:00016228       ___initmbctable            10017228 f   LIBCMT:mbctype.obj
 0001:00016246       ____setlc_active_func      10017246 f   LIBCMT:setlocal.obj
 0001:0001624c       ____unguarded_readlc_active_add_func 1001724c f   LIBCMT:setlocal.obj
 0001:00016252       ___freetlocinfo            10017252 f   LIBCMT:setlocal.obj
 0001:00016392       ___addlocaleref            10017392 f   LIBCMT:setlocal.obj
 0001:00016418       ___removelocaleref         10017418 f   LIBCMT:setlocal.obj
 0001:00016506       ___updatetlocinfo          10017506 f   LIBCMT:setlocal.obj
 0001:0001657c       __configthreadlocale       1001757c f   LIBCMT:setlocal.obj
 0001:00016635       __free_locale              10017635 f   LIBCMT:setlocal.obj
 0001:000166cb       ___free_locale             100176cb f   LIBCMT:setlocal.obj
 0001:000166d0       __get_current_locale       100176d0 f   LIBCMT:setlocal.obj
 0001:00016758       ___get_current_locale      10017758 f   LIBCMT:setlocal.obj
 0001:0001675d       ___init_dummy              1001775d f   LIBCMT:setlocal.obj
 0001:00016760       __strcats                  10017760 f   LIBCMT:setlocal.obj
 0001:0001679e       ___lc_strtolc              1001779e f   LIBCMT:setlocal.obj
 0001:000168c7       ___lc_lctostr              100178c7 f   LIBCMT:setlocal.obj
 0001:00016aa3       __expandlocale             10017aa3 f   LIBCMT:setlocal.obj
 0001:0001713b       __create_locale            1001813b f   LIBCMT:setlocal.obj
 0001:0001722e       ___create_locale           1001822e f   LIBCMT:setlocal.obj
 0001:00017233       _setlocale                 10018233 f   LIBCMT:setlocal.obj
 0001:000173a3       __MarkAllocaS              100183a3 f i LIBCMT:a_map.obj
 0001:000173b5       __freea                    100183b5 f i LIBCMT:a_map.obj
 0001:0001778c       ___crtLCMapStringA         1001878c f   LIBCMT:a_map.obj
 0001:000177cf       __isleadbyte_l             100187cf f i LIBCMT:_wctype.obj
 0001:00017805       _isleadbyte                10018805 f i LIBCMT:_wctype.obj
 0001:00017813       __iswalpha_l               10018813 f i LIBCMT:_wctype.obj
 0001:00017829       _iswalpha                  10018829 f i LIBCMT:_wctype.obj
 0001:0001783a       __iswupper_l               1001883a f i LIBCMT:_wctype.obj
 0001:0001784d       _iswupper                  1001884d f i LIBCMT:_wctype.obj
 0001:0001785b       __iswlower_l               1001885b f i LIBCMT:_wctype.obj
 0001:0001786e       _iswlower                  1001886e f i LIBCMT:_wctype.obj
 0001:0001787c       __iswdigit_l               1001887c f i LIBCMT:_wctype.obj
 0001:0001788f       _iswdigit                  1001888f f i LIBCMT:_wctype.obj
 0001:0001789d       __iswxdigit_l              1001889d f i LIBCMT:_wctype.obj
 0001:000178b3       _iswxdigit                 100188b3 f i LIBCMT:_wctype.obj
 0001:000178c4       __iswspace_l               100188c4 f i LIBCMT:_wctype.obj
 0001:000178d7       _iswspace                  100188d7 f i LIBCMT:_wctype.obj
 0001:000178e5       __iswpunct_l               100188e5 f i LIBCMT:_wctype.obj
 0001:000178f8       _iswpunct                  100188f8 f i LIBCMT:_wctype.obj
 0001:00017906       __iswalnum_l               10018906 f i LIBCMT:_wctype.obj
 0001:0001791c       _iswalnum                  1001891c f i LIBCMT:_wctype.obj
 0001:0001792d       __iswprint_l               1001892d f i LIBCMT:_wctype.obj
 0001:00017943       _iswprint                  10018943 f i LIBCMT:_wctype.obj
 0001:00017954       __iswgraph_l               10018954 f i LIBCMT:_wctype.obj
 0001:0001796a       _iswgraph                  1001896a f i LIBCMT:_wctype.obj
 0001:0001797b       __iswcntrl_l               1001897b f i LIBCMT:_wctype.obj
 0001:0001798e       _iswcntrl                  1001898e f i LIBCMT:_wctype.obj
 0001:0001799c       _iswascii                  1001899c f i LIBCMT:_wctype.obj
 0001:000179a8       __iswcsym_l                100189a8 f i LIBCMT:_wctype.obj
 0001:000179ce       ___iswcsym                 100189ce f i LIBCMT:_wctype.obj
 0001:000179ef       __iswcsymf_l               100189ef f i LIBCMT:_wctype.obj
 0001:00017a15       ___iswcsymf                10018a15 f i LIBCMT:_wctype.obj
 0001:00017a36       __isctype_l                10018a36 f   LIBCMT:isctype.obj
 0001:00017aec       __isctype                  10018aec f   LIBCMT:isctype.obj
 0001:00017b1b       __msize                    10018b1b f   LIBCMT:msize.obj
 0001:00017bc0       __ValidateImageBase        10018bc0 f   LIBCMT:pesect.obj
 0001:00017bf0       __FindPESection            10018bf0 f   LIBCMT:pesect.obj
 0001:00017c40       __IsNonwritableInCurrentImage 10018c40 f   LIBCMT:pesect.obj
 0001:00017cfb       ??0Block@HeapManager@@QAE@XZ 10018cfb f i LIBCMT:undname.obj
 0001:00017d01       ?Constructor@HeapManager@@QAEXP6APAXI@ZP6AXPAX@Z@Z 10018d01 f i LIBCMT:undname.obj
 0001:00017d1c       ?Destructor@HeapManager@@QAEXXZ 10018d1c f i LIBCMT:undname.obj
 0001:00017d42       ?getNumberOfDimensions@UnDecorator@@CAHXZ 10018d42 f   LIBCMT:undname.obj
 0001:00017da5       ?getTypeEncoding@UnDecorator@@CAHXZ 10018da5 f i LIBCMT:undname.obj
 0001:00018219       ?doUnderScore@UnDecorator@@SAHXZ 10019219 f i LIBCMT:undname.obj
 0001:00018224       ?doMSKeywords@UnDecorator@@SAHXZ 10019224 f i LIBCMT:undname.obj
 0001:00018231       ?doPtr64@UnDecorator@@SAHXZ 10019231 f i LIBCMT:undname.obj
 0001:0001823f       ?doFunctionReturns@UnDecorator@@SAHXZ 1001923f f i LIBCMT:undname.obj
 0001:0001824d       ?doAllocationModel@UnDecorator@@SAHXZ 1001924d f i LIBCMT:undname.obj
 0001:0001825b       ?doAllocationLanguage@UnDecorator@@SAHXZ 1001925b f i LIBCMT:undname.obj
 0001:00018269       ?doThisTypes@UnDecorator@@SAHXZ 10019269 f i LIBCMT:undname.obj
 0001:0001827b       ?doAccessSpecifiers@UnDecorator@@SAHXZ 1001927b f i LIBCMT:undname.obj
 0001:00018289       ?doThrowTypes@UnDecorator@@SAHXZ 10019289 f i LIBCMT:undname.obj
 0001:00018297       ?doMemberTypes@UnDecorator@@SAHXZ 10019297 f i LIBCMT:undname.obj
 0001:000182a5       ?doNameOnly@UnDecorator@@SAHXZ 100192a5 f i LIBCMT:undname.obj
 0001:000182b0       ?doTypeOnly@UnDecorator@@SAHXZ 100192b0 f i LIBCMT:undname.obj
 0001:000182bb       ?haveTemplateParameters@UnDecorator@@SAHXZ 100192bb f i LIBCMT:undname.obj
 0001:000182c6       ?doEcsu@UnDecorator@@SAHXZ 100192c6 f i LIBCMT:undname.obj
 0001:000182d4       ?doNoIdentCharCheck@UnDecorator@@SAHXZ 100192d4 f i LIBCMT:undname.obj
 0001:000182df       ?doEllipsis@UnDecorator@@SAHXZ 100192df f i LIBCMT:undname.obj
 0001:000182ed       ?UScore@UnDecorator@@SAPBDW4Tokens@@@Z 100192ed f   LIBCMT:undname.obj
 0001:00018306       ?getMemory@HeapManager@@QAEPAXIH@Z 10019306 f   LIBCMT:undname.obj
 0001:0001838a       ??0DName@@QAE@XZ           1001938a f i LIBCMT:undname.obj
 0001:00018397       ??0DName@@QAE@PAVDNameNode@@@Z 10019397 f i LIBCMT:undname.obj
 0001:000183a9       ??0DName@@QAE@ABV0@@Z      100193a9 f i LIBCMT:undname.obj
 0001:00018445       ?status@DName@@QBE?AW4DNameStatus@@XZ 10019445 f i LIBCMT:undname.obj
 0001:0001844f       ?clearStatus@DName@@QAEXXZ 1001944f f i LIBCMT:undname.obj
 0001:00018454       ?setPtrRef@DName@@QAEAAV1@XZ 10019454 f i LIBCMT:undname.obj
 0001:0001845b       ?isPtrRef@DName@@QBEHXZ    1001945b f i LIBCMT:undname.obj
 0001:00018465       ?setIsArray@DName@@QAEXXZ  10019465 f i LIBCMT:undname.obj
 0001:0001846d       ?isArray@DName@@QBEHXZ     1001946d f i LIBCMT:undname.obj
 0001:00018477       ?isNoTE@DName@@QBEHXZ      10019477 f i LIBCMT:undname.obj
 0001:00018481       ?setIsNoTE@DName@@QAEXXZ   10019481 f i LIBCMT:undname.obj
 0001:00018489       ?isPinPtr@DName@@QBEHXZ    10019489 f i LIBCMT:undname.obj
 0001:00018493       ?setIsPinPtr@DName@@QAEXXZ 10019493 f i LIBCMT:undname.obj
 0001:0001849b       ?isComArray@DName@@QBEHXZ  1001949b f i LIBCMT:undname.obj
 0001:000184a5       ?setIsComArray@DName@@QAEXXZ 100194a5 f i LIBCMT:undname.obj
 0001:000184ad       ?isVCallThunk@DName@@QBEHXZ 100194ad f i LIBCMT:undname.obj
 0001:000184b7       ?setIsVCallThunk@DName@@QAEXXZ 100194b7 f i LIBCMT:undname.obj
 0001:000184bf       ??4DName@@QAEAAV0@ABV0@@Z  100194bf f   LIBCMT:undname.obj
 0001:0001853a       ?isFull@Replicator@@QBEHXZ 1001953a f i LIBCMT:undname.obj
 0001:00018543       ??AReplicator@@QBEABVDName@@H@Z 10019543 f   LIBCMT:undname.obj
 0001:00018568       ??0DNameNode@@IAE@XZ       10019568 f   LIBCMT:undname.obj
 0001:00018575       ?nextNode@DNameNode@@QBEPAV1@XZ 10019575 f i LIBCMT:undname.obj
 0001:00018579       ??YDNameNode@@QAEAAV0@PAV0@@Z 10019579 f   LIBCMT:undname.obj
 0001:000185a2       ??0charNode@@QAE@D@Z       100195a2 f   LIBCMT:undname.obj
 0001:000185b8       ?length@charNode@@UBEHXZ   100195b8 f i LIBCMT:undname.obj
 0001:000185bc       ?getLastChar@charNode@@UBEDXZ 100195bc f i LIBCMT:undname.obj
 0001:000185c0       ?getString@charNode@@UBEPADPADH@Z 100195c0 f   LIBCMT:undname.obj
 0001:000185db       ?length@pcharNode@@UBEHXZ  100195db f i LIBCMT:undname.obj
 0001:000185df       ??0pDNameNode@@QAE@PAVDName@@@Z 100195df f   LIBCMT:undname.obj
 0001:0001860e       ??0DNameStatusNode@@QAE@W4DNameStatus@@@Z 1001960e f   LIBCMT:undname.obj
 0001:00018633       ?length@DNameStatusNode@@UBEHXZ 10019633 f i LIBCMT:undname.obj
 0001:00018637       ?getLastChar@DNameStatusNode@@UBEDXZ 10019637 f i LIBCMT:undname.obj
 0001:00018697       ?getDataIndirectType@UnDecorator@@CA?AVDName@@XZ 10019697 f i LIBCMT:undname.obj
 0001:000186ca       ?getThisType@UnDecorator@@CA?AVDName@@XZ 100196ca f i LIBCMT:undname.obj
 0001:000186fe       ??2@YAPAXIAAVHeapManager@@H@Z 100196fe f i LIBCMT:undname.obj
 0001:00018711       ??0DName@@QAE@PAV0@@Z      10019711 f   LIBCMT:undname.obj
 0001:00018767       ??0DName@@QAE@W4DNameStatus@@@Z 10019767 f   LIBCMT:undname.obj
 0001:000187c8       ?isValid@DName@@QBEHXZ     100197c8 f   LIBCMT:undname.obj
 0001:000187df       ?isEmpty@DName@@QBEHXZ     100197df f   LIBCMT:undname.obj
 0001:000187f4       ?isUDC@DName@@QBEHXZ       100197f4 f i LIBCMT:undname.obj
 0001:00018808       ?setIsUDC@DName@@QAEXXZ    10019808 f i LIBCMT:undname.obj
 0001:00018816       ?isUDTThunk@DName@@QBEHXZ  10019816 f i LIBCMT:undname.obj
 0001:0001882a       ?length@DName@@QBEHXZ      1001982a f   LIBCMT:undname.obj
 0001:0001884f       ?getLastChar@DName@@QBEDXZ 1001984f f   LIBCMT:undname.obj
 0001:00018887       ?getString@DName@@QBEPADPADH@Z 10019887 f   LIBCMT:undname.obj
 0001:00018918       ??_5DName@@QAEAAV0@ABV0@@Z 10019918 f   LIBCMT:undname.obj
 0001:0001894d       ??4DName@@QAEAAV0@W4DNameStatus@@@Z 1001994d f   LIBCMT:undname.obj
 0001:000189ce       ??0Replicator@@QAE@XZ      100199ce f i LIBCMT:undname.obj
 0001:000189ec       ??YReplicator@@QAEAAV0@ABVDName@@@Z 100199ec f   LIBCMT:undname.obj
 0001:00018a33       ?clone@DNameNode@@QAEPAV1@XZ 10019a33 f   LIBCMT:undname.obj
 0001:00018a7a       ??0pcharNode@@QAE@PBDH@Z   10019a7a f   LIBCMT:undname.obj
 0001:00018adf       ?getLastChar@pcharNode@@UBEDXZ 10019adf f i LIBCMT:undname.obj
 0001:00018af1       ?getString@pcharNode@@UBEPADPADH@Z 10019af1 f   LIBCMT:undname.obj
 0001:00018b22       ?length@pDNameNode@@UBEHXZ 10019b22 f i LIBCMT:undname.obj
 0001:00018b31       ?getLastChar@pDNameNode@@UBEDXZ 10019b31 f i LIBCMT:undname.obj
 0001:00018b40       ?getString@pDNameNode@@UBEPADPADH@Z 10019b40 f   LIBCMT:undname.obj
 0001:00018b5d       ?getString@DNameStatusNode@@UBEPADPADH@Z 10019b5d f   LIBCMT:undname.obj
 0001:00018b90       ??0UnDecorator@@QAE@PADPBDHP6APADJ@ZK@Z 10019b90 f i LIBCMT:undname.obj
 0001:00018c03       ?getReturnType@UnDecorator@@CA?AVDName@@PAV2@@Z 10019c03 f   LIBCMT:undname.obj
 0001:00018c32       ?getStorageConvention@UnDecorator@@CA?AVDName@@XZ 10019c32 f i LIBCMT:undname.obj
 0001:00018c41       ??YDName@@QAEAAV0@W4DNameStatus@@@Z 10019c41 f   LIBCMT:undname.obj
 0001:00018cba       ??4DName@@QAEAAV0@PAV0@@Z  10019cba f   LIBCMT:undname.obj
 0001:00018d22       ?doPchar@DName@@AAEXPBDH@Z 10019d22 f   LIBCMT:undname.obj
 0001:00018dc8       ??0DName@@QAE@D@Z          10019dc8 f   LIBCMT:undname.obj
 0001:00018dee       ??0DName@@QAE@PBD@Z        10019dee f   LIBCMT:undname.obj
 0001:00018e1f       ??0DName@@QAE@AAPBDD@Z     10019e1f f   LIBCMT:undname.obj
 0001:00018eef       ??0DName@@QAE@_K@Z         10019eef f   LIBCMT:undname.obj
 0001:00018f58       ??0DName@@QAE@_J@Z         10019f58 f   LIBCMT:undname.obj
 0001:00018fee       ??HDName@@QBE?AV0@W4DNameStatus@@@Z 10019fee f   LIBCMT:undname.obj
 0001:0001901c       ??YDName@@QAEAAV0@ABV0@@Z  1001a01c f   LIBCMT:undname.obj
 0001:0001907e       ??YDName@@QAEAAV0@PAV0@@Z  1001a07e f   LIBCMT:undname.obj
 0001:00019109       ??4DName@@QAEAAV0@D@Z      1001a109 f   LIBCMT:undname.obj
 0001:00019125       ??4DName@@QAEAAV0@PBD@Z    1001a125 f   LIBCMT:undname.obj
 0001:0001914f       ?getCallingConvention@UnDecorator@@CA?AVDName@@XZ 1001a14f f   LIBCMT:undname.obj
 0001:000191f5       ?getVCallThunkType@UnDecorator@@CA?AVDName@@XZ 1001a1f5 f i LIBCMT:undname.obj
 0001:0001922c       ??HDName@@QBE?AV0@ABV0@@Z  1001a22c f   LIBCMT:undname.obj
 0001:0001927d       ??HDName@@QBE?AV0@PAV0@@Z  1001a27d f   LIBCMT:undname.obj
 0001:000192ab       ??YDName@@QAEAAV0@D@Z      1001a2ab f   LIBCMT:undname.obj
 0001:00019315       ??YDName@@QAEAAV0@PBD@Z    1001a315 f   LIBCMT:undname.obj
 0001:00019381       ?getArgumentList@UnDecorator@@CA?AVDName@@XZ 1001a381 f   LIBCMT:undname.obj
 0001:00019461       ?getVdispMapType@UnDecorator@@CA?AVDName@@ABV2@@Z 1001a461 f i LIBCMT:undname.obj
 0001:000194b0       ??H@YA?AVDName@@DABV0@@Z   1001a4b0 f i LIBCMT:undname.obj
 0001:000194d2       ??H@YA?AVDName@@W4DNameStatus@@ABV0@@Z 1001a4d2 f i LIBCMT:undname.obj
 0001:000194f4       ??H@YA?AVDName@@PBDABV0@@Z 1001a4f4 f i LIBCMT:undname.obj
 0001:00019516       ??HDName@@QBE?AV0@D@Z      1001a516 f   LIBCMT:undname.obj
 0001:00019544       ??HDName@@QBE?AV0@PBD@Z    1001a544 f   LIBCMT:undname.obj
 0001:00019572       ?getDimension@UnDecorator@@CA?AVDName@@_N@Z 1001a572 f   LIBCMT:undname.obj
 0001:000196b3       ?getEnumType@UnDecorator@@CA?AVDName@@XZ 1001a6b3 f i LIBCMT:undname.obj
 0001:00019787       ?getArgumentTypes@UnDecorator@@CA?AVDName@@XZ 1001a787 f   LIBCMT:undname.obj
 0001:0001984b       ?getThrowTypes@UnDecorator@@CA?AVDName@@XZ 1001a84b f   LIBCMT:undname.obj
 0001:000198c9       ?getExtendedDataIndirectType@UnDecorator@@CA?AVDName@@AADAA_NH@Z 1001a8c9 f   LIBCMT:undname.obj
 0001:000199ee       ?getArrayType@UnDecorator@@CA?AVDName@@ABV2@@Z 1001a9ee f i LIBCMT:undname.obj
 0001:00019b4d       ?getLexicalFrame@UnDecorator@@CA?AVDName@@XZ 1001ab4d f i LIBCMT:undname.obj
 0001:00019b7e       ?getDisplacement@UnDecorator@@CA?AVDName@@XZ 1001ab7e f i LIBCMT:undname.obj
 0001:00019b90       ?getCallIndex@UnDecorator@@CA?AVDName@@XZ 1001ab90 f i LIBCMT:undname.obj
 0001:00019ba2       ?getGuardNumber@UnDecorator@@CA?AVDName@@XZ 1001aba2 f i LIBCMT:undname.obj
 0001:00019bb4       ?getVfTableType@UnDecorator@@CA?AVDName@@ABV2@@Z 1001abb4 f i LIBCMT:undname.obj
 0001:00019d04       ?getStringEncoding@UnDecorator@@CA?AVDName@@PADH@Z 1001ad04 f   LIBCMT:undname.obj
 0001:00019da4       ?getSignedDimension@UnDecorator@@CA?AVDName@@XZ 1001ada4 f   LIBCMT:undname.obj
 0001:00019df4       ?getTemplateConstant@UnDecorator@@CA?AVDName@@XZ 1001adf4 f   LIBCMT:undname.obj
 0001:0001a0af       ?getPtrRefDataType@UnDecorator@@CA?AVDName@@ABV2@H@Z 1001b0af f i LIBCMT:undname.obj
 0001:0001a188       ?getVbTableType@UnDecorator@@CA?AVDName@@ABV2@@Z 1001b188 f i LIBCMT:undname.obj
 0001:0001a19c       ?getTemplateArgumentList@UnDecorator@@CA?AVDName@@XZ 1001b19c f   LIBCMT:undname.obj
 0001:0001a354       ?getOperatorName@UnDecorator@@CA?AVDName@@_NPA_N@Z 1001b354 f i LIBCMT:undname.obj
 0001:0001a8c3       ?getTemplateName@UnDecorator@@CA?AVDName@@_N@Z 1001b8c3 f   LIBCMT:undname.obj
 0001:0001aa16       ?getZName@UnDecorator@@CA?AVDName@@_N@Z 1001ba16 f   LIBCMT:undname.obj
 0001:0001ac00       ?getScopedName@UnDecorator@@CA?AVDName@@XZ 1001bc00 f   LIBCMT:undname.obj
 0001:0001ace4       ?getECSUName@UnDecorator@@CA?AVDName@@XZ 1001bce4 f i LIBCMT:undname.obj
 0001:0001acf3       ?getECSUDataType@UnDecorator@@CA?AVDName@@XZ 1001bcf3 f   LIBCMT:undname.obj
 0001:0001adf3       ?getSymbolName@UnDecorator@@CA?AVDName@@XZ 1001bdf3 f i LIBCMT:undname.obj
 0001:0001ae39       ?getBasedType@UnDecorator@@CA?AVDName@@XZ 1001be39 f   LIBCMT:undname.obj
 0001:0001aecb       ?composeDeclaration@UnDecorator@@CA?AVDName@@ABV2@@Z 1001becb f i LIBCMT:undname.obj
 0001:0001ba0d       ?getDecoratedName@UnDecorator@@CA?AVDName@@XZ 1001ca0d f   LIBCMT:undname.obj
 0001:0001bc1e       ?getScope@UnDecorator@@CA?AVDName@@XZ 1001cc1e f   LIBCMT:undname.obj
 0001:0001bea9       ?getFunctionIndirectType@UnDecorator@@CA?AVDName@@ABV2@@Z 1001cea9 f   LIBCMT:undname.obj
 0001:0001c1ea       ?getDataIndirectType@UnDecorator@@CA?AVDName@@ABV2@D0H@Z 1001d1ea f   LIBCMT:undname.obj
 0001:0001c6ce       ??BUnDecorator@@QAEPADXZ   1001d6ce f i LIBCMT:undname.obj
 0001:0001c81a       ?getPtrRefType@UnDecorator@@CA?AVDName@@ABV2@0D@Z 1001d81a f   LIBCMT:undname.obj
 0001:0001c930       ?getPointerType@UnDecorator@@CA?AVDName@@ABV2@0@Z 1001d930 f i LIBCMT:undname.obj
 0001:0001c94b       ?getPointerTypeArray@UnDecorator@@CA?AVDName@@ABV2@0@Z 1001d94b f i LIBCMT:undname.obj
 0001:0001c966       ?getReferenceType@UnDecorator@@CA?AVDName@@ABV2@0@Z 1001d966 f i LIBCMT:undname.obj
 0001:0001c981       ___unDName                 1001d981 f   LIBCMT:undname.obj
 0001:0001ca24       ___unDNameEx               1001da24 f   LIBCMT:undname.obj
 0001:0001cac7       ?getBasicDataType@UnDecorator@@CA?AVDName@@ABV2@@Z 1001dac7 f   LIBCMT:undname.obj
 0001:0001ce4e       ?getPrimaryDataType@UnDecorator@@CA?AVDName@@ABV2@@Z 1001de4e f   LIBCMT:undname.obj
 0001:0001cf8c       ?getDataType@UnDecorator@@CA?AVDName@@PAV2@@Z 1001df8c f   LIBCMT:undname.obj
 0001:0001d03d       ?getExternalDataType@UnDecorator@@CA?AVDName@@ABV2@@Z 1001e03d f i LIBCMT:undname.obj
 0001:0001d0a1       __EH_prolog3               1001e0a1 f   LIBCMT:ehprolg3.obj
 0001:0001d0d4       __EH_prolog3_catch         1001e0d4 f   LIBCMT:ehprolg3.obj
 0001:0001d10a       __EH_prolog3_GS            1001e10a f   LIBCMT:ehprolg3.obj
 0001:0001d140       __EH_prolog3_catch_GS      1001e140 f   LIBCMT:ehprolg3.obj
 0001:0001d179       __EH_epilog3               1001e179 f   LIBCMT:ehprolg3.obj
 0001:0001d18d       __EH_epilog3_GS            1001e18d f   LIBCMT:ehprolg3.obj
 0001:0001d19c       __EH_epilog3_catch_GS      1001e19c f   LIBCMT:ehprolg3.obj
 0001:0001d1ab       ?_ValidateRead@@YAHPBXI@Z  1001e1ab f   LIBCMT:validate.obj
 0001:0001d1b8       ?_ValidateWrite@@YAHPAXI@Z 1001e1b8 f   LIBCMT:validate.obj
 0001:0001d1c5       ?_ValidateExecute@@YAHP6GHXZ@Z 1001e1c5 f   LIBCMT:validate.obj
 0001:0001d1d4       __global_unwind2           1001e1d4 f   LIBCMT:exsup.obj
 0001:0001d239       __local_unwind2            1001e239 f   LIBCMT:exsup.obj
 0001:0001d2bd       __abnormal_termination     1001e2bd f   LIBCMT:exsup.obj
 0001:0001d2e0       __NLG_Notify1              1001e2e0 f   LIBCMT:exsup.obj
 0001:0001d2e9       __NLG_Notify               1001e2e9 f   LIBCMT:exsup.obj
 0001:0001d300       __NLG_Dispatch2            1001e300     LIBCMT:exsup.obj
 0001:0001d300       __NLG_Dispatch             1001e300     LIBCMT:exsup.obj
 0001:0001d308       __NLG_Call                 1001e308 f   LIBCMT:exsup.obj
 0001:0001d30a       __NLG_Return2              1001e30a     LIBCMT:exsup.obj
 0001:0001d30b       __initp_misc_cfltcvt_tab   1001e30b f   LIBCMT:cmiscdat.obj
 0001:0001d32a       __initp_misc_winsig        1001e32a f   LIBCMT:winsig.obj
 0001:0001d412       ___get_sigabrt             1001e412 f   LIBCMT:winsig.obj
 0001:0001d41f       ___fpecode                 1001e41f f   LIBCMT:winsig.obj
 0001:0001d428       ___pxcptinfoptrs           1001e428 f   LIBCMT:winsig.obj
 0001:0001d431       _signal                    1001e431 f   LIBCMT:winsig.obj
 0001:0001d66e       _raise                     1001e66e f   LIBCMT:winsig.obj
 0001:0001d81e       __initp_misc_rand_s        1001e81e f   LIBCMT:rand_s.obj
 0001:0001d828       _rand_s                    1001e828 f   LIBCMT:rand_s.obj
 0001:0001d92c       __initp_misc_initcrit      1001e92c f   LIBCMT:initcrit.obj
 0001:0001d946       ___crtInitCritSecAndSpinCount 1001e946 f   LIBCMT:initcrit.obj
 0001:0001da0b       __calloc_impl              1001ea0b f   LIBCMT:calloc.obj
 0001:0001db29       _calloc                    1001eb29 f   LIBCMT:calloc.obj
 0001:0001db68       _realloc                   1001eb68 f   LIBCMT:realloc.obj
 0001:0001dd83       __recalloc                 1001ed83 f   LIBCMT:realloc.obj
 0001:0001de4d       __ismbbkalnum_l            1001ee4d f   LIBCMT:ismbbyte.obj
 0001:0001de62       __ismbbkalnum              1001ee62 f   LIBCMT:ismbbyte.obj
 0001:0001de75       __ismbbkprint_l            1001ee75 f   LIBCMT:ismbbyte.obj
 0001:0001de8a       __ismbbkprint              1001ee8a f   LIBCMT:ismbbyte.obj
 0001:0001de9d       __ismbbkpunct_l            1001ee9d f   LIBCMT:ismbbyte.obj
 0001:0001deb2       __ismbbkpunct              1001eeb2 f   LIBCMT:ismbbyte.obj
 0001:0001dec5       __ismbbalnum_l             1001eec5 f   LIBCMT:ismbbyte.obj
 0001:0001dedd       __ismbbalnum               1001eedd f   LIBCMT:ismbbyte.obj
 0001:0001def3       __ismbbalpha_l             1001eef3 f   LIBCMT:ismbbyte.obj
 0001:0001df0b       __ismbbalpha               1001ef0b f   LIBCMT:ismbbyte.obj
 0001:0001df21       __ismbbgraph_l             1001ef21 f   LIBCMT:ismbbyte.obj
 0001:0001df39       __ismbbgraph               1001ef39 f   LIBCMT:ismbbyte.obj
 0001:0001df4f       __ismbbprint_l             1001ef4f f   LIBCMT:ismbbyte.obj
 0001:0001df67       __ismbbprint               1001ef67 f   LIBCMT:ismbbyte.obj
 0001:0001df7d       __ismbbpunct_l             1001ef7d f   LIBCMT:ismbbyte.obj
 0001:0001df92       __ismbbpunct               1001ef92 f   LIBCMT:ismbbyte.obj
 0001:0001dfa5       __ismbblead_l              1001efa5 f   LIBCMT:ismbbyte.obj
 0001:0001dfba       __ismbblead                1001efba f   LIBCMT:ismbbyte.obj
 0001:0001dfcd       __ismbbtrail_l             1001efcd f   LIBCMT:ismbbyte.obj
 0001:0001dfe2       __ismbbtrail               1001efe2 f   LIBCMT:ismbbyte.obj
 0001:0001dff5       __ismbbkana_l              1001eff5 f   LIBCMT:ismbbyte.obj
 0001:0001e048       __ismbbkana                1001f048 f   LIBCMT:ismbbyte.obj
 0001:0001e058       __local_unwind4            1001f058 f   LIBCMT:exsup4.obj
 0001:0001e12e       __seh_longjmp_unwind4@4    1001f12e f   LIBCMT:exsup4.obj
 0001:0001e14a       @_EH4_CallFilterFunc@8     1001f14a f   LIBCMT:exsup4.obj
 0001:0001e161       @_EH4_TransferToHandler@8  1001f161 f   LIBCMT:exsup4.obj
 0001:0001e17a       @_EH4_GlobalUnwind@4       1001f17a f   LIBCMT:exsup4.obj
 0001:0001e194       @_EH4_LocalUnwind@16       1001f194 f   LIBCMT:exsup4.obj
 0001:0001e1fb       __get_sse2_info            1001f1fb f   LIBCMT:cpu_disp.obj
 0001:0001e25b       ___sse2_available_init     1001f25b f   LIBCMT:cpu_disp.obj
 0001:0001e268       ___crtMessageBoxA          1001f268 f   LIBCMT:crtmbox.obj
 0001:0001e425       _strcat_s                  1001f425 f   LIBCMT:strcat_s.obj
 0001:0001e496       _strncpy_s                 1001f496 f   LIBCMT:strncpy_s.obj
 0001:0001e549       __set_error_mode           1001f549 f   LIBCMT:errmode.obj
 0001:0001e58f       ___set_app_type            1001f58f f   LIBCMT:errmode.obj
 0001:0001e599       ___get_app_type            1001f599 f   LIBCMT:errmode.obj
 0001:0001e6da       ___crtGetLocaleInfoW       1001f6da f   LIBCMT:w_loc.obj
 0001:0001e852       ___crtGetLocaleInfoA       1001f852 f   LIBCMT:a_loc.obj
 0001:0001e890       __allmul                   1001f890 f   LIBCMT:llmul.obj
 0001:0001e8d0       __aulldvrm                 1001f8d0 f   LIBCMT:ulldvrm.obj
 0001:0001e965       __lseeki64_nolock          1001f965 f   LIBCMT:lseeki64.obj
 0001:0001e9e8       __lseeki64                 1001f9e8 f   LIBCMT:lseeki64.obj
 0001:0001eb01       __isatty                   1001fb01 f   LIBCMT:isatty.obj
 0001:0001eb5f       _printf                    1001fb5f f   LIBCMT:printf.obj
 0001:0001ec0e       __printf_l                 1001fc0e f   LIBCMT:printf.obj
 0001:0001ec24       __printf_s_l               1001fc24 f   LIBCMT:printf.obj
 0001:0001ec3a       _printf_s                  1001fc3a f   LIBCMT:printf.obj
 0001:0001ec4e       __printf_p_l               1001fc4e f   LIBCMT:printf.obj
 0001:0001ec64       __printf_p                 1001fc64 f   LIBCMT:printf.obj
 0001:0001ec78       __set_printf_count_output  1001fc78 f   LIBCMT:printf.obj
 0001:0001ec9d       __get_printf_count_output  1001fc9d f   LIBCMT:printf.obj
 0001:0001ecb3       __wctomb_s_l               1001fcb3 f   LIBCMT:wctomb.obj
 0001:0001ee12       _wctomb_s                  1001fe12 f   LIBCMT:wctomb.obj
 0001:0001ee2d       __wctomb_l                 1001fe2d f   LIBCMT:wctomb.obj
 0001:0001ee7c       _wctomb                    1001fe7c f   LIBCMT:wctomb.obj
 0001:0001eeac       __validate_param_reuseA    1001feac f   LIBCMT:outputp.obj
 0001:0001f076       _get_crtdouble_arg         10020076 f i LIBCMT:outputp.obj
 0001:0001f086       __output_p_l               10020086 f   LIBCMT:outputp.obj
 0001:000200af       __output_s_l               100210af f   LIBCMT:outputs.obj
 0001:00020a5f       __fcloseall                10021a5f f   LIBCMT:closeall.obj
 0001:00020afe       __read_nolock              10021afe f   LIBCMT:read.obj
 0001:000210bf       __read                     100220bf f   LIBCMT:read.obj
 0001:000211bc       __putwch_nolock            100221bc f   LIBCMT:putwch.obj
 0001:0002127e       __cputws                   1002227e f   LIBCMT:putwch.obj
 0001:00021319       __putwch                   10022319 f   LIBCMT:putwch.obj
 0001:0002135f       __mbtowc_l                 1002235f f   LIBCMT:mbtowc.obj
 0001:00021472       _mbtowc                    10022472 f   LIBCMT:mbtowc.obj
 0001:00021489       __set_osfhnd               10022489 f   LIBCMT:osfinfo.obj
 0001:00021506       __free_osfhnd              10022506 f   LIBCMT:osfinfo.obj
 0001:00021587       __get_osfhandle            10022587 f   LIBCMT:osfinfo.obj
 0001:000215f8       ___lock_fhandle            100225f8 f   LIBCMT:osfinfo.obj
 0001:00021698       __unlock_fhandle           10022698 f   LIBCMT:osfinfo.obj
 0001:000216ba       __alloc_osfhnd             100226ba f   LIBCMT:osfinfo.obj
 0001:00021859       __open_osfhandle           10022859 f   LIBCMT:osfinfo.obj
 0001:00021970       __alloca_probe             10022970     LIBCMT:chkstk.obj
 0001:00021970       __chkstk                   10022970 f   LIBCMT:chkstk.obj
 0001:00021b53       ___crtGetStringTypeA       10022b53 f   LIBCMT:a_str.obj
 0001:00021b93       ___pwctype_func            10022b93 f   LIBCMT:ctype.obj
 0001:00021b99       ___pctype_func             10022b99 f   LIBCMT:ctype.obj
 0001:00021fdb       ___free_lc_time            10022fdb f   LIBCMT:inittime.obj
 0001:0002216b       ___init_time               1002316b f   LIBCMT:inittime.obj
 0001:00022211       ___free_lconv_num          10023211 f   LIBCMT:initnum.obj
 0001:00022251       ___init_numeric            10023251 f   LIBCMT:initnum.obj
 0001:0002244c       ___free_lconv_mon          1002344c f   LIBCMT:initmon.obj
 0001:000224d5       ___init_monetary           100234d5 f   LIBCMT:initmon.obj
 0001:00022799       ___init_ctype              10023799 f   LIBCMT:initctyp.obj
 0001:00022b2e       ____mb_cur_max_func        10023b2e f   LIBCMT:initctyp.obj
 0001:00022b57       ____mb_cur_max_l_func      10023b57 f   LIBCMT:initctyp.obj
 0001:00022b6d       ____lc_codepage_func       10023b6d f   LIBCMT:initctyp.obj
 0001:00022b93       ____lc_collate_cp_func     10023b93 f   LIBCMT:initctyp.obj
 0001:00022bb9       ____lc_handle_func         10023bb9 f   LIBCMT:initctyp.obj
 0001:00022bdf       ___init_collate            10023bdf f   LIBCMT:initcoll.obj
 0001:00022be2       __Getdays_l                10023be2 f   LIBCMT:strftime.obj
 0001:00022ce0       __Getdays                  10023ce0 f   LIBCMT:strftime.obj
 0001:00022ce9       __Getmonths_l              10023ce9 f   LIBCMT:strftime.obj
 0001:00022de7       __Getmonths                10023de7 f   LIBCMT:strftime.obj
 0001:00022df0       __Gettnames_l              10023df0 f   LIBCMT:strftime.obj
 0001:00023145       __Gettnames                10024145 f   LIBCMT:strftime.obj
 0001:00023a60       __Strftime_l               10024a60 f   LIBCMT:strftime.obj
 0001:00023c0f       __strftime_l               10024c0f f   LIBCMT:strftime.obj
 0001:00023c2d       _strftime                  10024c2d f   LIBCMT:strftime.obj
 0001:00023c4a       __Strftime                 10024c4a f   LIBCMT:strftime.obj
 0001:00023c68       _localeconv                10024c68 f   LIBCMT:lconv.obj
 0001:00023c90       _strcspn                   10024c90 f   LIBCMT:strcspn.obj
 0001:00024290       ___get_qualified_locale    10025290 f   LIBCMT:getqloc.obj
 0001:000259e5       _memcmp                    100269e5 f   LIBCMT:memcmp.obj
 0001:00027065       _strncmp                   10028065 f   LIBCMT:strncmp.obj
 0001:00027130       _strpbrk                   10028130 f   LIBCMT:strpbrk.obj
 0001:00027170       ___ansicp                  10028170 f   LIBCMT:convrtcp.obj
 0001:000271b7       ___convertcp               100281b7 f   LIBCMT:convrtcp.obj
 0001:00027370       __alloca_probe_16          10028370 f   LIBCMT:alloca16.obj
 0001:00027386       __alloca_probe_8           10028386     LIBCMT:alloca16.obj
 0001:0002739c       __iswctype_l               1002839c f   LIBCMT:iswctype.obj
 0001:0002741e       _iswctype                  1002841e f   LIBCMT:iswctype.obj
 0001:0002748c       _is_wctype                 1002848c f   LIBCMT:iswctype.obj
 0001:00027491       __fptrap                   10028491 f   LIBCMT:crt0fp.obj
 0001:0002749a       __stbuf                    1002849a f   LIBCMT:_sftbuf.obj
 0001:00027530       __ftbuf                    10028530 f   LIBCMT:_sftbuf.obj
 0001:0002755f       _vprintf_helper            1002855f f   LIBCMT:vprintf.obj
 0001:000275ef       __vprintf_l                100285ef f   LIBCMT:vprintf.obj
 0001:00027609       __vprintf_s_l              10028609 f   LIBCMT:vprintf.obj
 0001:00027623       __vprintf_p_l              10028623 f   LIBCMT:vprintf.obj
 0001:0002763d       _vprintf                   1002863d f   LIBCMT:vprintf.obj
 0001:00027655       _vprintf_s                 10028655 f   LIBCMT:vprintf.obj
 0001:0002766d       __vprintf_p                1002866d f   LIBCMT:vprintf.obj
 0001:00027685       ___initconin               10028685 f   LIBCMT:initcon.obj
 0001:000276a4       ___initconout              100286a4 f   LIBCMT:initcon.obj
 0001:000276c3       ___termcon                 100286c3 f   LIBCMT:initcon.obj
 0001:000276f0       _wcslen                    100286f0 f   LIBCMT:wcslen.obj
 0001:00027706       __get_daylight             10028706 f   LIBCMT:timeset.obj
 0001:0002773a       __get_dstbias              1002873a f   LIBCMT:timeset.obj
 0001:0002776e       __get_timezone             1002876e f   LIBCMT:timeset.obj
 0001:000277a2       __get_tzname               100287a2 f   LIBCMT:timeset.obj
 0001:00027844       ___daylight                10028844 f   LIBCMT:timeset.obj
 0001:0002784a       ___dstbias                 1002884a f   LIBCMT:timeset.obj
 0001:00027850       ___timezone                10028850 f   LIBCMT:timeset.obj
 0001:00027856       ___tzname                  10028856 f   LIBCMT:timeset.obj
 0001:0002785c       __set_daylight             1002885c f i LIBCMT:tzset.obj
 0001:00027868       __set_dstbias              10028868 f i LIBCMT:tzset.obj
 0001:00027874       __set_timezone             10028874 f i LIBCMT:tzset.obj
 0001:00027f6c       ___tzset                   10028f6c f   LIBCMT:tzset.obj
 0001:00027fbb       __tzset                    10028fbb f   LIBCMT:tzset.obj
 0001:00027ff3       __isindst                  10028ff3 f   LIBCMT:tzset.obj
 0001:00028034       ___ascii_stricmp           10029034 f   LIBCMT:stricmp.obj
 0001:00028069       __stricmp_l                10029069 f   LIBCMT:stricmp.obj
 0001:0002813c       __stricmp                  1002913c f   LIBCMT:stricmp.obj
 0001:0002818c       __strnicmp_l               1002918c f   LIBCMT:strnicmp.obj
 0001:0002827c       __strnicmp                 1002927c f   LIBCMT:strnicmp.obj
 0001:000283b3       __itoa_s                   100293b3 f   LIBCMT:xtoas.obj
 0001:000283db       __ltoa_s                   100293db f   LIBCMT:xtoas.obj
 0001:00028400       __ultoa_s                  10029400 f   LIBCMT:xtoas.obj
 0001:0002850e       __i64toa_s                 1002950e f   LIBCMT:xtoas.obj
 0001:00028541       __ui64toa_s                10029541 f   LIBCMT:xtoas.obj
 0001:00028782       ___crtGetStringTypeW       10029782 f   LIBCMT:w_str.obj
 0001:000287c0       __getenv_helper_nolock     100297c0 f   LIBCMT:getenv.obj
 0001:00028976       _getenv                    10029976 f   LIBCMT:getenv.obj
 0001:000289f9       _getenv_s                  100299f9 f   LIBCMT:getenv.obj
 0001:00028ad1       __dupenv_s                 10029ad1 f   LIBCMT:getenv.obj
 0001:00028bb7       __tolower                  10029bb7 f   LIBCMT:tolower.obj
 0001:00028bbf       __tolower_l                10029bbf f   LIBCMT:tolower.obj
 0001:00028cd6       _tolower                   10029cd6 f   LIBCMT:tolower.obj
 0001:00028d00       ___ascii_strnicmp          10029d00 f   LIBCMT:_strnicm.obj
 0001:00028d61       __mbsnbicoll_l             10029d61 f   LIBCMT:mbsnbico.obj
 0001:00028e4d       __mbsnbicoll               10029e4d f   LIBCMT:mbsnbico.obj
 0001:00028e64       ___wtomb_environ           10029e64 f   LIBCMT:wtombenv.obj
 0001:00028ef9       _strnlen                   10029ef9 f   LIBCMT:strlen_s.obj
 0001:000292b6       ___crtCompareStringA       1002a2b6 f   LIBCMT:a_cmp.obj
 0001:000292f6       __strnicoll_l              1002a2f6 f   LIBCMT:strnicol.obj
 0001:000293ee       __strnicoll                1002a3ee f   LIBCMT:strnicol.obj
 0001:000294bf       ___crtsetenv               1002a4bf f   LIBCMT:setenv.obj
 0001:0002970b       __strdup                   1002a70b f   LIBCMT:strdup.obj
 0001:0002975b       __mbschr_l                 1002a75b f   LIBCMT:mbschr.obj
 0001:00029815       __mbschr                   1002a815 f   LIBCMT:mbschr.obj
 0001:00029840       _strchr                    1002a840 f   LIBCMT:strchr.obj
 0001:00029846       ___from_strstr_to_strchr   1002a846     LIBCMT:strchr.obj
 0001:000298fe       _WSAEnumNetworkEvents@12   1002a8fe f   ws2_32:WS2_32.dll
 0001:00029904       _WSAWaitForMultipleEvents@20 1002a904 f   ws2_32:WS2_32.dll
 0001:0002990a       _closesocket@4             1002a90a f   ws2_32:WS2_32.dll
 0001:00029910       _WSAGetLastError@0         1002a910 f   ws2_32:WS2_32.dll
 0001:00029916       _setsockopt@20             1002a916 f   ws2_32:WS2_32.dll
 0001:0002991c       _WSASocketA@24             1002a91c f   ws2_32:WS2_32.dll
 0001:00029922       _WSARecv@28                1002a922 f   ws2_32:WS2_32.dll
 0001:00029928       _select@20                 1002a928 f   ws2_32:WS2_32.dll
 0001:0002992e       _WSASend@28                1002a92e f   ws2_32:WS2_32.dll
 0001:00029934       _recv@16                   1002a934 f   ws2_32:WS2_32.dll
 0001:0002993a       _gethostbyname@4           1002a93a f   ws2_32:WS2_32.dll
 0001:00029940       _gethostname@8             1002a940 f   ws2_32:WS2_32.dll
 0001:00029946       _WSACloseEvent@4           1002a946 f   ws2_32:WS2_32.dll
 0001:0002994c       _WSAEventSelect@12         1002a94c f   ws2_32:WS2_32.dll
 0001:00029952       _WSACreateEvent@0          1002a952 f   ws2_32:WS2_32.dll
 0001:00029958       _WSACleanup@0              1002a958 f   ws2_32:WS2_32.dll
 0001:0002995e       _WSAStartup@8              1002a95e f   ws2_32:WS2_32.dll
 0001:00029964       _htonl@4                   1002a964 f   ws2_32:WS2_32.dll
 0001:0002996a       _htons@4                   1002a96a f   ws2_32:WS2_32.dll
 0001:00029970       _inet_addr@4               1002a970 f   ws2_32:WS2_32.dll
 0001:00029976       _shutdown@8                1002a976 f   ws2_32:WS2_32.dll
 0001:0002997c       _listen@8                  1002a97c f   ws2_32:WS2_32.dll
 0001:00029982       _bind@12                   1002a982 f   ws2_32:WS2_32.dll
 0001:00029988       _connect@12                1002a988 f   ws2_32:WS2_32.dll
 0001:0002998e       ??0invalid_argument@std@@QAE@ABV?$basic_string@DU?$char_traits@D@std@@V?$allocator@D@2@@1@@Z 1002a98e f i libcpmt:string.obj
 0001:000299a6       ??1invalid_argument@std@@UAE@XZ 1002a9a6 f i libcpmt:string.obj
 0001:000299b1       ??_Einvalid_argument@std@@UAEPAXI@Z 1002a9b1 f i libcpmt:string.obj
 0001:000299b1       ??_Ginvalid_argument@std@@UAEPAXI@Z 1002a9b1 f i libcpmt:string.obj
 0001:000299d3       ?_Xlen@_String_base@std@@SAXXZ 1002a9d3 f   libcpmt:string.obj
 0001:00029a12       ?_Xran@_String_base@std@@SAXXZ 1002aa12 f   libcpmt:string.obj
 0001:00029a51       ?_Xinvarg@_String_base@std@@SAXXZ 1002aa51 f   libcpmt:string.obj
 0001:00029a90       ??0invalid_argument@std@@QAE@ABV01@@Z 1002aa90 f i libcpmt:string.obj
 0001:00029aa8       __Tolower                  1002aaa8 f   libcpmt:_tolower.obj
 0001:00029bb7       __Getctype                 1002abb7 f   libcpmt:_tolower.obj
 0001:00029c12       ??0_Init_locks@std@@QAE@XZ 1002ac12 f   libcpmt:xlock.obj
 0001:00029c41       ??1_Init_locks@std@@QAE@XZ 1002ac41 f   libcpmt:xlock.obj
 0001:00029c6a       ?_Init_locks_ctor@_Init_locks@std@@CAXPAV12@@Z 1002ac6a f   libcpmt:xlock.obj
 0001:00029c93       ?_Init_locks_dtor@_Init_locks@std@@CAXPAV12@@Z 1002ac93 f   libcpmt:xlock.obj
 0001:00029cbc       ??0_Lockit@std@@QAE@XZ     1002acbc f   libcpmt:xlock.obj
 0001:00029cd1       ??0_Lockit@std@@QAE@H@Z    1002acd1 f   libcpmt:xlock.obj
 0001:00029cf2       ??1_Lockit@std@@QAE@XZ     1002acf2 f   libcpmt:xlock.obj
 0001:00029d04       ?_Lockit_ctor@_Lockit@std@@CAXPAV12@@Z 1002ad04 f   libcpmt:xlock.obj
 0001:00029d10       ?_Lockit_ctor@_Lockit@std@@CAXPAV12@H@Z 1002ad10 f   libcpmt:xlock.obj
 0001:00029d2d       ?_Lockit_dtor@_Lockit@std@@CAXPAV12@@Z 1002ad2d f   libcpmt:xlock.obj
 0001:00029d43       ?_Lockit_ctor@_Lockit@std@@SAXH@Z 1002ad43 f   libcpmt:xlock.obj
 0001:00029d5a       ?_Lockit_dtor@_Lockit@std@@SAXH@Z 1002ad5a f   libcpmt:xlock.obj
 0001:00029d71       ??0locale@std@@QAE@W4_Uninitialized@1@@Z 1002ad71 f i libcpmt:locale0.obj
 0001:00029d76       ??0locale@std@@AAE@PAV_Locimp@01@@Z 1002ad76 f i libcpmt:locale0.obj
 0001:00029d81       ??0_Fac_node@std@@QAE@PAU01@PAVfacet@locale@1@@Z 1002ad81 f i libcpmt:locale0.obj
 0001:00029d93       ??1_Fac_node@std@@QAE@XZ   1002ad93 f i libcpmt:locale0.obj
 0001:00029da8       ??_G_Fac_node@std@@QAEPAXI@Z 1002ada8 f i libcpmt:locale0.obj
 0001:00029dc4       __Deletegloballocale       1002adc4 f   libcpmt:locale0.obj
 0001:00029e0a       ?_Getgloballocale@locale@std@@CAPAV_Locimp@12@XZ 1002ae0a f   libcpmt:locale0.obj
 0001:00029e10       ?_Setgloballocale@locale@std@@CAXPAX@Z 1002ae10 f   libcpmt:locale0.obj
 0001:00029e35       ?_Clocptr_func@_Locimp@locale@std@@CAAAPAV123@XZ 1002ae35 f   libcpmt:locale0.obj
 0001:00029e3b       ?_Id_cnt_func@id@locale@std@@CAAAHXZ 1002ae3b f   libcpmt:locale0.obj
 0001:00029e41       ?_Id_func@?$ctype@D@std@@SAAAVid@locale@2@XZ 1002ae41 f   libcpmt:locale0.obj
 0001:00029e47       ?_Id_func@?$ctype@_W@std@@SAAAVid@locale@2@XZ 1002ae47 f   libcpmt:locale0.obj
 0001:00029e4d       ?_Id_func@?$codecvt@_WDH@std@@SAAAVid@locale@2@XZ 1002ae4d f   libcpmt:locale0.obj
 0001:00029e53       ?_Id_func@?$ctype@G@std@@SAAAVid@locale@2@XZ 1002ae53 f   libcpmt:locale0.obj
 0001:00029e59       ?_Id_func@?$codecvt@GDH@std@@SAAAVid@locale@2@XZ 1002ae59 f   libcpmt:locale0.obj
 0001:00029e5f       ?_Locimp_dtor@_Locimp@locale@std@@CAXPAV123@@Z 1002ae5f f   libcpmt:locale0.obj
 0001:00029ebf       __Fac_tidy                 1002aebf f   libcpmt:locale0.obj
 0001:00029f02       ?facet_Register@facet@locale@std@@CAXPAV123@@Z 1002af02 f   libcpmt:locale0.obj
 0001:00029f3b       ?_Locinfo_dtor@_Locinfo@std@@SAXPAV12@@Z 1002af3b f   libcpmt:locale0.obj
 0001:00029f5e       ??0_Locimp@locale@std@@AAE@_N@Z 1002af5e f i libcpmt:locale0.obj
 0001:00029fa7       ??1_Locimp@locale@std@@MAE@XZ 1002afa7 f i libcpmt:locale0.obj
 0001:00029fe4       ??_G_Locimp@locale@std@@MAEPAXI@Z 1002afe4 f i libcpmt:locale0.obj
 0001:00029fe4       ??_E_Locimp@locale@std@@MAEPAXI@Z 1002afe4 f i libcpmt:locale0.obj
 0001:0002a000       ?_Init@locale@std@@CAPAV_Locimp@12@XZ 1002b000 f   libcpmt:locale0.obj
 0001:0002a09a       ?_Locinfo_ctor@_Locinfo@std@@SAXPAV12@PBD@Z 1002b09a f   libcpmt:locale0.obj
 0001:0002a0e4       ?classic@locale@std@@SAABV12@XZ 1002b0e4 f   libcpmt:locale0.obj
 0001:0002a0ef       ?empty@locale@std@@SA?AV12@XZ 1002b0ef f   libcpmt:locale0.obj
 0001:0002a131       ?_Callfns@ios_base@std@@AAEXW4event@12@@Z 1002b131 f i libcpmt:ios.obj
 0001:0002a153       ?_Tidy@ios_base@std@@AAAXXZ 1002b153 f i libcpmt:ios.obj
 0001:0002a199       ?_Fpz_func@std@@YAAA_JXZ   1002b199 f   libcpmt:ios.obj
 0001:0002a19f       ?_BADOFF_func@std@@YAABJXZ 1002b19f f   libcpmt:ios.obj
 0001:0002a1a5       ?_Index_func@ios_base@std@@CAAAHXZ 1002b1a5 f   libcpmt:ios.obj
 0001:0002a1ab       ?_Sync_func@ios_base@std@@CAAA_NXZ 1002b1ab f   libcpmt:ios.obj
 0001:0002a1b1       ?_Addstd@ios_base@std@@SAXPAV12@@Z 1002b1b1 f   libcpmt:ios.obj
 0001:0002a201       ?_Ios_base_dtor@ios_base@std@@CAXPAV12@@Z 1002b201 f   libcpmt:ios.obj
 0001:0002a23f       ??0_Mutex@std@@QAE@XZ      1002b23f f   libcpmt:xmutex.obj
 0001:0002a257       ??1_Mutex@std@@QAE@XZ      1002b257 f   libcpmt:xmutex.obj
 0001:0002a26c       ?_Lock@_Mutex@std@@QAEXXZ  1002b26c f   libcpmt:xmutex.obj
 0001:0002a275       ?_Unlock@_Mutex@std@@QAEXXZ 1002b275 f   libcpmt:xmutex.obj
 0001:0002a27e       ?_Mutex_ctor@_Mutex@std@@CAXPAV12@@Z 1002b27e f   libcpmt:xmutex.obj
 0001:0002a294       ?_Mutex_dtor@_Mutex@std@@CAXPAV12@@Z 1002b294 f   libcpmt:xmutex.obj
 0001:0002a2ab       ?_Mutex_Lock@_Mutex@std@@CAXPAV12@@Z 1002b2ab f   libcpmt:xmutex.obj
 0001:0002a2b8       ?_Mutex_Unlock@_Mutex@std@@CAXPAV12@@Z 1002b2b8 f   libcpmt:xmutex.obj
 0001:0002a2c5       __Toupper                  1002b2c5 f   libcpmt:_toupper.obj
 0001:0002a3d9       __Once                     1002b3d9 f   libcpmt:xmtx.obj
 0001:0002a410       __Mtxinit                  1002b410 f   libcpmt:xmtx.obj
 0001:0002a41b       __Mtxdst                   1002b41b f   libcpmt:xmtx.obj
 0001:0002a426       __Mtxlock                  1002b426 f   libcpmt:xmtx.obj
 0001:0002a431       __Mtxunlock                1002b431 f   libcpmt:xmtx.obj
 0001:0002a43c       ?_Atexit@@YAXP6AXXZ@Z      1002b43c f   libcpmt:iosptrs.obj
 0001:0002a45c       ??1_Init_atexit@@QAE@XZ    1002b45c f i libcpmt:iosptrs.obj
 0001:0002a481       ?InterlockedExchangePointer@@YGPAXPAPAXPAX@Z 1002b481 f i atls:atltrace.obj
 0001:0002a487       ?_AtlGetThreadACPFake@ATL@@YGIXZ 1002b487 f i atls:atltrace.obj
 0001:0002a4ec       ?_AtlGetThreadACPReal@ATL@@YGIXZ 1002b4ec f i atls:atltrace.obj
 0001:0002a4f0       ?_AtlGetThreadACPThunk@ATL@@YGIXZ 1002b4f0 f i atls:atltrace.obj
 0001:0002a554       _VerQueryValueA@16         1002b554 f   Version:VERSION.dll
 0001:0002a55a       _GetFileVersionInfoA@16    1002b55a f   Version:VERSION.dll
 0001:0002a560       _GetFileVersionInfoSizeA@8 1002b560 f   Version:VERSION.dll
 0001:0002a566       _GetLastError@0            1002b566 f   kernel32:KERNEL32.dll
 0001:0002a56c       _WaitForMultipleObjects@16 1002b56c f   kernel32:KERNEL32.dll
 0001:0002a572       _SetLastError@4            1002b572 f   kernel32:KERNEL32.dll
 0001:0002a578       _FormatMessageA@28         1002b578 f   kernel32:KERNEL32.dll
 0001:0002a57e       _GetCurrentDirectoryA@8    1002b57e f   kernel32:KERNEL32.dll
 0001:0002a584       _GetModuleFileNameA@12     1002b584 f   kernel32:KERNEL32.dll
 0001:0002a58a       _GetSystemTime@4           1002b58a f   kernel32:KERNEL32.dll
 0001:0002a590       _GetLocalTime@4            1002b590 f   kernel32:KERNEL32.dll
 0001:0002a596       _GetComputerNameA@8        1002b596 f   kernel32:KERNEL32.dll
 0001:0002a59c       _CloseHandle@4             1002b59c f   kernel32:KERNEL32.dll
 0001:0002a5a2       _TerminateThread@8         1002b5a2 f   kernel32:KERNEL32.dll
 0001:0002a5a8       _WaitForSingleObject@8     1002b5a8 f   kernel32:KERNEL32.dll
 0001:0002a5ae       _CreateEventA@16           1002b5ae f   kernel32:KERNEL32.dll
 0001:0002a5b4       _ResetEvent@4              1002b5b4 f   kernel32:KERNEL32.dll
 0001:0002a5ba       _SetEvent@4                1002b5ba f   kernel32:KERNEL32.dll
 0001:0002a5c0       _PulseEvent@4              1002b5c0 f   kernel32:KERNEL32.dll
 0001:0002a5c6       _GetSystemTimeAsFileTime@4 1002b5c6 f   kernel32:KERNEL32.dll
 0001:0002a5cc       _RtlUnwind@16              1002b5cc f   kernel32:KERNEL32.dll
 0001:0002a5d2       _RaiseException@16         1002b5d2 f   kernel32:KERNEL32.dll
 0001:0002a5d8       _GetCurrentThreadId@0      1002b5d8 f   kernel32:KERNEL32.dll
 0001:0002a5de       _GetCommandLineA@0         1002b5de f   kernel32:KERNEL32.dll
 0001:0002a5e4       _HeapFree@12               1002b5e4 f   kernel32:KERNEL32.dll
 0001:0002a5ea       _GetVersionExA@4           1002b5ea f   kernel32:KERNEL32.dll
 0001:0002a5f0       _HeapAlloc@12              1002b5f0 f   kernel32:KERNEL32.dll
 0001:0002a5f6       _GetProcessHeap@0          1002b5f6 f   kernel32:KERNEL32.dll
 0001:0002a5fc       _TerminateProcess@8        1002b5fc f   kernel32:KERNEL32.dll
 0001:0002a602       _GetCurrentProcess@0       1002b602 f   kernel32:KERNEL32.dll
 0001:0002a608       _UnhandledExceptionFilter@4 1002b608 f   kernel32:KERNEL32.dll
 0001:0002a60e       _SetUnhandledExceptionFilter@4 1002b60e f   kernel32:KERNEL32.dll
 0001:0002a614       _IsDebuggerPresent@0       1002b614 f   kernel32:KERNEL32.dll
 0001:0002a61a       _ExitThread@4              1002b61a f   kernel32:KERNEL32.dll
 0001:0002a620       _CreateThread@24           1002b620 f   kernel32:KERNEL32.dll
 0001:0002a626       _GetModuleHandleA@4        1002b626 f   kernel32:KERNEL32.dll
 0001:0002a62c       _GetProcAddress@8          1002b62c f   kernel32:KERNEL32.dll
 0001:0002a632       _TlsGetValue@4             1002b632 f   kernel32:KERNEL32.dll
 0001:0002a638       _TlsAlloc@0                1002b638 f   kernel32:KERNEL32.dll
 0001:0002a63e       _TlsSetValue@8             1002b63e f   kernel32:KERNEL32.dll
 0001:0002a644       _TlsFree@4                 1002b644 f   kernel32:KERNEL32.dll
 0001:0002a64a       _GetCurrentThread@0        1002b64a f   kernel32:KERNEL32.dll
 0001:0002a650       _ExitProcess@4             1002b650 f   kernel32:KERNEL32.dll
 0001:0002a656       _Sleep@4                   1002b656 f   kernel32:KERNEL32.dll
 0001:0002a65c       _SetHandleCount@4          1002b65c f   kernel32:KERNEL32.dll
 0001:0002a662       _GetStdHandle@4            1002b662 f   kernel32:KERNEL32.dll
 0001:0002a668       _GetFileType@4             1002b668 f   kernel32:KERNEL32.dll
 0001:0002a66e       _GetStartupInfoA@4         1002b66e f   kernel32:KERNEL32.dll
 0001:0002a674       _FreeEnvironmentStringsA@4 1002b674 f   kernel32:KERNEL32.dll
 0001:0002a67a       _GetEnvironmentStrings@0   1002b67a f   kernel32:KERNEL32.dll
 0001:0002a680       _FreeEnvironmentStringsW@4 1002b680 f   kernel32:KERNEL32.dll
 0001:0002a686       _WideCharToMultiByte@32    1002b686 f   kernel32:KERNEL32.dll
 0001:0002a68c       _GetEnvironmentStringsW@0  1002b68c f   kernel32:KERNEL32.dll
 0001:0002a692       _HeapDestroy@4             1002b692 f   kernel32:KERNEL32.dll
 0001:0002a698       _HeapCreate@12             1002b698 f   kernel32:KERNEL32.dll
 0001:0002a69e       _VirtualFree@12            1002b69e f   kernel32:KERNEL32.dll
 0001:0002a6a4       _QueryPerformanceCounter@4 1002b6a4 f   kernel32:KERNEL32.dll
 0001:0002a6aa       _GetTickCount@0            1002b6aa f   kernel32:KERNEL32.dll
 0001:0002a6b0       _GetCurrentProcessId@0     1002b6b0 f   kernel32:KERNEL32.dll
 0001:0002a6b6       _WriteFile@20              1002b6b6 f   kernel32:KERNEL32.dll
 0001:0002a6bc       _FatalAppExitA@8           1002b6bc f   kernel32:KERNEL32.dll
 0001:0002a6c2       _VirtualAlloc@16           1002b6c2 f   kernel32:KERNEL32.dll
 0001:0002a6c8       _HeapReAlloc@16            1002b6c8 f   kernel32:KERNEL32.dll
 0001:0002a6ce       _GetConsoleCP@0            1002b6ce f   kernel32:KERNEL32.dll
 0001:0002a6d4       _GetConsoleMode@8          1002b6d4 f   kernel32:KERNEL32.dll
 0001:0002a6da       _FlushFileBuffers@4        1002b6da f   kernel32:KERNEL32.dll
 0001:0002a6e0       _ReadFile@20               1002b6e0 f   kernel32:KERNEL32.dll
 0001:0002a6e6       _SetFilePointer@16         1002b6e6 f   kernel32:KERNEL32.dll
 0001:0002a6ec       _GetCPInfo@8               1002b6ec f   kernel32:KERNEL32.dll
 0001:0002a6f2       _GetACP@0                  1002b6f2 f   kernel32:KERNEL32.dll
 0001:0002a6f8       _GetOEMCP@0                1002b6f8 f   kernel32:KERNEL32.dll
 0001:0002a6fe       _IsValidCodePage@4         1002b6fe f   kernel32:KERNEL32.dll
 0001:0002a704       _LCMapStringA@24           1002b704 f   kernel32:KERNEL32.dll
 0001:0002a70a       _MultiByteToWideChar@24    1002b70a f   kernel32:KERNEL32.dll
 0001:0002a710       _LCMapStringW@24           1002b710 f   kernel32:KERNEL32.dll
 0001:0002a716       _HeapSize@12               1002b716 f   kernel32:KERNEL32.dll
 0001:0002a71c       _SetConsoleCtrlHandler@8   1002b71c f   kernel32:KERNEL32.dll
 0001:0002a722       _FreeLibrary@4             1002b722 f   kernel32:KERNEL32.dll
 0001:0002a728       _InterlockedExchange@8     1002b728 f   kernel32:KERNEL32.dll
 0001:0002a72e       _LoadLibraryA@4            1002b72e f   kernel32:KERNEL32.dll
 0001:0002a734       _GetLocaleInfoA@16         1002b734 f   kernel32:KERNEL32.dll
 0001:0002a73a       _GetLocaleInfoW@16         1002b73a f   kernel32:KERNEL32.dll
 0001:0002a740       _WriteConsoleA@20          1002b740 f   kernel32:KERNEL32.dll
 0001:0002a746       _GetConsoleOutputCP@0      1002b746 f   kernel32:KERNEL32.dll
 0001:0002a74c       _WriteConsoleW@20          1002b74c f   kernel32:KERNEL32.dll
 0001:0002a752       _SetStdHandle@8            1002b752 f   kernel32:KERNEL32.dll
 0001:0002a758       _GetStringTypeA@20         1002b758 f   kernel32:KERNEL32.dll
 0001:0002a75e       _GetStringTypeW@16         1002b75e f   kernel32:KERNEL32.dll
 0001:0002a764       _GetTimeFormatA@24         1002b764 f   kernel32:KERNEL32.dll
 0001:0002a76a       _GetDateFormatA@24         1002b76a f   kernel32:KERNEL32.dll
 0001:0002a770       _GetUserDefaultLCID@0      1002b770 f   kernel32:KERNEL32.dll
 0001:0002a776       _EnumSystemLocalesA@8      1002b776 f   kernel32:KERNEL32.dll
 0001:0002a77c       _IsValidLocale@8           1002b77c f   kernel32:KERNEL32.dll
 0001:0002a782       _CreateFileA@28            1002b782 f   kernel32:KERNEL32.dll
 0001:0002a788       _GetTimeZoneInformation@4  1002b788 f   kernel32:KERNEL32.dll
 0001:0002a78e       _CompareStringA@24         1002b78e f   kernel32:KERNEL32.dll
 0001:0002a794       _CompareStringW@24         1002b794 f   kernel32:KERNEL32.dll
 0001:0002a79a       _SetEnvironmentVariableA@8 1002b79a f   kernel32:KERNEL32.dll
 0001:0002a7a0       _GetThreadLocale@0         1002b7a0 f   kernel32:KERNEL32.dll
 0001:0002a7a6       _MessageBoxA@16            1002b7a6 f   user32:USER32.dll
 0001:0002a7ac       _MessageBeep@4             1002b7ac f   user32:USER32.dll
 0001:0002a7b2       _wsprintfA                 1002b7b2 f   user32:USER32.dll
 0001:0002a7b8       _GetUserNameA@8            1002b7b8 f   advapi32:ADVAPI32.dll
 0002:00000000       __imp__GetUserNameA@8      1002e000     advapi32:ADVAPI32.dll
 0002:00000004       \177ADVAPI32_NULL_THUNK_DATA 1002e004     advapi32:ADVAPI32.dll
 0002:00000008       __imp__DeleteCriticalSection@4 1002e008     kernel32:KERNEL32.dll
 0002:0000000c       __imp__InterlockedIncrement@4 1002e00c     kernel32:KERNEL32.dll
 0002:00000010       __imp__InterlockedDecrement@4 1002e010     kernel32:KERNEL32.dll
 0002:00000014       __imp__InitializeCriticalSection@4 1002e014     kernel32:KERNEL32.dll
 0002:00000018       __imp__LeaveCriticalSection@4 1002e018     kernel32:KERNEL32.dll
 0002:0000001c       __imp__GetThreadLocale@0   1002e01c     kernel32:KERNEL32.dll
 0002:00000020       __imp__SetEnvironmentVariableA@8 1002e020     kernel32:KERNEL32.dll
 0002:00000024       __imp__CompareStringW@24   1002e024     kernel32:KERNEL32.dll
 0002:00000028       __imp__CompareStringA@24   1002e028     kernel32:KERNEL32.dll
 0002:0000002c       __imp__GetTimeZoneInformation@4 1002e02c     kernel32:KERNEL32.dll
 0002:00000030       __imp__CreateFileA@28      1002e030     kernel32:KERNEL32.dll
 0002:00000034       __imp__IsValidLocale@8     1002e034     kernel32:KERNEL32.dll
 0002:00000038       __imp__EnumSystemLocalesA@8 1002e038     kernel32:KERNEL32.dll
 0002:0000003c       __imp__GetUserDefaultLCID@0 1002e03c     kernel32:KERNEL32.dll
 0002:00000040       __imp__GetDateFormatA@24   1002e040     kernel32:KERNEL32.dll
 0002:00000044       __imp__GetTimeFormatA@24   1002e044     kernel32:KERNEL32.dll
 0002:00000048       __imp__GetStringTypeW@16   1002e048     kernel32:KERNEL32.dll
 0002:0000004c       __imp__GetStringTypeA@20   1002e04c     kernel32:KERNEL32.dll
 0002:00000050       __imp__SetStdHandle@8      1002e050     kernel32:KERNEL32.dll
 0002:00000054       __imp__WriteConsoleW@20    1002e054     kernel32:KERNEL32.dll
 0002:00000058       __imp__GetConsoleOutputCP@0 1002e058     kernel32:KERNEL32.dll
 0002:0000005c       __imp__WriteConsoleA@20    1002e05c     kernel32:KERNEL32.dll
 0002:00000060       __imp__GetLocaleInfoW@16   1002e060     kernel32:KERNEL32.dll
 0002:00000064       __imp__GetLocaleInfoA@16   1002e064     kernel32:KERNEL32.dll
 0002:00000068       __imp__LoadLibraryA@4      1002e068     kernel32:KERNEL32.dll
 0002:0000006c       __imp__InterlockedExchange@8 1002e06c     kernel32:KERNEL32.dll
 0002:00000070       __imp__FreeLibrary@4       1002e070     kernel32:KERNEL32.dll
 0002:00000074       __imp__SetConsoleCtrlHandler@8 1002e074     kernel32:KERNEL32.dll
 0002:00000078       __imp__HeapSize@12         1002e078     kernel32:KERNEL32.dll
 0002:0000007c       __imp__LCMapStringW@24     1002e07c     kernel32:KERNEL32.dll
 0002:00000080       __imp__MultiByteToWideChar@24 1002e080     kernel32:KERNEL32.dll
 0002:00000084       __imp__LCMapStringA@24     1002e084     kernel32:KERNEL32.dll
 0002:00000088       __imp__IsValidCodePage@4   1002e088     kernel32:KERNEL32.dll
 0002:0000008c       __imp__GetLastError@0      1002e08c     kernel32:KERNEL32.dll
 0002:00000090       __imp__WaitForMultipleObjects@16 1002e090     kernel32:KERNEL32.dll
 0002:00000094       __imp__SetLastError@4      1002e094     kernel32:KERNEL32.dll
 0002:00000098       __imp__FormatMessageA@28   1002e098     kernel32:KERNEL32.dll
 0002:0000009c       __imp__GetCurrentDirectoryA@8 1002e09c     kernel32:KERNEL32.dll
 0002:000000a0       __imp__GetModuleFileNameA@12 1002e0a0     kernel32:KERNEL32.dll
 0002:000000a4       __imp__GetSystemTime@4     1002e0a4     kernel32:KERNEL32.dll
 0002:000000a8       __imp__GetLocalTime@4      1002e0a8     kernel32:KERNEL32.dll
 0002:000000ac       __imp__GetComputerNameA@8  1002e0ac     kernel32:KERNEL32.dll
 0002:000000b0       __imp__CloseHandle@4       1002e0b0     kernel32:KERNEL32.dll
 0002:000000b4       __imp__TerminateThread@8   1002e0b4     kernel32:KERNEL32.dll
 0002:000000b8       __imp__WaitForSingleObject@8 1002e0b8     kernel32:KERNEL32.dll
 0002:000000bc       __imp__CreateEventA@16     1002e0bc     kernel32:KERNEL32.dll
 0002:000000c0       __imp__ResetEvent@4        1002e0c0     kernel32:KERNEL32.dll
 0002:000000c4       __imp__SetEvent@4          1002e0c4     kernel32:KERNEL32.dll
 0002:000000c8       __imp__PulseEvent@4        1002e0c8     kernel32:KERNEL32.dll
 0002:000000cc       __imp__GetSystemTimeAsFileTime@4 1002e0cc     kernel32:KERNEL32.dll
 0002:000000d0       __imp__RtlUnwind@16        1002e0d0     kernel32:KERNEL32.dll
 0002:000000d4       __imp__RaiseException@16   1002e0d4     kernel32:KERNEL32.dll
 0002:000000d8       __imp__GetCurrentThreadId@0 1002e0d8     kernel32:KERNEL32.dll
 0002:000000dc       __imp__GetCommandLineA@0   1002e0dc     kernel32:KERNEL32.dll
 0002:000000e0       __imp__HeapFree@12         1002e0e0     kernel32:KERNEL32.dll
 0002:000000e4       __imp__GetVersionExA@4     1002e0e4     kernel32:KERNEL32.dll
 0002:000000e8       __imp__HeapAlloc@12        1002e0e8     kernel32:KERNEL32.dll
 0002:000000ec       __imp__GetProcessHeap@0    1002e0ec     kernel32:KERNEL32.dll
 0002:000000f0       __imp__TerminateProcess@8  1002e0f0     kernel32:KERNEL32.dll
 0002:000000f4       __imp__GetCurrentProcess@0 1002e0f4     kernel32:KERNEL32.dll
 0002:000000f8       __imp__UnhandledExceptionFilter@4 1002e0f8     kernel32:KERNEL32.dll
 0002:000000fc       __imp__SetUnhandledExceptionFilter@4 1002e0fc     kernel32:KERNEL32.dll
 0002:00000100       __imp__IsDebuggerPresent@0 1002e100     kernel32:KERNEL32.dll
 0002:00000104       __imp__ExitThread@4        1002e104     kernel32:KERNEL32.dll
 0002:00000108       __imp__CreateThread@24     1002e108     kernel32:KERNEL32.dll
 0002:0000010c       __imp__GetModuleHandleA@4  1002e10c     kernel32:KERNEL32.dll
 0002:00000110       __imp__GetProcAddress@8    1002e110     kernel32:KERNEL32.dll
 0002:00000114       __imp__TlsGetValue@4       1002e114     kernel32:KERNEL32.dll
 0002:00000118       __imp__TlsAlloc@0          1002e118     kernel32:KERNEL32.dll
 0002:0000011c       __imp__TlsSetValue@8       1002e11c     kernel32:KERNEL32.dll
 0002:00000120       __imp__TlsFree@4           1002e120     kernel32:KERNEL32.dll
 0002:00000124       __imp__GetCurrentThread@0  1002e124     kernel32:KERNEL32.dll
 0002:00000128       __imp__ExitProcess@4       1002e128     kernel32:KERNEL32.dll
 0002:0000012c       __imp__Sleep@4             1002e12c     kernel32:KERNEL32.dll
 0002:00000130       __imp__SetHandleCount@4    1002e130     kernel32:KERNEL32.dll
 0002:00000134       __imp__GetStdHandle@4      1002e134     kernel32:KERNEL32.dll
 0002:00000138       __imp__GetFileType@4       1002e138     kernel32:KERNEL32.dll
 0002:0000013c       __imp__GetStartupInfoA@4   1002e13c     kernel32:KERNEL32.dll
 0002:00000140       __imp__FreeEnvironmentStringsA@4 1002e140     kernel32:KERNEL32.dll
 0002:00000144       __imp__GetEnvironmentStrings@0 1002e144     kernel32:KERNEL32.dll
 0002:00000148       __imp__FreeEnvironmentStringsW@4 1002e148     kernel32:KERNEL32.dll
 0002:0000014c       __imp__WideCharToMultiByte@32 1002e14c     kernel32:KERNEL32.dll
 0002:00000150       __imp__GetEnvironmentStringsW@0 1002e150     kernel32:KERNEL32.dll
 0002:00000154       __imp__HeapDestroy@4       1002e154     kernel32:KERNEL32.dll
 0002:00000158       __imp__HeapCreate@12       1002e158     kernel32:KERNEL32.dll
 0002:0000015c       __imp__VirtualFree@12      1002e15c     kernel32:KERNEL32.dll
 0002:00000160       __imp__QueryPerformanceCounter@4 1002e160     kernel32:KERNEL32.dll
 0002:00000164       __imp__GetTickCount@0      1002e164     kernel32:KERNEL32.dll
 0002:00000168       __imp__GetCurrentProcessId@0 1002e168     kernel32:KERNEL32.dll
 0002:0000016c       __imp__WriteFile@20        1002e16c     kernel32:KERNEL32.dll
 0002:00000170       __imp__FatalAppExitA@8     1002e170     kernel32:KERNEL32.dll
 0002:00000174       __imp__VirtualAlloc@16     1002e174     kernel32:KERNEL32.dll
 0002:00000178       __imp__HeapReAlloc@16      1002e178     kernel32:KERNEL32.dll
 0002:0000017c       __imp__GetConsoleCP@0      1002e17c     kernel32:KERNEL32.dll
 0002:00000180       __imp__GetConsoleMode@8    1002e180     kernel32:KERNEL32.dll
 0002:00000184       __imp__FlushFileBuffers@4  1002e184     kernel32:KERNEL32.dll
 0002:00000188       __imp__ReadFile@20         1002e188     kernel32:KERNEL32.dll
 0002:0000018c       __imp__SetFilePointer@16   1002e18c     kernel32:KERNEL32.dll
 0002:00000190       __imp__GetCPInfo@8         1002e190     kernel32:KERNEL32.dll
 0002:00000194       __imp__GetACP@0            1002e194     kernel32:KERNEL32.dll
 0002:00000198       __imp__GetOEMCP@0          1002e198     kernel32:KERNEL32.dll
 0002:0000019c       __imp__EnterCriticalSection@4 1002e19c     kernel32:KERNEL32.dll
 0002:000001a0       \177KERNEL32_NULL_THUNK_DATA 1002e1a0     kernel32:KERNEL32.dll
 0002:000001a4       __imp__MessageBeep@4       1002e1a4     user32:USER32.dll
 0002:000001a8       __imp__wsprintfA           1002e1a8     user32:USER32.dll
 0002:000001ac       __imp__MessageBoxA@16      1002e1ac     user32:USER32.dll
 0002:000001b0       \177USER32_NULL_THUNK_DATA 1002e1b0     user32:USER32.dll
 0002:000001b4       __imp__VerQueryValueA@16   1002e1b4     Version:VERSION.dll
 0002:000001b8       __imp__GetFileVersionInfoA@16 1002e1b8     Version:VERSION.dll
 0002:000001bc       __imp__GetFileVersionInfoSizeA@8 1002e1bc     Version:VERSION.dll
 0002:000001c0       \177VERSION_NULL_THUNK_DATA 1002e1c0     Version:VERSION.dll
 0002:000001c4       __imp__inet_addr@4         1002e1c4     ws2_32:WS2_32.dll
 0002:000001c8       __imp__htons@4             1002e1c8     ws2_32:WS2_32.dll
 0002:000001cc       __imp__htonl@4             1002e1cc     ws2_32:WS2_32.dll
 0002:000001d0       __imp__WSAStartup@8        1002e1d0     ws2_32:WS2_32.dll
 0002:000001d4       __imp__WSACleanup@0        1002e1d4     ws2_32:WS2_32.dll
 0002:000001d8       __imp__WSACreateEvent@0    1002e1d8     ws2_32:WS2_32.dll
 0002:000001dc       __imp__WSAEventSelect@12   1002e1dc     ws2_32:WS2_32.dll
 0002:000001e0       __imp__WSACloseEvent@4     1002e1e0     ws2_32:WS2_32.dll
 0002:000001e4       __imp__shutdown@8          1002e1e4     ws2_32:WS2_32.dll
 0002:000001e8       __imp__gethostbyname@4     1002e1e8     ws2_32:WS2_32.dll
 0002:000001ec       __imp__recv@16             1002e1ec     ws2_32:WS2_32.dll
 0002:000001f0       __imp__WSASend@28          1002e1f0     ws2_32:WS2_32.dll
 0002:000001f4       __imp__select@20           1002e1f4     ws2_32:WS2_32.dll
 0002:000001f8       __imp__WSARecv@28          1002e1f8     ws2_32:WS2_32.dll
 0002:000001fc       __imp__WSASocketA@24       1002e1fc     ws2_32:WS2_32.dll
 0002:00000200       __imp__setsockopt@20       1002e200     ws2_32:WS2_32.dll
 0002:00000204       __imp__WSAGetLastError@0   1002e204     ws2_32:WS2_32.dll
 0002:00000208       __imp__closesocket@4       1002e208     ws2_32:WS2_32.dll
 0002:0000020c       __imp__WSAWaitForMultipleEvents@20 1002e20c     ws2_32:WS2_32.dll
 0002:00000210       __imp__listen@8            1002e210     ws2_32:WS2_32.dll
 0002:00000214       __imp__bind@12             1002e214     ws2_32:WS2_32.dll
 0002:00000218       __imp__connect@12          1002e218     ws2_32:WS2_32.dll
 0002:0000021c       __imp__WSAEnumNetworkEvents@12 1002e21c     ws2_32:WS2_32.dll
 0002:00000220       __imp__gethostname@8       1002e220     ws2_32:WS2_32.dll
 0002:00000224       \177WS2_32_NULL_THUNK_DATA 1002e224     ws2_32:WS2_32.dll
 0002:00000228       ___xc_a                    1002e228     LIBCMT:crt0init.obj
 0002:0000024c       ___xc_z                    1002e24c     LIBCMT:crt0init.obj
 0002:00000250       ___xi_a                    1002e250     LIBCMT:crt0init.obj
 0002:00000268       ___xi_z                    1002e268     LIBCMT:crt0init.obj
 0002:0000026c       ___xp_a                    1002e26c     LIBCMT:crt0init.obj
 0002:00000278       ___xp_z                    1002e278     LIBCMT:crt0init.obj
 0002:0000027c       ___xt_a                    1002e27c     LIBCMT:crt0init.obj
 0002:00000280       ___xt_z                    1002e280     LIBCMT:crt0init.obj
 0002:000002ac       _IID_IESClient             1002e2ac     IClient.obj
 0002:000002bc       _IID_IClientFactory        1002e2bc     IClient.obj
 0002:000002cc       ??_C@_07KJLOKDKB@TypeLib?$AA@ 1002e2cc     ClientStage.obj
 0002:000002d4       ??_C@_08KEKAJNJI@Software?$AA@ 1002e2d4     ClientStage.obj
 0002:000002e0       ??_C@_06FDHFNJBJ@SYSTEM?$AA@ 1002e2e0     ClientStage.obj
 0002:000002e8       ??_C@_08LOPHEHKG@SECURITY?$AA@ 1002e2e8     ClientStage.obj
 0002:000002f4       ??_C@_03DDIMFGBA@SAM?$AA@  1002e2f4     ClientStage.obj
 0002:000002f8       ??_C@_04IHBFOLAC@Mime?$AA@ 1002e2f8     ClientStage.obj
 0002:00000300       ??_C@_08PPIOJEA@Hardware?$AA@ 1002e300     ClientStage.obj
 0002:0000030c       ??_C@_09JKPGEJCH@Interface?$AA@ 1002e30c     ClientStage.obj
 0002:00000318       ??_C@_08PICKODJL@FileType?$AA@ 1002e318     ClientStage.obj
 0002:00000324       ??_C@_0BF@HDDNNDFH@Component?5Categories?$AA@ 1002e324     ClientStage.obj
 0002:0000033c       ??_C@_05GIBEAPNE@CLSID?$AA@ 1002e33c     ClientStage.obj
 0002:00000344       ??_C@_05PDIKPLII@AppID?$AA@ 1002e344     ClientStage.obj
 0002:0000034c       ??_C@_06JBKGCNBB@Delete?$AA@ 1002e34c     ClientStage.obj
 0002:00000354       ??_C@_08KAAPDIAN@NoRemove?$AA@ 1002e354     ClientStage.obj
 0002:00000360       ??_C@_0M@DBGDLGLL@ForceRemove?$AA@ 1002e360     ClientStage.obj
 0002:0000036c       ??_C@_03LAIAPFCB@Val?$AA@  1002e36c     ClientStage.obj
 0002:00000370       ??_C@_01HMGJMAIH@B?$AA@    1002e370     ClientStage.obj
 0002:00000374       ??_C@_01CKDDGHAB@D?$AA@    1002e374     ClientStage.obj
 0002:00000378       ??_C@_01PLPBNMEI@M?$AA@    1002e378     ClientStage.obj
 0002:0000037c       ??_C@_01CPLAODJH@S?$AA@    1002e37c     ClientStage.obj
 0002:00000380       ??_C@_0P@GHFPNOJB@bad?5allocation?$AA@ 1002e380     ClientStage.obj
 0002:00000390       ?collate@?$_Locbase@H@std@@2HB 1002e390     ClientStage.obj
 0002:00000394       ?ctype@?$_Locbase@H@std@@2HB 1002e394     ClientStage.obj
 0002:00000398       ?monetary@?$_Locbase@H@std@@2HB 1002e398     ClientStage.obj
 0002:0000039c       ?numeric@?$_Locbase@H@std@@2HB 1002e39c     ClientStage.obj
 0002:000003a0       ?time@?$_Locbase@H@std@@2HB 1002e3a0     ClientStage.obj
 0002:000003a4       ?messages@?$_Locbase@H@std@@2HB 1002e3a4     ClientStage.obj
 0002:000003a8       ?all@?$_Locbase@H@std@@2HB 1002e3a8     ClientStage.obj
 0002:000003ac       ?none@?$_Locbase@H@std@@2HB 1002e3ac     ClientStage.obj
 0002:000003b0       ?table_size@?$ctype@D@std@@2IB 1002e3b0     ClientStage.obj
 0002:000003b4       ?skipws@?$_Iosb@H@std@@2W4_Fmtflags@12@B 1002e3b4     ClientStage.obj
 0002:000003b8       ?unitbuf@?$_Iosb@H@std@@2W4_Fmtflags@12@B 1002e3b8     ClientStage.obj
 0002:000003bc       ?uppercase@?$_Iosb@H@std@@2W4_Fmtflags@12@B 1002e3bc     ClientStage.obj
 0002:000003c0       ?showbase@?$_Iosb@H@std@@2W4_Fmtflags@12@B 1002e3c0     ClientStage.obj
 0002:000003c4       ?showpoint@?$_Iosb@H@std@@2W4_Fmtflags@12@B 1002e3c4     ClientStage.obj
 0002:000003c8       ?showpos@?$_Iosb@H@std@@2W4_Fmtflags@12@B 1002e3c8     ClientStage.obj
 0002:000003cc       ?left@?$_Iosb@H@std@@2W4_Fmtflags@12@B 1002e3cc     ClientStage.obj
 0002:000003d0       ?right@?$_Iosb@H@std@@2W4_Fmtflags@12@B 1002e3d0     ClientStage.obj
 0002:000003d4       ?internal@?$_Iosb@H@std@@2W4_Fmtflags@12@B 1002e3d4     ClientStage.obj
 0002:000003d8       ?dec@?$_Iosb@H@std@@2W4_Fmtflags@12@B 1002e3d8     ClientStage.obj
 0002:000003dc       ?oct@?$_Iosb@H@std@@2W4_Fmtflags@12@B 1002e3dc     ClientStage.obj
 0002:000003e0       ?hex@?$_Iosb@H@std@@2W4_Fmtflags@12@B 1002e3e0     ClientStage.obj
 0002:000003e4       ?scientific@?$_Iosb@H@std@@2W4_Fmtflags@12@B 1002e3e4     ClientStage.obj
 0002:000003e8       ?fixed@?$_Iosb@H@std@@2W4_Fmtflags@12@B 1002e3e8     ClientStage.obj
 0002:000003ec       ?boolalpha@?$_Iosb@H@std@@2W4_Fmtflags@12@B 1002e3ec     ClientStage.obj
 0002:000003f0       ?_Stdio@?$_Iosb@H@std@@2W4_Fmtflags@12@B 1002e3f0     ClientStage.obj
 0002:000003f4       ?adjustfield@?$_Iosb@H@std@@2W4_Fmtflags@12@B 1002e3f4     ClientStage.obj
 0002:000003f8       ?basefield@?$_Iosb@H@std@@2W4_Fmtflags@12@B 1002e3f8     ClientStage.obj
 0002:000003fc       ?floatfield@?$_Iosb@H@std@@2W4_Fmtflags@12@B 1002e3fc     ClientStage.obj
 0002:00000400       ?goodbit@?$_Iosb@H@std@@2W4_Iostate@12@B 1002e400     ClientStage.obj
 0002:00000404       ?eofbit@?$_Iosb@H@std@@2W4_Iostate@12@B 1002e404     ClientStage.obj
 0002:00000408       ?failbit@?$_Iosb@H@std@@2W4_Iostate@12@B 1002e408     ClientStage.obj
 0002:0000040c       ?badbit@?$_Iosb@H@std@@2W4_Iostate@12@B 1002e40c     ClientStage.obj
 0002:00000410       ?_Hardfail@?$_Iosb@H@std@@2W4_Iostate@12@B 1002e410     ClientStage.obj
 0002:00000414       ?in@?$_Iosb@H@std@@2W4_Openmode@12@B 1002e414     ClientStage.obj
 0002:00000418       ?out@?$_Iosb@H@std@@2W4_Openmode@12@B 1002e418     ClientStage.obj
 0002:0000041c       ?ate@?$_Iosb@H@std@@2W4_Openmode@12@B 1002e41c     ClientStage.obj
 0002:00000420       ?app@?$_Iosb@H@std@@2W4_Openmode@12@B 1002e420     ClientStage.obj
 0002:00000424       ?trunc@?$_Iosb@H@std@@2W4_Openmode@12@B 1002e424     ClientStage.obj
 0002:00000428       ?_Nocreate@?$_Iosb@H@std@@2W4_Openmode@12@B 1002e428     ClientStage.obj
 0002:0000042c       ?_Noreplace@?$_Iosb@H@std@@2W4_Openmode@12@B 1002e42c     ClientStage.obj
 0002:00000430       ?binary@?$_Iosb@H@std@@2W4_Openmode@12@B 1002e430     ClientStage.obj
 0002:00000434       ?beg@?$_Iosb@H@std@@2W4_Seekdir@12@B 1002e434     ClientStage.obj
 0002:00000438       ?cur@?$_Iosb@H@std@@2W4_Seekdir@12@B 1002e438     ClientStage.obj
 0002:0000043c       ?end@?$_Iosb@H@std@@2W4_Seekdir@12@B 1002e43c     ClientStage.obj
 0002:00000440       ?_Min@?$AtlLimits@H@ATL@@2HB 1002e440     ClientStage.obj
 0002:00000444       ?_Max@?$AtlLimits@H@ATL@@2HB 1002e444     ClientStage.obj
 0002:00000448       ?_Min@?$AtlLimits@I@ATL@@2IB 1002e448     ClientStage.obj
 0002:0000044c       ?_Max@?$AtlLimits@I@ATL@@2IB 1002e44c     ClientStage.obj
 0002:00000450       ?_Min@?$AtlLimits@J@ATL@@2JB 1002e450     ClientStage.obj
 0002:00000454       ?_Max@?$AtlLimits@J@ATL@@2JB 1002e454     ClientStage.obj
 0002:00000458       ?_Min@?$AtlLimits@K@ATL@@2KB 1002e458     ClientStage.obj
 0002:0000045c       ?_Max@?$AtlLimits@K@ATL@@2KB 1002e45c     ClientStage.obj
 0002:00000460       ?_Min@?$AtlLimits@_J@ATL@@2_JB 1002e460     ClientStage.obj
 0002:00000468       ?_Max@?$AtlLimits@_J@ATL@@2_JB 1002e468     ClientStage.obj
 0002:00000470       ?_Min@?$AtlLimits@_K@ATL@@2_KB 1002e470     ClientStage.obj
 0002:00000478       ?_Max@?$AtlLimits@_K@ATL@@2_KB 1002e478     ClientStage.obj
 0002:00000480       ?VT@?$CVarTypeInfo@D@ATL@@2GB 1002e480     ClientStage.obj
 0002:00000484       ?pmField@?$CVarTypeInfo@D@ATL@@2QQtagVARIANT@@DQ3@ 1002e484     ClientStage.obj
 0002:00000488       ?VT@?$CVarTypeInfo@E@ATL@@2GB 1002e488     ClientStage.obj
 0002:0000048c       ?pmField@?$CVarTypeInfo@E@ATL@@2QQtagVARIANT@@EQ3@ 1002e48c     ClientStage.obj
 0002:00000490       ?VT@?$CVarTypeInfo@PAD@ATL@@2GB 1002e490     ClientStage.obj
 0002:00000494       ?pmField@?$CVarTypeInfo@PAD@ATL@@2QQtagVARIANT@@PADQ3@ 1002e494     ClientStage.obj
 0002:00000498       ?VT@?$CVarTypeInfo@PAE@ATL@@2GB 1002e498     ClientStage.obj
 0002:0000049c       ?pmField@?$CVarTypeInfo@PAE@ATL@@2QQtagVARIANT@@PAEQ3@ 1002e49c     ClientStage.obj
 0002:000004a0       ?VT@?$CVarTypeInfo@F@ATL@@2GB 1002e4a0     ClientStage.obj
 0002:000004a4       ?pmField@?$CVarTypeInfo@F@ATL@@2QQtagVARIANT@@FQ3@ 1002e4a4     ClientStage.obj
 0002:000004a8       ?VT@?$CVarTypeInfo@PAF@ATL@@2GB 1002e4a8     ClientStage.obj
 0002:000004ac       ?pmField@?$CVarTypeInfo@PAF@ATL@@2QQtagVARIANT@@PAFQ3@ 1002e4ac     ClientStage.obj
 0002:000004b0       ?VT@?$CVarTypeInfo@G@ATL@@2GB 1002e4b0     ClientStage.obj
 0002:000004b4       ?pmField@?$CVarTypeInfo@G@ATL@@2QQtagVARIANT@@GQ3@ 1002e4b4     ClientStage.obj
 0002:000004b8       ?VT@?$CVarTypeInfo@PAG@ATL@@2GB 1002e4b8     ClientStage.obj
 0002:000004bc       ?pmField@?$CVarTypeInfo@PAG@ATL@@2QQtagVARIANT@@PAGQ3@ 1002e4bc     ClientStage.obj
 0002:000004c0       ?VT@?$CVarTypeInfo@H@ATL@@2GB 1002e4c0     ClientStage.obj
 0002:000004c4       ?pmField@?$CVarTypeInfo@H@ATL@@2QQtagVARIANT@@HQ3@ 1002e4c4     ClientStage.obj
 0002:000004c8       ?VT@?$CVarTypeInfo@PAH@ATL@@2GB 1002e4c8     ClientStage.obj
 0002:000004cc       ?pmField@?$CVarTypeInfo@PAH@ATL@@2QQtagVARIANT@@PAHQ3@ 1002e4cc     ClientStage.obj
 0002:000004d0       ?VT@?$CVarTypeInfo@I@ATL@@2GB 1002e4d0     ClientStage.obj
 0002:000004d4       ?pmField@?$CVarTypeInfo@I@ATL@@2QQtagVARIANT@@IQ3@ 1002e4d4     ClientStage.obj
 0002:000004d8       ?VT@?$CVarTypeInfo@PAI@ATL@@2GB 1002e4d8     ClientStage.obj
 0002:000004dc       ?pmField@?$CVarTypeInfo@PAI@ATL@@2QQtagVARIANT@@PAIQ3@ 1002e4dc     ClientStage.obj
 0002:000004e0       ?VT@?$CVarTypeInfo@J@ATL@@2GB 1002e4e0     ClientStage.obj
 0002:000004e4       ?pmField@?$CVarTypeInfo@J@ATL@@2QQtagVARIANT@@JQ3@ 1002e4e4     ClientStage.obj
 0002:000004e8       ?VT@?$CVarTypeInfo@PAJ@ATL@@2GB 1002e4e8     ClientStage.obj
 0002:000004ec       ?pmField@?$CVarTypeInfo@PAJ@ATL@@2QQtagVARIANT@@PAJQ3@ 1002e4ec     ClientStage.obj
 0002:000004f0       ?VT@?$CVarTypeInfo@K@ATL@@2GB 1002e4f0     ClientStage.obj
 0002:000004f4       ?pmField@?$CVarTypeInfo@K@ATL@@2QQtagVARIANT@@KQ3@ 1002e4f4     ClientStage.obj
 0002:000004f8       ?VT@?$CVarTypeInfo@PAK@ATL@@2GB 1002e4f8     ClientStage.obj
 0002:000004fc       ?pmField@?$CVarTypeInfo@PAK@ATL@@2QQtagVARIANT@@PAKQ3@ 1002e4fc     ClientStage.obj
 0002:00000500       ?VT@?$CVarTypeInfo@_J@ATL@@2GB 1002e500     ClientStage.obj
 0002:00000504       ?pmField@?$CVarTypeInfo@_J@ATL@@2QQtagVARIANT@@_JQ3@ 1002e504     ClientStage.obj
 0002:00000508       ?VT@?$CVarTypeInfo@PA_J@ATL@@2GB 1002e508     ClientStage.obj
 0002:0000050c       ?pmField@?$CVarTypeInfo@PA_J@ATL@@2QQtagVARIANT@@PA_JQ3@ 1002e50c     ClientStage.obj
 0002:00000510       ?VT@?$CVarTypeInfo@_K@ATL@@2GB 1002e510     ClientStage.obj
 0002:00000514       ?pmField@?$CVarTypeInfo@_K@ATL@@2QQtagVARIANT@@_KQ3@ 1002e514     ClientStage.obj
 0002:00000518       ?VT@?$CVarTypeInfo@PA_K@ATL@@2GB 1002e518     ClientStage.obj
 0002:0000051c       ?pmField@?$CVarTypeInfo@PA_K@ATL@@2QQtagVARIANT@@PA_KQ3@ 1002e51c     ClientStage.obj
 0002:00000520       ?VT@?$CVarTypeInfo@M@ATL@@2GB 1002e520     ClientStage.obj
 0002:00000524       ?pmField@?$CVarTypeInfo@M@ATL@@2QQtagVARIANT@@MQ3@ 1002e524     ClientStage.obj
 0002:00000528       ?VT@?$CVarTypeInfo@PAM@ATL@@2GB 1002e528     ClientStage.obj
 0002:0000052c       ?pmField@?$CVarTypeInfo@PAM@ATL@@2QQtagVARIANT@@PAMQ3@ 1002e52c     ClientStage.obj
 0002:00000530       ?VT@?$CVarTypeInfo@N@ATL@@2GB 1002e530     ClientStage.obj
 0002:00000534       ?pmField@?$CVarTypeInfo@N@ATL@@2QQtagVARIANT@@NQ3@ 1002e534     ClientStage.obj
 0002:00000538       ?VT@?$CVarTypeInfo@PAN@ATL@@2GB 1002e538     ClientStage.obj
 0002:0000053c       ?pmField@?$CVarTypeInfo@PAN@ATL@@2QQtagVARIANT@@PANQ3@ 1002e53c     ClientStage.obj
 0002:00000540       ?VT@?$CVarTypeInfo@UtagVARIANT@@@ATL@@2GB 1002e540     ClientStage.obj
 0002:00000544       ?VT@?$CVarTypeInfo@PA_W@ATL@@2GB 1002e544     ClientStage.obj
 0002:00000548       ?pmField@?$CVarTypeInfo@PA_W@ATL@@2QQtagVARIANT@@PA_WQ3@ 1002e548     ClientStage.obj
 0002:0000054c       ?VT@?$CVarTypeInfo@PAPA_W@ATL@@2GB 1002e54c     ClientStage.obj
 0002:00000550       ?pmField@?$CVarTypeInfo@PAPA_W@ATL@@2QQtagVARIANT@@PAPA_WQ3@ 1002e550     ClientStage.obj
 0002:00000554       ?VT@?$CVarTypeInfo@PAUIUnknown@@@ATL@@2GB 1002e554     ClientStage.obj
 0002:00000558       ?pmField@?$CVarTypeInfo@PAUIUnknown@@@ATL@@2QQtagVARIANT@@PAUIUnknown@@Q3@ 1002e558     ClientStage.obj
 0002:0000055c       ?VT@?$CVarTypeInfo@PAPAUIUnknown@@@ATL@@2GB 1002e55c     ClientStage.obj
 0002:00000560       ?pmField@?$CVarTypeInfo@PAPAUIUnknown@@@ATL@@2QQtagVARIANT@@PAPAUIUnknown@@Q3@ 1002e560     ClientStage.obj
 0002:00000564       ?VT@?$CVarTypeInfo@PAUIDispatch@@@ATL@@2GB 1002e564     ClientStage.obj
 0002:00000568       ?pmField@?$CVarTypeInfo@PAUIDispatch@@@ATL@@2QQtagVARIANT@@PAUIDispatch@@Q3@ 1002e568     ClientStage.obj
 0002:0000056c       ?VT@?$CVarTypeInfo@PAPAUIDispatch@@@ATL@@2GB 1002e56c     ClientStage.obj
 0002:00000570       ?pmField@?$CVarTypeInfo@PAPAUIDispatch@@@ATL@@2QQtagVARIANT@@PAPAUIDispatch@@Q3@ 1002e570     ClientStage.obj
 0002:00000574       ?VT@?$CVarTypeInfo@TtagCY@@@ATL@@2GB 1002e574     ClientStage.obj
 0002:00000578       ?pmField@?$CVarTypeInfo@TtagCY@@@ATL@@2QQtagVARIANT@@TtagCY@@Q3@ 1002e578     ClientStage.obj
 0002:0000057c       ?VT@?$CVarTypeInfo@PATtagCY@@@ATL@@2GB 1002e57c     ClientStage.obj
 0002:00000580       ?pmField@?$CVarTypeInfo@PATtagCY@@@ATL@@2QQtagVARIANT@@PATtagCY@@Q3@ 1002e580     ClientStage.obj
 0002:00000584       _LIBID_ATLLib              1002e584     ClientStage.obj
 0002:00000594       _CLSID_Registrar           1002e594     ClientStage.obj
 0002:000005a4       _IID_IRegistrar            1002e5a4     ClientStage.obj
 0002:000005b4       _IID_IAxWinHostWindow      1002e5b4     ClientStage.obj
 0002:000005c4       _IID_IAxWinAmbientDispatch 1002e5c4     ClientStage.obj
 0002:000005d4       _IID_IInternalConnection   1002e5d4     ClientStage.obj
 0002:000005e4       _IID_IDocHostUIHandlerDispatch 1002e5e4     ClientStage.obj
 0002:000005f4       _IID_IAxWinHostWindowLic   1002e5f4     ClientStage.obj
 0002:00000604       _IID_IAxWinAmbientDispatchEx 1002e604     ClientStage.obj
 0002:00000634       ?MAX_VALUE@CRegParser@ATL@@1HB 1002e634     ClientStage.obj
 0002:00000638       ?MAX_TYPE@CRegParser@ATL@@1HB 1002e638     ClientStage.obj
 0002:0000063c       ?rgszNeverDelete@CRegParser@ATL@@1QBQBDB 1002e63c     ClientStage.obj
 0002:0000066c       ?cbNeverDelete@CRegParser@ATL@@1HB 1002e66c     ClientStage.obj
 0002:00000674       ??_7bad_alloc@std@@6B@     1002e674     ClientStage.obj
 0002:00000680       ??_7Thank_you@Define_the_symbol__ATL_MIXED@@6B@ 1002e680     ClientStage.obj
 0002:00000688       ??_7CGameClient@@6BAllocator@CIOBuffer@Win32@OnlineGameLib@@@ 1002e688     ClientStage.obj
 0002:0000069c       ??_7CGameClient@@6BCThread@Win32@OnlineGameLib@@@ 1002e69c     ClientStage.obj
 0002:000006d0       ??_7CGameClient@@6B@       1002e6d0     ClientStage.obj
 0002:000006fc       ??_7CClientFactory@@6B@    1002e6fc     ClientStage.obj
 0002:00000714       ??_C@_0CM@JEGANKOE@CGameClient?3?3Startup?5?9?5Unexpecte@ 1002e714     ClientStage.obj
 0002:00000740       ??_C@_03NLJIHOMM@?5?9?5?$AA@ 1002e740     ClientStage.obj
 0002:00000744       ??_C@_0CB@CGMGMIOL@CGameClient?3?3Startup?5Exception?3?5@ 1002e744     ClientStage.obj
 0002:00000768       ??_C@_0CO@EHDCBED@CConnectManager?3?3Cleanup?5Unexpec@ 1002e768     ClientStage.obj
 0002:00000798       ??_C@_0CF@HKPLICKH@CConnectManager?3?3Cleanup?5Excepti@ 1002e798     ClientStage.obj
 0002:000007c0       ??_C@_0BF@KNCBLKP@Unexpected?5exception?$AA@ 1002e7c0     ClientStage.obj
 0002:000007d8       ??_C@_0M@KDEACOCM@Exception?3?5?$AA@ 1002e7d8     ClientStage.obj
 0002:000007e4       ??_C@_0BM@BOPLFMLK@Got?5message?5plus?5extra?5data?$AA@ 1002e7e4     ClientStage.obj
 0002:00000800       ??_C@_0CP@GOBFEPNJ@Got?5a?5complete?5message?5and?5begin@ 1002e800     ClientStage.obj
 0002:00000830       ??_C@_0CH@JJEIFEDH@found?5error?5and?5close?5this?5conne@ 1002e830     ClientStage.obj
 0002:00000858       ??_C@_0P@PDKPKIJL@Too?5much?5data?$CB?$AA@ 1002e858     ClientStage.obj
 0002:00000868       ??_C@_0CF@BIMENOIK@ReadCompleted?5?9?5Unexpected?5excep@ 1002e868     ClientStage.obj
 0002:00000890       ??_C@_0BN@EBCMFPJB@ReadCompleted?5?9?5Exception?5?9?5?$AA@ 1002e890     ClientStage.obj
 0002:000008b0       _IID_IClassFactory         1002e8b0     uuid:unknwn_i.obj
 0002:000008c0       _IID_AsyncIUnknown         1002e8c0     uuid:unknwn_i.obj
 0002:000008d0       _IID_IUnknown              1002e8d0     uuid:unknwn_i.obj
 0002:00000904       ??_7CSocketClient@Win32@OnlineGameLib@@6BAllocator@CIOBuffer@12@@ 1002e904     common:SocketClient.obj
 0002:00000918       ??_7CSocketClient@Win32@OnlineGameLib@@6BCThread@12@@ 1002e918     common:SocketClient.obj
 0002:00000948       ??_C@_0DL@DOOINJLP@CSocketClient?3?3StopAcceptingConn@ 1002e948     common:SocketClient.obj
 0002:00000984       ??_C@_0CK@EFCPGMCO@CSocketClient?3?3setsockopt?$CI?5SO_LI@ 1002e984     common:SocketClient.obj
 0002:000009b0       ??_C@_0CB@PMPAGMDN@CSocket?3?3CreateListeningSocket?$CI?$CJ@ 1002e9b0     common:SocketClient.obj
 0002:000009d8       ??_7CException@Win32@OnlineGameLib@@6B@ 1002e9d8     common:SocketClient.obj
 0002:000009e8       ??_7CWin32Exception@Win32@OnlineGameLib@@6B@ 1002e9e8     common:SocketClient.obj
 0002:000009f4       ??_C@_0CE@IMHAFHHA@CSocketClient?3?3OnRead?$CI?$CJ?5?9?5WSARec@ 1002e9f4     common:SocketClient.obj
 0002:00000a18       ??_C@_0CD@KBPLMNOD@CSocketClient?3?3Write?$CI?$CJ?5?9?5WSASend@ 1002ea18     common:SocketClient.obj
 0002:00000a3c       ??_C@_0BP@PAOEFEJO@Server?5send?5cliper?5mode?5error?$CB?$AA@ 1002ea3c     common:SocketClient.obj
 0002:00000a5c       ??_C@_0CM@FLDNHAJD@CSocketClient?3?3Run?$CI?$CJ?5?9?5Unexpecte@ 1002ea5c     common:SocketClient.obj
 0002:00000a88       ??_C@_0CD@BHGFIOHG@CSocketClient?3?3Run?$CI?$CJ?5?9?5Exception@ 1002ea88     common:SocketClient.obj
 0002:00000aac       ??_C@_0DA@LCEFLHFE@CSocketClient?3?3Run?$CI?$CJ?5?9?5WaitForMu@ 1002eaac     common:SocketClient.obj
 0002:00000b00       ??_7Allocator@CIOBuffer@Win32@OnlineGameLib@@6B@ 1002eb00     common:IOBuffer.obj
 0002:00000b14       ??_7logic_error@std@@6B@   1002eb14     common:IOBuffer.obj
 0002:00000b20       ??_7length_error@std@@6B@  1002eb20     common:IOBuffer.obj
 0002:00000b2c       ??_7out_of_range@std@@6B@  1002eb2c     common:IOBuffer.obj
 0002:00000b34       ??_C@_0BM@PAPJHAGI@invalid?5map?1set?$DMT?$DO?5iterator?$AA@ 1002eb34     common:IOBuffer.obj
 0002:00000b50       ??_C@_0BE@JONHPENG@map?1set?$DMT?$DO?5too?5long?$AA@ 1002eb50     common:IOBuffer.obj
 0002:00000b64       ??_C@_0BD@IOMCKPME@CIOBuffer?3?3AddData?$AA@ 1002eb64     common:IOBuffer.obj
 0002:00000b78       ??_C@_0BL@LAEGIPOC@Not?5enough?5space?5in?5buffer?$AA@ 1002eb78     common:IOBuffer.obj
 0002:00000b94       ??_C@_0CB@ICEPLOEJ@CIOBuffer?3?3Allocator?3?3Allocate?$CI?$CJ@ 1002eb94     common:IOBuffer.obj
 0002:00000bb8       ??_C@_0O@NALGGDJF@Out?5of?5memory?$AA@ 1002ebb8     common:IOBuffer.obj
 0002:00000bc8       ??_C@_0CA@BPKGLJAF@CIOBuffer?3?3Allocator?3?3Release?$CI?$CJ?$AA@ 1002ebc8     common:IOBuffer.obj
 0002:00000be8       ??_C@_0BA@BPMKMKBN@pBuffer?5is?5null?$AA@ 1002ebe8     common:IOBuffer.obj
 0002:00000bf8       ??_C@_0BF@MHGIOGDA@CIOBuffer?3?3Release?$CI?$CJ?$AA@ 1002ebf8     common:IOBuffer.obj
 0002:00000c10       ??_C@_0BG@LJGOFAJE@m_ref?5is?5already?5zero?$AA@ 1002ec10     common:IOBuffer.obj
 0002:00000c4c       ??_7facet@locale@std@@6B@  1002ec4c     common:Utils.obj
 0002:00000c54       ??_7ctype_base@std@@6B@    1002ec54     common:Utils.obj
 0002:00000c5c       ??_7ios_base@std@@6B@      1002ec5c     common:Utils.obj
 0002:00000c60       ??_C@_04BJPIHCBA@Info?$AA@ 1002ec60     common:Utils.obj
 0002:00000c68       ??_C@_0M@CDHNGIPM@?$CFu?4?$CFu?4?$CFu?4?$CFu?$AA@ 1002ec68     common:Utils.obj
 0002:00000c78       ??_7?$basic_ostream@DU?$char_traits@D@std@@@std@@6B@ 1002ec78     common:Utils.obj
 0002:00000c80       ??_7?$basic_ios@DU?$char_traits@D@std@@@std@@6B@ 1002ec80     common:Utils.obj
 0002:00000c88       ??_7?$basic_istream@DU?$char_traits@D@std@@@std@@6B@ 1002ec88     common:Utils.obj
 0002:00000c90       ??_7?$basic_iostream@DU?$char_traits@D@std@@@std@@6B@ 1002ec90     common:Utils.obj
 0002:00000c94       ??_8?$basic_ostream@DU?$char_traits@D@std@@@std@@7B@ 1002ec94     common:Utils.obj
 0002:00000ca0       ??_7?$basic_streambuf@DU?$char_traits@D@std@@@std@@6B@ 1002eca0     common:Utils.obj
 0002:00000cdc       ??_7?$basic_filebuf@DU?$char_traits@D@std@@@std@@6B@ 1002ecdc     common:Utils.obj
 0002:00000d18       ??_7codecvt_base@std@@6B@  1002ed18     common:Utils.obj
 0002:00000d2c       ??_7runtime_error@std@@6B@ 1002ed2c     common:Utils.obj
 0002:00000d38       ??_7failure@ios_base@std@@6B@ 1002ed38     common:Utils.obj
 0002:00000d40       ??_C@_0BA@ELKIONDK@bad?5locale?5name?$AA@ 1002ed40     common:Utils.obj
 0002:00000d54       ??_7?$ctype@D@std@@6B@     1002ed54     common:Utils.obj
 0002:00000d80       ??_C@_01GFHCPBMG@C?$AA@    1002ed80     common:Utils.obj
 0002:00000d84       ??_C@_0BF@OOHOMBOF@ios_base?3?3eofbit?5set?$AA@ 1002ed84     common:Utils.obj
 0002:00000d9c       ??_C@_0BG@FMKFHCIL@ios_base?3?3failbit?5set?$AA@ 1002ed9c     common:Utils.obj
 0002:00000db4       ??_C@_0BF@PHHKMMFD@ios_base?3?3badbit?5set?$AA@ 1002edb4     common:Utils.obj
 0002:00000dcc       ??_C@_0BG@FEDMODFP@GetCurrentDirectory?$CI?$CJ?$AA@ 1002edcc     common:Utils.obj
 0002:00000de4       ??_C@_0CA@EKPOOGMI@Failed?5to?5get?5current?5directory?$AA@ 1002ede4     common:Utils.obj
 0002:00000e04       ??_C@_0N@NMLPILGG@?$CF02d?$CF02d?$CF02d?$AA@ 1002ee04     common:Utils.obj
 0002:00000e14       ??_C@_0P@PLMNPDMB@?$CF02d?3?$CF02d?3?$CF02d?$AA@ 1002ee14     common:Utils.obj
 0002:00000e24       ??_C@_04JFFKLGJF@?$CF02X?$AA@ 1002ee24     common:Utils.obj
 0002:00000e29       ??_C@_00CNPNBAHC@?$AA@     1002ee29     common:Utils.obj
 0002:00000e2c       ??_C@_01EEMJAFIK@?6?$AA@   1002ee2c     common:Utils.obj
 0002:00000e30       ??_C@_03NDEAONJP@?5?5?5?$AA@ 1002ee30     common:Utils.obj
 0002:00000e34       ??_C@_01CLKCMJKC@?5?$AA@   1002ee34     common:Utils.obj
 0002:00000e38       ??_C@_0M@DIMCGEGC@UNAVAILABLE?$AA@ 1002ee38     common:Utils.obj
 0002:00000e44       ??_C@_0CF@HNBACNBO@?2StringFileInfo?2?$CF04x?$CF04x?2FileVer@ 1002ee44     common:Utils.obj
 0002:00000e6c       ??_C@_0BJ@KPNNKBCP@?2VarFileInfo?2Translation?$AA@ 1002ee6c     common:Utils.obj
 0002:00000e88       ??_C@_08EPJLHIJG@bad?5cast?$AA@ 1002ee88     common:Utils.obj
 0002:00000e98       ??_7?$codecvt@DDH@std@@6B@ 1002ee98     common:Utils.obj
 0002:00000ebc       ??_7?$basic_fstream@DU?$char_traits@D@std@@@std@@6B@ 1002eebc     common:Utils.obj
 0002:00000ec0       ??_8?$basic_istream@DU?$char_traits@D@std@@@std@@7B@ 1002eec0     common:Utils.obj
 0002:00000ec8       ??_8?$basic_iostream@DU?$char_traits@D@std@@@std@@7B?$basic_ostream@DU?$char_traits@D@std@@@1@@ 1002eec8     common:Utils.obj
 0002:00000ed0       ??_8?$basic_iostream@DU?$char_traits@D@std@@@std@@7B?$basic_istream@DU?$char_traits@D@std@@@1@@ 1002eed0     common:Utils.obj
 0002:00000ed8       ??_8?$basic_fstream@DU?$char_traits@D@std@@@std@@7B?$basic_ostream@DU?$char_traits@D@std@@@1@@ 1002eed8     common:Utils.obj
 0002:00000ee0       ??_8?$basic_fstream@DU?$char_traits@D@std@@@std@@7B?$basic_istream@DU?$char_traits@D@std@@@1@@ 1002eee0     common:Utils.obj
 0002:00000ee8       ??_C@_0M@JLHFKIMF@?2common?4log?$AA@ 1002eee8     common:Utils.obj
 0002:00000ef8       ??_7CThread@Win32@OnlineGameLib@@6B@ 1002eef8     common:Thread.obj
 0002:00000f00       ??_C@_0BB@DDILGOEF@CThread?3?3Start?$CI?$CJ?$AA@ 1002ef00     common:Thread.obj
 0002:00000f14       ??_C@_0DJ@HNAIABIO@Thread?5already?5running?5?9?5you?5can@ 1002ef14     common:Thread.obj
 0002:00000f50       ??_C@_0CC@KJOLDJOE@CThread?3?3Start?$CI?$CJ?5?9?5_beginthreade@ 1002ef50     common:Thread.obj
 0002:00000f74       ??_C@_0CG@EIMLOMLK@CThread?3?3Wait?$CI?$CJ?5?9?5WaitForSingleO@ 1002ef74     common:Thread.obj
 0002:00000f9c       ??_C@_0BA@EDDHNLC@CThread?3?3Wait?$CI?$CJ?$AA@ 1002ef9c     common:Thread.obj
 0002:00000fac       ??_C@_0CE@FNEEFDAP@Unexpected?5timeout?5on?5infinite?5w@ 1002efac     common:Thread.obj
 0002:00000fd4       ??_7CEvent@Win32@OnlineGameLib@@6B@ 1002efd4     common:Event.obj
 0002:00000fd8       ??_C@_0BB@EHIAEGNH@CEvent?3?3Create?$CI?$CJ?$AA@ 1002efd8     common:Event.obj
 0002:00000fec       ??_C@_0CF@OJNFELIB@CEvent?3?3Wait?$CI?$CJ?5?9?5WaitForSingleOb@ 1002efec     common:Event.obj
 0002:00001014       ??_C@_0BA@CDAFMLOD@CEvent?3?3Reset?$CI?$CJ?$AA@ 1002f014     common:Event.obj
 0002:00001024       ??_C@_0O@GODIEGGL@CEvent?3?3Set?$CI?$CJ?$AA@ 1002f024     common:Event.obj
 0002:00001034       ??_C@_0BA@PDHLLCMG@CEvent?3?3Pulse?$CI?$CJ?$AA@ 1002f034     common:Event.obj
 0002:00001044       ??_C@_0P@OJPPPAGG@CEvent?3?3Wait?$CI?$CJ?$AA@ 1002f044     common:Event.obj
 0002:00001054       ??_C@_0DA@EEEHOGGM@CEventSelect?3?3AssociateEvent?$CI?$CJ?5?9@ 1002f054     common:EventSelect.obj
 0002:00001084       ??_C@_0DA@CKINHGPB@CEventSelect?3?3AssociateEvent?$CI?$CJ?5?9@ 1002f084     common:EventSelect.obj
 0002:000010b4       ??_C@_0BN@EGJAKOPG@CUsesWinsock?3?3CUsesWinsock?$CI?$CJ?$AA@ 1002f0b4     common:UsesWinsock.obj
 0002:000010d8       ??_7CManualResetEvent@Win32@OnlineGameLib@@6B@ 1002f0d8     common:ManualResetEvent.obj
 0002:000010e0       ??_7Exception@CSocket@Win32@OnlineGameLib@@6B@ 1002f0e0     common:Socket.obj
 0002:000010ec       ??_C@_0BD@OCKOLELA@CSocket?3?3CSocket?$CI?$CJ?$AA@ 1002f0ec     common:Socket.obj
 0002:00001100       ??_C@_0BB@DOJNCMIM@CSocket?3?3Close?$CI?$CJ?$AA@ 1002f100     common:Socket.obj
 0002:00001114       ??_C@_0BJ@IIBBBIL@CSocket?3?3AbortiveClose?$CI?$CJ?$AA@ 1002f114     common:Socket.obj
 0002:00001130       ??_C@_0BF@IIGHPAFN@?5CSocket?3?3Shutdown?$CI?$CJ?$AA@ 1002f130     common:Socket.obj
 0002:00001148       ??_C@_0BC@DFOJKHKN@CSocket?3?3Listen?$CI?$CJ?$AA@ 1002f148     common:Socket.obj
 0002:0000115c       ??_C@_0BA@NGKEDMMI@CSocket?3?3Bind?$CI?$CJ?$AA@ 1002f15c     common:Socket.obj
 0002:0000116c       ??_C@_0BD@DCJMHCPI@CSocket?3?3Connect?$CI?$CJ?$AA@ 1002f16c     common:Socket.obj
 0002:000011a4       ??_7exception@std@@6B@     1002f1a4     LIBCMT:stdexcpt.obj
 0002:000011ac       ??_C@_0BC@EOODALEL@Unknown?5exception?$AA@ 1002f1ac     LIBCMT:stdexcpt.obj
 0002:000011c4       ??_7bad_cast@std@@6B@      1002f1c4     LIBCMT:stdexcpt.obj
 0002:000011d0       ??_7bad_typeid@std@@6B@    1002f1d0     LIBCMT:stdexcpt.obj
 0002:000011dc       ??_7__non_rtti_object@std@@6B@ 1002f1dc     LIBCMT:stdexcpt.obj
 0002:000011e8       ??_7type_info@@6B@         1002f1e8     LIBCMT:typinfo.obj
 0002:000011ec       ?ProcessDetach@NativeDll@<CrtImplementationDetails>@@0IB 1002f1ec     LIBCMT:trnsctrl.obj
 0002:000011f0       ?ProcessAttach@NativeDll@<CrtImplementationDetails>@@0IB 1002f1f0     LIBCMT:trnsctrl.obj
 0002:000011f4       ?ThreadAttach@NativeDll@<CrtImplementationDetails>@@0IB 1002f1f4     LIBCMT:trnsctrl.obj
 0002:000011f8       ?ThreadDetach@NativeDll@<CrtImplementationDetails>@@0IB 1002f1f8     LIBCMT:trnsctrl.obj
 0002:000011fc       ?ProcessVerifier@NativeDll@<CrtImplementationDetails>@@0IB 1002f1fc     LIBCMT:trnsctrl.obj
 0002:00001220       __pDefaultRawDllMain       1002f220     LIBCMT:dllcrt0.obj
 0002:00001220       __pRawDllMain              1002f220     LIBCMT:dllcrt0.obj
 0002:00001224       __pDestructExceptionObject 1002f224     LIBCMT:frame.obj
 0002:0000122c       ??_7bad_exception@std@@6B@ 1002f22c     LIBCMT:frame.obj
 0002:00001234       ??_C@_0O@DPKOEFFH@bad?5exception?$AA@ 1002f234     LIBCMT:frame.obj
 0002:00001244       ??_C@_07EPKMNAGK@?4mixcrt?$AA@ 1002f244     LIBCMT:tidtable.obj
 0002:0000124c       ??_C@_0O@NLDKAIKN@EncodePointer?$AA@ 1002f24c     LIBCMT:tidtable.obj
 0002:0000125c       ??_C@_0N@NHGLKGEC@KERNEL32?4DLL?$AA@ 1002f25c     LIBCMT:tidtable.obj
 0002:0000126c       ??_C@_0O@KBPMFGHI@DecodePointer?$AA@ 1002f26c     LIBCMT:tidtable.obj
 0002:0000127c       ??_C@_07PEJMOBNF@FlsFree?$AA@ 1002f27c     LIBCMT:tidtable.obj
 0002:00001284       ??_C@_0M@JCPCPOEF@FlsSetValue?$AA@ 1002f284     LIBCMT:tidtable.obj
 0002:00001290       ??_C@_0M@GDNOONDI@FlsGetValue?$AA@ 1002f290     LIBCMT:tidtable.obj
 0002:0000129c       ??_C@_08KNHFBNJ@FlsAlloc?$AA@ 1002f29c     LIBCMT:tidtable.obj
 0002:000012b0       ??_C@_0P@MIGLKIOC@CorExitProcess?$AA@ 1002f2b0     LIBCMT:crt0dat.obj
 0002:000012c0       ??_C@_0M@MBOPBNBK@mscoree?4dll?$AA@ 1002f2c0     LIBCMT:crt0dat.obj
 0002:000012cc       ??_C@_0P@GGKDKEEG@runtime?5error?5?$AA@ 1002f2cc     LIBCMT:crt0msg.obj
 0002:000012dc       ??_C@_02PCIJFNDE@?$AN?6?$AA@ 1002f2dc     LIBCMT:crt0msg.obj
 0002:000012e0       ??_C@_0O@MJNIPGOH@TLOSS?5error?$AN?6?$AA@ 1002f2e0     LIBCMT:crt0msg.obj
 0002:000012f0       ??_C@_0N@BONNPDHF@SING?5error?$AN?6?$AA@ 1002f2f0     LIBCMT:crt0msg.obj
 0002:00001300       ??_C@_0P@MBDAJNE@DOMAIN?5error?$AN?6?$AA@ 1002f300     LIBCMT:crt0msg.obj
 0002:00001310       ??_C@_0JL@DFDOOABL@R6034?$AN?6An?5application?5has?5made?5a@ 1002f310     LIBCMT:crt0msg.obj
 0002:000013b0       ??_C@_0PH@EPAFIJ@R6033?$AN?6?9?5Attempt?5to?5use?5MSIL?5cod@ 1002f3b0     LIBCMT:crt0msg.obj
 0002:000014a8       ??_C@_0DD@BKEEABMM@R6032?$AN?6?9?5not?5enough?5space?5for?5lo@ 1002f4a8     LIBCMT:crt0msg.obj
 0002:000014e0       ??_C@_0GD@OFKILIED@R6031?$AN?6?9?5Attempt?5to?5initialize?5t@ 1002f4e0     LIBCMT:crt0msg.obj
 0002:00001544       ??_C@_0BP@LPMHJOKI@R6030?$AN?6?9?5CRT?5not?5initialized?$AN?6?$AA@ 1002f544     LIBCMT:crt0msg.obj
 0002:00001564       ??_C@_0CF@KJDAIALP@R6028?$AN?6?9?5unable?5to?5initialize?5he@ 1002f564     LIBCMT:crt0msg.obj
 0002:0000158c       ??_C@_0DF@GAKBPDFP@R6027?$AN?6?9?5not?5enough?5space?5for?5lo@ 1002f58c     LIBCMT:crt0msg.obj
 0002:000015c4       ??_C@_0DF@IBLNNAIG@R6026?$AN?6?9?5not?5enough?5space?5for?5st@ 1002f5c4     LIBCMT:crt0msg.obj
 0002:000015fc       ??_C@_0CG@IOHKGFNJ@R6025?$AN?6?9?5pure?5virtual?5function?5c@ 1002f5fc     LIBCMT:crt0msg.obj
 0002:00001624       ??_C@_0DF@JIJJFJDC@R6024?$AN?6?9?5not?5enough?5space?5for?5_o@ 1002f624     LIBCMT:crt0msg.obj
 0002:0000165c       ??_C@_0CJ@EGEJHFME@R6019?$AN?6?9?5unable?5to?5open?5console?5@ 1002f65c     LIBCMT:crt0msg.obj
 0002:00001688       ??_C@_0CB@GNHNIELH@R6018?$AN?6?9?5unexpected?5heap?5error?$AN?6@ 1002f688     LIBCMT:crt0msg.obj
 0002:000016ac       ??_C@_0CN@FOLDKNG@R6017?$AN?6?9?5unexpected?5multithread?5@ 1002f6ac     LIBCMT:crt0msg.obj
 0002:000016dc       ??_C@_0CM@FAHFJNHO@R6016?$AN?6?9?5not?5enough?5space?5for?5th@ 1002f6dc     LIBCMT:crt0msg.obj
 0002:00001708       ??_C@_0JG@LBKMGKLD@?$AN?6This?5application?5has?5requested@ 1002f708     LIBCMT:crt0msg.obj
 0002:000017a0       ??_C@_0CM@FLCNIPKK@R6009?$AN?6?9?5not?5enough?5space?5for?5en@ 1002f7a0     LIBCMT:crt0msg.obj
 0002:000017cc       ??_C@_0CK@KMMJOAPP@R6008?$AN?6?9?5not?5enough?5space?5for?5ar@ 1002f7cc     LIBCMT:crt0msg.obj
 0002:000017f8       ??_C@_0CN@LEKKICBM@R6002?$AN?6?9?5floating?5point?5support?5@ 1002f7f8     LIBCMT:crt0msg.obj
 0002:00001828       ??_C@_0CF@GOGNBNAK@Microsoft?5Visual?5C?$CL?$CL?5Runtime?5Lib@ 1002f828     LIBCMT:crt0msg.obj
 0002:00001850       ??_C@_02PHMGELLB@?6?6?$AA@ 1002f850     LIBCMT:crt0msg.obj
 0002:00001854       ??_C@_03KHICJKCI@?4?4?4?$AA@ 1002f854     LIBCMT:crt0msg.obj
 0002:00001858       ??_C@_0BH@DNAGHKFM@?$DMprogram?5name?5unknown?$DO?$AA@ 1002f858     LIBCMT:crt0msg.obj
 0002:00001870       ??_C@_0BK@OFGJDLJJ@Runtime?5Error?$CB?6?6Program?3?5?$AA@ 1002f870     LIBCMT:crt0msg.obj
 0002:0000188c       ??_C@_1O@CEDCILHN@?$AA?$CI?$AAn?$AAu?$AAl?$AAl?$AA?$CJ?$AA?$AA@ 1002f88c     LIBCMT:output.obj
 0002:0000189c       ??_C@_06OJHGLDPL@?$CInull?$CJ?$AA@ 1002f89c     LIBCMT:output.obj
 0002:000018a8       ___lookuptable             1002f8a8     LIBCMT:output.obj
 0002:00001904       ??_C@_07LCBHPJJN@LC_TIME?$AA@ 1002f904     LIBCMT:setlocal.obj
 0002:0000190c       ??_C@_0L@DLHIECNL@LC_NUMERIC?$AA@ 1002f90c     LIBCMT:setlocal.obj
 0002:00001918       ??_C@_0M@MIENIKLA@LC_MONETARY?$AA@ 1002f918     LIBCMT:setlocal.obj
 0002:00001924       ??_C@_08EADHIDAD@LC_CTYPE?$AA@ 1002f924     LIBCMT:setlocal.obj
 0002:00001930       ??_C@_0L@KFJHEKIK@LC_COLLATE?$AA@ 1002f930     LIBCMT:setlocal.obj
 0002:0000193c       ??_C@_06NEFDFEKB@LC_ALL?$AA@ 1002f93c     LIBCMT:setlocal.obj
 0002:00001948       ___lc_category             1002f948     LIBCMT:setlocal.obj
 0002:00001a10       ??_C@_03EGDHDPFD@_?4?0?$AA@ 1002fa10     LIBCMT:setlocal.obj
 0002:00001a14       ??_C@_01LFCBOECM@?4?$AA@   1002fa14     LIBCMT:setlocal.obj
 0002:00001a18       ??_C@_01IDAFKMJL@_?$AA@    1002fa18     LIBCMT:setlocal.obj
 0002:00001a1c       ??_C@_01ICJEACDI@?$DL?$AA@ 1002fa1c     LIBCMT:setlocal.obj
 0002:00001a20       ??_C@_01NEMOKFLO@?$DN?$AA@ 1002fa20     LIBCMT:setlocal.obj
 0002:00001a24       ??_C@_02BALPLPBG@?$DN?$DL?$AA@ 1002fa24     LIBCMT:setlocal.obj
 0002:00001a28       ??_C@_13NOLLCAOD@?$AA?$AA?$AA?$AA@ 1002fa28     LIBCMT:a_map.obj
 0002:00001a2c       ??_C@_0BK@CFCOFLF@?5Complete?5Object?5Locator?8?$AA@ 1002fa2c     LIBCMT:undname.obj
 0002:00001a48       ??_C@_0BN@MECKDCOJ@?5Class?5Hierarchy?5Descriptor?8?$AA@ 1002fa48     LIBCMT:undname.obj
 0002:00001a68       ??_C@_0BD@LGICGFMM@?5Base?5Class?5Array?8?$AA@ 1002fa68     LIBCMT:undname.obj
 0002:00001a7c       ??_C@_0BM@LDKODKLH@?5Base?5Class?5Descriptor?5at?5?$CI?$AA@ 1002fa7c     LIBCMT:undname.obj
 0002:00001a98       ??_C@_0BC@DAFEJGAK@?5Type?5Descriptor?8?$AA@ 1002fa98     LIBCMT:undname.obj
 0002:00001aac       ??_C@_0BM@PMGGMLDN@?$GAlocal?5static?5thread?5guard?8?$AA@ 1002faac     LIBCMT:undname.obj
 0002:00001ac8       ??_C@_0CL@FGIJHLCE@?$GAmanaged?5vector?5copy?5constructor@ 1002fac8     LIBCMT:undname.obj
 0002:00001af4       ??_C@_0CJ@GJELGAMM@?$GAvector?5vbase?5copy?5constructor?5i@ 1002faf4     LIBCMT:undname.obj
 0002:00001b20       ??_C@_0CD@CGAJBKEJ@?$GAvector?5copy?5constructor?5iterato@ 1002fb20     LIBCMT:undname.obj
 0002:00001b44       ??_C@_0CB@PDBIFEP@?$GAdynamic?5atexit?5destructor?5for?5?8@ 1002fb44     LIBCMT:undname.obj
 0002:00001b68       ??_C@_0BL@CLIPGLGB@?$GAdynamic?5initializer?5for?5?8?$AA@ 1002fb68     LIBCMT:undname.obj
 0002:00001b84       ??_C@_0CM@FCBBDIGB@?$GAeh?5vector?5vbase?5copy?5constructo@ 1002fb84     LIBCMT:undname.obj
 0002:00001bb0       ??_C@_0CG@HLDDJMAG@?$GAeh?5vector?5copy?5constructor?5iter@ 1002fbb0     LIBCMT:undname.obj
 0002:00001bd8       ??_C@_0CF@IMGKMJNO@?$GAmanaged?5vector?5destructor?5itera@ 1002fbd8     LIBCMT:undname.obj
 0002:00001c00       ??_C@_0CG@CFDHKGGD@?$GAmanaged?5vector?5constructor?5iter@ 1002fc00     LIBCMT:undname.obj
 0002:00001c28       ??_C@_0BN@CKNJLHMB@?$GAplacement?5delete?$FL?$FN?5closure?8?$AA@ 1002fc28     LIBCMT:undname.obj
 0002:00001c48       ??_C@_0BL@CNOONJFP@?$GAplacement?5delete?5closure?8?$AA@ 1002fc48     LIBCMT:undname.obj
 0002:00001c64       ??_C@_0P@HJKNJFNN@?$GAomni?5callsig?8?$AA@ 1002fc64     LIBCMT:undname.obj
 0002:00001c74       ??_C@_09LBNFPBCA@?5delete?$FL?$FN?$AA@ 1002fc74     LIBCMT:undname.obj
 0002:00001c80       ??_C@_06FHBGPFGH@?5new?$FL?$FN?$AA@ 1002fc80     LIBCMT:undname.obj
 0002:00001c88       ??_C@_0CE@IIHCMGGL@?$GAlocal?5vftable?5constructor?5closu@ 1002fc88     LIBCMT:undname.obj
 0002:00001cac       ??_C@_0BA@KKLDJDLB@?$GAlocal?5vftable?8?$AA@ 1002fcac     LIBCMT:undname.obj
 0002:00001cbc       ??_C@_05KHLCHHI@?$GARTTI?$AA@ 1002fcbc     LIBCMT:undname.obj
 0002:00001cc4       ??_C@_03KLGMFNMG@?$GAEH?$AA@ 1002fcc4     LIBCMT:undname.obj
 0002:00001cc8       ??_C@_0BA@KBCDOMBN@?$GAudt?5returning?8?$AA@ 1002fcc8     LIBCMT:undname.obj
 0002:00001cd8       ??_C@_0BL@LLKPOHJI@?$GAcopy?5constructor?5closure?8?$AA@ 1002fcd8     LIBCMT:undname.obj
 0002:00001cf4       ??_C@_0CH@OOJPLCPH@?$GAeh?5vector?5vbase?5constructor?5ite@ 1002fcf4     LIBCMT:undname.obj
 0002:00001d1c       ??_C@_0CA@GCEOPDGL@?$GAeh?5vector?5destructor?5iterator?8?$AA@ 1002fd1c     LIBCMT:undname.obj
 0002:00001d3c       ??_C@_0CB@JONCMFFK@?$GAeh?5vector?5constructor?5iterator?8@ 1002fd3c     LIBCMT:undname.obj
 0002:00001d60       ??_C@_0BL@NILFHHPC@?$GAvirtual?5displacement?5map?8?$AA@ 1002fd60     LIBCMT:undname.obj
 0002:00001d7c       ??_C@_0CE@IKBNEHA@?$GAvector?5vbase?5constructor?5iterat@ 1002fd7c     LIBCMT:undname.obj
 0002:00001da0       ??_C@_0BN@LFPFMEDL@?$GAvector?5destructor?5iterator?8?$AA@ 1002fda0     LIBCMT:undname.obj
 0002:00001dc0       ??_C@_0BO@PFGOCPJJ@?$GAvector?5constructor?5iterator?8?$AA@ 1002fdc0     LIBCMT:undname.obj
 0002:00001de0       ??_C@_0BN@IMDCHIKM@?$GAscalar?5deleting?5destructor?8?$AA@ 1002fde0     LIBCMT:undname.obj
 0002:00001e00       ??_C@_0BO@OBMKPJIG@?$GAdefault?5constructor?5closure?8?$AA@ 1002fe00     LIBCMT:undname.obj
 0002:00001e20       ??_C@_0BN@DEGPLNFK@?$GAvector?5deleting?5destructor?8?$AA@ 1002fe20     LIBCMT:undname.obj
 0002:00001e40       ??_C@_0BD@JDLKDPAB@?$GAvbase?5destructor?8?$AA@ 1002fe40     LIBCMT:undname.obj
 0002:00001e54       ??_C@_08OBABFOLI@?$GAstring?8?$AA@ 1002fe54     LIBCMT:undname.obj
 0002:00001e60       ??_C@_0BF@KDPPACIK@?$GAlocal?5static?5guard?8?$AA@ 1002fe60     LIBCMT:undname.obj
 0002:00001e78       ??_C@_08LLFFHHDJ@?$GAtypeof?8?$AA@ 1002fe78     LIBCMT:undname.obj
 0002:00001e84       ??_C@_07FEEIOKP@?$GAvcall?8?$AA@ 1002fe84     LIBCMT:undname.obj
 0002:00001e8c       ??_C@_09BLBHBJP@?$GAvbtable?8?$AA@ 1002fe8c     LIBCMT:undname.obj
 0002:00001e98       ??_C@_09IFPLHPGF@?$GAvftable?8?$AA@ 1002fe98     LIBCMT:undname.obj
 0002:00001ea4       ??_C@_02MHEGNOJ@?$FO?$DN?$AA@ 1002fea4     LIBCMT:undname.obj
 0002:00001ea8       ??_C@_02DHLNPPGH@?$HM?$DN?$AA@ 1002fea8     LIBCMT:undname.obj
 0002:00001eac       ??_C@_02FGJGFEAB@?$CG?$DN?$AA@ 1002feac     LIBCMT:undname.obj
 0002:00001eb0       ??_C@_03CDNPDDLA@?$DM?$DM?$DN?$AA@ 1002feb0     LIBCMT:undname.obj
 0002:00001eb4       ??_C@_03IKFCCPFF@?$DO?$DO?$DN?$AA@ 1002feb4     LIBCMT:undname.obj
 0002:00001eb8       ??_C@_02FENAOKFI@?$CF?$DN?$AA@ 1002feb8     LIBCMT:undname.obj
 0002:00001ebc       ??_C@_02FJEHGPIO@?1?$DN?$AA@ 1002febc     LIBCMT:undname.obj
 0002:00001ec0       ??_C@_02FKMDLLOA@?9?$DN?$AA@ 1002fec0     LIBCMT:undname.obj
 0002:00001ec4       ??_C@_02FOEOMHFC@?$CL?$DN?$AA@ 1002fec4     LIBCMT:undname.obj
 0002:00001ec8       ??_C@_02FPIMKNGF@?$CK?$DN?$AA@ 1002fec8     LIBCMT:undname.obj
 0002:00001ecc       ??_C@_02NONPIBCD@?$HM?$HM?$AA@ 1002fecc     LIBCMT:undname.obj
 0002:00001ed0       ??_C@_02PPKAJPJL@?$CG?$CG?$AA@ 1002fed0     LIBCMT:undname.obj
 0002:00001ed4       ??_C@_01DNKMNLPK@?$HM?$AA@ 1002fed4     LIBCMT:undname.obj
 0002:00001ed8       ??_C@_01JKBOJNNK@?$FO?$AA@ 1002fed8     LIBCMT:undname.obj
 0002:00001edc       ??_C@_01PJKLJHI@?$HO?$AA@  1002fedc     LIBCMT:undname.obj
 0002:00001ee0       ??_C@_02HCKGKOFO@?$CI?$CJ?$AA@ 1002fee0     LIBCMT:undname.obj
 0002:00001ee4       ??_C@_01IHBHIGKO@?0?$AA@   1002fee4     LIBCMT:undname.obj
 0002:00001ee8       ??_C@_02EEKDKGMJ@?$DO?$DN?$AA@ 1002fee8     LIBCMT:undname.obj
 0002:00001eec       ??_C@_01PPODPGHN@?$DO?$AA@ 1002feec     LIBCMT:undname.obj
 0002:00001ef0       ??_C@_02EHCHHCKH@?$DM?$DN?$AA@ 1002fef0     LIBCMT:undname.obj
 0002:00001ef4       ??_C@_01MNNFJEPP@?$DM?$AA@ 1002fef4     LIBCMT:undname.obj
 0002:00001ef8       ??_C@_01FGNFDNOH@?$CF?$AA@ 1002fef8     LIBCMT:undname.obj
 0002:00001efc       ??_C@_01KMDKNFGN@?1?$AA@   1002fefc     LIBCMT:undname.obj
 0002:00001f00       ??_C@_03MNHNFDLC@?9?$DO?$CK?$AA@ 1002ff00     LIBCMT:undname.obj
 0002:00001f04       ??_C@_01HNPIGOCE@?$CG?$AA@ 1002ff04     LIBCMT:undname.obj
 0002:00001f08       ??_C@_01MIFGBAGJ@?$CL?$AA@ 1002ff08     LIBCMT:undname.obj
 0002:00001f0c       ??_C@_01JOAMLHOP@?9?$AA@   1002ff0c     LIBCMT:undname.obj
 0002:00001f10       ??_C@_02BAABKJLB@?9?9?$AA@ 1002ff10     LIBCMT:undname.obj
 0002:00001f14       ??_C@_02ECNGHCIF@?$CL?$CL?$AA@ 1002ff14     LIBCMT:undname.obj
 0002:00001f18       ??_C@_01NBENCBCI@?$CK?$AA@ 1002ff18     LIBCMT:undname.obj
 0002:00001f1c       ??_C@_02HBOOOICD@?9?$DO?$AA@ 1002ff1c     LIBCMT:undname.obj
 0002:00001f20       ??_C@_08LHJFAFGD@operator?$AA@ 1002ff20     LIBCMT:undname.obj
 0002:00001f2c       ??_C@_02GPECMEKF@?$FL?$FN?$AA@ 1002ff2c     LIBCMT:undname.obj
 0002:00001f30       ??_C@_02FDNJECIE@?$CB?$DN?$AA@ 1002ff30     LIBCMT:undname.obj
 0002:00001f34       ??_C@_02EGOFBIJA@?$DN?$DN?$AA@ 1002ff34     LIBCMT:undname.obj
 0002:00001f38       ??_C@_01DCLJPIOD@?$CB?$AA@ 1002ff38     LIBCMT:undname.obj
 0002:00001f3c       ??_C@_02FODMEDOG@?$DM?$DM?$AA@ 1002ff3c     LIBCMT:undname.obj
 0002:00001f40       ??_C@_02GPIOPFAK@?$DO?$DO?$AA@ 1002ff40     LIBCMT:undname.obj
 0002:00001f44       ??_C@_07FPCDHGMM@?5delete?$AA@ 1002ff44     LIBCMT:undname.obj
 0002:00001f4c       ??_C@_04NIHEBCM@?5new?$AA@ 1002ff4c     LIBCMT:undname.obj
 0002:00001f54       ??_C@_0M@GFIIJFMG@__unaligned?$AA@ 1002ff54     LIBCMT:undname.obj
 0002:00001f60       ??_C@_0L@PILCLIHE@__restrict?$AA@ 1002ff60     LIBCMT:undname.obj
 0002:00001f6c       ??_C@_07JOMMBBKO@__ptr64?$AA@ 1002ff6c     LIBCMT:undname.obj
 0002:00001f74       ??_C@_09HIJEGCPM@__clrcall?$AA@ 1002ff74     LIBCMT:undname.obj
 0002:00001f80       ??_C@_0L@JMKHOMEK@__fastcall?$AA@ 1002ff80     LIBCMT:undname.obj
 0002:00001f8c       ??_C@_0L@NPHFGOKO@__thiscall?$AA@ 1002ff8c     LIBCMT:undname.obj
 0002:00001f98       ??_C@_09IFJBGAPI@__stdcall?$AA@ 1002ff98     LIBCMT:undname.obj
 0002:00001fa4       ??_C@_08GHMPAG@__pascal?$AA@ 1002ffa4     LIBCMT:undname.obj
 0002:00001fb0       ??_C@_07KOLFKCDI@__cdecl?$AA@ 1002ffb0     LIBCMT:undname.obj
 0002:00001fb8       ??_C@_08EHJDFFNH@__based?$CI?$AA@ 1002ffb8     LIBCMT:undname.obj
 0002:0000214c       ??_7DNameNode@@6B@         1003014c     LIBCMT:undname.obj
 0002:0000215c       ??_7charNode@@6B@          1003015c     LIBCMT:undname.obj
 0002:0000216c       ??_7pDNameNode@@6B@        1003016c     LIBCMT:undname.obj
 0002:0000217c       ??_7DNameStatusNode@@6B@   1003017c     LIBCMT:undname.obj
 0002:0000218c       ??_7pcharNode@@6B@         1003018c     LIBCMT:undname.obj
 0002:00002198       ??_C@_04OKOHEJBO@?5?$DP?$DP?5?$AA@ 10030198     LIBCMT:undname.obj
 0002:000021a0       ??_C@_06EEGAIFAK@?$HLflat?$HN?$AA@ 100301a0     LIBCMT:undname.obj
 0002:000021a8       ??_C@_05JIBOFOHK@?$HLfor?5?$AA@ 100301a8     LIBCMT:undname.obj
 0002:000021b0       ??_C@_0BN@IBLMMFAP@?$GAnon?9type?9template?9parameter?$AA@ 100301b0     LIBCMT:undname.obj
 0002:000021d0       ??_C@_09EBBEKKIH@unsigned?5?$AA@ 100301d0     LIBCMT:undname.obj
 0002:000021dc       ??_C@_05CJIMAING@long?5?$AA@ 100301dc     LIBCMT:undname.obj
 0002:000021e4       ??_C@_04LAHKHJMA@int?5?$AA@ 100301e4     LIBCMT:undname.obj
 0002:000021ec       ??_C@_06EHJMALKF@short?5?$AA@ 100301ec     LIBCMT:undname.obj
 0002:000021f4       ??_C@_05CIHEBHNO@char?5?$AA@ 100301f4     LIBCMT:undname.obj
 0002:000021fc       ??_C@_04GKJNKENE@void?$AA@ 100301fc     LIBCMT:undname.obj
 0002:00002204       ??_C@_0L@EGPHHEKN@?$DMellipsis?$DO?$AA@ 10030204     LIBCMT:undname.obj
 0002:00002210       ??_C@_0M@ELJOJFFH@?0?$DMellipsis?$DO?$AA@ 10030210     LIBCMT:undname.obj
 0002:0000221c       ??_C@_04EENFHACM@?0?4?4?4?$AA@ 1003021c     LIBCMT:undname.obj
 0002:00002224       ??_C@_07HDJPLPEK@?5throw?$CI?$AA@ 10030224     LIBCMT:undname.obj
 0002:0000222c       ??_C@_02GOGNNPBN@?$CJ?$FL?$AA@ 1003022c     LIBCMT:undname.obj
 0002:00002230       ??_C@_02MDINNEEG@s?5?$AA@  10030230     LIBCMT:undname.obj
 0002:00002234       ??_C@_0BE@EODMJLIF@?$GAtemplate?9parameter?$AA@ 10030234     LIBCMT:undname.obj
 0002:00002248       ??_C@_01GEODFPGF@?8?$AA@   10030248     LIBCMT:undname.obj
 0002:0000224c       ??_C@_04HIBGFPH@NULL?$AA@  1003024c     LIBCMT:undname.obj
 0002:00002254       ??_C@_0O@GKABPPIF@cli?3?3pin_ptr?$DM?$AA@ 10030254     LIBCMT:undname.obj
 0002:00002264       ??_C@_0M@EALIELKG@cli?3?3array?$DM?$AA@ 10030264     LIBCMT:undname.obj
 0002:00002270       ??_C@_05BEFAKPML@void?5?$AA@ 10030270     LIBCMT:undname.obj
 0002:00002278       ??_C@_02OHHJMEON@?8?8?$AA@ 10030278     LIBCMT:undname.obj
 0002:0000227c       ??_C@_0BG@JNJLAMPM@?$GAanonymous?5namespace?8?$AA@ 1003027c     LIBCMT:undname.obj
 0002:00002294       ??_C@_01NLNLIGKH@?$GA?$AA@ 10030294     LIBCMT:undname.obj
 0002:00002298       ??_C@_0O@KHGCOMHP@generic?9type?9?$AA@ 10030298     LIBCMT:undname.obj
 0002:000022a8       ??_C@_0BE@JAEOCHPE@template?9parameter?9?$AA@ 100302a8     LIBCMT:undname.obj
 0002:000022bc       ??_C@_02MOLJINC@?3?3?$AA@  100302bc     LIBCMT:undname.obj
 0002:000022c0       ??_C@_0P@GCIFDJCJ@?$GAunknown?5ecsu?8?$AA@ 100302c0     LIBCMT:undname.obj
 0002:000022d0       ??_C@_06MOJHIBMG@union?5?$AA@ 100302d0     LIBCMT:undname.obj
 0002:000022d8       ??_C@_07DIBCDNGL@struct?5?$AA@ 100302d8     LIBCMT:undname.obj
 0002:000022e0       ??_C@_06LJBABKPM@class?5?$AA@ 100302e0     LIBCMT:undname.obj
 0002:000022e8       ??_C@_05LJGMCFOG@enum?5?$AA@ 100302e8     LIBCMT:undname.obj
 0002:000022f0       ??_C@_08KOFANOFK@coclass?5?$AA@ 100302f0     LIBCMT:undname.obj
 0002:000022fc       ??_C@_0N@DLIEFKNA@cointerface?5?$AA@ 100302fc     LIBCMT:undname.obj
 0002:0000230c       ??_C@_02KCKGHPCA@?$CJ?5?$AA@ 1003030c     LIBCMT:undname.obj
 0002:00002310       ??_C@_0M@DHNBOJMP@extern?5?$CCC?$CC?5?$AA@ 10030310     LIBCMT:undname.obj
 0002:0000231c       ??_C@_08KJLFOPNE@?$FLthunk?$FN?3?$AA@ 1003031c     LIBCMT:undname.obj
 0002:00002328       ??_C@_08GPDDCMKI@public?3?5?$AA@ 10030328     LIBCMT:undname.obj
 0002:00002334       ??_C@_0M@GAIFPFIP@protected?3?5?$AA@ 10030334     LIBCMT:undname.obj
 0002:00002340       ??_C@_09LAPHOOG@private?3?5?$AA@ 10030340     LIBCMT:undname.obj
 0002:0000234c       ??_C@_08NIEOINHE@virtual?5?$AA@ 1003034c     LIBCMT:undname.obj
 0002:00002358       ??_C@_07PGOEDBHP@static?5?$AA@ 10030358     LIBCMT:undname.obj
 0002:00002360       ??_C@_0DA@HGFJFBBE@?$GAtemplate?5static?5data?5member?5des@ 10030360     LIBCMT:undname.obj
 0002:00002390       ??_C@_0DB@ILEFOCIJ@?$GAtemplate?5static?5data?5member?5con@ 10030390     LIBCMT:undname.obj
 0002:000023c4       ??_C@_0CB@KJDOOODE@?$GAlocal?5static?5destructor?5helper?8@ 100303c4     LIBCMT:undname.obj
 0002:000023e8       ??_C@_0L@HNGCOGAE@?$GAadjustor?$HL?$AA@ 100303e8     LIBCMT:undname.obj
 0002:000023f4       ??_C@_0L@GHPFDFH@?$GAvtordisp?$HL?$AA@ 100303f4     LIBCMT:undname.obj
 0002:00002400       ??_C@_0N@CBHHHENL@?$GAvtordispex?$HL?$AA@ 10030400     LIBCMT:undname.obj
 0002:00002410       ??_C@_02IGFCGPIL@?$HN?8?$AA@ 10030410     LIBCMT:undname.obj
 0002:00002414       ??_C@_03OPGICMGF@?$HN?8?5?$AA@ 10030414     LIBCMT:undname.obj
 0002:00002418       ??_C@_06LIJLOJAG@const?5?$AA@ 10030418     LIBCMT:undname.obj
 0002:00002420       ??_C@_09GAIEOBLP@volatile?5?$AA@ 10030420     LIBCMT:undname.obj
 0002:0000242c       ??_C@_04HEJADOOB@CV?3?5?$AA@ 1003042c     LIBCMT:undname.obj
 0002:00002434       ??_C@_08PABEKFH@volatile?$AA@ 10030434     LIBCMT:undname.obj
 0002:00002440       ??_C@_09EFNPDFFP@?5volatile?$AA@ 10030440     LIBCMT:undname.obj
 0002:0000244c       ??_C@_05BNCCCJPP@const?$AA@ 1003044c     LIBCMT:undname.obj
 0002:00002454       ??_C@_07EDHNAJHC@signed?5?$AA@ 10030454     LIBCMT:undname.obj
 0002:0000245c       ??_C@_06BNJCAIGJ@double?$AA@ 1003045c     LIBCMT:undname.obj
 0002:00002464       ??_C@_04DDKJGDCM@bool?$AA@ 10030464     LIBCMT:undname.obj
 0002:0000246c       ??_C@_07CLGGIAMF@wchar_t?$AA@ 1003046c     LIBCMT:undname.obj
 0002:00002474       ??_C@_07NFANNNEC@UNKNOWN?$AA@ 10030474     LIBCMT:undname.obj
 0002:0000247c       ??_C@_08GAHOLHEO@__int128?$AA@ 1003047c     LIBCMT:undname.obj
 0002:00002488       ??_C@_07OFLPPHGP@__int32?$AA@ 10030488     LIBCMT:undname.obj
 0002:00002490       ??_C@_07LFCOJCAC@__int64?$AA@ 10030490     LIBCMT:undname.obj
 0002:00002498       ??_C@_07ICFHOGAF@__int16?$AA@ 10030498     LIBCMT:undname.obj
 0002:000024a0       ??_C@_06GCICPBLB@__w64?5?$AA@ 100304a0     LIBCMT:undname.obj
 0002:000024a8       ??_C@_06EBGKOKIG@__int8?$AA@ 100304a8     LIBCMT:undname.obj
 0002:000024b0       ??_C@_05KNFBNCOH@float?$AA@ 100304b0     LIBCMT:undname.obj
 0002:000024b8       ??_C@_04GOKPGOLB@long?$AA@ 100304b8     LIBCMT:undname.obj
 0002:000024c0       ??_C@_03JBIPMCLC@int?$AA@  100304c0     LIBCMT:undname.obj
 0002:000024c4       ??_C@_05BFKKPKCG@short?$AA@ 100304c4     LIBCMT:undname.obj
 0002:000024cc       ??_C@_04ENMBGAPA@char?$AA@ 100304cc     LIBCMT:undname.obj
 0002:000024d4       ??_C@_0BC@JEAENNKH@SystemFunction036?$AA@ 100304d4     LIBCMT:rand_s.obj
 0002:000024e8       ??_C@_0N@JJPEKNFO@ADVAPI32?4DLL?$AA@ 100304e8     LIBCMT:rand_s.obj
 0002:000024f8       ??_C@_0CG@PKBDLMEO@InitializeCriticalSectionAndSpin@ 100304f8     LIBCMT:initcrit.obj
 0002:00002520       ??_C@_0N@MDJJJHMB@kernel32?4dll?$AA@ 10030520     LIBCMT:initcrit.obj
 0002:00002530       ??_C@_0BI@DFKBFLJE@GetProcessWindowStation?$AA@ 10030530     LIBCMT:crtmbox.obj
 0002:00002548       ??_C@_0BK@CIDNPOGP@GetUserObjectInformationA?$AA@ 10030548     LIBCMT:crtmbox.obj
 0002:00002564       ??_C@_0BD@HHGDFDBJ@GetLastActivePopup?$AA@ 10030564     LIBCMT:crtmbox.obj
 0002:00002578       ??_C@_0BA@HNOPNCHB@GetActiveWindow?$AA@ 10030578     LIBCMT:crtmbox.obj
 0002:00002588       ??_C@_0M@CHKKJDAI@MessageBoxA?$AA@ 10030588     LIBCMT:crtmbox.obj
 0002:00002594       ??_C@_0L@NDEGIDAG@USER32?4DLL?$AA@ 10030594     LIBCMT:crtmbox.obj
 0002:000025a0       ___lookuptable_s           100305a0     LIBCMT:outputs.obj
 0002:00002600       ___newctype                10030600     LIBCMT:ctype.obj
 0002:00002900       __wctype                   10030900     LIBCMT:ctype.obj
 0002:00002b08       ___newclmap                10030b08     LIBCMT:ctype.obj
 0002:00002c88       ___newcumap                10030c88     LIBCMT:ctype.obj
 0002:00002e08       ??_C@_08JCCMCCIL@HH?3mm?3ss?$AA@ 10030e08     LIBCMT:strftime.obj
 0002:00002e14       ??_C@_0BE@CKGJFCPC@dddd?0?5MMMM?5dd?0?5yyyy?$AA@ 10030e14     LIBCMT:strftime.obj
 0002:00002e28       ??_C@_08BPBNCDIB@MM?1dd?1yy?$AA@ 10030e28     LIBCMT:strftime.obj
 0002:00002e34       ??_C@_02CJNFDJBF@PM?$AA@   10030e34     LIBCMT:strftime.obj
 0002:00002e38       ??_C@_02DEDBPAFC@AM?$AA@   10030e38     LIBCMT:strftime.obj
 0002:00002e3c       ??_C@_08EDHMEBNP@December?$AA@ 10030e3c     LIBCMT:strftime.obj
 0002:00002e48       ??_C@_08HCHEGEOA@November?$AA@ 10030e48     LIBCMT:strftime.obj
 0002:00002e54       ??_C@_07JJNFCEND@October?$AA@ 10030e54     LIBCMT:strftime.obj
 0002:00002e5c       ??_C@_09BHHEALKD@September?$AA@ 10030e5c     LIBCMT:strftime.obj
 0002:00002e68       ??_C@_06LBBHFDDG@August?$AA@ 10030e68     LIBCMT:strftime.obj
 0002:00002e70       ??_C@_04MIEPOIFP@July?$AA@ 10030e70     LIBCMT:strftime.obj
 0002:00002e78       ??_C@_04CNLMGBGM@June?$AA@ 10030e78     LIBCMT:strftime.obj
 0002:00002e80       ??_C@_05DMJDNLEJ@April?$AA@ 10030e80     LIBCMT:strftime.obj
 0002:00002e88       ??_C@_05HPCKOFNC@March?$AA@ 10030e88     LIBCMT:strftime.obj
 0002:00002e90       ??_C@_08GNJGEPFN@February?$AA@ 10030e90     LIBCMT:strftime.obj
 0002:00002e9c       ??_C@_07CGJPFGJA@January?$AA@ 10030e9c     LIBCMT:strftime.obj
 0002:00002ea4       ??_C@_03MKABNOCG@Dec?$AA@  10030ea4     LIBCMT:strftime.obj
 0002:00002ea8       ??_C@_03JPJOFNIA@Nov?$AA@  10030ea8     LIBCMT:strftime.obj
 0002:00002eac       ??_C@_03BMAOKBAD@Oct?$AA@  10030eac     LIBCMT:strftime.obj
 0002:00002eb0       ??_C@_03GGCAPAJC@Sep?$AA@  10030eb0     LIBCMT:strftime.obj
 0002:00002eb4       ??_C@_03IFJFEIGA@Aug?$AA@  10030eb4     LIBCMT:strftime.obj
 0002:00002eb8       ??_C@_03LBGABGKK@Jul?$AA@  10030eb8     LIBCMT:strftime.obj
 0002:00002ebc       ??_C@_03IDFGHECI@Jun?$AA@  10030ebc     LIBCMT:strftime.obj
 0002:00002ec0       ??_C@_03CNMDKL@May?$AA@    10030ec0     LIBCMT:strftime.obj
 0002:00002ec4       ??_C@_03LEOLGMJP@Apr?$AA@  10030ec4     LIBCMT:strftime.obj
 0002:00002ec8       ??_C@_03ODNJBKGA@Mar?$AA@  10030ec8     LIBCMT:strftime.obj
 0002:00002ecc       ??_C@_03HJBDCHOM@Feb?$AA@  10030ecc     LIBCMT:strftime.obj
 0002:00002ed0       ??_C@_03JIHJHPIE@Jan?$AA@  10030ed0     LIBCMT:strftime.obj
 0002:00002ed4       ??_C@_08INBOOONO@Saturday?$AA@ 10030ed4     LIBCMT:strftime.obj
 0002:00002ee0       ??_C@_06JECMNKMI@Friday?$AA@ 10030ee0     LIBCMT:strftime.obj
 0002:00002ee8       ??_C@_08HACCIKIA@Thursday?$AA@ 10030ee8     LIBCMT:strftime.obj
 0002:00002ef4       ??_C@_09DLIGFAKA@Wednesday?$AA@ 10030ef4     LIBCMT:strftime.obj
 0002:00002f00       ??_C@_07BAAGCFCM@Tuesday?$AA@ 10030f00     LIBCMT:strftime.obj
 0002:00002f08       ??_C@_06JLEDEDGH@Monday?$AA@ 10030f08     LIBCMT:strftime.obj
 0002:00002f10       ??_C@_06OOPIFAJ@Sunday?$AA@ 10030f10     LIBCMT:strftime.obj
 0002:00002f18       ??_C@_03FEFJNEK@Sat?$AA@   10030f18     LIBCMT:strftime.obj
 0002:00002f1c       ??_C@_03IDIOELNC@Fri?$AA@  10030f1c     LIBCMT:strftime.obj
 0002:00002f20       ??_C@_03IOFIKPDN@Thu?$AA@  10030f20     LIBCMT:strftime.obj
 0002:00002f24       ??_C@_03MHOMLAJA@Wed?$AA@  10030f24     LIBCMT:strftime.obj
 0002:00002f28       ??_C@_03NAGEINEP@Tue?$AA@  10030f28     LIBCMT:strftime.obj
 0002:00002f2c       ??_C@_03PDAGKDH@Mon?$AA@   10030f2c     LIBCMT:strftime.obj
 0002:00002f30       ??_C@_03KOEHGMDN@Sun?$AA@  10030f30     LIBCMT:strftime.obj
 0002:00002f34       ??_C@_03EBAPMIKO@a?1p?$AA@ 10030f34     LIBCMT:strftime.obj
 0002:00002f38       ??_C@_05JAMEPDIN@am?1pm?$AA@ 10030f38     LIBCMT:strftime.obj
 0002:00002f40       ??_C@_0O@FMJNFNKE@united?9states?$AA@ 10030f40     LIBCMT:getqloc.obj
 0002:00002f50       ??_C@_0P@NDHFFKCA@united?9kingdom?$AA@ 10030f50     LIBCMT:getqloc.obj
 0002:00002f60       ??_C@_0BC@HHDADLGF@trinidad?5?$CG?5tobago?$AA@ 10030f60     LIBCMT:getqloc.obj
 0002:00002f74       ??_C@_0M@IOAEBDAC@south?9korea?$AA@ 10030f74     LIBCMT:getqloc.obj
 0002:00002f80       ??_C@_0N@FIELFKIJ@south?9africa?$AA@ 10030f80     LIBCMT:getqloc.obj
 0002:00002f90       ??_C@_0M@OPNDHCMC@south?5korea?$AA@ 10030f90     LIBCMT:getqloc.obj
 0002:00002f9c       ??_C@_0N@MDEOEPFI@south?5africa?$AA@ 10030f9c     LIBCMT:getqloc.obj
 0002:00002fac       ??_C@_06FKAPCJLB@slovak?$AA@ 10030fac     LIBCMT:getqloc.obj
 0002:00002fb4       ??_C@_0M@EFJANOAL@puerto?9rico?$AA@ 10030fb4     LIBCMT:getqloc.obj
 0002:00002fc0       ??_C@_08PGOJKDAI@pr?9china?$AA@ 10030fc0     LIBCMT:getqloc.obj
 0002:00002fcc       ??_C@_08JHDOMCMI@pr?5china?$AA@ 10030fcc     LIBCMT:getqloc.obj
 0002:00002fd8       ??_C@_02JHCHFBLL@nz?$AA@   10030fd8     LIBCMT:getqloc.obj
 0002:00002fdc       ??_C@_0M@LINHDHKP@new?9zealand?$AA@ 10030fdc     LIBCMT:getqloc.obj
 0002:00002fe8       ??_C@_09IIIPPBDB@hong?9kong?$AA@ 10030fe8     LIBCMT:getqloc.obj
 0002:00002ff4       ??_C@_07HJLCKBG@holland?$AA@ 10030ff4     LIBCMT:getqloc.obj
 0002:00002ffc       ??_C@_0O@LEHGMHAG@great?5britain?$AA@ 10030ffc     LIBCMT:getqloc.obj
 0002:0000300c       ??_C@_07FACOMELA@england?$AA@ 1003100c     LIBCMT:getqloc.obj
 0002:00003014       ??_C@_05JIHCEICB@czech?$AA@ 10031014     LIBCMT:getqloc.obj
 0002:0000301c       ??_C@_05BBJOBLGB@china?$AA@ 1003101c     LIBCMT:getqloc.obj
 0002:00003024       ??_C@_07GPKPHICP@britain?$AA@ 10031024     LIBCMT:getqloc.obj
 0002:0000302c       ??_C@_07MHIPBHMG@america?$AA@ 1003102c     LIBCMT:getqloc.obj
 0002:00003034       ??_C@_03KIALPMKC@usa?$AA@  10031034     LIBCMT:getqloc.obj
 0002:00003038       ??_C@_02FGJGKGGD@us?$AA@   10031038     LIBCMT:getqloc.obj
 0002:0000303c       ??_C@_02NEINDODK@uk?$AA@   1003103c     LIBCMT:getqloc.obj
 0002:00003040       ??_C@_05JMPCFJFJ@swiss?$AA@ 10031040     LIBCMT:getqloc.obj
 0002:00003048       ??_C@_0BA@HLOCPIOD@swedish?9finland?$AA@ 10031048     LIBCMT:getqloc.obj
 0002:00003058       ??_C@_0BC@PKCNIABK@spanish?9venezuela?$AA@ 10031058     LIBCMT:getqloc.obj
 0002:0000306c       ??_C@_0BA@GBHHMIJI@spanish?9uruguay?$AA@ 1003106c     LIBCMT:getqloc.obj
 0002:0000307c       ??_C@_0BE@BHDOHPMC@spanish?9puerto?5rico?$AA@ 1003107c     LIBCMT:getqloc.obj
 0002:00003090       ??_C@_0N@KMOIDGGN@spanish?9peru?$AA@ 10031090     LIBCMT:getqloc.obj
 0002:000030a0       ??_C@_0BB@HMHLPGPH@spanish?9paraguay?$AA@ 100310a0     LIBCMT:getqloc.obj
 0002:000030b4       ??_C@_0P@MCPKNGFD@spanish?9panama?$AA@ 100310b4     LIBCMT:getqloc.obj
 0002:000030c4       ??_C@_0BC@IHOHGAIL@spanish?9nicaragua?$AA@ 100310c4     LIBCMT:getqloc.obj
 0002:000030d8       ??_C@_0P@KLMJDNFJ@spanish?9modern?$AA@ 100310d8     LIBCMT:getqloc.obj
 0002:000030e8       ??_C@_0BA@BPAPGBCM@spanish?9mexican?$AA@ 100310e8     LIBCMT:getqloc.obj
 0002:000030f8       ??_C@_0BB@PDECHHHE@spanish?9honduras?$AA@ 100310f8     LIBCMT:getqloc.obj
 0002:0000310c       ??_C@_0BC@KLHKFGDB@spanish?9guatemala?$AA@ 1003110c     LIBCMT:getqloc.obj
 0002:00003120       ??_C@_0BE@MFOOKJAI@spanish?9el?5salvador?$AA@ 10031120     LIBCMT:getqloc.obj
 0002:00003134       ??_C@_0BA@FCOKFPFC@spanish?9ecuador?$AA@ 10031134     LIBCMT:getqloc.obj
 0002:00003144       ??_C@_0BL@PLMGIMOO@spanish?9dominican?5republic?$AA@ 10031144     LIBCMT:getqloc.obj
 0002:00003160       ??_C@_0BD@HLGDNMHB@spanish?9costa?5rica?$AA@ 10031160     LIBCMT:getqloc.obj
 0002:00003174       ??_C@_0BB@PKCBKCPE@spanish?9colombia?$AA@ 10031174     LIBCMT:getqloc.obj
 0002:00003188       ??_C@_0O@MCBIJGNE@spanish?9chile?$AA@ 10031188     LIBCMT:getqloc.obj
 0002:00003198       ??_C@_0BA@BEFEIGJJ@spanish?9bolivia?$AA@ 10031198     LIBCMT:getqloc.obj
 0002:000031a8       ??_C@_0BC@EMECMPD@spanish?9argentina?$AA@ 100311a8     LIBCMT:getqloc.obj
 0002:000031bc       ??_C@_0BF@EALFLENP@portuguese?9brazilian?$AA@ 100311bc     LIBCMT:getqloc.obj
 0002:000031d4       ??_C@_0BC@HBLEBLNN@norwegian?9nynorsk?$AA@ 100311d4     LIBCMT:getqloc.obj
 0002:000031e8       ??_C@_0BB@HMACDDCK@norwegian?9bokmal?$AA@ 100311e8     LIBCMT:getqloc.obj
 0002:000031fc       ??_C@_09BAFFPPHE@norwegian?$AA@ 100311fc     LIBCMT:getqloc.obj
 0002:00003208       ??_C@_0O@EAJFJDFG@italian?9swiss?$AA@ 10031208     LIBCMT:getqloc.obj
 0002:00003218       ??_C@_0O@CNOMPGD@irish?9english?$AA@ 10031218     LIBCMT:getqloc.obj
 0002:00003228       ??_C@_0N@EDHBGCKG@german?9swiss?$AA@ 10031228     LIBCMT:getqloc.obj
 0002:00003238       ??_C@_0BC@JACMHNBP@german?9luxembourg?$AA@ 10031238     LIBCMT:getqloc.obj
 0002:0000324c       ??_C@_0BE@HBGMGFEG@german?9lichtenstein?$AA@ 1003124c     LIBCMT:getqloc.obj
 0002:00003260       ??_C@_0BA@HKKBIBKL@german?9austrian?$AA@ 10031260     LIBCMT:getqloc.obj
 0002:00003270       ??_C@_0N@GCAEPEBK@french?9swiss?$AA@ 10031270     LIBCMT:getqloc.obj
 0002:00003280       ??_C@_0BC@DJFJJCK@french?9luxembourg?$AA@ 10031280     LIBCMT:getqloc.obj
 0002:00003294       ??_C@_0BA@NNCEDFIC@french?9canadian?$AA@ 10031294     LIBCMT:getqloc.obj
 0002:000032a4       ??_C@_0P@CMPOCLM@french?9belgian?$AA@ 100312a4     LIBCMT:getqloc.obj
 0002:000032b4       ??_C@_0M@GHHDJOK@english?9usa?$AA@ 100312b4     LIBCMT:getqloc.obj
 0002:000032c0       ??_C@_0L@PLDJKEIL@english?9us?$AA@ 100312c0     LIBCMT:getqloc.obj
 0002:000032cc       ??_C@_0L@HJCCDMNC@english?9uk?$AA@ 100312cc     LIBCMT:getqloc.obj
 0002:000032d8       ??_C@_0BK@CKLIAGJB@english?9trinidad?5y?5tobago?$AA@ 100312d8     LIBCMT:getqloc.obj
 0002:000032f4       ??_C@_0BF@JMJMGNNF@english?9south?5africa?$AA@ 100312f4     LIBCMT:getqloc.obj
 0002:0000330c       ??_C@_0L@DKIIFDFD@english?9nz?$AA@ 1003130c     LIBCMT:getqloc.obj
 0002:00003318       ??_C@_0BA@ONHGJCLH@english?9jamaica?$AA@ 10031318     LIBCMT:getqloc.obj
 0002:00003328       ??_C@_0M@HJBGHOPO@english?9ire?$AA@ 10031328     LIBCMT:getqloc.obj
 0002:00003334       ??_C@_0BC@LFEKMIFB@english?9caribbean?$AA@ 10031334     LIBCMT:getqloc.obj
 0002:00003348       ??_C@_0M@OLDPFKHI@english?9can?$AA@ 10031348     LIBCMT:getqloc.obj
 0002:00003354       ??_C@_0P@OMDEHBMP@english?9belize?$AA@ 10031354     LIBCMT:getqloc.obj
 0002:00003364       ??_C@_0M@KFHFPFED@english?9aus?$AA@ 10031364     LIBCMT:getqloc.obj
 0002:00003370       ??_C@_0BB@MNMBKDFE@english?9american?$AA@ 10031370     LIBCMT:getqloc.obj
 0002:00003384       ??_C@_0O@KIDLNNBA@dutch?9belgian?$AA@ 10031384     LIBCMT:getqloc.obj
 0002:00003394       ??_C@_0BE@JBKABBMH@chinese?9traditional?$AA@ 10031394     LIBCMT:getqloc.obj
 0002:000033a8       ??_C@_0BC@MJJMPKCG@chinese?9singapore?$AA@ 100313a8     LIBCMT:getqloc.obj
 0002:000033bc       ??_C@_0BD@FDKADDCP@chinese?9simplified?$AA@ 100313bc     LIBCMT:getqloc.obj
 0002:000033d0       ??_C@_0BB@DBEFDDME@chinese?9hongkong?$AA@ 100313d0     LIBCMT:getqloc.obj
 0002:000033e4       ??_C@_07DHNMFMCI@chinese?$AA@ 100313e4     LIBCMT:getqloc.obj
 0002:000033ec       ??_C@_03FNDDCHI@chi?$AA@   100313ec     LIBCMT:getqloc.obj
 0002:000033f0       ??_C@_03BMMIADDJ@chh?$AA@  100313f0     LIBCMT:getqloc.obj
 0002:000033f4       ??_C@_08OAIPJDGI@canadian?$AA@ 100313f4     LIBCMT:getqloc.obj
 0002:00003400       ??_C@_07HBPMNPNJ@belgian?$AA@ 10031400     LIBCMT:getqloc.obj
 0002:00003408       ??_C@_0L@OEKOPBEL@australian?$AA@ 10031408     LIBCMT:getqloc.obj
 0002:00003414       ??_C@_0BB@MEIMBEDG@american?9english?$AA@ 10031414     LIBCMT:getqloc.obj
 0002:00003428       ??_C@_0BB@DFMDPDGB@american?5english?$AA@ 10031428     LIBCMT:getqloc.obj
 0002:0000343c       ??_C@_08IJLOKOLL@american?$AA@ 1003143c     LIBCMT:getqloc.obj
 0002:00003448       ___rg_language             10031448     LIBCMT:getqloc.obj
 0002:00003650       ___rg_country              10031650     LIBCMT:getqloc.obj
 0002:00003708       ___rglangidNotDefault      10031708     LIBCMT:getqloc.obj
 0002:0000371c       ??_C@_03NFKLAGEF@OCP?$AA@  1003171c     LIBCMT:getqloc.obj
 0002:00003720       ??_C@_03DFHEHBHG@ACP?$AA@  10031720     LIBCMT:getqloc.obj
 0002:00003724       ??_C@_0BC@NFIEMBLL@Norwegian?9Nynorsk?$AA@ 10031724     LIBCMT:getqloc.obj
 0002:00003738       ??_C@_06GDENEHCP@CONIN$?$AA@ 10031738     LIBCMT:initcon.obj
 0002:00003740       ??_C@_07GPDNMNG@CONOUT$?$AA@ 10031740     LIBCMT:initcon.obj
 0002:00003748       ___dnames                  10031748     LIBCMT:timeset.obj
 0002:00003760       ___mnames                  10031760     LIBCMT:timeset.obj
 0002:00003788       ??_C@_02CLFPBFFP@TZ?$AA@   10031788     LIBCMT:tzset.obj
 0002:00003790       ??_7invalid_argument@std@@6B@ 10031790     libcpmt:string.obj
 0002:00003798       ??_C@_0BA@JFNIOLAK@string?5too?5long?$AA@ 10031798     libcpmt:string.obj
 0002:000037a8       ??_C@_0BI@CFPLBAOH@invalid?5string?5position?$AA@ 100317a8     libcpmt:string.obj
 0002:000037c0       ??_C@_0BI@ILCMCLF@invalid?5string?5argument?$AA@ 100317c0     libcpmt:string.obj
 0002:000037dc       ??_7_Locimp@locale@std@@6B@ 100317dc     libcpmt:locale0.obj
 0002:000037e0       ?_BADOFF@std@@3JB          100317e0     libcpmt:ios.obj
 0002:000037e8       __load_config_used         100317e8     LIBCMT:loadcfg.obj
 0002:00003894       ??_R4bad_alloc@std@@6B@    10031894     ClientStage.obj
 0002:000038a8       ??_R3bad_alloc@std@@8      100318a8     ClientStage.obj
 0002:000038b8       ??_R2bad_alloc@std@@8      100318b8     ClientStage.obj
 0002:000038c4       ??_R1A@?0A@EA@bad_alloc@std@@8 100318c4     ClientStage.obj
 0002:000038e0       ??_R1A@?0A@EA@exception@std@@8 100318e0     ClientStage.obj
 0002:000038fc       ??_R3exception@std@@8      100318fc     ClientStage.obj
 0002:0000390c       ??_R2exception@std@@8      1003190c     ClientStage.obj
 0002:00003914       ??_R4Thank_you@Define_the_symbol__ATL_MIXED@@6B@ 10031914     ClientStage.obj
 0002:00003928       ??_R3Thank_you@Define_the_symbol__ATL_MIXED@@8 10031928     ClientStage.obj
 0002:00003938       ??_R2Thank_you@Define_the_symbol__ATL_MIXED@@8 10031938     ClientStage.obj
 0002:00003940       ??_R1A@?0A@EA@Thank_you@Define_the_symbol__ATL_MIXED@@8 10031940     ClientStage.obj
 0002:0000395c       ??_R4CGameClient@@6B@      1003195c     ClientStage.obj
 0002:00003970       ??_R3CGameClient@@8        10031970     ClientStage.obj
 0002:00003980       ??_R2CGameClient@@8        10031980     ClientStage.obj
 0002:000039a0       ??_R1A@?0A@EA@CGameClient@@8 100319a0     ClientStage.obj
 0002:000039bc       ??_R1A@?0A@EA@IClient@@8   100319bc     ClientStage.obj
 0002:000039d8       ??_R3IClient@@8            100319d8     ClientStage.obj
 0002:000039e8       ??_R2IClient@@8            100319e8     ClientStage.obj
 0002:000039f4       ??_R1A@?0A@EA@IUnknown@@8  100319f4     ClientStage.obj
 0002:00003a10       ??_R3IUnknown@@8           10031a10     ClientStage.obj
 0002:00003a20       ??_R2IUnknown@@8           10031a20     ClientStage.obj
 0002:00003a28       ??_R13?0A@EA@CSocketClient@Win32@OnlineGameLib@@8 10031a28     ClientStage.obj
 0002:00003a44       ??_R3CSocketClient@Win32@OnlineGameLib@@8 10031a44     ClientStage.obj
 0002:00003a54       ??_R2CSocketClient@Win32@OnlineGameLib@@8 10031a54     ClientStage.obj
 0002:00003a68       ??_R1A@?0A@EA@CSocketClient@Win32@OnlineGameLib@@8 10031a68     ClientStage.obj
 0002:00003a84       ??_R1A@?0A@EN@CThread@Win32@OnlineGameLib@@8 10031a84     ClientStage.obj
 0002:00003aa0       ??_R3CThread@Win32@OnlineGameLib@@8 10031aa0     ClientStage.obj
 0002:00003ab0       ??_R2CThread@Win32@OnlineGameLib@@8 10031ab0     ClientStage.obj
 0002:00003ab8       ??_R1A@?0A@EA@CThread@Win32@OnlineGameLib@@8 10031ab8     ClientStage.obj
 0002:00003ad4       ??_R1DM@?0A@EN@CUsesWinsock@Win32@OnlineGameLib@@8 10031ad4     ClientStage.obj
 0002:00003af0       ??_R3CUsesWinsock@Win32@OnlineGameLib@@8 10031af0     ClientStage.obj
 0002:00003b00       ??_R2CUsesWinsock@Win32@OnlineGameLib@@8 10031b00     ClientStage.obj
 0002:00003b08       ??_R1A@?0A@EA@CUsesWinsock@Win32@OnlineGameLib@@8 10031b08     ClientStage.obj
 0002:00003b24       ??_R17?0A@EN@Allocator@CIOBuffer@Win32@OnlineGameLib@@8 10031b24     ClientStage.obj
 0002:00003b40       ??_R3Allocator@CIOBuffer@Win32@OnlineGameLib@@8 10031b40     ClientStage.obj
 0002:00003b50       ??_R2Allocator@CIOBuffer@Win32@OnlineGameLib@@8 10031b50     ClientStage.obj
 0002:00003b58       ??_R1A@?0A@EA@Allocator@CIOBuffer@Win32@OnlineGameLib@@8 10031b58     ClientStage.obj
 0002:00003b74       ??_R13?0A@EN@CThread@Win32@OnlineGameLib@@8 10031b74     ClientStage.obj
 0002:00003b90       ??_R1EA@?0A@EN@CUsesWinsock@Win32@OnlineGameLib@@8 10031b90     ClientStage.obj
 0002:00003bac       ??_R1M@?0A@EN@Allocator@CIOBuffer@Win32@OnlineGameLib@@8 10031bac     ClientStage.obj
 0002:00003bc8       ??_R4CGameClient@@6BCThread@Win32@OnlineGameLib@@@ 10031bc8     ClientStage.obj
 0002:00003bdc       ??_R4CGameClient@@6BAllocator@CIOBuffer@Win32@OnlineGameLib@@@ 10031bdc     ClientStage.obj
 0002:00003bf0       ??_R4CClientFactory@@6B@   10031bf0     ClientStage.obj
 0002:00003c04       ??_R3CClientFactory@@8     10031c04     ClientStage.obj
 0002:00003c14       ??_R2CClientFactory@@8     10031c14     ClientStage.obj
 0002:00003c24       ??_R1A@?0A@EA@CClientFactory@@8 10031c24     ClientStage.obj
 0002:00003c40       ??_R1A@?0A@EA@IClientFactory@@8 10031c40     ClientStage.obj
 0002:00003c5c       ??_R3IClientFactory@@8     10031c5c     ClientStage.obj
 0002:00003c6c       ??_R2IClientFactory@@8     10031c6c     ClientStage.obj
 0002:00003c78       ??_R4CSocketClient@Win32@OnlineGameLib@@6BCThread@12@@ 10031c78     common:SocketClient.obj
 0002:00003c8c       ??_R4CSocketClient@Win32@OnlineGameLib@@6BAllocator@CIOBuffer@12@@ 10031c8c     common:SocketClient.obj
 0002:00003ca0       ??_R4CException@Win32@OnlineGameLib@@6B@ 10031ca0     common:SocketClient.obj
 0002:00003cb4       ??_R3CException@Win32@OnlineGameLib@@8 10031cb4     common:SocketClient.obj
 0002:00003cc4       ??_R2CException@Win32@OnlineGameLib@@8 10031cc4     common:SocketClient.obj
 0002:00003ccc       ??_R1A@?0A@EA@CException@Win32@OnlineGameLib@@8 10031ccc     common:SocketClient.obj
 0002:00003ce8       ??_R4CWin32Exception@Win32@OnlineGameLib@@6B@ 10031ce8     common:SocketClient.obj
 0002:00003cfc       ??_R3CWin32Exception@Win32@OnlineGameLib@@8 10031cfc     common:SocketClient.obj
 0002:00003d0c       ??_R2CWin32Exception@Win32@OnlineGameLib@@8 10031d0c     common:SocketClient.obj
 0002:00003d18       ??_R1A@?0A@EA@CWin32Exception@Win32@OnlineGameLib@@8 10031d18     common:SocketClient.obj
 0002:00003d34       ??_R4Allocator@CIOBuffer@Win32@OnlineGameLib@@6B@ 10031d34     common:IOBuffer.obj
 0002:00003d48       ??_R4logic_error@std@@6B@  10031d48     common:IOBuffer.obj
 0002:00003d5c       ??_R3logic_error@std@@8    10031d5c     common:IOBuffer.obj
 0002:00003d6c       ??_R2logic_error@std@@8    10031d6c     common:IOBuffer.obj
 0002:00003d78       ??_R1A@?0A@EA@logic_error@std@@8 10031d78     common:IOBuffer.obj
 0002:00003d94       ??_R4length_error@std@@6B@ 10031d94     common:IOBuffer.obj
 0002:00003da8       ??_R3length_error@std@@8   10031da8     common:IOBuffer.obj
 0002:00003db8       ??_R2length_error@std@@8   10031db8     common:IOBuffer.obj
 0002:00003dc8       ??_R1A@?0A@EA@length_error@std@@8 10031dc8     common:IOBuffer.obj
 0002:00003de4       ??_R4out_of_range@std@@6B@ 10031de4     common:IOBuffer.obj
 0002:00003df8       ??_R3out_of_range@std@@8   10031df8     common:IOBuffer.obj
 0002:00003e08       ??_R2out_of_range@std@@8   10031e08     common:IOBuffer.obj
 0002:00003e18       ??_R1A@?0A@EA@out_of_range@std@@8 10031e18     common:IOBuffer.obj
 0002:00003e34       ??_R4facet@locale@std@@6B@ 10031e34     common:Utils.obj
 0002:00003e48       ??_R3facet@locale@std@@8   10031e48     common:Utils.obj
 0002:00003e58       ??_R2facet@locale@std@@8   10031e58     common:Utils.obj
 0002:00003e60       ??_R1A@?0A@EA@facet@locale@std@@8 10031e60     common:Utils.obj
 0002:00003e7c       ??_R4ctype_base@std@@6B@   10031e7c     common:Utils.obj
 0002:00003e90       ??_R3ctype_base@std@@8     10031e90     common:Utils.obj
 0002:00003ea0       ??_R2ctype_base@std@@8     10031ea0     common:Utils.obj
 0002:00003eac       ??_R1A@?0A@EA@ctype_base@std@@8 10031eac     common:Utils.obj
 0002:00003ec8       ??_R4ios_base@std@@6B@     10031ec8     common:Utils.obj
 0002:00003edc       ??_R3ios_base@std@@8       10031edc     common:Utils.obj
 0002:00003eec       ??_R2ios_base@std@@8       10031eec     common:Utils.obj
 0002:00003ef8       ??_R1A@?0A@EA@ios_base@std@@8 10031ef8     common:Utils.obj
 0002:00003f14       ??_R13?0A@EA@?$_Iosb@H@std@@8 10031f14     common:Utils.obj
 0002:00003f30       ??_R3?$_Iosb@H@std@@8      10031f30     common:Utils.obj
 0002:00003f40       ??_R2?$_Iosb@H@std@@8      10031f40     common:Utils.obj
 0002:00003f48       ??_R1A@?0A@EA@?$_Iosb@H@std@@8 10031f48     common:Utils.obj
 0002:00003f64       ??_R4?$basic_ostream@DU?$char_traits@D@std@@@std@@6B@ 10031f64     common:Utils.obj
 0002:00003f78       ??_R3?$basic_ostream@DU?$char_traits@D@std@@@std@@8 10031f78     common:Utils.obj
 0002:00003f88       ??_R2?$basic_ostream@DU?$char_traits@D@std@@@std@@8 10031f88     common:Utils.obj
 0002:00003f9c       ??_R1A@?0A@EA@?$basic_ostream@DU?$char_traits@D@std@@@std@@8 10031f9c     common:Utils.obj
 0002:00003fb8       ??_R1A@A@3FA@?$basic_ios@DU?$char_traits@D@std@@@std@@8 10031fb8     common:Utils.obj
 0002:00003fd4       ??_R3?$basic_ios@DU?$char_traits@D@std@@@std@@8 10031fd4     common:Utils.obj
 0002:00003fe4       ??_R2?$basic_ios@DU?$char_traits@D@std@@@std@@8 10031fe4     common:Utils.obj
 0002:00003ff4       ??_R1A@?0A@EA@?$basic_ios@DU?$char_traits@D@std@@@std@@8 10031ff4     common:Utils.obj
 0002:00004010       ??_R1A@A@3EA@ios_base@std@@8 10032010     common:Utils.obj
 0002:0000402c       ??_R13A@3EA@?$_Iosb@H@std@@8 1003202c     common:Utils.obj
 0002:00004048       ??_R4?$basic_ios@DU?$char_traits@D@std@@@std@@6B@ 10032048     common:Utils.obj
 0002:0000405c       ??_R4?$basic_istream@DU?$char_traits@D@std@@@std@@6B@ 1003205c     common:Utils.obj
 0002:00004070       ??_R3?$basic_istream@DU?$char_traits@D@std@@@std@@8 10032070     common:Utils.obj
 0002:00004080       ??_R2?$basic_istream@DU?$char_traits@D@std@@@std@@8 10032080     common:Utils.obj
 0002:00004094       ??_R1A@?0A@EA@?$basic_istream@DU?$char_traits@D@std@@@std@@8 10032094     common:Utils.obj
 0002:000040b0       ??_R4?$basic_iostream@DU?$char_traits@D@std@@@std@@6B@ 100320b0     common:Utils.obj
 0002:000040c4       ??_R3?$basic_iostream@DU?$char_traits@D@std@@@std@@8 100320c4     common:Utils.obj
 0002:000040d4       ??_R2?$basic_iostream@DU?$char_traits@D@std@@@std@@8 100320d4     common:Utils.obj
 0002:000040fc       ??_R1A@?0A@EA@?$basic_iostream@DU?$char_traits@D@std@@@std@@8 100320fc     common:Utils.obj
 0002:00004118       ??_R17?0A@EA@?$basic_ostream@DU?$char_traits@D@std@@@std@@8 10032118     common:Utils.obj
 0002:00004134       ??_R4?$basic_streambuf@DU?$char_traits@D@std@@@std@@6B@ 10032134     common:Utils.obj
 0002:00004148       ??_R3?$basic_streambuf@DU?$char_traits@D@std@@@std@@8 10032148     common:Utils.obj
 0002:00004158       ??_R2?$basic_streambuf@DU?$char_traits@D@std@@@std@@8 10032158     common:Utils.obj
 0002:00004160       ??_R1A@?0A@EA@?$basic_streambuf@DU?$char_traits@D@std@@@std@@8 10032160     common:Utils.obj
 0002:0000417c       ??_R4?$basic_filebuf@DU?$char_traits@D@std@@@std@@6B@ 1003217c     common:Utils.obj
 0002:00004190       ??_R3?$basic_filebuf@DU?$char_traits@D@std@@@std@@8 10032190     common:Utils.obj
 0002:000041a0       ??_R2?$basic_filebuf@DU?$char_traits@D@std@@@std@@8 100321a0     common:Utils.obj
 0002:000041ac       ??_R1A@?0A@EA@?$basic_filebuf@DU?$char_traits@D@std@@@std@@8 100321ac     common:Utils.obj
 0002:000041c8       ??_R4codecvt_base@std@@6B@ 100321c8     common:Utils.obj
 0002:000041dc       ??_R3codecvt_base@std@@8   100321dc     common:Utils.obj
 0002:000041ec       ??_R2codecvt_base@std@@8   100321ec     common:Utils.obj
 0002:000041f8       ??_R1A@?0A@EA@codecvt_base@std@@8 100321f8     common:Utils.obj
 0002:00004214       ??_R4runtime_error@std@@6B@ 10032214     common:Utils.obj
 0002:00004228       ??_R3runtime_error@std@@8  10032228     common:Utils.obj
 0002:00004238       ??_R2runtime_error@std@@8  10032238     common:Utils.obj
 0002:00004244       ??_R1A@?0A@EA@runtime_error@std@@8 10032244     common:Utils.obj
 0002:00004260       ??_R4failure@ios_base@std@@6B@ 10032260     common:Utils.obj
 0002:00004274       ??_R3failure@ios_base@std@@8 10032274     common:Utils.obj
 0002:00004284       ??_R2failure@ios_base@std@@8 10032284     common:Utils.obj
 0002:00004294       ??_R1A@?0A@EA@failure@ios_base@std@@8 10032294     common:Utils.obj
 0002:000042b0       ??_R4?$ctype@D@std@@6B@    100322b0     common:Utils.obj
 0002:000042c4       ??_R3?$ctype@D@std@@8      100322c4     common:Utils.obj
 0002:000042d4       ??_R2?$ctype@D@std@@8      100322d4     common:Utils.obj
 0002:000042e4       ??_R1A@?0A@EA@?$ctype@D@std@@8 100322e4     common:Utils.obj
 0002:00004300       ??_R4?$codecvt@DDH@std@@6B@ 10032300     common:Utils.obj
 0002:00004314       ??_R3?$codecvt@DDH@std@@8  10032314     common:Utils.obj
 0002:00004324       ??_R2?$codecvt@DDH@std@@8  10032324     common:Utils.obj
 0002:00004334       ??_R1A@?0A@EA@?$codecvt@DDH@std@@8 10032334     common:Utils.obj
 0002:00004350       ??_R4?$basic_fstream@DU?$char_traits@D@std@@@std@@6B@ 10032350     common:Utils.obj
 0002:00004364       ??_R3?$basic_fstream@DU?$char_traits@D@std@@@std@@8 10032364     common:Utils.obj
 0002:00004374       ??_R2?$basic_fstream@DU?$char_traits@D@std@@@std@@8 10032374     common:Utils.obj
 0002:000043a0       ??_R1A@?0A@EA@?$basic_fstream@DU?$char_traits@D@std@@@std@@8 100323a0     common:Utils.obj
 0002:000043bc       ??_R4CThread@Win32@OnlineGameLib@@6B@ 100323bc     common:Thread.obj
 0002:000043d0       ??_R4CEvent@Win32@OnlineGameLib@@6B@ 100323d0     common:Event.obj
 0002:000043e4       ??_R3CEvent@Win32@OnlineGameLib@@8 100323e4     common:Event.obj
 0002:000043f4       ??_R2CEvent@Win32@OnlineGameLib@@8 100323f4     common:Event.obj
 0002:000043fc       ??_R1A@?0A@EA@CEvent@Win32@OnlineGameLib@@8 100323fc     common:Event.obj
 0002:00004418       ??_R4CManualResetEvent@Win32@OnlineGameLib@@6B@ 10032418     common:ManualResetEvent.obj
 0002:0000442c       ??_R3CManualResetEvent@Win32@OnlineGameLib@@8 1003242c     common:ManualResetEvent.obj
 0002:0000443c       ??_R2CManualResetEvent@Win32@OnlineGameLib@@8 1003243c     common:ManualResetEvent.obj
 0002:00004448       ??_R1A@?0A@EA@CManualResetEvent@Win32@OnlineGameLib@@8 10032448     common:ManualResetEvent.obj
 0002:00004464       ??_R4Exception@CSocket@Win32@OnlineGameLib@@6B@ 10032464     common:Socket.obj
 0002:00004478       ??_R3Exception@CSocket@Win32@OnlineGameLib@@8 10032478     common:Socket.obj
 0002:00004488       ??_R2Exception@CSocket@Win32@OnlineGameLib@@8 10032488     common:Socket.obj
 0002:00004498       ??_R1A@?0A@EA@Exception@CSocket@Win32@OnlineGameLib@@8 10032498     common:Socket.obj
 0002:000044b4       ??_R4exception@std@@6B@    100324b4     LIBCMT:stdexcpt.obj
 0002:000044c8       ??_R4bad_cast@std@@6B@     100324c8     LIBCMT:stdexcpt.obj
 0002:000044dc       ??_R3bad_cast@std@@8       100324dc     LIBCMT:stdexcpt.obj
 0002:000044ec       ??_R2bad_cast@std@@8       100324ec     LIBCMT:stdexcpt.obj
 0002:000044f8       ??_R1A@?0A@EA@bad_cast@std@@8 100324f8     LIBCMT:stdexcpt.obj
 0002:00004514       ??_R4bad_typeid@std@@6B@   10032514     LIBCMT:stdexcpt.obj
 0002:00004528       ??_R3bad_typeid@std@@8     10032528     LIBCMT:stdexcpt.obj
 0002:00004538       ??_R2bad_typeid@std@@8     10032538     LIBCMT:stdexcpt.obj
 0002:00004544       ??_R1A@?0A@EA@bad_typeid@std@@8 10032544     LIBCMT:stdexcpt.obj
 0002:00004560       ??_R4__non_rtti_object@std@@6B@ 10032560     LIBCMT:stdexcpt.obj
 0002:00004574       ??_R3__non_rtti_object@std@@8 10032574     LIBCMT:stdexcpt.obj
 0002:00004584       ??_R2__non_rtti_object@std@@8 10032584     LIBCMT:stdexcpt.obj
 0002:00004594       ??_R1A@?0A@EA@__non_rtti_object@std@@8 10032594     LIBCMT:stdexcpt.obj
 0002:000045b0       ??_R4type_info@@6B@        100325b0     LIBCMT:typinfo.obj
 0002:000045c4       ??_R3type_info@@8          100325c4     LIBCMT:typinfo.obj
 0002:000045d4       ??_R2type_info@@8          100325d4     LIBCMT:typinfo.obj
 0002:000045dc       ??_R1A@?0A@EA@type_info@@8 100325dc     LIBCMT:typinfo.obj
 0002:000045f8       ??_R4bad_exception@std@@6B@ 100325f8     LIBCMT:frame.obj
 0002:0000460c       ??_R3bad_exception@std@@8  1003260c     LIBCMT:frame.obj
 0002:0000461c       ??_R2bad_exception@std@@8  1003261c     LIBCMT:frame.obj
 0002:00004628       ??_R1A@?0A@EA@bad_exception@std@@8 10032628     LIBCMT:frame.obj
 0002:00004644       ??_R4DNameNode@@6B@        10032644     LIBCMT:undname.obj
 0002:00004658       ??_R3DNameNode@@8          10032658     LIBCMT:undname.obj
 0002:00004668       ??_R2DNameNode@@8          10032668     LIBCMT:undname.obj
 0002:00004670       ??_R1A@?0A@EA@DNameNode@@8 10032670     LIBCMT:undname.obj
 0002:0000468c       ??_R4charNode@@6B@         1003268c     LIBCMT:undname.obj
 0002:000046a0       ??_R3charNode@@8           100326a0     LIBCMT:undname.obj
 0002:000046b0       ??_R2charNode@@8           100326b0     LIBCMT:undname.obj
 0002:000046bc       ??_R1A@?0A@EA@charNode@@8  100326bc     LIBCMT:undname.obj
 0002:000046d8       ??_R4pDNameNode@@6B@       100326d8     LIBCMT:undname.obj
 0002:000046ec       ??_R3pDNameNode@@8         100326ec     LIBCMT:undname.obj
 0002:000046fc       ??_R2pDNameNode@@8         100326fc     LIBCMT:undname.obj
 0002:00004708       ??_R1A@?0A@EA@pDNameNode@@8 10032708     LIBCMT:undname.obj
 0002:00004724       ??_R4DNameStatusNode@@6B@  10032724     LIBCMT:undname.obj
 0002:00004738       ??_R3DNameStatusNode@@8    10032738     LIBCMT:undname.obj
 0002:00004748       ??_R2DNameStatusNode@@8    10032748     LIBCMT:undname.obj
 0002:00004754       ??_R1A@?0A@EA@DNameStatusNode@@8 10032754     LIBCMT:undname.obj
 0002:00004770       ??_R4pcharNode@@6B@        10032770     LIBCMT:undname.obj
 0002:00004784       ??_R3pcharNode@@8          10032784     LIBCMT:undname.obj
 0002:00004794       ??_R2pcharNode@@8          10032794     LIBCMT:undname.obj
 0002:000047a0       ??_R1A@?0A@EA@pcharNode@@8 100327a0     LIBCMT:undname.obj
 0002:000047bc       ??_R4invalid_argument@std@@6B@ 100327bc     libcpmt:string.obj
 0002:000047d0       ??_R3invalid_argument@std@@8 100327d0     libcpmt:string.obj
 0002:000047e0       ??_R2invalid_argument@std@@8 100327e0     libcpmt:string.obj
 0002:000047f0       ??_R1A@?0A@EA@invalid_argument@std@@8 100327f0     libcpmt:string.obj
 0002:0000480c       ??_R4_Locimp@locale@std@@6B@ 1003280c     libcpmt:locale0.obj
 0002:00004820       ??_R3_Locimp@locale@std@@8 10032820     libcpmt:locale0.obj
 0002:00004830       ??_R2_Locimp@locale@std@@8 10032830     libcpmt:locale0.obj
 0002:0000483c       ??_R1A@?0A@EA@_Locimp@locale@std@@8 1003283c     libcpmt:locale0.obj
 0002:00004860       ___safe_se_handler_table   10032860     <linker-defined>
 0002:00004a10       ___rtc_iaa                 10032a10     LIBCMT:initsect.obj
 0002:00004a14       ___rtc_izz                 10032a14     LIBCMT:initsect.obj
 0002:00004a18       ___rtc_taa                 10032a18     LIBCMT:initsect.obj
 0002:00004a1c       ___rtc_tzz                 10032a1c     LIBCMT:initsect.obj
 0002:00004a5c       __TI2?AVbad_alloc@std@@    10032a5c     ClientStage.obj
 0002:00004a6c       __CTA2?AVbad_alloc@std@@   10032a6c     ClientStage.obj
 0002:00004a78       __CT??_R0?AVbad_alloc@std@@@8??0bad_alloc@std@@QAE@ABV01@@Z12 10032a78     ClientStage.obj
 0002:00004a94       __CT??_R0?AVexception@std@@@8??0exception@std@@QAE@ABV01@@Z12 10032a94     ClientStage.obj
 0002:00004ffc       __TI2?AVCWin32Exception@Win32@OnlineGameLib@@ 10032ffc     common:SocketClient.obj
 0002:00005040       __CTA2?AVCWin32Exception@Win32@OnlineGameLib@@ 10033040     common:SocketClient.obj
 0002:0000504c       __CT??_R0?AVCWin32Exception@Win32@OnlineGameLib@@@8??0CWin32Exception@Win32@OnlineGameLib@@QAE@ABV012@@Z64 1003304c     common:SocketClient.obj
 0002:00005068       __CT??_R0?AVCException@Win32@OnlineGameLib@@@8??0CException@Win32@OnlineGameLib@@QAE@ABV012@@Z60 10033068     common:SocketClient.obj
 0002:00005424       __TI3?AVout_of_range@std@@ 10033424     common:IOBuffer.obj
 0002:00005460       __CTA3?AVout_of_range@std@@ 10033460     common:IOBuffer.obj
 0002:00005470       __CT??_R0?AVout_of_range@std@@@8??0out_of_range@std@@QAE@ABV01@@Z40 10033470     common:IOBuffer.obj
 0002:0000548c       __CT??_R0?AVlogic_error@std@@@8??0logic_error@std@@QAE@ABV01@@Z40 1003348c     common:IOBuffer.obj
 0002:000054d4       __TI3?AVlength_error@std@@ 100334d4     common:IOBuffer.obj
 0002:00005510       __CTA3?AVlength_error@std@@ 10033510     common:IOBuffer.obj
 0002:00005520       __CT??_R0?AVlength_error@std@@@8??0length_error@std@@QAE@ABV01@@Z40 10033520     common:IOBuffer.obj
 0002:0000553c       __TI1?AVCException@Win32@OnlineGameLib@@ 1003353c     common:IOBuffer.obj
 0002:00005580       __CTA1?AVCException@Win32@OnlineGameLib@@ 10033580     common:IOBuffer.obj
 0002:0000586c       __TI2?AVruntime_error@std@@ 1003386c     common:Utils.obj
 0002:000058d0       __CTA2?AVruntime_error@std@@ 100338d0     common:Utils.obj
 0002:000058dc       __CT??_R0?AVruntime_error@std@@@8??0runtime_error@std@@QAE@ABV01@@Z40 100338dc     common:Utils.obj
 0002:0000597c       __TI3?AVfailure@ios_base@std@@ 1003397c     common:Utils.obj
 0002:000059c8       __CTA3?AVfailure@ios_base@std@@ 100339c8     common:Utils.obj
 0002:000059d8       __CT??_R0?AVfailure@ios_base@std@@@8??0failure@ios_base@std@@QAE@ABV012@@Z40 100339d8     common:Utils.obj
 0002:00005b80       __TI2?AVbad_cast@std@@     10033b80     common:Utils.obj
 0002:00005bbc       __CTA2?AVbad_cast@std@@    10033bbc     common:Utils.obj
 0002:00005bc8       __CT??_R0?AVbad_cast@std@@@8??0bad_cast@std@@QAE@ABV01@@Z12 10033bc8     common:Utils.obj
 0002:00005fc8       __TI3?AVException@CSocket@Win32@OnlineGameLib@@ 10033fc8     common:Socket.obj
 0002:00006004       __CTA3?AVException@CSocket@Win32@OnlineGameLib@@ 10034004     common:Socket.obj
 0002:00006014       __CT??_R0?AVException@CSocket@Win32@OnlineGameLib@@@8??0Exception@CSocket@Win32@OnlineGameLib@@QAE@ABV0123@@Z64 10034014     common:Socket.obj
 0002:0000669c       __TI2?AVbad_exception@std@@ 1003469c     LIBCMT:frame.obj
 0002:000066ac       __CTA2?AVbad_exception@std@@ 100346ac     LIBCMT:frame.obj
 0002:000066b8       __CT??_R0?AVbad_exception@std@@@8??0bad_exception@std@@QAE@ABV01@@Z12 100346b8     LIBCMT:frame.obj
 0002:00006d54       __TI3?AVinvalid_argument@std@@ 10034d54     libcpmt:string.obj
 0002:00006d90       __CTA3?AVinvalid_argument@std@@ 10034d90     libcpmt:string.obj
 0002:00006da0       __CT??_R0?AVinvalid_argument@std@@@8??0invalid_argument@std@@QAE@ABV01@@Z40 10034da0     libcpmt:string.obj
 0002:00006ea8       ___pobjMapEntryFirst       10034ea8     ClientStage.obj
 0002:00006eac       ___pobjMapEntryLast        10034eac     ClientStage.obj
 0002:00006eb0       __IMPORT_DESCRIPTOR_KERNEL32 10034eb0     kernel32:KERNEL32.dll
 0002:00006ec4       __IMPORT_DESCRIPTOR_WS2_32 10034ec4     ws2_32:WS2_32.dll
 0002:00006ed8       __IMPORT_DESCRIPTOR_VERSION 10034ed8     Version:VERSION.dll
 0002:00006eec       __IMPORT_DESCRIPTOR_USER32 10034eec     user32:USER32.dll
 0002:00006f00       __IMPORT_DESCRIPTOR_ADVAPI32 10034f00     advapi32:ADVAPI32.dll
 0002:00006f14       __NULL_IMPORT_DESCRIPTOR   10034f14     kernel32:KERNEL32.dll
 0003:00000004       ??_R0?AVbad_alloc@std@@@8  10036004     ClientStage.obj
 0003:00000020       ??_R0?AVexception@std@@@8  10036020     ClientStage.obj
 0003:0000003c       ??_R0?AUThank_you@Define_the_symbol__ATL_MIXED@@@8 1003603c     ClientStage.obj
 0003:00000074       ??_R0?AVCGameClient@@@8    10036074     ClientStage.obj
 0003:00000090       ??_R0?AUIClient@@@8        10036090     ClientStage.obj
 0003:000000a8       ??_R0?AUIUnknown@@@8       100360a8     ClientStage.obj
 0003:000000c0       ??_R0?AVCSocketClient@Win32@OnlineGameLib@@@8 100360c0     ClientStage.obj
 0003:000000f0       ??_R0?AVCThread@Win32@OnlineGameLib@@@8 100360f0     ClientStage.obj
 0003:0000011c       ??_R0?AVCUsesWinsock@Win32@OnlineGameLib@@@8 1003611c     ClientStage.obj
 0003:0000014c       ??_R0?AVAllocator@CIOBuffer@Win32@OnlineGameLib@@@8 1003614c     ClientStage.obj
 0003:00000188       ??_R0?AVCClientFactory@@@8 10036188     ClientStage.obj
 0003:000001a8       ??_R0?AUIClientFactory@@@8 100361a8     ClientStage.obj
 0003:000001c8       ??_R0?AVCException@Win32@OnlineGameLib@@@8 100361c8     ClientStage.obj
 0003:000001f8       ?clash@Define_the_symbol__ATL_MIXED@@3UThank_you@1@A 100361f8     ClientStage.obj
 0003:00000208       ??_R0?AVCWin32Exception@Win32@OnlineGameLib@@@8 10036208     common:SocketClient.obj
 0003:00000240       ??_R0?AVlogic_error@std@@@8 10036240     common:IOBuffer.obj
 0003:00000260       ??_R0?AVlength_error@std@@@8 10036260     common:IOBuffer.obj
 0003:00000280       ??_R0?AVout_of_range@std@@@8 10036280     common:IOBuffer.obj
 0003:000002c0       ??_R0?AVfacet@locale@std@@@8 100362c0     common:Utils.obj
 0003:000002e0       ??_R0?AUctype_base@std@@@8 100362e0     common:Utils.obj
 0003:00000300       ??_R0?AVios_base@std@@@8   10036300     common:Utils.obj
 0003:0000031c       ??_R0?AV?$_Iosb@H@std@@@8  1003631c     common:Utils.obj
 0003:0000033c       ??_R0?AV?$basic_ostream@DU?$char_traits@D@std@@@std@@@8 1003633c     common:Utils.obj
 0003:00000378       ??_R0?AV?$basic_ios@DU?$char_traits@D@std@@@std@@@8 10036378     common:Utils.obj
 0003:000003b0       ??_R0?AV?$basic_istream@DU?$char_traits@D@std@@@std@@@8 100363b0     common:Utils.obj
 0003:000003ec       ??_R0?AV?$basic_iostream@DU?$char_traits@D@std@@@std@@@8 100363ec     common:Utils.obj
 0003:00000428       ??_R0?AV?$basic_streambuf@DU?$char_traits@D@std@@@std@@@8 10036428     common:Utils.obj
 0003:00000464       ??_R0?AV?$basic_filebuf@DU?$char_traits@D@std@@@std@@@8 10036464     common:Utils.obj
 0003:000004a0       ??_R0?AVcodecvt_base@std@@@8 100364a0     common:Utils.obj
 0003:000004c0       ??_R0?AVruntime_error@std@@@8 100364c0     common:Utils.obj
 0003:000004e0       ??_R0?AVfailure@ios_base@std@@@8 100364e0     common:Utils.obj
 0003:00000504       ??_R0?AV?$ctype@D@std@@@8  10036504     common:Utils.obj
 0003:00000520       ??_R0?AVbad_cast@std@@@8   10036520     common:Utils.obj
 0003:0000053c       ??_R0?AV?$codecvt@DDH@std@@@8 1003653c     common:Utils.obj
 0003:0000055c       ??_R0?AV?$basic_fstream@DU?$char_traits@D@std@@@std@@@8 1003655c     common:Utils.obj
 0003:000005a0       ??_R0?AVCEvent@Win32@OnlineGameLib@@@8 100365a0     common:Event.obj
 0003:000005d4       ??_R0?AVCManualResetEvent@Win32@OnlineGameLib@@@8 100365d4     common:ManualResetEvent.obj
 0003:0000060c       ??_R0?AVException@CSocket@Win32@OnlineGameLib@@@8 1003660c     common:Socket.obj
 0003:0000064c       ??_R0?AVbad_typeid@std@@@8 1003664c     LIBCMT:stdexcpt.obj
 0003:0000066c       ??_R0?AV__non_rtti_object@std@@@8 1003666c     LIBCMT:stdexcpt.obj
 0003:00000694       ??_R0?AVtype_info@@@8      10036694     LIBCMT:typinfo.obj
 0003:000006ac       ___security_cookie         100366ac     LIBCMT:gs_cookie.obj
 0003:000006b0       ___security_cookie_complement 100366b0     LIBCMT:gs_cookie.obj
 0003:00000844       ??_R0?AVbad_exception@std@@@8 10036844     LIBCMT:frame.obj
 0003:00000864       ___flsindex                10036864     LIBCMT:tidtable.obj
 0003:00000868       ___getvalueindex           10036868     LIBCMT:tidtable.obj
 0003:00000870       __aexit_rtn                10036870     LIBCMT:crt0dat.obj
 0003:00000878       ___badioinfo               10036878     LIBCMT:ioinit.obj
 0003:000008b0       __amblksiz                 100368b0     LIBCMT:heapinit.obj
 0003:000008b8       __XcptActTab               100368b8     LIBCMT:winxfltr.obj
 0003:00000930       __First_FPE_Indx           10036930     LIBCMT:winxfltr.obj
 0003:00000934       __Num_FPE                  10036934     LIBCMT:winxfltr.obj
 0003:00000938       __XcptActTabSize           10036938     LIBCMT:winxfltr.obj
 0003:0000093c       __XcptActTabCount          1003693c     LIBCMT:winxfltr.obj
 0003:00000940       ___abort_behavior          10036940     LIBCMT:abort.obj
 0003:00000b20       ___nullstring              10036b20     LIBCMT:output.obj
 0003:00000b24       ___wnullstring             10036b24     LIBCMT:output.obj
 0003:00000b28       __iob                      10036b28     LIBCMT:_file.obj
 0003:00000da8       ___initialmbcinfo          10036da8     LIBCMT:mbctype.obj
 0003:00000fc8       __mbctype                  10036fc8     LIBCMT:mbctype.obj
 0003:000010d0       __mbcasemap                100370d0     LIBCMT:mbctype.obj
 0003:000011d0       ___ptmbcinfo               100371d0     LIBCMT:mbctype.obj
 0003:000012cc       ___globallocalestatus      100372cc     LIBCMT:glstatus.obj
 0003:000012d0       ___clocalestr              100372d0     LIBCMT:nlsdata2.obj
 0003:000012d8       ___initiallocinfo          100372d8     LIBCMT:nlsdata2.obj
 0003:000013b0       ___ptlocinfo               100373b0     LIBCMT:nlsdata2.obj
 0003:000013b4       ___lc_clike                100373b4     LIBCMT:nlsdata2.obj
 0003:000013b8       ___initiallocalestructinfo 100373b8     LIBCMT:nlsdata2.obj
 0003:000013c0       ??_R0?AVDNameNode@@@8      100373c0     LIBCMT:undname.obj
 0003:000013d8       ??_R0?AVcharNode@@@8       100373d8     LIBCMT:undname.obj
 0003:000013f0       ??_R0?AVpDNameNode@@@8     100373f0     LIBCMT:undname.obj
 0003:0000140c       ??_R0?AVDNameStatusNode@@@8 1003740c     LIBCMT:undname.obj
 0003:0000142c       ??_R0?AVpcharNode@@@8      1003742c     LIBCMT:undname.obj
 0003:00001444       __NLG_Destination          10037444     LIBCMT:exsup.obj
 0003:00001454       __cfltcvt_tab              10037454     LIBCMT:cmiscdat.obj
 0003:00001480       __lookuptrailbytes         10037480     LIBCMT:read.obj
 0003:00001590       __pctype                   10037590     LIBCMT:ctype.obj
 0003:00001594       __pwctype                  10037594     LIBCMT:ctype.obj
 0003:00001598       ___lc_time_c               10037598     LIBCMT:strftime.obj
 0003:00001650       ___lc_time_curr            10037650     LIBCMT:strftime.obj
 0003:00001654       ___lconv_static_decimal    10037654     LIBCMT:lconv.obj
 0003:00001658       ___lconv_c                 10037658     LIBCMT:lconv.obj
 0003:00001688       ___lconv                   10037688     LIBCMT:lconv.obj
 0003:0000168c       ___mb_cur_max              1003768c     LIBCMT:nlsdata1.obj
 0003:00001690       ___decimal_point           10037690     LIBCMT:nlsdata1.obj
 0003:00001694       ___decimal_point_length    10037694     LIBCMT:nlsdata1.obj
 0003:000016a0       __coninpfh                 100376a0     LIBCMT:initcon.obj
 0003:000016a4       __confh                    100376a4     LIBCMT:initcon.obj
 0003:000016a8       __timezone                 100376a8     LIBCMT:timeset.obj
 0003:000016ac       __daylight                 100376ac     LIBCMT:timeset.obj
 0003:000016b0       __dstbias                  100376b0     LIBCMT:timeset.obj
 0003:00001738       __tzname                   10037738     LIBCMT:timeset.obj
 0003:00001758       __lpdays                   10037758     LIBCMT:days.obj
 0003:0000178c       __days                     1003778c     LIBCMT:days.obj
 0003:000017c4       ??_R0?AVinvalid_argument@std@@@8 100377c4     libcpmt:string.obj
 0003:000017f0       ??_R0?AV_Locimp@locale@std@@@8 100377f0     libcpmt:locale0.obj
 0003:00001818       ?_Sync@ios_base@std@@0_NA  10037818     libcpmt:ios.obj
 0003:00001828       ?_PJP_CPP_Copyright@@3PADA 10037828     libcpmt:iosptrs.obj
 0003:00001884       ?g_pfnGetThreadACP@ATL@@3P6GIXZA 10037884     atls:atltrace.obj
 0003:00001888       ?rcDefault@CWindow@ATL@@2UtagRECT@@A 10037888     atls:atltrace.obj
 0003:000018a0       ?_pAtlAutoThreadModule@ATL@@3PAUIAtlAutoThreadModule@1@A 100378a0     ClientStage.obj
 0003:000018a4       ?m_bInitFailed@CAtlBaseModule@ATL@@2_NA 100378a4     ClientStage.obj
 0003:000018a8       ?_pPerfRegFunc@ATL@@3P6AJPAUHINSTANCE__@@@ZA 100378a8     ClientStage.obj
 0003:000018ac       ?_pPerfUnRegFunc@ATL@@3P6AJXZA 100378ac     ClientStage.obj
 0003:000018b0       ?_pAtlModule@ATL@@3PAVCAtlModule@1@A 100378b0     ClientStage.obj
 0003:000018b4       ?m_libid@CAtlModule@ATL@@2U_GUID@@A 100378b4     ClientStage.obj
 0003:000018c4       ?_pModule@ATL@@3PAVCComModule@1@A 100378c4     ClientStage.obj
 0003:000018c8       ?ATL_CREATE_OBJECT@CComApartment@ATL@@2IA 100378c8     ClientStage.obj
 0003:000018cc       ?clash@Inconsistent_definition_of_symbol__ATL_MIXED@@3U_Please_define_it_the_same_throughout_your_project@1@A 100378cc     ClientStage.obj
 0003:000018f4       ?_Stinit@?1??_Init@?$basic_filebuf@DU?$char_traits@D@std@@@std@@IAEXPAU_iobuf@@W4_Initfl@23@@Z@4HA 100378f4     common:Utils.obj
 0003:000019bc       ?_Psave@?$_Facetptr@V?$ctype@D@std@@@std@@2PBVfacet@locale@2@B 100379bc     common:Utils.obj
 0003:000019c0       ?_Psave@?$_Facetptr@V?$codecvt@DDH@std@@@std@@2PBVfacet@locale@2@B 100379c0     common:Utils.obj
 0003:000019c4       ?id@?$codecvt@DDH@std@@2V0locale@2@A 100379c4     common:Utils.obj
 0003:000019c8       ?s_criticalSection@Win32@OnlineGameLib@@3VCCriticalSection@12@A 100379c8     common:Utils.obj
 0003:00001a84       __aenvptr                  10037a84     LIBCMT:dllcrt0.obj
 0003:00001a88       __wenvptr                  10037a88     LIBCMT:dllcrt0.obj
 0003:00001a8c       ___error_mode              10037a8c     LIBCMT:dllcrt0.obj
 0003:00001a90       ___app_type                10037a90     LIBCMT:dllcrt0.obj
 0003:00001a94       ___pInvalidArgHandler      10037a94     LIBCMT:invarg.obj
 0003:00001aa0       _gpFlsAlloc                10037aa0     LIBCMT:tidtable.obj
 0003:00001aa4       _gpFlsGetValue             10037aa4     LIBCMT:tidtable.obj
 0003:00001aa8       _gpFlsSetValue             10037aa8     LIBCMT:tidtable.obj
 0003:00001aac       _gpFlsFree                 10037aac     LIBCMT:tidtable.obj
 0003:00001ab0       ?__pInconsistency@@3P6AXXZA 10037ab0     LIBCMT:hooks.obj
 0003:00001ddc       ?_pnhHeap@@3P6AHI@ZA       10037ddc     LIBCMT:handler.obj
 0003:00001de0       __umaskval                 10037de0     LIBCMT:crt0dat.obj
 0003:00001de4       __osplatform               10037de4     LIBCMT:crt0dat.obj
 0003:00001de8       __osver                    10037de8     LIBCMT:crt0dat.obj
 0003:00001dec       __winver                   10037dec     LIBCMT:crt0dat.obj
 0003:00001df0       __winmajor                 10037df0     LIBCMT:crt0dat.obj
 0003:00001df4       __winminor                 10037df4     LIBCMT:crt0dat.obj
 0003:00001df8       ___argc                    10037df8     LIBCMT:crt0dat.obj
 0003:00001dfc       ___argv                    10037dfc     LIBCMT:crt0dat.obj
 0003:00001e00       ___wargv                   10037e00     LIBCMT:crt0dat.obj
 0003:00001e04       __environ                  10037e04     LIBCMT:crt0dat.obj
 0003:00001e08       ___initenv                 10037e08     LIBCMT:crt0dat.obj
 0003:00001e0c       __wenviron                 10037e0c     LIBCMT:crt0dat.obj
 0003:00001e10       ___winitenv                10037e10     LIBCMT:crt0dat.obj
 0003:00001e14       __pgmptr                   10037e14     LIBCMT:crt0dat.obj
 0003:00001e18       __wpgmptr                  10037e18     LIBCMT:crt0dat.obj
 0003:00001e1c       __exitflag                 10037e1c     LIBCMT:crt0dat.obj
 0003:00001e20       __C_Termination_Done       10037e20     LIBCMT:crt0dat.obj
 0003:00001e24       __C_Exit_Done              10037e24     LIBCMT:crt0dat.obj
 0003:00001e28       __maxwait                  10037e28     LIBCMT:crtheap.obj
 0003:00001f3c       __crtheap                  10037f3c     LIBCMT:heapinit.obj
 0003:0000225c       ___pPurecall               1003825c     LIBCMT:inithelp.obj
 0003:000023b0       ___sbh_pHeaderDefer        100383b0     LIBCMT:sbheap.obj
 0003:000023b4       __cflush                   100383b4     LIBCMT:_file.obj
 0003:000023bc       ___mbulinfo                100383bc     LIBCMT:mbctype.obj
 0003:000023c8       ___mbcodepage              100383c8     LIBCMT:mbctype.obj
 0003:000023cc       ___ismbcodepage            100383cc     LIBCMT:mbctype.obj
 0003:000023d0       ___mblcid                  100383d0     LIBCMT:mbctype.obj
 0003:000023d4       ___locale_changed          100383d4     LIBCMT:setlocal.obj
 0003:000023d8       ___lc_handle               100383d8     LIBCMT:nlsdata2.obj
 0003:000023f0       ___lc_codepage             100383f0     LIBCMT:nlsdata2.obj
 0003:000023f4       ___lc_collate_cp           100383f4     LIBCMT:nlsdata2.obj
 0003:000023fc       __newmode                  100383fc     LIBCMT:_newmode.obj
 0003:00002414       ?pArgList@UnDecorator@@0PAVReplicator@@A 10038414     LIBCMT:undname.obj
 0003:00002418       ?pZNameList@UnDecorator@@0PAVReplicator@@A 10038418     LIBCMT:undname.obj
 0003:0000241c       ?pTemplateArgList@UnDecorator@@0PAVReplicator@@A 1003841c     LIBCMT:undname.obj
 0003:00002420       ?gName@UnDecorator@@0PBDB  10038420     LIBCMT:undname.obj
 0003:00002424       ?name@UnDecorator@@0PBDB   10038424     LIBCMT:undname.obj
 0003:00002428       ?outputString@UnDecorator@@0PADA 10038428     LIBCMT:undname.obj
 0003:0000242c       ?maxStringLength@UnDecorator@@0HA 1003842c     LIBCMT:undname.obj
 0003:00002430       ?disableFlags@UnDecorator@@0KA 10038430     LIBCMT:undname.obj
 0003:00002434       ?m_pGetParameter@UnDecorator@@0P6APADJ@ZA 10038434     LIBCMT:undname.obj
 0003:00002438       ?fExplicitTemplateParams@UnDecorator@@0_NA 10038438     LIBCMT:undname.obj
 0003:00002439       ?fGetTemplateArgumentList@UnDecorator@@0_NA 10038439     LIBCMT:undname.obj
 0003:0000247c       ___lconv_static_null       1003847c     LIBCMT:lconv.obj
 0003:00002480       __stdbuf                   10038480     LIBCMT:_sftbuf.obj
 0003:000025b4       ?_Clocptr@_Locimp@locale@std@@0PAV123@A 100385b4     libcpmt:locale0.obj
 0003:000025b8       ?_Id_cnt@id@locale@std@@0HA 100385b8     libcpmt:locale0.obj
 0003:000025bc       ?id@?$ctype@D@std@@2V0locale@2@A 100385bc     libcpmt:locale0.obj
 0003:000025c0       ?id@?$codecvt@GDH@std@@2V0locale@2@A 100385c0     libcpmt:locale0.obj
 0003:000025c4       ?id@?$ctype@_W@std@@2V0locale@2@A 100385c4     libcpmt:locale0.obj
 0003:000025c8       ?id@?$codecvt@_WDH@std@@2V0locale@2@A 100385c8     libcpmt:locale0.obj
 0003:000025d0       ?id@?$ctype@G@std@@2V0locale@2@A 100385d0     libcpmt:locale0.obj
 0003:000025d8       ?_Fpz@std@@3_JA            100385d8     libcpmt:ios.obj
 0003:000025e0       ?_Index@ios_base@std@@0HA  100385e0     libcpmt:ios.obj
 0003:00002618       ?_Ptr_cin@std@@3PAV?$basic_istream@DU?$char_traits@D@std@@@1@A 10038618     libcpmt:iosptrs.obj
 0003:0000261c       ?_Ptr_cout@std@@3PAV?$basic_ostream@DU?$char_traits@D@std@@@1@A 1003861c     libcpmt:iosptrs.obj
 0003:00002620       ?_Ptr_cerr@std@@3PAV?$basic_ostream@DU?$char_traits@D@std@@@1@A 10038620     libcpmt:iosptrs.obj
 0003:00002624       ?_Ptr_clog@std@@3PAV?$basic_ostream@DU?$char_traits@D@std@@@1@A 10038624     libcpmt:iosptrs.obj
 0003:00002628       ?_Ptr_wcin@std@@3PAV?$basic_istream@_WU?$char_traits@_W@std@@@1@A 10038628     libcpmt:iosptrs.obj
 0003:0000262c       ?_Ptr_wcout@std@@3PAV?$basic_ostream@_WU?$char_traits@_W@std@@@1@A 1003862c     libcpmt:iosptrs.obj
 0003:00002630       ?_Ptr_wcerr@std@@3PAV?$basic_ostream@_WU?$char_traits@_W@std@@@1@A 10038630     libcpmt:iosptrs.obj
 0003:00002634       ?_Ptr_wclog@std@@3PAV?$basic_ostream@_WU?$char_traits@_W@std@@@1@A 10038634     libcpmt:iosptrs.obj
 0003:00002664       ___setlc_active            10038664     <common>
 0003:00002668       ___unguarded_readlc_active 10038668     <common>
 0003:0000266c       ___piob                    1003866c     <common>
 0003:00002680       __bufin                    10038680     <common>
 0003:00003680       __nstream                  10039680     <common>
 0003:00003684       ___sbh_initialized         10039684     <common>
 0003:00003688       ___sbh_cntHeaderList       10039688     <common>
 0003:0000368c       ___sbh_pHeaderList         1003968c     <common>
 0003:00003690       ___sbh_threshold           10039690     <common>
 0003:00003694       ___sbh_pHeaderScan         10039694     <common>
 0003:00003698       ___sbh_sizeHeaderList      10039698     <common>
 0003:0000369c       ___sbh_indGroupDefer       1003969c     <common>
 0003:000036a0       __debugger_hook_dummy      100396a0     <common>
 0003:000036a4       ___use_sse2_mathfcns       100396a4     <common>
 0003:000036a8       ___sse2_available          100396a8     <common>
 0003:000036ac       ___active_heap             100396ac     <common>
 0003:000036b0       __nhandle                  100396b0     <common>
 0003:000036c0       ___pioinfo                 100396c0     <common>
 0003:000037c0       ___env_initialized         100397c0     <common>
 0003:000037c4       ___onexitend               100397c4     <common>
 0003:000037c8       ___onexitbegin             100397c8     <common>
 0003:000037cc       ___mbctype_initialized     100397cc     <common>
 0003:000037d0       __FPinit                   100397d0     <common>
 0003:000037d4       ___dyn_tls_init_callback   100397d4     <common>
 0003:000037d8       __FPmtterm                 100397d8     <common>
 0003:000037dc       __FPmtinit                 100397dc     <common>
 0003:000037e0       __acmdln                   100397e0     <common>

 entry point at        0001:0000befa

 Static symbols

 0001:fffff000       __ehhandler$?_Copy@?$basic_string@DU?$char_traits@D@std@@V?$allocator@D@2@@std@@IAEXII@Z 10000000 f   libcpmt:string.obj
 0001:fffff000       __unwindfunclet$??0CException@Win32@OnlineGameLib@@QAE@ABV012@@Z$0 10000000 f   common:Thread.obj
 0001:fffff000       __ehhandler$?_Copy@?$basic_string@DU?$char_traits@D@std@@V?$allocator@D@2@@std@@IAEXII@Z 10000000 f   common:Socket.obj
 0001:fffff000       __unwindfunclet$??0CException@Win32@OnlineGameLib@@QAE@ABV012@@Z$0 10000000 f   common:Socket.obj
 0001:fffff000       __unwindfunclet$??0CException@Win32@OnlineGameLib@@QAE@ABV012@@Z$0 10000000 f   common:Event.obj
 0001:fffff000       __unwindfunclet$??0logic_error@std@@QAE@ABV01@@Z$0 10000000 f   libcpmt:string.obj
 0001:fffff000       __unwindfunclet$??0CException@Win32@OnlineGameLib@@QAE@ABV012@@Z$0 10000000 f   common:IOBuffer.obj
 0001:fffff000       __ehhandler$?_Copy@?$basic_string@DU?$char_traits@D@std@@V?$allocator@D@2@@std@@IAEXII@Z 10000000 f   common:Thread.obj
 0001:fffff000       __ehhandler$?_Copy@?$basic_string@DU?$char_traits@D@std@@V?$allocator@D@2@@std@@IAEXII@Z 10000000 f   libcpmt:locale0.obj
 0001:fffff000       __ehhandler$?_Copy@?$basic_string@DU?$char_traits@D@std@@V?$allocator@D@2@@std@@IAEXII@Z 10000000 f   common:SocketClient.obj
 0001:fffff000       __unwindfunclet$??$?HDU?$char_traits@D@std@@V?$allocator@D@1@@std@@YA?AV?$basic_string@DU?$char_traits@D@std@@V?$allocator@D@2@@0@PBDABV10@@Z$0 10000000 f   common:SocketClient.obj
 0001:fffff000       __unwindfunclet$??0logic_error@std@@QAE@ABV?$basic_string@DU?$char_traits@D@std@@V?$allocator@D@2@@1@@Z$0 10000000 f   libcpmt:string.obj
 0001:fffff000       __ehhandler$?_Copy@?$basic_string@DU?$char_traits@D@std@@V?$allocator@D@2@@std@@IAEXII@Z 10000000 f   common:IOBuffer.obj
 0001:fffff000       __ehhandler$?_Copy@?$basic_string@DU?$char_traits@D@std@@V?$allocator@D@2@@std@@IAEXII@Z 10000000 f   common:UsesWinsock.obj
 0001:fffff000       __unwindfunclet$??0CException@Win32@OnlineGameLib@@QAE@ABV012@@Z$0 10000000 f   common:UsesWinsock.obj
 0001:fffff000       __unwindfunclet$??$?HDU?$char_traits@D@std@@V?$allocator@D@1@@std@@YA?AV?$basic_string@DU?$char_traits@D@std@@V?$allocator@D@2@@0@ABV10@PBD@Z$0 10000000 f   common:SocketClient.obj
 0001:fffff000       __unwindfunclet$??0CException@Win32@OnlineGameLib@@QAE@ABV012@@Z$0 10000000 f   common:Utils.obj
 0001:fffff000       __unwindfunclet$??$?HDU?$char_traits@D@std@@V?$allocator@D@1@@std@@YA?AV?$basic_string@DU?$char_traits@D@std@@V?$allocator@D@2@@0@ABV10@0@Z$0 10000000 f   common:SocketClient.obj
 0001:fffff000       __unwindfunclet$??$?HDU?$char_traits@D@std@@V?$allocator@D@1@@std@@YA?AV?$basic_string@DU?$char_traits@D@std@@V?$allocator@D@2@@0@ABV10@0@Z$0 10000000 f   common:Utils.obj
 0001:fffff000       __ehhandler$?_Copy@?$basic_string@DU?$char_traits@D@std@@V?$allocator@D@2@@std@@IAEXII@Z 10000000 f   common:Exception.obj
 0001:fffff000       __unwindfunclet$??$?HDU?$char_traits@D@std@@V?$allocator@D@1@@std@@YA?AV?$basic_string@DU?$char_traits@D@std@@V?$allocator@D@2@@0@ABV10@PBD@Z$0 10000000 f   common:Utils.obj
 0001:fffff000       __ehhandler$?_Copy@?$basic_string@DU?$char_traits@D@std@@V?$allocator@D@2@@std@@IAEXII@Z 10000000 f   common:Utils.obj
 0001:fffff000       __ehhandler$?_Copy@?$basic_string@DU?$char_traits@D@std@@V?$allocator@D@2@@std@@IAEXII@Z 10000000 f   common:EventSelect.obj
 0001:fffff000       __unwindfunclet$??0CException@Win32@OnlineGameLib@@QAE@ABV012@@Z$0 10000000 f   common:EventSelect.obj
 0001:fffff000       __ehhandler$?_Copy@?$basic_string@DU?$char_traits@D@std@@V?$allocator@D@2@@std@@IAEXII@Z 10000000 f   common:Event.obj
 0001:fffff008       __ehhandler$??0logic_error@std@@QAE@ABV01@@Z 10000008 f   libcpmt:string.obj
 0001:fffff008       __ehhandler$??$?HDU?$char_traits@D@std@@V?$allocator@D@1@@std@@YA?AV?$basic_string@DU?$char_traits@D@std@@V?$allocator@D@2@@0@ABV10@PBD@Z 10000008 f   common:Utils.obj
 0001:fffff008       __ehhandler$??$?HDU?$char_traits@D@std@@V?$allocator@D@1@@std@@YA?AV?$basic_string@DU?$char_traits@D@std@@V?$allocator@D@2@@0@ABV10@0@Z 10000008 f   common:SocketClient.obj
 0001:fffff008       __ehhandler$??$?HDU?$char_traits@D@std@@V?$allocator@D@1@@std@@YA?AV?$basic_string@DU?$char_traits@D@std@@V?$allocator@D@2@@0@ABV10@0@Z 10000008 f   common:Utils.obj
 0001:fffff008       __ehhandler$??$?HDU?$char_traits@D@std@@V?$allocator@D@1@@std@@YA?AV?$basic_string@DU?$char_traits@D@std@@V?$allocator@D@2@@0@ABV10@PBD@Z 10000008 f   common:SocketClient.obj
 0001:fffff008       __ehhandler$??0logic_error@std@@QAE@ABV?$basic_string@DU?$char_traits@D@std@@V?$allocator@D@2@@1@@Z 10000008 f   libcpmt:string.obj
 0001:fffff008       __ehhandler$??$?HDU?$char_traits@D@std@@V?$allocator@D@1@@std@@YA?AV?$basic_string@DU?$char_traits@D@std@@V?$allocator@D@2@@0@PBDABV10@@Z 10000008 f   common:SocketClient.obj
 0001:fffff00b       __ehhandler$??0CException@Win32@OnlineGameLib@@QAE@ABV012@@Z 1000000b f   common:IOBuffer.obj
 0001:fffff00b       __ehhandler$??0CException@Win32@OnlineGameLib@@QAE@ABV012@@Z 1000000b f   common:UsesWinsock.obj
 0001:fffff00b       __ehhandler$??0CException@Win32@OnlineGameLib@@QAE@ABV012@@Z 1000000b f   common:Utils.obj
 0001:fffff00b       __ehhandler$??0CException@Win32@OnlineGameLib@@QAE@ABV012@@Z 1000000b f   common:Event.obj
 0001:fffff00b       __ehhandler$??0CException@Win32@OnlineGameLib@@QAE@ABV012@@Z 1000000b f   common:Socket.obj
 0001:fffff00b       __ehhandler$??0CException@Win32@OnlineGameLib@@QAE@ABV012@@Z 1000000b f   common:EventSelect.obj
 0001:fffff00b       __ehhandler$??0CException@Win32@OnlineGameLib@@QAE@ABV012@@Z 1000000b f   common:Thread.obj
 0001:fffff05b       __catch$?_Copy@?$basic_string@DU?$char_traits@D@std@@V?$allocator@D@2@@std@@IAEXII@Z$0 1000005b f   libcpmt:string.obj
 0001:fffff05b       __catch$?_Copy@?$basic_string@DU?$char_traits@D@std@@V?$allocator@D@2@@std@@IAEXII@Z$0 1000005b f   libcpmt:locale0.obj
 0001:fffff07d       __catch$?_Copy@?$basic_string@DU?$char_traits@D@std@@V?$allocator@D@2@@std@@IAEXII@Z$0 1000007d f   common:Thread.obj
 0001:fffff07d       __catch$?_Copy@?$basic_string@DU?$char_traits@D@std@@V?$allocator@D@2@@std@@IAEXII@Z$0 1000007d f   common:Socket.obj
 0001:fffff07d       __catch$?_Copy@?$basic_string@DU?$char_traits@D@std@@V?$allocator@D@2@@std@@IAEXII@Z$0 1000007d f   common:SocketClient.obj
 0001:fffff07d       __catch$?_Copy@?$basic_string@DU?$char_traits@D@std@@V?$allocator@D@2@@std@@IAEXII@Z$0 1000007d f   common:UsesWinsock.obj
 0001:fffff07d       __catch$?_Copy@?$basic_string@DU?$char_traits@D@std@@V?$allocator@D@2@@std@@IAEXII@Z$0 1000007d f   common:Event.obj
 0001:fffff07d       __catch$?_Copy@?$basic_string@DU?$char_traits@D@std@@V?$allocator@D@2@@std@@IAEXII@Z$0 1000007d f   common:IOBuffer.obj
 0001:fffff07d       __catch$?_Copy@?$basic_string@DU?$char_traits@D@std@@V?$allocator@D@2@@std@@IAEXII@Z$0 1000007d f   common:Exception.obj
 0001:fffff07d       __catch$?_Copy@?$basic_string@DU?$char_traits@D@std@@V?$allocator@D@2@@std@@IAEXII@Z$0 1000007d f   common:EventSelect.obj
 0001:fffff07d       __catch$?_Copy@?$basic_string@DU?$char_traits@D@std@@V?$allocator@D@2@@std@@IAEXII@Z$0 1000007d f   common:Utils.obj
 0001:fffff0cd       __catch$?_Copy@?$basic_string@DU?$char_traits@D@std@@V?$allocator@D@2@@std@@IAEXII@Z$1 100000cd f   libcpmt:string.obj
 0001:fffff0cd       __catch$?_Copy@?$basic_string@DU?$char_traits@D@std@@V?$allocator@D@2@@std@@IAEXII@Z$1 100000cd f   libcpmt:locale0.obj
 0001:fffff110       __catch$?_Copy@?$basic_string@DU?$char_traits@D@std@@V?$allocator@D@2@@std@@IAEXII@Z$1 10000110 f   common:IOBuffer.obj
 0001:fffff110       __catch$?_Copy@?$basic_string@DU?$char_traits@D@std@@V?$allocator@D@2@@std@@IAEXII@Z$1 10000110 f   common:Event.obj
 0001:fffff110       __catch$?_Copy@?$basic_string@DU?$char_traits@D@std@@V?$allocator@D@2@@std@@IAEXII@Z$1 10000110 f   common:Thread.obj
 0001:fffff110       __catch$?_Copy@?$basic_string@DU?$char_traits@D@std@@V?$allocator@D@2@@std@@IAEXII@Z$1 10000110 f   common:UsesWinsock.obj
 0001:fffff110       __catch$?_Copy@?$basic_string@DU?$char_traits@D@std@@V?$allocator@D@2@@std@@IAEXII@Z$1 10000110 f   common:EventSelect.obj
 0001:fffff110       __catch$?_Copy@?$basic_string@DU?$char_traits@D@std@@V?$allocator@D@2@@std@@IAEXII@Z$1 10000110 f   common:Utils.obj
 0001:fffff110       __catch$?_Copy@?$basic_string@DU?$char_traits@D@std@@V?$allocator@D@2@@std@@IAEXII@Z$1 10000110 f   common:SocketClient.obj
 0001:fffff110       __catch$?_Copy@?$basic_string@DU?$char_traits@D@std@@V?$allocator@D@2@@std@@IAEXII@Z$1 10000110 f   common:Socket.obj
 0001:fffff110       __catch$?_Copy@?$basic_string@DU?$char_traits@D@std@@V?$allocator@D@2@@std@@IAEXII@Z$1 10000110 f   common:Exception.obj
 0001:000002e0       _time                      100012e0 f   ClientStage.obj
 0001:00000dcd       __catch$?_Copy@?$basic_string@DU?$char_traits@D@std@@V?$allocator@D@2@@std@@IAEXII@Z$0 10001dcd f i ClientStage.obj
 0001:00000e60       __catch$?_Copy@?$basic_string@DU?$char_traits@D@std@@V?$allocator@D@2@@std@@IAEXII@Z$1 10001e60 f i ClientStage.obj
 0001:00001704       __catch$?Startup@CGameClient@@UAGJXZ$0 10002704 f   ClientStage.obj
 0001:0000179c       __catch$?Startup@CGameClient@@UAGJXZ$1 1000279c f   ClientStage.obj
 0001:0000183d       __catch$?Cleanup@CGameClient@@UAGJXZ$0 1000283d f   ClientStage.obj
 0001:000018d5       __catch$?Cleanup@CGameClient@@UAGJXZ$1 100028d5 f   ClientStage.obj
 0001:000019be       __catch$?ConnectTo@CGameClient@@UAGJABQBDG@Z$0 100029be f   ClientStage.obj
 0001:00001a56       __catch$?ConnectTo@CGameClient@@UAGJABQBDG@Z$1 10002a56 f   ClientStage.obj
 0001:00001cd7       __catch$?ReadCompleted@CGameClient@@EAEXPAVCIOBuffer@Win32@OnlineGameLib@@@Z$0 10002cd7 f   ClientStage.obj
 0001:00001d7b       __catch$?ReadCompleted@CGameClient@@EAEXPAVCIOBuffer@Win32@OnlineGameLib@@@Z$1 10002d7b f   ClientStage.obj
 0001:00002e44       __catch$??1CSocketClient@Win32@OnlineGameLib@@UAE@XZ$0 10003e44 f   common:SocketClient.obj
 0001:000031e8       __catch$?Run@CSocketClient@Win32@OnlineGameLib@@MAEHXZ$0 100041e8 f   common:SocketClient.obj
 0001:000032a9       __catch$?Run@CSocketClient@Win32@OnlineGameLib@@MAEHXZ$1 100042a9 f   common:SocketClient.obj
 0001:00003b2d       __catch$?DestroyBuffer@Allocator@CIOBuffer@Win32@OnlineGameLib@@AAEXPAV234@@Z$0 10004b2d f   common:IOBuffer.obj
 0001:00003e18       __catch$??1Allocator@CIOBuffer@Win32@OnlineGameLib@@UAE@XZ$0 10004e18 f   common:IOBuffer.obj
 0001:00009d75       __catch$?ThreadFunction@CThread@Win32@OnlineGameLib@@CGIPAX@Z$0 1000ad75 f   common:Thread.obj
 0001:0000a0e0       ?Create@Win32@OnlineGameLib@@YAPAXPAU_SECURITY_ATTRIBUTES@@_N1PBD@Z 1000b0e0 f   common:Event.obj
 0001:0000aeec       __catch$??1CSocket@Win32@OnlineGameLib@@QAE@XZ$0 1000beec f   common:Socket.obj
 0001:0000b815       ?CatchGuardHandler@@YA?AW4_EXCEPTION_DISPOSITION@@PAUEHExceptionRecord@@PAUCatchGuardRN@@PAX2@Z 1000c815 f   LIBCMT:trnsctrl.obj
 0001:0000b91a       ?TranslatorGuardHandler@@YA?AW4_EXCEPTION_DISPOSITION@@PAUEHExceptionRecord@@PAUTranslatorGuardRN@@PAX2@Z 1000c91a f   LIBCMT:trnsctrl.obj
 0001:0000be04       ___DllMainCRTStartup       1000ce04 f   LIBCMT:dllcrt0.obj
 0001:0000d2b6       _flsall                    1000e2b6 f   LIBCMT:fflush.obj
 0001:0000e120       __onexit_nolock            1000f120 f   LIBCMT:onexit.obj
 0001:0000e28f       __callthreadstartex        1000f28f f   LIBCMT:threadex.obj
 0001:0000e2d0       __threadstartex@4          1000f2d0 f   LIBCMT:threadex.obj
 0001:0000edbf       ?ExFilterRethrow@@YAHPAU_EXCEPTION_POINTERS@@@Z 1000fdbf f   LIBCMT:frame.obj
 0001:0000f19e       ?IsInExceptionSpec@@YAEPAUEHExceptionRecord@@PBU_s_ESTypeList@@@Z 1001019e f   LIBCMT:frame.obj
 0001:0000f217       ?CallUnexpected@@YAXPBU_s_ESTypeList@@@Z 10010217 f   LIBCMT:frame.obj
 0001:0000f248       __catch$?CallUnexpected@@YAXPBU_s_ESTypeList@@@Z$0 10010248 f   LIBCMT:frame.obj
 0001:0000f260       ?Is_bad_exception_allowed@@YAEPBU_s_ESTypeList@@@Z 10010260 f   LIBCMT:frame.obj
 0001:0000f312       ?CallCatchBlock@@YAPAXPAUEHExceptionRecord@@PAUEHRegistrationNode@@PAU_CONTEXT@@PBU_s_FuncInfo@@PAXHK@Z 10010312 f   LIBCMT:frame.obj
 0001:0000f801       ?CatchIt@@YAXPAUEHExceptionRecord@@PAUEHRegistrationNode@@PAU_CONTEXT@@PAXPBU_s_FuncInfo@@PBU_s_HandlerType@@PBU_s_CatchableType@@PBU_s_TryBlockMapEntry@@H1E@Z 10010801 f   LIBCMT:frame.obj
 0001:0000f86d       ?FindHandlerForForeignException@@YAXPAUEHExceptionRecord@@PAUEHRegistrationNode@@PAU_CONTEXT@@PAXPBU_s_FuncInfo@@HH1@Z 1001086d f   LIBCMT:frame.obj
 0001:0000f95f       ?FindHandler@@YAXPAUEHExceptionRecord@@PAUEHRegistrationNode@@PAU_CONTEXT@@PAXPBU_s_FuncInfo@@EH1@Z 1001095f f   LIBCMT:frame.obj
 0001:0000fdb1       __use_encode_pointer       10010db1 f   LIBCMT:tidtable.obj
 0001:000106e4       __initterm                 100116e4 f   LIBCMT:crt0dat.obj
 0001:00010943       _doexit                    10011943 f   LIBCMT:crt0dat.obj
 0001:00010f92       _parse_cmdline             10011f92 f   LIBCMT:stdargv.obj
 0001:00011490       _xcptlookup                10012490 f   LIBCMT:winxfltr.obj
 0001:000116a0       _ValidateLocalCookies      100126a0 f   LIBCMT:chandler4.obj
 0001:000118fa       _fastzero_I                100128fa f   LIBCMT:p4_memset.obj
 0001:00011e76       _fastcopy_I                10012e76 f   LIBCMT:p4_memcpy.obj
 0001:000131a0       ?strtoxl@@YAKPAUlocaleinfo_struct@@PBDPAPBDHH@Z 100141a0 f   LIBCMT:strtol.obj
 0001:00013454       ?strtoxq@@YA_KPAUlocaleinfo_struct@@PBDPAPBDHH@Z 10014454 f   LIBCMT:strtoq.obj
 0001:000138d1       _write_char                100148d1 f   LIBCMT:output.obj
 0001:00013904       _write_multi_char          10014904 f   LIBCMT:output.obj
 0001:00013928       _write_string              10014928 f   LIBCMT:output.obj
 0001:00015b4d       ?CPtoLCID@@YAHH@Z          10016b4d f   LIBCMT:mbctype.obj
 0001:00015b7c       ?setSBCS@@YAXPAUthreadmbcinfostruct@@@Z 10016b7c f   LIBCMT:mbctype.obj
 0001:00015bd1       ?setSBUpLow@@YAXPAUthreadmbcinfostruct@@@Z 10016bd1 f   LIBCMT:mbctype.obj
 0001:00015dff       ?getSystemCP@@YAHH@Z       10016dff f   LIBCMT:mbctype.obj
 0001:000164a4       __copytlocinfo_nolock      100174a4 f   LIBCMT:setlocal.obj
 0001:000164c8       __updatetlocinfoEx_nolock  100174c8 f   LIBCMT:setlocal.obj
 0001:000165e2       _sync_legacy_variables_lk  100175e2 f   LIBCMT:setlocal.obj
 0001:00016932       __setlocale_get_all        10017932 f   LIBCMT:setlocal.obj
 0001:00016c77       __setlocale_set_cat        10017c77 f   LIBCMT:setlocal.obj
 0001:00016f6d       __setlocale_nolock         10017f6d f   LIBCMT:setlocal.obj
 0001:000173d0       ?strncnt@@YAHPBDH@Z        100183d0 f   LIBCMT:a_map.obj
 0001:000173ea       ?__crtLCMapStringA_stat@@YAHPAUlocaleinfo_struct@@KKPBDHPADHHH@Z 100183ea f   LIBCMT:a_map.obj
 0001:00018644       ?und_strlen@@YAIPBD@Z      10019644 f   LIBCMT:undname.obj
 0001:00018652       ?und_strncpy@@YAPADPADPBDI@Z 10019652 f   LIBCMT:undname.obj
 0001:00018672       ?und_strncmp@@YAIPBD0I@Z   10019672 f   LIBCMT:undname.obj
 0001:0001d1f4       __unwind_handler           1001e1f4 f   LIBCMT:exsup.obj
 0001:0001d343       _ctrlevent_capture@4       1001e343 f   LIBCMT:winsig.obj
 0001:0001d3de       _siglookup                 1001e3de f   LIBCMT:winsig.obj
 0001:0001d936       ___crtInitCritSecNoSpinCount@8 1001e936 f   LIBCMT:initcrit.obj
 0001:0001ddfc       ?x_ismbbtype_l@@YAHPAUlocaleinfo_struct@@IHH@Z 1001edfc f   LIBCMT:ismbbyte.obj
 0001:0001e0e8       __unwind_handler4          1001f0e8 f   LIBCMT:exsup4.obj
 0001:0001e1ab       _has_osfxsr_set            1001f1ab f   LIBCMT:cpu_disp.obj
 0001:0001e59f       ?__crtGetLocaleInfoW_stat@@YAHPAUlocaleinfo_struct@@KKPA_WHH@Z 1001f59f f   LIBCMT:w_loc.obj
 0001:0001e715       ?__crtGetLocaleInfoA_stat@@YAHPAUlocaleinfo_struct@@KKPADHH@Z 1001f715 f   LIBCMT:a_loc.obj
 0001:0001efd5       _write_char                1001ffd5 f   LIBCMT:outputp.obj
 0001:0001f008       _write_multi_char          10020008 f   LIBCMT:outputp.obj
 0001:0001f02c       _write_string              1002002c f   LIBCMT:outputp.obj
 0001:0002000e       _write_char                1002100e f   LIBCMT:outputs.obj
 0001:00020041       _write_multi_char          10021041 f   LIBCMT:outputs.obj
 0001:00020065       _write_string              10021065 f   LIBCMT:outputs.obj
 0001:0002199b       ?__crtGetStringTypeA_stat@@YAHPAUlocaleinfo_struct@@KPBDHPAGHHH@Z 1002299b f   LIBCMT:a_str.obj
 0001:00021bc2       __get_lc_time              10022bc2 f   LIBCMT:inittime.obj
 0001:000221de       _fix_grouping              100231de f   LIBCMT:initnum.obj
 0001:00022419       _fix_grouping              10023419 f   LIBCMT:initmon.obj
 0001:0002314e       ?_store_str@@YAXPADPAPADPAI@Z 1002414e f   LIBCMT:strftime.obj
 0001:0002316e       ?_store_number@@YAXHPAPADPAI@Z 1002416e f   LIBCMT:strftime.obj
 0001:000231a4       ?_store_num@@YAXHHPAPADPAII@Z 100241a4 f   LIBCMT:strftime.obj
 0001:0002321d       ?_expandtime@@YAHPAUlocaleinfo_struct@@DPBUtm@@PAPADPAIPAU__lc_time_data@@I@Z 1002421d f   LIBCMT:strftime.obj
 0001:00023603       ?_store_winword@@YAHPAUlocaleinfo_struct@@HPBUtm@@PAPADPAIPAU__lc_time_data@@@Z 10024603 f   LIBCMT:strftime.obj
 0001:00023cd6       _TranslateName             10024cd6 f   LIBCMT:getqloc.obj
 0001:00023d36       _GetLcidFromDefault        10024d36 f   LIBCMT:getqloc.obj
 0001:00023d4a       _ProcessCodePage           10024d4a f   LIBCMT:getqloc.obj
 0001:00023dc1       _TestDefaultCountry        10024dc1 f   LIBCMT:getqloc.obj
 0001:00023ddf       _LcidFromHexString         10024ddf f   LIBCMT:getqloc.obj
 0001:00023e11       _GetPrimaryLen             10024e11 f   LIBCMT:getqloc.obj
 0001:00023e2c       _CountryEnumProc@4         10024e2c f   LIBCMT:getqloc.obj
 0001:00023ec2       _TestDefaultLanguage       10024ec2 f   LIBCMT:getqloc.obj
 0001:00023f34       _LangCountryEnumProc@4     10024f34 f   LIBCMT:getqloc.obj
 0001:00024104       _LanguageEnumProc@4        10025104 f   LIBCMT:getqloc.obj
 0001:000241c3       _GetLcidFromCountry        100251c3 f   LIBCMT:getqloc.obj
 0001:000241ef       _GetLcidFromLangCountry    100251ef f   LIBCMT:getqloc.obj
 0001:00024254       _GetLcidFromLanguage       10025254 f   LIBCMT:getqloc.obj
 0001:00024473       _cmpResult                 10025473 f   LIBCMT:memcmp.obj
 0001:00024485       _cmpBYTE                   10025485 f   LIBCMT:memcmp.obj
 0001:0002449d       _cmpWORD                   1002549d f   LIBCMT:memcmp.obj
 0001:000244dd       _cmpDWORD                  100254dd f   LIBCMT:memcmp.obj
 0001:00024555       _unaligned_memcmp          10025555 f   LIBCMT:memcmp.obj
 0001:00027880       __tzset_nolock             10028880 f   LIBCMT:tzset.obj
 0001:00027bc9       _cvtdate                   10028bc9 f   LIBCMT:tzset.obj
 0001:00027dbe       __isindst_nolock           10028dbe f   LIBCMT:tzset.obj
 0001:000282d8       _xtoa_s@20                 100292d8 f   LIBCMT:xtoas.obj
 0001:00028418       @x64toa_s@24               10029418 f   LIBCMT:xtoas.obj
 0001:0002855e       ?__crtGetStringTypeW_stat@@YAHPAUlocaleinfo_struct@@KPB_WHPAGHH@Z 1002955e f   LIBCMT:w_str.obj
 0001:00028841       __getenv_s_helper          10029841 f   LIBCMT:getenv.obj
 0001:000288d4       __dupenv_s_helper          100298d4 f   LIBCMT:getenv.obj
 0001:00028f13       ?strncnt@@YAHPBDH@Z        10029f13 f   LIBCMT:a_cmp.obj
 0001:00028f2d       ?__crtCompareStringA_stat@@YAHPAUlocaleinfo_struct@@KKPBDH1HH@Z 10029f2d f   LIBCMT:a_cmp.obj
 0001:00029415       _findenv                   1002a415 f   LIBCMT:setenv.obj
 0001:00029462       _copy_environ              1002a462 f   LIBCMT:setenv.obj
 0001:00029de0       _tidy_global               1002ade0 f   libcpmt:locale0.obj
 0001:0002a7c0       __unwindfunclet$??1CGameClient@@UAE@XZ$0 1002b7c0 f   ClientStage.obj
 0001:0002a7e7       __unwindfunclet$??1CGameClient@@UAE@XZ$1 1002b7e7 f   ClientStage.obj
 0001:0002a7f5       __unwindfunclet$??1CGameClient@@UAE@XZ$2 1002b7f5 f   ClientStage.obj
 0001:0002a803       __ehhandler$??1CGameClient@@UAE@XZ 1002b803 f   ClientStage.obj
 0001:0002a820       __unwindfunclet$??0CGameClient@@QAE@IIII@Z$0 1002b820 f   ClientStage.obj
 0001:0002a82b       __unwindfunclet$??0CGameClient@@QAE@IIII@Z$1 1002b82b f   ClientStage.obj
 0001:0002a839       __unwindfunclet$??0CGameClient@@QAE@IIII@Z$2 1002b839 f   ClientStage.obj
 0001:0002a847       __ehhandler$??0CGameClient@@QAE@IIII@Z 1002b847 f   ClientStage.obj
 0001:0002a870       __unwindfunclet$?CreateClientInterface@CClientFactory@@UAGJABU_GUID@@PAPAX@Z$0 1002b870 f   ClientStage.obj
 0001:0002a87b       __ehhandler$?CreateClientInterface@CClientFactory@@UAGJABU_GUID@@PAPAX@Z 1002b87b f   ClientStage.obj
 0001:0002a8a0       __ehhandler$?_Copy@?$basic_string@DU?$char_traits@D@std@@V?$allocator@D@2@@std@@IAEXII@Z 1002b8a0 f   ClientStage.obj
 0001:0002a8c0       __unwindfunclet$??$?HDU?$char_traits@D@std@@V?$allocator@D@1@@std@@YA?AV?$basic_string@DU?$char_traits@D@std@@V?$allocator@D@2@@0@PBDABV10@@Z$0 1002b8c0 f   ClientStage.obj
 0001:0002a8c8       __ehhandler$??$?HDU?$char_traits@D@std@@V?$allocator@D@1@@std@@YA?AV?$basic_string@DU?$char_traits@D@std@@V?$allocator@D@2@@0@PBDABV10@@Z 1002b8c8 f   ClientStage.obj
 0001:0002a8f0       __unwindfunclet$??$?HDU?$char_traits@D@std@@V?$allocator@D@1@@std@@YA?AV?$basic_string@DU?$char_traits@D@std@@V?$allocator@D@2@@0@ABV10@PBD@Z$0 1002b8f0 f   ClientStage.obj
 0001:0002a8f8       __ehhandler$??$?HDU?$char_traits@D@std@@V?$allocator@D@1@@std@@YA?AV?$basic_string@DU?$char_traits@D@std@@V?$allocator@D@2@@0@ABV10@PBD@Z 1002b8f8 f   ClientStage.obj
 0001:0002a920       __unwindfunclet$??$?HDU?$char_traits@D@std@@V?$allocator@D@1@@std@@YA?AV?$basic_string@DU?$char_traits@D@std@@V?$allocator@D@2@@0@ABV10@0@Z$0 1002b920 f   ClientStage.obj
 0001:0002a928       __ehhandler$??$?HDU?$char_traits@D@std@@V?$allocator@D@1@@std@@YA?AV?$basic_string@DU?$char_traits@D@std@@V?$allocator@D@2@@0@ABV10@0@Z 1002b928 f   ClientStage.obj
 0001:0002a950       __unwindfunclet$?Startup@CGameClient@@UAGJXZ$3 1002b950 f   ClientStage.obj
 0001:0002a958       __unwindfunclet$?Startup@CGameClient@@UAGJXZ$4 1002b958 f   ClientStage.obj
 0001:0002a960       __unwindfunclet$?Startup@CGameClient@@UAGJXZ$5 1002b960 f   ClientStage.obj
 0001:0002a968       __unwindfunclet$?Startup@CGameClient@@UAGJXZ$6 1002b968 f   ClientStage.obj
 0001:0002a970       __unwindfunclet$?Startup@CGameClient@@UAGJXZ$7 1002b970 f   ClientStage.obj
 0001:0002a978       __unwindfunclet$?Startup@CGameClient@@UAGJXZ$8 1002b978 f   ClientStage.obj
 0001:0002a980       __ehhandler$?Startup@CGameClient@@UAGJXZ 1002b980 f   ClientStage.obj
 0001:0002a9a0       __unwindfunclet$?Cleanup@CGameClient@@UAGJXZ$3 1002b9a0 f   ClientStage.obj
 0001:0002a9a8       __unwindfunclet$?Cleanup@CGameClient@@UAGJXZ$4 1002b9a8 f   ClientStage.obj
 0001:0002a9b0       __unwindfunclet$?Cleanup@CGameClient@@UAGJXZ$5 1002b9b0 f   ClientStage.obj
 0001:0002a9b8       __unwindfunclet$?Cleanup@CGameClient@@UAGJXZ$6 1002b9b8 f   ClientStage.obj
 0001:0002a9c0       __unwindfunclet$?Cleanup@CGameClient@@UAGJXZ$7 1002b9c0 f   ClientStage.obj
 0001:0002a9c8       __unwindfunclet$?Cleanup@CGameClient@@UAGJXZ$8 1002b9c8 f   ClientStage.obj
 0001:0002a9d0       __ehhandler$?Cleanup@CGameClient@@UAGJXZ 1002b9d0 f   ClientStage.obj
 0001:0002a9f0       __unwindfunclet$?ConnectTo@CGameClient@@UAGJABQBDG@Z$3 1002b9f0 f   ClientStage.obj
 0001:0002a9f8       __unwindfunclet$?ConnectTo@CGameClient@@UAGJABQBDG@Z$4 1002b9f8 f   ClientStage.obj
 0001:0002aa00       __unwindfunclet$?ConnectTo@CGameClient@@UAGJABQBDG@Z$5 1002ba00 f   ClientStage.obj
 0001:0002aa08       __unwindfunclet$?ConnectTo@CGameClient@@UAGJABQBDG@Z$6 1002ba08 f   ClientStage.obj
 0001:0002aa10       __unwindfunclet$?ConnectTo@CGameClient@@UAGJABQBDG@Z$7 1002ba10 f   ClientStage.obj
 0001:0002aa18       __unwindfunclet$?ConnectTo@CGameClient@@UAGJABQBDG@Z$8 1002ba18 f   ClientStage.obj
 0001:0002aa20       __unwindfunclet$?ConnectTo@CGameClient@@UAGJABQBDG@Z$9 1002ba20 f   ClientStage.obj
 0001:0002aa28       __ehhandler$?ConnectTo@CGameClient@@UAGJABQBDG@Z 1002ba28 f   ClientStage.obj
 0001:0002aa50       __unwindfunclet$?ProcessDataStream@CGameClient@@IAEPAVCIOBuffer@Win32@OnlineGameLib@@PAV234@@Z$0 1002ba50 f   ClientStage.obj
 0001:0002aa58       __unwindfunclet$?ProcessDataStream@CGameClient@@IAEPAVCIOBuffer@Win32@OnlineGameLib@@PAV234@@Z$1 1002ba58 f   ClientStage.obj
 0001:0002aa60       __unwindfunclet$?ProcessDataStream@CGameClient@@IAEPAVCIOBuffer@Win32@OnlineGameLib@@PAV234@@Z$2 1002ba60 f   ClientStage.obj
 0001:0002aa68       __unwindfunclet$?ProcessDataStream@CGameClient@@IAEPAVCIOBuffer@Win32@OnlineGameLib@@PAV234@@Z$3 1002ba68 f   ClientStage.obj
 0001:0002aa70       __ehhandler$?ProcessDataStream@CGameClient@@IAEPAVCIOBuffer@Win32@OnlineGameLib@@PAV234@@Z 1002ba70 f   ClientStage.obj
 0001:0002aa90       __unwindfunclet$?ReadCompleted@CGameClient@@EAEXPAVCIOBuffer@Win32@OnlineGameLib@@@Z$3 1002ba90 f   ClientStage.obj
 0001:0002aa98       __unwindfunclet$?ReadCompleted@CGameClient@@EAEXPAVCIOBuffer@Win32@OnlineGameLib@@@Z$4 1002ba98 f   ClientStage.obj
 0001:0002aaa0       __unwindfunclet$?ReadCompleted@CGameClient@@EAEXPAVCIOBuffer@Win32@OnlineGameLib@@@Z$5 1002baa0 f   ClientStage.obj
 0001:0002aaa8       __unwindfunclet$?ReadCompleted@CGameClient@@EAEXPAVCIOBuffer@Win32@OnlineGameLib@@@Z$6 1002baa8 f   ClientStage.obj
 0001:0002aab0       __unwindfunclet$?ReadCompleted@CGameClient@@EAEXPAVCIOBuffer@Win32@OnlineGameLib@@@Z$7 1002bab0 f   ClientStage.obj
 0001:0002aab8       __unwindfunclet$?ReadCompleted@CGameClient@@EAEXPAVCIOBuffer@Win32@OnlineGameLib@@@Z$8 1002bab8 f   ClientStage.obj
 0001:0002aac0       __unwindfunclet$?ReadCompleted@CGameClient@@EAEXPAVCIOBuffer@Win32@OnlineGameLib@@@Z$9 1002bac0 f   ClientStage.obj
 0001:0002aac8       __ehhandler$?ReadCompleted@CGameClient@@EAEXPAVCIOBuffer@Win32@OnlineGameLib@@@Z 1002bac8 f   ClientStage.obj
 0001:0002aaf0       __unwindfunclet$?GetPackFromServer@CGameClient@@UAGPBXAAI@Z$0 1002baf0 f   ClientStage.obj
 0001:0002aaf8       __ehhandler$?GetPackFromServer@CGameClient@@UAGPBXAAI@Z 1002baf8 f   ClientStage.obj
 0001:0002ab20       __unwindfunclet$??0CSocketClient@Win32@OnlineGameLib@@IAE@II@Z$0 1002bb20 f   common:SocketClient.obj
 0001:0002ab28       __unwindfunclet$??0CSocketClient@Win32@OnlineGameLib@@IAE@II@Z$1 1002bb28 f   common:SocketClient.obj
 0001:0002ab33       __unwindfunclet$??0CSocketClient@Win32@OnlineGameLib@@IAE@II@Z$2 1002bb33 f   common:SocketClient.obj
 0001:0002ab3e       __unwindfunclet$??0CSocketClient@Win32@OnlineGameLib@@IAE@II@Z$3 1002bb3e f   common:SocketClient.obj
 0001:0002ab4c       __unwindfunclet$??0CSocketClient@Win32@OnlineGameLib@@IAE@II@Z$4 1002bb4c f   common:SocketClient.obj
 0001:0002ab5a       __ehhandler$??0CSocketClient@Win32@OnlineGameLib@@IAE@II@Z 1002bb5a f   common:SocketClient.obj
 0001:0002ab80       __unwindfunclet$??0CSocketClient@Win32@OnlineGameLib@@IAE@ABV?$basic_string@DU?$char_traits@D@std@@V?$allocator@D@2@@std@@GII@Z$0 1002bb80 f   common:SocketClient.obj
 0001:0002ab88       __unwindfunclet$??0CSocketClient@Win32@OnlineGameLib@@IAE@ABV?$basic_string@DU?$char_traits@D@std@@V?$allocator@D@2@@std@@GII@Z$1 1002bb88 f   common:SocketClient.obj
 0001:0002ab93       __unwindfunclet$??0CSocketClient@Win32@OnlineGameLib@@IAE@ABV?$basic_string@DU?$char_traits@D@std@@V?$allocator@D@2@@std@@GII@Z$2 1002bb93 f   common:SocketClient.obj
 0001:0002ab9e       __unwindfunclet$??0CSocketClient@Win32@OnlineGameLib@@IAE@ABV?$basic_string@DU?$char_traits@D@std@@V?$allocator@D@2@@std@@GII@Z$3 1002bb9e f   common:SocketClient.obj
 0001:0002abac       __unwindfunclet$??0CSocketClient@Win32@OnlineGameLib@@IAE@ABV?$basic_string@DU?$char_traits@D@std@@V?$allocator@D@2@@std@@GII@Z$4 1002bbac f   common:SocketClient.obj
 0001:0002abba       __unwindfunclet$??0CSocketClient@Win32@OnlineGameLib@@IAE@ABV?$basic_string@DU?$char_traits@D@std@@V?$allocator@D@2@@std@@GII@Z$5 1002bbba f   common:SocketClient.obj
 0001:0002abc8       __unwindfunclet$??0CSocketClient@Win32@OnlineGameLib@@IAE@ABV?$basic_string@DU?$char_traits@D@std@@V?$allocator@D@2@@std@@GII@Z$6 1002bbc8 f   common:SocketClient.obj
 0001:0002abd6       __ehhandler$??0CSocketClient@Win32@OnlineGameLib@@IAE@ABV?$basic_string@DU?$char_traits@D@std@@V?$allocator@D@2@@std@@GII@Z 1002bbd6 f   common:SocketClient.obj
 0001:0002ac00       __unwindfunclet$?StopConnections@CSocketClient@Win32@OnlineGameLib@@QAEXXZ$0 1002bc00 f   common:SocketClient.obj
 0001:0002ac08       __unwindfunclet$?StopConnections@CSocketClient@Win32@OnlineGameLib@@QAEXXZ$1 1002bc08 f   common:SocketClient.obj
 0001:0002ac10       __unwindfunclet$?StopConnections@CSocketClient@Win32@OnlineGameLib@@QAEXXZ$2 1002bc10 f   common:SocketClient.obj
 0001:0002ac18       __unwindfunclet$?StopConnections@CSocketClient@Win32@OnlineGameLib@@QAEXXZ$3 1002bc18 f   common:SocketClient.obj
 0001:0002ac20       __unwindfunclet$?StopConnections@CSocketClient@Win32@OnlineGameLib@@QAEXXZ$4 1002bc20 f   common:SocketClient.obj
 0001:0002ac28       __ehhandler$?StopConnections@CSocketClient@Win32@OnlineGameLib@@QAEXXZ 1002bc28 f   common:SocketClient.obj
 0001:0002ac50       __unwindfunclet$?CreateConnectionSocket@CSocketClient@Win32@OnlineGameLib@@EAEIABV?$basic_string@DU?$char_traits@D@std@@V?$allocator@D@2@@std@@G@Z$0 1002bc50 f   common:SocketClient.obj
 0001:0002ac58       __unwindfunclet$?CreateConnectionSocket@CSocketClient@Win32@OnlineGameLib@@EAEIABV?$basic_string@DU?$char_traits@D@std@@V?$allocator@D@2@@std@@G@Z$1 1002bc58 f   common:SocketClient.obj
 0001:0002ac60       __ehhandler$?CreateConnectionSocket@CSocketClient@Win32@OnlineGameLib@@EAEIABV?$basic_string@DU?$char_traits@D@std@@V?$allocator@D@2@@std@@G@Z 1002bc60 f   common:SocketClient.obj
 0001:0002ac90       __unwindfunclet$??0CException@Win32@OnlineGameLib@@QAE@ABV012@@Z$0 1002bc90 f   common:SocketClient.obj
 0001:0002ac9b       __ehhandler$??0CException@Win32@OnlineGameLib@@QAE@ABV012@@Z 1002bc9b f   common:SocketClient.obj
 0001:0002acc0       __unwindfunclet$?OnRead@CSocketClient@Win32@OnlineGameLib@@AAEXPAVCIOBuffer@23@@Z$0 1002bcc0 f   common:SocketClient.obj
 0001:0002acc8       __unwindfunclet$?OnRead@CSocketClient@Win32@OnlineGameLib@@AAEXPAVCIOBuffer@23@@Z$1 1002bcc8 f   common:SocketClient.obj
 0001:0002acd0       __ehhandler$?OnRead@CSocketClient@Win32@OnlineGameLib@@AAEXPAVCIOBuffer@23@@Z 1002bcd0 f   common:SocketClient.obj
 0001:0002ad00       __unwindfunclet$?Write@CSocketClient@Win32@OnlineGameLib@@QAEXPAVCIOBuffer@23@@Z$2 1002bd00 f   common:SocketClient.obj
 0001:0002ad08       __unwindfunclet$?Write@CSocketClient@Win32@OnlineGameLib@@QAEXPAVCIOBuffer@23@@Z$3 1002bd08 f   common:SocketClient.obj
 0001:0002ad13       __unwindfunclet$?Write@CSocketClient@Win32@OnlineGameLib@@QAEXPAVCIOBuffer@23@@Z$4 1002bd13 f   common:SocketClient.obj
 0001:0002ad1b       __unwindfunclet$?Write@CSocketClient@Win32@OnlineGameLib@@QAEXPAVCIOBuffer@23@@Z$5 1002bd1b f   common:SocketClient.obj
 0001:0002ad26       __unwindfunclet$?Write@CSocketClient@Win32@OnlineGameLib@@QAEXPAVCIOBuffer@23@@Z$0 1002bd26 f   common:SocketClient.obj
 0001:0002ad2e       __unwindfunclet$?Write@CSocketClient@Win32@OnlineGameLib@@QAEXPAVCIOBuffer@23@@Z$1 1002bd2e f   common:SocketClient.obj
 0001:0002ad39       __ehhandler$?Write@CSocketClient@Win32@OnlineGameLib@@QAEXPAVCIOBuffer@23@@Z 1002bd39 f   common:SocketClient.obj
 0001:0002ad70       __unwindfunclet$?WaitAndVerifyCipher@CSocketClient@Win32@OnlineGameLib@@IAE_NXZ$0 1002bd70 f   common:SocketClient.obj
 0001:0002ad7b       __unwindfunclet$?WaitAndVerifyCipher@CSocketClient@Win32@OnlineGameLib@@IAE_NXZ$1 1002bd7b f   common:SocketClient.obj
 0001:0002ad86       __unwindfunclet$?WaitAndVerifyCipher@CSocketClient@Win32@OnlineGameLib@@IAE_NXZ$2 1002bd86 f   common:SocketClient.obj
 0001:0002ad91       __ehhandler$?WaitAndVerifyCipher@CSocketClient@Win32@OnlineGameLib@@IAE_NXZ 1002bd91 f   common:SocketClient.obj
 0001:0002adc0       __unwindfunclet$??1CSocketClient@Win32@OnlineGameLib@@UAE@XZ$2 1002bdc0 f   common:SocketClient.obj
 0001:0002adc8       __unwindfunclet$??1CSocketClient@Win32@OnlineGameLib@@UAE@XZ$3 1002bdc8 f   common:SocketClient.obj
 0001:0002adef       __unwindfunclet$??1CSocketClient@Win32@OnlineGameLib@@UAE@XZ$4 1002bdef f   common:SocketClient.obj
 0001:0002ae16       __unwindfunclet$??1CSocketClient@Win32@OnlineGameLib@@UAE@XZ$5 1002be16 f   common:SocketClient.obj
 0001:0002ae24       __unwindfunclet$??1CSocketClient@Win32@OnlineGameLib@@UAE@XZ$6 1002be24 f   common:SocketClient.obj
 0001:0002ae32       __unwindfunclet$??1CSocketClient@Win32@OnlineGameLib@@UAE@XZ$7 1002be32 f   common:SocketClient.obj
 0001:0002ae40       __unwindfunclet$??1CSocketClient@Win32@OnlineGameLib@@UAE@XZ$8 1002be40 f   common:SocketClient.obj
 0001:0002ae4e       __unwindfunclet$??1CSocketClient@Win32@OnlineGameLib@@UAE@XZ$9 1002be4e f   common:SocketClient.obj
 0001:0002ae5c       __ehhandler$??1CSocketClient@Win32@OnlineGameLib@@UAE@XZ 1002be5c f   common:SocketClient.obj
 0001:0002ae80       __unwindfunclet$?StartConnections@CSocketClient@Win32@OnlineGameLib@@QAE_NXZ$0 1002be80 f   common:SocketClient.obj
 0001:0002ae88       __ehhandler$?StartConnections@CSocketClient@Win32@OnlineGameLib@@QAE_NXZ 1002be88 f   common:SocketClient.obj
 0001:0002aeb0       __unwindfunclet$?Run@CSocketClient@Win32@OnlineGameLib@@MAEHXZ$3 1002beb0 f   common:SocketClient.obj
 0001:0002aeb8       __unwindfunclet$?Run@CSocketClient@Win32@OnlineGameLib@@MAEHXZ$4 1002beb8 f   common:SocketClient.obj
 0001:0002aec0       __unwindfunclet$?Run@CSocketClient@Win32@OnlineGameLib@@MAEHXZ$5 1002bec0 f   common:SocketClient.obj
 0001:0002aec8       __unwindfunclet$?Run@CSocketClient@Win32@OnlineGameLib@@MAEHXZ$6 1002bec8 f   common:SocketClient.obj
 0001:0002aed0       __unwindfunclet$?Run@CSocketClient@Win32@OnlineGameLib@@MAEHXZ$7 1002bed0 f   common:SocketClient.obj
 0001:0002aed8       __unwindfunclet$?Run@CSocketClient@Win32@OnlineGameLib@@MAEHXZ$8 1002bed8 f   common:SocketClient.obj
 0001:0002aee0       __unwindfunclet$?Run@CSocketClient@Win32@OnlineGameLib@@MAEHXZ$9 1002bee0 f   common:SocketClient.obj
 0001:0002aee8       __unwindfunclet$?Run@CSocketClient@Win32@OnlineGameLib@@MAEHXZ$11 1002bee8 f   common:SocketClient.obj
 0001:0002aef0       __ehhandler$?Run@CSocketClient@Win32@OnlineGameLib@@MAEHXZ 1002bef0 f   common:SocketClient.obj
 0001:0002af20       __unwindfunclet$??0CIOBuffer@Win32@OnlineGameLib@@AAE@AAVAllocator@012@I@Z$0 1002bf20 f   common:IOBuffer.obj
 0001:0002af2b       __unwindfunclet$??0CIOBuffer@Win32@OnlineGameLib@@AAE@AAVAllocator@012@I@Z$1 1002bf2b f   common:IOBuffer.obj
 0001:0002af36       __ehhandler$??0CIOBuffer@Win32@OnlineGameLib@@AAE@AAVAllocator@012@I@Z 1002bf36 f   common:IOBuffer.obj
 0001:0002af60       __ehhandler$?DestroyBuffer@Allocator@CIOBuffer@Win32@OnlineGameLib@@AAEXPAV234@@Z 1002bf60 f   common:IOBuffer.obj
 0001:0002af80       __unwindfunclet$?Flush@Allocator@CIOBuffer@Win32@OnlineGameLib@@IAEXXZ$0 1002bf80 f   common:IOBuffer.obj
 0001:0002af88       __ehhandler$?Flush@Allocator@CIOBuffer@Win32@OnlineGameLib@@IAEXXZ 1002bf88 f   common:IOBuffer.obj
 0001:0002afb0       __unwindfunclet$??1Allocator@CIOBuffer@Win32@OnlineGameLib@@UAE@XZ$2 1002bfb0 f   common:IOBuffer.obj
 0001:0002afbb       __ehhandler$??1Allocator@CIOBuffer@Win32@OnlineGameLib@@UAE@XZ 1002bfbb f   common:IOBuffer.obj
 0001:0002afe0       __unwindfunclet$??0logic_error@std@@QAE@ABV?$basic_string@DU?$char_traits@D@std@@V?$allocator@D@2@@1@@Z$0 1002bfe0 f   common:IOBuffer.obj
 0001:0002afe8       __ehhandler$??0logic_error@std@@QAE@ABV?$basic_string@DU?$char_traits@D@std@@V?$allocator@D@2@@1@@Z 1002bfe8 f   common:IOBuffer.obj
 0001:0002b010       __unwindfunclet$?erase@?$_Tree@V?$_Tmap_traits@IPAVCIOBuffer@Win32@OnlineGameLib@@U?$less@I@std@@V?$allocator@U?$pair@$$CBIPAVCIOBuffer@Win32@OnlineGameLib@@@std@@@5@$0A@@std@@@std@@QAE?AViterator@12@V312@@Z$0 1002c010 f   common:IOBuffer.obj
 0001:0002b018       __ehhandler$?erase@?$_Tree@V?$_Tmap_traits@IPAVCIOBuffer@Win32@OnlineGameLib@@U?$less@I@std@@V?$allocator@U?$pair@$$CBIPAVCIOBuffer@Win32@OnlineGameLib@@@std@@@5@$0A@@std@@@std@@QAE?AViterator@12@V312@@Z 1002c018 f   common:IOBuffer.obj
 0001:0002b040       __unwindfunclet$??0logic_error@std@@QAE@ABV01@@Z$0 1002c040 f   common:IOBuffer.obj
 0001:0002b048       __ehhandler$??0logic_error@std@@QAE@ABV01@@Z 1002c048 f   common:IOBuffer.obj
 0001:0002b070       __unwindfunclet$?_Insert@?$_Tree@V?$_Tmap_traits@IPAVCIOBuffer@Win32@OnlineGameLib@@U?$less@I@std@@V?$allocator@U?$pair@$$CBIPAVCIOBuffer@Win32@OnlineGameLib@@@std@@@5@$0A@@std@@@std@@IAE?AViterator@12@_NPAU_Node@?$_Tree_nod@V?$_Tmap_traits@IPAVCIOBuffer@Win32@OnlineGameLib@@U?$less@I@std@@V?$allocator@U?$pair@$$CBIPAVCIOBuffer@Win32@OnlineGameLib@@@std@@@5@$0A@@std@@@2@ABU?$pair@$$CBIPAVCIOBuffer@Win32@OnlineGameLib@@@2@@Z$0 1002c070 f   common:IOBuffer.obj
 0001:0002b078       __ehhandler$?_Insert@?$_Tree@V?$_Tmap_traits@IPAVCIOBuffer@Win32@OnlineGameLib@@U?$less@I@std@@V?$allocator@U?$pair@$$CBIPAVCIOBuffer@Win32@OnlineGameLib@@@std@@@5@$0A@@std@@@std@@IAE?AViterator@12@_NPAU_Node@?$_Tree_nod@V?$_Tmap_traits@IPAVCIOBuffer@Win32@OnlineGameLib@@U?$less@I@std@@V?$allocator@U?$pair@$$CBIPAVCIOBuffer@Win32@OnlineGameLib@@@std@@@5@$0A@@std@@@2@ABU?$pair@$$CBIPAVCIOBuffer@Win32@OnlineGameLib@@@2@@Z 1002c078 f   common:IOBuffer.obj
 0001:0002b0a0       __unwindfunclet$?AddData@CIOBuffer@Win32@OnlineGameLib@@QAEXQBDI@Z$0 1002c0a0 f   common:IOBuffer.obj
 0001:0002b0a8       __unwindfunclet$?AddData@CIOBuffer@Win32@OnlineGameLib@@QAEXQBDI@Z$1 1002c0a8 f   common:IOBuffer.obj
 0001:0002b0b0       __ehhandler$?AddData@CIOBuffer@Win32@OnlineGameLib@@QAEXQBDI@Z 1002c0b0 f   common:IOBuffer.obj
 0001:0002b0d0       __unwindfunclet$?Allocate@Allocator@CIOBuffer@Win32@OnlineGameLib@@QAEPAV234@XZ$0 1002c0d0 f   common:IOBuffer.obj
 0001:0002b0db       __unwindfunclet$?Allocate@Allocator@CIOBuffer@Win32@OnlineGameLib@@QAEPAV234@XZ$1 1002c0db f   common:IOBuffer.obj
 0001:0002b0f5       __unwindfunclet$?Allocate@Allocator@CIOBuffer@Win32@OnlineGameLib@@QAEPAV234@XZ$2 1002c0f5 f   common:IOBuffer.obj
 0001:0002b0fd       __unwindfunclet$?Allocate@Allocator@CIOBuffer@Win32@OnlineGameLib@@QAEPAV234@XZ$3 1002c0fd f   common:IOBuffer.obj
 0001:0002b105       __ehhandler$?Allocate@Allocator@CIOBuffer@Win32@OnlineGameLib@@QAEPAV234@XZ 1002c105 f   common:IOBuffer.obj
 0001:0002b130       __unwindfunclet$?Release@Allocator@CIOBuffer@Win32@OnlineGameLib@@AAEXPAV234@@Z$0 1002c130 f   common:IOBuffer.obj
 0001:0002b138       __unwindfunclet$?Release@Allocator@CIOBuffer@Win32@OnlineGameLib@@AAEXPAV234@@Z$1 1002c138 f   common:IOBuffer.obj
 0001:0002b140       __unwindfunclet$?Release@Allocator@CIOBuffer@Win32@OnlineGameLib@@AAEXPAV234@@Z$2 1002c140 f   common:IOBuffer.obj
 0001:0002b14b       __ehhandler$?Release@Allocator@CIOBuffer@Win32@OnlineGameLib@@AAEXPAV234@@Z 1002c14b f   common:IOBuffer.obj
 0001:0002b170       __unwindfunclet$?ProcessAndGetNext@InOrderBufferList@CIOBuffer@Win32@OnlineGameLib@@QAEPAV234@XZ$0 1002c170 f   common:IOBuffer.obj
 0001:0002b178       __ehhandler$?ProcessAndGetNext@InOrderBufferList@CIOBuffer@Win32@OnlineGameLib@@QAEPAV234@XZ 1002c178 f   common:IOBuffer.obj
 0001:0002b1a0       __unwindfunclet$?GetNext@InOrderBufferList@CIOBuffer@Win32@OnlineGameLib@@QAEPAV234@XZ$0 1002c1a0 f   common:IOBuffer.obj
 0001:0002b1a8       __ehhandler$?GetNext@InOrderBufferList@CIOBuffer@Win32@OnlineGameLib@@QAEPAV234@XZ 1002c1a8 f   common:IOBuffer.obj
 0001:0002b1d0       __unwindfunclet$?Release@CIOBuffer@Win32@OnlineGameLib@@QAEXXZ$0 1002c1d0 f   common:IOBuffer.obj
 0001:0002b1d8       __unwindfunclet$?Release@CIOBuffer@Win32@OnlineGameLib@@QAEXXZ$1 1002c1d8 f   common:IOBuffer.obj
 0001:0002b1e0       __ehhandler$?Release@CIOBuffer@Win32@OnlineGameLib@@QAEXXZ 1002c1e0 f   common:IOBuffer.obj
 0001:0002b200       __unwindfunclet$?AddBuffer@InOrderBufferList@CIOBuffer@Win32@OnlineGameLib@@QAEXPAV234@@Z$0 1002c200 f   common:IOBuffer.obj
 0001:0002b208       __ehhandler$?AddBuffer@InOrderBufferList@CIOBuffer@Win32@OnlineGameLib@@QAEXPAV234@@Z 1002c208 f   common:IOBuffer.obj
 0001:0002b230       __unwindfunclet$?GetNext@InOrderBufferList@CIOBuffer@Win32@OnlineGameLib@@QAEPAV234@PAV234@@Z$0 1002c230 f   common:IOBuffer.obj
 0001:0002b238       __ehhandler$?GetNext@InOrderBufferList@CIOBuffer@Win32@OnlineGameLib@@QAEPAV234@PAV234@@Z 1002c238 f   common:IOBuffer.obj
 0001:0002b260       __unwindfunclet$??0?$basic_ostream@DU?$char_traits@D@std@@@std@@QAE@W4_Uninitialized@1@_N@Z$0 1002c260 f   common:Utils.obj
 0001:0002b27c       __ehhandler$??0?$basic_ostream@DU?$char_traits@D@std@@@std@@QAE@W4_Uninitialized@1@_N@Z 1002c27c f   common:Utils.obj
 0001:0002b2a0       __unwindfunclet$??0?$basic_streambuf@DU?$char_traits@D@std@@@std@@IAE@XZ$0 1002c2a0 f   common:Utils.obj
 0001:0002b2ab       __ehhandler$??0?$basic_streambuf@DU?$char_traits@D@std@@@std@@IAE@XZ 1002c2ab f   common:Utils.obj
 0001:0002b2d0       __unwindfunclet$??1_Locinfo@std@@QAE@XZ$0 1002c2d0 f   common:Utils.obj
 0001:0002b2d8       __unwindfunclet$??1_Locinfo@std@@QAE@XZ$1 1002c2d8 f   common:Utils.obj
 0001:0002b2e3       __unwindfunclet$??1_Locinfo@std@@QAE@XZ$2 1002c2e3 f   common:Utils.obj
 0001:0002b2ee       __unwindfunclet$??1_Locinfo@std@@QAE@XZ$3 1002c2ee f   common:Utils.obj
 0001:0002b2f9       __unwindfunclet$??1_Locinfo@std@@QAE@XZ$4 1002c2f9 f   common:Utils.obj
 0001:0002b304       __ehhandler$??1_Locinfo@std@@QAE@XZ 1002c304 f   common:Utils.obj
 0001:0002b320       __unwindfunclet$?uflow@?$basic_filebuf@DU?$char_traits@D@std@@@std@@MAEHXZ$0 1002c320 f   common:Utils.obj
 0001:0002b328       __ehhandler$?uflow@?$basic_filebuf@DU?$char_traits@D@std@@@std@@MAEHXZ 1002c328 f   common:Utils.obj
 0001:0002b350       __unwindfunclet$?_Endwrite@?$basic_filebuf@DU?$char_traits@D@std@@@std@@IAE_NXZ$0 1002c350 f   common:Utils.obj
 0001:0002b358       __ehhandler$?_Endwrite@?$basic_filebuf@DU?$char_traits@D@std@@@std@@IAE_NXZ 1002c358 f   common:Utils.obj
 0001:0002b380       __unwindfunclet$??0runtime_error@std@@QAE@ABV?$basic_string@DU?$char_traits@D@std@@V?$allocator@D@2@@1@@Z$0 1002c380 f   common:Utils.obj
 0001:0002b388       __ehhandler$??0runtime_error@std@@QAE@ABV?$basic_string@DU?$char_traits@D@std@@V?$allocator@D@2@@1@@Z 1002c388 f   common:Utils.obj
 0001:0002b3b0       __unwindfunclet$?HexToString@Win32@OnlineGameLib@@YA?AV?$basic_string@DU?$char_traits@D@std@@V?$allocator@D@2@@std@@PBEI@Z$0 1002c3b0 f   common:Utils.obj
 0001:0002b3c9       __ehhandler$?HexToString@Win32@OnlineGameLib@@YA?AV?$basic_string@DU?$char_traits@D@std@@V?$allocator@D@2@@std@@PBEI@Z 1002c3c9 f   common:Utils.obj
 0001:0002b3f0       __unwindfunclet$?overflow@?$basic_filebuf@DU?$char_traits@D@std@@@std@@MAEHH@Z$0 1002c3f0 f   common:Utils.obj
 0001:0002b3f8       __ehhandler$?overflow@?$basic_filebuf@DU?$char_traits@D@std@@@std@@MAEHH@Z 1002c3f8 f   common:Utils.obj
 0001:0002b420       __unwindfunclet$??0_Locinfo@std@@QAE@PBD@Z$0 1002c420 f   common:Utils.obj
 0001:0002b428       __unwindfunclet$??0_Locinfo@std@@QAE@PBD@Z$1 1002c428 f   common:Utils.obj
 0001:0002b433       __unwindfunclet$??0_Locinfo@std@@QAE@PBD@Z$2 1002c433 f   common:Utils.obj
 0001:0002b43e       __unwindfunclet$??0_Locinfo@std@@QAE@PBD@Z$3 1002c43e f   common:Utils.obj
 0001:0002b449       __unwindfunclet$??0_Locinfo@std@@QAE@PBD@Z$4 1002c449 f   common:Utils.obj
 0001:0002b454       __unwindfunclet$??0_Locinfo@std@@QAE@PBD@Z$5 1002c454 f   common:Utils.obj
 0001:0002b45c       __ehhandler$??0_Locinfo@std@@QAE@PBD@Z 1002c45c f   common:Utils.obj
 0001:0002b480       __unwindfunclet$??0runtime_error@std@@QAE@ABV01@@Z$0 1002c480 f   common:Utils.obj
 0001:0002b488       __ehhandler$??0runtime_error@std@@QAE@ABV01@@Z 1002c488 f   common:Utils.obj
 0001:0002b4b0       __unwindfunclet$??0?$ctype@D@std@@QAE@PBF_NI@Z$0 1002c4b0 f   common:Utils.obj
 0001:0002b4bb       __ehhandler$??0?$ctype@D@std@@QAE@PBF_NI@Z 1002c4bb f   common:Utils.obj
 0001:0002b4f0       __unwindfunclet$?_Getcat@?$ctype@D@std@@SAIPAPBVfacet@locale@2@@Z$0 1002c4f0 f   common:Utils.obj
 0001:0002b4fb       __ehhandler$?_Getcat@?$ctype@D@std@@SAIPAPBVfacet@locale@2@@Z 1002c4fb f   common:Utils.obj
 0001:0002b520       __unwindfunclet$?clear@ios_base@std@@QAEXH_N@Z$0 1002c520 f   common:Utils.obj
 0001:0002b528       __unwindfunclet$?clear@ios_base@std@@QAEXH_N@Z$1 1002c528 f   common:Utils.obj
 0001:0002b530       __unwindfunclet$?clear@ios_base@std@@QAEXH_N@Z$2 1002c530 f   common:Utils.obj
 0001:0002b538       __ehhandler$?clear@ios_base@std@@QAEXH_N@Z 1002c538 f   common:Utils.obj
 0001:0002b560       __unwindfunclet$?GetCurrentDirectoryA@Win32@OnlineGameLib@@YA?AV?$basic_string@DU?$char_traits@D@std@@V?$allocator@D@2@@std@@XZ$0 1002c560 f   common:Utils.obj
 0001:0002b56b       __unwindfunclet$?GetCurrentDirectoryA@Win32@OnlineGameLib@@YA?AV?$basic_string@DU?$char_traits@D@std@@V?$allocator@D@2@@std@@XZ$1 1002c56b f   common:Utils.obj
 0001:0002b573       __unwindfunclet$?GetCurrentDirectoryA@Win32@OnlineGameLib@@YA?AV?$basic_string@DU?$char_traits@D@std@@V?$allocator@D@2@@std@@XZ$2 1002c573 f   common:Utils.obj
 0001:0002b57b       __ehhandler$?GetCurrentDirectoryA@Win32@OnlineGameLib@@YA?AV?$basic_string@DU?$char_traits@D@std@@V?$allocator@D@2@@std@@XZ 1002c57b f   common:Utils.obj
 0001:0002b5a0       __unwindfunclet$?DumpData@Win32@OnlineGameLib@@YA?AV?$basic_string@DU?$char_traits@D@std@@V?$allocator@D@2@@std@@QBEII@Z$0 1002c5a0 f   common:Utils.obj
 0001:0002b5c2       __unwindfunclet$?DumpData@Win32@OnlineGameLib@@YA?AV?$basic_string@DU?$char_traits@D@std@@V?$allocator@D@2@@std@@QBEII@Z$1 1002c5c2 f   common:Utils.obj
 0001:0002b5ca       __unwindfunclet$?DumpData@Win32@OnlineGameLib@@YA?AV?$basic_string@DU?$char_traits@D@std@@V?$allocator@D@2@@std@@QBEII@Z$2 1002c5ca f   common:Utils.obj
 0001:0002b5d2       __unwindfunclet$?DumpData@Win32@OnlineGameLib@@YA?AV?$basic_string@DU?$char_traits@D@std@@V?$allocator@D@2@@std@@QBEII@Z$3 1002c5d2 f   common:Utils.obj
 0001:0002b5da       __unwindfunclet$?DumpData@Win32@OnlineGameLib@@YA?AV?$basic_string@DU?$char_traits@D@std@@V?$allocator@D@2@@std@@QBEII@Z$4 1002c5da f   common:Utils.obj
 0001:0002b5e5       __unwindfunclet$?DumpData@Win32@OnlineGameLib@@YA?AV?$basic_string@DU?$char_traits@D@std@@V?$allocator@D@2@@std@@QBEII@Z$5 1002c5e5 f   common:Utils.obj
 0001:0002b5ed       __unwindfunclet$?DumpData@Win32@OnlineGameLib@@YA?AV?$basic_string@DU?$char_traits@D@std@@V?$allocator@D@2@@std@@QBEII@Z$6 1002c5ed f   common:Utils.obj
 0001:0002b5f5       __unwindfunclet$?DumpData@Win32@OnlineGameLib@@YA?AV?$basic_string@DU?$char_traits@D@std@@V?$allocator@D@2@@std@@QBEII@Z$7 1002c5f5 f   common:Utils.obj
 0001:0002b600       __ehhandler$?DumpData@Win32@OnlineGameLib@@YA?AV?$basic_string@DU?$char_traits@D@std@@V?$allocator@D@2@@std@@QBEII@Z 1002c600 f   common:Utils.obj
 0001:0002b630       __unwindfunclet$?GetComputerNameA@Win32@OnlineGameLib@@YA?AV?$basic_string@DU?$char_traits@D@std@@V?$allocator@D@2@@std@@XZ$0 1002c630 f   common:Utils.obj
 0001:0002b63e       __ehhandler$?GetComputerNameA@Win32@OnlineGameLib@@YA?AV?$basic_string@DU?$char_traits@D@std@@V?$allocator@D@2@@std@@XZ 1002c63e f   common:Utils.obj
 0001:0002b670       __unwindfunclet$?GetModuleFileNameA@Win32@OnlineGameLib@@YA?AV?$basic_string@DU?$char_traits@D@std@@V?$allocator@D@2@@std@@PAUHINSTANCE__@@@Z$0 1002c670 f   common:Utils.obj
 0001:0002b67e       __ehhandler$?GetModuleFileNameA@Win32@OnlineGameLib@@YA?AV?$basic_string@DU?$char_traits@D@std@@V?$allocator@D@2@@std@@PAUHINSTANCE__@@@Z 1002c67e f   common:Utils.obj
 0001:0002b6b0       __unwindfunclet$?GetUserNameA@Win32@OnlineGameLib@@YA?AV?$basic_string@DU?$char_traits@D@std@@V?$allocator@D@2@@std@@XZ$0 1002c6b0 f   common:Utils.obj
 0001:0002b6be       __ehhandler$?GetUserNameA@Win32@OnlineGameLib@@YA?AV?$basic_string@DU?$char_traits@D@std@@V?$allocator@D@2@@std@@XZ 1002c6be f   common:Utils.obj
 0001:0002b6f0       __unwindfunclet$?GetFileVersion@Win32@OnlineGameLib@@YA?AV?$basic_string@DU?$char_traits@D@std@@V?$allocator@D@2@@std@@XZ$2 1002c6f0 f   common:Utils.obj
 0001:0002b6f8       __unwindfunclet$?GetFileVersion@Win32@OnlineGameLib@@YA?AV?$basic_string@DU?$char_traits@D@std@@V?$allocator@D@2@@std@@XZ$3 1002c6f8 f   common:Utils.obj
 0001:0002b703       __unwindfunclet$?GetFileVersion@Win32@OnlineGameLib@@YA?AV?$basic_string@DU?$char_traits@D@std@@V?$allocator@D@2@@std@@XZ$4 1002c703 f   common:Utils.obj
 0001:0002b70b       __ehhandler$?GetFileVersion@Win32@OnlineGameLib@@YA?AV?$basic_string@DU?$char_traits@D@std@@V?$allocator@D@2@@std@@XZ 1002c70b f   common:Utils.obj
 0001:0002b740       __unwindfunclet$??1?$basic_filebuf@DU?$char_traits@D@std@@@std@@UAE@XZ$0 1002c740 f   common:Utils.obj
 0001:0002b748       __ehhandler$??1?$basic_filebuf@DU?$char_traits@D@std@@@std@@UAE@XZ 1002c748 f   common:Utils.obj
 0001:0002b770       __unwindfunclet$??$use_facet@V?$ctype@D@std@@@std@@YAABV?$ctype@D@0@ABVlocale@0@@Z$0 1002c770 f   common:Utils.obj
 0001:0002b778       __ehhandler$??$use_facet@V?$ctype@D@std@@@std@@YAABV?$ctype@D@0@ABVlocale@0@@Z 1002c778 f   common:Utils.obj
 0001:0002b7a0       __unwindfunclet$??0?$codecvt@DDH@std@@QAE@I@Z$0 1002c7a0 f   common:Utils.obj
 0001:0002b7ab       __ehhandler$??0?$codecvt@DDH@std@@QAE@I@Z 1002c7ab f   common:Utils.obj
 0001:0002b7e0       __unwindfunclet$??1?$basic_fstream@DU?$char_traits@D@std@@@std@@UAE@XZ$0 1002c7e0 f   common:Utils.obj
 0001:0002b7eb       __ehhandler$??1?$basic_fstream@DU?$char_traits@D@std@@@std@@UAE@XZ 1002c7eb f   common:Utils.obj
 0001:0002b810       __unwindfunclet$?widen@?$basic_ios@DU?$char_traits@D@std@@@std@@QBEDD@Z$0 1002c810 f   common:Utils.obj
 0001:0002b818       __ehhandler$?widen@?$basic_ios@DU?$char_traits@D@std@@@std@@QBEDD@Z 1002c818 f   common:Utils.obj
 0001:0002b840       __unwindfunclet$?_Getcat@?$codecvt@DDH@std@@SAIPAPBVfacet@locale@2@@Z$0 1002c840 f   common:Utils.obj
 0001:0002b84b       __ehhandler$?_Getcat@?$codecvt@DDH@std@@SAIPAPBVfacet@locale@2@@Z 1002c84b f   common:Utils.obj
 0001:0002b870       __unwindfunclet$??$use_facet@V?$codecvt@DDH@std@@@std@@YAABV?$codecvt@DDH@0@ABVlocale@0@@Z$0 1002c870 f   common:Utils.obj
 0001:0002b878       __ehhandler$??$use_facet@V?$codecvt@DDH@std@@@std@@YAABV?$codecvt@DDH@0@ABVlocale@0@@Z 1002c878 f   common:Utils.obj
 0001:0002b8a0       __unwindfunclet$??0?$basic_istream@DU?$char_traits@D@std@@@std@@QAE@PAV?$basic_streambuf@DU?$char_traits@D@std@@@1@_N@Z$0 1002c8a0 f   common:Utils.obj
 0001:0002b8bc       __ehhandler$??0?$basic_istream@DU?$char_traits@D@std@@@std@@QAE@PAV?$basic_streambuf@DU?$char_traits@D@std@@@1@_N@Z 1002c8bc f   common:Utils.obj
 0001:0002b8e0       __unwindfunclet$??0?$basic_iostream@DU?$char_traits@D@std@@@std@@QAE@PAV?$basic_streambuf@DU?$char_traits@D@std@@@1@@Z$0 1002c8e0 f   common:Utils.obj
 0001:0002b8fc       __unwindfunclet$??0?$basic_iostream@DU?$char_traits@D@std@@@std@@QAE@PAV?$basic_streambuf@DU?$char_traits@D@std@@@1@@Z$1 1002c8fc f   common:Utils.obj
 0001:0002b907       __ehhandler$??0?$basic_iostream@DU?$char_traits@D@std@@@std@@QAE@PAV?$basic_streambuf@DU?$char_traits@D@std@@@1@@Z 1002c907 f   common:Utils.obj
 0001:0002b930       __unwindfunclet$??0?$basic_fstream@DU?$char_traits@D@std@@@std@@QAE@XZ$0 1002c930 f   common:Utils.obj
 0001:0002b94c       __unwindfunclet$??0?$basic_fstream@DU?$char_traits@D@std@@@std@@QAE@XZ$1 1002c94c f   common:Utils.obj
 0001:0002b957       __ehhandler$??0?$basic_fstream@DU?$char_traits@D@std@@@std@@QAE@XZ 1002c957 f   common:Utils.obj
 0001:0002b980       __ehhandler$?ThreadFunction@CThread@Win32@OnlineGameLib@@CGIPAX@Z 1002c980 f   common:Thread.obj
 0001:0002b9a0       __unwindfunclet$?Start@CThread@Win32@OnlineGameLib@@QAEXXZ$0 1002c9a0 f   common:Thread.obj
 0001:0002b9ab       __unwindfunclet$?Start@CThread@Win32@OnlineGameLib@@QAEXXZ$1 1002c9ab f   common:Thread.obj
 0001:0002b9b6       __unwindfunclet$?Start@CThread@Win32@OnlineGameLib@@QAEXXZ$2 1002c9b6 f   common:Thread.obj
 0001:0002b9c1       __ehhandler$?Start@CThread@Win32@OnlineGameLib@@QAEXXZ 1002c9c1 f   common:Thread.obj
 0001:0002b9f0       __unwindfunclet$?Wait@CThread@Win32@OnlineGameLib@@QBE_NK@Z$0 1002c9f0 f   common:Thread.obj
 0001:0002b9f8       __ehhandler$?Wait@CThread@Win32@OnlineGameLib@@QBE_NK@Z 1002c9f8 f   common:Thread.obj
 0001:0002ba20       __unwindfunclet$?Wait@CThread@Win32@OnlineGameLib@@QBEXXZ$0 1002ca20 f   common:Thread.obj
 0001:0002ba28       __unwindfunclet$?Wait@CThread@Win32@OnlineGameLib@@QBEXXZ$1 1002ca28 f   common:Thread.obj
 0001:0002ba30       __ehhandler$?Wait@CThread@Win32@OnlineGameLib@@QBEXXZ 1002ca30 f   common:Thread.obj
 0001:0002ba50       __unwindfunclet$?Create@Win32@OnlineGameLib@@YAPAXPAU_SECURITY_ATTRIBUTES@@_N1PBD@Z$0 1002ca50 f   common:Event.obj
 0001:0002ba58       __ehhandler$?Create@Win32@OnlineGameLib@@YAPAXPAU_SECURITY_ATTRIBUTES@@_N1PBD@Z 1002ca58 f   common:Event.obj
 0001:0002ba80       __unwindfunclet$?Wait@CEvent@Win32@OnlineGameLib@@QBE_NK@Z$0 1002ca80 f   common:Event.obj
 0001:0002ba88       __ehhandler$?Wait@CEvent@Win32@OnlineGameLib@@QBE_NK@Z 1002ca88 f   common:Event.obj
 0001:0002bab0       __unwindfunclet$?Reset@CEvent@Win32@OnlineGameLib@@QAEXXZ$0 1002cab0 f   common:Event.obj
 0001:0002bab8       __ehhandler$?Reset@CEvent@Win32@OnlineGameLib@@QAEXXZ 1002cab8 f   common:Event.obj
 0001:0002bae0       __unwindfunclet$?Set@CEvent@Win32@OnlineGameLib@@QAEXXZ$0 1002cae0 f   common:Event.obj
 0001:0002bae8       __ehhandler$?Set@CEvent@Win32@OnlineGameLib@@QAEXXZ 1002cae8 f   common:Event.obj
 0001:0002bb10       __unwindfunclet$?Pulse@CEvent@Win32@OnlineGameLib@@QAEXXZ$0 1002cb10 f   common:Event.obj
 0001:0002bb18       __ehhandler$?Pulse@CEvent@Win32@OnlineGameLib@@QAEXXZ 1002cb18 f   common:Event.obj
 0001:0002bb40       __unwindfunclet$?Wait@CEvent@Win32@OnlineGameLib@@QBEXXZ$0 1002cb40 f   common:Event.obj
 0001:0002bb48       __unwindfunclet$?Wait@CEvent@Win32@OnlineGameLib@@QBEXXZ$1 1002cb48 f   common:Event.obj
 0001:0002bb50       __ehhandler$?Wait@CEvent@Win32@OnlineGameLib@@QBEXXZ 1002cb50 f   common:Event.obj
 0001:0002bb70       __unwindfunclet$?AssociateEvent@CEventSelect@Win32@OnlineGameLib@@QAEXIJ@Z$0 1002cb70 f   common:EventSelect.obj
 0001:0002bb7b       __unwindfunclet$?AssociateEvent@CEventSelect@Win32@OnlineGameLib@@QAEXIJ@Z$1 1002cb7b f   common:EventSelect.obj
 0001:0002bb86       __ehhandler$?AssociateEvent@CEventSelect@Win32@OnlineGameLib@@QAEXIJ@Z 1002cb86 f   common:EventSelect.obj
 0001:0002bbb0       __unwindfunclet$??0CUsesWinsock@Win32@OnlineGameLib@@QAE@XZ$0 1002cbb0 f   common:UsesWinsock.obj
 0001:0002bbb8       __ehhandler$??0CUsesWinsock@Win32@OnlineGameLib@@QAE@XZ 1002cbb8 f   common:UsesWinsock.obj
 0001:0002bbe0       __unwindfunclet$??0CSocket@Win32@OnlineGameLib@@QAE@I@Z$0 1002cbe0 f   common:Socket.obj
 0001:0002bbe8       __ehhandler$??0CSocket@Win32@OnlineGameLib@@QAE@I@Z 1002cbe8 f   common:Socket.obj
 0001:0002bc10       __unwindfunclet$?Close@CSocket@Win32@OnlineGameLib@@QAEXXZ$0 1002cc10 f   common:Socket.obj
 0001:0002bc18       __ehhandler$?Close@CSocket@Win32@OnlineGameLib@@QAEXXZ 1002cc18 f   common:Socket.obj
 0001:0002bc40       __unwindfunclet$?AbortiveClose@CSocket@Win32@OnlineGameLib@@QAEXXZ$0 1002cc40 f   common:Socket.obj
 0001:0002bc48       __ehhandler$?AbortiveClose@CSocket@Win32@OnlineGameLib@@QAEXXZ 1002cc48 f   common:Socket.obj
 0001:0002bc70       __unwindfunclet$?Shutdown@CSocket@Win32@OnlineGameLib@@QAEXH@Z$0 1002cc70 f   common:Socket.obj
 0001:0002bc78       __ehhandler$?Shutdown@CSocket@Win32@OnlineGameLib@@QAEXH@Z 1002cc78 f   common:Socket.obj
 0001:0002bca0       __unwindfunclet$?Listen@CSocket@Win32@OnlineGameLib@@QAEXH@Z$0 1002cca0 f   common:Socket.obj
 0001:0002bca8       __ehhandler$?Listen@CSocket@Win32@OnlineGameLib@@QAEXH@Z 1002cca8 f   common:Socket.obj
 0001:0002bcd0       __unwindfunclet$?Bind@CSocket@Win32@OnlineGameLib@@QAEXABUsockaddr_in@@@Z$0 1002ccd0 f   common:Socket.obj
 0001:0002bcd8       __ehhandler$?Bind@CSocket@Win32@OnlineGameLib@@QAEXABUsockaddr_in@@@Z 1002ccd8 f   common:Socket.obj
 0001:0002bd00       __unwindfunclet$?Bind@CSocket@Win32@OnlineGameLib@@QAEXABUsockaddr@@I@Z$0 1002cd00 f   common:Socket.obj
 0001:0002bd08       __ehhandler$?Bind@CSocket@Win32@OnlineGameLib@@QAEXABUsockaddr@@I@Z 1002cd08 f   common:Socket.obj
 0001:0002bd30       __unwindfunclet$?Connect@CSocket@Win32@OnlineGameLib@@QAEXABUsockaddr_in@@@Z$0 1002cd30 f   common:Socket.obj
 0001:0002bd38       __ehhandler$?Connect@CSocket@Win32@OnlineGameLib@@QAEXABUsockaddr_in@@@Z 1002cd38 f   common:Socket.obj
 0001:0002bd60       __unwindfunclet$?Connect@CSocket@Win32@OnlineGameLib@@QAEXABUsockaddr@@I@Z$0 1002cd60 f   common:Socket.obj
 0001:0002bd68       __ehhandler$?Connect@CSocket@Win32@OnlineGameLib@@QAEXABUsockaddr@@I@Z 1002cd68 f   common:Socket.obj
 0001:0002bd90       __ehhandler$??1CSocket@Win32@OnlineGameLib@@QAE@XZ 1002cd90 f   common:Socket.obj
 0001:0002bdb0       __unwindfunclet$??0CWin32Exception@Win32@OnlineGameLib@@QAE@ABV?$basic_string@DU?$char_traits@D@std@@V?$allocator@D@2@@std@@K@Z$0 1002cdb0 f   common:Win32Exception.obj
 0001:0002bdb8       __ehhandler$??0CWin32Exception@Win32@OnlineGameLib@@QAE@ABV?$basic_string@DU?$char_traits@D@std@@V?$allocator@D@2@@std@@K@Z 1002cdb8 f   common:Win32Exception.obj
 0001:0002bde0       __unwindfunclet$?MessageBoxA@CException@Win32@OnlineGameLib@@QBEXPAUHWND__@@@Z$0 1002cde0 f   common:Exception.obj
 0001:0002bde8       __ehhandler$?MessageBoxA@CException@Win32@OnlineGameLib@@QBEXPAUHWND__@@@Z 1002cde8 f   common:Exception.obj
 0001:0002be10       __unwindfunclet$??0CException@Win32@OnlineGameLib@@QAE@ABV?$basic_string@DU?$char_traits@D@std@@V?$allocator@D@2@@std@@0@Z$0 1002ce10 f   common:Exception.obj
 0001:0002be1b       __ehhandler$??0CException@Win32@OnlineGameLib@@QAE@ABV?$basic_string@DU?$char_traits@D@std@@V?$allocator@D@2@@std@@0@Z 1002ce1b f   common:Exception.obj
 0001:0002be36       __ehhandler$?CallUnexpected@@YAXPBU_s_ESTypeList@@@Z 1002ce36 f   LIBCMT:frame.obj
 0001:0002be51       __unwindfunclet$?_Xlen@_String_base@std@@SAXXZ$0 1002ce51 f   libcpmt:string.obj
 0001:0002be59       __ehhandler$?_Xlen@_String_base@std@@SAXXZ 1002ce59 f   libcpmt:string.obj
 0001:0002be74       __unwindfunclet$?_Xran@_String_base@std@@SAXXZ$0 1002ce74 f   libcpmt:string.obj
 0001:0002be7c       __ehhandler$?_Xran@_String_base@std@@SAXXZ 1002ce7c f   libcpmt:string.obj
 0001:0002be97       __unwindfunclet$?_Xinvarg@_String_base@std@@SAXXZ$0 1002ce97 f   libcpmt:string.obj
 0001:0002be9f       __ehhandler$?_Xinvarg@_String_base@std@@SAXXZ 1002ce9f f   libcpmt:string.obj
 0001:0002beba       __unwindfunclet$?_Locimp_dtor@_Locimp@locale@std@@CAXPAV123@@Z$0 1002ceba f   libcpmt:locale0.obj
 0001:0002bec2       __ehhandler$?_Locimp_dtor@_Locimp@locale@std@@CAXPAV123@@Z 1002cec2 f   libcpmt:locale0.obj
 0001:0002bedd       __unwindfunclet$??0_Locimp@locale@std@@AAE@_N@Z$0 1002cedd f   libcpmt:locale0.obj
 0001:0002bee5       __ehhandler$??0_Locimp@locale@std@@AAE@_N@Z 1002cee5 f   libcpmt:locale0.obj
 0001:0002bf00       __unwindfunclet$??1_Locimp@locale@std@@MAE@XZ$0 1002cf00 f   libcpmt:locale0.obj
 0001:0002bf08       __unwindfunclet$??1_Locimp@locale@std@@MAE@XZ$1 1002cf08 f   libcpmt:locale0.obj
 0001:0002bf13       __ehhandler$??1_Locimp@locale@std@@MAE@XZ 1002cf13 f   libcpmt:locale0.obj
 0001:0002bf2e       __unwindfunclet$?_Init@locale@std@@CAPAV_Locimp@12@XZ$0 1002cf2e f   libcpmt:locale0.obj
 0001:0002bf36       __unwindfunclet$?_Init@locale@std@@CAPAV_Locimp@12@XZ$1 1002cf36 f   libcpmt:locale0.obj
 0001:0002bf40       __ehhandler$?_Init@locale@std@@CAPAV_Locimp@12@XZ 1002cf40 f   libcpmt:locale0.obj
 0001:0002bf5b       __unwindfunclet$?empty@locale@std@@SA?AV12@XZ$0 1002cf5b f   libcpmt:locale0.obj
 0001:0002bf65       __ehhandler$?empty@locale@std@@SA?AV12@XZ 1002cf65 f   libcpmt:locale0.obj
 0001:0002bf80       ??__Egs_holdrand@@YAXXZ    1002cf80 f   ClientStage.obj
 0001:0002bf90       ??__Es_criticalSection@Win32@OnlineGameLib@@YAXXZ 1002cf90 f   common:Utils.obj
 0001:0002bfb0       ??__Es_debugOut@Win32@OnlineGameLib@@YAXXZ 1002cfb0 f   common:Utils.obj
 0001:0002bfd0       ??__Es_logFileName@Win32@OnlineGameLib@@YAXXZ 1002cfd0 f   common:Utils.obj
 0001:0002bfed       ??__Einitlocks@std@@YAXXZ  1002cfed f   libcpmt:xlock.obj
 0001:0002c003       ??__Eclassic_locale@std@@YAXXZ 1002d003 f   libcpmt:locale0.obj
 0001:0002c00f       ??__Einitlocks@std@@YAXXZ  1002d00f f   libcpmt:iosptrs.obj
 0001:0002c025       ??__Einit_atexit@@YAXXZ    1002d025 f   libcpmt:iosptrs.obj
 0001:0002c040       ??__Fs_criticalSection@Win32@OnlineGameLib@@YAXXZ 1002d040 f   common:Utils.obj
 0001:0002c050       ??__Fs_logFileName@Win32@OnlineGameLib@@YAXXZ 1002d050 f   common:Utils.obj
 0001:0002c080       ??__Fname@?1??GetAppFullPath@Win32@OnlineGameLib@@YA?AV?$basic_string@DU?$char_traits@D@std@@V?$allocator@D@2@@std@@PAUHINSTANCE__@@@Z@YAXXZ 1002d080 f   common:Utils.obj
 0001:0002c0b0       ??__Fname@?1??GetComputerNameA@Win32@OnlineGameLib@@YA?AV?$basic_string@DU?$char_traits@D@std@@V?$allocator@D@2@@std@@XZ@YAXXZ 1002d0b0 f   common:Utils.obj
 0001:0002c0e0       ??__Fname@?1??GetModuleFileNameA@Win32@OnlineGameLib@@YA?AV?$basic_string@DU?$char_traits@D@std@@V?$allocator@D@2@@std@@PAUHINSTANCE__@@@Z@YAXXZ 1002d0e0 f   common:Utils.obj
 0001:0002c110       ??__Fname@?1??GetUserNameA@Win32@OnlineGameLib@@YA?AV?$basic_string@DU?$char_traits@D@std@@V?$allocator@D@2@@std@@XZ@YAXXZ 1002d110 f   common:Utils.obj
 0001:0002c140       ??__Fversion@?1??GetFileVersion@Win32@OnlineGameLib@@YA?AV?$basic_string@DU?$char_traits@D@std@@V?$allocator@D@2@@std@@XZ@YAXXZ 1002d140 f   common:Utils.obj
 0001:0002c170       ??__Fs_debugOut@Win32@OnlineGameLib@@YAXXZ 1002d170 f   common:Utils.obj
 0001:0002c190       ??__Fnomem@?5???2@YAPAXI@Z@YAXXZ 1002d190 f   LIBCMT:new.obj
 0001:0002c1a4       ??__Finitlocks@std@@YAXXZ  1002d1a4 f   libcpmt:xlock.obj
 0001:0002c1ae       ??__Fclassic_locale@std@@YAXXZ 1002d1ae f   libcpmt:locale0.obj
 0001:0002c1b8       ??__Finitlocks@std@@YAXXZ  1002d1b8 f   libcpmt:iosptrs.obj
 0001:0002c1c2       ??__Finit_atexit@@YAXXZ    1002d1c2 f   libcpmt:iosptrs.obj
