 Bishop

 Timestamp is 507eb55e (Wed Oct 17 20:40:46 2012)

 Preferred load address is 00400000

 Start         Length     Name                   Class
 0001:00000000 00045e12H .text                   CODE
 0001:00045e20 000028adH .text$x                 CODE
 0001:000486d0 00000341H .text$yc                CODE
 0001:00048a20 0000033cH .text$yd                CODE
 0002:00000000 00000288H .idata$5                DATA
 0002:00000288 00000004H .CRT$XCA                DATA
 0002:0000028c 0000000cH .CRT$XCC                DATA
 0002:00000298 00000058H .CRT$XCU                DATA
 0002:000002f0 00000004H .CRT$XCZ                DATA
 0002:000002f4 00000004H .CRT$XIA                DATA
 0002:000002f8 00000014H .CRT$XIC                DATA
 0002:0000030c 00000004H .CRT$XID                DATA
 0002:00000310 00000004H .CRT$XIY                DATA
 0002:00000314 00000004H .CRT$XIZ                DATA
 0002:00000318 00000004H .CRT$XPA                DATA
 0002:0000031c 00000004H .CRT$XPX                DATA
 0002:00000320 00000004H .CRT$XPXA               DATA
 0002:00000324 00000004H .CRT$XPZ                DATA
 0002:00000328 00000004H .CRT$XTA                DATA
 0002:0000032c 00000004H .CRT$XTZ                DATA
 0002:00000330 00003a18H .rdata                  DATA
 0002:00003d48 00000060H .rdata$debug            DATA
 0002:00003da8 00001108H .rdata$r                DATA
 0002:00004eb0 0000030cH .rdata$sxdata           DATA
 0002:000051bc 00000004H .rtc$IAA                DATA
 0002:000051c0 00000004H .rtc$IZZ                DATA
 0002:000051c4 00000004H .rtc$TAA                DATA
 0002:000051c8 00000004H .rtc$TZZ                DATA
 0002:000051d0 00003f9cH .xdata$x                DATA
 0002:0000916c 00000004H ATL$__a                 DATA
 0002:00009170 00000004H ATL$__z                 DATA
 0002:00009174 000000a0H .idata$2                DATA
 0002:00009214 00000014H .idata$3                DATA
 0002:00009228 00000288H .idata$4                DATA
 0002:000094b0 00000afcH .idata$6                DATA
 0002:00009fac 00000000H .edata                  DATA
 0003:00000000 00001cb0H .data                   DATA
 0003:00001cc0 000023ecH .bss                    DATA
 0004:00000000 000001a8H .rsrc$01                DATA
 0004:000001b0 00001f90H .rsrc$02                DATA

  Address         Publics by Value              Rva+Base       Lib:Object

 0000:00000000       __except_list              00000000     <absolute>
 0000:000000c3       ___safe_se_handler_count   000000c3     <absolute>
 0000:00000000       ___ImageBase               00400000     <linker-defined>
 0001:00000000       ??0bad_alloc@std@@QAE@PBD@Z 00401000 f i Application.obj
 0001:00000020       ??1bad_alloc@std@@UAE@XZ   00401020 f i Application.obj
 0001:00000030       ??_Gbad_alloc@std@@UAEPAXI@Z 00401030 f i Application.obj
 0001:00000030       ??_Ebad_alloc@std@@UAEPAXI@Z 00401030 f i Application.obj
 0001:00000060       ?assign@?$char_traits@D@std@@SAXAADABD@Z 00401060 f i Application.obj
 0001:00000070       ?length@?$char_traits@D@std@@SAIPBD@Z 00401070 f i Application.obj
 0001:00000090       ?_Copy_s@?$char_traits@D@std@@SAPADPADIPBDI@Z 00401090 f i Application.obj
 0001:000000c0       ?_Move_s@?$char_traits@D@std@@SAPADPADIPBDI@Z 004010c0 f i Application.obj
 0001:000000f0       ??0Thank_you@Define_the_symbol__ATL_MIXED@@QAE@XZ 004010f0 f i Application.obj
 0001:00000100       ?one@Thank_you@Define_the_symbol__ATL_MIXED@@UAEXXZ 00401100 f i Application.obj
 0001:00000110       ?GetAccSvrPort@CNetwork@@QAEGXZ 00401110 f i Application.obj
 0001:00000120       ?GetRoleSvrPort@CNetwork@@QAEGXZ 00401120 f i Application.obj
 0001:00000130       ?SetRoleSvrPort@CNetwork@@QAEXG@Z 00401130 f i Application.obj
 0001:00000140       ?GetClientOpenPort@CNetwork@@QAEGXZ 00401140 f i Application.obj
 0001:00000150       ?SetClientOpenPort@CNetwork@@QAEXG@Z 00401150 f i Application.obj
 0001:00000160       ?GetGameSvrOpenPort@CNetwork@@QAEGXZ 00401160 f i Application.obj
 0001:00000170       ?SetGameSvrOpenPort@CNetwork@@QAEXG@Z 00401170 f i Application.obj
 0001:00000180       ?GetCapability@CGamePlayer@@SAJXZ 00401180 f i Application.obj
 0001:000001a0       ?GetWorking@CGamePlayer@@SAJXZ 004011a0 f i Application.obj
 0001:000001d0       ?Valid@CSmartClient@@QAE_NXZ 004011d0 f i Application.obj
 0001:000001e0       ??0CBishopApp@@QAE@XZ      004011e0 f   Application.obj
 0001:00000200       ??0CBishopApp@@QAE@PAUHINSTANCE__@@@Z 00401200 f   Application.obj
 0001:00000230       ??1CBishopApp@@UAE@XZ      00401230 f   Application.obj
 0001:00000240       ?LeaveToAffirm@CBishopApp@@KAXPAUHWND__@@@Z 00401240 f   Application.obj
 0001:000002a0       ?CheckUserInfo@CBishopApp@@KA_NPAUHWND__@@@Z 004012a0 f   Application.obj
 0001:000003f0       ?ServerLoginRoutine@CBishopApp@@KGKPAUHWND__@@@Z 004013f0 f   Application.obj
 0001:000004b0       ?AddGameServerInfo@CBishopApp@@CAXPAUHWND__@@IPBD@Z 004014b0 f   Application.obj
 0001:00000510       ?DelGameServerInfo@CBishopApp@@CAXPAUHWND__@@I@Z 00401510 f   Application.obj
 0001:00000590       ?EnableCtrl@CBishopApp@@KAXPAUHWND__@@IH@Z 00401590 f   Application.obj
 0001:000005c0       ?SendAnnounceText@CBishopApp@@KAXPAUHWND__@@PBDIIH@Z 004015c0 f   Application.obj
 0001:00000690       ?size@?$basic_string@DU?$char_traits@D@std@@V?$allocator@D@2@@std@@QBEIXZ 00401690 f i Application.obj
 0001:000006a0       ?_Myptr@?$basic_string@DU?$char_traits@D@std@@V?$allocator@D@2@@std@@IBEPBDXZ 004016a0 f i Application.obj
 0001:000006b0       ?_Myptr@?$basic_string@DU?$char_traits@D@std@@V?$allocator@D@2@@std@@IAEPADXZ 004016b0 f i Application.obj
 0001:000006c0       ?deallocate@?$allocator@D@std@@QAEXPADI@Z 004016c0 f i Application.obj
 0001:000006d0       ?_Inside@?$basic_string@DU?$char_traits@D@std@@V?$allocator@D@2@@std@@IAE_NPBD@Z 004016d0 f i Application.obj
 0001:00000710       ?max_size@?$allocator@D@std@@QBEIXZ 00401710 f i Application.obj
 0001:00000720       ??$_Allocate@D@std@@YAPADIPAD@Z 00401720 f i Application.obj
 0001:00000780       ??0bad_alloc@std@@QAE@ABV01@@Z 00401780 f i Application.obj
 0001:000007a0       ??$_Char_traits_cat@U?$char_traits@D@std@@@std@@YA?AU_Secure_char_traits_tag@0@XZ 004017a0 f i Application.obj
 0001:000007b0       ??$copy_s@U?$char_traits@D@std@@@_Traits_helper@std@@YAPADPADIPBDIU_Secure_char_traits_tag@1@@Z 004017b0 f i Application.obj
 0001:000007e0       ??$move_s@U?$char_traits@D@std@@@_Traits_helper@std@@YAPADPADIPBDIU_Secure_char_traits_tag@1@@Z 004017e0 f i Application.obj
 0001:00000810       ??_ECBishopApp@@UAEPAXI@Z  00401810 f i Application.obj
 0001:00000810       ??_GCBishopApp@@UAEPAXI@Z  00401810 f i Application.obj
 0001:00000830       ?EnterToAffirm@CBishopApp@@KAXPAUHWND__@@@Z 00401830 f   Application.obj
 0001:000008a0       ?EnableGameSvrCtrl@CBishopApp@@KAXPAUHWND__@@H@Z 004018a0 f   Application.obj
 0001:00000920       ?c_str@?$basic_string@DU?$char_traits@D@std@@V?$allocator@D@2@@std@@QBEPBDXZ 00401920 f i Application.obj
 0001:00000930       ?_Eos@?$basic_string@DU?$char_traits@D@std@@V?$allocator@D@2@@std@@IAEXI@Z 00401930 f i Application.obj
 0001:00000950       ?max_size@?$basic_string@DU?$char_traits@D@std@@V?$allocator@D@2@@std@@QBEIXZ 00401950 f i Application.obj
 0001:00000960       ?allocate@?$allocator@D@std@@QAEPADI@Z 00401960 f i Application.obj
 0001:00000980       ??$copy_s@U?$char_traits@D@std@@@_Traits_helper@std@@YAPADPADIPBDI@Z 00401980 f i Application.obj
 0001:000009b0       ??$move_s@U?$char_traits@D@std@@@_Traits_helper@std@@YAPADPADIPBDI@Z 004019b0 f i Application.obj
 0001:000009e0       ?GetAccSvrIP@CNetwork@@QAEPBDXZ 004019e0 f i Application.obj
 0001:000009f0       ?GetRoleSvrIP@CNetwork@@QAEPBDXZ 004019f0 f i Application.obj
 0001:00000a00       ?LoginDlgProc@CBishopApp@@KGHPAUHWND__@@IIJ@Z 00401a00 f   Application.obj
 0001:00000c00       ?InitMainDlg@CBishopApp@@KAXPAUHWND__@@@Z 00401c00 f   Application.obj
 0001:00000cc0       ?_Tidy@?$basic_string@DU?$char_traits@D@std@@V?$allocator@D@2@@std@@IAEX_NI@Z 00401cc0 f i Application.obj
 0001:00000d10       ?erase@?$basic_string@DU?$char_traits@D@std@@V?$allocator@D@2@@std@@QAEAAV12@II@Z 00401d10 f i Application.obj
 0001:00000da0       ?_Copy@?$basic_string@DU?$char_traits@D@std@@V?$allocator@D@2@@std@@IAEXII@Z 00401da0 f i Application.obj
 0001:00000ef0       ?LoginSystem@CBishopApp@@IAE_NXZ 00401ef0 f   Application.obj
 0001:00000f20       ?_Grow@?$basic_string@DU?$char_traits@D@std@@V?$allocator@D@2@@std@@IAE_NI_N@Z 00401f20 f i Application.obj
 0001:00000fe0       ?assign@?$basic_string@DU?$char_traits@D@std@@V?$allocator@D@2@@std@@QAEAAV12@ABV12@II@Z 00401fe0 f i Application.obj
 0001:000010c0       ?assign@?$basic_string@DU?$char_traits@D@std@@V?$allocator@D@2@@std@@QAEAAV12@PBDI@Z 004020c0 f i Application.obj
 0001:00001190       ?assign@?$basic_string@DU?$char_traits@D@std@@V?$allocator@D@2@@std@@QAEAAV12@PBD@Z 00402190 f i Application.obj
 0001:000011c0       ??4?$basic_string@DU?$char_traits@D@std@@V?$allocator@D@2@@std@@QAEAAV01@PBD@Z 004021c0 f i Application.obj
 0001:000011f0       ?SetRoleSvrIP@CNetwork@@QAEXPBD@Z 004021f0 f i Application.obj
 0001:00001220       ?UpdateVariable@CBishopApp@@KAXPAUHWND__@@@Z 00402220 f   Application.obj
 0001:000012e0       ?CloseMainDlg@CBishopApp@@KAXPAUHWND__@@@Z 004022e0 f   Application.obj
 0001:00001300       ?MainWndProc@CBishopApp@@KGHPAUHWND__@@IIJ@Z 00402300 f   Application.obj
 0001:00001790       ?RegisterMainWndClass@CBishopApp@@IAEHXZ 00402790 f   Application.obj
 0001:00001840       ?MainDialog@CBishopApp@@IAEIXZ 00402840 f   Application.obj
 0001:000018e0       ?Run@CBishopApp@@QAEHXZ    004028e0 f   Application.obj
 0001:00001990       _WinMain@16                00402990 f   Bishop.obj
 0001:000019e0       ??1CEvent@Win32@OnlineGameLib@@UAE@XZ 004029e0 f   Event.obj
 0001:00001a00       ??0?$allocator@D@std@@QAE@XZ 00402a00 f i Event.obj
 0001:00001a10       ??0?$allocator@D@std@@QAE@ABV01@@Z 00402a10 f i Event.obj
 0001:00001a20       ??_ECEvent@Win32@OnlineGameLib@@UAEPAXI@Z 00402a20 f i Event.obj
 0001:00001a20       ??_GCEvent@Win32@OnlineGameLib@@UAEPAXI@Z 00402a20 f i Event.obj
 0001:00001a40       ??0?$_String_val@DV?$allocator@D@std@@@std@@IAE@V?$allocator@D@1@@Z 00402a40 f i Event.obj
 0001:00001a50       ??1?$basic_string@DU?$char_traits@D@std@@V?$allocator@D@2@@std@@QAE@XZ 00402a50 f i Event.obj
 0001:00001a80       ??0?$basic_string@DU?$char_traits@D@std@@V?$allocator@D@2@@std@@QAE@PBD@Z 00402a80 f i Event.obj
 0001:00001b60       ??0?$_String_val@DV?$allocator@D@std@@@std@@QAE@ABV01@@Z 00402b60 f i Event.obj
 0001:00001b70       ??1CException@Win32@OnlineGameLib@@UAE@XZ 00402b70 f i Event.obj
 0001:00001bc0       ??_GCException@Win32@OnlineGameLib@@UAEPAXI@Z 00402bc0 f i Event.obj
 0001:00001bc0       ??_ECException@Win32@OnlineGameLib@@UAEPAXI@Z 00402bc0 f i Event.obj
 0001:00001be0       ??1CWin32Exception@Win32@OnlineGameLib@@UAE@XZ 00402be0 f i Event.obj
 0001:00001bf0       ??0?$basic_string@DU?$char_traits@D@std@@V?$allocator@D@2@@std@@QAE@ABV01@@Z 00402bf0 f i Event.obj
 0001:00001c20       ??0CException@Win32@OnlineGameLib@@QAE@ABV012@@Z 00402c20 f i Event.obj
 0001:00001cb0       ??0CWin32Exception@Win32@OnlineGameLib@@QAE@ABV012@@Z 00402cb0 f i Event.obj
 0001:00001ce0       ??_GCWin32Exception@Win32@OnlineGameLib@@UAEPAXI@Z 00402ce0 f i Event.obj
 0001:00001ce0       ??_ECWin32Exception@Win32@OnlineGameLib@@UAEPAXI@Z 00402ce0 f i Event.obj
 0001:00001d00       ??0CEvent@Win32@OnlineGameLib@@QAE@PAU_SECURITY_ATTRIBUTES@@_N1@Z 00402d00 f   Event.obj
 0001:00001d30       ??0CEvent@Win32@OnlineGameLib@@QAE@PAU_SECURITY_ATTRIBUTES@@_N1PBD@Z 00402d30 f   Event.obj
 0001:00001d60       ?Wait@CEvent@Win32@OnlineGameLib@@QBE_NK@Z 00402d60 f   Event.obj
 0001:00001e20       ?Reset@CEvent@Win32@OnlineGameLib@@QAEXXZ 00402e20 f   Event.obj
 0001:00001eb0       ?Set@CEvent@Win32@OnlineGameLib@@QAEXXZ 00402eb0 f   Event.obj
 0001:00001f40       ?Pulse@CEvent@Win32@OnlineGameLib@@QAEXXZ 00402f40 f   Event.obj
 0001:00001fd0       ?Wait@CEvent@Win32@OnlineGameLib@@QBEXXZ 00402fd0 f   Event.obj
 0001:00002090       ??1IPlayer@@UAE@XZ         00403090 f i GamePlayer.obj
 0001:000020a0       ??_EIPlayer@@UAEPAXI@Z     004030a0 f i GamePlayer.obj
 0001:000020a0       ??_GIPlayer@@UAEPAXI@Z     004030a0 f i GamePlayer.obj
 0001:000020c0       ?_trace@@YAXPBDZZ          004030c0 f i GamePlayer.obj
 0001:000020d0       ??1ICommand@@UAE@XZ        004030d0 f i GamePlayer.obj
 0001:000020e0       ??_EICommand@@UAEPAXI@Z    004030e0 f i GamePlayer.obj
 0001:000020e0       ??_GICommand@@UAEPAXI@Z    004030e0 f i GamePlayer.obj
 0001:00002100       ??2@YAPAXIPAX@Z            00403100 f i GamePlayer.obj
 0001:00002110       ??3@YAXPAX0@Z              00403110 f i GamePlayer.obj
 0001:00002120       ?compare@?$char_traits@D@std@@SAHPBD0I@Z 00403120 f i GamePlayer.obj
 0001:000021b0       ?to_int_type@?$char_traits@D@std@@SAHABD@Z 004031b0 f i GamePlayer.obj
 0001:000021c0       ?eq_int_type@?$char_traits@D@std@@SA_NABH0@Z 004031c0 f i GamePlayer.obj
 0001:000021e0       ?eof@?$char_traits@D@std@@SAHXZ 004031e0 f i GamePlayer.obj
 0001:000021f0       ??0_Iterator_base@std@@QAE@XZ 004031f0 f i GamePlayer.obj
 0001:00002200       ?_Getctype@_Locinfo@std@@QBE?AU_Ctypevec@@XZ 00403200 f i GamePlayer.obj
 0001:00002230       ?_Getcvt@_Locinfo@std@@QBE?AU_Cvtvec@@XZ 00403230 f i GamePlayer.obj
 0001:00002250       ??0id@locale@std@@QAE@I@Z  00403250 f i GamePlayer.obj
 0001:00002260       ??Bid@locale@std@@QAEIXZ   00403260 f i GamePlayer.obj
 0001:000022a0       ?_Incref@facet@locale@std@@QAEXXZ 004032a0 f i GamePlayer.obj
 0001:000022d0       ?_Decref@facet@locale@std@@QAEPAV123@XZ 004032d0 f i GamePlayer.obj
 0001:00002310       ?_Register@facet@locale@std@@QAEXXZ 00403310 f i GamePlayer.obj
 0001:00002320       ??1facet@locale@std@@UAE@XZ 00403320 f i GamePlayer.obj
 0001:00002330       ??0facet@locale@std@@IAE@I@Z 00403330 f i GamePlayer.obj
 0001:00002350       ??0locale@std@@QAE@XZ      00403350 f i GamePlayer.obj
 0001:00002390       ??0locale@std@@QAE@ABV01@@Z 00403390 f i GamePlayer.obj
 0001:000023d0       ??1locale@std@@QAE@XZ      004033d0 f i GamePlayer.obj
 0001:00002420       ?_Getfacet@locale@std@@QBEPBVfacet@12@I@Z 00403420 f i GamePlayer.obj
 0001:00002460       ??_Gfacet@locale@std@@UAEPAXI@Z 00403460 f i GamePlayer.obj
 0001:00002460       ??_Efacet@locale@std@@UAEPAXI@Z 00403460 f i GamePlayer.obj
 0001:00002480       ??0ctype_base@std@@QAE@I@Z 00403480 f i GamePlayer.obj
 0001:000024a0       ??1ctype_base@std@@UAE@XZ  004034a0 f i GamePlayer.obj
 0001:000024b0       ??_Ectype_base@std@@UAEPAXI@Z 004034b0 f i GamePlayer.obj
 0001:000024b0       ??_Gctype_base@std@@UAEPAXI@Z 004034b0 f i GamePlayer.obj
 0001:000024d0       ?widen@?$ctype@D@std@@QBEDD@Z 004034d0 f i GamePlayer.obj
 0001:000024e0       ?_Init@?$ctype@D@std@@IAEXABV_Locinfo@2@@Z 004034e0 f i GamePlayer.obj
 0001:00002520       ?_Tidy@?$ctype@D@std@@IAEXXZ 00403520 f i GamePlayer.obj
 0001:00002550       ?rdstate@ios_base@std@@QBEHXZ 00403550 f i GamePlayer.obj
 0001:00002560       ?good@ios_base@std@@QBE_NXZ 00403560 f i GamePlayer.obj
 0001:00002570       ?fail@ios_base@std@@QBE_NXZ 00403570 f i GamePlayer.obj
 0001:00002580       ?flags@ios_base@std@@QBEHXZ 00403580 f i GamePlayer.obj
 0001:00002590       ?getloc@ios_base@std@@QBE?AVlocale@2@XZ 00403590 f i GamePlayer.obj
 0001:000025d0       ??1ios_base@std@@UAE@XZ    004035d0 f i GamePlayer.obj
 0001:000025e0       ??0ios_base@std@@IAE@XZ    004035e0 f i GamePlayer.obj
 0001:000025f0       ??_Gios_base@std@@UAEPAXI@Z 004035f0 f i GamePlayer.obj
 0001:000025f0       ??_Eios_base@std@@UAEPAXI@Z 004035f0 f i GamePlayer.obj
 0001:00002620       ?Enter@CCriticalSection@Win32@OnlineGameLib@@QAEXXZ 00403620 f i GamePlayer.obj
 0001:00002630       ?Leave@CCriticalSection@Win32@OnlineGameLib@@QAEXXZ 00403630 f i GamePlayer.obj
 0001:00002640       ??0CCriticalSection@Win32@OnlineGameLib@@QAE@XZ 00403640 f i GamePlayer.obj
 0001:00002650       ??1CCriticalSection@Win32@OnlineGameLib@@QAE@XZ 00403650 f i GamePlayer.obj
 0001:00002660       ??0Owner@CCriticalSection@Win32@OnlineGameLib@@QAE@AAV123@@Z 00403660 f i GamePlayer.obj
 0001:00002680       ??1Owner@CCriticalSection@Win32@OnlineGameLib@@QAE@XZ 00403680 f i GamePlayer.obj
 0001:00002690       ?GetUsed@CBuffer@Win32@OnlineGameLib@@QBEIXZ 00403690 f i GamePlayer.obj
 0001:000026a0       ?GetBuffer@CBuffer@Win32@OnlineGameLib@@QBEPBEXZ 004036a0 f i GamePlayer.obj
 0001:000026b0       ?AddRef@CBuffer@Win32@OnlineGameLib@@QAEXXZ 004036b0 f i GamePlayer.obj
 0001:000026c0       ?Peek@CPackager@Win32@OnlineGameLib@@SAEPBXI@Z 004036c0 f i GamePlayer.obj
 0001:000026e0       ?ReSet@Allocator@CBuffer@Win32@OnlineGameLib@@QAE_NII@Z 004036e0 f i GamePlayer.obj
 0001:00002700       ?Reset@CTask@CGamePlayer@@QAEXXZ 00403700 f i GamePlayer.obj
 0001:00002710       ?SetCurrentTask@CGamePlayer@@AAEXJ@Z 00403710 f i GamePlayer.obj
 0001:00002730       ?GetCurrentTask@CGamePlayer@@AAEIXZ 00403730 f i GamePlayer.obj
 0001:00002750       ?SetupGlobalAllocator@CGamePlayer@@SA_NII@Z 00403750 f   GamePlayer.obj
 0001:00002770       ?Detach@CDataQueue@CGamePlayer@@QAEXJ@Z 00403770 f   GamePlayer.obj
 0001:00002780       ??0IPlayer@@QAE@XZ         00403780 f i GamePlayer.obj
 0001:00002790       ?Active@CGamePlayer@@UAE_NXZ 00403790 f   GamePlayer.obj
 0001:000027e0       ?SafeClose@CGamePlayer@@IAEIXZ 004037e0 f   GamePlayer.obj
 0001:000027f0       ?ATTACH_NETWORK@CGamePlayer@@SAXPAUIClient@@PAUIServer@@0@Z 004037f0 f   GamePlayer.obj
 0001:00002810       ?DETACH_NETWORK@CGamePlayer@@SAXXZ 00403810 f   GamePlayer.obj
 0001:000028a0       ?DispatchTask@CGamePlayer@@UAE_NI@Z 004038a0 f   GamePlayer.obj
 0001:000028d0       ?IsWorking@CGamePlayer@@UAE_NXZ 004038d0 f   GamePlayer.obj
 0001:000028f0       ?_QueryRoleInfo_ToDBRole@CGamePlayer@@IAE_NPBD@Z 004038f0 f   GamePlayer.obj
 0001:000029d0       ?length@?$basic_string@DU?$char_traits@D@std@@V?$allocator@D@2@@std@@QBEIXZ 004039d0 f i GamePlayer.obj
 0001:000029e0       ??1?$basic_ostream@DU?$char_traits@D@std@@@std@@UAE@XZ 004039e0 f i GamePlayer.obj
 0001:000029f0       ??1?$basic_ios@DU?$char_traits@D@std@@@std@@UAE@XZ 004039f0 f i GamePlayer.obj
 0001:00002a00       ?rdbuf@?$basic_ios@DU?$char_traits@D@std@@@std@@QBEPAV?$basic_streambuf@DU?$char_traits@D@std@@@2@XZ 00403a00 f i GamePlayer.obj
 0001:00002a10       ??0?$basic_ios@DU?$char_traits@D@std@@@std@@IAE@XZ 00403a10 f i GamePlayer.obj
 0001:00002a20       ??1?$basic_istream@DU?$char_traits@D@std@@@std@@UAE@XZ 00403a20 f i GamePlayer.obj
 0001:00002a30       ?eback@?$basic_streambuf@DU?$char_traits@D@std@@@std@@IBEPADXZ 00403a30 f i GamePlayer.obj
 0001:00002a40       ?gptr@?$basic_streambuf@DU?$char_traits@D@std@@@std@@IBEPADXZ 00403a40 f i GamePlayer.obj
 0001:00002a50       ?pbase@?$basic_streambuf@DU?$char_traits@D@std@@@std@@IBEPADXZ 00403a50 f i GamePlayer.obj
 0001:00002a60       ?pptr@?$basic_streambuf@DU?$char_traits@D@std@@@std@@IBEPADXZ 00403a60 f i GamePlayer.obj
 0001:00002a70       ?setg@?$basic_streambuf@DU?$char_traits@D@std@@@std@@IAEXPAD00@Z 00403a70 f i GamePlayer.obj
 0001:00002a90       ?epptr@?$basic_streambuf@DU?$char_traits@D@std@@@std@@IBEPADXZ 00403a90 f i GamePlayer.obj
 0001:00002aa0       ?setp@?$basic_streambuf@DU?$char_traits@D@std@@@std@@IAEXPAD0@Z 00403aa0 f i GamePlayer.obj
 0001:00002ac0       ?setp@?$basic_streambuf@DU?$char_traits@D@std@@@std@@IAEXPAD00@Z 00403ac0 f i GamePlayer.obj
 0001:00002ae0       ?_Pninc@?$basic_streambuf@DU?$char_traits@D@std@@@std@@IAEPADXZ 00403ae0 f i GamePlayer.obj
 0001:00002b00       ?_Init@?$basic_streambuf@DU?$char_traits@D@std@@@std@@IAEXXZ 00403b00 f i GamePlayer.obj
 0001:00002b60       ??1?$basic_iostream@DU?$char_traits@D@std@@@std@@UAE@XZ 00403b60 f i GamePlayer.obj
 0001:00002ba0       ?size@?$vector@PAVICommand@@V?$allocator@PAVICommand@@@std@@@std@@QBEIXZ 00403ba0 f i GamePlayer.obj
 0001:00002bc0       ??A?$vector@PAVICommand@@V?$allocator@PAVICommand@@@std@@@std@@QAEAAPAVICommand@@I@Z 00403bc0 f i GamePlayer.obj
 0001:00002bf0       ??0?$pair@$$CBJPAVCBuffer@Win32@OnlineGameLib@@@std@@QAE@ABJABQAVCBuffer@Win32@OnlineGameLib@@@Z 00403bf0 f i GamePlayer.obj
 0001:00002c10       ??_E?$basic_ios@DU?$char_traits@D@std@@@std@@UAEPAXI@Z 00403c10 f i GamePlayer.obj
 0001:00002c10       ??_G?$basic_ios@DU?$char_traits@D@std@@@std@@UAEPAXI@Z 00403c10 f i GamePlayer.obj
 0001:00002c40       ??_Glocale@std@@QAEPAXI@Z  00403c40 f i GamePlayer.obj
 0001:00002cb0       ??_D?$basic_ostream@DU?$char_traits@D@std@@@std@@QAEXXZ 00403cb0 f i GamePlayer.obj
 0001:00002cd0       ??_D?$basic_istream@DU?$char_traits@D@std@@@std@@QAEXXZ 00403cd0 f i GamePlayer.obj
 0001:00002cf0       ??_D?$basic_iostream@DU?$char_traits@D@std@@@std@@QAEXXZ 00403cf0 f i GamePlayer.obj
 0001:00002d40       ??0?$basic_ostream@DU?$char_traits@D@std@@@std@@QAE@W4_Uninitialized@1@_N@Z 00403d40 f i GamePlayer.obj
 0001:00002dd0       ?pubsync@?$basic_streambuf@DU?$char_traits@D@std@@@std@@QAEHXZ 00403dd0 f i GamePlayer.obj
 0001:00002de0       ?_Unlock@?$basic_streambuf@DU?$char_traits@D@std@@@std@@QAEXXZ 00403de0 f i GamePlayer.obj
 0001:00002df0       ?_Pnavail@?$basic_streambuf@DU?$char_traits@D@std@@@std@@IBEHXZ 00403df0 f i GamePlayer.obj
 0001:00002e10       ?capacity@?$vector@PAVICommand@@V?$allocator@PAVICommand@@@std@@@std@@QBEIXZ 00403e10 f i GamePlayer.obj
 0001:00002e30       ??0?$allocator@PAVICommand@@@std@@QAE@XZ 00403e30 f i GamePlayer.obj
 0001:00002e40       ?_Color@?$_Tree@V?$_Tmap_traits@V?$basic_string@DU?$char_traits@D@std@@V?$allocator@D@2@@std@@PAVIPlayer@@U?$less@V?$basic_string@DU?$char_traits@D@std@@V?$allocator@D@2@@std@@@2@V?$allocator@U?$pair@$$CBV?$basic_string@DU?$char_traits@D@std@@V?$allocator@D@2@@std@@PAVIPlayer@@@std@@@2@$0A@@std@@@std@@KAAADPAU_Node@?$_Tree_nod@V?$_Tmap_traits@V?$basic_string@DU?$char_traits@D@std@@V?$allocator@D@2@@std@@PAVIPlayer@@U?$less@V?$basic_string@DU?$char_traits@D@std@@V?$allocator@D@2@@std@@@2@V?$allocator@U?$pair@$$CBV?$basic_string@DU?$char_traits@D@std@@V?$allocator@D@2@@std@@PAVIPlayer@@@std@@@2@$0A@@std@@@2@@Z 00403e40 f i GamePlayer.obj
 0001:00002e50       ?_Isnil@?$_Tree@V?$_Tmap_traits@V?$basic_string@DU?$char_traits@D@std@@V?$allocator@D@2@@std@@PAVIPlayer@@U?$less@V?$basic_string@DU?$char_traits@D@std@@V?$allocator@D@2@@std@@@2@V?$allocator@U?$pair@$$CBV?$basic_string@DU?$char_traits@D@std@@V?$allocator@D@2@@std@@PAVIPlayer@@@std@@@2@$0A@@std@@@std@@KAAADPAU_Node@?$_Tree_nod@V?$_Tmap_traits@V?$basic_string@DU?$char_traits@D@std@@V?$allocator@D@2@@std@@PAVIPlayer@@U?$less@V?$basic_string@DU?$char_traits@D@std@@V?$allocator@D@2@@std@@@2@V?$allocator@U?$pair@$$CBV?$basic_string@DU?$char_traits@D@std@@V?$allocator@D@2@@std@@PAVIPlayer@@@std@@@2@$0A@@std@@@2@@Z 00403e50 f i GamePlayer.obj
 0001:00002e60       ?_Left@?$_Tree@V?$_Tmap_traits@V?$basic_string@DU?$char_traits@D@std@@V?$allocator@D@2@@std@@PAVIPlayer@@U?$less@V?$basic_string@DU?$char_traits@D@std@@V?$allocator@D@2@@std@@@2@V?$allocator@U?$pair@$$CBV?$basic_string@DU?$char_traits@D@std@@V?$allocator@D@2@@std@@PAVIPlayer@@@std@@@2@$0A@@std@@@std@@KAAAPAU_Node@?$_Tree_nod@V?$_Tmap_traits@V?$basic_string@DU?$char_traits@D@std@@V?$allocator@D@2@@std@@PAVIPlayer@@U?$less@V?$basic_string@DU?$char_traits@D@std@@V?$allocator@D@2@@std@@@2@V?$allocator@U?$pair@$$CBV?$basic_string@DU?$char_traits@D@std@@V?$allocator@D@2@@std@@PAVIPlayer@@@std@@@2@$0A@@std@@@2@PAU342@@Z 00403e60 f i GamePlayer.obj
 0001:00002e70       ?_Parent@?$_Tree@V?$_Tmap_traits@V?$basic_string@DU?$char_traits@D@std@@V?$allocator@D@2@@std@@PAVIPlayer@@U?$less@V?$basic_string@DU?$char_traits@D@std@@V?$allocator@D@2@@std@@@2@V?$allocator@U?$pair@$$CBV?$basic_string@DU?$char_traits@D@std@@V?$allocator@D@2@@std@@PAVIPlayer@@@std@@@2@$0A@@std@@@std@@KAAAPAU_Node@?$_Tree_nod@V?$_Tmap_traits@V?$basic_string@DU?$char_traits@D@std@@V?$allocator@D@2@@std@@PAVIPlayer@@U?$less@V?$basic_string@DU?$char_traits@D@std@@V?$allocator@D@2@@std@@@2@V?$allocator@U?$pair@$$CBV?$basic_string@DU?$char_traits@D@std@@V?$allocator@D@2@@std@@PAVIPlayer@@@std@@@2@$0A@@std@@@2@PAU342@@Z 00403e70 f i GamePlayer.obj
 0001:00002e80       ?_Right@?$_Tree@V?$_Tmap_traits@V?$basic_string@DU?$char_traits@D@std@@V?$allocator@D@2@@std@@PAVIPlayer@@U?$less@V?$basic_string@DU?$char_traits@D@std@@V?$allocator@D@2@@std@@@2@V?$allocator@U?$pair@$$CBV?$basic_string@DU?$char_traits@D@std@@V?$allocator@D@2@@std@@PAVIPlayer@@@std@@@2@$0A@@std@@@std@@KAAAPAU_Node@?$_Tree_nod@V?$_Tmap_traits@V?$basic_string@DU?$char_traits@D@std@@V?$allocator@D@2@@std@@PAVIPlayer@@U?$less@V?$basic_string@DU?$char_traits@D@std@@V?$allocator@D@2@@std@@@2@V?$allocator@U?$pair@$$CBV?$basic_string@DU?$char_traits@D@std@@V?$allocator@D@2@@std@@PAVIPlayer@@@std@@@2@$0A@@std@@@2@PAU342@@Z 00403e80 f i GamePlayer.obj
 0001:00002e90       ?_Lmost@?$_Tree@V?$_Tmap_traits@V?$basic_string@DU?$char_traits@D@std@@V?$allocator@D@2@@std@@PAVIPlayer@@U?$less@V?$basic_string@DU?$char_traits@D@std@@V?$allocator@D@2@@std@@@2@V?$allocator@U?$pair@$$CBV?$basic_string@DU?$char_traits@D@std@@V?$allocator@D@2@@std@@PAVIPlayer@@@std@@@2@$0A@@std@@@std@@IBEAAPAU_Node@?$_Tree_nod@V?$_Tmap_traits@V?$basic_string@DU?$char_traits@D@std@@V?$allocator@D@2@@std@@PAVIPlayer@@U?$less@V?$basic_string@DU?$char_traits@D@std@@V?$allocator@D@2@@std@@@2@V?$allocator@U?$pair@$$CBV?$basic_string@DU?$char_traits@D@std@@V?$allocator@D@2@@std@@PAVIPlayer@@@std@@@2@$0A@@std@@@2@XZ 00403e90 f i GamePlayer.obj
 0001:00002ea0       ?_Max@?$_Tree@V?$_Tmap_traits@V?$basic_string@DU?$char_traits@D@std@@V?$allocator@D@2@@std@@PAVIPlayer@@U?$less@V?$basic_string@DU?$char_traits@D@std@@V?$allocator@D@2@@std@@@2@V?$allocator@U?$pair@$$CBV?$basic_string@DU?$char_traits@D@std@@V?$allocator@D@2@@std@@PAVIPlayer@@@std@@@2@$0A@@std@@@std@@KAPAU_Node@?$_Tree_nod@V?$_Tmap_traits@V?$basic_string@DU?$char_traits@D@std@@V?$allocator@D@2@@std@@PAVIPlayer@@U?$less@V?$basic_string@DU?$char_traits@D@std@@V?$allocator@D@2@@std@@@2@V?$allocator@U?$pair@$$CBV?$basic_string@DU?$char_traits@D@std@@V?$allocator@D@2@@std@@PAVIPlayer@@@std@@@2@$0A@@std@@@2@PAU342@@Z 00403ea0 f i GamePlayer.obj
 0001:00002ec0       ?_Min@?$_Tree@V?$_Tmap_traits@V?$basic_string@DU?$char_traits@D@std@@V?$allocator@D@2@@std@@PAVIPlayer@@U?$less@V?$basic_string@DU?$char_traits@D@std@@V?$allocator@D@2@@std@@@2@V?$allocator@U?$pair@$$CBV?$basic_string@DU?$char_traits@D@std@@V?$allocator@D@2@@std@@PAVIPlayer@@@std@@@2@$0A@@std@@@std@@KAPAU_Node@?$_Tree_nod@V?$_Tmap_traits@V?$basic_string@DU?$char_traits@D@std@@V?$allocator@D@2@@std@@PAVIPlayer@@U?$less@V?$basic_string@DU?$char_traits@D@std@@V?$allocator@D@2@@std@@@2@V?$allocator@U?$pair@$$CBV?$basic_string@DU?$char_traits@D@std@@V?$allocator@D@2@@std@@PAVIPlayer@@@std@@@2@$0A@@std@@@2@PAU342@@Z 00403ec0 f i GamePlayer.obj
 0001:00002ee0       ?_Rmost@?$_Tree@V?$_Tmap_traits@V?$basic_string@DU?$char_traits@D@std@@V?$allocator@D@2@@std@@PAVIPlayer@@U?$less@V?$basic_string@DU?$char_traits@D@std@@V?$allocator@D@2@@std@@@2@V?$allocator@U?$pair@$$CBV?$basic_string@DU?$char_traits@D@std@@V?$allocator@D@2@@std@@PAVIPlayer@@@std@@@2@$0A@@std@@@std@@IBEAAPAU_Node@?$_Tree_nod@V?$_Tmap_traits@V?$basic_string@DU?$char_traits@D@std@@V?$allocator@D@2@@std@@PAVIPlayer@@U?$less@V?$basic_string@DU?$char_traits@D@std@@V?$allocator@D@2@@std@@@2@V?$allocator@U?$pair@$$CBV?$basic_string@DU?$char_traits@D@std@@V?$allocator@D@2@@std@@PAVIPlayer@@@std@@@2@$0A@@std@@@2@XZ 00403ee0 f i GamePlayer.obj
 0001:00002ef0       ?_Root@?$_Tree@V?$_Tmap_traits@V?$basic_string@DU?$char_traits@D@std@@V?$allocator@D@2@@std@@PAVIPlayer@@U?$less@V?$basic_string@DU?$char_traits@D@std@@V?$allocator@D@2@@std@@@2@V?$allocator@U?$pair@$$CBV?$basic_string@DU?$char_traits@D@std@@V?$allocator@D@2@@std@@PAVIPlayer@@@std@@@2@$0A@@std@@@std@@IBEAAPAU_Node@?$_Tree_nod@V?$_Tmap_traits@V?$basic_string@DU?$char_traits@D@std@@V?$allocator@D@2@@std@@PAVIPlayer@@U?$less@V?$basic_string@DU?$char_traits@D@std@@V?$allocator@D@2@@std@@@2@V?$allocator@U?$pair@$$CBV?$basic_string@DU?$char_traits@D@std@@V?$allocator@D@2@@std@@PAVIPlayer@@@std@@@2@$0A@@std@@@2@XZ 00403ef0 f i GamePlayer.obj
 0001:00002f00       ?_Rrotate@?$_Tree@V?$_Tmap_traits@V?$basic_string@DU?$char_traits@D@std@@V?$allocator@D@2@@std@@PAVIPlayer@@U?$less@V?$basic_string@DU?$char_traits@D@std@@V?$allocator@D@2@@std@@@2@V?$allocator@U?$pair@$$CBV?$basic_string@DU?$char_traits@D@std@@V?$allocator@D@2@@std@@PAVIPlayer@@@std@@@2@$0A@@std@@@std@@IAEXPAU_Node@?$_Tree_nod@V?$_Tmap_traits@V?$basic_string@DU?$char_traits@D@std@@V?$allocator@D@2@@std@@PAVIPlayer@@U?$less@V?$basic_string@DU?$char_traits@D@std@@V?$allocator@D@2@@std@@@2@V?$allocator@U?$pair@$$CBV?$basic_string@DU?$char_traits@D@std@@V?$allocator@D@2@@std@@PAVIPlayer@@@std@@@2@$0A@@std@@@2@@Z 00403f00 f i GamePlayer.obj
 0001:00002f60       ?_Kfn@?$_Tmap_traits@V?$basic_string@DU?$char_traits@D@std@@V?$allocator@D@2@@std@@PAVIPlayer@@U?$less@V?$basic_string@DU?$char_traits@D@std@@V?$allocator@D@2@@std@@@2@V?$allocator@U?$pair@$$CBV?$basic_string@DU?$char_traits@D@std@@V?$allocator@D@2@@std@@PAVIPlayer@@@std@@@2@$0A@@std@@SAABV?$basic_string@DU?$char_traits@D@std@@V?$allocator@D@2@@2@ABU?$pair@$$CBV?$basic_string@DU?$char_traits@D@std@@V?$allocator@D@2@@std@@PAVIPlayer@@@2@@Z 00403f60 f i GamePlayer.obj
 0001:00002f70       ??0?$allocator@U?$pair@$$CBV?$basic_string@DU?$char_traits@D@std@@V?$allocator@D@2@@std@@PAVIPlayer@@@std@@@std@@QAE@XZ 00403f70 f i GamePlayer.obj
 0001:00002f80       ?deallocate@?$allocator@U_Node@?$_Tree_nod@V?$_Tmap_traits@V?$basic_string@DU?$char_traits@D@std@@V?$allocator@D@2@@std@@PAVIPlayer@@U?$less@V?$basic_string@DU?$char_traits@D@std@@V?$allocator@D@2@@std@@@2@V?$allocator@U?$pair@$$CBV?$basic_string@DU?$char_traits@D@std@@V?$allocator@D@2@@std@@PAVIPlayer@@@std@@@2@$0A@@std@@@std@@@std@@QAEXPAU_Node@?$_Tree_nod@V?$_Tmap_traits@V?$basic_string@DU?$char_traits@D@std@@V?$allocator@D@2@@std@@PAVIPlayer@@U?$less@V?$basic_string@DU?$char_traits@D@std@@V?$allocator@D@2@@std@@@2@V?$allocator@U?$pair@$$CBV?$basic_string@DU?$char_traits@D@std@@V?$allocator@D@2@@std@@PAVIPlayer@@@std@@@2@$0A@@std@@@2@I@Z 00403f80 f i GamePlayer.obj
 0001:00002f90       ?_Color@?$_Tree@V?$_Tmap_traits@JPAVCBuffer@Win32@OnlineGameLib@@U?$less@J@std@@V?$allocator@U?$pair@$$CBJPAVCBuffer@Win32@OnlineGameLib@@@std@@@5@$0A@@std@@@std@@KAAADPAU_Node@?$_Tree_nod@V?$_Tmap_traits@JPAVCBuffer@Win32@OnlineGameLib@@U?$less@J@std@@V?$allocator@U?$pair@$$CBJPAVCBuffer@Win32@OnlineGameLib@@@std@@@5@$0A@@std@@@2@@Z 00403f90 f i GamePlayer.obj
 0001:00002fa0       ?_Isnil@?$_Tree@V?$_Tmap_traits@JPAVCBuffer@Win32@OnlineGameLib@@U?$less@J@std@@V?$allocator@U?$pair@$$CBJPAVCBuffer@Win32@OnlineGameLib@@@std@@@5@$0A@@std@@@std@@KAAADPAU_Node@?$_Tree_nod@V?$_Tmap_traits@JPAVCBuffer@Win32@OnlineGameLib@@U?$less@J@std@@V?$allocator@U?$pair@$$CBJPAVCBuffer@Win32@OnlineGameLib@@@std@@@5@$0A@@std@@@2@@Z 00403fa0 f i GamePlayer.obj
 0001:00002fb0       ?_Left@?$_Tree@V?$_Tmap_traits@JPAVCBuffer@Win32@OnlineGameLib@@U?$less@J@std@@V?$allocator@U?$pair@$$CBJPAVCBuffer@Win32@OnlineGameLib@@@std@@@5@$0A@@std@@@std@@KAAAPAU_Node@?$_Tree_nod@V?$_Tmap_traits@JPAVCBuffer@Win32@OnlineGameLib@@U?$less@J@std@@V?$allocator@U?$pair@$$CBJPAVCBuffer@Win32@OnlineGameLib@@@std@@@5@$0A@@std@@@2@PAU342@@Z 00403fb0 f i GamePlayer.obj
 0001:00002fc0       ?_Parent@?$_Tree@V?$_Tmap_traits@JPAVCBuffer@Win32@OnlineGameLib@@U?$less@J@std@@V?$allocator@U?$pair@$$CBJPAVCBuffer@Win32@OnlineGameLib@@@std@@@5@$0A@@std@@@std@@KAAAPAU_Node@?$_Tree_nod@V?$_Tmap_traits@JPAVCBuffer@Win32@OnlineGameLib@@U?$less@J@std@@V?$allocator@U?$pair@$$CBJPAVCBuffer@Win32@OnlineGameLib@@@std@@@5@$0A@@std@@@2@PAU342@@Z 00403fc0 f i GamePlayer.obj
 0001:00002fd0       ?_Right@?$_Tree@V?$_Tmap_traits@JPAVCBuffer@Win32@OnlineGameLib@@U?$less@J@std@@V?$allocator@U?$pair@$$CBJPAVCBuffer@Win32@OnlineGameLib@@@std@@@5@$0A@@std@@@std@@KAAAPAU_Node@?$_Tree_nod@V?$_Tmap_traits@JPAVCBuffer@Win32@OnlineGameLib@@U?$less@J@std@@V?$allocator@U?$pair@$$CBJPAVCBuffer@Win32@OnlineGameLib@@@std@@@5@$0A@@std@@@2@PAU342@@Z 00403fd0 f i GamePlayer.obj
 0001:00002fe0       ?_Lmost@?$_Tree@V?$_Tmap_traits@JPAVCBuffer@Win32@OnlineGameLib@@U?$less@J@std@@V?$allocator@U?$pair@$$CBJPAVCBuffer@Win32@OnlineGameLib@@@std@@@5@$0A@@std@@@std@@IBEAAPAU_Node@?$_Tree_nod@V?$_Tmap_traits@JPAVCBuffer@Win32@OnlineGameLib@@U?$less@J@std@@V?$allocator@U?$pair@$$CBJPAVCBuffer@Win32@OnlineGameLib@@@std@@@5@$0A@@std@@@2@XZ 00403fe0 f i GamePlayer.obj
 0001:00002ff0       ?_Max@?$_Tree@V?$_Tmap_traits@JPAVCBuffer@Win32@OnlineGameLib@@U?$less@J@std@@V?$allocator@U?$pair@$$CBJPAVCBuffer@Win32@OnlineGameLib@@@std@@@5@$0A@@std@@@std@@KAPAU_Node@?$_Tree_nod@V?$_Tmap_traits@JPAVCBuffer@Win32@OnlineGameLib@@U?$less@J@std@@V?$allocator@U?$pair@$$CBJPAVCBuffer@Win32@OnlineGameLib@@@std@@@5@$0A@@std@@@2@PAU342@@Z 00403ff0 f i GamePlayer.obj
 0001:00003010       ?_Min@?$_Tree@V?$_Tmap_traits@JPAVCBuffer@Win32@OnlineGameLib@@U?$less@J@std@@V?$allocator@U?$pair@$$CBJPAVCBuffer@Win32@OnlineGameLib@@@std@@@5@$0A@@std@@@std@@KAPAU_Node@?$_Tree_nod@V?$_Tmap_traits@JPAVCBuffer@Win32@OnlineGameLib@@U?$less@J@std@@V?$allocator@U?$pair@$$CBJPAVCBuffer@Win32@OnlineGameLib@@@std@@@5@$0A@@std@@@2@PAU342@@Z 00404010 f i GamePlayer.obj
 0001:00003030       ?_Rmost@?$_Tree@V?$_Tmap_traits@JPAVCBuffer@Win32@OnlineGameLib@@U?$less@J@std@@V?$allocator@U?$pair@$$CBJPAVCBuffer@Win32@OnlineGameLib@@@std@@@5@$0A@@std@@@std@@IBEAAPAU_Node@?$_Tree_nod@V?$_Tmap_traits@JPAVCBuffer@Win32@OnlineGameLib@@U?$less@J@std@@V?$allocator@U?$pair@$$CBJPAVCBuffer@Win32@OnlineGameLib@@@std@@@5@$0A@@std@@@2@XZ 00404030 f i GamePlayer.obj
 0001:00003040       ?_Root@?$_Tree@V?$_Tmap_traits@JPAVCBuffer@Win32@OnlineGameLib@@U?$less@J@std@@V?$allocator@U?$pair@$$CBJPAVCBuffer@Win32@OnlineGameLib@@@std@@@5@$0A@@std@@@std@@IBEAAPAU_Node@?$_Tree_nod@V?$_Tmap_traits@JPAVCBuffer@Win32@OnlineGameLib@@U?$less@J@std@@V?$allocator@U?$pair@$$CBJPAVCBuffer@Win32@OnlineGameLib@@@std@@@5@$0A@@std@@@2@XZ 00404040 f i GamePlayer.obj
 0001:00003050       ?_Rrotate@?$_Tree@V?$_Tmap_traits@JPAVCBuffer@Win32@OnlineGameLib@@U?$less@J@std@@V?$allocator@U?$pair@$$CBJPAVCBuffer@Win32@OnlineGameLib@@@std@@@5@$0A@@std@@@std@@IAEXPAU_Node@?$_Tree_nod@V?$_Tmap_traits@JPAVCBuffer@Win32@OnlineGameLib@@U?$less@J@std@@V?$allocator@U?$pair@$$CBJPAVCBuffer@Win32@OnlineGameLib@@@std@@@5@$0A@@std@@@2@@Z 00404050 f i GamePlayer.obj
 0001:000030b0       ?_Kfn@?$_Tmap_traits@JPAVCBuffer@Win32@OnlineGameLib@@U?$less@J@std@@V?$allocator@U?$pair@$$CBJPAVCBuffer@Win32@OnlineGameLib@@@std@@@5@$0A@@std@@SAABJABU?$pair@$$CBJPAVCBuffer@Win32@OnlineGameLib@@@2@@Z 004040b0 f i GamePlayer.obj
 0001:000030c0       ??0?$allocator@U?$pair@$$CBJPAVCBuffer@Win32@OnlineGameLib@@@std@@@std@@QAE@XZ 004040c0 f i GamePlayer.obj
 0001:000030d0       ??R?$less@J@std@@QBE_NABJ0@Z 004040d0 f i GamePlayer.obj
 0001:000030f0       ?deallocate@?$allocator@U_Node@?$_Tree_nod@V?$_Tmap_traits@JPAVCBuffer@Win32@OnlineGameLib@@U?$less@J@std@@V?$allocator@U?$pair@$$CBJPAVCBuffer@Win32@OnlineGameLib@@@std@@@5@$0A@@std@@@std@@@std@@QAEXPAU_Node@?$_Tree_nod@V?$_Tmap_traits@JPAVCBuffer@Win32@OnlineGameLib@@U?$less@J@std@@V?$allocator@U?$pair@$$CBJPAVCBuffer@Win32@OnlineGameLib@@@std@@@5@$0A@@std@@@2@I@Z 004040f0 f i GamePlayer.obj
 0001:00003100       ??D?$_Vector_const_iterator@PAVICommand@@V?$allocator@PAVICommand@@@std@@@std@@QBEABQAVICommand@@XZ 00404100 f i GamePlayer.obj
 0001:00003130       ??8?$_Vector_const_iterator@PAVICommand@@V?$allocator@PAVICommand@@@std@@@std@@QBE_NABV01@@Z 00404130 f i GamePlayer.obj
 0001:00003160       ??8const_iterator@?$_Tree@V?$_Tmap_traits@JPAVCBuffer@Win32@OnlineGameLib@@U?$less@J@std@@V?$allocator@U?$pair@$$CBJPAVCBuffer@Win32@OnlineGameLib@@@std@@@5@$0A@@std@@@std@@QBE_NABV012@@Z 00404160 f i GamePlayer.obj
 0001:00003190       ?_Mynode@const_iterator@?$_Tree@V?$_Tmap_traits@JPAVCBuffer@Win32@OnlineGameLib@@U?$less@J@std@@V?$allocator@U?$pair@$$CBJPAVCBuffer@Win32@OnlineGameLib@@@std@@@5@$0A@@std@@@std@@QBEPAU_Node@?$_Tree_nod@V?$_Tmap_traits@JPAVCBuffer@Win32@OnlineGameLib@@U?$less@J@std@@V?$allocator@U?$pair@$$CBJPAVCBuffer@Win32@OnlineGameLib@@@std@@@5@$0A@@std@@@3@XZ 00404190 f i GamePlayer.obj
 0001:000031a0       ??0?$pair@Viterator@?$_Tree@V?$_Tmap_traits@JPAVCBuffer@Win32@OnlineGameLib@@U?$less@J@std@@V?$allocator@U?$pair@$$CBJPAVCBuffer@Win32@OnlineGameLib@@@std@@@5@$0A@@std@@@std@@_N@std@@QAE@ABViterator@?$_Tree@V?$_Tmap_traits@JPAVCBuffer@Win32@OnlineGameLib@@U?$less@J@std@@V?$allocator@U?$pair@$$CBJPAVCBuffer@Win32@OnlineGameLib@@@std@@@5@$0A@@std@@@1@AB_N@Z 004041a0 f i GamePlayer.obj
 0001:000031c0       ??8const_iterator@?$_Tree@V?$_Tmap_traits@V?$basic_string@DU?$char_traits@D@std@@V?$allocator@D@2@@std@@PAVIPlayer@@U?$less@V?$basic_string@DU?$char_traits@D@std@@V?$allocator@D@2@@std@@@2@V?$allocator@U?$pair@$$CBV?$basic_string@DU?$char_traits@D@std@@V?$allocator@D@2@@std@@PAVIPlayer@@@std@@@2@$0A@@std@@@std@@QBE_NABV012@@Z 004041c0 f i GamePlayer.obj
 0001:000031f0       ?_Mynode@const_iterator@?$_Tree@V?$_Tmap_traits@V?$basic_string@DU?$char_traits@D@std@@V?$allocator@D@2@@std@@PAVIPlayer@@U?$less@V?$basic_string@DU?$char_traits@D@std@@V?$allocator@D@2@@std@@@2@V?$allocator@U?$pair@$$CBV?$basic_string@DU?$char_traits@D@std@@V?$allocator@D@2@@std@@PAVIPlayer@@@std@@@2@$0A@@std@@@std@@QBEPAU_Node@?$_Tree_nod@V?$_Tmap_traits@V?$basic_string@DU?$char_traits@D@std@@V?$allocator@D@2@@std@@PAVIPlayer@@U?$less@V?$basic_string@DU?$char_traits@D@std@@V?$allocator@D@2@@std@@@2@V?$allocator@U?$pair@$$CBV?$basic_string@DU?$char_traits@D@std@@V?$allocator@D@2@@std@@PAVIPlayer@@@std@@@2@$0A@@std@@@3@XZ 004041f0 f i GamePlayer.obj
 0001:00003200       ??0?$pair@Viterator@?$_Tree@V?$_Tmap_traits@V?$basic_string@DU?$char_traits@D@std@@V?$allocator@D@2@@std@@PAVIPlayer@@U?$less@V?$basic_string@DU?$char_traits@D@std@@V?$allocator@D@2@@std@@@2@V?$allocator@U?$pair@$$CBV?$basic_string@DU?$char_traits@D@std@@V?$allocator@D@2@@std@@PAVIPlayer@@@std@@@2@$0A@@std@@@std@@_N@std@@QAE@ABViterator@?$_Tree@V?$_Tmap_traits@V?$basic_string@DU?$char_traits@D@std@@V?$allocator@D@2@@std@@PAVIPlayer@@U?$less@V?$basic_string@DU?$char_traits@D@std@@V?$allocator@D@2@@std@@@2@V?$allocator@U?$pair@$$CBV?$basic_string@DU?$char_traits@D@std@@V?$allocator@D@2@@std@@PAVIPlayer@@@std@@@2@$0A@@std@@@1@AB_N@Z 00404200 f i GamePlayer.obj
 0001:00003220       ??Bsentry@?$basic_ostream@DU?$char_traits@D@std@@@std@@QBE_NXZ 00404220 f i GamePlayer.obj
 0001:00003230       ??0?$_Ranit@PAVICommand@@HPBQAV1@ABQAV1@@std@@QAE@XZ 00404230 f i GamePlayer.obj
 0001:00003240       ??0?$_Bidit@U?$pair@$$CBJPAVCBuffer@Win32@OnlineGameLib@@@std@@HPBU12@ABU12@@std@@QAE@XZ 00404240 f i GamePlayer.obj
 0001:00003250       ??0?$_Bidit@U?$pair@$$CBV?$basic_string@DU?$char_traits@D@std@@V?$allocator@D@2@@std@@PAVIPlayer@@@std@@HPBU12@ABU12@@std@@QAE@XZ 00404250 f i GamePlayer.obj
 0001:00003260       ?tie@?$basic_ios@DU?$char_traits@D@std@@@std@@QBEPAV?$basic_ostream@DU?$char_traits@D@std@@@2@XZ 00404260 f i GamePlayer.obj
 0001:00003270       ?_Lock@?$basic_streambuf@DU?$char_traits@D@std@@@std@@QAEXXZ 00404270 f i GamePlayer.obj
 0001:00003280       ??0?$allocator@PAVICommand@@@std@@QAE@ABV01@@Z 00404280 f i GamePlayer.obj
 0001:00003290       ?deallocate@?$allocator@PAVICommand@@@std@@QAEXPAPAVICommand@@I@Z 00404290 f i GamePlayer.obj
 0001:000032a0       ?_Myval@?$_Tree@V?$_Tmap_traits@V?$basic_string@DU?$char_traits@D@std@@V?$allocator@D@2@@std@@PAVIPlayer@@U?$less@V?$basic_string@DU?$char_traits@D@std@@V?$allocator@D@2@@std@@@2@V?$allocator@U?$pair@$$CBV?$basic_string@DU?$char_traits@D@std@@V?$allocator@D@2@@std@@PAVIPlayer@@@std@@@2@$0A@@std@@@std@@KAAAU?$pair@$$CBV?$basic_string@DU?$char_traits@D@std@@V?$allocator@D@2@@std@@PAVIPlayer@@@2@PAU_Node@?$_Tree_nod@V?$_Tmap_traits@V?$basic_string@DU?$char_traits@D@std@@V?$allocator@D@2@@std@@PAVIPlayer@@U?$less@V?$basic_string@DU?$char_traits@D@std@@V?$allocator@D@2@@std@@@2@V?$allocator@U?$pair@$$CBV?$basic_string@DU?$char_traits@D@std@@V?$allocator@D@2@@std@@PAVIPlayer@@@std@@@2@$0A@@std@@@2@@Z 004042a0 f i GamePlayer.obj
 0001:000032b0       ??0?$allocator@U?$pair@$$CBV?$basic_string@DU?$char_traits@D@std@@V?$allocator@D@2@@std@@PAVIPlayer@@@std@@@std@@QAE@ABV01@@Z 004042b0 f i GamePlayer.obj
 0001:000032c0       ?_Myval@?$_Tree@V?$_Tmap_traits@JPAVCBuffer@Win32@OnlineGameLib@@U?$less@J@std@@V?$allocator@U?$pair@$$CBJPAVCBuffer@Win32@OnlineGameLib@@@std@@@5@$0A@@std@@@std@@KAAAU?$pair@$$CBJPAVCBuffer@Win32@OnlineGameLib@@@2@PAU_Node@?$_Tree_nod@V?$_Tmap_traits@JPAVCBuffer@Win32@OnlineGameLib@@U?$less@J@std@@V?$allocator@U?$pair@$$CBJPAVCBuffer@Win32@OnlineGameLib@@@std@@@5@$0A@@std@@@2@@Z 004042c0 f i GamePlayer.obj
 0001:000032d0       ??0?$allocator@U?$pair@$$CBJPAVCBuffer@Win32@OnlineGameLib@@@std@@@std@@QAE@ABV01@@Z 004042d0 f i GamePlayer.obj
 0001:000032e0       ??0?$_Vector_const_iterator@PAVICommand@@V?$allocator@PAVICommand@@@std@@@std@@QAE@PAPAVICommand@@PBU_Container_base@1@@Z 004042e0 f i GamePlayer.obj
 0001:00003320       ??E?$_Vector_const_iterator@PAVICommand@@V?$allocator@PAVICommand@@@std@@@std@@QAEAAV01@XZ 00404320 f i GamePlayer.obj
 0001:00003350       ??0const_iterator@?$_Tree@V?$_Tmap_traits@JPAVCBuffer@Win32@OnlineGameLib@@U?$less@J@std@@V?$allocator@U?$pair@$$CBJPAVCBuffer@Win32@OnlineGameLib@@@std@@@5@$0A@@std@@@std@@QAE@PAU_Node@?$_Tree_nod@V?$_Tmap_traits@JPAVCBuffer@Win32@OnlineGameLib@@U?$less@J@std@@V?$allocator@U?$pair@$$CBJPAVCBuffer@Win32@OnlineGameLib@@@std@@@5@$0A@@std@@@2@PBV12@@Z 00404350 f i GamePlayer.obj
 0001:00003380       ??0const_iterator@?$_Tree@V?$_Tmap_traits@V?$basic_string@DU?$char_traits@D@std@@V?$allocator@D@2@@std@@PAVIPlayer@@U?$less@V?$basic_string@DU?$char_traits@D@std@@V?$allocator@D@2@@std@@@2@V?$allocator@U?$pair@$$CBV?$basic_string@DU?$char_traits@D@std@@V?$allocator@D@2@@std@@PAVIPlayer@@@std@@@2@$0A@@std@@@std@@QAE@PAU_Node@?$_Tree_nod@V?$_Tmap_traits@V?$basic_string@DU?$char_traits@D@std@@V?$allocator@D@2@@std@@PAVIPlayer@@U?$less@V?$basic_string@DU?$char_traits@D@std@@V?$allocator@D@2@@std@@@2@V?$allocator@U?$pair@$$CBV?$basic_string@DU?$char_traits@D@std@@V?$allocator@D@2@@std@@PAVIPlayer@@@std@@@2@$0A@@std@@@2@PBV12@@Z 00404380 f i GamePlayer.obj
 0001:000033b0       ??0_Sentry_base@?$basic_ostream@DU?$char_traits@D@std@@@std@@QAE@AAV12@@Z 004043b0 f i GamePlayer.obj
 0001:000033e0       ??1_Sentry_base@?$basic_ostream@DU?$char_traits@D@std@@@std@@QAE@XZ 004043e0 f i GamePlayer.obj
 0001:00003400       ?max_size@?$allocator@PAVICommand@@@std@@QBEIXZ 00404400 f i GamePlayer.obj
 0001:00003410       ?max_size@?$allocator@U?$pair@$$CBV?$basic_string@DU?$char_traits@D@std@@V?$allocator@D@2@@std@@PAVIPlayer@@@std@@@std@@QBEIXZ 00404410 f i GamePlayer.obj
 0001:00003420       ?max_size@?$allocator@U?$pair@$$CBJPAVCBuffer@Win32@OnlineGameLib@@@std@@@std@@QBEIXZ 00404420 f i GamePlayer.obj
 0001:00003430       ??G?$_Vector_const_iterator@PAVICommand@@V?$allocator@PAVICommand@@@std@@@std@@QBEHABV01@@Z 00404430 f i GamePlayer.obj
 0001:00003460       ?_Dec@const_iterator@?$_Tree@V?$_Tmap_traits@JPAVCBuffer@Win32@OnlineGameLib@@U?$less@J@std@@V?$allocator@U?$pair@$$CBJPAVCBuffer@Win32@OnlineGameLib@@@std@@@5@$0A@@std@@@std@@QAEXXZ 00404460 f i GamePlayer.obj
 0001:000034f0       ?_Inc@const_iterator@?$_Tree@V?$_Tmap_traits@JPAVCBuffer@Win32@OnlineGameLib@@U?$less@J@std@@V?$allocator@U?$pair@$$CBJPAVCBuffer@Win32@OnlineGameLib@@@std@@@5@$0A@@std@@@std@@QAEXXZ 004044f0 f i GamePlayer.obj
 0001:00003560       ?_Dec@const_iterator@?$_Tree@V?$_Tmap_traits@V?$basic_string@DU?$char_traits@D@std@@V?$allocator@D@2@@std@@PAVIPlayer@@U?$less@V?$basic_string@DU?$char_traits@D@std@@V?$allocator@D@2@@std@@@2@V?$allocator@U?$pair@$$CBV?$basic_string@DU?$char_traits@D@std@@V?$allocator@D@2@@std@@PAVIPlayer@@@std@@@2@$0A@@std@@@std@@QAEXXZ 00404560 f i GamePlayer.obj
 0001:000035f0       ?_Inc@const_iterator@?$_Tree@V?$_Tmap_traits@V?$basic_string@DU?$char_traits@D@std@@V?$allocator@D@2@@std@@PAVIPlayer@@U?$less@V?$basic_string@DU?$char_traits@D@std@@V?$allocator@D@2@@std@@@2@V?$allocator@U?$pair@$$CBV?$basic_string@DU?$char_traits@D@std@@V?$allocator@D@2@@std@@PAVIPlayer@@@std@@@2@$0A@@std@@@std@@QAEXXZ 004045f0 f i GamePlayer.obj
 0001:00003660       ??0_Node@?$_Tree_nod@V?$_Tmap_traits@JPAVCBuffer@Win32@OnlineGameLib@@U?$less@J@std@@V?$allocator@U?$pair@$$CBJPAVCBuffer@Win32@OnlineGameLib@@@std@@@5@$0A@@std@@@std@@QAE@PAU012@00ABU?$pair@$$CBJPAVCBuffer@Win32@OnlineGameLib@@@2@D@Z 00404660 f i GamePlayer.obj
 0001:000036a0       ??Y?$_Vector_const_iterator@PAVICommand@@V?$allocator@PAVICommand@@@std@@@std@@QAEAAV01@H@Z 004046a0 f i GamePlayer.obj
 0001:000036e0       ??0?$_Tmap_traits@V?$basic_string@DU?$char_traits@D@std@@V?$allocator@D@2@@std@@PAVIPlayer@@U?$less@V?$basic_string@DU?$char_traits@D@std@@V?$allocator@D@2@@std@@@2@V?$allocator@U?$pair@$$CBV?$basic_string@DU?$char_traits@D@std@@V?$allocator@D@2@@std@@PAVIPlayer@@@std@@@2@$0A@@std@@QAE@U?$less@V?$basic_string@DU?$char_traits@D@std@@V?$allocator@D@2@@std@@@1@@Z 004046e0 f i GamePlayer.obj
 0001:000036f0       ??0?$_Tmap_traits@JPAVCBuffer@Win32@OnlineGameLib@@U?$less@J@std@@V?$allocator@U?$pair@$$CBJPAVCBuffer@Win32@OnlineGameLib@@@std@@@5@$0A@@std@@QAE@U?$less@J@1@@Z 004046f0 f i GamePlayer.obj
 0001:00003700       ??$swap@D@std@@YAXAAD0@Z   00404700 f i GamePlayer.obj
 0001:00003720       ??$_Destroy@U_Node@?$_Tree_nod@V?$_Tmap_traits@JPAVCBuffer@Win32@OnlineGameLib@@U?$less@J@std@@V?$allocator@U?$pair@$$CBJPAVCBuffer@Win32@OnlineGameLib@@@std@@@5@$0A@@std@@@std@@@std@@YAXPAU_Node@?$_Tree_nod@V?$_Tmap_traits@JPAVCBuffer@Win32@OnlineGameLib@@U?$less@J@std@@V?$allocator@U?$pair@$$CBJPAVCBuffer@Win32@OnlineGameLib@@@std@@@5@$0A@@std@@@0@@Z 00404720 f i GamePlayer.obj
 0001:00003730       ??$_Allocate@PAVICommand@@@std@@YAPAPAVICommand@@IPAPAV1@@Z 00404730 f i GamePlayer.obj
 0001:00003790       ??$_Destroy@PAU_Node@?$_Tree_nod@V?$_Tmap_traits@V?$basic_string@DU?$char_traits@D@std@@V?$allocator@D@2@@std@@PAVIPlayer@@U?$less@V?$basic_string@DU?$char_traits@D@std@@V?$allocator@D@2@@std@@@2@V?$allocator@U?$pair@$$CBV?$basic_string@DU?$char_traits@D@std@@V?$allocator@D@2@@std@@PAVIPlayer@@@std@@@2@$0A@@std@@@std@@@std@@YAXPAPAU_Node@?$_Tree_nod@V?$_Tmap_traits@V?$basic_string@DU?$char_traits@D@std@@V?$allocator@D@2@@std@@PAVIPlayer@@U?$less@V?$basic_string@DU?$char_traits@D@std@@V?$allocator@D@2@@std@@@2@V?$allocator@U?$pair@$$CBV?$basic_string@DU?$char_traits@D@std@@V?$allocator@D@2@@std@@PAVIPlayer@@@std@@@2@$0A@@std@@@0@@Z 00404790 f i GamePlayer.obj
 0001:000037a0       ??$_Destroy@PAU_Node@?$_Tree_nod@V?$_Tmap_traits@JPAVCBuffer@Win32@OnlineGameLib@@U?$less@J@std@@V?$allocator@U?$pair@$$CBJPAVCBuffer@Win32@OnlineGameLib@@@std@@@5@$0A@@std@@@std@@@std@@YAXPAPAU_Node@?$_Tree_nod@V?$_Tmap_traits@JPAVCBuffer@Win32@OnlineGameLib@@U?$less@J@std@@V?$allocator@U?$pair@$$CBJPAVCBuffer@Win32@OnlineGameLib@@@std@@@5@$0A@@std@@@0@@Z 004047a0 f i GamePlayer.obj
 0001:000037b0       ??$?0U?$pair@$$CBV?$basic_string@DU?$char_traits@D@std@@V?$allocator@D@2@@std@@PAVIPlayer@@@std@@@?$allocator@PAU_Node@?$_Tree_nod@V?$_Tmap_traits@V?$basic_string@DU?$char_traits@D@std@@V?$allocator@D@2@@std@@PAVIPlayer@@U?$less@V?$basic_string@DU?$char_traits@D@std@@V?$allocator@D@2@@std@@@2@V?$allocator@U?$pair@$$CBV?$basic_string@DU?$char_traits@D@std@@V?$allocator@D@2@@std@@PAVIPlayer@@@std@@@2@$0A@@std@@@std@@@std@@QAE@ABV?$allocator@U?$pair@$$CBV?$basic_string@DU?$char_traits@D@std@@V?$allocator@D@2@@std@@PAVIPlayer@@@std@@@1@@Z 004047b0 f i GamePlayer.obj
 0001:000037c0       ??$_Allocate@U_Node@?$_Tree_nod@V?$_Tmap_traits@V?$basic_string@DU?$char_traits@D@std@@V?$allocator@D@2@@std@@PAVIPlayer@@U?$less@V?$basic_string@DU?$char_traits@D@std@@V?$allocator@D@2@@std@@@2@V?$allocator@U?$pair@$$CBV?$basic_string@DU?$char_traits@D@std@@V?$allocator@D@2@@std@@PAVIPlayer@@@std@@@2@$0A@@std@@@std@@@std@@YAPAU_Node@?$_Tree_nod@V?$_Tmap_traits@V?$basic_string@DU?$char_traits@D@std@@V?$allocator@D@2@@std@@PAVIPlayer@@U?$less@V?$basic_string@DU?$char_traits@D@std@@V?$allocator@D@2@@std@@@2@V?$allocator@U?$pair@$$CBV?$basic_string@DU?$char_traits@D@std@@V?$allocator@D@2@@std@@PAVIPlayer@@@std@@@2@$0A@@std@@@0@IPAU120@@Z 004047c0 f i GamePlayer.obj
 0001:00003820       ??$?0U?$pair@$$CBJPAVCBuffer@Win32@OnlineGameLib@@@std@@@?$allocator@PAU_Node@?$_Tree_nod@V?$_Tmap_traits@JPAVCBuffer@Win32@OnlineGameLib@@U?$less@J@std@@V?$allocator@U?$pair@$$CBJPAVCBuffer@Win32@OnlineGameLib@@@std@@@5@$0A@@std@@@std@@@std@@QAE@ABV?$allocator@U?$pair@$$CBJPAVCBuffer@Win32@OnlineGameLib@@@std@@@1@@Z 00404820 f i GamePlayer.obj
 0001:00003830       ??$_Allocate@U_Node@?$_Tree_nod@V?$_Tmap_traits@JPAVCBuffer@Win32@OnlineGameLib@@U?$less@J@std@@V?$allocator@U?$pair@$$CBJPAVCBuffer@Win32@OnlineGameLib@@@std@@@5@$0A@@std@@@std@@@std@@YAPAU_Node@?$_Tree_nod@V?$_Tmap_traits@JPAVCBuffer@Win32@OnlineGameLib@@U?$less@J@std@@V?$allocator@U?$pair@$$CBJPAVCBuffer@Win32@OnlineGameLib@@@std@@@5@$0A@@std@@@0@IPAU120@@Z 00404830 f i GamePlayer.obj
 0001:00003890       ??$?0U?$pair@$$CBV?$basic_string@DU?$char_traits@D@std@@V?$allocator@D@2@@std@@PAVIPlayer@@@std@@@?$allocator@U_Node@?$_Tree_nod@V?$_Tmap_traits@V?$basic_string@DU?$char_traits@D@std@@V?$allocator@D@2@@std@@PAVIPlayer@@U?$less@V?$basic_string@DU?$char_traits@D@std@@V?$allocator@D@2@@std@@@2@V?$allocator@U?$pair@$$CBV?$basic_string@DU?$char_traits@D@std@@V?$allocator@D@2@@std@@PAVIPlayer@@@std@@@2@$0A@@std@@@std@@@std@@QAE@ABV?$allocator@U?$pair@$$CBV?$basic_string@DU?$char_traits@D@std@@V?$allocator@D@2@@std@@PAVIPlayer@@@std@@@1@@Z 00404890 f i GamePlayer.obj
 0001:000038a0       ??$_Construct@PAU_Node@?$_Tree_nod@V?$_Tmap_traits@V?$basic_string@DU?$char_traits@D@std@@V?$allocator@D@2@@std@@PAVIPlayer@@U?$less@V?$basic_string@DU?$char_traits@D@std@@V?$allocator@D@2@@std@@@2@V?$allocator@U?$pair@$$CBV?$basic_string@DU?$char_traits@D@std@@V?$allocator@D@2@@std@@PAVIPlayer@@@std@@@2@$0A@@std@@@std@@PAU123@@std@@YAXPAPAU_Node@?$_Tree_nod@V?$_Tmap_traits@V?$basic_string@DU?$char_traits@D@std@@V?$allocator@D@2@@std@@PAVIPlayer@@U?$less@V?$basic_string@DU?$char_traits@D@std@@V?$allocator@D@2@@std@@@2@V?$allocator@U?$pair@$$CBV?$basic_string@DU?$char_traits@D@std@@V?$allocator@D@2@@std@@PAVIPlayer@@@std@@@2@$0A@@std@@@0@ABQAU120@@Z 004048a0 f i GamePlayer.obj
 0001:000038c0       ??$?0U?$pair@$$CBJPAVCBuffer@Win32@OnlineGameLib@@@std@@@?$allocator@U_Node@?$_Tree_nod@V?$_Tmap_traits@JPAVCBuffer@Win32@OnlineGameLib@@U?$less@J@std@@V?$allocator@U?$pair@$$CBJPAVCBuffer@Win32@OnlineGameLib@@@std@@@5@$0A@@std@@@std@@@std@@QAE@ABV?$allocator@U?$pair@$$CBJPAVCBuffer@Win32@OnlineGameLib@@@std@@@1@@Z 004048c0 f i GamePlayer.obj
 0001:000038d0       ??$_Construct@PAU_Node@?$_Tree_nod@V?$_Tmap_traits@JPAVCBuffer@Win32@OnlineGameLib@@U?$less@J@std@@V?$allocator@U?$pair@$$CBJPAVCBuffer@Win32@OnlineGameLib@@@std@@@5@$0A@@std@@@std@@PAU123@@std@@YAXPAPAU_Node@?$_Tree_nod@V?$_Tmap_traits@JPAVCBuffer@Win32@OnlineGameLib@@U?$less@J@std@@V?$allocator@U?$pair@$$CBJPAVCBuffer@Win32@OnlineGameLib@@@std@@@5@$0A@@std@@@0@ABQAU120@@Z 004048d0 f i GamePlayer.obj
 0001:000038f0       ??0ICommand@@QAE@XZ        004048f0 f i GamePlayer.obj
 0001:00003900       ??6?$basic_ostream@DU?$char_traits@D@std@@@std@@QAEAAV01@P6AAAV01@AAV01@@Z@Z 00404900 f i GamePlayer.obj
 0001:00003910       ?fill@?$basic_ios@DU?$char_traits@D@std@@@std@@QBEDXZ 00404910 f i GamePlayer.obj
 0001:00003920       ?put@?$num_put@DV?$ostreambuf_iterator@DU?$char_traits@D@std@@@std@@@std@@QBE?AV?$ostreambuf_iterator@DU?$char_traits@D@std@@@2@V32@AAVios_base@2@DJ@Z 00404920 f i GamePlayer.obj
 0001:00003960       ?failed@?$ostreambuf_iterator@DU?$char_traits@D@std@@@std@@QBE_NXZ 00404960 f i GamePlayer.obj
 0001:00003970       ??0?$_Iterator_with_base@Uoutput_iterator_tag@std@@XXXXU_Iterator_base@2@@std@@QAE@XZ 00404970 f i GamePlayer.obj
 0001:00003980       ??$_Iter_random@PAPAVICommand@@PAPAV1@@std@@YA?AUrandom_access_iterator_tag@0@ABQAPAVICommand@@0@Z 00404980 f i GamePlayer.obj
 0001:00003990       ??$_Ptr_cat@PAPAVICommand@@PAPAV1@@std@@YA?AU_Scalar_ptr_iterator_tag@0@AAPAPAVICommand@@0@Z 00404990 f i GamePlayer.obj
 0001:000039a0       ??$_Copy_opt@PAPAVICommand@@PAPAV1@Urandom_access_iterator_tag@std@@@std@@YAPAPAVICommand@@PAPAV1@00Urandom_access_iterator_tag@0@U_Scalar_ptr_iterator_tag@0@U_Range_checked_iterator_tag@0@@Z 004049a0 f i GamePlayer.obj
 0001:000039e0       ??$_Destroy_range@PAVICommand@@V?$allocator@PAVICommand@@@std@@@std@@YAXPAPAVICommand@@0AAV?$allocator@PAVICommand@@@0@U_Scalar_ptr_iterator_tag@0@@Z 004049e0 f i GamePlayer.obj
 0001:000039f0       ??$_Fill@PAPAVICommand@@PAV1@@std@@YAXPAPAVICommand@@0ABQAV1@@Z 004049f0 f i GamePlayer.obj
 0001:00003a10       ??$_Move_cat@PAPAVICommand@@@std@@YA?AU_Undefined_move_tag@0@ABQAPAVICommand@@@Z 00404a10 f i GamePlayer.obj
 0001:00003a20       ?_Init@?$num_put@DV?$ostreambuf_iterator@DU?$char_traits@D@std@@@std@@@std@@IAEXABV_Locinfo@2@@Z 00404a20 f i GamePlayer.obj
 0001:00003a40       ??$_Checked_base@PAPAVICommand@@@std@@YAPAPAVICommand@@AAPAPAV1@U_Unchanged_checked_iterator_base_type_tag@0@@Z 00404a40 f i GamePlayer.obj
 0001:00003a50       ??$_Copy_backward_opt@PAPAVICommand@@PAPAV1@Urandom_access_iterator_tag@std@@@std@@YAPAPAVICommand@@PAPAV1@00Urandom_access_iterator_tag@0@U_Scalar_ptr_iterator_tag@0@U_Range_checked_iterator_tag@0@@Z 00404a50 f i GamePlayer.obj
 0001:00003a80       ??$_Iter_cat@PAPAVICommand@@@std@@YA?AUrandom_access_iterator_tag@0@ABQAPAVICommand@@@Z 00404a80 f i GamePlayer.obj
 0001:00003a90       ??$_Fill_n@PAPAVICommand@@IPAV1@@std@@YAXPAPAVICommand@@IABQAV1@U_Range_checked_iterator_tag@0@@Z 00404a90 f i GamePlayer.obj
 0001:00003ac0       ??$_Uninit_copy@PAPAVICommand@@PAPAV1@V?$allocator@PAVICommand@@@std@@@std@@YAPAPAVICommand@@PAPAV1@00AAV?$allocator@PAVICommand@@@0@U_Scalar_ptr_iterator_tag@0@U_Range_checked_iterator_tag@0@@Z 00404ac0 f i GamePlayer.obj
 0001:00003af0       ?freeze@strstreambuf@std@@QAEX_N@Z 00404af0 f i GamePlayer.obj
 0001:00003b50       ?str@strstreambuf@std@@QAEPADXZ 00404b50 f i GamePlayer.obj
 0001:00003b90       ?_Init@strstreambuf@std@@IAEXHPAD0H@Z 00404b90 f i GamePlayer.obj
 0001:00003c60       ?_Tidy@strstreambuf@std@@IAEXXZ 00404c60 f i GamePlayer.obj
 0001:00003cb0       ?freeze@strstream@std@@QAEX_N@Z 00404cb0 f i GamePlayer.obj
 0001:00003cc0       ?str@strstream@std@@QAEPADXZ 00404cc0 f i GamePlayer.obj
 0001:00003d00       ?Execute@CTask@CGamePlayer@@QAEIXZ 00404d00 f   GamePlayer.obj
 0001:00003d90       ??0?$basic_streambuf@DU?$char_traits@D@std@@@std@@IAE@XZ 00404d90 f i GamePlayer.obj
 0001:00003e40       ?to_char_type@?$char_traits@D@std@@SADABH@Z 00404e40 f i GamePlayer.obj
 0001:00003e50       ?gbump@?$basic_streambuf@DU?$char_traits@D@std@@@std@@IAEXH@Z 00404e50 f i GamePlayer.obj
 0001:00003e70       ?pbump@?$basic_streambuf@DU?$char_traits@D@std@@@std@@IAEXH@Z 00404e70 f i GamePlayer.obj
 0001:00003e90       ?overflow@?$basic_streambuf@DU?$char_traits@D@std@@@std@@MAEHH@Z 00404e90 f i GamePlayer.obj
 0001:00003ea0       ?pbackfail@?$basic_streambuf@DU?$char_traits@D@std@@@std@@MAEHH@Z 00404ea0 f i GamePlayer.obj
 0001:00003eb0       ?showmanyc@?$basic_streambuf@DU?$char_traits@D@std@@@std@@MAEHXZ 00404eb0 f i GamePlayer.obj
 0001:00003ec0       ?underflow@?$basic_streambuf@DU?$char_traits@D@std@@@std@@MAEHXZ 00404ec0 f i GamePlayer.obj
 0001:00003ed0       ?xsgetn@?$basic_streambuf@DU?$char_traits@D@std@@@std@@MAEHPADH@Z 00404ed0 f i GamePlayer.obj
 0001:00003ef0       ?setbuf@?$basic_streambuf@DU?$char_traits@D@std@@@std@@MAEPAV12@PADH@Z 00404ef0 f i GamePlayer.obj
 0001:00003f00       ?sync@?$basic_streambuf@DU?$char_traits@D@std@@@std@@MAEHXZ 00404f00 f i GamePlayer.obj
 0001:00003f10       ?imbue@?$basic_streambuf@DU?$char_traits@D@std@@@std@@MAEXABVlocale@2@@Z 00404f10 f i GamePlayer.obj
 0001:00003f20       ??0?$fpos@H@std@@QAE@J@Z   00404f20 f i GamePlayer.obj
 0001:00003f40       ?_Gninc@?$basic_streambuf@DU?$char_traits@D@std@@@std@@IAEPADXZ 00404f40 f i GamePlayer.obj
 0001:00003f60       ?_Gnavail@?$basic_streambuf@DU?$char_traits@D@std@@@std@@IBEHXZ 00404f60 f i GamePlayer.obj
 0001:00003f80       ??1?$basic_streambuf@DU?$char_traits@D@std@@@std@@UAE@XZ 00404f80 f i GamePlayer.obj
 0001:00004000       ?uflow@?$basic_streambuf@DU?$char_traits@D@std@@@std@@MAEHXZ 00405000 f i GamePlayer.obj
 0001:00004030       ?seekoff@?$basic_streambuf@DU?$char_traits@D@std@@@std@@MAE?AV?$fpos@H@2@JHH@Z 00405030 f i GamePlayer.obj
 0001:00004050       ?seekpos@?$basic_streambuf@DU?$char_traits@D@std@@@std@@MAE?AV?$fpos@H@2@V32@H@Z 00405050 f i GamePlayer.obj
 0001:00004070       ??D?$_Vector_iterator@PAVICommand@@V?$allocator@PAVICommand@@@std@@@std@@QBEAAPAVICommand@@XZ 00405070 f i GamePlayer.obj
 0001:000040a0       ??9?$_Vector_const_iterator@PAVICommand@@V?$allocator@PAVICommand@@@std@@@std@@QBE_NABV01@@Z 004050a0 f i GamePlayer.obj
 0001:000040d0       ??9const_iterator@?$_Tree@V?$_Tmap_traits@JPAVCBuffer@Win32@OnlineGameLib@@U?$less@J@std@@V?$allocator@U?$pair@$$CBJPAVCBuffer@Win32@OnlineGameLib@@@std@@@5@$0A@@std@@@std@@QBE_NABV012@@Z 004050d0 f i GamePlayer.obj
 0001:00004100       ??9const_iterator@?$_Tree@V?$_Tmap_traits@V?$basic_string@DU?$char_traits@D@std@@V?$allocator@D@2@@std@@PAVIPlayer@@U?$less@V?$basic_string@DU?$char_traits@D@std@@V?$allocator@D@2@@std@@@2@V?$allocator@U?$pair@$$CBV?$basic_string@DU?$char_traits@D@std@@V?$allocator@D@2@@std@@PAVIPlayer@@@std@@@2@$0A@@std@@@std@@QBE_NABV012@@Z 00405100 f i GamePlayer.obj
 0001:00004130       ??_E?$basic_ostream@DU?$char_traits@D@std@@@std@@UAEPAXI@Z 00405130 f i GamePlayer.obj
 0001:00004130       ??_G?$basic_ostream@DU?$char_traits@D@std@@@std@@UAEPAXI@Z 00405130 f i GamePlayer.obj
 0001:00004170       ??_E?$basic_istream@DU?$char_traits@D@std@@@std@@UAEPAXI@Z 00405170 f i GamePlayer.obj
 0001:00004170       ??_G?$basic_istream@DU?$char_traits@D@std@@@std@@UAEPAXI@Z 00405170 f i GamePlayer.obj
 0001:000041b0       ??_E?$basic_streambuf@DU?$char_traits@D@std@@@std@@UAEPAXI@Z 004051b0 f i GamePlayer.obj
 0001:000041b0       ??_G?$basic_streambuf@DU?$char_traits@D@std@@@std@@UAEPAXI@Z 004051b0 f i GamePlayer.obj
 0001:000041d0       ??_G?$basic_iostream@DU?$char_traits@D@std@@@std@@UAEPAXI@Z 004051d0 f i GamePlayer.obj
 0001:000041d0       ??_E?$basic_iostream@DU?$char_traits@D@std@@@std@@UAEPAXI@Z 004051d0 f i GamePlayer.obj
 0001:00004240       ?compare@?$basic_string@DU?$char_traits@D@std@@V?$allocator@D@2@@std@@QBEHIIPBDI@Z 00405240 f i GamePlayer.obj
 0001:000042b0       ?sputc@?$basic_streambuf@DU?$char_traits@D@std@@@std@@QAEHD@Z 004052b0 f i GamePlayer.obj
 0001:000042f0       ??0?$_Vector_val@PAVICommand@@V?$allocator@PAVICommand@@@std@@@std@@IAE@V?$allocator@PAVICommand@@@1@@Z 004052f0 f i GamePlayer.obj
 0001:00004300       ?_Key@?$_Tree@V?$_Tmap_traits@V?$basic_string@DU?$char_traits@D@std@@V?$allocator@D@2@@std@@PAVIPlayer@@U?$less@V?$basic_string@DU?$char_traits@D@std@@V?$allocator@D@2@@std@@@2@V?$allocator@U?$pair@$$CBV?$basic_string@DU?$char_traits@D@std@@V?$allocator@D@2@@std@@PAVIPlayer@@@std@@@2@$0A@@std@@@std@@KAABV?$basic_string@DU?$char_traits@D@std@@V?$allocator@D@2@@2@PAU_Node@?$_Tree_nod@V?$_Tmap_traits@V?$basic_string@DU?$char_traits@D@std@@V?$allocator@D@2@@std@@PAVIPlayer@@U?$less@V?$basic_string@DU?$char_traits@D@std@@V?$allocator@D@2@@std@@@2@V?$allocator@U?$pair@$$CBV?$basic_string@DU?$char_traits@D@std@@V?$allocator@D@2@@std@@PAVIPlayer@@@std@@@2@$0A@@std@@@2@@Z 00405300 f i GamePlayer.obj
 0001:00004310       ?_Lrotate@?$_Tree@V?$_Tmap_traits@V?$basic_string@DU?$char_traits@D@std@@V?$allocator@D@2@@std@@PAVIPlayer@@U?$less@V?$basic_string@DU?$char_traits@D@std@@V?$allocator@D@2@@std@@@2@V?$allocator@U?$pair@$$CBV?$basic_string@DU?$char_traits@D@std@@V?$allocator@D@2@@std@@PAVIPlayer@@@std@@@2@$0A@@std@@@std@@IAEXPAU_Node@?$_Tree_nod@V?$_Tmap_traits@V?$basic_string@DU?$char_traits@D@std@@V?$allocator@D@2@@std@@PAVIPlayer@@U?$less@V?$basic_string@DU?$char_traits@D@std@@V?$allocator@D@2@@std@@@2@V?$allocator@U?$pair@$$CBV?$basic_string@DU?$char_traits@D@std@@V?$allocator@D@2@@std@@PAVIPlayer@@@std@@@2@$0A@@std@@@2@@Z 00405310 f i GamePlayer.obj
 0001:00004360       ?_Key@?$_Tree@V?$_Tmap_traits@JPAVCBuffer@Win32@OnlineGameLib@@U?$less@J@std@@V?$allocator@U?$pair@$$CBJPAVCBuffer@Win32@OnlineGameLib@@@std@@@5@$0A@@std@@@std@@KAABJPAU_Node@?$_Tree_nod@V?$_Tmap_traits@JPAVCBuffer@Win32@OnlineGameLib@@U?$less@J@std@@V?$allocator@U?$pair@$$CBJPAVCBuffer@Win32@OnlineGameLib@@@std@@@5@$0A@@std@@@2@@Z 00405360 f i GamePlayer.obj
 0001:00004370       ?_Lrotate@?$_Tree@V?$_Tmap_traits@JPAVCBuffer@Win32@OnlineGameLib@@U?$less@J@std@@V?$allocator@U?$pair@$$CBJPAVCBuffer@Win32@OnlineGameLib@@@std@@@5@$0A@@std@@@std@@IAEXPAU_Node@?$_Tree_nod@V?$_Tmap_traits@JPAVCBuffer@Win32@OnlineGameLib@@U?$less@J@std@@V?$allocator@U?$pair@$$CBJPAVCBuffer@Win32@OnlineGameLib@@@std@@@5@$0A@@std@@@2@@Z 00405370 f i GamePlayer.obj
 0001:000043c0       ?destroy@?$allocator@U_Node@?$_Tree_nod@V?$_Tmap_traits@JPAVCBuffer@Win32@OnlineGameLib@@U?$less@J@std@@V?$allocator@U?$pair@$$CBJPAVCBuffer@Win32@OnlineGameLib@@@std@@@5@$0A@@std@@@std@@@std@@QAEXPAU_Node@?$_Tree_nod@V?$_Tmap_traits@JPAVCBuffer@Win32@OnlineGameLib@@U?$less@J@std@@V?$allocator@U?$pair@$$CBJPAVCBuffer@Win32@OnlineGameLib@@@std@@@5@$0A@@std@@@2@@Z 004053c0 f i GamePlayer.obj
 0001:000043d0       ??0?$_Vector_iterator@PAVICommand@@V?$allocator@PAVICommand@@@std@@@std@@QAE@PAPAVICommand@@PBU_Container_base@1@@Z 004053d0 f i GamePlayer.obj
 0001:00004410       ??E?$_Vector_iterator@PAVICommand@@V?$allocator@PAVICommand@@@std@@@std@@QAEAAV01@XZ 00405410 f i GamePlayer.obj
 0001:00004440       ??0?$_Vector_const_iterator@PAVICommand@@V?$allocator@PAVICommand@@@std@@@std@@QAE@XZ 00405440 f i GamePlayer.obj
 0001:00004450       ??0iterator@?$_Tree@V?$_Tmap_traits@JPAVCBuffer@Win32@OnlineGameLib@@U?$less@J@std@@V?$allocator@U?$pair@$$CBJPAVCBuffer@Win32@OnlineGameLib@@@std@@@5@$0A@@std@@@std@@QAE@PAU_Node@?$_Tree_nod@V?$_Tmap_traits@JPAVCBuffer@Win32@OnlineGameLib@@U?$less@J@std@@V?$allocator@U?$pair@$$CBJPAVCBuffer@Win32@OnlineGameLib@@@std@@@5@$0A@@std@@@2@PBV12@@Z 00405450 f i GamePlayer.obj
 0001:00004480       ??0const_iterator@?$_Tree@V?$_Tmap_traits@JPAVCBuffer@Win32@OnlineGameLib@@U?$less@J@std@@V?$allocator@U?$pair@$$CBJPAVCBuffer@Win32@OnlineGameLib@@@std@@@5@$0A@@std@@@std@@QAE@XZ 00405480 f i GamePlayer.obj
 0001:00004490       ??Dconst_iterator@?$_Tree@V?$_Tmap_traits@JPAVCBuffer@Win32@OnlineGameLib@@U?$less@J@std@@V?$allocator@U?$pair@$$CBJPAVCBuffer@Win32@OnlineGameLib@@@std@@@5@$0A@@std@@@std@@QBEABU?$pair@$$CBJPAVCBuffer@Win32@OnlineGameLib@@@2@XZ 00405490 f i GamePlayer.obj
 0001:000044c0       ??0iterator@?$_Tree@V?$_Tmap_traits@V?$basic_string@DU?$char_traits@D@std@@V?$allocator@D@2@@std@@PAVIPlayer@@U?$less@V?$basic_string@DU?$char_traits@D@std@@V?$allocator@D@2@@std@@@2@V?$allocator@U?$pair@$$CBV?$basic_string@DU?$char_traits@D@std@@V?$allocator@D@2@@std@@PAVIPlayer@@@std@@@2@$0A@@std@@@std@@QAE@PAU_Node@?$_Tree_nod@V?$_Tmap_traits@V?$basic_string@DU?$char_traits@D@std@@V?$allocator@D@2@@std@@PAVIPlayer@@U?$less@V?$basic_string@DU?$char_traits@D@std@@V?$allocator@D@2@@std@@@2@V?$allocator@U?$pair@$$CBV?$basic_string@DU?$char_traits@D@std@@V?$allocator@D@2@@std@@PAVIPlayer@@@std@@@2@$0A@@std@@@2@PBV12@@Z 004054c0 f i GamePlayer.obj
 0001:000044f0       ??0const_iterator@?$_Tree@V?$_Tmap_traits@V?$basic_string@DU?$char_traits@D@std@@V?$allocator@D@2@@std@@PAVIPlayer@@U?$less@V?$basic_string@DU?$char_traits@D@std@@V?$allocator@D@2@@std@@@2@V?$allocator@U?$pair@$$CBV?$basic_string@DU?$char_traits@D@std@@V?$allocator@D@2@@std@@PAVIPlayer@@@std@@@2@$0A@@std@@@std@@QAE@XZ 004054f0 f i GamePlayer.obj
 0001:00004500       ??Dconst_iterator@?$_Tree@V?$_Tmap_traits@V?$basic_string@DU?$char_traits@D@std@@V?$allocator@D@2@@std@@PAVIPlayer@@U?$less@V?$basic_string@DU?$char_traits@D@std@@V?$allocator@D@2@@std@@@2@V?$allocator@U?$pair@$$CBV?$basic_string@DU?$char_traits@D@std@@V?$allocator@D@2@@std@@PAVIPlayer@@@std@@@2@$0A@@std@@@std@@QBEABU?$pair@$$CBV?$basic_string@DU?$char_traits@D@std@@V?$allocator@D@2@@std@@PAVIPlayer@@@2@XZ 00405500 f i GamePlayer.obj
 0001:00004530       ?max_size@?$vector@PAVICommand@@V?$allocator@PAVICommand@@@std@@@std@@QBEIXZ 00405530 f i GamePlayer.obj
 0001:00004540       ?allocate@?$allocator@PAVICommand@@@std@@QAEPAPAVICommand@@I@Z 00405540 f i GamePlayer.obj
 0001:00004560       ?max_size@?$_Tree@V?$_Tmap_traits@V?$basic_string@DU?$char_traits@D@std@@V?$allocator@D@2@@std@@PAVIPlayer@@U?$less@V?$basic_string@DU?$char_traits@D@std@@V?$allocator@D@2@@std@@@2@V?$allocator@U?$pair@$$CBV?$basic_string@DU?$char_traits@D@std@@V?$allocator@D@2@@std@@PAVIPlayer@@@std@@@2@$0A@@std@@@std@@QBEIXZ 00405560 f i GamePlayer.obj
 0001:00004570       ?destroy@?$allocator@PAU_Node@?$_Tree_nod@V?$_Tmap_traits@V?$basic_string@DU?$char_traits@D@std@@V?$allocator@D@2@@std@@PAVIPlayer@@U?$less@V?$basic_string@DU?$char_traits@D@std@@V?$allocator@D@2@@std@@@2@V?$allocator@U?$pair@$$CBV?$basic_string@DU?$char_traits@D@std@@V?$allocator@D@2@@std@@PAVIPlayer@@@std@@@2@$0A@@std@@@std@@@std@@QAEXPAPAU_Node@?$_Tree_nod@V?$_Tmap_traits@V?$basic_string@DU?$char_traits@D@std@@V?$allocator@D@2@@std@@PAVIPlayer@@U?$less@V?$basic_string@DU?$char_traits@D@std@@V?$allocator@D@2@@std@@@2@V?$allocator@U?$pair@$$CBV?$basic_string@DU?$char_traits@D@std@@V?$allocator@D@2@@std@@PAVIPlayer@@@std@@@2@$0A@@std@@@2@@Z 00405570 f i GamePlayer.obj
 0001:00004580       ?max_size@?$_Tree@V?$_Tmap_traits@JPAVCBuffer@Win32@OnlineGameLib@@U?$less@J@std@@V?$allocator@U?$pair@$$CBJPAVCBuffer@Win32@OnlineGameLib@@@std@@@5@$0A@@std@@@std@@QBEIXZ 00405580 f i GamePlayer.obj
 0001:00004590       ?_Erase@?$_Tree@V?$_Tmap_traits@JPAVCBuffer@Win32@OnlineGameLib@@U?$less@J@std@@V?$allocator@U?$pair@$$CBJPAVCBuffer@Win32@OnlineGameLib@@@std@@@5@$0A@@std@@@std@@IAEXPAU_Node@?$_Tree_nod@V?$_Tmap_traits@JPAVCBuffer@Win32@OnlineGameLib@@U?$less@J@std@@V?$allocator@U?$pair@$$CBJPAVCBuffer@Win32@OnlineGameLib@@@std@@@5@$0A@@std@@@2@@Z 00405590 f i GamePlayer.obj
 0001:000045d0       ?_Lbound@?$_Tree@V?$_Tmap_traits@JPAVCBuffer@Win32@OnlineGameLib@@U?$less@J@std@@V?$allocator@U?$pair@$$CBJPAVCBuffer@Win32@OnlineGameLib@@@std@@@5@$0A@@std@@@std@@IBEPAU_Node@?$_Tree_nod@V?$_Tmap_traits@JPAVCBuffer@Win32@OnlineGameLib@@U?$less@J@std@@V?$allocator@U?$pair@$$CBJPAVCBuffer@Win32@OnlineGameLib@@@std@@@5@$0A@@std@@@2@ABJ@Z 004055d0 f i GamePlayer.obj
 0001:00004600       ?destroy@?$allocator@PAU_Node@?$_Tree_nod@V?$_Tmap_traits@JPAVCBuffer@Win32@OnlineGameLib@@U?$less@J@std@@V?$allocator@U?$pair@$$CBJPAVCBuffer@Win32@OnlineGameLib@@@std@@@5@$0A@@std@@@std@@@std@@QAEXPAPAU_Node@?$_Tree_nod@V?$_Tmap_traits@JPAVCBuffer@Win32@OnlineGameLib@@U?$less@J@std@@V?$allocator@U?$pair@$$CBJPAVCBuffer@Win32@OnlineGameLib@@@std@@@5@$0A@@std@@@2@@Z 00405600 f i GamePlayer.obj
 0001:00004610       ??G?$_Vector_iterator@PAVICommand@@V?$allocator@PAVICommand@@@std@@@std@@QBEHABV?$_Vector_const_iterator@PAVICommand@@V?$allocator@PAVICommand@@@std@@@1@@Z 00405610 f i GamePlayer.obj
 0001:00004640       ??Econst_iterator@?$_Tree@V?$_Tmap_traits@JPAVCBuffer@Win32@OnlineGameLib@@U?$less@J@std@@V?$allocator@U?$pair@$$CBJPAVCBuffer@Win32@OnlineGameLib@@@std@@@5@$0A@@std@@@std@@QAEAAV012@XZ 00405640 f i GamePlayer.obj
 0001:00004650       ??Fconst_iterator@?$_Tree@V?$_Tmap_traits@JPAVCBuffer@Win32@OnlineGameLib@@U?$less@J@std@@V?$allocator@U?$pair@$$CBJPAVCBuffer@Win32@OnlineGameLib@@@std@@@5@$0A@@std@@@std@@QAEAAV012@XZ 00405650 f i GamePlayer.obj
 0001:00004660       ??Econst_iterator@?$_Tree@V?$_Tmap_traits@V?$basic_string@DU?$char_traits@D@std@@V?$allocator@D@2@@std@@PAVIPlayer@@U?$less@V?$basic_string@DU?$char_traits@D@std@@V?$allocator@D@2@@std@@@2@V?$allocator@U?$pair@$$CBV?$basic_string@DU?$char_traits@D@std@@V?$allocator@D@2@@std@@PAVIPlayer@@@std@@@2@$0A@@std@@@std@@QAEAAV012@XZ 00405660 f i GamePlayer.obj
 0001:00004670       ??Fconst_iterator@?$_Tree@V?$_Tmap_traits@V?$basic_string@DU?$char_traits@D@std@@V?$allocator@D@2@@std@@PAVIPlayer@@U?$less@V?$basic_string@DU?$char_traits@D@std@@V?$allocator@D@2@@std@@@2@V?$allocator@U?$pair@$$CBV?$basic_string@DU?$char_traits@D@std@@V?$allocator@D@2@@std@@PAVIPlayer@@@std@@@2@$0A@@std@@@std@@QAEAAV012@XZ 00405670 f i GamePlayer.obj
 0001:00004680       ?allocate@?$allocator@U_Node@?$_Tree_nod@V?$_Tmap_traits@V?$basic_string@DU?$char_traits@D@std@@V?$allocator@D@2@@std@@PAVIPlayer@@U?$less@V?$basic_string@DU?$char_traits@D@std@@V?$allocator@D@2@@std@@@2@V?$allocator@U?$pair@$$CBV?$basic_string@DU?$char_traits@D@std@@V?$allocator@D@2@@std@@PAVIPlayer@@@std@@@2@$0A@@std@@@std@@@std@@QAEPAU_Node@?$_Tree_nod@V?$_Tmap_traits@V?$basic_string@DU?$char_traits@D@std@@V?$allocator@D@2@@std@@PAVIPlayer@@U?$less@V?$basic_string@DU?$char_traits@D@std@@V?$allocator@D@2@@std@@@2@V?$allocator@U?$pair@$$CBV?$basic_string@DU?$char_traits@D@std@@V?$allocator@D@2@@std@@PAVIPlayer@@@std@@@2@$0A@@std@@@2@I@Z 00405680 f i GamePlayer.obj
 0001:000046a0       ?allocate@?$allocator@U_Node@?$_Tree_nod@V?$_Tmap_traits@JPAVCBuffer@Win32@OnlineGameLib@@U?$less@J@std@@V?$allocator@U?$pair@$$CBJPAVCBuffer@Win32@OnlineGameLib@@@std@@@5@$0A@@std@@@std@@@std@@QAEPAU_Node@?$_Tree_nod@V?$_Tmap_traits@JPAVCBuffer@Win32@OnlineGameLib@@U?$less@J@std@@V?$allocator@U?$pair@$$CBJPAVCBuffer@Win32@OnlineGameLib@@@std@@@5@$0A@@std@@@2@I@Z 004056a0 f i GamePlayer.obj
 0001:000046c0       ??Y?$_Vector_iterator@PAVICommand@@V?$allocator@PAVICommand@@@std@@@std@@QAEAAV01@H@Z 004056c0 f i GamePlayer.obj
 0001:00004700       ??0?$_Tree_nod@V?$_Tmap_traits@V?$basic_string@DU?$char_traits@D@std@@V?$allocator@D@2@@std@@PAVIPlayer@@U?$less@V?$basic_string@DU?$char_traits@D@std@@V?$allocator@D@2@@std@@@2@V?$allocator@U?$pair@$$CBV?$basic_string@DU?$char_traits@D@std@@V?$allocator@D@2@@std@@PAVIPlayer@@@std@@@2@$0A@@std@@@std@@IAE@ABU?$less@V?$basic_string@DU?$char_traits@D@std@@V?$allocator@D@2@@std@@@1@V?$allocator@U?$pair@$$CBV?$basic_string@DU?$char_traits@D@std@@V?$allocator@D@2@@std@@PAVIPlayer@@@std@@@1@@Z 00405700 f i GamePlayer.obj
 0001:00004710       ?construct@?$allocator@PAU_Node@?$_Tree_nod@V?$_Tmap_traits@V?$basic_string@DU?$char_traits@D@std@@V?$allocator@D@2@@std@@PAVIPlayer@@U?$less@V?$basic_string@DU?$char_traits@D@std@@V?$allocator@D@2@@std@@@2@V?$allocator@U?$pair@$$CBV?$basic_string@DU?$char_traits@D@std@@V?$allocator@D@2@@std@@PAVIPlayer@@@std@@@2@$0A@@std@@@std@@@std@@QAEXPAPAU_Node@?$_Tree_nod@V?$_Tmap_traits@V?$basic_string@DU?$char_traits@D@std@@V?$allocator@D@2@@std@@PAVIPlayer@@U?$less@V?$basic_string@DU?$char_traits@D@std@@V?$allocator@D@2@@std@@@2@V?$allocator@U?$pair@$$CBV?$basic_string@DU?$char_traits@D@std@@V?$allocator@D@2@@std@@PAVIPlayer@@@std@@@2@$0A@@std@@@2@ABQAU342@@Z 00405710 f i GamePlayer.obj
 0001:00004730       ??0?$_Tree_nod@V?$_Tmap_traits@JPAVCBuffer@Win32@OnlineGameLib@@U?$less@J@std@@V?$allocator@U?$pair@$$CBJPAVCBuffer@Win32@OnlineGameLib@@@std@@@5@$0A@@std@@@std@@IAE@ABU?$less@J@1@V?$allocator@U?$pair@$$CBJPAVCBuffer@Win32@OnlineGameLib@@@std@@@1@@Z 00405730 f i GamePlayer.obj
 0001:00004740       ?construct@?$allocator@PAU_Node@?$_Tree_nod@V?$_Tmap_traits@JPAVCBuffer@Win32@OnlineGameLib@@U?$less@J@std@@V?$allocator@U?$pair@$$CBJPAVCBuffer@Win32@OnlineGameLib@@@std@@@5@$0A@@std@@@std@@@std@@QAEXPAPAU_Node@?$_Tree_nod@V?$_Tmap_traits@JPAVCBuffer@Win32@OnlineGameLib@@U?$less@J@std@@V?$allocator@U?$pair@$$CBJPAVCBuffer@Win32@OnlineGameLib@@@std@@@5@$0A@@std@@@2@ABQAU342@@Z 00405740 f i GamePlayer.obj
 0001:00004760       ??0?$CTaskCommand@VCGamePlayer@@@@QAE@PAVCGamePlayer@@P81@AEIXZ@Z 00405760 f i GamePlayer.obj
 0001:00004780       ??1?$CTaskCommand@VCGamePlayer@@@@UAE@XZ 00405780 f i GamePlayer.obj
 0001:00004790       ?Execute@?$CTaskCommand@VCGamePlayer@@@@UAEIXZ 00405790 f i GamePlayer.obj
 0001:000047a0       ??_E?$CTaskCommand@VCGamePlayer@@@@UAEPAXI@Z 004057a0 f i GamePlayer.obj
 0001:000047a0       ??_G?$CTaskCommand@VCGamePlayer@@@@UAEPAXI@Z 004057a0 f i GamePlayer.obj
 0001:000047c0       ??$_Destroy_range@PAVICommand@@V?$allocator@PAVICommand@@@std@@@std@@YAXPAPAVICommand@@0AAV?$allocator@PAVICommand@@@0@@Z 004057c0 f i GamePlayer.obj
 0001:000047d0       ??0?$_Outit_with_base@U_Iterator_base@std@@@std@@QAE@XZ 004057d0 f i GamePlayer.obj
 0001:000047e0       ??$_Checked_base@PAPAVICommand@@@std@@YAPAPAVICommand@@AAPAPAV1@@Z 004057e0 f i GamePlayer.obj
 0001:000047f0       ??$_Move_backward_opt@PAPAVICommand@@PAPAV1@Urandom_access_iterator_tag@std@@U_Undefined_move_tag@3@@std@@YAPAPAVICommand@@PAPAV1@00Urandom_access_iterator_tag@0@U_Undefined_move_tag@0@U_Range_checked_iterator_tag@0@@Z 004057f0 f i GamePlayer.obj
 0001:00004820       ??$_Fill_n@PAPAVICommand@@IPAV1@@std@@YAXPAPAVICommand@@IABQAV1@Urandom_access_iterator_tag@0@U_Range_checked_iterator_tag@0@@Z 00405820 f i GamePlayer.obj
 0001:00004850       ??$unchecked_uninitialized_copy@PAPAVICommand@@PAPAV1@V?$allocator@PAVICommand@@@std@@@stdext@@YAPAPAVICommand@@PAPAV1@00AAV?$allocator@PAVICommand@@@std@@@Z 00405850 f i GamePlayer.obj
 0001:00004880       ??0strstreambuf@std@@QAE@H@Z 00405880 f i GamePlayer.obj
 0001:000048d0       ?egptr@?$basic_streambuf@DU?$char_traits@D@std@@@std@@IBEPADXZ 004058d0 f i GamePlayer.obj
 0001:000048e0       ??B?$fpos@H@std@@QBEJXZ    004058e0 f i GamePlayer.obj
 0001:000048f0       ?overflow@strstreambuf@std@@MAEHH@Z 004058f0 f i GamePlayer.obj
 0001:00004ab0       ?pbackfail@strstreambuf@std@@MAEHH@Z 00405ab0 f i GamePlayer.obj
 0001:00004b00       ?underflow@strstreambuf@std@@MAEHXZ 00405b00 f i GamePlayer.obj
 0001:00004b60       ?seekoff@strstreambuf@std@@MAE?AV?$fpos@H@2@JHH@Z 00405b60 f i GamePlayer.obj
 0001:00004cc0       ?seekpos@strstreambuf@std@@MAE?AV?$fpos@H@2@V32@H@Z 00405cc0 f i GamePlayer.obj
 0001:00004d90       ??1strstreambuf@std@@UAE@XZ 00405d90 f i GamePlayer.obj
 0001:00004e20       ??_Gstrstreambuf@std@@UAEPAXI@Z 00405e20 f i GamePlayer.obj
 0001:00004e20       ??_Estrstreambuf@std@@UAEPAXI@Z 00405e20 f i GamePlayer.obj
 0001:00004e40       ??1strstream@std@@UAE@XZ   00405e40 f i GamePlayer.obj
 0001:00004ed0       ??_Dstrstream@std@@QAEXXZ  00405ed0 f i GamePlayer.obj
 0001:00004ef0       ?_UnlockAccount@CGamePlayer@@IAE_NXZ 00405ef0 f   GamePlayer.obj
 0001:00005020       ?_VerifyAccount_ToPlayer@CGamePlayer@@IAE_NIK@Z 00406020 f   GamePlayer.obj
 0001:00005150       ?compare@?$basic_string@DU?$char_traits@D@std@@V?$allocator@D@2@@std@@QBEHABV12@@Z 00406150 f i GamePlayer.obj
 0001:00005190       ?compare@?$basic_string@DU?$char_traits@D@std@@V?$allocator@D@2@@std@@QBEHPBD@Z 00406190 f i GamePlayer.obj
 0001:000051c0       ?_Xsgetn_s@?$basic_streambuf@DU?$char_traits@D@std@@@std@@MAEHPADIH@Z 004061c0 f i GamePlayer.obj
 0001:00005260       ?xsputn@?$basic_streambuf@DU?$char_traits@D@std@@@std@@MAEHPBDH@Z 00406260 f i GamePlayer.obj
 0001:00005300       ?begin@?$vector@PAVICommand@@V?$allocator@PAVICommand@@@std@@@std@@QAE?AV?$_Vector_iterator@PAVICommand@@V?$allocator@PAVICommand@@@std@@@2@XZ 00406300 f i GamePlayer.obj
 0001:00005330       ?end@?$vector@PAVICommand@@V?$allocator@PAVICommand@@@std@@@std@@QAE?AV?$_Vector_iterator@PAVICommand@@V?$allocator@PAVICommand@@@std@@@2@XZ 00406330 f i GamePlayer.obj
 0001:00005360       ?begin@?$_Tree@V?$_Tmap_traits@V?$basic_string@DU?$char_traits@D@std@@V?$allocator@D@2@@std@@PAVIPlayer@@U?$less@V?$basic_string@DU?$char_traits@D@std@@V?$allocator@D@2@@std@@@2@V?$allocator@U?$pair@$$CBV?$basic_string@DU?$char_traits@D@std@@V?$allocator@D@2@@std@@PAVIPlayer@@@std@@@2@$0A@@std@@@std@@QAE?AViterator@12@XZ 00406360 f i GamePlayer.obj
 0001:00005380       ?end@?$_Tree@V?$_Tmap_traits@V?$basic_string@DU?$char_traits@D@std@@V?$allocator@D@2@@std@@PAVIPlayer@@U?$less@V?$basic_string@DU?$char_traits@D@std@@V?$allocator@D@2@@std@@@2@V?$allocator@U?$pair@$$CBV?$basic_string@DU?$char_traits@D@std@@V?$allocator@D@2@@std@@PAVIPlayer@@@std@@@2@$0A@@std@@@std@@QAE?AViterator@12@XZ 00406380 f i GamePlayer.obj
 0001:00005390       ?begin@?$_Tree@V?$_Tmap_traits@JPAVCBuffer@Win32@OnlineGameLib@@U?$less@J@std@@V?$allocator@U?$pair@$$CBJPAVCBuffer@Win32@OnlineGameLib@@@std@@@5@$0A@@std@@@std@@QAE?AViterator@12@XZ 00406390 f i GamePlayer.obj
 0001:000053b0       ?end@?$_Tree@V?$_Tmap_traits@JPAVCBuffer@Win32@OnlineGameLib@@U?$less@J@std@@V?$allocator@U?$pair@$$CBJPAVCBuffer@Win32@OnlineGameLib@@@std@@@5@$0A@@std@@@std@@QAE?AViterator@12@XZ 004063b0 f i GamePlayer.obj
 0001:000053c0       ??0?$_Vector_iterator@PAVICommand@@V?$allocator@PAVICommand@@@std@@@std@@QAE@XZ 004063c0 f i GamePlayer.obj
 0001:000053d0       ??E?$_Vector_iterator@PAVICommand@@V?$allocator@PAVICommand@@@std@@@std@@QAE?AV01@H@Z 004063d0 f i GamePlayer.obj
 0001:00005410       ??0iterator@?$_Tree@V?$_Tmap_traits@JPAVCBuffer@Win32@OnlineGameLib@@U?$less@J@std@@V?$allocator@U?$pair@$$CBJPAVCBuffer@Win32@OnlineGameLib@@@std@@@5@$0A@@std@@@std@@QAE@XZ 00406410 f i GamePlayer.obj
 0001:00005420       ??Diterator@?$_Tree@V?$_Tmap_traits@JPAVCBuffer@Win32@OnlineGameLib@@U?$less@J@std@@V?$allocator@U?$pair@$$CBJPAVCBuffer@Win32@OnlineGameLib@@@std@@@5@$0A@@std@@@std@@QBEAAU?$pair@$$CBJPAVCBuffer@Win32@OnlineGameLib@@@2@XZ 00406420 f i GamePlayer.obj
 0001:00005450       ??0iterator@?$_Tree@V?$_Tmap_traits@V?$basic_string@DU?$char_traits@D@std@@V?$allocator@D@2@@std@@PAVIPlayer@@U?$less@V?$basic_string@DU?$char_traits@D@std@@V?$allocator@D@2@@std@@@2@V?$allocator@U?$pair@$$CBV?$basic_string@DU?$char_traits@D@std@@V?$allocator@D@2@@std@@PAVIPlayer@@@std@@@2@$0A@@std@@@std@@QAE@XZ 00406450 f i GamePlayer.obj
 0001:00005460       ??Diterator@?$_Tree@V?$_Tmap_traits@V?$basic_string@DU?$char_traits@D@std@@V?$allocator@D@2@@std@@PAVIPlayer@@U?$less@V?$basic_string@DU?$char_traits@D@std@@V?$allocator@D@2@@std@@@2@V?$allocator@U?$pair@$$CBV?$basic_string@DU?$char_traits@D@std@@V?$allocator@D@2@@std@@PAVIPlayer@@@std@@@2@$0A@@std@@@std@@QBEAAU?$pair@$$CBV?$basic_string@DU?$char_traits@D@std@@V?$allocator@D@2@@std@@PAVIPlayer@@@2@XZ 00406460 f i GamePlayer.obj
 0001:00005490       ?clear@?$_Tree@V?$_Tmap_traits@JPAVCBuffer@Win32@OnlineGameLib@@U?$less@J@std@@V?$allocator@U?$pair@$$CBJPAVCBuffer@Win32@OnlineGameLib@@@std@@@5@$0A@@std@@@std@@QAEXXZ 00406490 f i GamePlayer.obj
 0001:000054c0       ?lower_bound@?$_Tree@V?$_Tmap_traits@JPAVCBuffer@Win32@OnlineGameLib@@U?$less@J@std@@V?$allocator@U?$pair@$$CBJPAVCBuffer@Win32@OnlineGameLib@@@std@@@5@$0A@@std@@@std@@QAE?AViterator@12@ABJ@Z 004064c0 f i GamePlayer.obj
 0001:00005500       ??Eiterator@?$_Tree@V?$_Tmap_traits@JPAVCBuffer@Win32@OnlineGameLib@@U?$less@J@std@@V?$allocator@U?$pair@$$CBJPAVCBuffer@Win32@OnlineGameLib@@@std@@@5@$0A@@std@@@std@@QAEAAV012@XZ 00406500 f i GamePlayer.obj
 0001:00005510       ??Fiterator@?$_Tree@V?$_Tmap_traits@JPAVCBuffer@Win32@OnlineGameLib@@U?$less@J@std@@V?$allocator@U?$pair@$$CBJPAVCBuffer@Win32@OnlineGameLib@@@std@@@5@$0A@@std@@@std@@QAEAAV012@XZ 00406510 f i GamePlayer.obj
 0001:00005520       ??Eiterator@?$_Tree@V?$_Tmap_traits@V?$basic_string@DU?$char_traits@D@std@@V?$allocator@D@2@@std@@PAVIPlayer@@U?$less@V?$basic_string@DU?$char_traits@D@std@@V?$allocator@D@2@@std@@@2@V?$allocator@U?$pair@$$CBV?$basic_string@DU?$char_traits@D@std@@V?$allocator@D@2@@std@@PAVIPlayer@@@std@@@2@$0A@@std@@@std@@QAEAAV012@XZ 00406520 f i GamePlayer.obj
 0001:00005530       ??Eiterator@?$_Tree@V?$_Tmap_traits@V?$basic_string@DU?$char_traits@D@std@@V?$allocator@D@2@@std@@PAVIPlayer@@U?$less@V?$basic_string@DU?$char_traits@D@std@@V?$allocator@D@2@@std@@@2@V?$allocator@U?$pair@$$CBV?$basic_string@DU?$char_traits@D@std@@V?$allocator@D@2@@std@@PAVIPlayer@@@std@@@2@$0A@@std@@@std@@QAE?AV012@H@Z 00406530 f i GamePlayer.obj
 0001:00005550       ??Fiterator@?$_Tree@V?$_Tmap_traits@V?$basic_string@DU?$char_traits@D@std@@V?$allocator@D@2@@std@@PAVIPlayer@@U?$less@V?$basic_string@DU?$char_traits@D@std@@V?$allocator@D@2@@std@@@2@V?$allocator@U?$pair@$$CBV?$basic_string@DU?$char_traits@D@std@@V?$allocator@D@2@@std@@PAVIPlayer@@@std@@@2@$0A@@std@@@std@@QAEAAV012@XZ 00406550 f i GamePlayer.obj
 0001:00005560       ?_Destroy@?$vector@PAVICommand@@V?$allocator@PAVICommand@@@std@@@std@@IAEXPAPAVICommand@@0@Z 00406560 f i GamePlayer.obj
 0001:00005570       ?_Buynode@?$_Tree@V?$_Tmap_traits@JPAVCBuffer@Win32@OnlineGameLib@@U?$less@J@std@@V?$allocator@U?$pair@$$CBJPAVCBuffer@Win32@OnlineGameLib@@@std@@@5@$0A@@std@@@std@@IAEPAU_Node@?$_Tree_nod@V?$_Tmap_traits@JPAVCBuffer@Win32@OnlineGameLib@@U?$less@J@std@@V?$allocator@U?$pair@$$CBJPAVCBuffer@Win32@OnlineGameLib@@@std@@@5@$0A@@std@@@2@PAU342@00ABU?$pair@$$CBJPAVCBuffer@Win32@OnlineGameLib@@@2@D@Z 00406570 f i GamePlayer.obj
 0001:000055b0       ??H?$_Vector_iterator@PAVICommand@@V?$allocator@PAVICommand@@@std@@@std@@QBE?AV01@H@Z 004065b0 f i GamePlayer.obj
 0001:000055f0       ?_Buynode@?$_Tree@V?$_Tmap_traits@V?$basic_string@DU?$char_traits@D@std@@V?$allocator@D@2@@std@@PAVIPlayer@@U?$less@V?$basic_string@DU?$char_traits@D@std@@V?$allocator@D@2@@std@@@2@V?$allocator@U?$pair@$$CBV?$basic_string@DU?$char_traits@D@std@@V?$allocator@D@2@@std@@PAVIPlayer@@@std@@@2@$0A@@std@@@std@@IAEPAU_Node@?$_Tree_nod@V?$_Tmap_traits@V?$basic_string@DU?$char_traits@D@std@@V?$allocator@D@2@@std@@PAVIPlayer@@U?$less@V?$basic_string@DU?$char_traits@D@std@@V?$allocator@D@2@@std@@@2@V?$allocator@U?$pair@$$CBV?$basic_string@DU?$char_traits@D@std@@V?$allocator@D@2@@std@@PAVIPlayer@@@std@@@2@$0A@@std@@@2@XZ 004065f0 f i GamePlayer.obj
 0001:00005630       ??0?$_Tree_ptr@V?$_Tmap_traits@V?$basic_string@DU?$char_traits@D@std@@V?$allocator@D@2@@std@@PAVIPlayer@@U?$less@V?$basic_string@DU?$char_traits@D@std@@V?$allocator@D@2@@std@@@2@V?$allocator@U?$pair@$$CBV?$basic_string@DU?$char_traits@D@std@@V?$allocator@D@2@@std@@PAVIPlayer@@@std@@@2@$0A@@std@@@std@@IAE@ABU?$less@V?$basic_string@DU?$char_traits@D@std@@V?$allocator@D@2@@std@@@1@V?$allocator@U?$pair@$$CBV?$basic_string@DU?$char_traits@D@std@@V?$allocator@D@2@@std@@PAVIPlayer@@@std@@@1@@Z 00406630 f i GamePlayer.obj
 0001:00005640       ?_Buynode@?$_Tree@V?$_Tmap_traits@JPAVCBuffer@Win32@OnlineGameLib@@U?$less@J@std@@V?$allocator@U?$pair@$$CBJPAVCBuffer@Win32@OnlineGameLib@@@std@@@5@$0A@@std@@@std@@IAEPAU_Node@?$_Tree_nod@V?$_Tmap_traits@JPAVCBuffer@Win32@OnlineGameLib@@U?$less@J@std@@V?$allocator@U?$pair@$$CBJPAVCBuffer@Win32@OnlineGameLib@@@std@@@5@$0A@@std@@@2@XZ 00406640 f i GamePlayer.obj
 0001:00005680       ??0?$_Tree_ptr@V?$_Tmap_traits@JPAVCBuffer@Win32@OnlineGameLib@@U?$less@J@std@@V?$allocator@U?$pair@$$CBJPAVCBuffer@Win32@OnlineGameLib@@@std@@@5@$0A@@std@@@std@@IAE@ABU?$less@J@1@V?$allocator@U?$pair@$$CBJPAVCBuffer@Win32@OnlineGameLib@@@std@@@1@@Z 00406680 f i GamePlayer.obj
 0001:00005690       ??$?MDU?$char_traits@D@std@@V?$allocator@D@1@@std@@YA_NABV?$basic_string@DU?$char_traits@D@std@@V?$allocator@D@2@@0@0@Z 00406690 f i GamePlayer.obj
 0001:000056c0       ??$unchecked_copy@PAPAVICommand@@PAPAV1@@stdext@@YAPAPAVICommand@@PAPAV1@00@Z 004066c0 f i GamePlayer.obj
 0001:00005700       ??$fill@PAPAVICommand@@PAV1@@std@@YAXPAPAVICommand@@0ABQAV1@@Z 00406700 f i GamePlayer.obj
 0001:00005720       ??$_Unchecked_move_backward@PAPAVICommand@@PAPAV1@@stdext@@YAPAPAVICommand@@PAPAV1@00@Z 00406720 f i GamePlayer.obj
 0001:00005750       ??0?$ostreambuf_iterator@DU?$char_traits@D@std@@@std@@QAE@PAV?$basic_streambuf@DU?$char_traits@D@std@@@1@@Z 00406750 f i GamePlayer.obj
 0001:00005770       ??$unchecked_fill_n@PAPAVICommand@@IPAV1@@stdext@@YAXPAPAVICommand@@IABQAV1@@Z 00406770 f i GamePlayer.obj
 0001:000057a0       ??$_Uninit_move@PAPAVICommand@@PAPAV1@V?$allocator@PAVICommand@@@std@@U_Undefined_move_tag@3@@std@@YAPAPAVICommand@@PAPAV1@00AAV?$allocator@PAVICommand@@@0@U_Undefined_move_tag@0@U_Range_checked_iterator_tag@0@@Z 004067a0 f i GamePlayer.obj
 0001:000057d0       ??_Gstrstream@std@@UAEPAXI@Z 004067d0 f i GamePlayer.obj
 0001:000057d0       ??_Estrstream@std@@UAEPAXI@Z 004067d0 f i GamePlayer.obj
 0001:00005810       ??0?$basic_string@DU?$char_traits@D@std@@V?$allocator@D@2@@std@@QAE@XZ 00406810 f i GamePlayer.obj
 0001:00005830       ?find@?$_Tree@V?$_Tmap_traits@JPAVCBuffer@Win32@OnlineGameLib@@U?$less@J@std@@V?$allocator@U?$pair@$$CBJPAVCBuffer@Win32@OnlineGameLib@@@std@@@5@$0A@@std@@@std@@QAE?AViterator@12@ABJ@Z 00406830 f i GamePlayer.obj
 0001:000058a0       ??Eiterator@?$_Tree@V?$_Tmap_traits@JPAVCBuffer@Win32@OnlineGameLib@@U?$less@J@std@@V?$allocator@U?$pair@$$CBJPAVCBuffer@Win32@OnlineGameLib@@@std@@@5@$0A@@std@@@std@@QAE?AV012@H@Z 004068a0 f i GamePlayer.obj
 0001:000058c0       ??R?$less@V?$basic_string@DU?$char_traits@D@std@@V?$allocator@D@2@@std@@@std@@QBE_NABV?$basic_string@DU?$char_traits@D@std@@V?$allocator@D@2@@1@0@Z 004068c0 f i GamePlayer.obj
 0001:00005900       ?erase@?$vector@PAVICommand@@V?$allocator@PAVICommand@@@std@@@std@@QAE?AV?$_Vector_iterator@PAVICommand@@V?$allocator@PAVICommand@@@std@@@2@V32@0@Z 00406900 f i GamePlayer.obj
 0001:00005960       ?_Tidy@?$vector@PAVICommand@@V?$allocator@PAVICommand@@@std@@@std@@IAEXXZ 00406960 f i GamePlayer.obj
 0001:00005990       ?_Init@?$_Tree@V?$_Tmap_traits@V?$basic_string@DU?$char_traits@D@std@@V?$allocator@D@2@@std@@PAVIPlayer@@U?$less@V?$basic_string@DU?$char_traits@D@std@@V?$allocator@D@2@@std@@@2@V?$allocator@U?$pair@$$CBV?$basic_string@DU?$char_traits@D@std@@V?$allocator@D@2@@std@@PAVIPlayer@@@std@@@2@$0A@@std@@@std@@IAEXXZ 00406990 f i GamePlayer.obj
 0001:000059c0       ?_Lbound@?$_Tree@V?$_Tmap_traits@V?$basic_string@DU?$char_traits@D@std@@V?$allocator@D@2@@std@@PAVIPlayer@@U?$less@V?$basic_string@DU?$char_traits@D@std@@V?$allocator@D@2@@std@@@2@V?$allocator@U?$pair@$$CBV?$basic_string@DU?$char_traits@D@std@@V?$allocator@D@2@@std@@PAVIPlayer@@@std@@@2@$0A@@std@@@std@@IBEPAU_Node@?$_Tree_nod@V?$_Tmap_traits@V?$basic_string@DU?$char_traits@D@std@@V?$allocator@D@2@@std@@PAVIPlayer@@U?$less@V?$basic_string@DU?$char_traits@D@std@@V?$allocator@D@2@@std@@@2@V?$allocator@U?$pair@$$CBV?$basic_string@DU?$char_traits@D@std@@V?$allocator@D@2@@std@@PAVIPlayer@@@std@@@2@$0A@@std@@@2@ABV?$basic_string@DU?$char_traits@D@std@@V?$allocator@D@2@@2@@Z 004069c0 f i GamePlayer.obj
 0001:00005a50       ??0?$_Tree_val@V?$_Tmap_traits@V?$basic_string@DU?$char_traits@D@std@@V?$allocator@D@2@@std@@PAVIPlayer@@U?$less@V?$basic_string@DU?$char_traits@D@std@@V?$allocator@D@2@@std@@@2@V?$allocator@U?$pair@$$CBV?$basic_string@DU?$char_traits@D@std@@V?$allocator@D@2@@std@@PAVIPlayer@@@std@@@2@$0A@@std@@@std@@IAE@ABU?$less@V?$basic_string@DU?$char_traits@D@std@@V?$allocator@D@2@@std@@@1@V?$allocator@U?$pair@$$CBV?$basic_string@DU?$char_traits@D@std@@V?$allocator@D@2@@std@@PAVIPlayer@@@std@@@1@@Z 00406a50 f i GamePlayer.obj
 0001:00005a60       ?_Init@?$_Tree@V?$_Tmap_traits@JPAVCBuffer@Win32@OnlineGameLib@@U?$less@J@std@@V?$allocator@U?$pair@$$CBJPAVCBuffer@Win32@OnlineGameLib@@@std@@@5@$0A@@std@@@std@@IAEXXZ 00406a60 f i GamePlayer.obj
 0001:00005a90       ??0?$_Tree_val@V?$_Tmap_traits@JPAVCBuffer@Win32@OnlineGameLib@@U?$less@J@std@@V?$allocator@U?$pair@$$CBJPAVCBuffer@Win32@OnlineGameLib@@@std@@@5@$0A@@std@@@std@@IAE@ABU?$less@J@1@V?$allocator@U?$pair@$$CBJPAVCBuffer@Win32@OnlineGameLib@@@std@@@1@@Z 00406a90 f i GamePlayer.obj
 0001:00005aa0       ??$_Uninit_fill_n@PAPAVICommand@@IPAV1@V?$allocator@PAVICommand@@@std@@@std@@YAXPAPAVICommand@@IABQAV1@AAV?$allocator@PAVICommand@@@0@U_Scalar_ptr_iterator_tag@0@U_Range_checked_iterator_tag@0@@Z 00406aa0 f i GamePlayer.obj
 0001:00005ad0       ??$_Unchecked_uninitialized_move@PAPAVICommand@@PAPAV1@V?$allocator@PAVICommand@@@std@@@stdext@@YAPAPAVICommand@@PAPAV1@00AAV?$allocator@PAVICommand@@@std@@@Z 00406ad0 f i GamePlayer.obj
 0001:00005b00       ??1logic_error@std@@UAE@XZ 00406b00 f i GamePlayer.obj
 0001:00005b40       ?what@logic_error@std@@UBEPBDXZ 00406b40 f i GamePlayer.obj
 0001:00005b50       ??_Glogic_error@std@@UAEPAXI@Z 00406b50 f i GamePlayer.obj
 0001:00005b50       ??_Elogic_error@std@@UAEPAXI@Z 00406b50 f i GamePlayer.obj
 0001:00005ba0       ??1runtime_error@std@@UAE@XZ 00406ba0 f i GamePlayer.obj
 0001:00005be0       ?what@runtime_error@std@@UBEPBDXZ 00406be0 f i GamePlayer.obj
 0001:00005bf0       ??_Eruntime_error@std@@UAEPAXI@Z 00406bf0 f i GamePlayer.obj
 0001:00005bf0       ??_Gruntime_error@std@@UAEPAXI@Z 00406bf0 f i GamePlayer.obj
 0001:00005c40       ??1_Locinfo@std@@QAE@XZ    00406c40 f i GamePlayer.obj
 0001:00005d20       ??1?$pair@$$CBV?$basic_string@DU?$char_traits@D@std@@V?$allocator@D@2@@std@@PAVIPlayer@@@std@@QAE@XZ 00406d20 f i GamePlayer.obj
 0001:00005d50       ??1?$vector@PAVICommand@@V?$allocator@PAVICommand@@@std@@@std@@QAE@XZ 00406d50 f i GamePlayer.obj
 0001:00005d80       ?clear@?$vector@PAVICommand@@V?$allocator@PAVICommand@@@std@@@std@@QAEXXZ 00406d80 f i GamePlayer.obj
 0001:00005dc0       ??0?$_Tree@V?$_Tmap_traits@V?$basic_string@DU?$char_traits@D@std@@V?$allocator@D@2@@std@@PAVIPlayer@@U?$less@V?$basic_string@DU?$char_traits@D@std@@V?$allocator@D@2@@std@@@2@V?$allocator@U?$pair@$$CBV?$basic_string@DU?$char_traits@D@std@@V?$allocator@D@2@@std@@PAVIPlayer@@@std@@@2@$0A@@std@@@std@@QAE@ABU?$less@V?$basic_string@DU?$char_traits@D@std@@V?$allocator@D@2@@std@@@1@ABV?$allocator@U?$pair@$$CBV?$basic_string@DU?$char_traits@D@std@@V?$allocator@D@2@@std@@PAVIPlayer@@@std@@@1@@Z 00406dc0 f i GamePlayer.obj
 0001:00005df0       ?lower_bound@?$_Tree@V?$_Tmap_traits@V?$basic_string@DU?$char_traits@D@std@@V?$allocator@D@2@@std@@PAVIPlayer@@U?$less@V?$basic_string@DU?$char_traits@D@std@@V?$allocator@D@2@@std@@@2@V?$allocator@U?$pair@$$CBV?$basic_string@DU?$char_traits@D@std@@V?$allocator@D@2@@std@@PAVIPlayer@@@std@@@2@$0A@@std@@@std@@QAE?AViterator@12@ABV?$basic_string@DU?$char_traits@D@std@@V?$allocator@D@2@@2@@Z 00406df0 f i GamePlayer.obj
 0001:00005e20       ??0?$_Tree@V?$_Tmap_traits@JPAVCBuffer@Win32@OnlineGameLib@@U?$less@J@std@@V?$allocator@U?$pair@$$CBJPAVCBuffer@Win32@OnlineGameLib@@@std@@@5@$0A@@std@@@std@@QAE@ABU?$less@J@1@ABV?$allocator@U?$pair@$$CBJPAVCBuffer@Win32@OnlineGameLib@@@std@@@1@@Z 00406e20 f i GamePlayer.obj
 0001:00005e50       ??$unchecked_uninitialized_fill_n@PAPAVICommand@@IPAV1@V?$allocator@PAVICommand@@@std@@@stdext@@YAXPAPAVICommand@@IABQAV1@AAV?$allocator@PAVICommand@@@std@@@Z 00406e50 f i GamePlayer.obj
 0001:00005e80       ??$_Umove@PAPAVICommand@@@?$vector@PAVICommand@@V?$allocator@PAVICommand@@@std@@@std@@IAEPAPAVICommand@@PAPAV2@00@Z 00406e80 f i GamePlayer.obj
 0001:00005eb0       ??1_Node@?$_Tree_nod@V?$_Tmap_traits@V?$basic_string@DU?$char_traits@D@std@@V?$allocator@D@2@@std@@PAVIPlayer@@U?$less@V?$basic_string@DU?$char_traits@D@std@@V?$allocator@D@2@@std@@@2@V?$allocator@U?$pair@$$CBV?$basic_string@DU?$char_traits@D@std@@V?$allocator@D@2@@std@@PAVIPlayer@@@std@@@2@$0A@@std@@@std@@QAE@XZ 00406eb0 f i GamePlayer.obj
 0001:00005ee0       ??1CTask@CGamePlayer@@QAE@XZ 00406ee0 f   GamePlayer.obj
 0001:00006030       ?find@?$_Tree@V?$_Tmap_traits@V?$basic_string@DU?$char_traits@D@std@@V?$allocator@D@2@@std@@PAVIPlayer@@U?$less@V?$basic_string@DU?$char_traits@D@std@@V?$allocator@D@2@@std@@@2@V?$allocator@U?$pair@$$CBV?$basic_string@DU?$char_traits@D@std@@V?$allocator@D@2@@std@@PAVIPlayer@@@std@@@2@$0A@@std@@@std@@QAE?AViterator@12@ABV?$basic_string@DU?$char_traits@D@std@@V?$allocator@D@2@@2@@Z 00407030 f i GamePlayer.obj
 0001:000060b0       ??0?$pair@$$CBV?$basic_string@DU?$char_traits@D@std@@V?$allocator@D@2@@std@@PAVIPlayer@@@std@@QAE@ABV?$basic_string@DU?$char_traits@D@std@@V?$allocator@D@2@@1@ABQAVIPlayer@@@Z 004070b0 f i GamePlayer.obj
 0001:000060e0       ?_Ufill@?$vector@PAVICommand@@V?$allocator@PAVICommand@@@std@@@std@@IAEPAPAVICommand@@PAPAV3@IABQAV3@@Z 004070e0 f i GamePlayer.obj
 0001:00006110       ??0?$pair@$$CBV?$basic_string@DU?$char_traits@D@std@@V?$allocator@D@2@@std@@PAVIPlayer@@@std@@QAE@ABU01@@Z 00407110 f i GamePlayer.obj
 0001:00006140       ??_G_Node@?$_Tree_nod@V?$_Tmap_traits@V?$basic_string@DU?$char_traits@D@std@@V?$allocator@D@2@@std@@PAVIPlayer@@U?$less@V?$basic_string@DU?$char_traits@D@std@@V?$allocator@D@2@@std@@@2@V?$allocator@U?$pair@$$CBV?$basic_string@DU?$char_traits@D@std@@V?$allocator@D@2@@std@@PAVIPlayer@@@std@@@2@$0A@@std@@@std@@QAEPAXI@Z 00407140 f i GamePlayer.obj
 0001:00006180       ??0logic_error@std@@QAE@ABV?$basic_string@DU?$char_traits@D@std@@V?$allocator@D@2@@1@@Z 00407180 f i GamePlayer.obj
 0001:000061f0       ??0length_error@std@@QAE@ABV?$basic_string@DU?$char_traits@D@std@@V?$allocator@D@2@@1@@Z 004071f0 f i GamePlayer.obj
 0001:00006210       ??1length_error@std@@UAE@XZ 00407210 f i GamePlayer.obj
 0001:00006250       ??_Elength_error@std@@UAEPAXI@Z 00407250 f i GamePlayer.obj
 0001:00006250       ??_Glength_error@std@@UAEPAXI@Z 00407250 f i GamePlayer.obj
 0001:000062a0       ??0out_of_range@std@@QAE@ABV?$basic_string@DU?$char_traits@D@std@@V?$allocator@D@2@@1@@Z 004072a0 f i GamePlayer.obj
 0001:000062c0       ??1out_of_range@std@@UAE@XZ 004072c0 f i GamePlayer.obj
 0001:00006300       ??_Gout_of_range@std@@UAEPAXI@Z 00407300 f i GamePlayer.obj
 0001:00006300       ??_Eout_of_range@std@@UAEPAXI@Z 00407300 f i GamePlayer.obj
 0001:00006350       ??0runtime_error@std@@QAE@ABV?$basic_string@DU?$char_traits@D@std@@V?$allocator@D@2@@1@@Z 00407350 f i GamePlayer.obj
 0001:000063c0       ??0failure@ios_base@std@@QAE@ABV?$basic_string@DU?$char_traits@D@std@@V?$allocator@D@2@@2@@Z 004073c0 f i GamePlayer.obj
 0001:000063e0       ??1failure@ios_base@std@@UAE@XZ 004073e0 f i GamePlayer.obj
 0001:00006420       ??_Gfailure@ios_base@std@@UAEPAXI@Z 00407420 f i GamePlayer.obj
 0001:00006420       ??_Efailure@ios_base@std@@UAEPAXI@Z 00407420 f i GamePlayer.obj
 0001:00006470       ?erase@?$_Tree@V?$_Tmap_traits@JPAVCBuffer@Win32@OnlineGameLib@@U?$less@J@std@@V?$allocator@U?$pair@$$CBJPAVCBuffer@Win32@OnlineGameLib@@@std@@@5@$0A@@std@@@std@@QAE?AViterator@12@V312@@Z 00407470 f i GamePlayer.obj
 0001:00006730       ??0logic_error@std@@QAE@ABV01@@Z 00407730 f i GamePlayer.obj
 0001:000067b0       ?erase@?$_Tree@V?$_Tmap_traits@JPAVCBuffer@Win32@OnlineGameLib@@U?$less@J@std@@V?$allocator@U?$pair@$$CBJPAVCBuffer@Win32@OnlineGameLib@@@std@@@5@$0A@@std@@@std@@QAE?AViterator@12@V312@0@Z 004077b0 f i GamePlayer.obj
 0001:00006880       ?_Insert@?$_Tree@V?$_Tmap_traits@JPAVCBuffer@Win32@OnlineGameLib@@U?$less@J@std@@V?$allocator@U?$pair@$$CBJPAVCBuffer@Win32@OnlineGameLib@@@std@@@5@$0A@@std@@@std@@IAE?AViterator@12@_NPAU_Node@?$_Tree_nod@V?$_Tmap_traits@JPAVCBuffer@Win32@OnlineGameLib@@U?$less@J@std@@V?$allocator@U?$pair@$$CBJPAVCBuffer@Win32@OnlineGameLib@@@std@@@5@$0A@@std@@@2@ABU?$pair@$$CBJPAVCBuffer@Win32@OnlineGameLib@@@2@@Z 00407880 f i GamePlayer.obj
 0001:00006a80       ?_Tidy@?$_Tree@V?$_Tmap_traits@JPAVCBuffer@Win32@OnlineGameLib@@U?$less@J@std@@V?$allocator@U?$pair@$$CBJPAVCBuffer@Win32@OnlineGameLib@@@std@@@5@$0A@@std@@@std@@IAEXXZ 00407a80 f i GamePlayer.obj
 0001:00006ac0       ??0length_error@std@@QAE@ABV01@@Z 00407ac0 f i GamePlayer.obj
 0001:00006ae0       ?_Xlen@?$vector@PAVICommand@@V?$allocator@PAVICommand@@@std@@@std@@KAXXZ 00407ae0 f i GamePlayer.obj
 0001:00006b60       ??0_Node@?$_Tree_nod@V?$_Tmap_traits@V?$basic_string@DU?$char_traits@D@std@@V?$allocator@D@2@@std@@PAVIPlayer@@U?$less@V?$basic_string@DU?$char_traits@D@std@@V?$allocator@D@2@@std@@@2@V?$allocator@U?$pair@$$CBV?$basic_string@DU?$char_traits@D@std@@V?$allocator@D@2@@std@@PAVIPlayer@@@std@@@2@$0A@@std@@@std@@QAE@PAU012@00ABU?$pair@$$CBV?$basic_string@DU?$char_traits@D@std@@V?$allocator@D@2@@std@@PAVIPlayer@@@2@D@Z 00407b60 f i GamePlayer.obj
 0001:00006bc0       ??$_Destroy@U_Node@?$_Tree_nod@V?$_Tmap_traits@V?$basic_string@DU?$char_traits@D@std@@V?$allocator@D@2@@std@@PAVIPlayer@@U?$less@V?$basic_string@DU?$char_traits@D@std@@V?$allocator@D@2@@std@@@2@V?$allocator@U?$pair@$$CBV?$basic_string@DU?$char_traits@D@std@@V?$allocator@D@2@@std@@PAVIPlayer@@@std@@@2@$0A@@std@@@std@@@std@@YAXPAU_Node@?$_Tree_nod@V?$_Tmap_traits@V?$basic_string@DU?$char_traits@D@std@@V?$allocator@D@2@@std@@PAVIPlayer@@U?$less@V?$basic_string@DU?$char_traits@D@std@@V?$allocator@D@2@@std@@@2@V?$allocator@U?$pair@$$CBV?$basic_string@DU?$char_traits@D@std@@V?$allocator@D@2@@std@@PAVIPlayer@@@std@@@2@$0A@@std@@@0@@Z 00407bc0 f i GamePlayer.obj
 0001:00006bf0       ??0_Locinfo@std@@QAE@PBD@Z 00407bf0 f i GamePlayer.obj
 0001:00006cc0       ??0runtime_error@std@@QAE@ABV01@@Z 00407cc0 f i GamePlayer.obj
 0001:00006d40       ??0out_of_range@std@@QAE@ABV01@@Z 00407d40 f i GamePlayer.obj
 0001:00006d60       ??0?$ctype@D@std@@QAE@PBF_NI@Z 00407d60 f i GamePlayer.obj
 0001:00006e60       ?do_tolower@?$ctype@D@std@@MBEDD@Z 00407e60 f i GamePlayer.obj
 0001:00006e80       ?do_tolower@?$ctype@D@std@@MBEPBDPADPBD@Z 00407e80 f i GamePlayer.obj
 0001:00006eb0       ?do_toupper@?$ctype@D@std@@MBEDD@Z 00407eb0 f i GamePlayer.obj
 0001:00006ed0       ?do_toupper@?$ctype@D@std@@MBEPBDPADPBD@Z 00407ed0 f i GamePlayer.obj
 0001:00006f00       ?do_widen@?$ctype@D@std@@MBEDD@Z 00407f00 f i GamePlayer.obj
 0001:00006f10       ?do_widen@?$ctype@D@std@@MBEPBDPBD0PAD@Z 00407f10 f i GamePlayer.obj
 0001:00006f40       ?_Do_widen_s@?$ctype@D@std@@MBEPBDPBD0PADI@Z 00407f40 f i GamePlayer.obj
 0001:00006f80       ?do_narrow@?$ctype@D@std@@MBEDDD@Z 00407f80 f i GamePlayer.obj
 0001:00006f90       ?do_narrow@?$ctype@D@std@@MBEPBDPBD0DPAD@Z 00407f90 f i GamePlayer.obj
 0001:00006fc0       ?_Do_narrow_s@?$ctype@D@std@@MBEPBDPBD0DPADI@Z 00407fc0 f i GamePlayer.obj
 0001:00007000       ??1?$ctype@D@std@@MAE@XZ   00408000 f i GamePlayer.obj
 0001:00007040       ??_G?$ctype@D@std@@MAEPAXI@Z 00408040 f i GamePlayer.obj
 0001:00007040       ??_E?$ctype@D@std@@MAEPAXI@Z 00408040 f i GamePlayer.obj
 0001:00007090       ?_Getcat@?$ctype@D@std@@SAIPAPBVfacet@locale@2@@Z 00408090 f i GamePlayer.obj
 0001:00007110       ?clear@ios_base@std@@QAEXH_N@Z 00408110 f i GamePlayer.obj
 0001:00007240       ??0failure@ios_base@std@@QAE@ABV012@@Z 00408240 f i GamePlayer.obj
 0001:00007260       ?clear@ios_base@std@@QAEXH@Z 00408260 f i GamePlayer.obj
 0001:00007270       ?_Init@ios_base@std@@IAEXXZ 00408270 f i GamePlayer.obj
 0001:000072f0       ?Empty@CDataQueue@CGamePlayer@@QAEXXZ 004082f0 f   GamePlayer.obj
 0001:00007400       ?Attach@CDataQueue@CGamePlayer@@QAEPAVCBuffer@Win32@OnlineGameLib@@J@Z 00408400 f   GamePlayer.obj
 0001:000074c0       ?Clear@CDataQueue@CGamePlayer@@QAEXJ@Z 004084c0 f   GamePlayer.obj
 0001:000075a0       ?_ClearTaskQueue@CGamePlayer@@IAEXXZ 004085a0 f   GamePlayer.obj
 0001:000075d0       ?WaitForAccPwd@CGamePlayer@@IAEIXZ 004085d0 f   GamePlayer.obj
 0001:000076c0       ?QueryAccPwd@CGamePlayer@@IAEIXZ 004086c0 f   GamePlayer.obj
 0001:00007880       ?VerifyAccount@CGamePlayer@@IAEIXZ 00408880 f   GamePlayer.obj
 0001:00007990       ?QueryRoleList@CGamePlayer@@IAEIXZ 00408990 f   GamePlayer.obj
 0001:00007a80       ?ProcessRoleList@CGamePlayer@@IAEIXZ 00408a80 f   GamePlayer.obj
 0001:00007b60       ?DelRole_WaitForVerify@CGamePlayer@@IAEIXZ 00408b60 f   GamePlayer.obj
 0001:00007cd0       ?WaitForCreateResult@CGamePlayer@@IAEIXZ 00408cd0 f   GamePlayer.obj
 0001:00007de0       ?WaitForDeleteResult@CGamePlayer@@IAEIXZ 00408de0 f   GamePlayer.obj
 0001:00007ee0       ?_DeleteRole_ToDBRole@CGamePlayer@@IAEIPBXI@Z 00408ee0 f   GamePlayer.obj
 0001:00007f50       ?WaitForGameSvrPermit@CGamePlayer@@IAEIXZ 00408f50 f   GamePlayer.obj
 0001:00008020       ?Attach@CGamePlayer@@UAE_NPBD@Z 00409020 f   GamePlayer.obj
 0001:00008060       ?Get@CGamePlayer@@SAPAVIPlayer@@PBD@Z 00409060 f   GamePlayer.obj
 0001:000081a0       ??1?$_Tree@V?$_Tmap_traits@JPAVCBuffer@Win32@OnlineGameLib@@U?$less@J@std@@V?$allocator@U?$pair@$$CBJPAVCBuffer@Win32@OnlineGameLib@@@std@@@5@$0A@@std@@@std@@QAE@XZ 004091a0 f i GamePlayer.obj
 0001:000081e0       ?insert@?$_Tree@V?$_Tmap_traits@JPAVCBuffer@Win32@OnlineGameLib@@U?$less@J@std@@V?$allocator@U?$pair@$$CBJPAVCBuffer@Win32@OnlineGameLib@@@std@@@5@$0A@@std@@@std@@QAE?AU?$pair@Viterator@?$_Tree@V?$_Tmap_traits@JPAVCBuffer@Win32@OnlineGameLib@@U?$less@J@std@@V?$allocator@U?$pair@$$CBJPAVCBuffer@Win32@OnlineGameLib@@@std@@@5@$0A@@std@@@std@@_N@2@ABU?$pair@$$CBJPAVCBuffer@Win32@OnlineGameLib@@@2@@Z 004091e0 f i GamePlayer.obj
 0001:000082a0       ?clear@?$basic_ios@DU?$char_traits@D@std@@@std@@QAEXH_N@Z 004092a0 f i GamePlayer.obj
 0001:000082c0       ?_Buy@?$vector@PAVICommand@@V?$allocator@PAVICommand@@@std@@@std@@IAE_NI@Z 004092c0 f i GamePlayer.obj
 0001:00008310       ?destroy@?$allocator@U_Node@?$_Tree_nod@V?$_Tmap_traits@V?$basic_string@DU?$char_traits@D@std@@V?$allocator@D@2@@std@@PAVIPlayer@@U?$less@V?$basic_string@DU?$char_traits@D@std@@V?$allocator@D@2@@std@@@2@V?$allocator@U?$pair@$$CBV?$basic_string@DU?$char_traits@D@std@@V?$allocator@D@2@@std@@PAVIPlayer@@@std@@@2@$0A@@std@@@std@@@std@@QAEXPAU_Node@?$_Tree_nod@V?$_Tmap_traits@V?$basic_string@DU?$char_traits@D@std@@V?$allocator@D@2@@std@@PAVIPlayer@@U?$less@V?$basic_string@DU?$char_traits@D@std@@V?$allocator@D@2@@std@@@2@V?$allocator@U?$pair@$$CBV?$basic_string@DU?$char_traits@D@std@@V?$allocator@D@2@@std@@PAVIPlayer@@@std@@@2@$0A@@std@@@2@@Z 00409310 f i GamePlayer.obj
 0001:00008340       ?_Insert_n@?$vector@PAVICommand@@V?$allocator@PAVICommand@@@std@@@std@@IAEXV?$_Vector_iterator@PAVICommand@@V?$allocator@PAVICommand@@@std@@@2@IABQAVICommand@@@Z 00409340 f i GamePlayer.obj
 0001:00008500       ?_Erase@?$_Tree@V?$_Tmap_traits@V?$basic_string@DU?$char_traits@D@std@@V?$allocator@D@2@@std@@PAVIPlayer@@U?$less@V?$basic_string@DU?$char_traits@D@std@@V?$allocator@D@2@@std@@@2@V?$allocator@U?$pair@$$CBV?$basic_string@DU?$char_traits@D@std@@V?$allocator@D@2@@std@@PAVIPlayer@@@std@@@2@$0A@@std@@@std@@IAEXPAU_Node@?$_Tree_nod@V?$_Tmap_traits@V?$basic_string@DU?$char_traits@D@std@@V?$allocator@D@2@@std@@PAVIPlayer@@U?$less@V?$basic_string@DU?$char_traits@D@std@@V?$allocator@D@2@@std@@@2@V?$allocator@U?$pair@$$CBV?$basic_string@DU?$char_traits@D@std@@V?$allocator@D@2@@std@@PAVIPlayer@@@std@@@2@$0A@@std@@@2@@Z 00409500 f i GamePlayer.obj
 0001:00008560       ?_Buynode@?$_Tree@V?$_Tmap_traits@V?$basic_string@DU?$char_traits@D@std@@V?$allocator@D@2@@std@@PAVIPlayer@@U?$less@V?$basic_string@DU?$char_traits@D@std@@V?$allocator@D@2@@std@@@2@V?$allocator@U?$pair@$$CBV?$basic_string@DU?$char_traits@D@std@@V?$allocator@D@2@@std@@PAVIPlayer@@@std@@@2@$0A@@std@@@std@@IAEPAU_Node@?$_Tree_nod@V?$_Tmap_traits@V?$basic_string@DU?$char_traits@D@std@@V?$allocator@D@2@@std@@PAVIPlayer@@U?$less@V?$basic_string@DU?$char_traits@D@std@@V?$allocator@D@2@@std@@@2@V?$allocator@U?$pair@$$CBV?$basic_string@DU?$char_traits@D@std@@V?$allocator@D@2@@std@@PAVIPlayer@@@std@@@2@$0A@@std@@@2@PAU342@00ABU?$pair@$$CBV?$basic_string@DU?$char_traits@D@std@@V?$allocator@D@2@@std@@PAVIPlayer@@@2@D@Z 00409560 f i GamePlayer.obj
 0001:00008600       ??$use_facet@V?$ctype@D@std@@@std@@YAABV?$ctype@D@0@ABVlocale@0@@Z 00409600 f i GamePlayer.obj
 0001:00008730       ??0?$num_put@DV?$ostreambuf_iterator@DU?$char_traits@D@std@@@std@@@std@@QAE@I@Z 00409730 f i GamePlayer.obj
 0001:000087d0       ?assign@?$char_traits@D@std@@SAPADPADID@Z 004097d0 f i GamePlayer.obj
 0001:000087f0       ?_Getlconv@_Locinfo@std@@QBEPBUlconv@@XZ 004097f0 f i GamePlayer.obj
 0001:00008800       ?_Getfalse@_Locinfo@std@@QBEPBDXZ 00409800 f i GamePlayer.obj
 0001:00008810       ?_Gettrue@_Locinfo@std@@QBEPBDXZ 00409810 f i GamePlayer.obj
 0001:00008820       ?precision@ios_base@std@@QBEHXZ 00409820 f i GamePlayer.obj
 0001:00008830       ?width@ios_base@std@@QBEHXZ 00409830 f i GamePlayer.obj
 0001:00008840       ?width@ios_base@std@@QAEHH@Z 00409840 f i GamePlayer.obj
 0001:00008850       ??1?$num_put@DV?$ostreambuf_iterator@DU?$char_traits@D@std@@@std@@@std@@MAE@XZ 00409850 f i GamePlayer.obj
 0001:00008860       ??_E?$num_put@DV?$ostreambuf_iterator@DU?$char_traits@D@std@@@std@@@std@@MAEPAXI@Z 00409860 f i GamePlayer.obj
 0001:00008860       ??_G?$num_put@DV?$ostreambuf_iterator@DU?$char_traits@D@std@@@std@@@std@@MAEPAXI@Z 00409860 f i GamePlayer.obj
 0001:00008880       ?_Ffmt@?$num_put@DV?$ostreambuf_iterator@DU?$char_traits@D@std@@@std@@@std@@ABAPADPADDH@Z 00409880 f i GamePlayer.obj
 0001:000088f0       ?_Ifmt@?$num_put@DV?$ostreambuf_iterator@DU?$char_traits@D@std@@@std@@@std@@ABAPADPADPBDH@Z 004098f0 f i GamePlayer.obj
 0001:00008990       ??A?$basic_string@DU?$char_traits@D@std@@V?$allocator@D@2@@std@@QAEAADI@Z 00409990 f i GamePlayer.obj
 0001:000089c0       ??D?$ostreambuf_iterator@DU?$char_traits@D@std@@@std@@QAEAAV01@XZ 004099c0 f i GamePlayer.obj
 0001:000089d0       ??E?$ostreambuf_iterator@DU?$char_traits@D@std@@@std@@QAEAAV01@XZ 004099d0 f i GamePlayer.obj
 0001:000089e0       ?decimal_point@?$numpunct@D@std@@QBEDXZ 004099e0 f i GamePlayer.obj
 0001:000089f0       ?thousands_sep@?$numpunct@D@std@@QBEDXZ 004099f0 f i GamePlayer.obj
 0001:00008a00       ?_Tidy@?$numpunct@D@std@@AAEXXZ 00409a00 f i GamePlayer.obj
 0001:00008a30       ?_Chassign@?$basic_string@DU?$char_traits@D@std@@V?$allocator@D@2@@std@@IAEXIID@Z 00409a30 f i GamePlayer.obj
 0001:00008a90       ??$_Maklocchr@D@std@@YADDPADABU_Cvtvec@@@Z 00409a90 f i GamePlayer.obj
 0001:00008aa0       ??$_Maklocstr@D@std@@YAPADPBDPADABU_Cvtvec@@@Z 00409aa0 f i GamePlayer.obj
 0001:00008af0       ??4?$ostreambuf_iterator@DU?$char_traits@D@std@@@std@@QAEAAV01@D@Z 00409af0 f i GamePlayer.obj
 0001:00008b40       ?_Init@?$numpunct@D@std@@IAEXABV_Locinfo@2@@Z 00409b40 f i GamePlayer.obj
 0001:00008c20       ?_Put@?$num_put@DV?$ostreambuf_iterator@DU?$char_traits@D@std@@@std@@@std@@ABA?AV?$ostreambuf_iterator@DU?$char_traits@D@std@@@2@V32@PBDI@Z 00409c20 f i GamePlayer.obj
 0001:00008ca0       ?_Rep@?$num_put@DV?$ostreambuf_iterator@DU?$char_traits@D@std@@@std@@@std@@ABA?AV?$ostreambuf_iterator@DU?$char_traits@D@std@@@2@V32@DI@Z 00409ca0 f i GamePlayer.obj
 0001:00008d20       ?_Putc@?$num_put@DV?$ostreambuf_iterator@DU?$char_traits@D@std@@@std@@@std@@ABA?AV?$ostreambuf_iterator@DU?$char_traits@D@std@@@2@V32@PBDI@Z 00409d20 f i GamePlayer.obj
 0001:00008da0       ?_Putgrouped@?$num_put@DV?$ostreambuf_iterator@DU?$char_traits@D@std@@@std@@@std@@ABA?AV?$ostreambuf_iterator@DU?$char_traits@D@std@@@2@V32@PBDID@Z 00409da0 f i GamePlayer.obj
 0001:00008e70       ?falsename@?$numpunct@D@std@@QBE?AV?$basic_string@DU?$char_traits@D@std@@V?$allocator@D@2@@2@XZ 00409e70 f i GamePlayer.obj
 0001:00008e90       ?truename@?$numpunct@D@std@@QBE?AV?$basic_string@DU?$char_traits@D@std@@V?$allocator@D@2@@2@XZ 00409e90 f i GamePlayer.obj
 0001:00008eb0       ?append@?$basic_string@DU?$char_traits@D@std@@V?$allocator@D@2@@std@@QAEAAV12@ID@Z 00409eb0 f i GamePlayer.obj
 0001:00008f60       ?insert@?$basic_string@DU?$char_traits@D@std@@V?$allocator@D@2@@std@@QAEAAV12@IID@Z 00409f60 f i GamePlayer.obj
 0001:00009060       ?grouping@?$numpunct@D@std@@QBE?AV?$basic_string@DU?$char_traits@D@std@@V?$allocator@D@2@@2@XZ 0040a060 f i GamePlayer.obj
 0001:00009080       ?append@?$basic_string@DU?$char_traits@D@std@@V?$allocator@D@2@@std@@QAEAAV12@ABV12@II@Z 0040a080 f i GamePlayer.obj
 0001:00009180       ?assign@?$basic_string@DU?$char_traits@D@std@@V?$allocator@D@2@@std@@QAEAAV12@ABV12@@Z 0040a180 f i GamePlayer.obj
 0001:000091a0       ?append@?$basic_string@DU?$char_traits@D@std@@V?$allocator@D@2@@std@@QAEAAV12@PBDI@Z 0040a1a0 f i GamePlayer.obj
 0001:00009290       ??0?$numpunct@D@std@@QAE@I@Z 0040a290 f i GamePlayer.obj
 0001:00009350       ?do_decimal_point@?$numpunct@D@std@@MBEDXZ 0040a350 f i GamePlayer.obj
 0001:00009360       ?do_thousands_sep@?$numpunct@D@std@@MBEDXZ 0040a360 f i GamePlayer.obj
 0001:00009370       ??1?$numpunct@D@std@@MAE@XZ 0040a370 f i GamePlayer.obj
 0001:000093a0       ??_G?$numpunct@D@std@@MAEPAXI@Z 0040a3a0 f i GamePlayer.obj
 0001:000093a0       ??_E?$numpunct@D@std@@MAEPAXI@Z 0040a3a0 f i GamePlayer.obj
 0001:000093f0       ?do_grouping@?$numpunct@D@std@@MBE?AV?$basic_string@DU?$char_traits@D@std@@V?$allocator@D@2@@2@XZ 0040a3f0 f i GamePlayer.obj
 0001:00009440       ?do_falsename@?$numpunct@D@std@@MBE?AV?$basic_string@DU?$char_traits@D@std@@V?$allocator@D@2@@2@XZ 0040a440 f i GamePlayer.obj
 0001:00009490       ?do_truename@?$numpunct@D@std@@MBE?AV?$basic_string@DU?$char_traits@D@std@@V?$allocator@D@2@@2@XZ 0040a490 f i GamePlayer.obj
 0001:000094e0       ??1?$map@JPAVCBuffer@Win32@OnlineGameLib@@U?$less@J@std@@V?$allocator@U?$pair@$$CBJPAVCBuffer@Win32@OnlineGameLib@@@std@@@5@@std@@QAE@XZ 0040a4e0 f i GamePlayer.obj
 0001:00009520       ??1CDataQueue@CGamePlayer@@QAE@XZ 0040a520 f   GamePlayer.obj
 0001:000095c0       ?AddData@CDataQueue@CGamePlayer@@QAE_NJPBEI@Z 0040a5c0 f   GamePlayer.obj
 0001:00009730       ?DispatchTaskForAccount@CGamePlayer@@IAE_NPBXI@Z 0040a730 f   GamePlayer.obj
 0001:00009760       ?DispatchTaskForDBRole@CGamePlayer@@IAE_NPBXI@Z 0040a760 f   GamePlayer.obj
 0001:00009790       ?DispatchTaskForPlayer@CGamePlayer@@IAE_NPBXI@Z 0040a790 f   GamePlayer.obj
 0001:000097c0       ?_CreateNewPlayer_ToDBRole@CGamePlayer@@IAE_NPBDHHG@Z 0040a7c0 f   GamePlayer.obj
 0001:000099f0       ?setstate@?$basic_ios@DU?$char_traits@D@std@@@std@@QAEXH_N@Z 0040a9f0 f i GamePlayer.obj
 0001:00009a20       ??0?$vector@PAVICommand@@V?$allocator@PAVICommand@@@std@@@std@@QAE@XZ 0040aa20 f i GamePlayer.obj
 0001:00009a30       ?erase@?$_Tree@V?$_Tmap_traits@V?$basic_string@DU?$char_traits@D@std@@V?$allocator@D@2@@std@@PAVIPlayer@@U?$less@V?$basic_string@DU?$char_traits@D@std@@V?$allocator@D@2@@std@@@2@V?$allocator@U?$pair@$$CBV?$basic_string@DU?$char_traits@D@std@@V?$allocator@D@2@@std@@PAVIPlayer@@@std@@@2@$0A@@std@@@std@@QAE?AViterator@12@V312@@Z 0040aa30 f i GamePlayer.obj
 0001:00009d20       ??0?$map@JPAVCBuffer@Win32@OnlineGameLib@@U?$less@J@std@@V?$allocator@U?$pair@$$CBJPAVCBuffer@Win32@OnlineGameLib@@@std@@@5@@std@@QAE@XZ 0040ad20 f i GamePlayer.obj
 0001:00009d50       ?insert@?$vector@PAVICommand@@V?$allocator@PAVICommand@@@std@@@std@@QAE?AV?$_Vector_iterator@PAVICommand@@V?$allocator@PAVICommand@@@std@@@2@V32@ABQAVICommand@@@Z 0040ad50 f i GamePlayer.obj
 0001:00009de0       ?clear@?$_Tree@V?$_Tmap_traits@V?$basic_string@DU?$char_traits@D@std@@V?$allocator@D@2@@std@@PAVIPlayer@@U?$less@V?$basic_string@DU?$char_traits@D@std@@V?$allocator@D@2@@std@@@2@V?$allocator@U?$pair@$$CBV?$basic_string@DU?$char_traits@D@std@@V?$allocator@D@2@@std@@PAVIPlayer@@@std@@@2@$0A@@std@@@std@@QAEXXZ 0040ade0 f i GamePlayer.obj
 0001:00009e10       ?_Insert@?$_Tree@V?$_Tmap_traits@V?$basic_string@DU?$char_traits@D@std@@V?$allocator@D@2@@std@@PAVIPlayer@@U?$less@V?$basic_string@DU?$char_traits@D@std@@V?$allocator@D@2@@std@@@2@V?$allocator@U?$pair@$$CBV?$basic_string@DU?$char_traits@D@std@@V?$allocator@D@2@@std@@PAVIPlayer@@@std@@@2@$0A@@std@@@std@@IAE?AViterator@12@_NPAU_Node@?$_Tree_nod@V?$_Tmap_traits@V?$basic_string@DU?$char_traits@D@std@@V?$allocator@D@2@@std@@PAVIPlayer@@U?$less@V?$basic_string@DU?$char_traits@D@std@@V?$allocator@D@2@@std@@@2@V?$allocator@U?$pair@$$CBV?$basic_string@DU?$char_traits@D@std@@V?$allocator@D@2@@std@@PAVIPlayer@@@std@@@2@$0A@@std@@@2@ABU?$pair@$$CBV?$basic_string@DU?$char_traits@D@std@@V?$allocator@D@2@@std@@PAVIPlayer@@@2@@Z 0040ae10 f i GamePlayer.obj
 0001:0000a010       ?widen@?$basic_ios@DU?$char_traits@D@std@@@std@@QBEDD@Z 0040b010 f i GamePlayer.obj
 0001:0000a0d0       ?_Getcat@?$num_put@DV?$ostreambuf_iterator@DU?$char_traits@D@std@@@std@@@std@@SAIPAPBVfacet@locale@2@@Z 0040b0d0 f i GamePlayer.obj
 0001:0000a140       ?_Getcat@?$numpunct@D@std@@SAIPAPBVfacet@locale@2@@Z 0040b140 f i GamePlayer.obj
 0001:0000a1b0       ??0CTask@CGamePlayer@@IAE@XZ 0040b1b0 f   GamePlayer.obj
 0001:0000a1c0       ??0CTask@CGamePlayer@@QAE@PAV1@I@Z 0040b1c0 f   GamePlayer.obj
 0001:0000a1e0       ??0CDataQueue@CGamePlayer@@QAE@II@Z 0040b1e0 f   GamePlayer.obj
 0001:0000a260       ??_FCDataQueue@CGamePlayer@@QAEXXZ 0040b260 f i GamePlayer.obj
 0001:0000a270       ?SmallPackProcess@CGamePlayer@@IAE_NIPBXI@Z 0040b270 f   GamePlayer.obj
 0001:0000a2c0       ?LargePackProcess@CGamePlayer@@IAE_NIPBXI@Z 0040b2c0 f   GamePlayer.obj
 0001:0000a370       ?SelAddDelRole@CGamePlayer@@IAEIXZ 0040b370 f   GamePlayer.obj
 0001:0000a550       ?Del@CGamePlayer@@SA_NPBD@Z 0040b550 f   GamePlayer.obj
 0001:0000a6b0       ?flush@?$basic_ostream@DU?$char_traits@D@std@@@std@@QAEAAV12@XZ 0040b6b0 f i GamePlayer.obj
 0001:0000a700       ?push_back@?$vector@PAVICommand@@V?$allocator@PAVICommand@@@std@@@std@@QAEXABQAVICommand@@@Z 0040b700 f i GamePlayer.obj
 0001:0000a770       ?insert@?$_Tree@V?$_Tmap_traits@V?$basic_string@DU?$char_traits@D@std@@V?$allocator@D@2@@std@@PAVIPlayer@@U?$less@V?$basic_string@DU?$char_traits@D@std@@V?$allocator@D@2@@std@@@2@V?$allocator@U?$pair@$$CBV?$basic_string@DU?$char_traits@D@std@@V?$allocator@D@2@@std@@PAVIPlayer@@@std@@@2@$0A@@std@@@std@@QAE?AU?$pair@Viterator@?$_Tree@V?$_Tmap_traits@V?$basic_string@DU?$char_traits@D@std@@V?$allocator@D@2@@std@@PAVIPlayer@@U?$less@V?$basic_string@DU?$char_traits@D@std@@V?$allocator@D@2@@std@@@2@V?$allocator@U?$pair@$$CBV?$basic_string@DU?$char_traits@D@std@@V?$allocator@D@2@@std@@PAVIPlayer@@@std@@@2@$0A@@std@@@std@@_N@2@ABU?$pair@$$CBV?$basic_string@DU?$char_traits@D@std@@V?$allocator@D@2@@std@@PAVIPlayer@@@2@@Z 0040b770 f i GamePlayer.obj
 0001:0000a8a0       ?erase@?$_Tree@V?$_Tmap_traits@V?$basic_string@DU?$char_traits@D@std@@V?$allocator@D@2@@std@@PAVIPlayer@@U?$less@V?$basic_string@DU?$char_traits@D@std@@V?$allocator@D@2@@std@@@2@V?$allocator@U?$pair@$$CBV?$basic_string@DU?$char_traits@D@std@@V?$allocator@D@2@@std@@PAVIPlayer@@@std@@@2@$0A@@std@@@std@@QAE?AViterator@12@V312@0@Z 0040b8a0 f i GamePlayer.obj
 0001:0000a970       ?init@?$basic_ios@DU?$char_traits@D@std@@@std@@IAEXPAV?$basic_streambuf@DU?$char_traits@D@std@@@2@_N@Z 0040b970 f i GamePlayer.obj
 0001:0000a9d0       ?_Tidy@?$_Tree@V?$_Tmap_traits@V?$basic_string@DU?$char_traits@D@std@@V?$allocator@D@2@@std@@PAVIPlayer@@U?$less@V?$basic_string@DU?$char_traits@D@std@@V?$allocator@D@2@@std@@@2@V?$allocator@U?$pair@$$CBV?$basic_string@DU?$char_traits@D@std@@V?$allocator@D@2@@std@@PAVIPlayer@@@std@@@2@$0A@@std@@@std@@IAEXXZ 0040b9d0 f i GamePlayer.obj
 0001:0000aa10       ??0sentry@?$basic_ostream@DU?$char_traits@D@std@@@std@@QAE@AAV12@@Z 0040ba10 f i GamePlayer.obj
 0001:0000aaa0       ?_Osfx@?$basic_ostream@DU?$char_traits@D@std@@@std@@QAEXXZ 0040baa0 f i GamePlayer.obj
 0001:0000ab00       ??$use_facet@V?$num_put@DV?$ostreambuf_iterator@DU?$char_traits@D@std@@@std@@@std@@@std@@YAABV?$num_put@DV?$ostreambuf_iterator@DU?$char_traits@D@std@@@std@@@0@ABVlocale@0@@Z 0040bb00 f i GamePlayer.obj
 0001:0000ac30       ??$use_facet@V?$numpunct@D@std@@@std@@YAABV?$numpunct@D@0@ABVlocale@0@@Z 0040bc30 f i GamePlayer.obj
 0001:0000ad60       ?AddCmd@CTask@CGamePlayer@@QAEIP82@AEIXZ@Z 0040bd60 f   GamePlayer.obj
 0001:0000adb0       ??1CGamePlayer@@UAE@XZ     0040bdb0 f   GamePlayer.obj
 0001:0000afa0       ?IsActive@CGamePlayer@@UAE_NXZ 0040bfa0 f i GamePlayer.obj
 0001:0000afb0       ?Inactive@CGamePlayer@@UAE_NXZ 0040bfb0 f   GamePlayer.obj
 0001:0000b090       ?AppendData@CGamePlayer@@UAE_NIPBXI@Z 0040c090 f   GamePlayer.obj
 0001:0000b0e0       ?Add@CGamePlayer@@SA_NPBDPAVIPlayer@@@Z 0040c0e0 f   GamePlayer.obj
 0001:0000b1e0       ??0?$basic_istream@DU?$char_traits@D@std@@@std@@QAE@PAV?$basic_streambuf@DU?$char_traits@D@std@@@1@_N@Z 0040c1e0 f i GamePlayer.obj
 0001:0000b270       ??0?$basic_iostream@DU?$char_traits@D@std@@@std@@QAE@PAV?$basic_streambuf@DU?$char_traits@D@std@@@1@@Z 0040c270 f i GamePlayer.obj
 0001:0000b350       ??1?$_Tree@V?$_Tmap_traits@V?$basic_string@DU?$char_traits@D@std@@V?$allocator@D@2@@std@@PAVIPlayer@@U?$less@V?$basic_string@DU?$char_traits@D@std@@V?$allocator@D@2@@std@@@2@V?$allocator@U?$pair@$$CBV?$basic_string@DU?$char_traits@D@std@@V?$allocator@D@2@@std@@PAVIPlayer@@@std@@@2@$0A@@std@@@std@@QAE@XZ 0040c350 f i GamePlayer.obj
 0001:0000b390       ??1sentry@?$basic_ostream@DU?$char_traits@D@std@@@std@@QAE@XZ 0040c390 f i GamePlayer.obj
 0001:0000b400       ??6?$basic_ostream@DU?$char_traits@D@std@@@std@@QAEAAV01@J@Z 0040c400 f i GamePlayer.obj
 0001:0000b560       ?do_put@?$num_put@DV?$ostreambuf_iterator@DU?$char_traits@D@std@@@std@@@std@@MBE?AV?$ostreambuf_iterator@DU?$char_traits@D@std@@@2@V32@AAVios_base@2@D_N@Z 0040c560 f i GamePlayer.obj
 0001:0000b7b0       ?_Fput@?$num_put@DV?$ostreambuf_iterator@DU?$char_traits@D@std@@@std@@@std@@ABA?AV?$ostreambuf_iterator@DU?$char_traits@D@std@@@2@V32@AAVios_base@2@DPBDIIII@Z 0040c7b0 f i GamePlayer.obj
 0001:0000bec0       ?_Iput@?$num_put@DV?$ostreambuf_iterator@DU?$char_traits@D@std@@@std@@@std@@ABA?AV?$ostreambuf_iterator@DU?$char_traits@D@std@@@2@V32@AAVios_base@2@DPADI@Z 0040cec0 f i GamePlayer.obj
 0001:0000c220       ??0strstream@std@@QAE@XZ   0040d220 f i GamePlayer.obj
 0001:0000c2e0       ??1?$map@V?$basic_string@DU?$char_traits@D@std@@V?$allocator@D@2@@std@@PAVIPlayer@@U?$less@V?$basic_string@DU?$char_traits@D@std@@V?$allocator@D@2@@std@@@2@V?$allocator@U?$pair@$$CBV?$basic_string@DU?$char_traits@D@std@@V?$allocator@D@2@@std@@PAVIPlayer@@@std@@@2@@std@@QAE@XZ 0040d2e0 f i GamePlayer.obj
 0001:0000c320       ??_ECGamePlayer@@UAEPAXI@Z 0040d320 f i GamePlayer.obj
 0001:0000c320       ??_GCGamePlayer@@UAEPAXI@Z 0040d320 f i GamePlayer.obj
 0001:0000c340       ?_SyncRoleInfo_ToGameServer@CGamePlayer@@IAE_NPBXI@Z 0040d340 f   GamePlayer.obj
 0001:0000c3f0       ?put@?$basic_ostream@DU?$char_traits@D@std@@@std@@QAEAAV12@D@Z 0040d3f0 f i GamePlayer.obj
 0001:0000c520       ??0?$map@V?$basic_string@DU?$char_traits@D@std@@V?$allocator@D@2@@std@@PAVIPlayer@@U?$less@V?$basic_string@DU?$char_traits@D@std@@V?$allocator@D@2@@std@@@2@V?$allocator@U?$pair@$$CBV?$basic_string@DU?$char_traits@D@std@@V?$allocator@D@2@@std@@PAVIPlayer@@@std@@@2@@std@@QAE@XZ 0040d520 f i GamePlayer.obj
 0001:0000c550       ?do_put@?$num_put@DV?$ostreambuf_iterator@DU?$char_traits@D@std@@@std@@@std@@MBE?AV?$ostreambuf_iterator@DU?$char_traits@D@std@@@2@V32@AAVios_base@2@DJ@Z 0040d550 f i GamePlayer.obj
 0001:0000c5f0       ?do_put@?$num_put@DV?$ostreambuf_iterator@DU?$char_traits@D@std@@@std@@@std@@MBE?AV?$ostreambuf_iterator@DU?$char_traits@D@std@@@2@V32@AAVios_base@2@DK@Z 0040d5f0 f i GamePlayer.obj
 0001:0000c690       ?do_put@?$num_put@DV?$ostreambuf_iterator@DU?$char_traits@D@std@@@std@@@std@@MBE?AV?$ostreambuf_iterator@DU?$char_traits@D@std@@@2@V32@AAVios_base@2@D_J@Z 0040d690 f i GamePlayer.obj
 0001:0000c730       ?do_put@?$num_put@DV?$ostreambuf_iterator@DU?$char_traits@D@std@@@std@@@std@@MBE?AV?$ostreambuf_iterator@DU?$char_traits@D@std@@@2@V32@AAVios_base@2@D_K@Z 0040d730 f i GamePlayer.obj
 0001:0000c7d0       ?do_put@?$num_put@DV?$ostreambuf_iterator@DU?$char_traits@D@std@@@std@@@std@@MBE?AV?$ostreambuf_iterator@DU?$char_traits@D@std@@@2@V32@AAVios_base@2@DN@Z 0040d7d0 f i GamePlayer.obj
 0001:0000c9c0       ?do_put@?$num_put@DV?$ostreambuf_iterator@DU?$char_traits@D@std@@@std@@@std@@MBE?AV?$ostreambuf_iterator@DU?$char_traits@D@std@@@2@V32@AAVios_base@2@DO@Z 0040d9c0 f i GamePlayer.obj
 0001:0000cbb0       ?do_put@?$num_put@DV?$ostreambuf_iterator@DU?$char_traits@D@std@@@std@@@std@@MBE?AV?$ostreambuf_iterator@DU?$char_traits@D@std@@@2@V32@AAVios_base@2@DPBX@Z 0040dbb0 f i GamePlayer.obj
 0001:0000cc30       ?ends@std@@YAAAV?$basic_ostream@DU?$char_traits@D@std@@@1@AAV21@@Z 0040dc30 f i GamePlayer.obj
 0001:0000cc50       ?ProcessRoleInfo@CGamePlayer@@IAEIXZ 0040dc50 f   GamePlayer.obj
 0001:0000cd50       ??$ToString@J@Win32@OnlineGameLib@@YA?AV?$basic_string@DU?$char_traits@D@std@@V?$allocator@D@2@@std@@J@Z 0040dd50 f i GamePlayer.obj
 0001:0000cea0       ?InitTaskProcessor@CGamePlayer@@AAEXXZ 0040dea0 f   GamePlayer.obj
 0001:0000cf80       ?TaskCompleted@CGamePlayer@@IAE_NXZ 0040df80 f   GamePlayer.obj
 0001:0000d040       ??0CGamePlayer@@QAE@I@Z    0040e040 f   GamePlayer.obj
 0001:0000d1f0       ?Run@CGamePlayer@@UAE_NXZ  0040e1f0 f   GamePlayer.obj
 0001:0000d330       ??1IGServer@@UAE@XZ        0040e330 f i GameServer.obj
 0001:0000d340       ??_GIGServer@@UAEPAXI@Z    0040e340 f i GameServer.obj
 0001:0000d340       ??_EIGServer@@UAEPAXI@Z    0040e340 f i GameServer.obj
 0001:0000d360       ?SetupGlobalAllocator@CGameServer@@SA_NII@Z 0040e360 f   GameServer.obj
 0001:0000d400       ??0IGServer@@QAE@XZ        0040e400 f i GameServer.obj
 0001:0000d410       ?LargePackProcess@CGameServer@@IAE_NEPBXI@Z 0040e410 f   GameServer.obj
 0001:0000d420       ?SmallPackProcess@CGameServer@@IAE_NEPBXI@Z 0040e420 f   GameServer.obj
 0001:0000d450       ?_QueryMapID@CGameServer@@IAE_NXZ 0040e450 f   GameServer.obj
 0001:0000d490       ?_QueryGameSvrInfo@CGameServer@@IAE_NXZ 0040e490 f   GameServer.obj
 0001:0000d4d0       ?_NotifyPlayerLogin@CGameServer@@IAE_NPBXI@Z 0040e4d0 f   GameServer.obj
 0001:0000d5c0       ?ConsumeMoney@CGameServer@@IAE_NPBD@Z 0040e5c0 f   GameServer.obj
 0001:0000d6e0       ?FreezeMoney@CGameServer@@IAE_NPBDG@Z 0040e6e0 f   GameServer.obj
 0001:0000d800       ?_PlayerLogicLogout@CGameServer@@IAE_NPBXI@Z 0040e800 f   GameServer.obj
 0001:0000d890       ?_SyncRoleInfo@CGameServer@@IAE_NPBXIG@Z 0040e890 f   GameServer.obj
 0001:0000d9d0       ?SendText@CGameServer@@UAEXPBDHI@Z 0040e9d0 f   GameServer.obj
 0001:0000da90       ?size@?$_Tree@V?$_Tmap_traits@V?$basic_string@DU?$char_traits@D@std@@V?$allocator@D@2@@std@@PAXU?$less@V?$basic_string@DU?$char_traits@D@std@@V?$allocator@D@2@@std@@@2@V?$allocator@U?$pair@$$CBV?$basic_string@DU?$char_traits@D@std@@V?$allocator@D@2@@std@@PAX@std@@@2@$0A@@std@@@std@@QBEIXZ 0040ea90 f i GameServer.obj
 0001:0000daa0       ?empty@?$list@PAVIGServer@@V?$allocator@PAVIGServer@@@std@@@std@@QBE_NXZ 0040eaa0 f i GameServer.obj
 0001:0000dab0       ??0?$pair@$$CBIPAVIGServer@@@std@@QAE@ABIABQAVIGServer@@@Z 0040eab0 f i GameServer.obj
 0001:0000dad0       ?_Isnil@?$_Tree@V?$_Tmap_traits@IV?$list@PAVIGServer@@V?$allocator@PAVIGServer@@@std@@@std@@U?$less@I@2@V?$allocator@U?$pair@$$CBIV?$list@PAVIGServer@@V?$allocator@PAVIGServer@@@std@@@std@@@std@@@2@$0A@@std@@@std@@KAAADPAU_Node@?$_Tree_nod@V?$_Tmap_traits@IV?$list@PAVIGServer@@V?$allocator@PAVIGServer@@@std@@@std@@U?$less@I@2@V?$allocator@U?$pair@$$CBIV?$list@PAVIGServer@@V?$allocator@PAVIGServer@@@std@@@std@@@std@@@2@$0A@@std@@@2@@Z 0040ead0 f i GameServer.obj
 0001:0000dae0       ?_Left@?$_Tree@V?$_Tmap_traits@IV?$list@PAVIGServer@@V?$allocator@PAVIGServer@@@std@@@std@@U?$less@I@2@V?$allocator@U?$pair@$$CBIV?$list@PAVIGServer@@V?$allocator@PAVIGServer@@@std@@@std@@@std@@@2@$0A@@std@@@std@@KAAAPAU_Node@?$_Tree_nod@V?$_Tmap_traits@IV?$list@PAVIGServer@@V?$allocator@PAVIGServer@@@std@@@std@@U?$less@I@2@V?$allocator@U?$pair@$$CBIV?$list@PAVIGServer@@V?$allocator@PAVIGServer@@@std@@@std@@@std@@@2@$0A@@std@@@2@PAU342@@Z 0040eae0 f i GameServer.obj
 0001:0000daf0       ?_Right@?$_Tree@V?$_Tmap_traits@IV?$list@PAVIGServer@@V?$allocator@PAVIGServer@@@std@@@std@@U?$less@I@2@V?$allocator@U?$pair@$$CBIV?$list@PAVIGServer@@V?$allocator@PAVIGServer@@@std@@@std@@@std@@@2@$0A@@std@@@std@@KAAAPAU_Node@?$_Tree_nod@V?$_Tmap_traits@IV?$list@PAVIGServer@@V?$allocator@PAVIGServer@@@std@@@std@@U?$less@I@2@V?$allocator@U?$pair@$$CBIV?$list@PAVIGServer@@V?$allocator@PAVIGServer@@@std@@@std@@@std@@@2@$0A@@std@@@2@PAU342@@Z 0040eaf0 f i GameServer.obj
 0001:0000db00       ?_Lmost@?$_Tree@V?$_Tmap_traits@IV?$list@PAVIGServer@@V?$allocator@PAVIGServer@@@std@@@std@@U?$less@I@2@V?$allocator@U?$pair@$$CBIV?$list@PAVIGServer@@V?$allocator@PAVIGServer@@@std@@@std@@@std@@@2@$0A@@std@@@std@@IBEAAPAU_Node@?$_Tree_nod@V?$_Tmap_traits@IV?$list@PAVIGServer@@V?$allocator@PAVIGServer@@@std@@@std@@U?$less@I@2@V?$allocator@U?$pair@$$CBIV?$list@PAVIGServer@@V?$allocator@PAVIGServer@@@std@@@std@@@std@@@2@$0A@@std@@@2@XZ 0040eb00 f i GameServer.obj
 0001:0000db10       ?_Kfn@?$_Tmap_traits@IV?$list@PAVIGServer@@V?$allocator@PAVIGServer@@@std@@@std@@U?$less@I@2@V?$allocator@U?$pair@$$CBIV?$list@PAVIGServer@@V?$allocator@PAVIGServer@@@std@@@std@@@std@@@2@$0A@@std@@SAABIABU?$pair@$$CBIV?$list@PAVIGServer@@V?$allocator@PAVIGServer@@@std@@@std@@@2@@Z 0040eb10 f i GameServer.obj
 0001:0000db20       ??0?$allocator@U?$pair@$$CBIV?$list@PAVIGServer@@V?$allocator@PAVIGServer@@@std@@@std@@@std@@@std@@QAE@XZ 0040eb20 f i GameServer.obj
 0001:0000db30       ??R?$less@I@std@@QBE_NABI0@Z 0040eb30 f i GameServer.obj
 0001:0000db50       ?_Color@?$_Tree@V?$_Tmap_traits@IPAVIGServer@@U?$less@I@std@@V?$allocator@U?$pair@$$CBIPAVIGServer@@@std@@@3@$0A@@std@@@std@@KAAADPAU_Node@?$_Tree_nod@V?$_Tmap_traits@IPAVIGServer@@U?$less@I@std@@V?$allocator@U?$pair@$$CBIPAVIGServer@@@std@@@3@$0A@@std@@@2@@Z 0040eb50 f i GameServer.obj
 0001:0000db60       ?_Isnil@?$_Tree@V?$_Tmap_traits@IPAVIGServer@@U?$less@I@std@@V?$allocator@U?$pair@$$CBIPAVIGServer@@@std@@@3@$0A@@std@@@std@@KAAADPAU_Node@?$_Tree_nod@V?$_Tmap_traits@IPAVIGServer@@U?$less@I@std@@V?$allocator@U?$pair@$$CBIPAVIGServer@@@std@@@3@$0A@@std@@@2@@Z 0040eb60 f i GameServer.obj
 0001:0000db70       ?_Left@?$_Tree@V?$_Tmap_traits@IPAVIGServer@@U?$less@I@std@@V?$allocator@U?$pair@$$CBIPAVIGServer@@@std@@@3@$0A@@std@@@std@@KAAAPAU_Node@?$_Tree_nod@V?$_Tmap_traits@IPAVIGServer@@U?$less@I@std@@V?$allocator@U?$pair@$$CBIPAVIGServer@@@std@@@3@$0A@@std@@@2@PAU342@@Z 0040eb70 f i GameServer.obj
 0001:0000db80       ?_Parent@?$_Tree@V?$_Tmap_traits@IPAVIGServer@@U?$less@I@std@@V?$allocator@U?$pair@$$CBIPAVIGServer@@@std@@@3@$0A@@std@@@std@@KAAAPAU_Node@?$_Tree_nod@V?$_Tmap_traits@IPAVIGServer@@U?$less@I@std@@V?$allocator@U?$pair@$$CBIPAVIGServer@@@std@@@3@$0A@@std@@@2@PAU342@@Z 0040eb80 f i GameServer.obj
 0001:0000db90       ?_Right@?$_Tree@V?$_Tmap_traits@IPAVIGServer@@U?$less@I@std@@V?$allocator@U?$pair@$$CBIPAVIGServer@@@std@@@3@$0A@@std@@@std@@KAAAPAU_Node@?$_Tree_nod@V?$_Tmap_traits@IPAVIGServer@@U?$less@I@std@@V?$allocator@U?$pair@$$CBIPAVIGServer@@@std@@@3@$0A@@std@@@2@PAU342@@Z 0040eb90 f i GameServer.obj
 0001:0000dba0       ?_Lmost@?$_Tree@V?$_Tmap_traits@IPAVIGServer@@U?$less@I@std@@V?$allocator@U?$pair@$$CBIPAVIGServer@@@std@@@3@$0A@@std@@@std@@IBEAAPAU_Node@?$_Tree_nod@V?$_Tmap_traits@IPAVIGServer@@U?$less@I@std@@V?$allocator@U?$pair@$$CBIPAVIGServer@@@std@@@3@$0A@@std@@@2@XZ 0040eba0 f i GameServer.obj
 0001:0000dbb0       ?_Max@?$_Tree@V?$_Tmap_traits@IPAVIGServer@@U?$less@I@std@@V?$allocator@U?$pair@$$CBIPAVIGServer@@@std@@@3@$0A@@std@@@std@@KAPAU_Node@?$_Tree_nod@V?$_Tmap_traits@IPAVIGServer@@U?$less@I@std@@V?$allocator@U?$pair@$$CBIPAVIGServer@@@std@@@3@$0A@@std@@@2@PAU342@@Z 0040ebb0 f i GameServer.obj
 0001:0000dbd0       ?_Min@?$_Tree@V?$_Tmap_traits@IPAVIGServer@@U?$less@I@std@@V?$allocator@U?$pair@$$CBIPAVIGServer@@@std@@@3@$0A@@std@@@std@@KAPAU_Node@?$_Tree_nod@V?$_Tmap_traits@IPAVIGServer@@U?$less@I@std@@V?$allocator@U?$pair@$$CBIPAVIGServer@@@std@@@3@$0A@@std@@@2@PAU342@@Z 0040ebd0 f i GameServer.obj
 0001:0000dbf0       ?_Rmost@?$_Tree@V?$_Tmap_traits@IPAVIGServer@@U?$less@I@std@@V?$allocator@U?$pair@$$CBIPAVIGServer@@@std@@@3@$0A@@std@@@std@@IBEAAPAU_Node@?$_Tree_nod@V?$_Tmap_traits@IPAVIGServer@@U?$less@I@std@@V?$allocator@U?$pair@$$CBIPAVIGServer@@@std@@@3@$0A@@std@@@2@XZ 0040ebf0 f i GameServer.obj
 0001:0000dc00       ?_Root@?$_Tree@V?$_Tmap_traits@IPAVIGServer@@U?$less@I@std@@V?$allocator@U?$pair@$$CBIPAVIGServer@@@std@@@3@$0A@@std@@@std@@IBEAAPAU_Node@?$_Tree_nod@V?$_Tmap_traits@IPAVIGServer@@U?$less@I@std@@V?$allocator@U?$pair@$$CBIPAVIGServer@@@std@@@3@$0A@@std@@@2@XZ 0040ec00 f i GameServer.obj
 0001:0000dc10       ?_Rrotate@?$_Tree@V?$_Tmap_traits@IPAVIGServer@@U?$less@I@std@@V?$allocator@U?$pair@$$CBIPAVIGServer@@@std@@@3@$0A@@std@@@std@@IAEXPAU_Node@?$_Tree_nod@V?$_Tmap_traits@IPAVIGServer@@U?$less@I@std@@V?$allocator@U?$pair@$$CBIPAVIGServer@@@std@@@3@$0A@@std@@@2@@Z 0040ec10 f i GameServer.obj
 0001:0000dc70       ?_Kfn@?$_Tmap_traits@IPAVIGServer@@U?$less@I@std@@V?$allocator@U?$pair@$$CBIPAVIGServer@@@std@@@3@$0A@@std@@SAABIABU?$pair@$$CBIPAVIGServer@@@2@@Z 0040ec70 f i GameServer.obj
 0001:0000dc80       ??0?$allocator@U?$pair@$$CBIPAVIGServer@@@std@@@std@@QAE@XZ 0040ec80 f i GameServer.obj
 0001:0000dc90       ?deallocate@?$allocator@U_Node@?$_Tree_nod@V?$_Tmap_traits@IPAVIGServer@@U?$less@I@std@@V?$allocator@U?$pair@$$CBIPAVIGServer@@@std@@@3@$0A@@std@@@std@@@std@@QAEXPAU_Node@?$_Tree_nod@V?$_Tmap_traits@IPAVIGServer@@U?$less@I@std@@V?$allocator@U?$pair@$$CBIPAVIGServer@@@std@@@3@$0A@@std@@@2@I@Z 0040ec90 f i GameServer.obj
 0001:0000dca0       ?_Color@?$_Tree@V?$_Tmap_traits@V?$basic_string@DU?$char_traits@D@std@@V?$allocator@D@2@@std@@PAXU?$less@V?$basic_string@DU?$char_traits@D@std@@V?$allocator@D@2@@std@@@2@V?$allocator@U?$pair@$$CBV?$basic_string@DU?$char_traits@D@std@@V?$allocator@D@2@@std@@PAX@std@@@2@$0A@@std@@@std@@KAAADPAU_Node@?$_Tree_nod@V?$_Tmap_traits@V?$basic_string@DU?$char_traits@D@std@@V?$allocator@D@2@@std@@PAXU?$less@V?$basic_string@DU?$char_traits@D@std@@V?$allocator@D@2@@std@@@2@V?$allocator@U?$pair@$$CBV?$basic_string@DU?$char_traits@D@std@@V?$allocator@D@2@@std@@PAX@std@@@2@$0A@@std@@@2@@Z 0040eca0 f i GameServer.obj
 0001:0000dcb0       ?_Isnil@?$_Tree@V?$_Tmap_traits@V?$basic_string@DU?$char_traits@D@std@@V?$allocator@D@2@@std@@PAXU?$less@V?$basic_string@DU?$char_traits@D@std@@V?$allocator@D@2@@std@@@2@V?$allocator@U?$pair@$$CBV?$basic_string@DU?$char_traits@D@std@@V?$allocator@D@2@@std@@PAX@std@@@2@$0A@@std@@@std@@KAAADPAU_Node@?$_Tree_nod@V?$_Tmap_traits@V?$basic_string@DU?$char_traits@D@std@@V?$allocator@D@2@@std@@PAXU?$less@V?$basic_string@DU?$char_traits@D@std@@V?$allocator@D@2@@std@@@2@V?$allocator@U?$pair@$$CBV?$basic_string@DU?$char_traits@D@std@@V?$allocator@D@2@@std@@PAX@std@@@2@$0A@@std@@@2@@Z 0040ecb0 f i GameServer.obj
 0001:0000dcc0       ?_Left@?$_Tree@V?$_Tmap_traits@V?$basic_string@DU?$char_traits@D@std@@V?$allocator@D@2@@std@@PAXU?$less@V?$basic_string@DU?$char_traits@D@std@@V?$allocator@D@2@@std@@@2@V?$allocator@U?$pair@$$CBV?$basic_string@DU?$char_traits@D@std@@V?$allocator@D@2@@std@@PAX@std@@@2@$0A@@std@@@std@@KAAAPAU_Node@?$_Tree_nod@V?$_Tmap_traits@V?$basic_string@DU?$char_traits@D@std@@V?$allocator@D@2@@std@@PAXU?$less@V?$basic_string@DU?$char_traits@D@std@@V?$allocator@D@2@@std@@@2@V?$allocator@U?$pair@$$CBV?$basic_string@DU?$char_traits@D@std@@V?$allocator@D@2@@std@@PAX@std@@@2@$0A@@std@@@2@PAU342@@Z 0040ecc0 f i GameServer.obj
 0001:0000dcd0       ?_Parent@?$_Tree@V?$_Tmap_traits@V?$basic_string@DU?$char_traits@D@std@@V?$allocator@D@2@@std@@PAXU?$less@V?$basic_string@DU?$char_traits@D@std@@V?$allocator@D@2@@std@@@2@V?$allocator@U?$pair@$$CBV?$basic_string@DU?$char_traits@D@std@@V?$allocator@D@2@@std@@PAX@std@@@2@$0A@@std@@@std@@KAAAPAU_Node@?$_Tree_nod@V?$_Tmap_traits@V?$basic_string@DU?$char_traits@D@std@@V?$allocator@D@2@@std@@PAXU?$less@V?$basic_string@DU?$char_traits@D@std@@V?$allocator@D@2@@std@@@2@V?$allocator@U?$pair@$$CBV?$basic_string@DU?$char_traits@D@std@@V?$allocator@D@2@@std@@PAX@std@@@2@$0A@@std@@@2@PAU342@@Z 0040ecd0 f i GameServer.obj
 0001:0000dce0       ?_Right@?$_Tree@V?$_Tmap_traits@V?$basic_string@DU?$char_traits@D@std@@V?$allocator@D@2@@std@@PAXU?$less@V?$basic_string@DU?$char_traits@D@std@@V?$allocator@D@2@@std@@@2@V?$allocator@U?$pair@$$CBV?$basic_string@DU?$char_traits@D@std@@V?$allocator@D@2@@std@@PAX@std@@@2@$0A@@std@@@std@@KAAAPAU_Node@?$_Tree_nod@V?$_Tmap_traits@V?$basic_string@DU?$char_traits@D@std@@V?$allocator@D@2@@std@@PAXU?$less@V?$basic_string@DU?$char_traits@D@std@@V?$allocator@D@2@@std@@@2@V?$allocator@U?$pair@$$CBV?$basic_string@DU?$char_traits@D@std@@V?$allocator@D@2@@std@@PAX@std@@@2@$0A@@std@@@2@PAU342@@Z 0040ece0 f i GameServer.obj
 0001:0000dcf0       ?_Lmost@?$_Tree@V?$_Tmap_traits@V?$basic_string@DU?$char_traits@D@std@@V?$allocator@D@2@@std@@PAXU?$less@V?$basic_string@DU?$char_traits@D@std@@V?$allocator@D@2@@std@@@2@V?$allocator@U?$pair@$$CBV?$basic_string@DU?$char_traits@D@std@@V?$allocator@D@2@@std@@PAX@std@@@2@$0A@@std@@@std@@IBEAAPAU_Node@?$_Tree_nod@V?$_Tmap_traits@V?$basic_string@DU?$char_traits@D@std@@V?$allocator@D@2@@std@@PAXU?$less@V?$basic_string@DU?$char_traits@D@std@@V?$allocator@D@2@@std@@@2@V?$allocator@U?$pair@$$CBV?$basic_string@DU?$char_traits@D@std@@V?$allocator@D@2@@std@@PAX@std@@@2@$0A@@std@@@2@XZ 0040ecf0 f i GameServer.obj
 0001:0000dd00       ?_Max@?$_Tree@V?$_Tmap_traits@V?$basic_string@DU?$char_traits@D@std@@V?$allocator@D@2@@std@@PAXU?$less@V?$basic_string@DU?$char_traits@D@std@@V?$allocator@D@2@@std@@@2@V?$allocator@U?$pair@$$CBV?$basic_string@DU?$char_traits@D@std@@V?$allocator@D@2@@std@@PAX@std@@@2@$0A@@std@@@std@@KAPAU_Node@?$_Tree_nod@V?$_Tmap_traits@V?$basic_string@DU?$char_traits@D@std@@V?$allocator@D@2@@std@@PAXU?$less@V?$basic_string@DU?$char_traits@D@std@@V?$allocator@D@2@@std@@@2@V?$allocator@U?$pair@$$CBV?$basic_string@DU?$char_traits@D@std@@V?$allocator@D@2@@std@@PAX@std@@@2@$0A@@std@@@2@PAU342@@Z 0040ed00 f i GameServer.obj
 0001:0000dd20       ?_Min@?$_Tree@V?$_Tmap_traits@V?$basic_string@DU?$char_traits@D@std@@V?$allocator@D@2@@std@@PAXU?$less@V?$basic_string@DU?$char_traits@D@std@@V?$allocator@D@2@@std@@@2@V?$allocator@U?$pair@$$CBV?$basic_string@DU?$char_traits@D@std@@V?$allocator@D@2@@std@@PAX@std@@@2@$0A@@std@@@std@@KAPAU_Node@?$_Tree_nod@V?$_Tmap_traits@V?$basic_string@DU?$char_traits@D@std@@V?$allocator@D@2@@std@@PAXU?$less@V?$basic_string@DU?$char_traits@D@std@@V?$allocator@D@2@@std@@@2@V?$allocator@U?$pair@$$CBV?$basic_string@DU?$char_traits@D@std@@V?$allocator@D@2@@std@@PAX@std@@@2@$0A@@std@@@2@PAU342@@Z 0040ed20 f i GameServer.obj
 0001:0000dd40       ?_Rmost@?$_Tree@V?$_Tmap_traits@V?$basic_string@DU?$char_traits@D@std@@V?$allocator@D@2@@std@@PAXU?$less@V?$basic_string@DU?$char_traits@D@std@@V?$allocator@D@2@@std@@@2@V?$allocator@U?$pair@$$CBV?$basic_string@DU?$char_traits@D@std@@V?$allocator@D@2@@std@@PAX@std@@@2@$0A@@std@@@std@@IBEAAPAU_Node@?$_Tree_nod@V?$_Tmap_traits@V?$basic_string@DU?$char_traits@D@std@@V?$allocator@D@2@@std@@PAXU?$less@V?$basic_string@DU?$char_traits@D@std@@V?$allocator@D@2@@std@@@2@V?$allocator@U?$pair@$$CBV?$basic_string@DU?$char_traits@D@std@@V?$allocator@D@2@@std@@PAX@std@@@2@$0A@@std@@@2@XZ 0040ed40 f i GameServer.obj
 0001:0000dd50       ?_Root@?$_Tree@V?$_Tmap_traits@V?$basic_string@DU?$char_traits@D@std@@V?$allocator@D@2@@std@@PAXU?$less@V?$basic_string@DU?$char_traits@D@std@@V?$allocator@D@2@@std@@@2@V?$allocator@U?$pair@$$CBV?$basic_string@DU?$char_traits@D@std@@V?$allocator@D@2@@std@@PAX@std@@@2@$0A@@std@@@std@@IBEAAPAU_Node@?$_Tree_nod@V?$_Tmap_traits@V?$basic_string@DU?$char_traits@D@std@@V?$allocator@D@2@@std@@PAXU?$less@V?$basic_string@DU?$char_traits@D@std@@V?$allocator@D@2@@std@@@2@V?$allocator@U?$pair@$$CBV?$basic_string@DU?$char_traits@D@std@@V?$allocator@D@2@@std@@PAX@std@@@2@$0A@@std@@@2@XZ 0040ed50 f i GameServer.obj
 0001:0000dd60       ?_Rrotate@?$_Tree@V?$_Tmap_traits@V?$basic_string@DU?$char_traits@D@std@@V?$allocator@D@2@@std@@PAXU?$less@V?$basic_string@DU?$char_traits@D@std@@V?$allocator@D@2@@std@@@2@V?$allocator@U?$pair@$$CBV?$basic_string@DU?$char_traits@D@std@@V?$allocator@D@2@@std@@PAX@std@@@2@$0A@@std@@@std@@IAEXPAU_Node@?$_Tree_nod@V?$_Tmap_traits@V?$basic_string@DU?$char_traits@D@std@@V?$allocator@D@2@@std@@PAXU?$less@V?$basic_string@DU?$char_traits@D@std@@V?$allocator@D@2@@std@@@2@V?$allocator@U?$pair@$$CBV?$basic_string@DU?$char_traits@D@std@@V?$allocator@D@2@@std@@PAX@std@@@2@$0A@@std@@@2@@Z 0040ed60 f i GameServer.obj
 0001:0000ddc0       ?_Kfn@?$_Tmap_traits@V?$basic_string@DU?$char_traits@D@std@@V?$allocator@D@2@@std@@PAXU?$less@V?$basic_string@DU?$char_traits@D@std@@V?$allocator@D@2@@std@@@2@V?$allocator@U?$pair@$$CBV?$basic_string@DU?$char_traits@D@std@@V?$allocator@D@2@@std@@PAX@std@@@2@$0A@@std@@SAABV?$basic_string@DU?$char_traits@D@std@@V?$allocator@D@2@@2@ABU?$pair@$$CBV?$basic_string@DU?$char_traits@D@std@@V?$allocator@D@2@@std@@PAX@2@@Z 0040edc0 f i GameServer.obj
 0001:0000ddd0       ??0?$allocator@U?$pair@$$CBV?$basic_string@DU?$char_traits@D@std@@V?$allocator@D@2@@std@@PAX@std@@@std@@QAE@XZ 0040edd0 f i GameServer.obj
 0001:0000dde0       ?deallocate@?$allocator@U_Node@?$_Tree_nod@V?$_Tmap_traits@V?$basic_string@DU?$char_traits@D@std@@V?$allocator@D@2@@std@@PAXU?$less@V?$basic_string@DU?$char_traits@D@std@@V?$allocator@D@2@@std@@@2@V?$allocator@U?$pair@$$CBV?$basic_string@DU?$char_traits@D@std@@V?$allocator@D@2@@std@@PAX@std@@@2@$0A@@std@@@std@@@std@@QAEXPAU_Node@?$_Tree_nod@V?$_Tmap_traits@V?$basic_string@DU?$char_traits@D@std@@V?$allocator@D@2@@std@@PAXU?$less@V?$basic_string@DU?$char_traits@D@std@@V?$allocator@D@2@@std@@@2@V?$allocator@U?$pair@$$CBV?$basic_string@DU?$char_traits@D@std@@V?$allocator@D@2@@std@@PAX@std@@@2@$0A@@std@@@2@I@Z 0040ede0 f i GameServer.obj
 0001:0000ddf0       ??8const_iterator@?$_Tree@V?$_Tmap_traits@V?$basic_string@DU?$char_traits@D@std@@V?$allocator@D@2@@std@@PAXU?$less@V?$basic_string@DU?$char_traits@D@std@@V?$allocator@D@2@@std@@@2@V?$allocator@U?$pair@$$CBV?$basic_string@DU?$char_traits@D@std@@V?$allocator@D@2@@std@@PAX@std@@@2@$0A@@std@@@std@@QBE_NABV012@@Z 0040edf0 f i GameServer.obj
 0001:0000de20       ?_Mynode@const_iterator@?$_Tree@V?$_Tmap_traits@V?$basic_string@DU?$char_traits@D@std@@V?$allocator@D@2@@std@@PAXU?$less@V?$basic_string@DU?$char_traits@D@std@@V?$allocator@D@2@@std@@@2@V?$allocator@U?$pair@$$CBV?$basic_string@DU?$char_traits@D@std@@V?$allocator@D@2@@std@@PAX@std@@@2@$0A@@std@@@std@@QBEPAU_Node@?$_Tree_nod@V?$_Tmap_traits@V?$basic_string@DU?$char_traits@D@std@@V?$allocator@D@2@@std@@PAXU?$less@V?$basic_string@DU?$char_traits@D@std@@V?$allocator@D@2@@std@@@2@V?$allocator@U?$pair@$$CBV?$basic_string@DU?$char_traits@D@std@@V?$allocator@D@2@@std@@PAX@std@@@2@$0A@@std@@@3@XZ 0040ee20 f i GameServer.obj
 0001:0000de30       ??8const_iterator@?$_Tree@V?$_Tmap_traits@IV?$list@PAVIGServer@@V?$allocator@PAVIGServer@@@std@@@std@@U?$less@I@2@V?$allocator@U?$pair@$$CBIV?$list@PAVIGServer@@V?$allocator@PAVIGServer@@@std@@@std@@@std@@@2@$0A@@std@@@std@@QBE_NABV012@@Z 0040ee30 f i GameServer.obj
 0001:0000de60       ?_Mynode@const_iterator@?$_Tree@V?$_Tmap_traits@IV?$list@PAVIGServer@@V?$allocator@PAVIGServer@@@std@@@std@@U?$less@I@2@V?$allocator@U?$pair@$$CBIV?$list@PAVIGServer@@V?$allocator@PAVIGServer@@@std@@@std@@@std@@@2@$0A@@std@@@std@@QBEPAU_Node@?$_Tree_nod@V?$_Tmap_traits@IV?$list@PAVIGServer@@V?$allocator@PAVIGServer@@@std@@@std@@U?$less@I@2@V?$allocator@U?$pair@$$CBIV?$list@PAVIGServer@@V?$allocator@PAVIGServer@@@std@@@std@@@std@@@2@$0A@@std@@@3@XZ 0040ee60 f i GameServer.obj
 0001:0000de70       ?_Nextnode@?$list@PAVIGServer@@V?$allocator@PAVIGServer@@@std@@@std@@KAAAPAU_Node@?$_List_nod@PAVIGServer@@V?$allocator@PAVIGServer@@@std@@@2@PAU342@@Z 0040ee70 f i GameServer.obj
 0001:0000de80       ?_Prevnode@?$list@PAVIGServer@@V?$allocator@PAVIGServer@@@std@@@std@@KAAAPAU_Node@?$_List_nod@PAVIGServer@@V?$allocator@PAVIGServer@@@std@@@2@PAU342@@Z 0040ee80 f i GameServer.obj
 0001:0000de90       ??0?$allocator@PAVIGServer@@@std@@QAE@XZ 0040ee90 f i GameServer.obj
 0001:0000dea0       ?deallocate@?$allocator@U_Node@?$_List_nod@PAVIGServer@@V?$allocator@PAVIGServer@@@std@@@std@@@std@@QAEXPAU_Node@?$_List_nod@PAVIGServer@@V?$allocator@PAVIGServer@@@std@@@2@I@Z 0040eea0 f i GameServer.obj
 0001:0000deb0       ??0?$pair@Viterator@?$_Tree@V?$_Tmap_traits@IPAVIGServer@@U?$less@I@std@@V?$allocator@U?$pair@$$CBIPAVIGServer@@@std@@@3@$0A@@std@@@std@@_N@std@@QAE@ABViterator@?$_Tree@V?$_Tmap_traits@IPAVIGServer@@U?$less@I@std@@V?$allocator@U?$pair@$$CBIPAVIGServer@@@std@@@3@$0A@@std@@@1@AB_N@Z 0040eeb0 f i GameServer.obj
 0001:0000ded0       ??8const_iterator@?$_Tree@V?$_Tmap_traits@IPAVIGServer@@U?$less@I@std@@V?$allocator@U?$pair@$$CBIPAVIGServer@@@std@@@3@$0A@@std@@@std@@QBE_NABV012@@Z 0040eed0 f i GameServer.obj
 0001:0000df00       ?_Mynode@const_iterator@?$_Tree@V?$_Tmap_traits@IPAVIGServer@@U?$less@I@std@@V?$allocator@U?$pair@$$CBIPAVIGServer@@@std@@@3@$0A@@std@@@std@@QBEPAU_Node@?$_Tree_nod@V?$_Tmap_traits@IPAVIGServer@@U?$less@I@std@@V?$allocator@U?$pair@$$CBIPAVIGServer@@@std@@@3@$0A@@std@@@3@XZ 0040ef00 f i GameServer.obj
 0001:0000df10       ??0?$pair@Viterator@?$_Tree@V?$_Tmap_traits@V?$basic_string@DU?$char_traits@D@std@@V?$allocator@D@2@@std@@PAXU?$less@V?$basic_string@DU?$char_traits@D@std@@V?$allocator@D@2@@std@@@2@V?$allocator@U?$pair@$$CBV?$basic_string@DU?$char_traits@D@std@@V?$allocator@D@2@@std@@PAX@std@@@2@$0A@@std@@@std@@_N@std@@QAE@ABViterator@?$_Tree@V?$_Tmap_traits@V?$basic_string@DU?$char_traits@D@std@@V?$allocator@D@2@@std@@PAXU?$less@V?$basic_string@DU?$char_traits@D@std@@V?$allocator@D@2@@std@@@2@V?$allocator@U?$pair@$$CBV?$basic_string@DU?$char_traits@D@std@@V?$allocator@D@2@@std@@PAX@std@@@2@$0A@@std@@@1@AB_N@Z 0040ef10 f i GameServer.obj
 0001:0000df30       ??0?$pair@Viterator@?$_Tree@V?$_Tmap_traits@IV?$list@PAVIGServer@@V?$allocator@PAVIGServer@@@std@@@std@@U?$less@I@2@V?$allocator@U?$pair@$$CBIV?$list@PAVIGServer@@V?$allocator@PAVIGServer@@@std@@@std@@@std@@@2@$0A@@std@@@std@@_N@std@@QAE@ABViterator@?$_Tree@V?$_Tmap_traits@IV?$list@PAVIGServer@@V?$allocator@PAVIGServer@@@std@@@std@@U?$less@I@2@V?$allocator@U?$pair@$$CBIV?$list@PAVIGServer@@V?$allocator@PAVIGServer@@@std@@@std@@@std@@@2@$0A@@std@@@1@AB_N@Z 0040ef30 f i GameServer.obj
 0001:0000df50       ??8?$_Const_iterator@$00@?$list@PAVIGServer@@V?$allocator@PAVIGServer@@@std@@@std@@QBE_NABV012@@Z 0040ef50 f i GameServer.obj
 0001:0000df80       ??0?$_Bidit@U?$pair@$$CBV?$basic_string@DU?$char_traits@D@std@@V?$allocator@D@2@@std@@PAX@std@@HPBU12@ABU12@@std@@QAE@XZ 0040ef80 f i GameServer.obj
 0001:0000df90       ??0?$_Bidit@U?$pair@$$CBIV?$list@PAVIGServer@@V?$allocator@PAVIGServer@@@std@@@std@@@std@@HPBU12@ABU12@@std@@QAE@XZ 0040ef90 f i GameServer.obj
 0001:0000dfa0       ??0?$_Bidit@U?$pair@$$CBIPAVIGServer@@@std@@HPBU12@ABU12@@std@@QAE@XZ 0040efa0 f i GameServer.obj
 0001:0000dfb0       ??0?$_Bidit@PAVIGServer@@HPBQAV1@ABQAV1@@std@@QAE@XZ 0040efb0 f i GameServer.obj
 0001:0000dfc0       ?_Color@?$_Tree@V?$_Tmap_traits@IV?$list@PAVIGServer@@V?$allocator@PAVIGServer@@@std@@@std@@U?$less@I@2@V?$allocator@U?$pair@$$CBIV?$list@PAVIGServer@@V?$allocator@PAVIGServer@@@std@@@std@@@std@@@2@$0A@@std@@@std@@KAAADPAU_Node@?$_Tree_nod@V?$_Tmap_traits@IV?$list@PAVIGServer@@V?$allocator@PAVIGServer@@@std@@@std@@U?$less@I@2@V?$allocator@U?$pair@$$CBIV?$list@PAVIGServer@@V?$allocator@PAVIGServer@@@std@@@std@@@std@@@2@$0A@@std@@@2@@Z 0040efc0 f i GameServer.obj
 0001:0000dfd0       ?_Parent@?$_Tree@V?$_Tmap_traits@IV?$list@PAVIGServer@@V?$allocator@PAVIGServer@@@std@@@std@@U?$less@I@2@V?$allocator@U?$pair@$$CBIV?$list@PAVIGServer@@V?$allocator@PAVIGServer@@@std@@@std@@@std@@@2@$0A@@std@@@std@@KAAAPAU_Node@?$_Tree_nod@V?$_Tmap_traits@IV?$list@PAVIGServer@@V?$allocator@PAVIGServer@@@std@@@std@@U?$less@I@2@V?$allocator@U?$pair@$$CBIV?$list@PAVIGServer@@V?$allocator@PAVIGServer@@@std@@@std@@@std@@@2@$0A@@std@@@2@PAU342@@Z 0040efd0 f i GameServer.obj
 0001:0000dfe0       ?_Myval@?$_Tree@V?$_Tmap_traits@IV?$list@PAVIGServer@@V?$allocator@PAVIGServer@@@std@@@std@@U?$less@I@2@V?$allocator@U?$pair@$$CBIV?$list@PAVIGServer@@V?$allocator@PAVIGServer@@@std@@@std@@@std@@@2@$0A@@std@@@std@@KAAAU?$pair@$$CBIV?$list@PAVIGServer@@V?$allocator@PAVIGServer@@@std@@@std@@@2@PAU_Node@?$_Tree_nod@V?$_Tmap_traits@IV?$list@PAVIGServer@@V?$allocator@PAVIGServer@@@std@@@std@@U?$less@I@2@V?$allocator@U?$pair@$$CBIV?$list@PAVIGServer@@V?$allocator@PAVIGServer@@@std@@@std@@@std@@@2@$0A@@std@@@2@@Z 0040efe0 f i GameServer.obj
 0001:0000dff0       ?_Max@?$_Tree@V?$_Tmap_traits@IV?$list@PAVIGServer@@V?$allocator@PAVIGServer@@@std@@@std@@U?$less@I@2@V?$allocator@U?$pair@$$CBIV?$list@PAVIGServer@@V?$allocator@PAVIGServer@@@std@@@std@@@std@@@2@$0A@@std@@@std@@KAPAU_Node@?$_Tree_nod@V?$_Tmap_traits@IV?$list@PAVIGServer@@V?$allocator@PAVIGServer@@@std@@@std@@U?$less@I@2@V?$allocator@U?$pair@$$CBIV?$list@PAVIGServer@@V?$allocator@PAVIGServer@@@std@@@std@@@std@@@2@$0A@@std@@@2@PAU342@@Z 0040eff0 f i GameServer.obj
 0001:0000e010       ?_Min@?$_Tree@V?$_Tmap_traits@IV?$list@PAVIGServer@@V?$allocator@PAVIGServer@@@std@@@std@@U?$less@I@2@V?$allocator@U?$pair@$$CBIV?$list@PAVIGServer@@V?$allocator@PAVIGServer@@@std@@@std@@@std@@@2@$0A@@std@@@std@@KAPAU_Node@?$_Tree_nod@V?$_Tmap_traits@IV?$list@PAVIGServer@@V?$allocator@PAVIGServer@@@std@@@std@@U?$less@I@2@V?$allocator@U?$pair@$$CBIV?$list@PAVIGServer@@V?$allocator@PAVIGServer@@@std@@@std@@@std@@@2@$0A@@std@@@2@PAU342@@Z 0040f010 f i GameServer.obj
 0001:0000e030       ?_Rmost@?$_Tree@V?$_Tmap_traits@IV?$list@PAVIGServer@@V?$allocator@PAVIGServer@@@std@@@std@@U?$less@I@2@V?$allocator@U?$pair@$$CBIV?$list@PAVIGServer@@V?$allocator@PAVIGServer@@@std@@@std@@@std@@@2@$0A@@std@@@std@@IBEAAPAU_Node@?$_Tree_nod@V?$_Tmap_traits@IV?$list@PAVIGServer@@V?$allocator@PAVIGServer@@@std@@@std@@U?$less@I@2@V?$allocator@U?$pair@$$CBIV?$list@PAVIGServer@@V?$allocator@PAVIGServer@@@std@@@std@@@std@@@2@$0A@@std@@@2@XZ 0040f030 f i GameServer.obj
 0001:0000e040       ??0?$allocator@U?$pair@$$CBIV?$list@PAVIGServer@@V?$allocator@PAVIGServer@@@std@@@std@@@std@@@std@@QAE@ABV01@@Z 0040f040 f i GameServer.obj
 0001:0000e050       ?deallocate@?$allocator@U_Node@?$_Tree_nod@V?$_Tmap_traits@IV?$list@PAVIGServer@@V?$allocator@PAVIGServer@@@std@@@std@@U?$less@I@2@V?$allocator@U?$pair@$$CBIV?$list@PAVIGServer@@V?$allocator@PAVIGServer@@@std@@@std@@@std@@@2@$0A@@std@@@std@@@std@@QAEXPAU_Node@?$_Tree_nod@V?$_Tmap_traits@IV?$list@PAVIGServer@@V?$allocator@PAVIGServer@@@std@@@std@@U?$less@I@2@V?$allocator@U?$pair@$$CBIV?$list@PAVIGServer@@V?$allocator@PAVIGServer@@@std@@@std@@@std@@@2@$0A@@std@@@2@I@Z 0040f050 f i GameServer.obj
 0001:0000e060       ?_Myval@?$_Tree@V?$_Tmap_traits@IPAVIGServer@@U?$less@I@std@@V?$allocator@U?$pair@$$CBIPAVIGServer@@@std@@@3@$0A@@std@@@std@@KAAAU?$pair@$$CBIPAVIGServer@@@2@PAU_Node@?$_Tree_nod@V?$_Tmap_traits@IPAVIGServer@@U?$less@I@std@@V?$allocator@U?$pair@$$CBIPAVIGServer@@@std@@@3@$0A@@std@@@2@@Z 0040f060 f i GameServer.obj
 0001:0000e070       ??0?$allocator@U?$pair@$$CBIPAVIGServer@@@std@@@std@@QAE@ABV01@@Z 0040f070 f i GameServer.obj
 0001:0000e080       ?_Myval@?$_Tree@V?$_Tmap_traits@V?$basic_string@DU?$char_traits@D@std@@V?$allocator@D@2@@std@@PAXU?$less@V?$basic_string@DU?$char_traits@D@std@@V?$allocator@D@2@@std@@@2@V?$allocator@U?$pair@$$CBV?$basic_string@DU?$char_traits@D@std@@V?$allocator@D@2@@std@@PAX@std@@@2@$0A@@std@@@std@@KAAAU?$pair@$$CBV?$basic_string@DU?$char_traits@D@std@@V?$allocator@D@2@@std@@PAX@2@PAU_Node@?$_Tree_nod@V?$_Tmap_traits@V?$basic_string@DU?$char_traits@D@std@@V?$allocator@D@2@@std@@PAXU?$less@V?$basic_string@DU?$char_traits@D@std@@V?$allocator@D@2@@std@@@2@V?$allocator@U?$pair@$$CBV?$basic_string@DU?$char_traits@D@std@@V?$allocator@D@2@@std@@PAX@std@@@2@$0A@@std@@@2@@Z 0040f080 f i GameServer.obj
 0001:0000e090       ??0?$allocator@U?$pair@$$CBV?$basic_string@DU?$char_traits@D@std@@V?$allocator@D@2@@std@@PAX@std@@@std@@QAE@ABV01@@Z 0040f090 f i GameServer.obj
 0001:0000e0a0       ??0const_iterator@?$_Tree@V?$_Tmap_traits@V?$basic_string@DU?$char_traits@D@std@@V?$allocator@D@2@@std@@PAXU?$less@V?$basic_string@DU?$char_traits@D@std@@V?$allocator@D@2@@std@@@2@V?$allocator@U?$pair@$$CBV?$basic_string@DU?$char_traits@D@std@@V?$allocator@D@2@@std@@PAX@std@@@2@$0A@@std@@@std@@QAE@PAU_Node@?$_Tree_nod@V?$_Tmap_traits@V?$basic_string@DU?$char_traits@D@std@@V?$allocator@D@2@@std@@PAXU?$less@V?$basic_string@DU?$char_traits@D@std@@V?$allocator@D@2@@std@@@2@V?$allocator@U?$pair@$$CBV?$basic_string@DU?$char_traits@D@std@@V?$allocator@D@2@@std@@PAX@std@@@2@$0A@@std@@@2@PBV12@@Z 0040f0a0 f i GameServer.obj
 0001:0000e0d0       ??0const_iterator@?$_Tree@V?$_Tmap_traits@IV?$list@PAVIGServer@@V?$allocator@PAVIGServer@@@std@@@std@@U?$less@I@2@V?$allocator@U?$pair@$$CBIV?$list@PAVIGServer@@V?$allocator@PAVIGServer@@@std@@@std@@@std@@@2@$0A@@std@@@std@@QAE@PAU_Node@?$_Tree_nod@V?$_Tmap_traits@IV?$list@PAVIGServer@@V?$allocator@PAVIGServer@@@std@@@std@@U?$less@I@2@V?$allocator@U?$pair@$$CBIV?$list@PAVIGServer@@V?$allocator@PAVIGServer@@@std@@@std@@@std@@@2@$0A@@std@@@2@PBV12@@Z 0040f0d0 f i GameServer.obj
 0001:0000e100       ?_Myval@?$list@PAVIGServer@@V?$allocator@PAVIGServer@@@std@@@std@@KAAAPAVIGServer@@PAU_Node@?$_List_nod@PAVIGServer@@V?$allocator@PAVIGServer@@@std@@@2@@Z 0040f100 f i GameServer.obj
 0001:0000e110       ??0?$allocator@PAVIGServer@@@std@@QAE@ABV01@@Z 0040f110 f i GameServer.obj
 0001:0000e120       ??0const_iterator@?$_Tree@V?$_Tmap_traits@IPAVIGServer@@U?$less@I@std@@V?$allocator@U?$pair@$$CBIPAVIGServer@@@std@@@3@$0A@@std@@@std@@QAE@PAU_Node@?$_Tree_nod@V?$_Tmap_traits@IPAVIGServer@@U?$less@I@std@@V?$allocator@U?$pair@$$CBIPAVIGServer@@@std@@@3@$0A@@std@@@2@PBV12@@Z 0040f120 f i GameServer.obj
 0001:0000e150       ??0?$_Const_iterator@$00@?$list@PAVIGServer@@V?$allocator@PAVIGServer@@@std@@@std@@QAE@PAU_Node@?$_List_nod@PAVIGServer@@V?$allocator@PAVIGServer@@@std@@@2@PBV12@@Z 0040f150 f i GameServer.obj
 0001:0000e180       ??E?$_Const_iterator@$00@?$list@PAVIGServer@@V?$allocator@PAVIGServer@@@std@@@std@@QAEAAV012@XZ 0040f180 f i GameServer.obj
 0001:0000e1b0       ?_Mynode@?$_Const_iterator@$00@?$list@PAVIGServer@@V?$allocator@PAVIGServer@@@std@@@std@@QBEPAU_Node@?$_List_nod@PAVIGServer@@V?$allocator@PAVIGServer@@@std@@@3@XZ 0040f1b0 f i GameServer.obj
 0001:0000e1c0       ?max_size@?$allocator@U?$pair@$$CBIV?$list@PAVIGServer@@V?$allocator@PAVIGServer@@@std@@@std@@@std@@@std@@QBEIXZ 0040f1c0 f i GameServer.obj
 0001:0000e1d0       ?max_size@?$allocator@U?$pair@$$CBIPAVIGServer@@@std@@@std@@QBEIXZ 0040f1d0 f i GameServer.obj
 0001:0000e1e0       ?max_size@?$allocator@U?$pair@$$CBV?$basic_string@DU?$char_traits@D@std@@V?$allocator@D@2@@std@@PAX@std@@@std@@QBEIXZ 0040f1e0 f i GameServer.obj
 0001:0000e1f0       ?_Dec@const_iterator@?$_Tree@V?$_Tmap_traits@V?$basic_string@DU?$char_traits@D@std@@V?$allocator@D@2@@std@@PAXU?$less@V?$basic_string@DU?$char_traits@D@std@@V?$allocator@D@2@@std@@@2@V?$allocator@U?$pair@$$CBV?$basic_string@DU?$char_traits@D@std@@V?$allocator@D@2@@std@@PAX@std@@@2@$0A@@std@@@std@@QAEXXZ 0040f1f0 f i GameServer.obj
 0001:0000e280       ?_Inc@const_iterator@?$_Tree@V?$_Tmap_traits@V?$basic_string@DU?$char_traits@D@std@@V?$allocator@D@2@@std@@PAXU?$less@V?$basic_string@DU?$char_traits@D@std@@V?$allocator@D@2@@std@@@2@V?$allocator@U?$pair@$$CBV?$basic_string@DU?$char_traits@D@std@@V?$allocator@D@2@@std@@PAX@std@@@2@$0A@@std@@@std@@QAEXXZ 0040f280 f i GameServer.obj
 0001:0000e2f0       ?_Dec@const_iterator@?$_Tree@V?$_Tmap_traits@IV?$list@PAVIGServer@@V?$allocator@PAVIGServer@@@std@@@std@@U?$less@I@2@V?$allocator@U?$pair@$$CBIV?$list@PAVIGServer@@V?$allocator@PAVIGServer@@@std@@@std@@@std@@@2@$0A@@std@@@std@@QAEXXZ 0040f2f0 f i GameServer.obj
 0001:0000e380       ?_Inc@const_iterator@?$_Tree@V?$_Tmap_traits@IV?$list@PAVIGServer@@V?$allocator@PAVIGServer@@@std@@@std@@U?$less@I@2@V?$allocator@U?$pair@$$CBIV?$list@PAVIGServer@@V?$allocator@PAVIGServer@@@std@@@std@@@std@@@2@$0A@@std@@@std@@QAEXXZ 0040f380 f i GameServer.obj
 0001:0000e3f0       ?_Dec@const_iterator@?$_Tree@V?$_Tmap_traits@IPAVIGServer@@U?$less@I@std@@V?$allocator@U?$pair@$$CBIPAVIGServer@@@std@@@3@$0A@@std@@@std@@QAEXXZ 0040f3f0 f i GameServer.obj
 0001:0000e480       ?_Inc@const_iterator@?$_Tree@V?$_Tmap_traits@IPAVIGServer@@U?$less@I@std@@V?$allocator@U?$pair@$$CBIPAVIGServer@@@std@@@3@$0A@@std@@@std@@QAEXXZ 0040f480 f i GameServer.obj
 0001:0000e4f0       ??0_Node@?$_Tree_nod@V?$_Tmap_traits@IPAVIGServer@@U?$less@I@std@@V?$allocator@U?$pair@$$CBIPAVIGServer@@@std@@@3@$0A@@std@@@std@@QAE@PAU012@00ABU?$pair@$$CBIPAVIGServer@@@2@D@Z 0040f4f0 f i GameServer.obj
 0001:0000e530       ?max_size@?$allocator@PAVIGServer@@@std@@QBEIXZ 0040f530 f i GameServer.obj
 0001:0000e540       ??0?$_Tmap_traits@IV?$list@PAVIGServer@@V?$allocator@PAVIGServer@@@std@@@std@@U?$less@I@2@V?$allocator@U?$pair@$$CBIV?$list@PAVIGServer@@V?$allocator@PAVIGServer@@@std@@@std@@@std@@@2@$0A@@std@@QAE@U?$less@I@1@@Z 0040f540 f i GameServer.obj
 0001:0000e550       ??0?$_Tmap_traits@IPAVIGServer@@U?$less@I@std@@V?$allocator@U?$pair@$$CBIPAVIGServer@@@std@@@3@$0A@@std@@QAE@U?$less@I@1@@Z 0040f550 f i GameServer.obj
 0001:0000e560       ??0?$_Tmap_traits@V?$basic_string@DU?$char_traits@D@std@@V?$allocator@D@2@@std@@PAXU?$less@V?$basic_string@DU?$char_traits@D@std@@V?$allocator@D@2@@std@@@2@V?$allocator@U?$pair@$$CBV?$basic_string@DU?$char_traits@D@std@@V?$allocator@D@2@@std@@PAX@std@@@2@$0A@@std@@QAE@U?$less@V?$basic_string@DU?$char_traits@D@std@@V?$allocator@D@2@@std@@@1@@Z 0040f560 f i GameServer.obj
 0001:0000e570       ??$_Destroy@U_Node@?$_Tree_nod@V?$_Tmap_traits@IPAVIGServer@@U?$less@I@std@@V?$allocator@U?$pair@$$CBIPAVIGServer@@@std@@@3@$0A@@std@@@std@@@std@@YAXPAU_Node@?$_Tree_nod@V?$_Tmap_traits@IPAVIGServer@@U?$less@I@std@@V?$allocator@U?$pair@$$CBIPAVIGServer@@@std@@@3@$0A@@std@@@0@@Z 0040f570 f i GameServer.obj
 0001:0000e580       ??$_Destroy@U_Node@?$_List_nod@PAVIGServer@@V?$allocator@PAVIGServer@@@std@@@std@@@std@@YAXPAU_Node@?$_List_nod@PAVIGServer@@V?$allocator@PAVIGServer@@@std@@@0@@Z 0040f580 f i GameServer.obj
 0001:0000e590       ??$_Destroy@PAU_Node@?$_Tree_nod@V?$_Tmap_traits@IV?$list@PAVIGServer@@V?$allocator@PAVIGServer@@@std@@@std@@U?$less@I@2@V?$allocator@U?$pair@$$CBIV?$list@PAVIGServer@@V?$allocator@PAVIGServer@@@std@@@std@@@std@@@2@$0A@@std@@@std@@@std@@YAXPAPAU_Node@?$_Tree_nod@V?$_Tmap_traits@IV?$list@PAVIGServer@@V?$allocator@PAVIGServer@@@std@@@std@@U?$less@I@2@V?$allocator@U?$pair@$$CBIV?$list@PAVIGServer@@V?$allocator@PAVIGServer@@@std@@@std@@@std@@@2@$0A@@std@@@0@@Z 0040f590 f i GameServer.obj
 0001:0000e5a0       ??$_Destroy@PAU_Node@?$_Tree_nod@V?$_Tmap_traits@IPAVIGServer@@U?$less@I@std@@V?$allocator@U?$pair@$$CBIPAVIGServer@@@std@@@3@$0A@@std@@@std@@@std@@YAXPAPAU_Node@?$_Tree_nod@V?$_Tmap_traits@IPAVIGServer@@U?$less@I@std@@V?$allocator@U?$pair@$$CBIPAVIGServer@@@std@@@3@$0A@@std@@@0@@Z 0040f5a0 f i GameServer.obj
 0001:0000e5b0       ??$_Destroy@PAU_Node@?$_Tree_nod@V?$_Tmap_traits@V?$basic_string@DU?$char_traits@D@std@@V?$allocator@D@2@@std@@PAXU?$less@V?$basic_string@DU?$char_traits@D@std@@V?$allocator@D@2@@std@@@2@V?$allocator@U?$pair@$$CBV?$basic_string@DU?$char_traits@D@std@@V?$allocator@D@2@@std@@PAX@std@@@2@$0A@@std@@@std@@@std@@YAXPAPAU_Node@?$_Tree_nod@V?$_Tmap_traits@V?$basic_string@DU?$char_traits@D@std@@V?$allocator@D@2@@std@@PAXU?$less@V?$basic_string@DU?$char_traits@D@std@@V?$allocator@D@2@@std@@@2@V?$allocator@U?$pair@$$CBV?$basic_string@DU?$char_traits@D@std@@V?$allocator@D@2@@std@@PAX@std@@@2@$0A@@std@@@0@@Z 0040f5b0 f i GameServer.obj
 0001:0000e5c0       ??$?0PAVIGServer@@@?$allocator@PAU_Node@?$_List_nod@PAVIGServer@@V?$allocator@PAVIGServer@@@std@@@std@@@std@@QAE@ABV?$allocator@PAVIGServer@@@1@@Z 0040f5c0 f i GameServer.obj
 0001:0000e5d0       ??$_Allocate@U_Node@?$_List_nod@PAVIGServer@@V?$allocator@PAVIGServer@@@std@@@std@@@std@@YAPAU_Node@?$_List_nod@PAVIGServer@@V?$allocator@PAVIGServer@@@std@@@0@IPAU120@@Z 0040f5d0 f i GameServer.obj
 0001:0000e630       ??$_Construct@PAU_Node@?$_List_nod@PAVIGServer@@V?$allocator@PAVIGServer@@@std@@@std@@PAU123@@std@@YAXPAPAU_Node@?$_List_nod@PAVIGServer@@V?$allocator@PAVIGServer@@@std@@@0@ABQAU120@@Z 0040f630 f i GameServer.obj
 0001:0000e650       ??$_Destroy@PAU_Node@?$_List_nod@PAVIGServer@@V?$allocator@PAVIGServer@@@std@@@std@@@std@@YAXPAPAU_Node@?$_List_nod@PAVIGServer@@V?$allocator@PAVIGServer@@@std@@@0@@Z 0040f650 f i GameServer.obj
 0001:0000e660       ??$?0U?$pair@$$CBIV?$list@PAVIGServer@@V?$allocator@PAVIGServer@@@std@@@std@@@std@@@?$allocator@PAU_Node@?$_Tree_nod@V?$_Tmap_traits@IV?$list@PAVIGServer@@V?$allocator@PAVIGServer@@@std@@@std@@U?$less@I@2@V?$allocator@U?$pair@$$CBIV?$list@PAVIGServer@@V?$allocator@PAVIGServer@@@std@@@std@@@std@@@2@$0A@@std@@@std@@@std@@QAE@ABV?$allocator@U?$pair@$$CBIV?$list@PAVIGServer@@V?$allocator@PAVIGServer@@@std@@@std@@@std@@@1@@Z 0040f660 f i GameServer.obj
 0001:0000e670       ??$_Allocate@U_Node@?$_Tree_nod@V?$_Tmap_traits@IV?$list@PAVIGServer@@V?$allocator@PAVIGServer@@@std@@@std@@U?$less@I@2@V?$allocator@U?$pair@$$CBIV?$list@PAVIGServer@@V?$allocator@PAVIGServer@@@std@@@std@@@std@@@2@$0A@@std@@@std@@@std@@YAPAU_Node@?$_Tree_nod@V?$_Tmap_traits@IV?$list@PAVIGServer@@V?$allocator@PAVIGServer@@@std@@@std@@U?$less@I@2@V?$allocator@U?$pair@$$CBIV?$list@PAVIGServer@@V?$allocator@PAVIGServer@@@std@@@std@@@std@@@2@$0A@@std@@@0@IPAU120@@Z 0040f670 f i GameServer.obj
 0001:0000e6d0       ??$?0U?$pair@$$CBIPAVIGServer@@@std@@@?$allocator@PAU_Node@?$_Tree_nod@V?$_Tmap_traits@IPAVIGServer@@U?$less@I@std@@V?$allocator@U?$pair@$$CBIPAVIGServer@@@std@@@3@$0A@@std@@@std@@@std@@QAE@ABV?$allocator@U?$pair@$$CBIPAVIGServer@@@std@@@1@@Z 0040f6d0 f i GameServer.obj
 0001:0000e6e0       ??$_Allocate@U_Node@?$_Tree_nod@V?$_Tmap_traits@IPAVIGServer@@U?$less@I@std@@V?$allocator@U?$pair@$$CBIPAVIGServer@@@std@@@3@$0A@@std@@@std@@@std@@YAPAU_Node@?$_Tree_nod@V?$_Tmap_traits@IPAVIGServer@@U?$less@I@std@@V?$allocator@U?$pair@$$CBIPAVIGServer@@@std@@@3@$0A@@std@@@0@IPAU120@@Z 0040f6e0 f i GameServer.obj
 0001:0000e740       ??$?0U?$pair@$$CBV?$basic_string@DU?$char_traits@D@std@@V?$allocator@D@2@@std@@PAX@std@@@?$allocator@PAU_Node@?$_Tree_nod@V?$_Tmap_traits@V?$basic_string@DU?$char_traits@D@std@@V?$allocator@D@2@@std@@PAXU?$less@V?$basic_string@DU?$char_traits@D@std@@V?$allocator@D@2@@std@@@2@V?$allocator@U?$pair@$$CBV?$basic_string@DU?$char_traits@D@std@@V?$allocator@D@2@@std@@PAX@std@@@2@$0A@@std@@@std@@@std@@QAE@ABV?$allocator@U?$pair@$$CBV?$basic_string@DU?$char_traits@D@std@@V?$allocator@D@2@@std@@PAX@std@@@1@@Z 0040f740 f i GameServer.obj
 0001:0000e750       ??$_Allocate@U_Node@?$_Tree_nod@V?$_Tmap_traits@V?$basic_string@DU?$char_traits@D@std@@V?$allocator@D@2@@std@@PAXU?$less@V?$basic_string@DU?$char_traits@D@std@@V?$allocator@D@2@@std@@@2@V?$allocator@U?$pair@$$CBV?$basic_string@DU?$char_traits@D@std@@V?$allocator@D@2@@std@@PAX@std@@@2@$0A@@std@@@std@@@std@@YAPAU_Node@?$_Tree_nod@V?$_Tmap_traits@V?$basic_string@DU?$char_traits@D@std@@V?$allocator@D@2@@std@@PAXU?$less@V?$basic_string@DU?$char_traits@D@std@@V?$allocator@D@2@@std@@@2@V?$allocator@U?$pair@$$CBV?$basic_string@DU?$char_traits@D@std@@V?$allocator@D@2@@std@@PAX@std@@@2@$0A@@std@@@0@IPAU120@@Z 0040f750 f i GameServer.obj
 0001:0000e7b0       ??$?0PAVIGServer@@@?$allocator@U_Node@?$_List_nod@PAVIGServer@@V?$allocator@PAVIGServer@@@std@@@std@@@std@@QAE@ABV?$allocator@PAVIGServer@@@1@@Z 0040f7b0 f i GameServer.obj
 0001:0000e7c0       ??$_Construct@PAVIGServer@@PAV1@@std@@YAXPAPAVIGServer@@ABQAV1@@Z 0040f7c0 f i GameServer.obj
 0001:0000e7e0       ??$?0U?$pair@$$CBIV?$list@PAVIGServer@@V?$allocator@PAVIGServer@@@std@@@std@@@std@@@?$allocator@U_Node@?$_Tree_nod@V?$_Tmap_traits@IV?$list@PAVIGServer@@V?$allocator@PAVIGServer@@@std@@@std@@U?$less@I@2@V?$allocator@U?$pair@$$CBIV?$list@PAVIGServer@@V?$allocator@PAVIGServer@@@std@@@std@@@std@@@2@$0A@@std@@@std@@@std@@QAE@ABV?$allocator@U?$pair@$$CBIV?$list@PAVIGServer@@V?$allocator@PAVIGServer@@@std@@@std@@@std@@@1@@Z 0040f7e0 f i GameServer.obj
 0001:0000e7f0       ??$_Construct@PAU_Node@?$_Tree_nod@V?$_Tmap_traits@IV?$list@PAVIGServer@@V?$allocator@PAVIGServer@@@std@@@std@@U?$less@I@2@V?$allocator@U?$pair@$$CBIV?$list@PAVIGServer@@V?$allocator@PAVIGServer@@@std@@@std@@@std@@@2@$0A@@std@@@std@@PAU123@@std@@YAXPAPAU_Node@?$_Tree_nod@V?$_Tmap_traits@IV?$list@PAVIGServer@@V?$allocator@PAVIGServer@@@std@@@std@@U?$less@I@2@V?$allocator@U?$pair@$$CBIV?$list@PAVIGServer@@V?$allocator@PAVIGServer@@@std@@@std@@@std@@@2@$0A@@std@@@0@ABQAU120@@Z 0040f7f0 f i GameServer.obj
 0001:0000e810       ??$?0U?$pair@$$CBIPAVIGServer@@@std@@@?$allocator@U_Node@?$_Tree_nod@V?$_Tmap_traits@IPAVIGServer@@U?$less@I@std@@V?$allocator@U?$pair@$$CBIPAVIGServer@@@std@@@3@$0A@@std@@@std@@@std@@QAE@ABV?$allocator@U?$pair@$$CBIPAVIGServer@@@std@@@1@@Z 0040f810 f i GameServer.obj
 0001:0000e820       ??$_Construct@PAU_Node@?$_Tree_nod@V?$_Tmap_traits@IPAVIGServer@@U?$less@I@std@@V?$allocator@U?$pair@$$CBIPAVIGServer@@@std@@@3@$0A@@std@@@std@@PAU123@@std@@YAXPAPAU_Node@?$_Tree_nod@V?$_Tmap_traits@IPAVIGServer@@U?$less@I@std@@V?$allocator@U?$pair@$$CBIPAVIGServer@@@std@@@3@$0A@@std@@@0@ABQAU120@@Z 0040f820 f i GameServer.obj
 0001:0000e840       ??$?0U?$pair@$$CBV?$basic_string@DU?$char_traits@D@std@@V?$allocator@D@2@@std@@PAX@std@@@?$allocator@U_Node@?$_Tree_nod@V?$_Tmap_traits@V?$basic_string@DU?$char_traits@D@std@@V?$allocator@D@2@@std@@PAXU?$less@V?$basic_string@DU?$char_traits@D@std@@V?$allocator@D@2@@std@@@2@V?$allocator@U?$pair@$$CBV?$basic_string@DU?$char_traits@D@std@@V?$allocator@D@2@@std@@PAX@std@@@2@$0A@@std@@@std@@@std@@QAE@ABV?$allocator@U?$pair@$$CBV?$basic_string@DU?$char_traits@D@std@@V?$allocator@D@2@@std@@PAX@std@@@1@@Z 0040f840 f i GameServer.obj
 0001:0000e850       ??$_Construct@PAU_Node@?$_Tree_nod@V?$_Tmap_traits@V?$basic_string@DU?$char_traits@D@std@@V?$allocator@D@2@@std@@PAXU?$less@V?$basic_string@DU?$char_traits@D@std@@V?$allocator@D@2@@std@@@2@V?$allocator@U?$pair@$$CBV?$basic_string@DU?$char_traits@D@std@@V?$allocator@D@2@@std@@PAX@std@@@2@$0A@@std@@@std@@PAU123@@std@@YAXPAPAU_Node@?$_Tree_nod@V?$_Tmap_traits@V?$basic_string@DU?$char_traits@D@std@@V?$allocator@D@2@@std@@PAXU?$less@V?$basic_string@DU?$char_traits@D@std@@V?$allocator@D@2@@std@@@2@V?$allocator@U?$pair@$$CBV?$basic_string@DU?$char_traits@D@std@@V?$allocator@D@2@@std@@PAX@std@@@2@$0A@@std@@@0@ABQAU120@@Z 0040f850 f i GameServer.obj
 0001:0000e870       ??$_Iter_cat@V?$_Const_iterator@$00@?$list@PAVIGServer@@V?$allocator@PAVIGServer@@@std@@@std@@@std@@YA?AUbidirectional_iterator_tag@0@ABV?$_Const_iterator@$00@?$list@PAVIGServer@@V?$allocator@PAVIGServer@@@std@@@0@@Z 0040f870 f i GameServer.obj
 0001:0000e880       ??F?$_Const_iterator@$00@?$list@PAVIGServer@@V?$allocator@PAVIGServer@@@std@@@std@@QAEAAV012@XZ 0040f880 f i GameServer.obj
 0001:0000e8b0       ?AnalyzeRequire@CGameServer@@UAE_NPBXI@Z 0040f8b0 f   GameServer.obj
 0001:0000e910       ?DispatchTask@CGameServer@@UAE_NIPBXIG@Z 0040f910 f   GameServer.obj
 0001:0000e950       ?PushAccount@CGameServer@@IAE_NPBD@Z 0040f950 f   GameServer.obj
 0001:0000e960       ?GetContent@CGameServer@@UAEIXZ 0040f960 f   GameServer.obj
 0001:0000e990       ??9const_iterator@?$_Tree@V?$_Tmap_traits@V?$basic_string@DU?$char_traits@D@std@@V?$allocator@D@2@@std@@PAXU?$less@V?$basic_string@DU?$char_traits@D@std@@V?$allocator@D@2@@std@@@2@V?$allocator@U?$pair@$$CBV?$basic_string@DU?$char_traits@D@std@@V?$allocator@D@2@@std@@PAX@std@@@2@$0A@@std@@@std@@QBE_NABV012@@Z 0040f990 f i GameServer.obj
 0001:0000e9c0       ??9const_iterator@?$_Tree@V?$_Tmap_traits@IV?$list@PAVIGServer@@V?$allocator@PAVIGServer@@@std@@@std@@U?$less@I@2@V?$allocator@U?$pair@$$CBIV?$list@PAVIGServer@@V?$allocator@PAVIGServer@@@std@@@std@@@std@@@2@$0A@@std@@@std@@QBE_NABV012@@Z 0040f9c0 f i GameServer.obj
 0001:0000e9f0       ??9const_iterator@?$_Tree@V?$_Tmap_traits@IPAVIGServer@@U?$less@I@std@@V?$allocator@U?$pair@$$CBIPAVIGServer@@@std@@@3@$0A@@std@@@std@@QBE_NABV012@@Z 0040f9f0 f i GameServer.obj
 0001:0000ea20       ??9?$_Const_iterator@$00@?$list@PAVIGServer@@V?$allocator@PAVIGServer@@@std@@@std@@QBE_NABV012@@Z 0040fa20 f i GameServer.obj
 0001:0000ea50       ?_Key@?$_Tree@V?$_Tmap_traits@IV?$list@PAVIGServer@@V?$allocator@PAVIGServer@@@std@@@std@@U?$less@I@2@V?$allocator@U?$pair@$$CBIV?$list@PAVIGServer@@V?$allocator@PAVIGServer@@@std@@@std@@@std@@@2@$0A@@std@@@std@@KAABIPAU_Node@?$_Tree_nod@V?$_Tmap_traits@IV?$list@PAVIGServer@@V?$allocator@PAVIGServer@@@std@@@std@@U?$less@I@2@V?$allocator@U?$pair@$$CBIV?$list@PAVIGServer@@V?$allocator@PAVIGServer@@@std@@@std@@@std@@@2@$0A@@std@@@2@@Z 0040fa50 f i GameServer.obj
 0001:0000ea60       ?_Root@?$_Tree@V?$_Tmap_traits@IV?$list@PAVIGServer@@V?$allocator@PAVIGServer@@@std@@@std@@U?$less@I@2@V?$allocator@U?$pair@$$CBIV?$list@PAVIGServer@@V?$allocator@PAVIGServer@@@std@@@std@@@std@@@2@$0A@@std@@@std@@IBEAAPAU_Node@?$_Tree_nod@V?$_Tmap_traits@IV?$list@PAVIGServer@@V?$allocator@PAVIGServer@@@std@@@std@@U?$less@I@2@V?$allocator@U?$pair@$$CBIV?$list@PAVIGServer@@V?$allocator@PAVIGServer@@@std@@@std@@@std@@@2@$0A@@std@@@2@XZ 0040fa60 f i GameServer.obj
 0001:0000ea70       ?_Key@?$_Tree@V?$_Tmap_traits@IPAVIGServer@@U?$less@I@std@@V?$allocator@U?$pair@$$CBIPAVIGServer@@@std@@@3@$0A@@std@@@std@@KAABIPAU_Node@?$_Tree_nod@V?$_Tmap_traits@IPAVIGServer@@U?$less@I@std@@V?$allocator@U?$pair@$$CBIPAVIGServer@@@std@@@3@$0A@@std@@@2@@Z 0040fa70 f i GameServer.obj
 0001:0000ea80       ?_Lrotate@?$_Tree@V?$_Tmap_traits@IPAVIGServer@@U?$less@I@std@@V?$allocator@U?$pair@$$CBIPAVIGServer@@@std@@@3@$0A@@std@@@std@@IAEXPAU_Node@?$_Tree_nod@V?$_Tmap_traits@IPAVIGServer@@U?$less@I@std@@V?$allocator@U?$pair@$$CBIPAVIGServer@@@std@@@3@$0A@@std@@@2@@Z 0040fa80 f i GameServer.obj
 0001:0000ead0       ?destroy@?$allocator@U_Node@?$_Tree_nod@V?$_Tmap_traits@IPAVIGServer@@U?$less@I@std@@V?$allocator@U?$pair@$$CBIPAVIGServer@@@std@@@3@$0A@@std@@@std@@@std@@QAEXPAU_Node@?$_Tree_nod@V?$_Tmap_traits@IPAVIGServer@@U?$less@I@std@@V?$allocator@U?$pair@$$CBIPAVIGServer@@@std@@@3@$0A@@std@@@2@@Z 0040fad0 f i GameServer.obj
 0001:0000eae0       ?_Key@?$_Tree@V?$_Tmap_traits@V?$basic_string@DU?$char_traits@D@std@@V?$allocator@D@2@@std@@PAXU?$less@V?$basic_string@DU?$char_traits@D@std@@V?$allocator@D@2@@std@@@2@V?$allocator@U?$pair@$$CBV?$basic_string@DU?$char_traits@D@std@@V?$allocator@D@2@@std@@PAX@std@@@2@$0A@@std@@@std@@KAABV?$basic_string@DU?$char_traits@D@std@@V?$allocator@D@2@@2@PAU_Node@?$_Tree_nod@V?$_Tmap_traits@V?$basic_string@DU?$char_traits@D@std@@V?$allocator@D@2@@std@@PAXU?$less@V?$basic_string@DU?$char_traits@D@std@@V?$allocator@D@2@@std@@@2@V?$allocator@U?$pair@$$CBV?$basic_string@DU?$char_traits@D@std@@V?$allocator@D@2@@std@@PAX@std@@@2@$0A@@std@@@2@@Z 0040fae0 f i GameServer.obj
 0001:0000eaf0       ?_Lrotate@?$_Tree@V?$_Tmap_traits@V?$basic_string@DU?$char_traits@D@std@@V?$allocator@D@2@@std@@PAXU?$less@V?$basic_string@DU?$char_traits@D@std@@V?$allocator@D@2@@std@@@2@V?$allocator@U?$pair@$$CBV?$basic_string@DU?$char_traits@D@std@@V?$allocator@D@2@@std@@PAX@std@@@2@$0A@@std@@@std@@IAEXPAU_Node@?$_Tree_nod@V?$_Tmap_traits@V?$basic_string@DU?$char_traits@D@std@@V?$allocator@D@2@@std@@PAXU?$less@V?$basic_string@DU?$char_traits@D@std@@V?$allocator@D@2@@std@@@2@V?$allocator@U?$pair@$$CBV?$basic_string@DU?$char_traits@D@std@@V?$allocator@D@2@@std@@PAX@std@@@2@$0A@@std@@@2@@Z 0040faf0 f i GameServer.obj
 0001:0000eb40       ??0iterator@?$_Tree@V?$_Tmap_traits@V?$basic_string@DU?$char_traits@D@std@@V?$allocator@D@2@@std@@PAXU?$less@V?$basic_string@DU?$char_traits@D@std@@V?$allocator@D@2@@std@@@2@V?$allocator@U?$pair@$$CBV?$basic_string@DU?$char_traits@D@std@@V?$allocator@D@2@@std@@PAX@std@@@2@$0A@@std@@@std@@QAE@PAU_Node@?$_Tree_nod@V?$_Tmap_traits@V?$basic_string@DU?$char_traits@D@std@@V?$allocator@D@2@@std@@PAXU?$less@V?$basic_string@DU?$char_traits@D@std@@V?$allocator@D@2@@std@@@2@V?$allocator@U?$pair@$$CBV?$basic_string@DU?$char_traits@D@std@@V?$allocator@D@2@@std@@PAX@std@@@2@$0A@@std@@@2@PBV12@@Z 0040fb40 f i GameServer.obj
 0001:0000eb70       ??0const_iterator@?$_Tree@V?$_Tmap_traits@V?$basic_string@DU?$char_traits@D@std@@V?$allocator@D@2@@std@@PAXU?$less@V?$basic_string@DU?$char_traits@D@std@@V?$allocator@D@2@@std@@@2@V?$allocator@U?$pair@$$CBV?$basic_string@DU?$char_traits@D@std@@V?$allocator@D@2@@std@@PAX@std@@@2@$0A@@std@@@std@@QAE@XZ 0040fb70 f i GameServer.obj
 0001:0000eb80       ??Dconst_iterator@?$_Tree@V?$_Tmap_traits@V?$basic_string@DU?$char_traits@D@std@@V?$allocator@D@2@@std@@PAXU?$less@V?$basic_string@DU?$char_traits@D@std@@V?$allocator@D@2@@std@@@2@V?$allocator@U?$pair@$$CBV?$basic_string@DU?$char_traits@D@std@@V?$allocator@D@2@@std@@PAX@std@@@2@$0A@@std@@@std@@QBEABU?$pair@$$CBV?$basic_string@DU?$char_traits@D@std@@V?$allocator@D@2@@std@@PAX@2@XZ 0040fb80 f i GameServer.obj
 0001:0000ebb0       ??0iterator@?$_Tree@V?$_Tmap_traits@IV?$list@PAVIGServer@@V?$allocator@PAVIGServer@@@std@@@std@@U?$less@I@2@V?$allocator@U?$pair@$$CBIV?$list@PAVIGServer@@V?$allocator@PAVIGServer@@@std@@@std@@@std@@@2@$0A@@std@@@std@@QAE@PAU_Node@?$_Tree_nod@V?$_Tmap_traits@IV?$list@PAVIGServer@@V?$allocator@PAVIGServer@@@std@@@std@@U?$less@I@2@V?$allocator@U?$pair@$$CBIV?$list@PAVIGServer@@V?$allocator@PAVIGServer@@@std@@@std@@@std@@@2@$0A@@std@@@2@PBV12@@Z 0040fbb0 f i GameServer.obj
 0001:0000ebe0       ??0const_iterator@?$_Tree@V?$_Tmap_traits@IV?$list@PAVIGServer@@V?$allocator@PAVIGServer@@@std@@@std@@U?$less@I@2@V?$allocator@U?$pair@$$CBIV?$list@PAVIGServer@@V?$allocator@PAVIGServer@@@std@@@std@@@std@@@2@$0A@@std@@@std@@QAE@XZ 0040fbe0 f i GameServer.obj
 0001:0000ebf0       ??Dconst_iterator@?$_Tree@V?$_Tmap_traits@IV?$list@PAVIGServer@@V?$allocator@PAVIGServer@@@std@@@std@@U?$less@I@2@V?$allocator@U?$pair@$$CBIV?$list@PAVIGServer@@V?$allocator@PAVIGServer@@@std@@@std@@@std@@@2@$0A@@std@@@std@@QBEABU?$pair@$$CBIV?$list@PAVIGServer@@V?$allocator@PAVIGServer@@@std@@@std@@@2@XZ 0040fbf0 f i GameServer.obj
 0001:0000ec20       ?destroy@?$allocator@U_Node@?$_List_nod@PAVIGServer@@V?$allocator@PAVIGServer@@@std@@@std@@@std@@QAEXPAU_Node@?$_List_nod@PAVIGServer@@V?$allocator@PAVIGServer@@@std@@@2@@Z 0040fc20 f i GameServer.obj
 0001:0000ec30       ??0iterator@?$_Tree@V?$_Tmap_traits@IPAVIGServer@@U?$less@I@std@@V?$allocator@U?$pair@$$CBIPAVIGServer@@@std@@@3@$0A@@std@@@std@@QAE@PAU_Node@?$_Tree_nod@V?$_Tmap_traits@IPAVIGServer@@U?$less@I@std@@V?$allocator@U?$pair@$$CBIPAVIGServer@@@std@@@3@$0A@@std@@@2@PBV12@@Z 0040fc30 f i GameServer.obj
 0001:0000ec60       ??0const_iterator@?$_Tree@V?$_Tmap_traits@IPAVIGServer@@U?$less@I@std@@V?$allocator@U?$pair@$$CBIPAVIGServer@@@std@@@3@$0A@@std@@@std@@QAE@XZ 0040fc60 f i GameServer.obj
 0001:0000ec70       ??Dconst_iterator@?$_Tree@V?$_Tmap_traits@IPAVIGServer@@U?$less@I@std@@V?$allocator@U?$pair@$$CBIPAVIGServer@@@std@@@3@$0A@@std@@@std@@QBEABU?$pair@$$CBIPAVIGServer@@@2@XZ 0040fc70 f i GameServer.obj
 0001:0000eca0       ??0?$_Iterator@$00@?$list@PAVIGServer@@V?$allocator@PAVIGServer@@@std@@@std@@QAE@PAU_Node@?$_List_nod@PAVIGServer@@V?$allocator@PAVIGServer@@@std@@@2@PBV12@@Z 0040fca0 f i GameServer.obj
 0001:0000ecd0       ??E?$_Iterator@$00@?$list@PAVIGServer@@V?$allocator@PAVIGServer@@@std@@@std@@QAEAAV012@XZ 0040fcd0 f i GameServer.obj
 0001:0000ed00       ??0?$_Const_iterator@$00@?$list@PAVIGServer@@V?$allocator@PAVIGServer@@@std@@@std@@QAE@XZ 0040fd00 f i GameServer.obj
 0001:0000ed10       ??D?$_Const_iterator@$00@?$list@PAVIGServer@@V?$allocator@PAVIGServer@@@std@@@std@@QBEABQAVIGServer@@XZ 0040fd10 f i GameServer.obj
 0001:0000ed40       ?max_size@?$_Tree@V?$_Tmap_traits@IV?$list@PAVIGServer@@V?$allocator@PAVIGServer@@@std@@@std@@U?$less@I@2@V?$allocator@U?$pair@$$CBIV?$list@PAVIGServer@@V?$allocator@PAVIGServer@@@std@@@std@@@std@@@2@$0A@@std@@@std@@QBEIXZ 0040fd40 f i GameServer.obj
 0001:0000ed50       ?_Lbound@?$_Tree@V?$_Tmap_traits@IV?$list@PAVIGServer@@V?$allocator@PAVIGServer@@@std@@@std@@U?$less@I@2@V?$allocator@U?$pair@$$CBIV?$list@PAVIGServer@@V?$allocator@PAVIGServer@@@std@@@std@@@std@@@2@$0A@@std@@@std@@IBEPAU_Node@?$_Tree_nod@V?$_Tmap_traits@IV?$list@PAVIGServer@@V?$allocator@PAVIGServer@@@std@@@std@@U?$less@I@2@V?$allocator@U?$pair@$$CBIV?$list@PAVIGServer@@V?$allocator@PAVIGServer@@@std@@@std@@@std@@@2@$0A@@std@@@2@ABI@Z 0040fd50 f i GameServer.obj
 0001:0000ed80       ?_Lrotate@?$_Tree@V?$_Tmap_traits@IV?$list@PAVIGServer@@V?$allocator@PAVIGServer@@@std@@@std@@U?$less@I@2@V?$allocator@U?$pair@$$CBIV?$list@PAVIGServer@@V?$allocator@PAVIGServer@@@std@@@std@@@std@@@2@$0A@@std@@@std@@IAEXPAU_Node@?$_Tree_nod@V?$_Tmap_traits@IV?$list@PAVIGServer@@V?$allocator@PAVIGServer@@@std@@@std@@U?$less@I@2@V?$allocator@U?$pair@$$CBIV?$list@PAVIGServer@@V?$allocator@PAVIGServer@@@std@@@std@@@std@@@2@$0A@@std@@@2@@Z 0040fd80 f i GameServer.obj
 0001:0000edd0       ?_Rrotate@?$_Tree@V?$_Tmap_traits@IV?$list@PAVIGServer@@V?$allocator@PAVIGServer@@@std@@@std@@U?$less@I@2@V?$allocator@U?$pair@$$CBIV?$list@PAVIGServer@@V?$allocator@PAVIGServer@@@std@@@std@@@std@@@2@$0A@@std@@@std@@IAEXPAU_Node@?$_Tree_nod@V?$_Tmap_traits@IV?$list@PAVIGServer@@V?$allocator@PAVIGServer@@@std@@@std@@U?$less@I@2@V?$allocator@U?$pair@$$CBIV?$list@PAVIGServer@@V?$allocator@PAVIGServer@@@std@@@std@@@std@@@2@$0A@@std@@@2@@Z 0040fdd0 f i GameServer.obj
 0001:0000ee30       ?destroy@?$allocator@PAU_Node@?$_Tree_nod@V?$_Tmap_traits@IV?$list@PAVIGServer@@V?$allocator@PAVIGServer@@@std@@@std@@U?$less@I@2@V?$allocator@U?$pair@$$CBIV?$list@PAVIGServer@@V?$allocator@PAVIGServer@@@std@@@std@@@std@@@2@$0A@@std@@@std@@@std@@QAEXPAPAU_Node@?$_Tree_nod@V?$_Tmap_traits@IV?$list@PAVIGServer@@V?$allocator@PAVIGServer@@@std@@@std@@U?$less@I@2@V?$allocator@U?$pair@$$CBIV?$list@PAVIGServer@@V?$allocator@PAVIGServer@@@std@@@std@@@std@@@2@$0A@@std@@@2@@Z 0040fe30 f i GameServer.obj
 0001:0000ee40       ?max_size@?$_Tree@V?$_Tmap_traits@IPAVIGServer@@U?$less@I@std@@V?$allocator@U?$pair@$$CBIPAVIGServer@@@std@@@3@$0A@@std@@@std@@QBEIXZ 0040fe40 f i GameServer.obj
 0001:0000ee50       ?_Erase@?$_Tree@V?$_Tmap_traits@IPAVIGServer@@U?$less@I@std@@V?$allocator@U?$pair@$$CBIPAVIGServer@@@std@@@3@$0A@@std@@@std@@IAEXPAU_Node@?$_Tree_nod@V?$_Tmap_traits@IPAVIGServer@@U?$less@I@std@@V?$allocator@U?$pair@$$CBIPAVIGServer@@@std@@@3@$0A@@std@@@2@@Z 0040fe50 f i GameServer.obj
 0001:0000ee90       ?_Lbound@?$_Tree@V?$_Tmap_traits@IPAVIGServer@@U?$less@I@std@@V?$allocator@U?$pair@$$CBIPAVIGServer@@@std@@@3@$0A@@std@@@std@@IBEPAU_Node@?$_Tree_nod@V?$_Tmap_traits@IPAVIGServer@@U?$less@I@std@@V?$allocator@U?$pair@$$CBIPAVIGServer@@@std@@@3@$0A@@std@@@2@ABI@Z 0040fe90 f i GameServer.obj
 0001:0000eec0       ?destroy@?$allocator@PAU_Node@?$_Tree_nod@V?$_Tmap_traits@IPAVIGServer@@U?$less@I@std@@V?$allocator@U?$pair@$$CBIPAVIGServer@@@std@@@3@$0A@@std@@@std@@@std@@QAEXPAPAU_Node@?$_Tree_nod@V?$_Tmap_traits@IPAVIGServer@@U?$less@I@std@@V?$allocator@U?$pair@$$CBIPAVIGServer@@@std@@@3@$0A@@std@@@2@@Z 0040fec0 f i GameServer.obj
 0001:0000eed0       ?max_size@?$_Tree@V?$_Tmap_traits@V?$basic_string@DU?$char_traits@D@std@@V?$allocator@D@2@@std@@PAXU?$less@V?$basic_string@DU?$char_traits@D@std@@V?$allocator@D@2@@std@@@2@V?$allocator@U?$pair@$$CBV?$basic_string@DU?$char_traits@D@std@@V?$allocator@D@2@@std@@PAX@std@@@2@$0A@@std@@@std@@QBEIXZ 0040fed0 f i GameServer.obj
 0001:0000eee0       ?destroy@?$allocator@PAU_Node@?$_Tree_nod@V?$_Tmap_traits@V?$basic_string@DU?$char_traits@D@std@@V?$allocator@D@2@@std@@PAXU?$less@V?$basic_string@DU?$char_traits@D@std@@V?$allocator@D@2@@std@@@2@V?$allocator@U?$pair@$$CBV?$basic_string@DU?$char_traits@D@std@@V?$allocator@D@2@@std@@PAX@std@@@2@$0A@@std@@@std@@@std@@QAEXPAPAU_Node@?$_Tree_nod@V?$_Tmap_traits@V?$basic_string@DU?$char_traits@D@std@@V?$allocator@D@2@@std@@PAXU?$less@V?$basic_string@DU?$char_traits@D@std@@V?$allocator@D@2@@std@@@2@V?$allocator@U?$pair@$$CBV?$basic_string@DU?$char_traits@D@std@@V?$allocator@D@2@@std@@PAX@std@@@2@$0A@@std@@@2@@Z 0040fee0 f i GameServer.obj
 0001:0000eef0       ??Econst_iterator@?$_Tree@V?$_Tmap_traits@V?$basic_string@DU?$char_traits@D@std@@V?$allocator@D@2@@std@@PAXU?$less@V?$basic_string@DU?$char_traits@D@std@@V?$allocator@D@2@@std@@@2@V?$allocator@U?$pair@$$CBV?$basic_string@DU?$char_traits@D@std@@V?$allocator@D@2@@std@@PAX@std@@@2@$0A@@std@@@std@@QAEAAV012@XZ 0040fef0 f i GameServer.obj
 0001:0000ef00       ??Fconst_iterator@?$_Tree@V?$_Tmap_traits@V?$basic_string@DU?$char_traits@D@std@@V?$allocator@D@2@@std@@PAXU?$less@V?$basic_string@DU?$char_traits@D@std@@V?$allocator@D@2@@std@@@2@V?$allocator@U?$pair@$$CBV?$basic_string@DU?$char_traits@D@std@@V?$allocator@D@2@@std@@PAX@std@@@2@$0A@@std@@@std@@QAEAAV012@XZ 0040ff00 f i GameServer.obj
 0001:0000ef10       ??Econst_iterator@?$_Tree@V?$_Tmap_traits@IV?$list@PAVIGServer@@V?$allocator@PAVIGServer@@@std@@@std@@U?$less@I@2@V?$allocator@U?$pair@$$CBIV?$list@PAVIGServer@@V?$allocator@PAVIGServer@@@std@@@std@@@std@@@2@$0A@@std@@@std@@QAEAAV012@XZ 0040ff10 f i GameServer.obj
 0001:0000ef20       ??Fconst_iterator@?$_Tree@V?$_Tmap_traits@IV?$list@PAVIGServer@@V?$allocator@PAVIGServer@@@std@@@std@@U?$less@I@2@V?$allocator@U?$pair@$$CBIV?$list@PAVIGServer@@V?$allocator@PAVIGServer@@@std@@@std@@@std@@@2@$0A@@std@@@std@@QAEAAV012@XZ 0040ff20 f i GameServer.obj
 0001:0000ef30       ?begin@?$list@PAVIGServer@@V?$allocator@PAVIGServer@@@std@@@std@@QBE?AV?$_Const_iterator@$00@12@XZ 0040ff30 f i GameServer.obj
 0001:0000ef50       ?end@?$list@PAVIGServer@@V?$allocator@PAVIGServer@@@std@@@std@@QBE?AV?$_Const_iterator@$00@12@XZ 0040ff50 f i GameServer.obj
 0001:0000ef60       ?allocate@?$allocator@U_Node@?$_List_nod@PAVIGServer@@V?$allocator@PAVIGServer@@@std@@@std@@@std@@QAEPAU_Node@?$_List_nod@PAVIGServer@@V?$allocator@PAVIGServer@@@std@@@2@I@Z 0040ff60 f i GameServer.obj
 0001:0000ef80       ?construct@?$allocator@PAU_Node@?$_List_nod@PAVIGServer@@V?$allocator@PAVIGServer@@@std@@@std@@@std@@QAEXPAPAU_Node@?$_List_nod@PAVIGServer@@V?$allocator@PAVIGServer@@@std@@@2@ABQAU342@@Z 0040ff80 f i GameServer.obj
 0001:0000efa0       ?destroy@?$allocator@PAU_Node@?$_List_nod@PAVIGServer@@V?$allocator@PAVIGServer@@@std@@@std@@@std@@QAEXPAPAU_Node@?$_List_nod@PAVIGServer@@V?$allocator@PAVIGServer@@@std@@@2@@Z 0040ffa0 f i GameServer.obj
 0001:0000efb0       ??Econst_iterator@?$_Tree@V?$_Tmap_traits@IPAVIGServer@@U?$less@I@std@@V?$allocator@U?$pair@$$CBIPAVIGServer@@@std@@@3@$0A@@std@@@std@@QAEAAV012@XZ 0040ffb0 f i GameServer.obj
 0001:0000efc0       ??Fconst_iterator@?$_Tree@V?$_Tmap_traits@IPAVIGServer@@U?$less@I@std@@V?$allocator@U?$pair@$$CBIPAVIGServer@@@std@@@3@$0A@@std@@@std@@QAEAAV012@XZ 0040ffc0 f i GameServer.obj
 0001:0000efd0       ?allocate@?$allocator@U_Node@?$_Tree_nod@V?$_Tmap_traits@IV?$list@PAVIGServer@@V?$allocator@PAVIGServer@@@std@@@std@@U?$less@I@2@V?$allocator@U?$pair@$$CBIV?$list@PAVIGServer@@V?$allocator@PAVIGServer@@@std@@@std@@@std@@@2@$0A@@std@@@std@@@std@@QAEPAU_Node@?$_Tree_nod@V?$_Tmap_traits@IV?$list@PAVIGServer@@V?$allocator@PAVIGServer@@@std@@@std@@U?$less@I@2@V?$allocator@U?$pair@$$CBIV?$list@PAVIGServer@@V?$allocator@PAVIGServer@@@std@@@std@@@std@@@2@$0A@@std@@@2@I@Z 0040ffd0 f i GameServer.obj
 0001:0000eff0       ?allocate@?$allocator@U_Node@?$_Tree_nod@V?$_Tmap_traits@IPAVIGServer@@U?$less@I@std@@V?$allocator@U?$pair@$$CBIPAVIGServer@@@std@@@3@$0A@@std@@@std@@@std@@QAEPAU_Node@?$_Tree_nod@V?$_Tmap_traits@IPAVIGServer@@U?$less@I@std@@V?$allocator@U?$pair@$$CBIPAVIGServer@@@std@@@3@$0A@@std@@@2@I@Z 0040fff0 f i GameServer.obj
 0001:0000f010       ?allocate@?$allocator@U_Node@?$_Tree_nod@V?$_Tmap_traits@V?$basic_string@DU?$char_traits@D@std@@V?$allocator@D@2@@std@@PAXU?$less@V?$basic_string@DU?$char_traits@D@std@@V?$allocator@D@2@@std@@@2@V?$allocator@U?$pair@$$CBV?$basic_string@DU?$char_traits@D@std@@V?$allocator@D@2@@std@@PAX@std@@@2@$0A@@std@@@std@@@std@@QAEPAU_Node@?$_Tree_nod@V?$_Tmap_traits@V?$basic_string@DU?$char_traits@D@std@@V?$allocator@D@2@@std@@PAXU?$less@V?$basic_string@DU?$char_traits@D@std@@V?$allocator@D@2@@std@@@2@V?$allocator@U?$pair@$$CBV?$basic_string@DU?$char_traits@D@std@@V?$allocator@D@2@@std@@PAX@std@@@2@$0A@@std@@@2@I@Z 00410010 f i GameServer.obj
 0001:0000f030       ?max_size@?$list@PAVIGServer@@V?$allocator@PAVIGServer@@@std@@@std@@QBEIXZ 00410030 f i GameServer.obj
 0001:0000f040       ??0?$_List_nod@PAVIGServer@@V?$allocator@PAVIGServer@@@std@@@std@@IAE@V?$allocator@PAVIGServer@@@1@@Z 00410040 f i GameServer.obj
 0001:0000f050       ?construct@?$allocator@PAVIGServer@@@std@@QAEXPAPAVIGServer@@ABQAV3@@Z 00410050 f i GameServer.obj
 0001:0000f070       ??0?$_Tree_nod@V?$_Tmap_traits@IV?$list@PAVIGServer@@V?$allocator@PAVIGServer@@@std@@@std@@U?$less@I@2@V?$allocator@U?$pair@$$CBIV?$list@PAVIGServer@@V?$allocator@PAVIGServer@@@std@@@std@@@std@@@2@$0A@@std@@@std@@IAE@ABU?$less@I@1@V?$allocator@U?$pair@$$CBIV?$list@PAVIGServer@@V?$allocator@PAVIGServer@@@std@@@std@@@std@@@1@@Z 00410070 f i GameServer.obj
 0001:0000f080       ?construct@?$allocator@PAU_Node@?$_Tree_nod@V?$_Tmap_traits@IV?$list@PAVIGServer@@V?$allocator@PAVIGServer@@@std@@@std@@U?$less@I@2@V?$allocator@U?$pair@$$CBIV?$list@PAVIGServer@@V?$allocator@PAVIGServer@@@std@@@std@@@std@@@2@$0A@@std@@@std@@@std@@QAEXPAPAU_Node@?$_Tree_nod@V?$_Tmap_traits@IV?$list@PAVIGServer@@V?$allocator@PAVIGServer@@@std@@@std@@U?$less@I@2@V?$allocator@U?$pair@$$CBIV?$list@PAVIGServer@@V?$allocator@PAVIGServer@@@std@@@std@@@std@@@2@$0A@@std@@@2@ABQAU342@@Z 00410080 f i GameServer.obj
 0001:0000f0a0       ??0?$_Tree_nod@V?$_Tmap_traits@IPAVIGServer@@U?$less@I@std@@V?$allocator@U?$pair@$$CBIPAVIGServer@@@std@@@3@$0A@@std@@@std@@IAE@ABU?$less@I@1@V?$allocator@U?$pair@$$CBIPAVIGServer@@@std@@@1@@Z 004100a0 f i GameServer.obj
 0001:0000f0b0       ?construct@?$allocator@PAU_Node@?$_Tree_nod@V?$_Tmap_traits@IPAVIGServer@@U?$less@I@std@@V?$allocator@U?$pair@$$CBIPAVIGServer@@@std@@@3@$0A@@std@@@std@@@std@@QAEXPAPAU_Node@?$_Tree_nod@V?$_Tmap_traits@IPAVIGServer@@U?$less@I@std@@V?$allocator@U?$pair@$$CBIPAVIGServer@@@std@@@3@$0A@@std@@@2@ABQAU342@@Z 004100b0 f i GameServer.obj
 0001:0000f0d0       ??0?$_Tree_nod@V?$_Tmap_traits@V?$basic_string@DU?$char_traits@D@std@@V?$allocator@D@2@@std@@PAXU?$less@V?$basic_string@DU?$char_traits@D@std@@V?$allocator@D@2@@std@@@2@V?$allocator@U?$pair@$$CBV?$basic_string@DU?$char_traits@D@std@@V?$allocator@D@2@@std@@PAX@std@@@2@$0A@@std@@@std@@IAE@ABU?$less@V?$basic_string@DU?$char_traits@D@std@@V?$allocator@D@2@@std@@@1@V?$allocator@U?$pair@$$CBV?$basic_string@DU?$char_traits@D@std@@V?$allocator@D@2@@std@@PAX@std@@@1@@Z 004100d0 f i GameServer.obj
 0001:0000f0e0       ?construct@?$allocator@PAU_Node@?$_Tree_nod@V?$_Tmap_traits@V?$basic_string@DU?$char_traits@D@std@@V?$allocator@D@2@@std@@PAXU?$less@V?$basic_string@DU?$char_traits@D@std@@V?$allocator@D@2@@std@@@2@V?$allocator@U?$pair@$$CBV?$basic_string@DU?$char_traits@D@std@@V?$allocator@D@2@@std@@PAX@std@@@2@$0A@@std@@@std@@@std@@QAEXPAPAU_Node@?$_Tree_nod@V?$_Tmap_traits@V?$basic_string@DU?$char_traits@D@std@@V?$allocator@D@2@@std@@PAXU?$less@V?$basic_string@DU?$char_traits@D@std@@V?$allocator@D@2@@std@@@2@V?$allocator@U?$pair@$$CBV?$basic_string@DU?$char_traits@D@std@@V?$allocator@D@2@@std@@PAX@std@@@2@$0A@@std@@@2@ABQAU342@@Z 004100e0 f i GameServer.obj
 0001:0000f100       ??F?$_Iterator@$00@?$list@PAVIGServer@@V?$allocator@PAVIGServer@@@std@@@std@@QAEAAV012@XZ 00410100 f i GameServer.obj
 0001:0000f130       ?_NotifyEnterGame@CGameServer@@IAE_NPBXI@Z 00410130 f   GameServer.obj
 0001:0000f150       ?begin@?$_Tree@V?$_Tmap_traits@IV?$list@PAVIGServer@@V?$allocator@PAVIGServer@@@std@@@std@@U?$less@I@2@V?$allocator@U?$pair@$$CBIV?$list@PAVIGServer@@V?$allocator@PAVIGServer@@@std@@@std@@@std@@@2@$0A@@std@@@std@@QAE?AViterator@12@XZ 00410150 f i GameServer.obj
 0001:0000f170       ?end@?$_Tree@V?$_Tmap_traits@IV?$list@PAVIGServer@@V?$allocator@PAVIGServer@@@std@@@std@@U?$less@I@2@V?$allocator@U?$pair@$$CBIV?$list@PAVIGServer@@V?$allocator@PAVIGServer@@@std@@@std@@@std@@@2@$0A@@std@@@std@@QAE?AViterator@12@XZ 00410170 f i GameServer.obj
 0001:0000f180       ?begin@?$_Tree@V?$_Tmap_traits@IPAVIGServer@@U?$less@I@std@@V?$allocator@U?$pair@$$CBIPAVIGServer@@@std@@@3@$0A@@std@@@std@@QAE?AViterator@12@XZ 00410180 f i GameServer.obj
 0001:0000f1a0       ?end@?$_Tree@V?$_Tmap_traits@IPAVIGServer@@U?$less@I@std@@V?$allocator@U?$pair@$$CBIPAVIGServer@@@std@@@3@$0A@@std@@@std@@QAE?AViterator@12@XZ 004101a0 f i GameServer.obj
 0001:0000f1b0       ?begin@?$_Tree@V?$_Tmap_traits@V?$basic_string@DU?$char_traits@D@std@@V?$allocator@D@2@@std@@PAXU?$less@V?$basic_string@DU?$char_traits@D@std@@V?$allocator@D@2@@std@@@2@V?$allocator@U?$pair@$$CBV?$basic_string@DU?$char_traits@D@std@@V?$allocator@D@2@@std@@PAX@std@@@2@$0A@@std@@@std@@QAE?AViterator@12@XZ 004101b0 f i GameServer.obj
 0001:0000f1d0       ?end@?$_Tree@V?$_Tmap_traits@V?$basic_string@DU?$char_traits@D@std@@V?$allocator@D@2@@std@@PAXU?$less@V?$basic_string@DU?$char_traits@D@std@@V?$allocator@D@2@@std@@@2@V?$allocator@U?$pair@$$CBV?$basic_string@DU?$char_traits@D@std@@V?$allocator@D@2@@std@@PAX@std@@@2@$0A@@std@@@std@@QAE?AViterator@12@XZ 004101d0 f i GameServer.obj
 0001:0000f1e0       ??0iterator@?$_Tree@V?$_Tmap_traits@V?$basic_string@DU?$char_traits@D@std@@V?$allocator@D@2@@std@@PAXU?$less@V?$basic_string@DU?$char_traits@D@std@@V?$allocator@D@2@@std@@@2@V?$allocator@U?$pair@$$CBV?$basic_string@DU?$char_traits@D@std@@V?$allocator@D@2@@std@@PAX@std@@@2@$0A@@std@@@std@@QAE@XZ 004101e0 f i GameServer.obj
 0001:0000f1f0       ??Diterator@?$_Tree@V?$_Tmap_traits@V?$basic_string@DU?$char_traits@D@std@@V?$allocator@D@2@@std@@PAXU?$less@V?$basic_string@DU?$char_traits@D@std@@V?$allocator@D@2@@std@@@2@V?$allocator@U?$pair@$$CBV?$basic_string@DU?$char_traits@D@std@@V?$allocator@D@2@@std@@PAX@std@@@2@$0A@@std@@@std@@QBEAAU?$pair@$$CBV?$basic_string@DU?$char_traits@D@std@@V?$allocator@D@2@@std@@PAX@2@XZ 004101f0 f i GameServer.obj
 0001:0000f220       ??0iterator@?$_Tree@V?$_Tmap_traits@IV?$list@PAVIGServer@@V?$allocator@PAVIGServer@@@std@@@std@@U?$less@I@2@V?$allocator@U?$pair@$$CBIV?$list@PAVIGServer@@V?$allocator@PAVIGServer@@@std@@@std@@@std@@@2@$0A@@std@@@std@@QAE@XZ 00410220 f i GameServer.obj
 0001:0000f230       ??Diterator@?$_Tree@V?$_Tmap_traits@IV?$list@PAVIGServer@@V?$allocator@PAVIGServer@@@std@@@std@@U?$less@I@2@V?$allocator@U?$pair@$$CBIV?$list@PAVIGServer@@V?$allocator@PAVIGServer@@@std@@@std@@@std@@@2@$0A@@std@@@std@@QBEAAU?$pair@$$CBIV?$list@PAVIGServer@@V?$allocator@PAVIGServer@@@std@@@std@@@2@XZ 00410230 f i GameServer.obj
 0001:0000f260       ?begin@?$list@PAVIGServer@@V?$allocator@PAVIGServer@@@std@@@std@@QAE?AV?$_Iterator@$00@12@XZ 00410260 f i GameServer.obj
 0001:0000f280       ?end@?$list@PAVIGServer@@V?$allocator@PAVIGServer@@@std@@@std@@QAE?AV?$_Iterator@$00@12@XZ 00410280 f i GameServer.obj
 0001:0000f290       ?clear@?$list@PAVIGServer@@V?$allocator@PAVIGServer@@@std@@@std@@QAEXXZ 00410290 f i GameServer.obj
 0001:0000f2d0       ??0iterator@?$_Tree@V?$_Tmap_traits@IPAVIGServer@@U?$less@I@std@@V?$allocator@U?$pair@$$CBIPAVIGServer@@@std@@@3@$0A@@std@@@std@@QAE@XZ 004102d0 f i GameServer.obj
 0001:0000f2e0       ??Diterator@?$_Tree@V?$_Tmap_traits@IPAVIGServer@@U?$less@I@std@@V?$allocator@U?$pair@$$CBIPAVIGServer@@@std@@@3@$0A@@std@@@std@@QBEAAU?$pair@$$CBIPAVIGServer@@@2@XZ 004102e0 f i GameServer.obj
 0001:0000f310       ??0?$_Iterator@$00@?$list@PAVIGServer@@V?$allocator@PAVIGServer@@@std@@@std@@QAE@XZ 00410310 f i GameServer.obj
 0001:0000f320       ??D?$_Iterator@$00@?$list@PAVIGServer@@V?$allocator@PAVIGServer@@@std@@@std@@QBEAAPAVIGServer@@XZ 00410320 f i GameServer.obj
 0001:0000f350       ??E?$_Iterator@$00@?$list@PAVIGServer@@V?$allocator@PAVIGServer@@@std@@@std@@QAE?AV012@H@Z 00410350 f i GameServer.obj
 0001:0000f390       ?lower_bound@?$_Tree@V?$_Tmap_traits@IV?$list@PAVIGServer@@V?$allocator@PAVIGServer@@@std@@@std@@U?$less@I@2@V?$allocator@U?$pair@$$CBIV?$list@PAVIGServer@@V?$allocator@PAVIGServer@@@std@@@std@@@std@@@2@$0A@@std@@@std@@QAE?AViterator@12@ABI@Z 00410390 f i GameServer.obj
 0001:0000f3d0       ?clear@?$_Tree@V?$_Tmap_traits@IPAVIGServer@@U?$less@I@std@@V?$allocator@U?$pair@$$CBIPAVIGServer@@@std@@@3@$0A@@std@@@std@@QAEXXZ 004103d0 f i GameServer.obj
 0001:0000f400       ?lower_bound@?$_Tree@V?$_Tmap_traits@IPAVIGServer@@U?$less@I@std@@V?$allocator@U?$pair@$$CBIPAVIGServer@@@std@@@3@$0A@@std@@@std@@QAE?AViterator@12@ABI@Z 00410400 f i GameServer.obj
 0001:0000f440       ??Eiterator@?$_Tree@V?$_Tmap_traits@V?$basic_string@DU?$char_traits@D@std@@V?$allocator@D@2@@std@@PAXU?$less@V?$basic_string@DU?$char_traits@D@std@@V?$allocator@D@2@@std@@@2@V?$allocator@U?$pair@$$CBV?$basic_string@DU?$char_traits@D@std@@V?$allocator@D@2@@std@@PAX@std@@@2@$0A@@std@@@std@@QAEAAV012@XZ 00410440 f i GameServer.obj
 0001:0000f450       ??Fiterator@?$_Tree@V?$_Tmap_traits@V?$basic_string@DU?$char_traits@D@std@@V?$allocator@D@2@@std@@PAXU?$less@V?$basic_string@DU?$char_traits@D@std@@V?$allocator@D@2@@std@@@2@V?$allocator@U?$pair@$$CBV?$basic_string@DU?$char_traits@D@std@@V?$allocator@D@2@@std@@PAX@std@@@2@$0A@@std@@@std@@QAEAAV012@XZ 00410450 f i GameServer.obj
 0001:0000f460       ??Eiterator@?$_Tree@V?$_Tmap_traits@IV?$list@PAVIGServer@@V?$allocator@PAVIGServer@@@std@@@std@@U?$less@I@2@V?$allocator@U?$pair@$$CBIV?$list@PAVIGServer@@V?$allocator@PAVIGServer@@@std@@@std@@@std@@@2@$0A@@std@@@std@@QAEAAV012@XZ 00410460 f i GameServer.obj
 0001:0000f470       ??Fiterator@?$_Tree@V?$_Tmap_traits@IV?$list@PAVIGServer@@V?$allocator@PAVIGServer@@@std@@@std@@U?$less@I@2@V?$allocator@U?$pair@$$CBIV?$list@PAVIGServer@@V?$allocator@PAVIGServer@@@std@@@std@@@std@@@2@$0A@@std@@@std@@QAEAAV012@XZ 00410470 f i GameServer.obj
 0001:0000f480       ?erase@?$list@PAVIGServer@@V?$allocator@PAVIGServer@@@std@@@std@@QAE?AV?$_Iterator@$00@12@V312@@Z 00410480 f i GameServer.obj
 0001:0000f4e0       ?_Buynode@?$list@PAVIGServer@@V?$allocator@PAVIGServer@@@std@@@std@@IAEPAU_Node@?$_List_nod@PAVIGServer@@V?$allocator@PAVIGServer@@@std@@@2@XZ 004104e0 f i GameServer.obj
 0001:0000f500       ?_Tidy@?$list@PAVIGServer@@V?$allocator@PAVIGServer@@@std@@@std@@IAEXXZ 00410500 f i GameServer.obj
 0001:0000f550       ??Eiterator@?$_Tree@V?$_Tmap_traits@IPAVIGServer@@U?$less@I@std@@V?$allocator@U?$pair@$$CBIPAVIGServer@@@std@@@3@$0A@@std@@@std@@QAEAAV012@XZ 00410550 f i GameServer.obj
 0001:0000f560       ??Fiterator@?$_Tree@V?$_Tmap_traits@IPAVIGServer@@U?$less@I@std@@V?$allocator@U?$pair@$$CBIPAVIGServer@@@std@@@3@$0A@@std@@@std@@QAEAAV012@XZ 00410560 f i GameServer.obj
 0001:0000f570       ?_Buynode@?$_Tree@V?$_Tmap_traits@IPAVIGServer@@U?$less@I@std@@V?$allocator@U?$pair@$$CBIPAVIGServer@@@std@@@3@$0A@@std@@@std@@IAEPAU_Node@?$_Tree_nod@V?$_Tmap_traits@IPAVIGServer@@U?$less@I@std@@V?$allocator@U?$pair@$$CBIPAVIGServer@@@std@@@3@$0A@@std@@@2@PAU342@00ABU?$pair@$$CBIPAVIGServer@@@2@D@Z 00410570 f i GameServer.obj
 0001:0000f5b0       ?_Buynode@?$list@PAVIGServer@@V?$allocator@PAVIGServer@@@std@@@std@@IAEPAU_Node@?$_List_nod@PAVIGServer@@V?$allocator@PAVIGServer@@@std@@@2@PAU342@0ABQAVIGServer@@@Z 004105b0 f i GameServer.obj
 0001:0000f5f0       ??0?$_List_ptr@PAVIGServer@@V?$allocator@PAVIGServer@@@std@@@std@@IAE@V?$allocator@PAVIGServer@@@1@@Z 004105f0 f i GameServer.obj
 0001:0000f600       ?_Buynode@?$_Tree@V?$_Tmap_traits@IV?$list@PAVIGServer@@V?$allocator@PAVIGServer@@@std@@@std@@U?$less@I@2@V?$allocator@U?$pair@$$CBIV?$list@PAVIGServer@@V?$allocator@PAVIGServer@@@std@@@std@@@std@@@2@$0A@@std@@@std@@IAEPAU_Node@?$_Tree_nod@V?$_Tmap_traits@IV?$list@PAVIGServer@@V?$allocator@PAVIGServer@@@std@@@std@@U?$less@I@2@V?$allocator@U?$pair@$$CBIV?$list@PAVIGServer@@V?$allocator@PAVIGServer@@@std@@@std@@@std@@@2@$0A@@std@@@2@XZ 00410600 f i GameServer.obj
 0001:0000f640       ??0?$_Tree_ptr@V?$_Tmap_traits@IV?$list@PAVIGServer@@V?$allocator@PAVIGServer@@@std@@@std@@U?$less@I@2@V?$allocator@U?$pair@$$CBIV?$list@PAVIGServer@@V?$allocator@PAVIGServer@@@std@@@std@@@std@@@2@$0A@@std@@@std@@IAE@ABU?$less@I@1@V?$allocator@U?$pair@$$CBIV?$list@PAVIGServer@@V?$allocator@PAVIGServer@@@std@@@std@@@std@@@1@@Z 00410640 f i GameServer.obj
 0001:0000f650       ?_Buynode@?$_Tree@V?$_Tmap_traits@IPAVIGServer@@U?$less@I@std@@V?$allocator@U?$pair@$$CBIPAVIGServer@@@std@@@3@$0A@@std@@@std@@IAEPAU_Node@?$_Tree_nod@V?$_Tmap_traits@IPAVIGServer@@U?$less@I@std@@V?$allocator@U?$pair@$$CBIPAVIGServer@@@std@@@3@$0A@@std@@@2@XZ 00410650 f i GameServer.obj
 0001:0000f690       ??0?$_Tree_ptr@V?$_Tmap_traits@IPAVIGServer@@U?$less@I@std@@V?$allocator@U?$pair@$$CBIPAVIGServer@@@std@@@3@$0A@@std@@@std@@IAE@ABU?$less@I@1@V?$allocator@U?$pair@$$CBIPAVIGServer@@@std@@@1@@Z 00410690 f i GameServer.obj
 0001:0000f6a0       ?_Buynode@?$_Tree@V?$_Tmap_traits@V?$basic_string@DU?$char_traits@D@std@@V?$allocator@D@2@@std@@PAXU?$less@V?$basic_string@DU?$char_traits@D@std@@V?$allocator@D@2@@std@@@2@V?$allocator@U?$pair@$$CBV?$basic_string@DU?$char_traits@D@std@@V?$allocator@D@2@@std@@PAX@std@@@2@$0A@@std@@@std@@IAEPAU_Node@?$_Tree_nod@V?$_Tmap_traits@V?$basic_string@DU?$char_traits@D@std@@V?$allocator@D@2@@std@@PAXU?$less@V?$basic_string@DU?$char_traits@D@std@@V?$allocator@D@2@@std@@@2@V?$allocator@U?$pair@$$CBV?$basic_string@DU?$char_traits@D@std@@V?$allocator@D@2@@std@@PAX@std@@@2@$0A@@std@@@2@XZ 004106a0 f i GameServer.obj
 0001:0000f6e0       ??0?$_Tree_ptr@V?$_Tmap_traits@V?$basic_string@DU?$char_traits@D@std@@V?$allocator@D@2@@std@@PAXU?$less@V?$basic_string@DU?$char_traits@D@std@@V?$allocator@D@2@@std@@@2@V?$allocator@U?$pair@$$CBV?$basic_string@DU?$char_traits@D@std@@V?$allocator@D@2@@std@@PAX@std@@@2@$0A@@std@@@std@@IAE@ABU?$less@V?$basic_string@DU?$char_traits@D@std@@V?$allocator@D@2@@std@@@1@V?$allocator@U?$pair@$$CBV?$basic_string@DU?$char_traits@D@std@@V?$allocator@D@2@@std@@PAX@std@@@1@@Z 004106e0 f i GameServer.obj
 0001:0000f6f0       ?find@?$_Tree@V?$_Tmap_traits@IV?$list@PAVIGServer@@V?$allocator@PAVIGServer@@@std@@@std@@U?$less@I@2@V?$allocator@U?$pair@$$CBIV?$list@PAVIGServer@@V?$allocator@PAVIGServer@@@std@@@std@@@std@@@2@$0A@@std@@@std@@QAE?AViterator@12@ABI@Z 004106f0 f i GameServer.obj
 0001:0000f760       ?find@?$_Tree@V?$_Tmap_traits@IPAVIGServer@@U?$less@I@std@@V?$allocator@U?$pair@$$CBIPAVIGServer@@@std@@@3@$0A@@std@@@std@@QAE?AViterator@12@ABI@Z 00410760 f i GameServer.obj
 0001:0000f7d0       ??Eiterator@?$_Tree@V?$_Tmap_traits@V?$basic_string@DU?$char_traits@D@std@@V?$allocator@D@2@@std@@PAXU?$less@V?$basic_string@DU?$char_traits@D@std@@V?$allocator@D@2@@std@@@2@V?$allocator@U?$pair@$$CBV?$basic_string@DU?$char_traits@D@std@@V?$allocator@D@2@@std@@PAX@std@@@2@$0A@@std@@@std@@QAE?AV012@H@Z 004107d0 f i GameServer.obj
 0001:0000f7f0       ??Eiterator@?$_Tree@V?$_Tmap_traits@IV?$list@PAVIGServer@@V?$allocator@PAVIGServer@@@std@@@std@@U?$less@I@2@V?$allocator@U?$pair@$$CBIV?$list@PAVIGServer@@V?$allocator@PAVIGServer@@@std@@@std@@@std@@@2@$0A@@std@@@std@@QAE?AV012@H@Z 004107f0 f i GameServer.obj
 0001:0000f810       ??1?$list@PAVIGServer@@V?$allocator@PAVIGServer@@@std@@@std@@QAE@XZ 00410810 f i GameServer.obj
 0001:0000f820       ?remove@?$list@PAVIGServer@@V?$allocator@PAVIGServer@@@std@@@std@@QAEXABQAVIGServer@@@Z 00410820 f i GameServer.obj
 0001:0000f8c0       ??Eiterator@?$_Tree@V?$_Tmap_traits@IPAVIGServer@@U?$less@I@std@@V?$allocator@U?$pair@$$CBIPAVIGServer@@@std@@@3@$0A@@std@@@std@@QAE?AV012@H@Z 004108c0 f i GameServer.obj
 0001:0000f8e0       ??0?$_List_val@PAVIGServer@@V?$allocator@PAVIGServer@@@std@@@std@@QAE@V?$allocator@PAVIGServer@@@1@@Z 004108e0 f i GameServer.obj
 0001:0000f8f0       ?_Init@?$_Tree@V?$_Tmap_traits@IV?$list@PAVIGServer@@V?$allocator@PAVIGServer@@@std@@@std@@U?$less@I@2@V?$allocator@U?$pair@$$CBIV?$list@PAVIGServer@@V?$allocator@PAVIGServer@@@std@@@std@@@std@@@2@$0A@@std@@@std@@IAEXXZ 004108f0 f i GameServer.obj
 0001:0000f920       ??0?$_Tree_val@V?$_Tmap_traits@IV?$list@PAVIGServer@@V?$allocator@PAVIGServer@@@std@@@std@@U?$less@I@2@V?$allocator@U?$pair@$$CBIV?$list@PAVIGServer@@V?$allocator@PAVIGServer@@@std@@@std@@@std@@@2@$0A@@std@@@std@@IAE@ABU?$less@I@1@V?$allocator@U?$pair@$$CBIV?$list@PAVIGServer@@V?$allocator@PAVIGServer@@@std@@@std@@@std@@@1@@Z 00410920 f i GameServer.obj
 0001:0000f930       ?_Init@?$_Tree@V?$_Tmap_traits@IPAVIGServer@@U?$less@I@std@@V?$allocator@U?$pair@$$CBIPAVIGServer@@@std@@@3@$0A@@std@@@std@@IAEXXZ 00410930 f i GameServer.obj
 0001:0000f960       ??0?$_Tree_val@V?$_Tmap_traits@IPAVIGServer@@U?$less@I@std@@V?$allocator@U?$pair@$$CBIPAVIGServer@@@std@@@3@$0A@@std@@@std@@IAE@ABU?$less@I@1@V?$allocator@U?$pair@$$CBIPAVIGServer@@@std@@@1@@Z 00410960 f i GameServer.obj
 0001:0000f970       ?_Init@?$_Tree@V?$_Tmap_traits@V?$basic_string@DU?$char_traits@D@std@@V?$allocator@D@2@@std@@PAXU?$less@V?$basic_string@DU?$char_traits@D@std@@V?$allocator@D@2@@std@@@2@V?$allocator@U?$pair@$$CBV?$basic_string@DU?$char_traits@D@std@@V?$allocator@D@2@@std@@PAX@std@@@2@$0A@@std@@@std@@IAEXXZ 00410970 f i GameServer.obj
 0001:0000f9a0       ?_Lbound@?$_Tree@V?$_Tmap_traits@V?$basic_string@DU?$char_traits@D@std@@V?$allocator@D@2@@std@@PAXU?$less@V?$basic_string@DU?$char_traits@D@std@@V?$allocator@D@2@@std@@@2@V?$allocator@U?$pair@$$CBV?$basic_string@DU?$char_traits@D@std@@V?$allocator@D@2@@std@@PAX@std@@@2@$0A@@std@@@std@@IBEPAU_Node@?$_Tree_nod@V?$_Tmap_traits@V?$basic_string@DU?$char_traits@D@std@@V?$allocator@D@2@@std@@PAXU?$less@V?$basic_string@DU?$char_traits@D@std@@V?$allocator@D@2@@std@@@2@V?$allocator@U?$pair@$$CBV?$basic_string@DU?$char_traits@D@std@@V?$allocator@D@2@@std@@PAX@std@@@2@$0A@@std@@@2@ABV?$basic_string@DU?$char_traits@D@std@@V?$allocator@D@2@@2@@Z 004109a0 f i GameServer.obj
 0001:0000fa30       ??0?$_Tree_val@V?$_Tmap_traits@V?$basic_string@DU?$char_traits@D@std@@V?$allocator@D@2@@std@@PAXU?$less@V?$basic_string@DU?$char_traits@D@std@@V?$allocator@D@2@@std@@@2@V?$allocator@U?$pair@$$CBV?$basic_string@DU?$char_traits@D@std@@V?$allocator@D@2@@std@@PAX@std@@@2@$0A@@std@@@std@@IAE@ABU?$less@V?$basic_string@DU?$char_traits@D@std@@V?$allocator@D@2@@std@@@1@V?$allocator@U?$pair@$$CBV?$basic_string@DU?$char_traits@D@std@@V?$allocator@D@2@@std@@PAX@std@@@1@@Z 00410a30 f i GameServer.obj
 0001:0000fa40       ?ManagerThreadFunction@CGameServer@@CGKPAX@Z 00410a40 f   GameServer.obj
 0001:0000fba0       ??1?$pair@$$CBV?$basic_string@DU?$char_traits@D@std@@V?$allocator@D@2@@std@@PAX@std@@QAE@XZ 00410ba0 f i GameServer.obj
 0001:0000fbd0       ??1?$pair@$$CBIV?$list@PAVIGServer@@V?$allocator@PAVIGServer@@@std@@@std@@@std@@QAE@XZ 00410bd0 f i GameServer.obj
 0001:0000fbe0       ?QueryServer@CGameServer@@SAPAVIGServer@@I@Z 00410be0 f   GameServer.obj
 0001:0000fd20       ?GetServer@CGameServer@@SAPAVIGServer@@I@Z 00410d20 f   GameServer.obj
 0001:0000fda0       ?SendToAll@CGameServer@@SAXPBDHI@Z 00410da0 f   GameServer.obj
 0001:0000fe80       ??0?$list@PAVIGServer@@V?$allocator@PAVIGServer@@@std@@@std@@QAE@XZ 00410e80 f i GameServer.obj
 0001:0000fea0       ??0?$_Tree@V?$_Tmap_traits@IV?$list@PAVIGServer@@V?$allocator@PAVIGServer@@@std@@@std@@U?$less@I@2@V?$allocator@U?$pair@$$CBIV?$list@PAVIGServer@@V?$allocator@PAVIGServer@@@std@@@std@@@std@@@2@$0A@@std@@@std@@QAE@ABU?$less@I@1@ABV?$allocator@U?$pair@$$CBIV?$list@PAVIGServer@@V?$allocator@PAVIGServer@@@std@@@std@@@std@@@1@@Z 00410ea0 f i GameServer.obj
 0001:0000fed0       ??0?$_Tree@V?$_Tmap_traits@IPAVIGServer@@U?$less@I@std@@V?$allocator@U?$pair@$$CBIPAVIGServer@@@std@@@3@$0A@@std@@@std@@QAE@ABU?$less@I@1@ABV?$allocator@U?$pair@$$CBIPAVIGServer@@@std@@@1@@Z 00410ed0 f i GameServer.obj
 0001:0000ff00       ??0?$_Tree@V?$_Tmap_traits@V?$basic_string@DU?$char_traits@D@std@@V?$allocator@D@2@@std@@PAXU?$less@V?$basic_string@DU?$char_traits@D@std@@V?$allocator@D@2@@std@@@2@V?$allocator@U?$pair@$$CBV?$basic_string@DU?$char_traits@D@std@@V?$allocator@D@2@@std@@PAX@std@@@2@$0A@@std@@@std@@QAE@ABU?$less@V?$basic_string@DU?$char_traits@D@std@@V?$allocator@D@2@@std@@@1@ABV?$allocator@U?$pair@$$CBV?$basic_string@DU?$char_traits@D@std@@V?$allocator@D@2@@std@@PAX@std@@@1@@Z 00410f00 f i GameServer.obj
 0001:0000ff30       ?lower_bound@?$_Tree@V?$_Tmap_traits@V?$basic_string@DU?$char_traits@D@std@@V?$allocator@D@2@@std@@PAXU?$less@V?$basic_string@DU?$char_traits@D@std@@V?$allocator@D@2@@std@@@2@V?$allocator@U?$pair@$$CBV?$basic_string@DU?$char_traits@D@std@@V?$allocator@D@2@@std@@PAX@std@@@2@$0A@@std@@@std@@QAE?AViterator@12@ABV?$basic_string@DU?$char_traits@D@std@@V?$allocator@D@2@@2@@Z 00410f30 f i GameServer.obj
 0001:0000ff60       ??1_Node@?$_Tree_nod@V?$_Tmap_traits@V?$basic_string@DU?$char_traits@D@std@@V?$allocator@D@2@@std@@PAXU?$less@V?$basic_string@DU?$char_traits@D@std@@V?$allocator@D@2@@std@@@2@V?$allocator@U?$pair@$$CBV?$basic_string@DU?$char_traits@D@std@@V?$allocator@D@2@@std@@PAX@std@@@2@$0A@@std@@@std@@QAE@XZ 00410f60 f i GameServer.obj
 0001:0000ff90       ??1_Node@?$_Tree_nod@V?$_Tmap_traits@IV?$list@PAVIGServer@@V?$allocator@PAVIGServer@@@std@@@std@@U?$less@I@2@V?$allocator@U?$pair@$$CBIV?$list@PAVIGServer@@V?$allocator@PAVIGServer@@@std@@@std@@@std@@@2@$0A@@std@@@std@@QAE@XZ 00410f90 f i GameServer.obj
 0001:0000ffa0       ?Begin@CGameServer@@SA_NPAUIServer@@@Z 00410fa0 f   GameServer.obj
 0001:0000ffe0       ?_RequestSvrIP@CGameServer@@IAE_NPBXI@Z 00410fe0 f   GameServer.obj
 0001:00010070       ?find@?$_Tree@V?$_Tmap_traits@V?$basic_string@DU?$char_traits@D@std@@V?$allocator@D@2@@std@@PAXU?$less@V?$basic_string@DU?$char_traits@D@std@@V?$allocator@D@2@@std@@@2@V?$allocator@U?$pair@$$CBV?$basic_string@DU?$char_traits@D@std@@V?$allocator@D@2@@std@@PAX@std@@@2@$0A@@std@@@std@@QAE?AViterator@12@ABV?$basic_string@DU?$char_traits@D@std@@V?$allocator@D@2@@2@@Z 00411070 f i GameServer.obj
 0001:000100f0       ??0?$pair@$$CBV?$basic_string@DU?$char_traits@D@std@@V?$allocator@D@2@@std@@PAX@std@@QAE@ABV?$basic_string@DU?$char_traits@D@std@@V?$allocator@D@2@@1@ABQAX@Z 004110f0 f i GameServer.obj
 0001:00010120       ??0?$pair@$$CBV?$basic_string@DU?$char_traits@D@std@@V?$allocator@D@2@@std@@PAX@std@@QAE@ABU01@@Z 00411120 f i GameServer.obj
 0001:00010150       ??_G_Node@?$_Tree_nod@V?$_Tmap_traits@V?$basic_string@DU?$char_traits@D@std@@V?$allocator@D@2@@std@@PAXU?$less@V?$basic_string@DU?$char_traits@D@std@@V?$allocator@D@2@@std@@@2@V?$allocator@U?$pair@$$CBV?$basic_string@DU?$char_traits@D@std@@V?$allocator@D@2@@std@@PAX@std@@@2@$0A@@std@@@std@@QAEPAXI@Z 00411150 f i GameServer.obj
 0001:00010190       ??_G_Node@?$_Tree_nod@V?$_Tmap_traits@IV?$list@PAVIGServer@@V?$allocator@PAVIGServer@@@std@@@std@@U?$less@I@2@V?$allocator@U?$pair@$$CBIV?$list@PAVIGServer@@V?$allocator@PAVIGServer@@@std@@@std@@@std@@@2@$0A@@std@@@std@@QAEPAXI@Z 00411190 f i GameServer.obj
 0001:000101c0       ?erase@?$_Tree@V?$_Tmap_traits@IPAVIGServer@@U?$less@I@std@@V?$allocator@U?$pair@$$CBIPAVIGServer@@@std@@@3@$0A@@std@@@std@@QAE?AViterator@12@V312@@Z 004111c0 f i GameServer.obj
 0001:00010480       ?erase@?$_Tree@V?$_Tmap_traits@IPAVIGServer@@U?$less@I@std@@V?$allocator@U?$pair@$$CBIPAVIGServer@@@std@@@3@$0A@@std@@@std@@QAE?AViterator@12@V312@0@Z 00411480 f i GameServer.obj
 0001:00010550       ?_Insert@?$_Tree@V?$_Tmap_traits@IPAVIGServer@@U?$less@I@std@@V?$allocator@U?$pair@$$CBIPAVIGServer@@@std@@@3@$0A@@std@@@std@@IAE?AViterator@12@_NPAU_Node@?$_Tree_nod@V?$_Tmap_traits@IPAVIGServer@@U?$less@I@std@@V?$allocator@U?$pair@$$CBIPAVIGServer@@@std@@@3@$0A@@std@@@2@ABU?$pair@$$CBIPAVIGServer@@@2@@Z 00411550 f i GameServer.obj
 0001:00010750       ?_Tidy@?$_Tree@V?$_Tmap_traits@IPAVIGServer@@U?$less@I@std@@V?$allocator@U?$pair@$$CBIPAVIGServer@@@std@@@3@$0A@@std@@@std@@IAEXXZ 00411750 f i GameServer.obj
 0001:00010790       ?_Incsize@?$list@PAVIGServer@@V?$allocator@PAVIGServer@@@std@@@std@@IAEXI@Z 00411790 f i GameServer.obj
 0001:00010830       ??0_Node@?$_Tree_nod@V?$_Tmap_traits@V?$basic_string@DU?$char_traits@D@std@@V?$allocator@D@2@@std@@PAXU?$less@V?$basic_string@DU?$char_traits@D@std@@V?$allocator@D@2@@std@@@2@V?$allocator@U?$pair@$$CBV?$basic_string@DU?$char_traits@D@std@@V?$allocator@D@2@@std@@PAX@std@@@2@$0A@@std@@@std@@QAE@PAU012@00ABU?$pair@$$CBV?$basic_string@DU?$char_traits@D@std@@V?$allocator@D@2@@std@@PAX@2@D@Z 00411830 f i GameServer.obj
 0001:00010890       ??$_Destroy@U_Node@?$_Tree_nod@V?$_Tmap_traits@V?$basic_string@DU?$char_traits@D@std@@V?$allocator@D@2@@std@@PAXU?$less@V?$basic_string@DU?$char_traits@D@std@@V?$allocator@D@2@@std@@@2@V?$allocator@U?$pair@$$CBV?$basic_string@DU?$char_traits@D@std@@V?$allocator@D@2@@std@@PAX@std@@@2@$0A@@std@@@std@@@std@@YAXPAU_Node@?$_Tree_nod@V?$_Tmap_traits@V?$basic_string@DU?$char_traits@D@std@@V?$allocator@D@2@@std@@PAXU?$less@V?$basic_string@DU?$char_traits@D@std@@V?$allocator@D@2@@std@@@2@V?$allocator@U?$pair@$$CBV?$basic_string@DU?$char_traits@D@std@@V?$allocator@D@2@@std@@PAX@std@@@2@$0A@@std@@@0@@Z 00411890 f i GameServer.obj
 0001:000108c0       ??$_Destroy@U_Node@?$_Tree_nod@V?$_Tmap_traits@IV?$list@PAVIGServer@@V?$allocator@PAVIGServer@@@std@@@std@@U?$less@I@2@V?$allocator@U?$pair@$$CBIV?$list@PAVIGServer@@V?$allocator@PAVIGServer@@@std@@@std@@@std@@@2@$0A@@std@@@std@@@std@@YAXPAU_Node@?$_Tree_nod@V?$_Tmap_traits@IV?$list@PAVIGServer@@V?$allocator@PAVIGServer@@@std@@@std@@U?$less@I@2@V?$allocator@U?$pair@$$CBIV?$list@PAVIGServer@@V?$allocator@PAVIGServer@@@std@@@std@@@std@@@2@$0A@@std@@@0@@Z 004118c0 f i GameServer.obj
 0001:000108d0       ?Destroy@CGameServer@@UAE_NXZ 004118d0 f   GameServer.obj
 0001:00010af0       ?_UpdateGameSvrInfo@CGameServer@@IAE_NPBXI@Z 00411af0 f   GameServer.obj
 0001:00010b80       ?HaveAccountInGameServer@CGameServer@@AAE_NPBD@Z 00411b80 f   GameServer.obj
 0001:00010c70       ??1?$_Tree@V?$_Tmap_traits@IPAVIGServer@@U?$less@I@std@@V?$allocator@U?$pair@$$CBIPAVIGServer@@@std@@@3@$0A@@std@@@std@@QAE@XZ 00411c70 f i GameServer.obj
 0001:00010cb0       ?insert@?$_Tree@V?$_Tmap_traits@IPAVIGServer@@U?$less@I@std@@V?$allocator@U?$pair@$$CBIPAVIGServer@@@std@@@3@$0A@@std@@@std@@QAE?AU?$pair@Viterator@?$_Tree@V?$_Tmap_traits@IPAVIGServer@@U?$less@I@std@@V?$allocator@U?$pair@$$CBIPAVIGServer@@@std@@@3@$0A@@std@@@std@@_N@2@ABU?$pair@$$CBIPAVIGServer@@@2@@Z 00411cb0 f i GameServer.obj
 0001:00010d70       ?destroy@?$allocator@U_Node@?$_Tree_nod@V?$_Tmap_traits@V?$basic_string@DU?$char_traits@D@std@@V?$allocator@D@2@@std@@PAXU?$less@V?$basic_string@DU?$char_traits@D@std@@V?$allocator@D@2@@std@@@2@V?$allocator@U?$pair@$$CBV?$basic_string@DU?$char_traits@D@std@@V?$allocator@D@2@@std@@PAX@std@@@2@$0A@@std@@@std@@@std@@QAEXPAU_Node@?$_Tree_nod@V?$_Tmap_traits@V?$basic_string@DU?$char_traits@D@std@@V?$allocator@D@2@@std@@PAXU?$less@V?$basic_string@DU?$char_traits@D@std@@V?$allocator@D@2@@std@@@2@V?$allocator@U?$pair@$$CBV?$basic_string@DU?$char_traits@D@std@@V?$allocator@D@2@@std@@PAX@std@@@2@$0A@@std@@@2@@Z 00411d70 f i GameServer.obj
 0001:00010da0       ?_Insert@?$list@PAVIGServer@@V?$allocator@PAVIGServer@@@std@@@std@@QAEXV?$_Iterator@$00@12@ABQAVIGServer@@@Z 00411da0 f i GameServer.obj
 0001:00010de0       ?destroy@?$allocator@U_Node@?$_Tree_nod@V?$_Tmap_traits@IV?$list@PAVIGServer@@V?$allocator@PAVIGServer@@@std@@@std@@U?$less@I@2@V?$allocator@U?$pair@$$CBIV?$list@PAVIGServer@@V?$allocator@PAVIGServer@@@std@@@std@@@std@@@2@$0A@@std@@@std@@@std@@QAEXPAU_Node@?$_Tree_nod@V?$_Tmap_traits@IV?$list@PAVIGServer@@V?$allocator@PAVIGServer@@@std@@@std@@U?$less@I@2@V?$allocator@U?$pair@$$CBIV?$list@PAVIGServer@@V?$allocator@PAVIGServer@@@std@@@std@@@std@@@2@$0A@@std@@@2@@Z 00411de0 f i GameServer.obj
 0001:00010df0       ?_Buynode@?$_Tree@V?$_Tmap_traits@V?$basic_string@DU?$char_traits@D@std@@V?$allocator@D@2@@std@@PAXU?$less@V?$basic_string@DU?$char_traits@D@std@@V?$allocator@D@2@@std@@@2@V?$allocator@U?$pair@$$CBV?$basic_string@DU?$char_traits@D@std@@V?$allocator@D@2@@std@@PAX@std@@@2@$0A@@std@@@std@@IAEPAU_Node@?$_Tree_nod@V?$_Tmap_traits@V?$basic_string@DU?$char_traits@D@std@@V?$allocator@D@2@@std@@PAXU?$less@V?$basic_string@DU?$char_traits@D@std@@V?$allocator@D@2@@std@@@2@V?$allocator@U?$pair@$$CBV?$basic_string@DU?$char_traits@D@std@@V?$allocator@D@2@@std@@PAX@std@@@2@$0A@@std@@@2@PAU342@00ABU?$pair@$$CBV?$basic_string@DU?$char_traits@D@std@@V?$allocator@D@2@@std@@PAX@2@D@Z 00411df0 f i GameServer.obj
 0001:00010e90       ?_Erase@?$_Tree@V?$_Tmap_traits@V?$basic_string@DU?$char_traits@D@std@@V?$allocator@D@2@@std@@PAXU?$less@V?$basic_string@DU?$char_traits@D@std@@V?$allocator@D@2@@std@@@2@V?$allocator@U?$pair@$$CBV?$basic_string@DU?$char_traits@D@std@@V?$allocator@D@2@@std@@PAX@std@@@2@$0A@@std@@@std@@IAEXPAU_Node@?$_Tree_nod@V?$_Tmap_traits@V?$basic_string@DU?$char_traits@D@std@@V?$allocator@D@2@@std@@PAXU?$less@V?$basic_string@DU?$char_traits@D@std@@V?$allocator@D@2@@std@@@2@V?$allocator@U?$pair@$$CBV?$basic_string@DU?$char_traits@D@std@@V?$allocator@D@2@@std@@PAX@std@@@2@$0A@@std@@@2@@Z 00411e90 f i GameServer.obj
 0001:00010ef0       ??$_Insert@V?$_Const_iterator@$00@?$list@PAVIGServer@@V?$allocator@PAVIGServer@@@std@@@std@@@?$list@PAVIGServer@@V?$allocator@PAVIGServer@@@std@@@std@@QAEXV?$_Iterator@$00@01@V?$_Const_iterator@$00@01@1Uforward_iterator_tag@1@@Z 00411ef0 f i GameServer.obj
 0001:00011010       ??1?$map@IPAVIGServer@@U?$less@I@std@@V?$allocator@U?$pair@$$CBIPAVIGServer@@@std@@@3@@std@@QAE@XZ 00412010 f i GameServer.obj
 0001:00011050       ??0?$map@IPAVIGServer@@U?$less@I@std@@V?$allocator@U?$pair@$$CBIPAVIGServer@@@std@@@3@@std@@QAE@XZ 00412050 f i GameServer.obj
 0001:00011080       ?erase@?$_Tree@V?$_Tmap_traits@V?$basic_string@DU?$char_traits@D@std@@V?$allocator@D@2@@std@@PAXU?$less@V?$basic_string@DU?$char_traits@D@std@@V?$allocator@D@2@@std@@@2@V?$allocator@U?$pair@$$CBV?$basic_string@DU?$char_traits@D@std@@V?$allocator@D@2@@std@@PAX@std@@@2@$0A@@std@@@std@@QAE?AViterator@12@V312@@Z 00412080 f i GameServer.obj
 0001:00011370       ?push_back@?$list@PAVIGServer@@V?$allocator@PAVIGServer@@@std@@@std@@QAEXABQAVIGServer@@@Z 00412370 f i GameServer.obj
 0001:000113b0       ?erase@?$_Tree@V?$_Tmap_traits@IV?$list@PAVIGServer@@V?$allocator@PAVIGServer@@@std@@@std@@U?$less@I@2@V?$allocator@U?$pair@$$CBIV?$list@PAVIGServer@@V?$allocator@PAVIGServer@@@std@@@std@@@std@@@2@$0A@@std@@@std@@QAE?AViterator@12@V312@@Z 004123b0 f i GameServer.obj
 0001:00011680       ?_Insert@?$_Tree@V?$_Tmap_traits@V?$basic_string@DU?$char_traits@D@std@@V?$allocator@D@2@@std@@PAXU?$less@V?$basic_string@DU?$char_traits@D@std@@V?$allocator@D@2@@std@@@2@V?$allocator@U?$pair@$$CBV?$basic_string@DU?$char_traits@D@std@@V?$allocator@D@2@@std@@PAX@std@@@2@$0A@@std@@@std@@IAE?AViterator@12@_NPAU_Node@?$_Tree_nod@V?$_Tmap_traits@V?$basic_string@DU?$char_traits@D@std@@V?$allocator@D@2@@std@@PAXU?$less@V?$basic_string@DU?$char_traits@D@std@@V?$allocator@D@2@@std@@@2@V?$allocator@U?$pair@$$CBV?$basic_string@DU?$char_traits@D@std@@V?$allocator@D@2@@std@@PAX@std@@@2@$0A@@std@@@2@ABU?$pair@$$CBV?$basic_string@DU?$char_traits@D@std@@V?$allocator@D@2@@std@@PAX@2@@Z 00412680 f i GameServer.obj
 0001:00011880       ?_Erase@?$_Tree@V?$_Tmap_traits@IV?$list@PAVIGServer@@V?$allocator@PAVIGServer@@@std@@@std@@U?$less@I@2@V?$allocator@U?$pair@$$CBIV?$list@PAVIGServer@@V?$allocator@PAVIGServer@@@std@@@std@@@std@@@2@$0A@@std@@@std@@IAEXPAU_Node@?$_Tree_nod@V?$_Tmap_traits@IV?$list@PAVIGServer@@V?$allocator@PAVIGServer@@@std@@@std@@U?$less@I@2@V?$allocator@U?$pair@$$CBIV?$list@PAVIGServer@@V?$allocator@PAVIGServer@@@std@@@std@@@std@@@2@$0A@@std@@@2@@Z 00412880 f i GameServer.obj
 0001:00011900       ?clear@?$_Tree@V?$_Tmap_traits@V?$basic_string@DU?$char_traits@D@std@@V?$allocator@D@2@@std@@PAXU?$less@V?$basic_string@DU?$char_traits@D@std@@V?$allocator@D@2@@std@@@2@V?$allocator@U?$pair@$$CBV?$basic_string@DU?$char_traits@D@std@@V?$allocator@D@2@@std@@PAX@std@@@2@$0A@@std@@@std@@QAEXXZ 00412900 f i GameServer.obj
 0001:00011930       ??$insert@V?$_Const_iterator@$00@?$list@PAVIGServer@@V?$allocator@PAVIGServer@@@std@@@std@@@?$list@PAVIGServer@@V?$allocator@PAVIGServer@@@std@@@std@@QAEXV?$_Iterator@$00@01@V?$_Const_iterator@$00@01@1@Z 00412930 f i GameServer.obj
 0001:00011960       ?DetachAccountFromGameServer@CGameServer@@AAE_NPBD@Z 00412960 f   GameServer.obj
 0001:00011a80       ?insert@?$_Tree@V?$_Tmap_traits@V?$basic_string@DU?$char_traits@D@std@@V?$allocator@D@2@@std@@PAXU?$less@V?$basic_string@DU?$char_traits@D@std@@V?$allocator@D@2@@std@@@2@V?$allocator@U?$pair@$$CBV?$basic_string@DU?$char_traits@D@std@@V?$allocator@D@2@@std@@PAX@std@@@2@$0A@@std@@@std@@QAE?AU?$pair@Viterator@?$_Tree@V?$_Tmap_traits@V?$basic_string@DU?$char_traits@D@std@@V?$allocator@D@2@@std@@PAXU?$less@V?$basic_string@DU?$char_traits@D@std@@V?$allocator@D@2@@std@@@2@V?$allocator@U?$pair@$$CBV?$basic_string@DU?$char_traits@D@std@@V?$allocator@D@2@@std@@PAX@std@@@2@$0A@@std@@@std@@_N@2@ABU?$pair@$$CBV?$basic_string@DU?$char_traits@D@std@@V?$allocator@D@2@@std@@PAX@2@@Z 00412a80 f i GameServer.obj
 0001:00011bb0       ?clear@?$_Tree@V?$_Tmap_traits@IV?$list@PAVIGServer@@V?$allocator@PAVIGServer@@@std@@@std@@U?$less@I@2@V?$allocator@U?$pair@$$CBIV?$list@PAVIGServer@@V?$allocator@PAVIGServer@@@std@@@std@@@std@@@2@$0A@@std@@@std@@QAEXXZ 00412bb0 f i GameServer.obj
 0001:00011be0       ??0?$list@PAVIGServer@@V?$allocator@PAVIGServer@@@std@@@std@@QAE@ABV01@@Z 00412be0 f i GameServer.obj
 0001:00011c70       ?erase@?$_Tree@V?$_Tmap_traits@V?$basic_string@DU?$char_traits@D@std@@V?$allocator@D@2@@std@@PAXU?$less@V?$basic_string@DU?$char_traits@D@std@@V?$allocator@D@2@@std@@@2@V?$allocator@U?$pair@$$CBV?$basic_string@DU?$char_traits@D@std@@V?$allocator@D@2@@std@@PAX@std@@@2@$0A@@std@@@std@@QAE?AViterator@12@V312@0@Z 00412c70 f i GameServer.obj
 0001:00011d40       ??0?$pair@$$CBIV?$list@PAVIGServer@@V?$allocator@PAVIGServer@@@std@@@std@@@std@@QAE@ABU01@@Z 00412d40 f i GameServer.obj
 0001:00011d60       ?PopAccount@CGameServer@@IAE_NPBD_NG@Z 00412d60 f   GameServer.obj
 0001:00011da0       ?AttatchAccountToGameServer@CGameServer@@AAE_NPBD@Z 00412da0 f   GameServer.obj
 0001:00011ec0       ?erase@?$_Tree@V?$_Tmap_traits@IV?$list@PAVIGServer@@V?$allocator@PAVIGServer@@@std@@@std@@U?$less@I@2@V?$allocator@U?$pair@$$CBIV?$list@PAVIGServer@@V?$allocator@PAVIGServer@@@std@@@std@@@std@@@2@$0A@@std@@@std@@QAE?AViterator@12@V312@0@Z 00412ec0 f i GameServer.obj
 0001:00011f90       ??0?$pair@$$CBIV?$list@PAVIGServer@@V?$allocator@PAVIGServer@@@std@@@std@@@std@@QAE@ABIABV?$list@PAVIGServer@@V?$allocator@PAVIGServer@@@std@@@1@@Z 00412f90 f i GameServer.obj
 0001:00011fb0       ?_Tidy@?$_Tree@V?$_Tmap_traits@IV?$list@PAVIGServer@@V?$allocator@PAVIGServer@@@std@@@std@@U?$less@I@2@V?$allocator@U?$pair@$$CBIV?$list@PAVIGServer@@V?$allocator@PAVIGServer@@@std@@@std@@@std@@@2@$0A@@std@@@std@@IAEXXZ 00412fb0 f i GameServer.obj
 0001:00011ff0       ?_Tidy@?$_Tree@V?$_Tmap_traits@V?$basic_string@DU?$char_traits@D@std@@V?$allocator@D@2@@std@@PAXU?$less@V?$basic_string@DU?$char_traits@D@std@@V?$allocator@D@2@@std@@@2@V?$allocator@U?$pair@$$CBV?$basic_string@DU?$char_traits@D@std@@V?$allocator@D@2@@std@@PAX@std@@@2@$0A@@std@@@std@@IAEXXZ 00412ff0 f i GameServer.obj
 0001:00012030       ??0_Node@?$_Tree_nod@V?$_Tmap_traits@IV?$list@PAVIGServer@@V?$allocator@PAVIGServer@@@std@@@std@@U?$less@I@2@V?$allocator@U?$pair@$$CBIV?$list@PAVIGServer@@V?$allocator@PAVIGServer@@@std@@@std@@@std@@@2@$0A@@std@@@std@@QAE@PAU012@00ABU?$pair@$$CBIV?$list@PAVIGServer@@V?$allocator@PAVIGServer@@@std@@@std@@@2@D@Z 00413030 f i GameServer.obj
 0001:00012070       ?End@CGameServer@@SAXXZ    00413070 f   GameServer.obj
 0001:00012210       ?_RegisterAccount@CGameServer@@IAE_NPBXI@Z 00413210 f   GameServer.obj
 0001:00012230       ?_NotifyLeaveGame@CGameServer@@IAE_NPBXI@Z 00413230 f   GameServer.obj
 0001:00012250       ?Attach@CGameServer@@UAE_NPBD@Z 00413250 f   GameServer.obj
 0001:00012260       ??1?$_Tree@V?$_Tmap_traits@IV?$list@PAVIGServer@@V?$allocator@PAVIGServer@@@std@@@std@@U?$less@I@2@V?$allocator@U?$pair@$$CBIV?$list@PAVIGServer@@V?$allocator@PAVIGServer@@@std@@@std@@@std@@@2@$0A@@std@@@std@@QAE@XZ 00413260 f i GameServer.obj
 0001:000122a0       ??1?$_Tree@V?$_Tmap_traits@V?$basic_string@DU?$char_traits@D@std@@V?$allocator@D@2@@std@@PAXU?$less@V?$basic_string@DU?$char_traits@D@std@@V?$allocator@D@2@@std@@@2@V?$allocator@U?$pair@$$CBV?$basic_string@DU?$char_traits@D@std@@V?$allocator@D@2@@std@@PAX@std@@@2@$0A@@std@@@std@@QAE@XZ 004132a0 f i GameServer.obj
 0001:000122e0       ?_Buynode@?$_Tree@V?$_Tmap_traits@IV?$list@PAVIGServer@@V?$allocator@PAVIGServer@@@std@@@std@@U?$less@I@2@V?$allocator@U?$pair@$$CBIV?$list@PAVIGServer@@V?$allocator@PAVIGServer@@@std@@@std@@@std@@@2@$0A@@std@@@std@@IAEPAU_Node@?$_Tree_nod@V?$_Tmap_traits@IV?$list@PAVIGServer@@V?$allocator@PAVIGServer@@@std@@@std@@U?$less@I@2@V?$allocator@U?$pair@$$CBIV?$list@PAVIGServer@@V?$allocator@PAVIGServer@@@std@@@std@@@std@@@2@$0A@@std@@@2@PAU342@00ABU?$pair@$$CBIV?$list@PAVIGServer@@V?$allocator@PAVIGServer@@@std@@@std@@@2@D@Z 004132e0 f i GameServer.obj
 0001:00012390       ??1?$map@IV?$list@PAVIGServer@@V?$allocator@PAVIGServer@@@std@@@std@@U?$less@I@2@V?$allocator@U?$pair@$$CBIV?$list@PAVIGServer@@V?$allocator@PAVIGServer@@@std@@@std@@@std@@@2@@std@@QAE@XZ 00413390 f i GameServer.obj
 0001:000123d0       ??1?$map@V?$basic_string@DU?$char_traits@D@std@@V?$allocator@D@2@@std@@PAXU?$less@V?$basic_string@DU?$char_traits@D@std@@V?$allocator@D@2@@std@@@2@V?$allocator@U?$pair@$$CBV?$basic_string@DU?$char_traits@D@std@@V?$allocator@D@2@@std@@PAX@std@@@2@@std@@QAE@XZ 004133d0 f i GameServer.obj
 0001:00012410       ??1CGameServer@@UAE@XZ     00413410 f   GameServer.obj
 0001:00012530       ?GetID@CGameServer@@UAEIXZ 00413530 f i GameServer.obj
 0001:00012540       ?GetCapability@CGameServer@@UAEIXZ 00413540 f i GameServer.obj
 0001:00012550       ?GetIP@CGameServer@@UAEIE@Z 00413550 f i GameServer.obj
 0001:00012570       ?GetIndentify@CGameServer@@UAEIXZ 00413570 f i GameServer.obj
 0001:00012580       ??0?$map@IV?$list@PAVIGServer@@V?$allocator@PAVIGServer@@@std@@@std@@U?$less@I@2@V?$allocator@U?$pair@$$CBIV?$list@PAVIGServer@@V?$allocator@PAVIGServer@@@std@@@std@@@std@@@2@@std@@QAE@XZ 00413580 f i GameServer.obj
 0001:000125b0       ??0?$map@V?$basic_string@DU?$char_traits@D@std@@V?$allocator@D@2@@std@@PAXU?$less@V?$basic_string@DU?$char_traits@D@std@@V?$allocator@D@2@@std@@@2@V?$allocator@U?$pair@$$CBV?$basic_string@DU?$char_traits@D@std@@V?$allocator@D@2@@std@@PAX@std@@@2@@std@@QAE@XZ 004135b0 f i GameServer.obj
 0001:000125e0       ?_Insert@?$_Tree@V?$_Tmap_traits@IV?$list@PAVIGServer@@V?$allocator@PAVIGServer@@@std@@@std@@U?$less@I@2@V?$allocator@U?$pair@$$CBIV?$list@PAVIGServer@@V?$allocator@PAVIGServer@@@std@@@std@@@std@@@2@$0A@@std@@@std@@IAE?AViterator@12@_NPAU_Node@?$_Tree_nod@V?$_Tmap_traits@IV?$list@PAVIGServer@@V?$allocator@PAVIGServer@@@std@@@std@@U?$less@I@2@V?$allocator@U?$pair@$$CBIV?$list@PAVIGServer@@V?$allocator@PAVIGServer@@@std@@@std@@@std@@@2@$0A@@std@@@2@ABU?$pair@$$CBIV?$list@PAVIGServer@@V?$allocator@PAVIGServer@@@std@@@std@@@2@@Z 004135e0 f i GameServer.obj
 0001:000127e0       ??0CGameServer@@QAE@PAUIServer@@PAUIClient@@I@Z 004137e0 f   GameServer.obj
 0001:00012900       ??_GCGameServer@@UAEPAXI@Z 00413900 f i GameServer.obj
 0001:00012900       ??_ECGameServer@@UAEPAXI@Z 00413900 f i GameServer.obj
 0001:00012920       ?GameSvrEventNotify@CGameServer@@SGXPAXABK1@Z 00413920 f   GameServer.obj
 0001:00012ad0       ?insert@?$_Tree@V?$_Tmap_traits@IV?$list@PAVIGServer@@V?$allocator@PAVIGServer@@@std@@@std@@U?$less@I@2@V?$allocator@U?$pair@$$CBIV?$list@PAVIGServer@@V?$allocator@PAVIGServer@@@std@@@std@@@std@@@2@$0A@@std@@@std@@QAE?AU?$pair@Viterator@?$_Tree@V?$_Tmap_traits@IV?$list@PAVIGServer@@V?$allocator@PAVIGServer@@@std@@@std@@U?$less@I@2@V?$allocator@U?$pair@$$CBIV?$list@PAVIGServer@@V?$allocator@PAVIGServer@@@std@@@std@@@std@@@2@$0A@@std@@@std@@_N@2@ABU?$pair@$$CBIV?$list@PAVIGServer@@V?$allocator@PAVIGServer@@@std@@@std@@@2@@Z 00413ad0 f i GameServer.obj
 0001:00012b90       ?RegisterServer@CGameServer@@CA_NIPAVIGServer@@@Z 00413b90 f   GameServer.obj
 0001:00012d10       ?_UpdateMapID@CGameServer@@IAE_NPBXI@Z 00413d10 f   GameServer.obj
 0001:00012d40       ?Create@CGameServer@@UAE_NXZ 00413d40 f   GameServer.obj
 0001:00012db0       ?GetProcAddress@CLibrary@Win32@OnlineGameLib@@QAEP6GHXZPBD@Z 00413db0 f i Intercessor.obj
 0001:00012dd0       ?_DBRoleEventNotify@CIntercessor@@IAEXABK@Z 00413dd0 f   Intercessor.obj
 0001:00012e10       ?GetGameServerCount@CIntercessor@@QAEIXZ 00413e10 f   Intercessor.obj
 0001:00012e30       ?GetGameServerInfo@CIntercessor@@QAEPBDABK@Z 00413e30 f   Intercessor.obj
 0001:00012e50       ??0?$allocator@U?$pair@$$CBIPAVIPlayer@@@std@@@std@@QAE@XZ 00413e50 f i Intercessor.obj
 0001:00012e60       ??8const_iterator@?$_Tree@V?$_Tmap_traits@IPAVIPlayer@@U?$less@I@std@@V?$allocator@U?$pair@$$CBIPAVIPlayer@@@std@@@3@$0A@@std@@@std@@QBE_NABV012@@Z 00413e60 f i Intercessor.obj
 0001:00012e90       ?_Mynode@const_iterator@?$_Tree@V?$_Tmap_traits@IPAVIPlayer@@U?$less@I@std@@V?$allocator@U?$pair@$$CBIPAVIPlayer@@@std@@@3@$0A@@std@@@std@@QBEPAU_Node@?$_Tree_nod@V?$_Tmap_traits@IPAVIPlayer@@U?$less@I@std@@V?$allocator@U?$pair@$$CBIPAVIPlayer@@@std@@@3@$0A@@std@@@3@XZ 00413e90 f i Intercessor.obj
 0001:00012ea0       ??0?$pair@$$CBIPAVIPlayer@@@std@@QAE@ABIABQAVIPlayer@@@Z 00413ea0 f i Intercessor.obj
 0001:00012ec0       ??0?$_Bidit@U?$pair@$$CBIPAVIPlayer@@@std@@HPBU12@ABU12@@std@@QAE@XZ 00413ec0 f i Intercessor.obj
 0001:00012ed0       ?_Color@?$_Tree@V?$_Tmap_traits@IPAVIPlayer@@U?$less@I@std@@V?$allocator@U?$pair@$$CBIPAVIPlayer@@@std@@@3@$0A@@std@@@std@@KAAADPAU_Node@?$_Tree_nod@V?$_Tmap_traits@IPAVIPlayer@@U?$less@I@std@@V?$allocator@U?$pair@$$CBIPAVIPlayer@@@std@@@3@$0A@@std@@@2@@Z 00413ed0 f i Intercessor.obj
 0001:00012ee0       ?_Isnil@?$_Tree@V?$_Tmap_traits@IPAVIPlayer@@U?$less@I@std@@V?$allocator@U?$pair@$$CBIPAVIPlayer@@@std@@@3@$0A@@std@@@std@@KAAADPAU_Node@?$_Tree_nod@V?$_Tmap_traits@IPAVIPlayer@@U?$less@I@std@@V?$allocator@U?$pair@$$CBIPAVIPlayer@@@std@@@3@$0A@@std@@@2@@Z 00413ee0 f i Intercessor.obj
 0001:00012ef0       ?_Left@?$_Tree@V?$_Tmap_traits@IPAVIPlayer@@U?$less@I@std@@V?$allocator@U?$pair@$$CBIPAVIPlayer@@@std@@@3@$0A@@std@@@std@@KAAAPAU_Node@?$_Tree_nod@V?$_Tmap_traits@IPAVIPlayer@@U?$less@I@std@@V?$allocator@U?$pair@$$CBIPAVIPlayer@@@std@@@3@$0A@@std@@@2@PAU342@@Z 00413ef0 f i Intercessor.obj
 0001:00012f00       ?_Parent@?$_Tree@V?$_Tmap_traits@IPAVIPlayer@@U?$less@I@std@@V?$allocator@U?$pair@$$CBIPAVIPlayer@@@std@@@3@$0A@@std@@@std@@KAAAPAU_Node@?$_Tree_nod@V?$_Tmap_traits@IPAVIPlayer@@U?$less@I@std@@V?$allocator@U?$pair@$$CBIPAVIPlayer@@@std@@@3@$0A@@std@@@2@PAU342@@Z 00413f00 f i Intercessor.obj
 0001:00012f10       ?_Right@?$_Tree@V?$_Tmap_traits@IPAVIPlayer@@U?$less@I@std@@V?$allocator@U?$pair@$$CBIPAVIPlayer@@@std@@@3@$0A@@std@@@std@@KAAAPAU_Node@?$_Tree_nod@V?$_Tmap_traits@IPAVIPlayer@@U?$less@I@std@@V?$allocator@U?$pair@$$CBIPAVIPlayer@@@std@@@3@$0A@@std@@@2@PAU342@@Z 00413f10 f i Intercessor.obj
 0001:00012f20       ?_Myval@?$_Tree@V?$_Tmap_traits@IPAVIPlayer@@U?$less@I@std@@V?$allocator@U?$pair@$$CBIPAVIPlayer@@@std@@@3@$0A@@std@@@std@@KAAAU?$pair@$$CBIPAVIPlayer@@@2@PAU_Node@?$_Tree_nod@V?$_Tmap_traits@IPAVIPlayer@@U?$less@I@std@@V?$allocator@U?$pair@$$CBIPAVIPlayer@@@std@@@3@$0A@@std@@@2@@Z 00413f20 f i Intercessor.obj
 0001:00012f30       ?size@?$_Tree@V?$_Tmap_traits@IPAVIPlayer@@U?$less@I@std@@V?$allocator@U?$pair@$$CBIPAVIPlayer@@@std@@@3@$0A@@std@@@std@@QBEIXZ 00413f30 f i Intercessor.obj
 0001:00012f40       ?_Max@?$_Tree@V?$_Tmap_traits@IPAVIPlayer@@U?$less@I@std@@V?$allocator@U?$pair@$$CBIPAVIPlayer@@@std@@@3@$0A@@std@@@std@@KAPAU_Node@?$_Tree_nod@V?$_Tmap_traits@IPAVIPlayer@@U?$less@I@std@@V?$allocator@U?$pair@$$CBIPAVIPlayer@@@std@@@3@$0A@@std@@@2@PAU342@@Z 00413f40 f i Intercessor.obj
 0001:00012f60       ?_Min@?$_Tree@V?$_Tmap_traits@IPAVIPlayer@@U?$less@I@std@@V?$allocator@U?$pair@$$CBIPAVIPlayer@@@std@@@3@$0A@@std@@@std@@KAPAU_Node@?$_Tree_nod@V?$_Tmap_traits@IPAVIPlayer@@U?$less@I@std@@V?$allocator@U?$pair@$$CBIPAVIPlayer@@@std@@@3@$0A@@std@@@2@PAU342@@Z 00413f60 f i Intercessor.obj
 0001:00012f80       ?_Rmost@?$_Tree@V?$_Tmap_traits@IPAVIPlayer@@U?$less@I@std@@V?$allocator@U?$pair@$$CBIPAVIPlayer@@@std@@@3@$0A@@std@@@std@@IBEAAPAU_Node@?$_Tree_nod@V?$_Tmap_traits@IPAVIPlayer@@U?$less@I@std@@V?$allocator@U?$pair@$$CBIPAVIPlayer@@@std@@@3@$0A@@std@@@2@XZ 00413f80 f i Intercessor.obj
 0001:00012f90       ?_Root@?$_Tree@V?$_Tmap_traits@IPAVIPlayer@@U?$less@I@std@@V?$allocator@U?$pair@$$CBIPAVIPlayer@@@std@@@3@$0A@@std@@@std@@IBEAAPAU_Node@?$_Tree_nod@V?$_Tmap_traits@IPAVIPlayer@@U?$less@I@std@@V?$allocator@U?$pair@$$CBIPAVIPlayer@@@std@@@3@$0A@@std@@@2@XZ 00413f90 f i Intercessor.obj
 0001:00012fa0       ?_Rrotate@?$_Tree@V?$_Tmap_traits@IPAVIPlayer@@U?$less@I@std@@V?$allocator@U?$pair@$$CBIPAVIPlayer@@@std@@@3@$0A@@std@@@std@@IAEXPAU_Node@?$_Tree_nod@V?$_Tmap_traits@IPAVIPlayer@@U?$less@I@std@@V?$allocator@U?$pair@$$CBIPAVIPlayer@@@std@@@3@$0A@@std@@@2@@Z 00413fa0 f i Intercessor.obj
 0001:00013000       ?_Kfn@?$_Tmap_traits@IPAVIPlayer@@U?$less@I@std@@V?$allocator@U?$pair@$$CBIPAVIPlayer@@@std@@@3@$0A@@std@@SAABIABU?$pair@$$CBIPAVIPlayer@@@2@@Z 00414000 f i Intercessor.obj
 0001:00013010       ??0?$allocator@U?$pair@$$CBIPAVIPlayer@@@std@@@std@@QAE@ABV01@@Z 00414010 f i Intercessor.obj
 0001:00013020       ?deallocate@?$allocator@U_Node@?$_Tree_nod@V?$_Tmap_traits@IPAVIPlayer@@U?$less@I@std@@V?$allocator@U?$pair@$$CBIPAVIPlayer@@@std@@@3@$0A@@std@@@std@@@std@@QAEXPAU_Node@?$_Tree_nod@V?$_Tmap_traits@IPAVIPlayer@@U?$less@I@std@@V?$allocator@U?$pair@$$CBIPAVIPlayer@@@std@@@3@$0A@@std@@@2@I@Z 00414020 f i Intercessor.obj
 0001:00013030       ??0const_iterator@?$_Tree@V?$_Tmap_traits@IPAVIPlayer@@U?$less@I@std@@V?$allocator@U?$pair@$$CBIPAVIPlayer@@@std@@@3@$0A@@std@@@std@@QAE@PAU_Node@?$_Tree_nod@V?$_Tmap_traits@IPAVIPlayer@@U?$less@I@std@@V?$allocator@U?$pair@$$CBIPAVIPlayer@@@std@@@3@$0A@@std@@@2@PBV12@@Z 00414030 f i Intercessor.obj
 0001:00013060       ?_Inc@const_iterator@?$_Tree@V?$_Tmap_traits@IPAVIPlayer@@U?$less@I@std@@V?$allocator@U?$pair@$$CBIPAVIPlayer@@@std@@@3@$0A@@std@@@std@@QAEXXZ 00414060 f i Intercessor.obj
 0001:000130d0       ??0?$pair@Viterator@?$_Tree@V?$_Tmap_traits@IPAVIPlayer@@U?$less@I@std@@V?$allocator@U?$pair@$$CBIPAVIPlayer@@@std@@@3@$0A@@std@@@std@@_N@std@@QAE@ABViterator@?$_Tree@V?$_Tmap_traits@IPAVIPlayer@@U?$less@I@std@@V?$allocator@U?$pair@$$CBIPAVIPlayer@@@std@@@3@$0A@@std@@@1@AB_N@Z 004140d0 f i Intercessor.obj
 0001:000130f0       ?max_size@?$allocator@U?$pair@$$CBIPAVIPlayer@@@std@@@std@@QBEIXZ 004140f0 f i Intercessor.obj
 0001:00013100       ?_Dec@const_iterator@?$_Tree@V?$_Tmap_traits@IPAVIPlayer@@U?$less@I@std@@V?$allocator@U?$pair@$$CBIPAVIPlayer@@@std@@@3@$0A@@std@@@std@@QAEXXZ 00414100 f i Intercessor.obj
 0001:00013190       ??0_Node@?$_Tree_nod@V?$_Tmap_traits@IPAVIPlayer@@U?$less@I@std@@V?$allocator@U?$pair@$$CBIPAVIPlayer@@@std@@@3@$0A@@std@@@std@@QAE@PAU012@00ABU?$pair@$$CBIPAVIPlayer@@@2@D@Z 00414190 f i Intercessor.obj
 0001:000131d0       ??0?$_Tmap_traits@IPAVIPlayer@@U?$less@I@std@@V?$allocator@U?$pair@$$CBIPAVIPlayer@@@std@@@3@$0A@@std@@QAE@U?$less@I@1@@Z 004141d0 f i Intercessor.obj
 0001:000131e0       ??$_Destroy@U_Node@?$_Tree_nod@V?$_Tmap_traits@IPAVIPlayer@@U?$less@I@std@@V?$allocator@U?$pair@$$CBIPAVIPlayer@@@std@@@3@$0A@@std@@@std@@@std@@YAXPAU_Node@?$_Tree_nod@V?$_Tmap_traits@IPAVIPlayer@@U?$less@I@std@@V?$allocator@U?$pair@$$CBIPAVIPlayer@@@std@@@3@$0A@@std@@@0@@Z 004141e0 f i Intercessor.obj
 0001:000131f0       ??$_Destroy@PAU_Node@?$_Tree_nod@V?$_Tmap_traits@IPAVIPlayer@@U?$less@I@std@@V?$allocator@U?$pair@$$CBIPAVIPlayer@@@std@@@3@$0A@@std@@@std@@@std@@YAXPAPAU_Node@?$_Tree_nod@V?$_Tmap_traits@IPAVIPlayer@@U?$less@I@std@@V?$allocator@U?$pair@$$CBIPAVIPlayer@@@std@@@3@$0A@@std@@@0@@Z 004141f0 f i Intercessor.obj
 0001:00013200       ??$?0U?$pair@$$CBIPAVIPlayer@@@std@@@?$allocator@PAU_Node@?$_Tree_nod@V?$_Tmap_traits@IPAVIPlayer@@U?$less@I@std@@V?$allocator@U?$pair@$$CBIPAVIPlayer@@@std@@@3@$0A@@std@@@std@@@std@@QAE@ABV?$allocator@U?$pair@$$CBIPAVIPlayer@@@std@@@1@@Z 00414200 f i Intercessor.obj
 0001:00013210       ??$?0U?$pair@$$CBIPAVIPlayer@@@std@@@?$allocator@U_Node@?$_Tree_nod@V?$_Tmap_traits@IPAVIPlayer@@U?$less@I@std@@V?$allocator@U?$pair@$$CBIPAVIPlayer@@@std@@@3@$0A@@std@@@std@@@std@@QAE@ABV?$allocator@U?$pair@$$CBIPAVIPlayer@@@std@@@1@@Z 00414210 f i Intercessor.obj
 0001:00013220       ??$_Allocate@U_Node@?$_Tree_nod@V?$_Tmap_traits@IPAVIPlayer@@U?$less@I@std@@V?$allocator@U?$pair@$$CBIPAVIPlayer@@@std@@@3@$0A@@std@@@std@@@std@@YAPAU_Node@?$_Tree_nod@V?$_Tmap_traits@IPAVIPlayer@@U?$less@I@std@@V?$allocator@U?$pair@$$CBIPAVIPlayer@@@std@@@3@$0A@@std@@@0@IPAU120@@Z 00414220 f i Intercessor.obj
 0001:00013280       ??$_Construct@PAU_Node@?$_Tree_nod@V?$_Tmap_traits@IPAVIPlayer@@U?$less@I@std@@V?$allocator@U?$pair@$$CBIPAVIPlayer@@@std@@@3@$0A@@std@@@std@@PAU123@@std@@YAXPAPAU_Node@?$_Tree_nod@V?$_Tmap_traits@IPAVIPlayer@@U?$less@I@std@@V?$allocator@U?$pair@$$CBIPAVIPlayer@@@std@@@3@$0A@@std@@@0@ABQAU120@@Z 00414280 f i Intercessor.obj
 0001:000132a0       ?DBRoleEventNotify@CIntercessor@@SGXPAXABK@Z 004142a0 f   Intercessor.obj
 0001:000132c0       ??9const_iterator@?$_Tree@V?$_Tmap_traits@IPAVIPlayer@@U?$less@I@std@@V?$allocator@U?$pair@$$CBIPAVIPlayer@@@std@@@3@$0A@@std@@@std@@QBE_NABV012@@Z 004142c0 f i Intercessor.obj
 0001:000132f0       ?_Key@?$_Tree@V?$_Tmap_traits@IPAVIPlayer@@U?$less@I@std@@V?$allocator@U?$pair@$$CBIPAVIPlayer@@@std@@@3@$0A@@std@@@std@@KAABIPAU_Node@?$_Tree_nod@V?$_Tmap_traits@IPAVIPlayer@@U?$less@I@std@@V?$allocator@U?$pair@$$CBIPAVIPlayer@@@std@@@3@$0A@@std@@@2@@Z 004142f0 f i Intercessor.obj
 0001:00013300       ?_Lmost@?$_Tree@V?$_Tmap_traits@IPAVIPlayer@@U?$less@I@std@@V?$allocator@U?$pair@$$CBIPAVIPlayer@@@std@@@3@$0A@@std@@@std@@IBEAAPAU_Node@?$_Tree_nod@V?$_Tmap_traits@IPAVIPlayer@@U?$less@I@std@@V?$allocator@U?$pair@$$CBIPAVIPlayer@@@std@@@3@$0A@@std@@@2@XZ 00414300 f i Intercessor.obj
 0001:00013310       ??0iterator@?$_Tree@V?$_Tmap_traits@IPAVIPlayer@@U?$less@I@std@@V?$allocator@U?$pair@$$CBIPAVIPlayer@@@std@@@3@$0A@@std@@@std@@QAE@PAU_Node@?$_Tree_nod@V?$_Tmap_traits@IPAVIPlayer@@U?$less@I@std@@V?$allocator@U?$pair@$$CBIPAVIPlayer@@@std@@@3@$0A@@std@@@2@PBV12@@Z 00414310 f i Intercessor.obj
 0001:00013340       ??0const_iterator@?$_Tree@V?$_Tmap_traits@IPAVIPlayer@@U?$less@I@std@@V?$allocator@U?$pair@$$CBIPAVIPlayer@@@std@@@3@$0A@@std@@@std@@QAE@XZ 00414340 f i Intercessor.obj
 0001:00013350       ??Dconst_iterator@?$_Tree@V?$_Tmap_traits@IPAVIPlayer@@U?$less@I@std@@V?$allocator@U?$pair@$$CBIPAVIPlayer@@@std@@@3@$0A@@std@@@std@@QBEABU?$pair@$$CBIPAVIPlayer@@@2@XZ 00414350 f i Intercessor.obj
 0001:00013380       ?_Lbound@?$_Tree@V?$_Tmap_traits@IPAVIPlayer@@U?$less@I@std@@V?$allocator@U?$pair@$$CBIPAVIPlayer@@@std@@@3@$0A@@std@@@std@@IBEPAU_Node@?$_Tree_nod@V?$_Tmap_traits@IPAVIPlayer@@U?$less@I@std@@V?$allocator@U?$pair@$$CBIPAVIPlayer@@@std@@@3@$0A@@std@@@2@ABI@Z 00414380 f i Intercessor.obj
 0001:000133b0       ?_Lrotate@?$_Tree@V?$_Tmap_traits@IPAVIPlayer@@U?$less@I@std@@V?$allocator@U?$pair@$$CBIPAVIPlayer@@@std@@@3@$0A@@std@@@std@@IAEXPAU_Node@?$_Tree_nod@V?$_Tmap_traits@IPAVIPlayer@@U?$less@I@std@@V?$allocator@U?$pair@$$CBIPAVIPlayer@@@std@@@3@$0A@@std@@@2@@Z 004143b0 f i Intercessor.obj
 0001:00013400       ?destroy@?$allocator@U_Node@?$_Tree_nod@V?$_Tmap_traits@IPAVIPlayer@@U?$less@I@std@@V?$allocator@U?$pair@$$CBIPAVIPlayer@@@std@@@3@$0A@@std@@@std@@@std@@QAEXPAU_Node@?$_Tree_nod@V?$_Tmap_traits@IPAVIPlayer@@U?$less@I@std@@V?$allocator@U?$pair@$$CBIPAVIPlayer@@@std@@@3@$0A@@std@@@2@@Z 00414400 f i Intercessor.obj
 0001:00013410       ?destroy@?$allocator@PAU_Node@?$_Tree_nod@V?$_Tmap_traits@IPAVIPlayer@@U?$less@I@std@@V?$allocator@U?$pair@$$CBIPAVIPlayer@@@std@@@3@$0A@@std@@@std@@@std@@QAEXPAPAU_Node@?$_Tree_nod@V?$_Tmap_traits@IPAVIPlayer@@U?$less@I@std@@V?$allocator@U?$pair@$$CBIPAVIPlayer@@@std@@@3@$0A@@std@@@2@@Z 00414410 f i Intercessor.obj
 0001:00013420       ??Econst_iterator@?$_Tree@V?$_Tmap_traits@IPAVIPlayer@@U?$less@I@std@@V?$allocator@U?$pair@$$CBIPAVIPlayer@@@std@@@3@$0A@@std@@@std@@QAEAAV012@XZ 00414420 f i Intercessor.obj
 0001:00013430       ?max_size@?$_Tree@V?$_Tmap_traits@IPAVIPlayer@@U?$less@I@std@@V?$allocator@U?$pair@$$CBIPAVIPlayer@@@std@@@3@$0A@@std@@@std@@QBEIXZ 00414430 f i Intercessor.obj
 0001:00013440       ??Fconst_iterator@?$_Tree@V?$_Tmap_traits@IPAVIPlayer@@U?$less@I@std@@V?$allocator@U?$pair@$$CBIPAVIPlayer@@@std@@@3@$0A@@std@@@std@@QAEAAV012@XZ 00414440 f i Intercessor.obj
 0001:00013450       ??0?$_Tree_nod@V?$_Tmap_traits@IPAVIPlayer@@U?$less@I@std@@V?$allocator@U?$pair@$$CBIPAVIPlayer@@@std@@@3@$0A@@std@@@std@@IAE@ABU?$less@I@1@V?$allocator@U?$pair@$$CBIPAVIPlayer@@@std@@@1@@Z 00414450 f i Intercessor.obj
 0001:00013460       ?allocate@?$allocator@U_Node@?$_Tree_nod@V?$_Tmap_traits@IPAVIPlayer@@U?$less@I@std@@V?$allocator@U?$pair@$$CBIPAVIPlayer@@@std@@@3@$0A@@std@@@std@@@std@@QAEPAU_Node@?$_Tree_nod@V?$_Tmap_traits@IPAVIPlayer@@U?$less@I@std@@V?$allocator@U?$pair@$$CBIPAVIPlayer@@@std@@@3@$0A@@std@@@2@I@Z 00414460 f i Intercessor.obj
 0001:00013480       ?construct@?$allocator@PAU_Node@?$_Tree_nod@V?$_Tmap_traits@IPAVIPlayer@@U?$less@I@std@@V?$allocator@U?$pair@$$CBIPAVIPlayer@@@std@@@3@$0A@@std@@@std@@@std@@QAEXPAPAU_Node@?$_Tree_nod@V?$_Tmap_traits@IPAVIPlayer@@U?$less@I@std@@V?$allocator@U?$pair@$$CBIPAVIPlayer@@@std@@@3@$0A@@std@@@2@ABQAU342@@Z 00414480 f i Intercessor.obj
 0001:000134a0       ?begin@?$_Tree@V?$_Tmap_traits@IPAVIPlayer@@U?$less@I@std@@V?$allocator@U?$pair@$$CBIPAVIPlayer@@@std@@@3@$0A@@std@@@std@@QAE?AViterator@12@XZ 004144a0 f i Intercessor.obj
 0001:000134c0       ?end@?$_Tree@V?$_Tmap_traits@IPAVIPlayer@@U?$less@I@std@@V?$allocator@U?$pair@$$CBIPAVIPlayer@@@std@@@3@$0A@@std@@@std@@QAE?AViterator@12@XZ 004144c0 f i Intercessor.obj
 0001:000134d0       ??0iterator@?$_Tree@V?$_Tmap_traits@IPAVIPlayer@@U?$less@I@std@@V?$allocator@U?$pair@$$CBIPAVIPlayer@@@std@@@3@$0A@@std@@@std@@QAE@XZ 004144d0 f i Intercessor.obj
 0001:000134e0       ??Diterator@?$_Tree@V?$_Tmap_traits@IPAVIPlayer@@U?$less@I@std@@V?$allocator@U?$pair@$$CBIPAVIPlayer@@@std@@@3@$0A@@std@@@std@@QBEAAU?$pair@$$CBIPAVIPlayer@@@2@XZ 004144e0 f i Intercessor.obj
 0001:00013510       ?lower_bound@?$_Tree@V?$_Tmap_traits@IPAVIPlayer@@U?$less@I@std@@V?$allocator@U?$pair@$$CBIPAVIPlayer@@@std@@@3@$0A@@std@@@std@@QAE?AViterator@12@ABI@Z 00414510 f i Intercessor.obj
 0001:00013550       ??Eiterator@?$_Tree@V?$_Tmap_traits@IPAVIPlayer@@U?$less@I@std@@V?$allocator@U?$pair@$$CBIPAVIPlayer@@@std@@@3@$0A@@std@@@std@@QAEAAV012@XZ 00414550 f i Intercessor.obj
 0001:00013560       ?_Erase@?$_Tree@V?$_Tmap_traits@IPAVIPlayer@@U?$less@I@std@@V?$allocator@U?$pair@$$CBIPAVIPlayer@@@std@@@3@$0A@@std@@@std@@IAEXPAU_Node@?$_Tree_nod@V?$_Tmap_traits@IPAVIPlayer@@U?$less@I@std@@V?$allocator@U?$pair@$$CBIPAVIPlayer@@@std@@@3@$0A@@std@@@2@@Z 00414560 f i Intercessor.obj
 0001:000135a0       ??Fiterator@?$_Tree@V?$_Tmap_traits@IPAVIPlayer@@U?$less@I@std@@V?$allocator@U?$pair@$$CBIPAVIPlayer@@@std@@@3@$0A@@std@@@std@@QAEAAV012@XZ 004145a0 f i Intercessor.obj
 0001:000135b0       ?_Buynode@?$_Tree@V?$_Tmap_traits@IPAVIPlayer@@U?$less@I@std@@V?$allocator@U?$pair@$$CBIPAVIPlayer@@@std@@@3@$0A@@std@@@std@@IAEPAU_Node@?$_Tree_nod@V?$_Tmap_traits@IPAVIPlayer@@U?$less@I@std@@V?$allocator@U?$pair@$$CBIPAVIPlayer@@@std@@@3@$0A@@std@@@2@XZ 004145b0 f i Intercessor.obj
 0001:000135f0       ?_Buynode@?$_Tree@V?$_Tmap_traits@IPAVIPlayer@@U?$less@I@std@@V?$allocator@U?$pair@$$CBIPAVIPlayer@@@std@@@3@$0A@@std@@@std@@IAEPAU_Node@?$_Tree_nod@V?$_Tmap_traits@IPAVIPlayer@@U?$less@I@std@@V?$allocator@U?$pair@$$CBIPAVIPlayer@@@std@@@3@$0A@@std@@@2@PAU342@00ABU?$pair@$$CBIPAVIPlayer@@@2@D@Z 004145f0 f i Intercessor.obj
 0001:00013630       ??0?$_Tree_ptr@V?$_Tmap_traits@IPAVIPlayer@@U?$less@I@std@@V?$allocator@U?$pair@$$CBIPAVIPlayer@@@std@@@3@$0A@@std@@@std@@IAE@ABU?$less@I@1@V?$allocator@U?$pair@$$CBIPAVIPlayer@@@std@@@1@@Z 00414630 f i Intercessor.obj
 0001:00013640       ?find@?$_Tree@V?$_Tmap_traits@IPAVIPlayer@@U?$less@I@std@@V?$allocator@U?$pair@$$CBIPAVIPlayer@@@std@@@3@$0A@@std@@@std@@QAE?AViterator@12@ABI@Z 00414640 f i Intercessor.obj
 0001:000136b0       ??Eiterator@?$_Tree@V?$_Tmap_traits@IPAVIPlayer@@U?$less@I@std@@V?$allocator@U?$pair@$$CBIPAVIPlayer@@@std@@@3@$0A@@std@@@std@@QAE?AV012@H@Z 004146b0 f i Intercessor.obj
 0001:000136d0       ?clear@?$_Tree@V?$_Tmap_traits@IPAVIPlayer@@U?$less@I@std@@V?$allocator@U?$pair@$$CBIPAVIPlayer@@@std@@@3@$0A@@std@@@std@@QAEXXZ 004146d0 f i Intercessor.obj
 0001:00013700       ?_Init@?$_Tree@V?$_Tmap_traits@IPAVIPlayer@@U?$less@I@std@@V?$allocator@U?$pair@$$CBIPAVIPlayer@@@std@@@3@$0A@@std@@@std@@IAEXXZ 00414700 f i Intercessor.obj
 0001:00013730       ??0?$_Tree_val@V?$_Tmap_traits@IPAVIPlayer@@U?$less@I@std@@V?$allocator@U?$pair@$$CBIPAVIPlayer@@@std@@@3@$0A@@std@@@std@@IAE@ABU?$less@I@1@V?$allocator@U?$pair@$$CBIPAVIPlayer@@@std@@@1@@Z 00414730 f i Intercessor.obj
 0001:00013740       ??0?$_Tree@V?$_Tmap_traits@IPAVIPlayer@@U?$less@I@std@@V?$allocator@U?$pair@$$CBIPAVIPlayer@@@std@@@3@$0A@@std@@@std@@QAE@ABU?$less@I@1@ABV?$allocator@U?$pair@$$CBIPAVIPlayer@@@std@@@1@@Z 00414740 f i Intercessor.obj
 0001:00013770       ?erase@?$_Tree@V?$_Tmap_traits@IPAVIPlayer@@U?$less@I@std@@V?$allocator@U?$pair@$$CBIPAVIPlayer@@@std@@@3@$0A@@std@@@std@@QAE?AViterator@12@V312@@Z 00414770 f i Intercessor.obj
 0001:00013a30       ?_Insert@?$_Tree@V?$_Tmap_traits@IPAVIPlayer@@U?$less@I@std@@V?$allocator@U?$pair@$$CBIPAVIPlayer@@@std@@@3@$0A@@std@@@std@@IAE?AViterator@12@_NPAU_Node@?$_Tree_nod@V?$_Tmap_traits@IPAVIPlayer@@U?$less@I@std@@V?$allocator@U?$pair@$$CBIPAVIPlayer@@@std@@@3@$0A@@std@@@2@ABU?$pair@$$CBIPAVIPlayer@@@2@@Z 00414a30 f i Intercessor.obj
 0001:00013c30       ?erase@?$_Tree@V?$_Tmap_traits@IPAVIPlayer@@U?$less@I@std@@V?$allocator@U?$pair@$$CBIPAVIPlayer@@@std@@@3@$0A@@std@@@std@@QAE?AViterator@12@V312@0@Z 00414c30 f i Intercessor.obj
 0001:00013d00       ?_Tidy@?$_Tree@V?$_Tmap_traits@IPAVIPlayer@@U?$less@I@std@@V?$allocator@U?$pair@$$CBIPAVIPlayer@@@std@@@3@$0A@@std@@@std@@IAEXXZ 00414d00 f i Intercessor.obj
 0001:00013d40       ?insert@?$_Tree@V?$_Tmap_traits@IPAVIPlayer@@U?$less@I@std@@V?$allocator@U?$pair@$$CBIPAVIPlayer@@@std@@@3@$0A@@std@@@std@@QAE?AU?$pair@Viterator@?$_Tree@V?$_Tmap_traits@IPAVIPlayer@@U?$less@I@std@@V?$allocator@U?$pair@$$CBIPAVIPlayer@@@std@@@3@$0A@@std@@@std@@_N@2@ABU?$pair@$$CBIPAVIPlayer@@@2@@Z 00414d40 f i Intercessor.obj
 0001:00013e00       ?CleanNetwork@CIntercessor@@IAEXXZ 00414e00 f   Intercessor.obj
 0001:00013fe0       ??1?$_Tree@V?$_Tmap_traits@IPAVIPlayer@@U?$less@I@std@@V?$allocator@U?$pair@$$CBIPAVIPlayer@@@std@@@3@$0A@@std@@@std@@QAE@XZ 00414fe0 f i Intercessor.obj
 0001:00014020       ?insert@?$_Tree@V?$_Tmap_traits@IPAVIPlayer@@U?$less@I@std@@V?$allocator@U?$pair@$$CBIPAVIPlayer@@@std@@@3@$0A@@std@@@std@@QAE?AViterator@12@V312@ABU?$pair@$$CBIPAVIPlayer@@@2@@Z 00415020 f i Intercessor.obj
 0001:000141e0       ??1?$map@IPAVIPlayer@@U?$less@I@std@@V?$allocator@U?$pair@$$CBIPAVIPlayer@@@std@@@3@@std@@QAE@XZ 004151e0 f i Intercessor.obj
 0001:00014220       ??1CIntercessor@@UAE@XZ    00415220 f   Intercessor.obj
 0001:000142e0       ?Destroy@CIntercessor@@QAEXXZ 004152e0 f   Intercessor.obj
 0001:00014330       ??0?$map@IPAVIPlayer@@U?$less@I@std@@V?$allocator@U?$pair@$$CBIPAVIPlayer@@@std@@@3@@std@@QAE@XZ 00415330 f i Intercessor.obj
 0001:00014360       ??A?$map@IPAVIPlayer@@U?$less@I@std@@V?$allocator@U?$pair@$$CBIPAVIPlayer@@@std@@@3@@std@@QAEAAPAVIPlayer@@ABI@Z 00415360 f i Intercessor.obj
 0001:000143e0       ??0CIntercessor@@QAE@KAAVCNetwork@@@Z 004153e0 f   Intercessor.obj
 0001:000144b0       ??_ECIntercessor@@UAEPAXI@Z 004154b0 f i Intercessor.obj
 0001:000144b0       ??_GCIntercessor@@UAEPAXI@Z 004154b0 f i Intercessor.obj
 0001:000144d0       ?_PlayerEventNotify@CIntercessor@@IAEXABK0@Z 004154d0 f   Intercessor.obj
 0001:00014570       ?Helper@CIntercessor@@IAEHXZ 00415570 f   Intercessor.obj
 0001:00014770       ?AnalyzePlayerRequire@CIntercessor@@IAE_NIPBXI@Z 00415770 f   Intercessor.obj
 0001:00014840       ?PlayerEventNotify@CIntercessor@@SGXPAXABK1@Z 00415840 f   Intercessor.obj
 0001:000148a0       ?StartupNetwork@CIntercessor@@IAE_NXZ 004158a0 f   Intercessor.obj
 0001:00014c20       ?Working@CIntercessor@@IAEHXZ 00415c20 f   Intercessor.obj
 0001:00014d30       ?HelperThreadFunction@CIntercessor@@KGKPAX@Z 00415d30 f   Intercessor.obj
 0001:00014da0       ?WorkingThreadFunction@CIntercessor@@KGKPAX@Z 00415da0 f   Intercessor.obj
 0001:00014e10       ?Create@CIntercessor@@QAE_NPAUHWND__@@@Z 00415e10 f   Intercessor.obj
 0001:00014e80       ??0CNetwork@@QAE@XZ        00415e80 f   Network.obj
 0001:00014ec0       ??1CNetwork@@UAE@XZ        00415ec0 f   Network.obj
 0001:00014f10       ??_GCNetwork@@UAEPAXI@Z    00415f10 f i Network.obj
 0001:00014f10       ??_ECNetwork@@UAEPAXI@Z    00415f10 f i Network.obj
 0001:00014f30       ?resize@?$basic_string@DU?$char_traits@D@std@@V?$allocator@D@2@@std@@QAEXID@Z 00415f30 f i Network.obj
 0001:00014f60       ?append@?$basic_string@DU?$char_traits@D@std@@V?$allocator@D@2@@std@@QAEAAV12@PBD@Z 00415f60 f i Network.obj
 0001:00014f90       ??4?$basic_string@DU?$char_traits@D@std@@V?$allocator@D@2@@std@@QAEAAV01@ABV01@@Z 00415f90 f i Network.obj
 0001:00014fb0       ?resize@?$basic_string@DU?$char_traits@D@std@@V?$allocator@D@2@@std@@QAEXI@Z 00415fb0 f i Network.obj
 0001:00014fe0       ??Y?$basic_string@DU?$char_traits@D@std@@V?$allocator@D@2@@std@@QAEAAV01@PBD@Z 00415fe0 f i Network.obj
 0001:00015010       ??$?HDU?$char_traits@D@std@@V?$allocator@D@1@@std@@YA?AV?$basic_string@DU?$char_traits@D@std@@V?$allocator@D@2@@0@ABV10@PBD@Z 00416010 f i Network.obj
 0001:000150d0       ?Create@CNetwork@@QAE_NXZ  004160d0 f   Network.obj
 0001:00015380       ?Destroy@CNetwork@@QAEXXZ  00416380 f   Network.obj
 0001:00015580       ?GetRoleDataFromIni@CPlayerCreator@@AAE_NPAEPBD@Z 00416580 f   PlayerCreator.obj
 0001:00015cd0       ?empty@?$basic_string@DU?$char_traits@D@std@@V?$allocator@D@2@@std@@QBE_NXZ 00416cd0 f i PlayerCreator.obj
 0001:00015ce0       ?size@?$vector@IV?$allocator@I@std@@@std@@QBEIXZ 00416ce0 f i PlayerCreator.obj
 0001:00015d00       ?empty@?$vector@IV?$allocator@I@std@@@std@@QBE_NXZ 00416d00 f i PlayerCreator.obj
 0001:00015d30       ??A?$vector@IV?$allocator@I@std@@@std@@QAEAAII@Z 00416d30 f i PlayerCreator.obj
 0001:00015d60       ?_Isnil@?$_Tree@V?$_Tmap_traits@IV?$vector@IV?$allocator@I@std@@@std@@U?$less@I@2@V?$allocator@U?$pair@$$CBIV?$vector@IV?$allocator@I@std@@@std@@@std@@@2@$0A@@std@@@std@@KAAADPAU_Node@?$_Tree_nod@V?$_Tmap_traits@IV?$vector@IV?$allocator@I@std@@@std@@U?$less@I@2@V?$allocator@U?$pair@$$CBIV?$vector@IV?$allocator@I@std@@@std@@@std@@@2@$0A@@std@@@2@@Z 00416d60 f i PlayerCreator.obj
 0001:00015d70       ?_Left@?$_Tree@V?$_Tmap_traits@IV?$vector@IV?$allocator@I@std@@@std@@U?$less@I@2@V?$allocator@U?$pair@$$CBIV?$vector@IV?$allocator@I@std@@@std@@@std@@@2@$0A@@std@@@std@@KAAAPAU_Node@?$_Tree_nod@V?$_Tmap_traits@IV?$vector@IV?$allocator@I@std@@@std@@U?$less@I@2@V?$allocator@U?$pair@$$CBIV?$vector@IV?$allocator@I@std@@@std@@@std@@@2@$0A@@std@@@2@PAU342@@Z 00416d70 f i PlayerCreator.obj
 0001:00015d80       ?_Right@?$_Tree@V?$_Tmap_traits@IV?$vector@IV?$allocator@I@std@@@std@@U?$less@I@2@V?$allocator@U?$pair@$$CBIV?$vector@IV?$allocator@I@std@@@std@@@std@@@2@$0A@@std@@@std@@KAAAPAU_Node@?$_Tree_nod@V?$_Tmap_traits@IV?$vector@IV?$allocator@I@std@@@std@@U?$less@I@2@V?$allocator@U?$pair@$$CBIV?$vector@IV?$allocator@I@std@@@std@@@std@@@2@$0A@@std@@@2@PAU342@@Z 00416d80 f i PlayerCreator.obj
 0001:00015d90       ?_Lmost@?$_Tree@V?$_Tmap_traits@IV?$vector@IV?$allocator@I@std@@@std@@U?$less@I@2@V?$allocator@U?$pair@$$CBIV?$vector@IV?$allocator@I@std@@@std@@@std@@@2@$0A@@std@@@std@@IBEAAPAU_Node@?$_Tree_nod@V?$_Tmap_traits@IV?$vector@IV?$allocator@I@std@@@std@@U?$less@I@2@V?$allocator@U?$pair@$$CBIV?$vector@IV?$allocator@I@std@@@std@@@std@@@2@$0A@@std@@@2@XZ 00416d90 f i PlayerCreator.obj
 0001:00015da0       ?_Kfn@?$_Tmap_traits@IV?$vector@IV?$allocator@I@std@@@std@@U?$less@I@2@V?$allocator@U?$pair@$$CBIV?$vector@IV?$allocator@I@std@@@std@@@std@@@2@$0A@@std@@SAABIABU?$pair@$$CBIV?$vector@IV?$allocator@I@std@@@std@@@2@@Z 00416da0 f i PlayerCreator.obj
 0001:00015db0       ??0?$allocator@U?$pair@$$CBIV?$vector@IV?$allocator@I@std@@@std@@@std@@@std@@QAE@XZ 00416db0 f i PlayerCreator.obj
 0001:00015dc0       ??0?$allocator@I@std@@QAE@XZ 00416dc0 f i PlayerCreator.obj
 0001:00015dd0       ??8const_iterator@?$_Tree@V?$_Tmap_traits@IV?$vector@IV?$allocator@I@std@@@std@@U?$less@I@2@V?$allocator@U?$pair@$$CBIV?$vector@IV?$allocator@I@std@@@std@@@std@@@2@$0A@@std@@@std@@QBE_NABV012@@Z 00416dd0 f i PlayerCreator.obj
 0001:00015e00       ?_Mynode@const_iterator@?$_Tree@V?$_Tmap_traits@IV?$vector@IV?$allocator@I@std@@@std@@U?$less@I@2@V?$allocator@U?$pair@$$CBIV?$vector@IV?$allocator@I@std@@@std@@@std@@@2@$0A@@std@@@std@@QBEPAU_Node@?$_Tree_nod@V?$_Tmap_traits@IV?$vector@IV?$allocator@I@std@@@std@@U?$less@I@2@V?$allocator@U?$pair@$$CBIV?$vector@IV?$allocator@I@std@@@std@@@std@@@2@$0A@@std@@@3@XZ 00416e00 f i PlayerCreator.obj
 0001:00015e10       ?capacity@?$vector@IV?$allocator@I@std@@@std@@QBEIXZ 00416e10 f i PlayerCreator.obj
 0001:00015e30       ??0?$allocator@V?$basic_string@DU?$char_traits@D@std@@V?$allocator@D@2@@std@@@std@@QAE@XZ 00416e30 f i PlayerCreator.obj
 0001:00015e40       ??D?$_Vector_const_iterator@V?$basic_string@DU?$char_traits@D@std@@V?$allocator@D@2@@std@@V?$allocator@V?$basic_string@DU?$char_traits@D@std@@V?$allocator@D@2@@std@@@2@@std@@QBEABV?$basic_string@DU?$char_traits@D@std@@V?$allocator@D@2@@1@XZ 00416e40 f i PlayerCreator.obj
 0001:00015e70       ??8?$_Vector_const_iterator@V?$basic_string@DU?$char_traits@D@std@@V?$allocator@D@2@@std@@V?$allocator@V?$basic_string@DU?$char_traits@D@std@@V?$allocator@D@2@@std@@@2@@std@@QBE_NABV01@@Z 00416e70 f i PlayerCreator.obj
 0001:00015ea0       ??0?$pair@Viterator@?$_Tree@V?$_Tmap_traits@IV?$vector@IV?$allocator@I@std@@@std@@U?$less@I@2@V?$allocator@U?$pair@$$CBIV?$vector@IV?$allocator@I@std@@@std@@@std@@@2@$0A@@std@@@std@@_N@std@@QAE@ABViterator@?$_Tree@V?$_Tmap_traits@IV?$vector@IV?$allocator@I@std@@@std@@U?$less@I@2@V?$allocator@U?$pair@$$CBIV?$vector@IV?$allocator@I@std@@@std@@@std@@@2@$0A@@std@@@1@AB_N@Z 00416ea0 f i PlayerCreator.obj
 0001:00015ec0       ??0?$_Bidit@U?$pair@$$CBIV?$vector@IV?$allocator@I@std@@@std@@@std@@HPBU12@ABU12@@std@@QAE@XZ 00416ec0 f i PlayerCreator.obj
 0001:00015ed0       ??0?$_Ranit@V?$basic_string@DU?$char_traits@D@std@@V?$allocator@D@2@@std@@HPBV12@ABV12@@std@@QAE@XZ 00416ed0 f i PlayerCreator.obj
 0001:00015ee0       ?_Color@?$_Tree@V?$_Tmap_traits@IV?$vector@IV?$allocator@I@std@@@std@@U?$less@I@2@V?$allocator@U?$pair@$$CBIV?$vector@IV?$allocator@I@std@@@std@@@std@@@2@$0A@@std@@@std@@KAAADPAU_Node@?$_Tree_nod@V?$_Tmap_traits@IV?$vector@IV?$allocator@I@std@@@std@@U?$less@I@2@V?$allocator@U?$pair@$$CBIV?$vector@IV?$allocator@I@std@@@std@@@std@@@2@$0A@@std@@@2@@Z 00416ee0 f i PlayerCreator.obj
 0001:00015ef0       ?_Parent@?$_Tree@V?$_Tmap_traits@IV?$vector@IV?$allocator@I@std@@@std@@U?$less@I@2@V?$allocator@U?$pair@$$CBIV?$vector@IV?$allocator@I@std@@@std@@@std@@@2@$0A@@std@@@std@@KAAAPAU_Node@?$_Tree_nod@V?$_Tmap_traits@IV?$vector@IV?$allocator@I@std@@@std@@U?$less@I@2@V?$allocator@U?$pair@$$CBIV?$vector@IV?$allocator@I@std@@@std@@@std@@@2@$0A@@std@@@2@PAU342@@Z 00416ef0 f i PlayerCreator.obj
 0001:00015f00       ?_Myval@?$_Tree@V?$_Tmap_traits@IV?$vector@IV?$allocator@I@std@@@std@@U?$less@I@2@V?$allocator@U?$pair@$$CBIV?$vector@IV?$allocator@I@std@@@std@@@std@@@2@$0A@@std@@@std@@KAAAU?$pair@$$CBIV?$vector@IV?$allocator@I@std@@@std@@@2@PAU_Node@?$_Tree_nod@V?$_Tmap_traits@IV?$vector@IV?$allocator@I@std@@@std@@U?$less@I@2@V?$allocator@U?$pair@$$CBIV?$vector@IV?$allocator@I@std@@@std@@@std@@@2@$0A@@std@@@2@@Z 00416f00 f i PlayerCreator.obj
 0001:00015f10       ?_Max@?$_Tree@V?$_Tmap_traits@IV?$vector@IV?$allocator@I@std@@@std@@U?$less@I@2@V?$allocator@U?$pair@$$CBIV?$vector@IV?$allocator@I@std@@@std@@@std@@@2@$0A@@std@@@std@@KAPAU_Node@?$_Tree_nod@V?$_Tmap_traits@IV?$vector@IV?$allocator@I@std@@@std@@U?$less@I@2@V?$allocator@U?$pair@$$CBIV?$vector@IV?$allocator@I@std@@@std@@@std@@@2@$0A@@std@@@2@PAU342@@Z 00416f10 f i PlayerCreator.obj
 0001:00015f30       ?_Min@?$_Tree@V?$_Tmap_traits@IV?$vector@IV?$allocator@I@std@@@std@@U?$less@I@2@V?$allocator@U?$pair@$$CBIV?$vector@IV?$allocator@I@std@@@std@@@std@@@2@$0A@@std@@@std@@KAPAU_Node@?$_Tree_nod@V?$_Tmap_traits@IV?$vector@IV?$allocator@I@std@@@std@@U?$less@I@2@V?$allocator@U?$pair@$$CBIV?$vector@IV?$allocator@I@std@@@std@@@std@@@2@$0A@@std@@@2@PAU342@@Z 00416f30 f i PlayerCreator.obj
 0001:00015f50       ?_Rmost@?$_Tree@V?$_Tmap_traits@IV?$vector@IV?$allocator@I@std@@@std@@U?$less@I@2@V?$allocator@U?$pair@$$CBIV?$vector@IV?$allocator@I@std@@@std@@@std@@@2@$0A@@std@@@std@@IBEAAPAU_Node@?$_Tree_nod@V?$_Tmap_traits@IV?$vector@IV?$allocator@I@std@@@std@@U?$less@I@2@V?$allocator@U?$pair@$$CBIV?$vector@IV?$allocator@I@std@@@std@@@std@@@2@$0A@@std@@@2@XZ 00416f50 f i PlayerCreator.obj
 0001:00015f60       ??0?$allocator@U?$pair@$$CBIV?$vector@IV?$allocator@I@std@@@std@@@std@@@std@@QAE@ABV01@@Z 00416f60 f i PlayerCreator.obj
 0001:00015f70       ?deallocate@?$allocator@U_Node@?$_Tree_nod@V?$_Tmap_traits@IV?$vector@IV?$allocator@I@std@@@std@@U?$less@I@2@V?$allocator@U?$pair@$$CBIV?$vector@IV?$allocator@I@std@@@std@@@std@@@2@$0A@@std@@@std@@@std@@QAEXPAU_Node@?$_Tree_nod@V?$_Tmap_traits@IV?$vector@IV?$allocator@I@std@@@std@@U?$less@I@2@V?$allocator@U?$pair@$$CBIV?$vector@IV?$allocator@I@std@@@std@@@std@@@2@$0A@@std@@@2@I@Z 00416f70 f i PlayerCreator.obj
 0001:00015f80       ??0?$allocator@I@std@@QAE@ABV01@@Z 00416f80 f i PlayerCreator.obj
 0001:00015f90       ?deallocate@?$allocator@I@std@@QAEXPAII@Z 00416f90 f i PlayerCreator.obj
 0001:00015fa0       ??0const_iterator@?$_Tree@V?$_Tmap_traits@IV?$vector@IV?$allocator@I@std@@@std@@U?$less@I@2@V?$allocator@U?$pair@$$CBIV?$vector@IV?$allocator@I@std@@@std@@@std@@@2@$0A@@std@@@std@@QAE@PAU_Node@?$_Tree_nod@V?$_Tmap_traits@IV?$vector@IV?$allocator@I@std@@@std@@U?$less@I@2@V?$allocator@U?$pair@$$CBIV?$vector@IV?$allocator@I@std@@@std@@@std@@@2@$0A@@std@@@2@PBV12@@Z 00416fa0 f i PlayerCreator.obj
 0001:00015fd0       ??0?$allocator@V?$basic_string@DU?$char_traits@D@std@@V?$allocator@D@2@@std@@@std@@QAE@ABV01@@Z 00416fd0 f i PlayerCreator.obj
 0001:00015fe0       ?deallocate@?$allocator@V?$basic_string@DU?$char_traits@D@std@@V?$allocator@D@2@@std@@@std@@QAEXPAV?$basic_string@DU?$char_traits@D@std@@V?$allocator@D@2@@2@I@Z 00416fe0 f i PlayerCreator.obj
 0001:00015ff0       ??0?$_Vector_const_iterator@V?$basic_string@DU?$char_traits@D@std@@V?$allocator@D@2@@std@@V?$allocator@V?$basic_string@DU?$char_traits@D@std@@V?$allocator@D@2@@std@@@2@@std@@QAE@PAV?$basic_string@DU?$char_traits@D@std@@V?$allocator@D@2@@1@PBU_Container_base@1@@Z 00416ff0 f i PlayerCreator.obj
 0001:00016030       ??E?$_Vector_const_iterator@V?$basic_string@DU?$char_traits@D@std@@V?$allocator@D@2@@std@@V?$allocator@V?$basic_string@DU?$char_traits@D@std@@V?$allocator@D@2@@std@@@2@@std@@QAEAAV01@XZ 00417030 f i PlayerCreator.obj
 0001:00016060       ?max_size@?$allocator@U?$pair@$$CBIV?$vector@IV?$allocator@I@std@@@std@@@std@@@std@@QBEIXZ 00417060 f i PlayerCreator.obj
 0001:00016070       ?max_size@?$allocator@I@std@@QBEIXZ 00417070 f i PlayerCreator.obj
 0001:00016080       ?_Dec@const_iterator@?$_Tree@V?$_Tmap_traits@IV?$vector@IV?$allocator@I@std@@@std@@U?$less@I@2@V?$allocator@U?$pair@$$CBIV?$vector@IV?$allocator@I@std@@@std@@@std@@@2@$0A@@std@@@std@@QAEXXZ 00417080 f i PlayerCreator.obj
 0001:00016110       ?_Inc@const_iterator@?$_Tree@V?$_Tmap_traits@IV?$vector@IV?$allocator@I@std@@@std@@U?$less@I@2@V?$allocator@U?$pair@$$CBIV?$vector@IV?$allocator@I@std@@@std@@@std@@@2@$0A@@std@@@std@@QAEXXZ 00417110 f i PlayerCreator.obj
 0001:00016180       ?max_size@?$allocator@V?$basic_string@DU?$char_traits@D@std@@V?$allocator@D@2@@std@@@std@@QBEIXZ 00417180 f i PlayerCreator.obj
 0001:00016190       ??G?$_Vector_const_iterator@IV?$allocator@I@std@@@std@@QBEHABV01@@Z 00417190 f i PlayerCreator.obj
 0001:000161c0       ??8?$_Vector_const_iterator@IV?$allocator@I@std@@@std@@QBE_NABV01@@Z 004171c0 f i PlayerCreator.obj
 0001:000161f0       ??0?$_Ranit@IHPBIABI@std@@QAE@XZ 004171f0 f i PlayerCreator.obj
 0001:00016200       ??Y?$_Vector_const_iterator@IV?$allocator@I@std@@@std@@QAEAAV01@H@Z 00417200 f i PlayerCreator.obj
 0001:00016240       ??0?$_Tmap_traits@IV?$vector@IV?$allocator@I@std@@@std@@U?$less@I@2@V?$allocator@U?$pair@$$CBIV?$vector@IV?$allocator@I@std@@@std@@@std@@@2@$0A@@std@@QAE@U?$less@I@1@@Z 00417240 f i PlayerCreator.obj
 0001:00016250       ??$_Destroy@PAU_Node@?$_Tree_nod@V?$_Tmap_traits@IV?$vector@IV?$allocator@I@std@@@std@@U?$less@I@2@V?$allocator@U?$pair@$$CBIV?$vector@IV?$allocator@I@std@@@std@@@std@@@2@$0A@@std@@@std@@@std@@YAXPAPAU_Node@?$_Tree_nod@V?$_Tmap_traits@IV?$vector@IV?$allocator@I@std@@@std@@U?$less@I@2@V?$allocator@U?$pair@$$CBIV?$vector@IV?$allocator@I@std@@@std@@@std@@@2@$0A@@std@@@0@@Z 00417250 f i PlayerCreator.obj
 0001:00016260       ??$_Allocate@I@std@@YAPAIIPAI@Z 00417260 f i PlayerCreator.obj
 0001:000162c0       ??$_Allocate@V?$basic_string@DU?$char_traits@D@std@@V?$allocator@D@2@@std@@@std@@YAPAV?$basic_string@DU?$char_traits@D@std@@V?$allocator@D@2@@0@IPAV10@@Z 004172c0 f i PlayerCreator.obj
 0001:00016330       ??$?0U?$pair@$$CBIV?$vector@IV?$allocator@I@std@@@std@@@std@@@?$allocator@PAU_Node@?$_Tree_nod@V?$_Tmap_traits@IV?$vector@IV?$allocator@I@std@@@std@@U?$less@I@2@V?$allocator@U?$pair@$$CBIV?$vector@IV?$allocator@I@std@@@std@@@std@@@2@$0A@@std@@@std@@@std@@QAE@ABV?$allocator@U?$pair@$$CBIV?$vector@IV?$allocator@I@std@@@std@@@std@@@1@@Z 00417330 f i PlayerCreator.obj
 0001:00016340       ??$_Allocate@U_Node@?$_Tree_nod@V?$_Tmap_traits@IV?$vector@IV?$allocator@I@std@@@std@@U?$less@I@2@V?$allocator@U?$pair@$$CBIV?$vector@IV?$allocator@I@std@@@std@@@std@@@2@$0A@@std@@@std@@@std@@YAPAU_Node@?$_Tree_nod@V?$_Tmap_traits@IV?$vector@IV?$allocator@I@std@@@std@@U?$less@I@2@V?$allocator@U?$pair@$$CBIV?$vector@IV?$allocator@I@std@@@std@@@std@@@2@$0A@@std@@@0@IPAU120@@Z 00417340 f i PlayerCreator.obj
 0001:000163a0       ??$?0U?$pair@$$CBIV?$vector@IV?$allocator@I@std@@@std@@@std@@@?$allocator@U_Node@?$_Tree_nod@V?$_Tmap_traits@IV?$vector@IV?$allocator@I@std@@@std@@U?$less@I@2@V?$allocator@U?$pair@$$CBIV?$vector@IV?$allocator@I@std@@@std@@@std@@@2@$0A@@std@@@std@@@std@@QAE@ABV?$allocator@U?$pair@$$CBIV?$vector@IV?$allocator@I@std@@@std@@@std@@@1@@Z 004173a0 f i PlayerCreator.obj
 0001:000163b0       ??$_Construct@PAU_Node@?$_Tree_nod@V?$_Tmap_traits@IV?$vector@IV?$allocator@I@std@@@std@@U?$less@I@2@V?$allocator@U?$pair@$$CBIV?$vector@IV?$allocator@I@std@@@std@@@std@@@2@$0A@@std@@@std@@PAU123@@std@@YAXPAPAU_Node@?$_Tree_nod@V?$_Tmap_traits@IV?$vector@IV?$allocator@I@std@@@std@@U?$less@I@2@V?$allocator@U?$pair@$$CBIV?$vector@IV?$allocator@I@std@@@std@@@std@@@2@$0A@@std@@@0@ABQAU120@@Z 004173b0 f i PlayerCreator.obj
 0001:000163d0       ??$_Iter_random@PAIPAI@std@@YA?AUrandom_access_iterator_tag@0@ABQAI0@Z 004173d0 f i PlayerCreator.obj
 0001:000163e0       ??$_Ptr_cat@PAIPAI@std@@YA?AU_Scalar_ptr_iterator_tag@0@AAPAI0@Z 004173e0 f i PlayerCreator.obj
 0001:000163f0       ??$_Copy_opt@PAIPAIUrandom_access_iterator_tag@std@@@std@@YAPAIPAI00Urandom_access_iterator_tag@0@U_Scalar_ptr_iterator_tag@0@U_Range_checked_iterator_tag@0@@Z 004173f0 f i PlayerCreator.obj
 0001:00016430       ??$_Destroy_range@IV?$allocator@I@std@@@std@@YAXPAI0AAV?$allocator@I@0@U_Scalar_ptr_iterator_tag@0@@Z 00417430 f i PlayerCreator.obj
 0001:00016440       ??$_Fill@PAII@std@@YAXPAI0ABI@Z 00417440 f i PlayerCreator.obj
 0001:00016460       ??$_Move_cat@PAI@std@@YA?AU_Undefined_move_tag@0@ABQAI@Z 00417460 f i PlayerCreator.obj
 0001:00016470       ??$_Ptr_cat@PAV?$basic_string@DU?$char_traits@D@std@@V?$allocator@D@2@@std@@PAV12@@std@@YA?AU_Nonscalar_ptr_iterator_tag@0@AAPAV?$basic_string@DU?$char_traits@D@std@@V?$allocator@D@2@@0@0@Z 00417470 f i PlayerCreator.obj
 0001:00016480       ??$_Ptr_cat@V?$_Vector_const_iterator@IV?$allocator@I@std@@@std@@PAI@std@@YA?AU_Scalar_ptr_iterator_tag@0@AAV?$_Vector_const_iterator@IV?$allocator@I@std@@@0@AAPAI@Z 00417480 f i PlayerCreator.obj
 0001:00016490       ??$_Uninit_copy@PBIPAIV?$allocator@I@std@@@std@@YAPAIPBI0PAIAAV?$allocator@I@0@U_Scalar_ptr_iterator_tag@0@U_Range_checked_iterator_tag@0@@Z 00417490 f i PlayerCreator.obj
 0001:000164c0       ??$_Checked_base@PAI@std@@YAPAIAAPAIU_Unchanged_checked_iterator_base_type_tag@0@@Z 004174c0 f i PlayerCreator.obj
 0001:000164d0       ??$_Copy_backward_opt@PAIPAIUrandom_access_iterator_tag@std@@@std@@YAPAIPAI00Urandom_access_iterator_tag@0@U_Scalar_ptr_iterator_tag@0@U_Range_checked_iterator_tag@0@@Z 004174d0 f i PlayerCreator.obj
 0001:00016500       ??$_Iter_cat@PAI@std@@YA?AUrandom_access_iterator_tag@0@ABQAI@Z 00417500 f i PlayerCreator.obj
 0001:00016510       ?_Checked_iterator_base@?$_Vector_const_iterator@IV?$allocator@I@std@@@std@@QBEPBIXZ 00417510 f i PlayerCreator.obj
 0001:00016520       ??$_Fill_n@PAIII@std@@YAXPAIIABIU_Range_checked_iterator_tag@0@@Z 00417520 f i PlayerCreator.obj
 0001:00016550       ??$_Uninit_copy@PAIPAIV?$allocator@I@std@@@std@@YAPAIPAI00AAV?$allocator@I@0@U_Scalar_ptr_iterator_tag@0@U_Range_checked_iterator_tag@0@@Z 00417550 f i PlayerCreator.obj
 0001:00016580       ??9const_iterator@?$_Tree@V?$_Tmap_traits@IV?$vector@IV?$allocator@I@std@@@std@@U?$less@I@2@V?$allocator@U?$pair@$$CBIV?$vector@IV?$allocator@I@std@@@std@@@std@@@2@$0A@@std@@@std@@QBE_NABV012@@Z 00417580 f i PlayerCreator.obj
 0001:000165b0       ??D?$_Vector_iterator@V?$basic_string@DU?$char_traits@D@std@@V?$allocator@D@2@@std@@V?$allocator@V?$basic_string@DU?$char_traits@D@std@@V?$allocator@D@2@@std@@@2@@std@@QBEAAV?$basic_string@DU?$char_traits@D@std@@V?$allocator@D@2@@1@XZ 004175b0 f i PlayerCreator.obj
 0001:000165e0       ??9?$_Vector_const_iterator@V?$basic_string@DU?$char_traits@D@std@@V?$allocator@D@2@@std@@V?$allocator@V?$basic_string@DU?$char_traits@D@std@@V?$allocator@D@2@@std@@@2@@std@@QBE_NABV01@@Z 004175e0 f i PlayerCreator.obj
 0001:00016610       ?_Key@?$_Tree@V?$_Tmap_traits@IV?$vector@IV?$allocator@I@std@@@std@@U?$less@I@2@V?$allocator@U?$pair@$$CBIV?$vector@IV?$allocator@I@std@@@std@@@std@@@2@$0A@@std@@@std@@KAABIPAU_Node@?$_Tree_nod@V?$_Tmap_traits@IV?$vector@IV?$allocator@I@std@@@std@@U?$less@I@2@V?$allocator@U?$pair@$$CBIV?$vector@IV?$allocator@I@std@@@std@@@std@@@2@$0A@@std@@@2@@Z 00417610 f i PlayerCreator.obj
 0001:00016620       ?_Root@?$_Tree@V?$_Tmap_traits@IV?$vector@IV?$allocator@I@std@@@std@@U?$less@I@2@V?$allocator@U?$pair@$$CBIV?$vector@IV?$allocator@I@std@@@std@@@std@@@2@$0A@@std@@@std@@IBEAAPAU_Node@?$_Tree_nod@V?$_Tmap_traits@IV?$vector@IV?$allocator@I@std@@@std@@U?$less@I@2@V?$allocator@U?$pair@$$CBIV?$vector@IV?$allocator@I@std@@@std@@@std@@@2@$0A@@std@@@2@XZ 00417620 f i PlayerCreator.obj
 0001:00016630       ??0iterator@?$_Tree@V?$_Tmap_traits@IV?$vector@IV?$allocator@I@std@@@std@@U?$less@I@2@V?$allocator@U?$pair@$$CBIV?$vector@IV?$allocator@I@std@@@std@@@std@@@2@$0A@@std@@@std@@QAE@PAU_Node@?$_Tree_nod@V?$_Tmap_traits@IV?$vector@IV?$allocator@I@std@@@std@@U?$less@I@2@V?$allocator@U?$pair@$$CBIV?$vector@IV?$allocator@I@std@@@std@@@std@@@2@$0A@@std@@@2@PBV12@@Z 00417630 f i PlayerCreator.obj
 0001:00016660       ??0const_iterator@?$_Tree@V?$_Tmap_traits@IV?$vector@IV?$allocator@I@std@@@std@@U?$less@I@2@V?$allocator@U?$pair@$$CBIV?$vector@IV?$allocator@I@std@@@std@@@std@@@2@$0A@@std@@@std@@QAE@XZ 00417660 f i PlayerCreator.obj
 0001:00016670       ??Dconst_iterator@?$_Tree@V?$_Tmap_traits@IV?$vector@IV?$allocator@I@std@@@std@@U?$less@I@2@V?$allocator@U?$pair@$$CBIV?$vector@IV?$allocator@I@std@@@std@@@std@@@2@$0A@@std@@@std@@QBEABU?$pair@$$CBIV?$vector@IV?$allocator@I@std@@@std@@@2@XZ 00417670 f i PlayerCreator.obj
 0001:000166a0       ??0?$_Vector_val@IV?$allocator@I@std@@@std@@IAE@V?$allocator@I@1@@Z 004176a0 f i PlayerCreator.obj
 0001:000166b0       ??0?$_Vector_val@V?$basic_string@DU?$char_traits@D@std@@V?$allocator@D@2@@std@@V?$allocator@V?$basic_string@DU?$char_traits@D@std@@V?$allocator@D@2@@std@@@2@@std@@IAE@V?$allocator@V?$basic_string@DU?$char_traits@D@std@@V?$allocator@D@2@@std@@@1@@Z 004176b0 f i PlayerCreator.obj
 0001:000166c0       ??0?$_Vector_iterator@V?$basic_string@DU?$char_traits@D@std@@V?$allocator@D@2@@std@@V?$allocator@V?$basic_string@DU?$char_traits@D@std@@V?$allocator@D@2@@std@@@2@@std@@QAE@PAV?$basic_string@DU?$char_traits@D@std@@V?$allocator@D@2@@1@PBU_Container_base@1@@Z 004176c0 f i PlayerCreator.obj
 0001:00016700       ??E?$_Vector_iterator@V?$basic_string@DU?$char_traits@D@std@@V?$allocator@D@2@@std@@V?$allocator@V?$basic_string@DU?$char_traits@D@std@@V?$allocator@D@2@@std@@@2@@std@@QAEAAV01@XZ 00417700 f i PlayerCreator.obj
 0001:00016730       ??0?$_Vector_const_iterator@V?$basic_string@DU?$char_traits@D@std@@V?$allocator@D@2@@std@@V?$allocator@V?$basic_string@DU?$char_traits@D@std@@V?$allocator@D@2@@std@@@2@@std@@QAE@XZ 00417730 f i PlayerCreator.obj
 0001:00016740       ?max_size@?$_Tree@V?$_Tmap_traits@IV?$vector@IV?$allocator@I@std@@@std@@U?$less@I@2@V?$allocator@U?$pair@$$CBIV?$vector@IV?$allocator@I@std@@@std@@@std@@@2@$0A@@std@@@std@@QBEIXZ 00417740 f i PlayerCreator.obj
 0001:00016750       ?_Lbound@?$_Tree@V?$_Tmap_traits@IV?$vector@IV?$allocator@I@std@@@std@@U?$less@I@2@V?$allocator@U?$pair@$$CBIV?$vector@IV?$allocator@I@std@@@std@@@std@@@2@$0A@@std@@@std@@IBEPAU_Node@?$_Tree_nod@V?$_Tmap_traits@IV?$vector@IV?$allocator@I@std@@@std@@U?$less@I@2@V?$allocator@U?$pair@$$CBIV?$vector@IV?$allocator@I@std@@@std@@@std@@@2@$0A@@std@@@2@ABI@Z 00417750 f i PlayerCreator.obj
 0001:00016780       ?_Lrotate@?$_Tree@V?$_Tmap_traits@IV?$vector@IV?$allocator@I@std@@@std@@U?$less@I@2@V?$allocator@U?$pair@$$CBIV?$vector@IV?$allocator@I@std@@@std@@@std@@@2@$0A@@std@@@std@@IAEXPAU_Node@?$_Tree_nod@V?$_Tmap_traits@IV?$vector@IV?$allocator@I@std@@@std@@U?$less@I@2@V?$allocator@U?$pair@$$CBIV?$vector@IV?$allocator@I@std@@@std@@@std@@@2@$0A@@std@@@2@@Z 00417780 f i PlayerCreator.obj
 0001:000167d0       ?_Rrotate@?$_Tree@V?$_Tmap_traits@IV?$vector@IV?$allocator@I@std@@@std@@U?$less@I@2@V?$allocator@U?$pair@$$CBIV?$vector@IV?$allocator@I@std@@@std@@@std@@@2@$0A@@std@@@std@@IAEXPAU_Node@?$_Tree_nod@V?$_Tmap_traits@IV?$vector@IV?$allocator@I@std@@@std@@U?$less@I@2@V?$allocator@U?$pair@$$CBIV?$vector@IV?$allocator@I@std@@@std@@@std@@@2@$0A@@std@@@2@@Z 004177d0 f i PlayerCreator.obj
 0001:00016830       ?destroy@?$allocator@PAU_Node@?$_Tree_nod@V?$_Tmap_traits@IV?$vector@IV?$allocator@I@std@@@std@@U?$less@I@2@V?$allocator@U?$pair@$$CBIV?$vector@IV?$allocator@I@std@@@std@@@std@@@2@$0A@@std@@@std@@@std@@QAEXPAPAU_Node@?$_Tree_nod@V?$_Tmap_traits@IV?$vector@IV?$allocator@I@std@@@std@@U?$less@I@2@V?$allocator@U?$pair@$$CBIV?$vector@IV?$allocator@I@std@@@std@@@std@@@2@$0A@@std@@@2@@Z 00417830 f i PlayerCreator.obj
 0001:00016840       ?allocate@?$allocator@I@std@@QAEPAII@Z 00417840 f i PlayerCreator.obj
 0001:00016860       ??Econst_iterator@?$_Tree@V?$_Tmap_traits@IV?$vector@IV?$allocator@I@std@@@std@@U?$less@I@2@V?$allocator@U?$pair@$$CBIV?$vector@IV?$allocator@I@std@@@std@@@std@@@2@$0A@@std@@@std@@QAEAAV012@XZ 00417860 f i PlayerCreator.obj
 0001:00016870       ??Fconst_iterator@?$_Tree@V?$_Tmap_traits@IV?$vector@IV?$allocator@I@std@@@std@@U?$less@I@2@V?$allocator@U?$pair@$$CBIV?$vector@IV?$allocator@I@std@@@std@@@std@@@2@$0A@@std@@@std@@QAEAAV012@XZ 00417870 f i PlayerCreator.obj
 0001:00016880       ?max_size@?$vector@IV?$allocator@I@std@@@std@@QBEIXZ 00417880 f i PlayerCreator.obj
 0001:00016890       ?max_size@?$vector@V?$basic_string@DU?$char_traits@D@std@@V?$allocator@D@2@@std@@V?$allocator@V?$basic_string@DU?$char_traits@D@std@@V?$allocator@D@2@@std@@@2@@std@@QBEIXZ 00417890 f i PlayerCreator.obj
 0001:000168a0       ?allocate@?$allocator@V?$basic_string@DU?$char_traits@D@std@@V?$allocator@D@2@@std@@@std@@QAEPAV?$basic_string@DU?$char_traits@D@std@@V?$allocator@D@2@@2@I@Z 004178a0 f i PlayerCreator.obj
 0001:000168c0       ??G?$_Vector_iterator@IV?$allocator@I@std@@@std@@QBEHABV?$_Vector_const_iterator@IV?$allocator@I@std@@@1@@Z 004178c0 f i PlayerCreator.obj
 0001:000168f0       ??9?$_Vector_const_iterator@IV?$allocator@I@std@@@std@@QBE_NABV01@@Z 004178f0 f i PlayerCreator.obj
 0001:00016920       ?allocate@?$allocator@U_Node@?$_Tree_nod@V?$_Tmap_traits@IV?$vector@IV?$allocator@I@std@@@std@@U?$less@I@2@V?$allocator@U?$pair@$$CBIV?$vector@IV?$allocator@I@std@@@std@@@std@@@2@$0A@@std@@@std@@@std@@QAEPAU_Node@?$_Tree_nod@V?$_Tmap_traits@IV?$vector@IV?$allocator@I@std@@@std@@U?$less@I@2@V?$allocator@U?$pair@$$CBIV?$vector@IV?$allocator@I@std@@@std@@@std@@@2@$0A@@std@@@2@I@Z 00417920 f i PlayerCreator.obj
 0001:00016940       ??Y?$_Vector_iterator@IV?$allocator@I@std@@@std@@QAEAAV01@H@Z 00417940 f i PlayerCreator.obj
 0001:00016980       ??0?$_Vector_const_iterator@IV?$allocator@I@std@@@std@@QAE@PAIPBU_Container_base@1@@Z 00417980 f i PlayerCreator.obj
 0001:000169c0       ??0?$_Tree_nod@V?$_Tmap_traits@IV?$vector@IV?$allocator@I@std@@@std@@U?$less@I@2@V?$allocator@U?$pair@$$CBIV?$vector@IV?$allocator@I@std@@@std@@@std@@@2@$0A@@std@@@std@@IAE@ABU?$less@I@1@V?$allocator@U?$pair@$$CBIV?$vector@IV?$allocator@I@std@@@std@@@std@@@1@@Z 004179c0 f i PlayerCreator.obj
 0001:000169d0       ?construct@?$allocator@PAU_Node@?$_Tree_nod@V?$_Tmap_traits@IV?$vector@IV?$allocator@I@std@@@std@@U?$less@I@2@V?$allocator@U?$pair@$$CBIV?$vector@IV?$allocator@I@std@@@std@@@std@@@2@$0A@@std@@@std@@@std@@QAEXPAPAU_Node@?$_Tree_nod@V?$_Tmap_traits@IV?$vector@IV?$allocator@I@std@@@std@@U?$less@I@2@V?$allocator@U?$pair@$$CBIV?$vector@IV?$allocator@I@std@@@std@@@std@@@2@$0A@@std@@@2@ABQAU342@@Z 004179d0 f i PlayerCreator.obj
 0001:000169f0       ??$_Destroy_range@IV?$allocator@I@std@@@std@@YAXPAI0AAV?$allocator@I@0@@Z 004179f0 f i PlayerCreator.obj
 0001:00016a00       ??$_Checked_base@PAI@std@@YAPAIAAPAI@Z 00417a00 f i PlayerCreator.obj
 0001:00016a10       ??$_Move_backward_opt@PAIPAIUrandom_access_iterator_tag@std@@U_Undefined_move_tag@2@@std@@YAPAIPAI00Urandom_access_iterator_tag@0@U_Undefined_move_tag@0@U_Range_checked_iterator_tag@0@@Z 00417a10 f i PlayerCreator.obj
 0001:00016a40       ??$_Checked_base@V?$_Vector_const_iterator@IV?$allocator@I@std@@@std@@U_Different_checked_iterator_base_type_tag@2@@std@@YAPBIAAV?$_Vector_const_iterator@IV?$allocator@I@std@@@0@U_Different_checked_iterator_base_type_tag@0@@Z 00417a40 f i PlayerCreator.obj
 0001:00016a50       ??$_Fill_n@PAIII@std@@YAXPAIIABIUrandom_access_iterator_tag@0@U_Range_checked_iterator_tag@0@@Z 00417a50 f i PlayerCreator.obj
 0001:00016a80       ??$unchecked_uninitialized_copy@PAIPAIV?$allocator@I@std@@@stdext@@YAPAIPAI00AAV?$allocator@I@std@@@Z 00417a80 f i PlayerCreator.obj
 0001:00016ab0       ?begin@?$_Tree@V?$_Tmap_traits@IV?$vector@IV?$allocator@I@std@@@std@@U?$less@I@2@V?$allocator@U?$pair@$$CBIV?$vector@IV?$allocator@I@std@@@std@@@std@@@2@$0A@@std@@@std@@QAE?AViterator@12@XZ 00417ab0 f i PlayerCreator.obj
 0001:00016ad0       ?end@?$_Tree@V?$_Tmap_traits@IV?$vector@IV?$allocator@I@std@@@std@@U?$less@I@2@V?$allocator@U?$pair@$$CBIV?$vector@IV?$allocator@I@std@@@std@@@std@@@2@$0A@@std@@@std@@QAE?AViterator@12@XZ 00417ad0 f i PlayerCreator.obj
 0001:00016ae0       ??0iterator@?$_Tree@V?$_Tmap_traits@IV?$vector@IV?$allocator@I@std@@@std@@U?$less@I@2@V?$allocator@U?$pair@$$CBIV?$vector@IV?$allocator@I@std@@@std@@@std@@@2@$0A@@std@@@std@@QAE@XZ 00417ae0 f i PlayerCreator.obj
 0001:00016af0       ??Diterator@?$_Tree@V?$_Tmap_traits@IV?$vector@IV?$allocator@I@std@@@std@@U?$less@I@2@V?$allocator@U?$pair@$$CBIV?$vector@IV?$allocator@I@std@@@std@@@std@@@2@$0A@@std@@@std@@QBEAAU?$pair@$$CBIV?$vector@IV?$allocator@I@std@@@std@@@2@XZ 00417af0 f i PlayerCreator.obj
 0001:00016b20       ?begin@?$vector@V?$basic_string@DU?$char_traits@D@std@@V?$allocator@D@2@@std@@V?$allocator@V?$basic_string@DU?$char_traits@D@std@@V?$allocator@D@2@@std@@@2@@std@@QAE?AV?$_Vector_iterator@V?$basic_string@DU?$char_traits@D@std@@V?$allocator@D@2@@std@@V?$allocator@V?$basic_string@DU?$char_traits@D@std@@V?$allocator@D@2@@std@@@2@@2@XZ 00417b20 f i PlayerCreator.obj
 0001:00016b50       ?end@?$vector@V?$basic_string@DU?$char_traits@D@std@@V?$allocator@D@2@@std@@V?$allocator@V?$basic_string@DU?$char_traits@D@std@@V?$allocator@D@2@@std@@@2@@std@@QAE?AV?$_Vector_iterator@V?$basic_string@DU?$char_traits@D@std@@V?$allocator@D@2@@std@@V?$allocator@V?$basic_string@DU?$char_traits@D@std@@V?$allocator@D@2@@std@@@2@@2@XZ 00417b50 f i PlayerCreator.obj
 0001:00016b80       ??0?$_Vector_iterator@V?$basic_string@DU?$char_traits@D@std@@V?$allocator@D@2@@std@@V?$allocator@V?$basic_string@DU?$char_traits@D@std@@V?$allocator@D@2@@std@@@2@@std@@QAE@XZ 00417b80 f i PlayerCreator.obj
 0001:00016b90       ??E?$_Vector_iterator@V?$basic_string@DU?$char_traits@D@std@@V?$allocator@D@2@@std@@V?$allocator@V?$basic_string@DU?$char_traits@D@std@@V?$allocator@D@2@@std@@@2@@std@@QAE?AV01@H@Z 00417b90 f i PlayerCreator.obj
 0001:00016bd0       ?lower_bound@?$_Tree@V?$_Tmap_traits@IV?$vector@IV?$allocator@I@std@@@std@@U?$less@I@2@V?$allocator@U?$pair@$$CBIV?$vector@IV?$allocator@I@std@@@std@@@std@@@2@$0A@@std@@@std@@QAE?AViterator@12@ABI@Z 00417bd0 f i PlayerCreator.obj
 0001:00016c10       ??Eiterator@?$_Tree@V?$_Tmap_traits@IV?$vector@IV?$allocator@I@std@@@std@@U?$less@I@2@V?$allocator@U?$pair@$$CBIV?$vector@IV?$allocator@I@std@@@std@@@std@@@2@$0A@@std@@@std@@QAEAAV012@XZ 00417c10 f i PlayerCreator.obj
 0001:00016c20       ??Fiterator@?$_Tree@V?$_Tmap_traits@IV?$vector@IV?$allocator@I@std@@@std@@U?$less@I@2@V?$allocator@U?$pair@$$CBIV?$vector@IV?$allocator@I@std@@@std@@@std@@@2@$0A@@std@@@std@@QAEAAV012@XZ 00417c20 f i PlayerCreator.obj
 0001:00016c30       ?begin@?$vector@IV?$allocator@I@std@@@std@@QBE?AV?$_Vector_const_iterator@IV?$allocator@I@std@@@2@XZ 00417c30 f i PlayerCreator.obj
 0001:00016c60       ?end@?$vector@IV?$allocator@I@std@@@std@@QBE?AV?$_Vector_const_iterator@IV?$allocator@I@std@@@2@XZ 00417c60 f i PlayerCreator.obj
 0001:00016c90       ?_Destroy@?$vector@IV?$allocator@I@std@@@std@@IAEXPAI0@Z 00417c90 f i PlayerCreator.obj
 0001:00016ca0       ??0?$_Vector_iterator@IV?$allocator@I@std@@@std@@QAE@PAIPBU_Container_base@1@@Z 00417ca0 f i PlayerCreator.obj
 0001:00016ce0       ??H?$_Vector_iterator@IV?$allocator@I@std@@@std@@QBE?AV01@H@Z 00417ce0 f i PlayerCreator.obj
 0001:00016d20       ?_Buynode@?$_Tree@V?$_Tmap_traits@IV?$vector@IV?$allocator@I@std@@@std@@U?$less@I@2@V?$allocator@U?$pair@$$CBIV?$vector@IV?$allocator@I@std@@@std@@@std@@@2@$0A@@std@@@std@@IAEPAU_Node@?$_Tree_nod@V?$_Tmap_traits@IV?$vector@IV?$allocator@I@std@@@std@@U?$less@I@2@V?$allocator@U?$pair@$$CBIV?$vector@IV?$allocator@I@std@@@std@@@std@@@2@$0A@@std@@@2@XZ 00417d20 f i PlayerCreator.obj
 0001:00016d60       ??0?$_Tree_ptr@V?$_Tmap_traits@IV?$vector@IV?$allocator@I@std@@@std@@U?$less@I@2@V?$allocator@U?$pair@$$CBIV?$vector@IV?$allocator@I@std@@@std@@@std@@@2@$0A@@std@@@std@@IAE@ABU?$less@I@1@V?$allocator@U?$pair@$$CBIV?$vector@IV?$allocator@I@std@@@std@@@std@@@1@@Z 00417d60 f i PlayerCreator.obj
 0001:00016d70       ??$unchecked_copy@PAIPAI@stdext@@YAPAIPAI00@Z 00417d70 f i PlayerCreator.obj
 0001:00016db0       ??$fill@PAII@std@@YAXPAI0ABI@Z 00417db0 f i PlayerCreator.obj
 0001:00016dd0       ??$_Unchecked_move_backward@PAIPAI@stdext@@YAPAIPAI00@Z 00417dd0 f i PlayerCreator.obj
 0001:00016e00       ??$_Checked_base@V?$_Vector_const_iterator@IV?$allocator@I@std@@@std@@@std@@YAPBIAAV?$_Vector_const_iterator@IV?$allocator@I@std@@@0@@Z 00417e00 f i PlayerCreator.obj
 0001:00016e10       ??$unchecked_fill_n@PAIII@stdext@@YAXPAIIABI@Z 00417e10 f i PlayerCreator.obj
 0001:00016e40       ??$_Uninit_move@PAIPAIV?$allocator@I@std@@U_Undefined_move_tag@2@@std@@YAPAIPAI00AAV?$allocator@I@0@U_Undefined_move_tag@0@U_Range_checked_iterator_tag@0@@Z 00417e40 f i PlayerCreator.obj
 0001:00016e70       ?find@?$_Tree@V?$_Tmap_traits@IV?$vector@IV?$allocator@I@std@@@std@@U?$less@I@2@V?$allocator@U?$pair@$$CBIV?$vector@IV?$allocator@I@std@@@std@@@std@@@2@$0A@@std@@@std@@QAE?AViterator@12@ABI@Z 00417e70 f i PlayerCreator.obj
 0001:00016ee0       ??Eiterator@?$_Tree@V?$_Tmap_traits@IV?$vector@IV?$allocator@I@std@@@std@@U?$less@I@2@V?$allocator@U?$pair@$$CBIV?$vector@IV?$allocator@I@std@@@std@@@std@@@2@$0A@@std@@@std@@QAE?AV012@H@Z 00417ee0 f i PlayerCreator.obj
 0001:00016f00       ?begin@?$vector@IV?$allocator@I@std@@@std@@QAE?AV?$_Vector_iterator@IV?$allocator@I@std@@@2@XZ 00417f00 f i PlayerCreator.obj
 0001:00016f30       ?end@?$vector@IV?$allocator@I@std@@@std@@QAE?AV?$_Vector_iterator@IV?$allocator@I@std@@@2@XZ 00417f30 f i PlayerCreator.obj
 0001:00016f60       ?erase@?$vector@IV?$allocator@I@std@@@std@@QAE?AV?$_Vector_iterator@IV?$allocator@I@std@@@2@V32@0@Z 00417f60 f i PlayerCreator.obj
 0001:00016fc0       ?_Tidy@?$vector@IV?$allocator@I@std@@@std@@IAEXXZ 00417fc0 f i PlayerCreator.obj
 0001:00016ff0       ?_Init@?$_Tree@V?$_Tmap_traits@IV?$vector@IV?$allocator@I@std@@@std@@U?$less@I@2@V?$allocator@U?$pair@$$CBIV?$vector@IV?$allocator@I@std@@@std@@@std@@@2@$0A@@std@@@std@@IAEXXZ 00417ff0 f i PlayerCreator.obj
 0001:00017020       ??0?$_Tree_val@V?$_Tmap_traits@IV?$vector@IV?$allocator@I@std@@@std@@U?$less@I@2@V?$allocator@U?$pair@$$CBIV?$vector@IV?$allocator@I@std@@@std@@@std@@@2@$0A@@std@@@std@@IAE@ABU?$less@I@1@V?$allocator@U?$pair@$$CBIV?$vector@IV?$allocator@I@std@@@std@@@std@@@1@@Z 00418020 f i PlayerCreator.obj
 0001:00017030       ??$unchecked_uninitialized_copy@V?$_Vector_const_iterator@IV?$allocator@I@std@@@std@@PAIV?$allocator@I@2@@stdext@@YAPAIV?$_Vector_const_iterator@IV?$allocator@I@std@@@std@@0PAIAAV?$allocator@I@2@@Z 00418030 f i PlayerCreator.obj
 0001:00017060       ??$_Uninit_fill_n@PAIIIV?$allocator@I@std@@@std@@YAXPAIIABIAAV?$allocator@I@0@U_Scalar_ptr_iterator_tag@0@U_Range_checked_iterator_tag@0@@Z 00418060 f i PlayerCreator.obj
 0001:00017090       ??$_Unchecked_uninitialized_move@PAIPAIV?$allocator@I@std@@@stdext@@YAPAIPAI00AAV?$allocator@I@std@@@Z 00418090 f i PlayerCreator.obj
 0001:000170c0       ??_G?$basic_string@DU?$char_traits@D@std@@V?$allocator@D@2@@std@@QAEPAXI@Z 004180c0 f i PlayerCreator.obj
 0001:00017100       ?GetRevivalID@CPlayerCreator@@QAEIII@Z 00418100 f   PlayerCreator.obj
 0001:000171a0       ?GetRoleData@CPlayerCreator@@QAEPBUTRoleData@@AAIPAUtagRoleGeneratorParam@1@@Z 004181a0 f   PlayerCreator.obj
 0001:00017260       ??1?$vector@IV?$allocator@I@std@@@std@@QAE@XZ 00418260 f i PlayerCreator.obj
 0001:00017290       ?clear@?$vector@IV?$allocator@I@std@@@std@@QAEXXZ 00418290 f i PlayerCreator.obj
 0001:000172d0       ??0?$_Tree@V?$_Tmap_traits@IV?$vector@IV?$allocator@I@std@@@std@@U?$less@I@2@V?$allocator@U?$pair@$$CBIV?$vector@IV?$allocator@I@std@@@std@@@std@@@2@$0A@@std@@@std@@QAE@ABU?$less@I@1@ABV?$allocator@U?$pair@$$CBIV?$vector@IV?$allocator@I@std@@@std@@@std@@@1@@Z 004182d0 f i PlayerCreator.obj
 0001:00017300       ??$_Ucopy@V?$_Vector_const_iterator@IV?$allocator@I@std@@@std@@@?$vector@IV?$allocator@I@std@@@std@@IAEPAIV?$_Vector_const_iterator@IV?$allocator@I@std@@@1@0PAI@Z 00418300 f i PlayerCreator.obj
 0001:00017330       ??$unchecked_uninitialized_fill_n@PAIIIV?$allocator@I@std@@@stdext@@YAXPAIIABIAAV?$allocator@I@std@@@Z 00418330 f i PlayerCreator.obj
 0001:00017360       ??$_Umove@PAI@?$vector@IV?$allocator@I@std@@@std@@IAEPAIPAI00@Z 00418360 f i PlayerCreator.obj
 0001:00017390       ??$_Destroy@V?$basic_string@DU?$char_traits@D@std@@V?$allocator@D@2@@std@@@std@@YAXPAV?$basic_string@DU?$char_traits@D@std@@V?$allocator@D@2@@0@@Z 00418390 f i PlayerCreator.obj
 0001:000173c0       ??1?$pair@$$CBIV?$vector@IV?$allocator@I@std@@@std@@@std@@QAE@XZ 004183c0 f i PlayerCreator.obj
 0001:000173f0       ?_Ufill@?$vector@IV?$allocator@I@std@@@std@@IAEPAIPAIIABI@Z 004183f0 f i PlayerCreator.obj
 0001:00017420       ??1_Node@?$_Tree_nod@V?$_Tmap_traits@IV?$vector@IV?$allocator@I@std@@@std@@U?$less@I@2@V?$allocator@U?$pair@$$CBIV?$vector@IV?$allocator@I@std@@@std@@@std@@@2@$0A@@std@@@std@@QAE@XZ 00418420 f i PlayerCreator.obj
 0001:00017450       ?destroy@?$allocator@V?$basic_string@DU?$char_traits@D@std@@V?$allocator@D@2@@std@@@std@@QAEXPAV?$basic_string@DU?$char_traits@D@std@@V?$allocator@D@2@@2@@Z 00418450 f i PlayerCreator.obj
 0001:00017480       ?_Xlen@?$vector@IV?$allocator@I@std@@@std@@KAXXZ 00418480 f i PlayerCreator.obj
 0001:00017500       ?_Xlen@?$vector@V?$basic_string@DU?$char_traits@D@std@@V?$allocator@D@2@@std@@V?$allocator@V?$basic_string@DU?$char_traits@D@std@@V?$allocator@D@2@@std@@@2@@std@@KAXXZ 00418500 f i PlayerCreator.obj
 0001:00017580       ??_G_Node@?$_Tree_nod@V?$_Tmap_traits@IV?$vector@IV?$allocator@I@std@@@std@@U?$less@I@2@V?$allocator@U?$pair@$$CBIV?$vector@IV?$allocator@I@std@@@std@@@std@@@2@$0A@@std@@@std@@QAEPAXI@Z 00418580 f i PlayerCreator.obj
 0001:000175c0       ??$_Destroy_range@V?$basic_string@DU?$char_traits@D@std@@V?$allocator@D@2@@std@@V?$allocator@V?$basic_string@DU?$char_traits@D@std@@V?$allocator@D@2@@std@@@2@@std@@YAXPAV?$basic_string@DU?$char_traits@D@std@@V?$allocator@D@2@@0@0AAV?$allocator@V?$basic_string@DU?$char_traits@D@std@@V?$allocator@D@2@@std@@@0@U_Nonscalar_ptr_iterator_tag@0@@Z 004185c0 f i PlayerCreator.obj
 0001:00017600       ?_Buy@?$vector@IV?$allocator@I@std@@@std@@IAE_NI@Z 00418600 f i PlayerCreator.obj
 0001:00017650       ?_Buy@?$vector@V?$basic_string@DU?$char_traits@D@std@@V?$allocator@D@2@@std@@V?$allocator@V?$basic_string@DU?$char_traits@D@std@@V?$allocator@D@2@@std@@@2@@std@@IAE_NI@Z 00418650 f i PlayerCreator.obj
 0001:000176b0       ?_Insert_n@?$vector@IV?$allocator@I@std@@@std@@IAEXV?$_Vector_iterator@IV?$allocator@I@std@@@2@IABI@Z 004186b0 f i PlayerCreator.obj
 0001:00017870       ??$_Destroy@U_Node@?$_Tree_nod@V?$_Tmap_traits@IV?$vector@IV?$allocator@I@std@@@std@@U?$less@I@2@V?$allocator@U?$pair@$$CBIV?$vector@IV?$allocator@I@std@@@std@@@std@@@2@$0A@@std@@@std@@@std@@YAXPAU_Node@?$_Tree_nod@V?$_Tmap_traits@IV?$vector@IV?$allocator@I@std@@@std@@U?$less@I@2@V?$allocator@U?$pair@$$CBIV?$vector@IV?$allocator@I@std@@@std@@@std@@@2@$0A@@std@@@0@@Z 00418870 f i PlayerCreator.obj
 0001:000178a0       ??$_Destroy_range@V?$basic_string@DU?$char_traits@D@std@@V?$allocator@D@2@@std@@V?$allocator@V?$basic_string@DU?$char_traits@D@std@@V?$allocator@D@2@@std@@@2@@std@@YAXPAV?$basic_string@DU?$char_traits@D@std@@V?$allocator@D@2@@0@0AAV?$allocator@V?$basic_string@DU?$char_traits@D@std@@V?$allocator@D@2@@std@@@0@@Z 004188a0 f i PlayerCreator.obj
 0001:000178c0       ??0?$vector@IV?$allocator@I@std@@@std@@QAE@XZ 004188c0 f i PlayerCreator.obj
 0001:000178d0       ??0?$vector@V?$basic_string@DU?$char_traits@D@std@@V?$allocator@D@2@@std@@V?$allocator@V?$basic_string@DU?$char_traits@D@std@@V?$allocator@D@2@@std@@@2@@std@@QAE@XZ 004188d0 f i PlayerCreator.obj
 0001:000178e0       ??0?$vector@IV?$allocator@I@std@@@std@@QAE@ABV01@@Z 004188e0 f i PlayerCreator.obj
 0001:00017980       ?insert@?$vector@IV?$allocator@I@std@@@std@@QAE?AV?$_Vector_iterator@IV?$allocator@I@std@@@2@V32@ABI@Z 00418980 f i PlayerCreator.obj
 0001:00017a10       ?destroy@?$allocator@U_Node@?$_Tree_nod@V?$_Tmap_traits@IV?$vector@IV?$allocator@I@std@@@std@@U?$less@I@2@V?$allocator@U?$pair@$$CBIV?$vector@IV?$allocator@I@std@@@std@@@std@@@2@$0A@@std@@@std@@@std@@QAEXPAU_Node@?$_Tree_nod@V?$_Tmap_traits@IV?$vector@IV?$allocator@I@std@@@std@@U?$less@I@2@V?$allocator@U?$pair@$$CBIV?$vector@IV?$allocator@I@std@@@std@@@std@@@2@$0A@@std@@@2@@Z 00418a10 f i PlayerCreator.obj
 0001:00017a40       ?_Destroy@?$vector@V?$basic_string@DU?$char_traits@D@std@@V?$allocator@D@2@@std@@V?$allocator@V?$basic_string@DU?$char_traits@D@std@@V?$allocator@D@2@@std@@@2@@std@@IAEXPAV?$basic_string@DU?$char_traits@D@std@@V?$allocator@D@2@@2@0@Z 00418a40 f i PlayerCreator.obj
 0001:00017a60       ??0?$pair@$$CBIV?$vector@IV?$allocator@I@std@@@std@@@std@@QAE@ABU01@@Z 00418a60 f i PlayerCreator.obj
 0001:00017a80       ??0?$pair@$$CBIV?$vector@IV?$allocator@I@std@@@std@@@std@@QAE@ABIABV?$vector@IV?$allocator@I@std@@@1@@Z 00418a80 f i PlayerCreator.obj
 0001:00017aa0       ?push_back@?$vector@IV?$allocator@I@std@@@std@@QAEXABI@Z 00418aa0 f i PlayerCreator.obj
 0001:00017b10       ?erase@?$_Tree@V?$_Tmap_traits@IV?$vector@IV?$allocator@I@std@@@std@@U?$less@I@2@V?$allocator@U?$pair@$$CBIV?$vector@IV?$allocator@I@std@@@std@@@std@@@2@$0A@@std@@@std@@QAE?AViterator@12@V312@@Z 00418b10 f i PlayerCreator.obj
 0001:00017df0       ?_Tidy@?$vector@V?$basic_string@DU?$char_traits@D@std@@V?$allocator@D@2@@std@@V?$allocator@V?$basic_string@DU?$char_traits@D@std@@V?$allocator@D@2@@std@@@2@@std@@IAEXXZ 00418df0 f i PlayerCreator.obj
 0001:00017e30       ?_Erase@?$_Tree@V?$_Tmap_traits@IV?$vector@IV?$allocator@I@std@@@std@@U?$less@I@2@V?$allocator@U?$pair@$$CBIV?$vector@IV?$allocator@I@std@@@std@@@std@@@2@$0A@@std@@@std@@IAEXPAU_Node@?$_Tree_nod@V?$_Tmap_traits@IV?$vector@IV?$allocator@I@std@@@std@@U?$less@I@2@V?$allocator@U?$pair@$$CBIV?$vector@IV?$allocator@I@std@@@std@@@std@@@2@$0A@@std@@@2@@Z 00418e30 f i PlayerCreator.obj
 0001:00017e80       ??0_Node@?$_Tree_nod@V?$_Tmap_traits@IV?$vector@IV?$allocator@I@std@@@std@@U?$less@I@2@V?$allocator@U?$pair@$$CBIV?$vector@IV?$allocator@I@std@@@std@@@std@@@2@$0A@@std@@@std@@QAE@PAU012@00ABU?$pair@$$CBIV?$vector@IV?$allocator@I@std@@@std@@@2@D@Z 00418e80 f i PlayerCreator.obj
 0001:00017ec0       ??1?$vector@V?$basic_string@DU?$char_traits@D@std@@V?$allocator@D@2@@std@@V?$allocator@V?$basic_string@DU?$char_traits@D@std@@V?$allocator@D@2@@std@@@2@@std@@QAE@XZ 00418ec0 f i PlayerCreator.obj
 0001:00017f00       ?clear@?$_Tree@V?$_Tmap_traits@IV?$vector@IV?$allocator@I@std@@@std@@U?$less@I@2@V?$allocator@U?$pair@$$CBIV?$vector@IV?$allocator@I@std@@@std@@@std@@@2@$0A@@std@@@std@@QAEXXZ 00418f00 f i PlayerCreator.obj
 0001:00017f30       ?_Buynode@?$_Tree@V?$_Tmap_traits@IV?$vector@IV?$allocator@I@std@@@std@@U?$less@I@2@V?$allocator@U?$pair@$$CBIV?$vector@IV?$allocator@I@std@@@std@@@std@@@2@$0A@@std@@@std@@IAEPAU_Node@?$_Tree_nod@V?$_Tmap_traits@IV?$vector@IV?$allocator@I@std@@@std@@U?$less@I@2@V?$allocator@U?$pair@$$CBIV?$vector@IV?$allocator@I@std@@@std@@@std@@@2@$0A@@std@@@2@PAU342@00ABU?$pair@$$CBIV?$vector@IV?$allocator@I@std@@@std@@@2@D@Z 00418f30 f i PlayerCreator.obj
 0001:00017fe0       ?erase@?$_Tree@V?$_Tmap_traits@IV?$vector@IV?$allocator@I@std@@@std@@U?$less@I@2@V?$allocator@U?$pair@$$CBIV?$vector@IV?$allocator@I@std@@@std@@@std@@@2@$0A@@std@@@std@@QAE?AViterator@12@V312@0@Z 00418fe0 f i PlayerCreator.obj
 0001:000180b0       ?_Insert@?$_Tree@V?$_Tmap_traits@IV?$vector@IV?$allocator@I@std@@@std@@U?$less@I@2@V?$allocator@U?$pair@$$CBIV?$vector@IV?$allocator@I@std@@@std@@@std@@@2@$0A@@std@@@std@@IAE?AViterator@12@_NPAU_Node@?$_Tree_nod@V?$_Tmap_traits@IV?$vector@IV?$allocator@I@std@@@std@@U?$less@I@2@V?$allocator@U?$pair@$$CBIV?$vector@IV?$allocator@I@std@@@std@@@std@@@2@$0A@@std@@@2@ABU?$pair@$$CBIV?$vector@IV?$allocator@I@std@@@std@@@2@@Z 004190b0 f i PlayerCreator.obj
 0001:000182b0       ?_Tidy@?$_Tree@V?$_Tmap_traits@IV?$vector@IV?$allocator@I@std@@@std@@U?$less@I@2@V?$allocator@U?$pair@$$CBIV?$vector@IV?$allocator@I@std@@@std@@@std@@@2@$0A@@std@@@std@@IAEXXZ 004192b0 f i PlayerCreator.obj
 0001:000182f0       ??1?$_Tree@V?$_Tmap_traits@IV?$vector@IV?$allocator@I@std@@@std@@U?$less@I@2@V?$allocator@U?$pair@$$CBIV?$vector@IV?$allocator@I@std@@@std@@@std@@@2@$0A@@std@@@std@@QAE@XZ 004192f0 f i PlayerCreator.obj
 0001:00018330       ?insert@?$_Tree@V?$_Tmap_traits@IV?$vector@IV?$allocator@I@std@@@std@@U?$less@I@2@V?$allocator@U?$pair@$$CBIV?$vector@IV?$allocator@I@std@@@std@@@std@@@2@$0A@@std@@@std@@QAE?AU?$pair@Viterator@?$_Tree@V?$_Tmap_traits@IV?$vector@IV?$allocator@I@std@@@std@@U?$less@I@2@V?$allocator@U?$pair@$$CBIV?$vector@IV?$allocator@I@std@@@std@@@std@@@2@$0A@@std@@@std@@_N@2@ABU?$pair@$$CBIV?$vector@IV?$allocator@I@std@@@std@@@2@@Z 00419330 f i PlayerCreator.obj
 0001:000183f0       ??1?$map@IV?$vector@IV?$allocator@I@std@@@std@@U?$less@I@2@V?$allocator@U?$pair@$$CBIV?$vector@IV?$allocator@I@std@@@std@@@std@@@2@@std@@QAE@XZ 004193f0 f i PlayerCreator.obj
 0001:00018430       ??1CPlayerCreator@@QAE@XZ  00419430 f   PlayerCreator.obj
 0001:00018590       ?Init@CPlayerCreator@@AAE_NXZ 00419590 f   PlayerCreator.obj
 0001:00018b30       ??0?$map@IV?$vector@IV?$allocator@I@std@@@std@@U?$less@I@2@V?$allocator@U?$pair@$$CBIV?$vector@IV?$allocator@I@std@@@std@@@std@@@2@@std@@QAE@XZ 00419b30 f i PlayerCreator.obj
 0001:00018b60       ??0CPlayerCreator@@QAE@XZ  00419b60 f   PlayerCreator.obj
 0001:00018bf0       ?gGetMacAndIPAddress@@YAHPAEPAK01KK@Z 00419bf0 f i SmartClient.obj
 0001:00018e30       ?IsNormal@CSmartClient@@AAE_NXZ 00419e30 f   SmartClient.obj
 0001:00018e60       ?IsConnecting@CSmartClient@@AAE_NXZ 00419e60 f   SmartClient.obj
 0001:00018e90       ?IsVerifying@CSmartClient@@AAE_NXZ 00419e90 f   SmartClient.obj
 0001:00018ec0       ?IsError@CSmartClient@@AAE_NXZ 00419ec0 f   SmartClient.obj
 0001:00018ef0       ?SetClientStatus@CSmartClient@@AAE_NW4enumClientStatus@1@@Z 00419ef0 f   SmartClient.obj
 0001:00018f80       ?_Nextnode@?$list@PAVCBuffer@Win32@OnlineGameLib@@V?$allocator@PAVCBuffer@Win32@OnlineGameLib@@@std@@@std@@KAAAPAU_Node@?$_List_nod@PAVCBuffer@Win32@OnlineGameLib@@V?$allocator@PAVCBuffer@Win32@OnlineGameLib@@@std@@@2@PAU342@@Z 00419f80 f i SmartClient.obj
 0001:00018f90       ?_Prevnode@?$list@PAVCBuffer@Win32@OnlineGameLib@@V?$allocator@PAVCBuffer@Win32@OnlineGameLib@@@std@@@std@@KAAAPAU_Node@?$_List_nod@PAVCBuffer@Win32@OnlineGameLib@@V?$allocator@PAVCBuffer@Win32@OnlineGameLib@@@std@@@2@PAU342@@Z 00419f90 f i SmartClient.obj
 0001:00018fa0       ??0?$allocator@PAVCBuffer@Win32@OnlineGameLib@@@std@@QAE@XZ 00419fa0 f i SmartClient.obj
 0001:00018fb0       ?deallocate@?$allocator@U_Node@?$_List_nod@PAVCBuffer@Win32@OnlineGameLib@@V?$allocator@PAVCBuffer@Win32@OnlineGameLib@@@std@@@std@@@std@@QAEXPAU_Node@?$_List_nod@PAVCBuffer@Win32@OnlineGameLib@@V?$allocator@PAVCBuffer@Win32@OnlineGameLib@@@std@@@2@I@Z 00419fb0 f i SmartClient.obj
 0001:00018fc0       ??8?$_Const_iterator@$00@?$list@PAVCBuffer@Win32@OnlineGameLib@@V?$allocator@PAVCBuffer@Win32@OnlineGameLib@@@std@@@std@@QBE_NABV012@@Z 00419fc0 f i SmartClient.obj
 0001:00018ff0       ??0?$_Bidit@PAVCBuffer@Win32@OnlineGameLib@@HPBQAV123@ABQAV123@@std@@QAE@XZ 00419ff0 f i SmartClient.obj
 0001:00019000       ?_Myval@?$list@PAVCBuffer@Win32@OnlineGameLib@@V?$allocator@PAVCBuffer@Win32@OnlineGameLib@@@std@@@std@@KAAAPAVCBuffer@Win32@OnlineGameLib@@PAU_Node@?$_List_nod@PAVCBuffer@Win32@OnlineGameLib@@V?$allocator@PAVCBuffer@Win32@OnlineGameLib@@@std@@@2@@Z 0041a000 f i SmartClient.obj
 0001:00019010       ??0?$allocator@PAVCBuffer@Win32@OnlineGameLib@@@std@@QAE@ABV01@@Z 0041a010 f i SmartClient.obj
 0001:00019020       ??0?$_Const_iterator@$00@?$list@PAVCBuffer@Win32@OnlineGameLib@@V?$allocator@PAVCBuffer@Win32@OnlineGameLib@@@std@@@std@@QAE@PAU_Node@?$_List_nod@PAVCBuffer@Win32@OnlineGameLib@@V?$allocator@PAVCBuffer@Win32@OnlineGameLib@@@std@@@2@PBV12@@Z 0041a020 f i SmartClient.obj
 0001:00019050       ??E?$_Const_iterator@$00@?$list@PAVCBuffer@Win32@OnlineGameLib@@V?$allocator@PAVCBuffer@Win32@OnlineGameLib@@@std@@@std@@QAEAAV012@XZ 0041a050 f i SmartClient.obj
 0001:00019080       ?_Mynode@?$_Const_iterator@$00@?$list@PAVCBuffer@Win32@OnlineGameLib@@V?$allocator@PAVCBuffer@Win32@OnlineGameLib@@@std@@@std@@QBEPAU_Node@?$_List_nod@PAVCBuffer@Win32@OnlineGameLib@@V?$allocator@PAVCBuffer@Win32@OnlineGameLib@@@std@@@3@XZ 0041a080 f i SmartClient.obj
 0001:00019090       ?max_size@?$allocator@PAVCBuffer@Win32@OnlineGameLib@@@std@@QBEIXZ 0041a090 f i SmartClient.obj
 0001:000190a0       ??$_Destroy@U_Node@?$_List_nod@PAVCBuffer@Win32@OnlineGameLib@@V?$allocator@PAVCBuffer@Win32@OnlineGameLib@@@std@@@std@@@std@@YAXPAU_Node@?$_List_nod@PAVCBuffer@Win32@OnlineGameLib@@V?$allocator@PAVCBuffer@Win32@OnlineGameLib@@@std@@@0@@Z 0041a0a0 f i SmartClient.obj
 0001:000190b0       ??$?0PAVCBuffer@Win32@OnlineGameLib@@@?$allocator@PAU_Node@?$_List_nod@PAVCBuffer@Win32@OnlineGameLib@@V?$allocator@PAVCBuffer@Win32@OnlineGameLib@@@std@@@std@@@std@@QAE@ABV?$allocator@PAVCBuffer@Win32@OnlineGameLib@@@1@@Z 0041a0b0 f i SmartClient.obj
 0001:000190c0       ??$_Allocate@U_Node@?$_List_nod@PAVCBuffer@Win32@OnlineGameLib@@V?$allocator@PAVCBuffer@Win32@OnlineGameLib@@@std@@@std@@@std@@YAPAU_Node@?$_List_nod@PAVCBuffer@Win32@OnlineGameLib@@V?$allocator@PAVCBuffer@Win32@OnlineGameLib@@@std@@@0@IPAU120@@Z 0041a0c0 f i SmartClient.obj
 0001:00019120       ??$_Construct@PAU_Node@?$_List_nod@PAVCBuffer@Win32@OnlineGameLib@@V?$allocator@PAVCBuffer@Win32@OnlineGameLib@@@std@@@std@@PAU123@@std@@YAXPAPAU_Node@?$_List_nod@PAVCBuffer@Win32@OnlineGameLib@@V?$allocator@PAVCBuffer@Win32@OnlineGameLib@@@std@@@0@ABQAU120@@Z 0041a120 f i SmartClient.obj
 0001:00019140       ??$_Destroy@PAU_Node@?$_List_nod@PAVCBuffer@Win32@OnlineGameLib@@V?$allocator@PAVCBuffer@Win32@OnlineGameLib@@@std@@@std@@@std@@YAXPAPAU_Node@?$_List_nod@PAVCBuffer@Win32@OnlineGameLib@@V?$allocator@PAVCBuffer@Win32@OnlineGameLib@@@std@@@0@@Z 0041a140 f i SmartClient.obj
 0001:00019150       ??$?0PAVCBuffer@Win32@OnlineGameLib@@@?$allocator@U_Node@?$_List_nod@PAVCBuffer@Win32@OnlineGameLib@@V?$allocator@PAVCBuffer@Win32@OnlineGameLib@@@std@@@std@@@std@@QAE@ABV?$allocator@PAVCBuffer@Win32@OnlineGameLib@@@1@@Z 0041a150 f i SmartClient.obj
 0001:00019160       ??$_Construct@PAVCBuffer@Win32@OnlineGameLib@@PAV123@@std@@YAXPAPAVCBuffer@Win32@OnlineGameLib@@ABQAV123@@Z 0041a160 f i SmartClient.obj
 0001:00019180       ?Close@CSmartClient@@QAEXXZ 0041a180 f   SmartClient.obj
 0001:00019190       ?Recv@CSmartClient@@QAEPBXAAI@Z 0041a190 f   SmartClient.obj
 0001:000191d0       ?SwitchToConnecting@CSmartClient@@AAEXXZ 0041a1d0 f   SmartClient.obj
 0001:000191f0       ??9?$_Const_iterator@$00@?$list@PAVCBuffer@Win32@OnlineGameLib@@V?$allocator@PAVCBuffer@Win32@OnlineGameLib@@@std@@@std@@QBE_NABV012@@Z 0041a1f0 f i SmartClient.obj
 0001:00019220       ?destroy@?$allocator@U_Node@?$_List_nod@PAVCBuffer@Win32@OnlineGameLib@@V?$allocator@PAVCBuffer@Win32@OnlineGameLib@@@std@@@std@@@std@@QAEXPAU_Node@?$_List_nod@PAVCBuffer@Win32@OnlineGameLib@@V?$allocator@PAVCBuffer@Win32@OnlineGameLib@@@std@@@2@@Z 0041a220 f i SmartClient.obj
 0001:00019230       ??0?$_Iterator@$00@?$list@PAVCBuffer@Win32@OnlineGameLib@@V?$allocator@PAVCBuffer@Win32@OnlineGameLib@@@std@@@std@@QAE@PAU_Node@?$_List_nod@PAVCBuffer@Win32@OnlineGameLib@@V?$allocator@PAVCBuffer@Win32@OnlineGameLib@@@std@@@2@PBV12@@Z 0041a230 f i SmartClient.obj
 0001:00019260       ??E?$_Iterator@$00@?$list@PAVCBuffer@Win32@OnlineGameLib@@V?$allocator@PAVCBuffer@Win32@OnlineGameLib@@@std@@@std@@QAEAAV012@XZ 0041a260 f i SmartClient.obj
 0001:00019290       ??0?$_Const_iterator@$00@?$list@PAVCBuffer@Win32@OnlineGameLib@@V?$allocator@PAVCBuffer@Win32@OnlineGameLib@@@std@@@std@@QAE@XZ 0041a290 f i SmartClient.obj
 0001:000192a0       ??D?$_Const_iterator@$00@?$list@PAVCBuffer@Win32@OnlineGameLib@@V?$allocator@PAVCBuffer@Win32@OnlineGameLib@@@std@@@std@@QBEABQAVCBuffer@Win32@OnlineGameLib@@XZ 0041a2a0 f i SmartClient.obj
 0001:000192d0       ?allocate@?$allocator@U_Node@?$_List_nod@PAVCBuffer@Win32@OnlineGameLib@@V?$allocator@PAVCBuffer@Win32@OnlineGameLib@@@std@@@std@@@std@@QAEPAU_Node@?$_List_nod@PAVCBuffer@Win32@OnlineGameLib@@V?$allocator@PAVCBuffer@Win32@OnlineGameLib@@@std@@@2@I@Z 0041a2d0 f i SmartClient.obj
 0001:000192f0       ?construct@?$allocator@PAU_Node@?$_List_nod@PAVCBuffer@Win32@OnlineGameLib@@V?$allocator@PAVCBuffer@Win32@OnlineGameLib@@@std@@@std@@@std@@QAEXPAPAU_Node@?$_List_nod@PAVCBuffer@Win32@OnlineGameLib@@V?$allocator@PAVCBuffer@Win32@OnlineGameLib@@@std@@@2@ABQAU342@@Z 0041a2f0 f i SmartClient.obj
 0001:00019310       ?destroy@?$allocator@PAU_Node@?$_List_nod@PAVCBuffer@Win32@OnlineGameLib@@V?$allocator@PAVCBuffer@Win32@OnlineGameLib@@@std@@@std@@@std@@QAEXPAPAU_Node@?$_List_nod@PAVCBuffer@Win32@OnlineGameLib@@V?$allocator@PAVCBuffer@Win32@OnlineGameLib@@@std@@@2@@Z 0041a310 f i SmartClient.obj
 0001:00019320       ?max_size@?$list@PAVCBuffer@Win32@OnlineGameLib@@V?$allocator@PAVCBuffer@Win32@OnlineGameLib@@@std@@@std@@QBEIXZ 0041a320 f i SmartClient.obj
 0001:00019330       ??0?$_List_nod@PAVCBuffer@Win32@OnlineGameLib@@V?$allocator@PAVCBuffer@Win32@OnlineGameLib@@@std@@@std@@IAE@V?$allocator@PAVCBuffer@Win32@OnlineGameLib@@@1@@Z 0041a330 f i SmartClient.obj
 0001:00019340       ?construct@?$allocator@PAVCBuffer@Win32@OnlineGameLib@@@std@@QAEXPAPAVCBuffer@Win32@OnlineGameLib@@ABQAV345@@Z 0041a340 f i SmartClient.obj
 0001:00019360       ?_EventNotify@CSmartClient@@IAEXABK@Z 0041a360 f   SmartClient.obj
 0001:000193b0       ?begin@?$list@PAVCBuffer@Win32@OnlineGameLib@@V?$allocator@PAVCBuffer@Win32@OnlineGameLib@@@std@@@std@@QAE?AV?$_Iterator@$00@12@XZ 0041a3b0 f i SmartClient.obj
 0001:000193d0       ?end@?$list@PAVCBuffer@Win32@OnlineGameLib@@V?$allocator@PAVCBuffer@Win32@OnlineGameLib@@@std@@@std@@QAE?AV?$_Iterator@$00@12@XZ 0041a3d0 f i SmartClient.obj
 0001:000193e0       ?clear@?$list@PAVCBuffer@Win32@OnlineGameLib@@V?$allocator@PAVCBuffer@Win32@OnlineGameLib@@@std@@@std@@QAEXXZ 0041a3e0 f i SmartClient.obj
 0001:00019420       ??0?$_Iterator@$00@?$list@PAVCBuffer@Win32@OnlineGameLib@@V?$allocator@PAVCBuffer@Win32@OnlineGameLib@@@std@@@std@@QAE@XZ 0041a420 f i SmartClient.obj
 0001:00019430       ??D?$_Iterator@$00@?$list@PAVCBuffer@Win32@OnlineGameLib@@V?$allocator@PAVCBuffer@Win32@OnlineGameLib@@@std@@@std@@QBEAAPAVCBuffer@Win32@OnlineGameLib@@XZ 0041a430 f i SmartClient.obj
 0001:00019460       ??E?$_Iterator@$00@?$list@PAVCBuffer@Win32@OnlineGameLib@@V?$allocator@PAVCBuffer@Win32@OnlineGameLib@@@std@@@std@@QAE?AV012@H@Z 0041a460 f i SmartClient.obj
 0001:000194a0       ?_Buynode@?$list@PAVCBuffer@Win32@OnlineGameLib@@V?$allocator@PAVCBuffer@Win32@OnlineGameLib@@@std@@@std@@IAEPAU_Node@?$_List_nod@PAVCBuffer@Win32@OnlineGameLib@@V?$allocator@PAVCBuffer@Win32@OnlineGameLib@@@std@@@2@XZ 0041a4a0 f i SmartClient.obj
 0001:000194c0       ?_Tidy@?$list@PAVCBuffer@Win32@OnlineGameLib@@V?$allocator@PAVCBuffer@Win32@OnlineGameLib@@@std@@@std@@IAEXXZ 0041a4c0 f i SmartClient.obj
 0001:00019510       ?_Buynode@?$list@PAVCBuffer@Win32@OnlineGameLib@@V?$allocator@PAVCBuffer@Win32@OnlineGameLib@@@std@@@std@@IAEPAU_Node@?$_List_nod@PAVCBuffer@Win32@OnlineGameLib@@V?$allocator@PAVCBuffer@Win32@OnlineGameLib@@@std@@@2@PAU342@0ABQAVCBuffer@Win32@OnlineGameLib@@@Z 0041a510 f i SmartClient.obj
 0001:00019550       ??0?$_List_ptr@PAVCBuffer@Win32@OnlineGameLib@@V?$allocator@PAVCBuffer@Win32@OnlineGameLib@@@std@@@std@@IAE@V?$allocator@PAVCBuffer@Win32@OnlineGameLib@@@1@@Z 0041a550 f i SmartClient.obj
 0001:00019560       ?EventNotify@CSmartClient@@KGXPAXABK@Z 0041a560 f   SmartClient.obj
 0001:00019580       ?_Connect@CSmartClient@@IAEPAUIClient@@XZ 0041a580 f   SmartClient.obj
 0001:00019700       ??1?$list@PAVCBuffer@Win32@OnlineGameLib@@V?$allocator@PAVCBuffer@Win32@OnlineGameLib@@@std@@@std@@QAE@XZ 0041a700 f i SmartClient.obj
 0001:00019710       ??0?$_List_val@PAVCBuffer@Win32@OnlineGameLib@@V?$allocator@PAVCBuffer@Win32@OnlineGameLib@@@std@@@std@@QAE@V?$allocator@PAVCBuffer@Win32@OnlineGameLib@@@1@@Z 0041a710 f i SmartClient.obj
 0001:00019720       ??1CSmartClient@@UAE@XZ    0041a720 f   SmartClient.obj
 0001:00019840       ??0?$list@PAVCBuffer@Win32@OnlineGameLib@@V?$allocator@PAVCBuffer@Win32@OnlineGameLib@@@std@@@std@@QAE@XZ 0041a840 f i SmartClient.obj
 0001:00019860       ??0CSmartClient@@QAE@XZ    0041a860 f   SmartClient.obj
 0001:00019930       ??_ECSmartClient@@UAEPAXI@Z 0041a930 f i SmartClient.obj
 0001:00019930       ??_GCSmartClient@@UAEPAXI@Z 0041a930 f i SmartClient.obj
 0001:00019950       ?_Incsize@?$list@PAVCBuffer@Win32@OnlineGameLib@@V?$allocator@PAVCBuffer@Win32@OnlineGameLib@@@std@@@std@@IAEXI@Z 0041a950 f i SmartClient.obj
 0001:000199f0       ?_Insert@?$list@PAVCBuffer@Win32@OnlineGameLib@@V?$allocator@PAVCBuffer@Win32@OnlineGameLib@@@std@@@std@@QAEXV?$_Iterator@$00@12@ABQAVCBuffer@Win32@OnlineGameLib@@@Z 0041a9f0 f i SmartClient.obj
 0001:00019a30       ?push_back@?$list@PAVCBuffer@Win32@OnlineGameLib@@V?$allocator@PAVCBuffer@Win32@OnlineGameLib@@@std@@@std@@QAEXABQAVCBuffer@Win32@OnlineGameLib@@@Z 0041aa30 f i SmartClient.obj
 0001:00019a70       ?Send@CSmartClient@@QAE_NQBXABI@Z 0041aa70 f   SmartClient.obj
 0001:00019c50       ?_Verify@CSmartClient@@IAEXPAUIClient@@_N@Z 0041ac50 f   SmartClient.obj
 0001:00019ec0       ?WorkingThreadFunction@CSmartClient@@SGKPAX@Z 0041aec0 f   SmartClient.obj
 0001:0001a010       ?CreateConnectThread@CSmartClient@@IAE_NXZ 0041b010 f   SmartClient.obj
 0001:0001a040       ?Open@CSmartClient@@QAE_NQBDGPAUHWND__@@PBD2_N@Z 0041b040 f   SmartClient.obj
 0001:0001a182       _InterlockedExchange@8     0041b182 f   kernel32:KERNEL32.dll
 0001:0001a188       _CloseHandle@4             0041b188 f   kernel32:KERNEL32.dll
 0001:0001a18e       _GetLastError@0            0041b18e f   kernel32:KERNEL32.dll
 0001:0001a194       _CreateEventA@16           0041b194 f   kernel32:KERNEL32.dll
 0001:0001a19a       _WaitForSingleObject@8     0041b19a f   kernel32:KERNEL32.dll
 0001:0001a1a0       _ResetEvent@4              0041b1a0 f   kernel32:KERNEL32.dll
 0001:0001a1a6       _SetEvent@4                0041b1a6 f   kernel32:KERNEL32.dll
 0001:0001a1ac       _PulseEvent@4              0041b1ac f   kernel32:KERNEL32.dll
 0001:0001a1b2       _EnterCriticalSection@4    0041b1b2 f   kernel32:KERNEL32.dll
 0001:0001a1b8       _LeaveCriticalSection@4    0041b1b8 f   kernel32:KERNEL32.dll
 0001:0001a1be       _InitializeCriticalSection@4 0041b1be f   kernel32:KERNEL32.dll
 0001:0001a1c4       _DeleteCriticalSection@4   0041b1c4 f   kernel32:KERNEL32.dll
 0001:0001a1ca       _InterlockedIncrement@4    0041b1ca f   kernel32:KERNEL32.dll
 0001:0001a1d0       _InterlockedExchangeAdd@8  0041b1d0 f   kernel32:KERNEL32.dll
 0001:0001a1d6       _GetTickCount@0            0041b1d6 f   kernel32:KERNEL32.dll
 0001:0001a1dc       _Sleep@4                   0041b1dc f   kernel32:KERNEL32.dll
 0001:0001a1e2       _CreateThread@24           0041b1e2 f   kernel32:KERNEL32.dll
 0001:0001a1e8       _TerminateThread@8         0041b1e8 f   kernel32:KERNEL32.dll
 0001:0001a1ee       _GetProcAddress@8          0041b1ee f   kernel32:KERNEL32.dll
 0001:0001a1f4       _FreeLibrary@4             0041b1f4 f   kernel32:KERNEL32.dll
 0001:0001a1fa       _LoadLibraryA@4            0041b1fa f   kernel32:KERNEL32.dll
 0001:0001a200       _EnableWindow@8            0041b200 f   user32:USER32.dll
 0001:0001a206       _GetDlgItem@8              0041b206 f   user32:USER32.dll
 0001:0001a20c       _GetDlgItemInt@16          0041b20c f   user32:USER32.dll
 0001:0001a212       _MessageBoxA@16            0041b212 f   user32:USER32.dll
 0001:0001a218       _SetFocus@4                0041b218 f   user32:USER32.dll
 0001:0001a21e       _GetDlgItemTextA@16        0041b21e f   user32:USER32.dll
 0001:0001a224       _SendMessageA@16           0041b224 f   user32:USER32.dll
 0001:0001a22a       _IsWindow@4                0041b22a f   user32:USER32.dll
 0001:0001a230       _LoadStringA@16            0041b230 f   user32:USER32.dll
 0001:0001a236       _SetDlgItemInt@16          0041b236 f   user32:USER32.dll
 0001:0001a23c       _SetDlgItemTextA@12        0041b23c f   user32:USER32.dll
 0001:0001a242       _PostMessageA@16           0041b242 f   user32:USER32.dll
 0001:0001a248       _EndDialog@8               0041b248 f   user32:USER32.dll
 0001:0001a24e       _CheckDlgButton@12         0041b24e f   user32:USER32.dll
 0001:0001a254       _DialogBoxParamA@20        0041b254 f   user32:USER32.dll
 0001:0001a25a       _PostQuitMessage@4         0041b25a f   user32:USER32.dll
 0001:0001a260       _DestroyWindow@4           0041b260 f   user32:USER32.dll
 0001:0001a266       _KillTimer@8               0041b266 f   user32:USER32.dll
 0001:0001a26c       _IsDlgButtonChecked@8      0041b26c f   user32:USER32.dll
 0001:0001a272       _SetWindowTextA@8          0041b272 f   user32:USER32.dll
 0001:0001a278       _SetTimer@16               0041b278 f   user32:USER32.dll
 0001:0001a27e       _RegisterClassExA@4        0041b27e f   user32:USER32.dll
 0001:0001a284       _LoadImageA@24             0041b284 f   user32:USER32.dll
 0001:0001a28a       _GetSystemMetrics@4        0041b28a f   user32:USER32.dll
 0001:0001a290       _LoadCursorA@8             0041b290 f   user32:USER32.dll
 0001:0001a296       _LoadIconA@8               0041b296 f   user32:USER32.dll
 0001:0001a29c       _DispatchMessageA@4        0041b29c f   user32:USER32.dll
 0001:0001a2a2       _TranslateMessage@4        0041b2a2 f   user32:USER32.dll
 0001:0001a2a8       _IsDialogMessageA@8        0041b2a8 f   user32:USER32.dll
 0001:0001a2ae       _GetMessageA@16            0041b2ae f   user32:USER32.dll
 0001:0001a2b4       _UpdateWindow@4            0041b2b4 f   user32:USER32.dll
 0001:0001a2ba       _ShowWindow@8              0041b2ba f   user32:USER32.dll
 0001:0001a2c0       _CreateDialogParamA@20     0041b2c0 f   user32:USER32.dll
 0001:0001a2c6       _GetStockObject@4          0041b2c6 f   gdi32:GDI32.dll
 0001:0001a2cc       _CoCreateGuid@4            0041b2cc f   ole32:ole32.dll
 0001:0001a2e0       ?GetMutex@CMutex@Win32@OnlineGameLib@@QBEPAXXZ 0041b2e0 f   common:Mutex.obj
 0001:0001a2f0       ?GetName@CMutex@Win32@OnlineGameLib@@QBEPBDXZ 0041b2f0 f   common:Mutex.obj
 0001:0001a300       ??1CMutex@Win32@OnlineGameLib@@UAE@XZ 0041b300 f   common:Mutex.obj
 0001:0001a340       ??_ECMutex@Win32@OnlineGameLib@@UAEPAXI@Z 0041b340 f i common:Mutex.obj
 0001:0001a340       ??_GCMutex@Win32@OnlineGameLib@@UAEPAXI@Z 0041b340 f i common:Mutex.obj
 0001:0001a460       ??0CMutex@Win32@OnlineGameLib@@QAE@PAU_SECURITY_ATTRIBUTES@@HHPBD@Z 0041b460 f   common:Mutex.obj
 0001:0001a4d0       ?Wait@CMutex@Win32@OnlineGameLib@@QBE_NK@Z 0041b4d0 f   common:Mutex.obj
 0001:0001a590       ?Wait@CMutex@Win32@OnlineGameLib@@QBEXXZ 0041b590 f   common:Mutex.obj
 0001:0001a650       ??0CWin32Exception@Win32@OnlineGameLib@@QAE@ABV?$basic_string@DU?$char_traits@D@std@@V?$allocator@D@2@@std@@K@Z 0041b650 f   common:Win32Exception.obj
 0001:0001a6e0       ?MessageBoxA@CException@Win32@OnlineGameLib@@QBEXPAUHWND__@@@Z 0041b6e0 f   common:Exception.obj
 0001:0001a7b0       ??0CException@Win32@OnlineGameLib@@QAE@ABV?$basic_string@DU?$char_traits@D@std@@V?$allocator@D@2@@std@@0@Z 0041b7b0 f   common:Exception.obj
 0001:0001a840       ?GetWhere@CException@Win32@OnlineGameLib@@UBE?AV?$basic_string@DU?$char_traits@D@std@@V?$allocator@D@2@@std@@XZ 0041b840 f   common:Exception.obj
 0001:0001a870       ?GetMessageA@CException@Win32@OnlineGameLib@@UBE?AV?$basic_string@DU?$char_traits@D@std@@V?$allocator@D@2@@std@@XZ 0041b870 f   common:Exception.obj
 0001:0001a8a0       ?Count@CNodeList@OnlineGameLib@@QBEIXZ 0041b8a0 f i common:Buffer.obj
 0001:0001a8b0       ?Empty@CNodeList@OnlineGameLib@@QBE_NXZ 0041b8b0 f i common:Buffer.obj
 0001:0001a8c0       ?GetUserPtr@COpaqueUserData@OnlineGameLib@@QBEPAXXZ 0041b8c0 f i common:Buffer.obj
 0001:0001a8d0       ?SetUserPtr@COpaqueUserData@OnlineGameLib@@QAEXPAX@Z 0041b8d0 f i common:Buffer.obj
 0001:0001a8e0       ?GetUserData@COpaqueUserData@OnlineGameLib@@QBEKXZ 0041b8e0 f i common:Buffer.obj
 0001:0001a8f0       ?SetUserData@COpaqueUserData@OnlineGameLib@@QAEXK@Z 0041b8f0 f i common:Buffer.obj
 0001:0001a900       ??0COpaqueUserData@OnlineGameLib@@IAE@XZ 0041b900 f i common:Buffer.obj
 0001:0001a910       ??1COpaqueUserData@OnlineGameLib@@IAE@XZ 0041b910 f i common:Buffer.obj
 0001:0001a920       ?HaveNextPack@CBuffer@Win32@OnlineGameLib@@QAE_NXZ 0041b920 f i common:Buffer.obj
 0001:0001a930       ?Empty@CBuffer@Win32@OnlineGameLib@@QAEXXZ 0041b930 f i common:Buffer.obj
 0001:0001a940       ??0CBuffer@Win32@OnlineGameLib@@AAE@AAVAllocator@012@I@Z 0041b940 f   common:Buffer.obj
 0001:0001a9c0       ??1CBuffer@Win32@OnlineGameLib@@AAE@XZ 0041b9c0 f   common:Buffer.obj
 0001:0001a9f0       ??2CBuffer@Win32@OnlineGameLib@@CAPAXII@Z 0041b9f0 f   common:Buffer.obj
 0001:0001aa00       ??3CBuffer@Win32@OnlineGameLib@@CAXPAXI@Z 0041ba00 f   common:Buffer.obj
 0001:0001aa10       ??0?$TNodeList@VCBuffer@Win32@OnlineGameLib@@@OnlineGameLib@@QAE@XZ 0041ba10 f i common:Buffer.obj
 0001:0001aa20       ??8const_iterator@?$_Tree@V?$_Tmap_traits@EPAVCBuffer@Win32@OnlineGameLib@@U?$less@E@std@@V?$allocator@U?$pair@$$CBEPAVCBuffer@Win32@OnlineGameLib@@@std@@@5@$0A@@std@@@std@@QBE_NABV012@@Z 0041ba20 f i common:Buffer.obj
 0001:0001aa50       ??9const_iterator@?$_Tree@V?$_Tmap_traits@EPAVCBuffer@Win32@OnlineGameLib@@U?$less@E@std@@V?$allocator@U?$pair@$$CBEPAVCBuffer@Win32@OnlineGameLib@@@std@@@5@$0A@@std@@@std@@QBE_NABV012@@Z 0041ba50 f i common:Buffer.obj
 0001:0001aa80       ??0?$allocator@U?$pair@$$CBEPAVCBuffer@Win32@OnlineGameLib@@@std@@@std@@QAE@XZ 0041ba80 f i common:Buffer.obj
 0001:0001aa90       ??R?$less@E@std@@QBE_NABE0@Z 0041ba90 f i common:Buffer.obj
 0001:0001aab0       ?_Mynode@const_iterator@?$_Tree@V?$_Tmap_traits@EPAVCBuffer@Win32@OnlineGameLib@@U?$less@E@std@@V?$allocator@U?$pair@$$CBEPAVCBuffer@Win32@OnlineGameLib@@@std@@@5@$0A@@std@@@std@@QBEPAU_Node@?$_Tree_nod@V?$_Tmap_traits@EPAVCBuffer@Win32@OnlineGameLib@@U?$less@E@std@@V?$allocator@U?$pair@$$CBEPAVCBuffer@Win32@OnlineGameLib@@@std@@@5@$0A@@std@@@3@XZ 0041bab0 f i common:Buffer.obj
 0001:0001aac0       ??0?$pair@$$CBEPAVCBuffer@Win32@OnlineGameLib@@@std@@QAE@ABEABQAVCBuffer@Win32@OnlineGameLib@@@Z 0041bac0 f i common:Buffer.obj
 0001:0001aae0       ??0?$_Bidit@U?$pair@$$CBEPAVCBuffer@Win32@OnlineGameLib@@@std@@HPBU12@ABU12@@std@@QAE@XZ 0041bae0 f i common:Buffer.obj
 0001:0001aaf0       ?_Color@?$_Tree@V?$_Tmap_traits@EPAVCBuffer@Win32@OnlineGameLib@@U?$less@E@std@@V?$allocator@U?$pair@$$CBEPAVCBuffer@Win32@OnlineGameLib@@@std@@@5@$0A@@std@@@std@@KAAADPAU_Node@?$_Tree_nod@V?$_Tmap_traits@EPAVCBuffer@Win32@OnlineGameLib@@U?$less@E@std@@V?$allocator@U?$pair@$$CBEPAVCBuffer@Win32@OnlineGameLib@@@std@@@5@$0A@@std@@@2@@Z 0041baf0 f i common:Buffer.obj
 0001:0001ab00       ?_Isnil@?$_Tree@V?$_Tmap_traits@EPAVCBuffer@Win32@OnlineGameLib@@U?$less@E@std@@V?$allocator@U?$pair@$$CBEPAVCBuffer@Win32@OnlineGameLib@@@std@@@5@$0A@@std@@@std@@KAAADPAU_Node@?$_Tree_nod@V?$_Tmap_traits@EPAVCBuffer@Win32@OnlineGameLib@@U?$less@E@std@@V?$allocator@U?$pair@$$CBEPAVCBuffer@Win32@OnlineGameLib@@@std@@@5@$0A@@std@@@2@@Z 0041bb00 f i common:Buffer.obj
 0001:0001ab10       ?_Left@?$_Tree@V?$_Tmap_traits@EPAVCBuffer@Win32@OnlineGameLib@@U?$less@E@std@@V?$allocator@U?$pair@$$CBEPAVCBuffer@Win32@OnlineGameLib@@@std@@@5@$0A@@std@@@std@@KAAAPAU_Node@?$_Tree_nod@V?$_Tmap_traits@EPAVCBuffer@Win32@OnlineGameLib@@U?$less@E@std@@V?$allocator@U?$pair@$$CBEPAVCBuffer@Win32@OnlineGameLib@@@std@@@5@$0A@@std@@@2@PAU342@@Z 0041bb10 f i common:Buffer.obj
 0001:0001ab20       ?_Parent@?$_Tree@V?$_Tmap_traits@EPAVCBuffer@Win32@OnlineGameLib@@U?$less@E@std@@V?$allocator@U?$pair@$$CBEPAVCBuffer@Win32@OnlineGameLib@@@std@@@5@$0A@@std@@@std@@KAAAPAU_Node@?$_Tree_nod@V?$_Tmap_traits@EPAVCBuffer@Win32@OnlineGameLib@@U?$less@E@std@@V?$allocator@U?$pair@$$CBEPAVCBuffer@Win32@OnlineGameLib@@@std@@@5@$0A@@std@@@2@PAU342@@Z 0041bb20 f i common:Buffer.obj
 0001:0001ab30       ?_Right@?$_Tree@V?$_Tmap_traits@EPAVCBuffer@Win32@OnlineGameLib@@U?$less@E@std@@V?$allocator@U?$pair@$$CBEPAVCBuffer@Win32@OnlineGameLib@@@std@@@5@$0A@@std@@@std@@KAAAPAU_Node@?$_Tree_nod@V?$_Tmap_traits@EPAVCBuffer@Win32@OnlineGameLib@@U?$less@E@std@@V?$allocator@U?$pair@$$CBEPAVCBuffer@Win32@OnlineGameLib@@@std@@@5@$0A@@std@@@2@PAU342@@Z 0041bb30 f i common:Buffer.obj
 0001:0001ab40       ?_Myval@?$_Tree@V?$_Tmap_traits@EPAVCBuffer@Win32@OnlineGameLib@@U?$less@E@std@@V?$allocator@U?$pair@$$CBEPAVCBuffer@Win32@OnlineGameLib@@@std@@@5@$0A@@std@@@std@@KAAAU?$pair@$$CBEPAVCBuffer@Win32@OnlineGameLib@@@2@PAU_Node@?$_Tree_nod@V?$_Tmap_traits@EPAVCBuffer@Win32@OnlineGameLib@@U?$less@E@std@@V?$allocator@U?$pair@$$CBEPAVCBuffer@Win32@OnlineGameLib@@@std@@@5@$0A@@std@@@2@@Z 0041bb40 f i common:Buffer.obj
 0001:0001ab50       ?size@?$_Tree@V?$_Tmap_traits@EPAVCBuffer@Win32@OnlineGameLib@@U?$less@E@std@@V?$allocator@U?$pair@$$CBEPAVCBuffer@Win32@OnlineGameLib@@@std@@@5@$0A@@std@@@std@@QBEIXZ 0041bb50 f i common:Buffer.obj
 0001:0001ab60       ?_Max@?$_Tree@V?$_Tmap_traits@EPAVCBuffer@Win32@OnlineGameLib@@U?$less@E@std@@V?$allocator@U?$pair@$$CBEPAVCBuffer@Win32@OnlineGameLib@@@std@@@5@$0A@@std@@@std@@KAPAU_Node@?$_Tree_nod@V?$_Tmap_traits@EPAVCBuffer@Win32@OnlineGameLib@@U?$less@E@std@@V?$allocator@U?$pair@$$CBEPAVCBuffer@Win32@OnlineGameLib@@@std@@@5@$0A@@std@@@2@PAU342@@Z 0041bb60 f i common:Buffer.obj
 0001:0001ab80       ?_Min@?$_Tree@V?$_Tmap_traits@EPAVCBuffer@Win32@OnlineGameLib@@U?$less@E@std@@V?$allocator@U?$pair@$$CBEPAVCBuffer@Win32@OnlineGameLib@@@std@@@5@$0A@@std@@@std@@KAPAU_Node@?$_Tree_nod@V?$_Tmap_traits@EPAVCBuffer@Win32@OnlineGameLib@@U?$less@E@std@@V?$allocator@U?$pair@$$CBEPAVCBuffer@Win32@OnlineGameLib@@@std@@@5@$0A@@std@@@2@PAU342@@Z 0041bb80 f i common:Buffer.obj
 0001:0001aba0       ?_Rmost@?$_Tree@V?$_Tmap_traits@EPAVCBuffer@Win32@OnlineGameLib@@U?$less@E@std@@V?$allocator@U?$pair@$$CBEPAVCBuffer@Win32@OnlineGameLib@@@std@@@5@$0A@@std@@@std@@IBEAAPAU_Node@?$_Tree_nod@V?$_Tmap_traits@EPAVCBuffer@Win32@OnlineGameLib@@U?$less@E@std@@V?$allocator@U?$pair@$$CBEPAVCBuffer@Win32@OnlineGameLib@@@std@@@5@$0A@@std@@@2@XZ 0041bba0 f i common:Buffer.obj
 0001:0001abb0       ?_Root@?$_Tree@V?$_Tmap_traits@EPAVCBuffer@Win32@OnlineGameLib@@U?$less@E@std@@V?$allocator@U?$pair@$$CBEPAVCBuffer@Win32@OnlineGameLib@@@std@@@5@$0A@@std@@@std@@IBEAAPAU_Node@?$_Tree_nod@V?$_Tmap_traits@EPAVCBuffer@Win32@OnlineGameLib@@U?$less@E@std@@V?$allocator@U?$pair@$$CBEPAVCBuffer@Win32@OnlineGameLib@@@std@@@5@$0A@@std@@@2@XZ 0041bbb0 f i common:Buffer.obj
 0001:0001abc0       ?_Rrotate@?$_Tree@V?$_Tmap_traits@EPAVCBuffer@Win32@OnlineGameLib@@U?$less@E@std@@V?$allocator@U?$pair@$$CBEPAVCBuffer@Win32@OnlineGameLib@@@std@@@5@$0A@@std@@@std@@IAEXPAU_Node@?$_Tree_nod@V?$_Tmap_traits@EPAVCBuffer@Win32@OnlineGameLib@@U?$less@E@std@@V?$allocator@U?$pair@$$CBEPAVCBuffer@Win32@OnlineGameLib@@@std@@@5@$0A@@std@@@2@@Z 0041bbc0 f i common:Buffer.obj
 0001:0001ac20       ?_Kfn@?$_Tmap_traits@EPAVCBuffer@Win32@OnlineGameLib@@U?$less@E@std@@V?$allocator@U?$pair@$$CBEPAVCBuffer@Win32@OnlineGameLib@@@std@@@5@$0A@@std@@SAABEABU?$pair@$$CBEPAVCBuffer@Win32@OnlineGameLib@@@2@@Z 0041bc20 f i common:Buffer.obj
 0001:0001ac30       ??0?$allocator@U?$pair@$$CBEPAVCBuffer@Win32@OnlineGameLib@@@std@@@std@@QAE@ABV01@@Z 0041bc30 f i common:Buffer.obj
 0001:0001ac40       ?deallocate@?$allocator@U_Node@?$_Tree_nod@V?$_Tmap_traits@EPAVCBuffer@Win32@OnlineGameLib@@U?$less@E@std@@V?$allocator@U?$pair@$$CBEPAVCBuffer@Win32@OnlineGameLib@@@std@@@5@$0A@@std@@@std@@@std@@QAEXPAU_Node@?$_Tree_nod@V?$_Tmap_traits@EPAVCBuffer@Win32@OnlineGameLib@@U?$less@E@std@@V?$allocator@U?$pair@$$CBEPAVCBuffer@Win32@OnlineGameLib@@@std@@@5@$0A@@std@@@2@I@Z 0041bc40 f i common:Buffer.obj
 0001:0001ac50       ??0const_iterator@?$_Tree@V?$_Tmap_traits@EPAVCBuffer@Win32@OnlineGameLib@@U?$less@E@std@@V?$allocator@U?$pair@$$CBEPAVCBuffer@Win32@OnlineGameLib@@@std@@@5@$0A@@std@@@std@@QAE@PAU_Node@?$_Tree_nod@V?$_Tmap_traits@EPAVCBuffer@Win32@OnlineGameLib@@U?$less@E@std@@V?$allocator@U?$pair@$$CBEPAVCBuffer@Win32@OnlineGameLib@@@std@@@5@$0A@@std@@@2@PBV12@@Z 0041bc50 f i common:Buffer.obj
 0001:0001ac80       ??0?$pair@Viterator@?$_Tree@V?$_Tmap_traits@EPAVCBuffer@Win32@OnlineGameLib@@U?$less@E@std@@V?$allocator@U?$pair@$$CBEPAVCBuffer@Win32@OnlineGameLib@@@std@@@5@$0A@@std@@@std@@V123@@std@@QAE@ABViterator@?$_Tree@V?$_Tmap_traits@EPAVCBuffer@Win32@OnlineGameLib@@U?$less@E@std@@V?$allocator@U?$pair@$$CBEPAVCBuffer@Win32@OnlineGameLib@@@std@@@5@$0A@@std@@@1@0@Z 0041bc80 f i common:Buffer.obj
 0001:0001acb0       ?_Inc@const_iterator@?$_Tree@V?$_Tmap_traits@EPAVCBuffer@Win32@OnlineGameLib@@U?$less@E@std@@V?$allocator@U?$pair@$$CBEPAVCBuffer@Win32@OnlineGameLib@@@std@@@5@$0A@@std@@@std@@QAEXXZ 0041bcb0 f i common:Buffer.obj
 0001:0001ad20       ??0?$pair@Viterator@?$_Tree@V?$_Tmap_traits@EPAVCBuffer@Win32@OnlineGameLib@@U?$less@E@std@@V?$allocator@U?$pair@$$CBEPAVCBuffer@Win32@OnlineGameLib@@@std@@@5@$0A@@std@@@std@@_N@std@@QAE@ABViterator@?$_Tree@V?$_Tmap_traits@EPAVCBuffer@Win32@OnlineGameLib@@U?$less@E@std@@V?$allocator@U?$pair@$$CBEPAVCBuffer@Win32@OnlineGameLib@@@std@@@5@$0A@@std@@@1@AB_N@Z 0041bd20 f i common:Buffer.obj
 0001:0001ad40       ?max_size@?$allocator@U?$pair@$$CBEPAVCBuffer@Win32@OnlineGameLib@@@std@@@std@@QBEIXZ 0041bd40 f i common:Buffer.obj
 0001:0001ad50       ?_Dec@const_iterator@?$_Tree@V?$_Tmap_traits@EPAVCBuffer@Win32@OnlineGameLib@@U?$less@E@std@@V?$allocator@U?$pair@$$CBEPAVCBuffer@Win32@OnlineGameLib@@@std@@@5@$0A@@std@@@std@@QAEXXZ 0041bd50 f i common:Buffer.obj
 0001:0001ade0       ??0_Node@?$_Tree_nod@V?$_Tmap_traits@EPAVCBuffer@Win32@OnlineGameLib@@U?$less@E@std@@V?$allocator@U?$pair@$$CBEPAVCBuffer@Win32@OnlineGameLib@@@std@@@5@$0A@@std@@@std@@QAE@PAU012@00ABU?$pair@$$CBEPAVCBuffer@Win32@OnlineGameLib@@@2@D@Z 0041bde0 f i common:Buffer.obj
 0001:0001ae20       ??0?$_Tmap_traits@EPAVCBuffer@Win32@OnlineGameLib@@U?$less@E@std@@V?$allocator@U?$pair@$$CBEPAVCBuffer@Win32@OnlineGameLib@@@std@@@5@$0A@@std@@QAE@U?$less@E@1@@Z 0041be20 f i common:Buffer.obj
 0001:0001ae30       ?PopNode@?$TNodeList@VCBuffer@Win32@OnlineGameLib@@@OnlineGameLib@@QAEPAVCBuffer@Win32@2@XZ 0041be30 f i common:Buffer.obj
 0001:0001ae40       ??$ToBool@H@Win32@OnlineGameLib@@YA_NABH@Z 0041be40 f i common:Buffer.obj
 0001:0001ae50       ??$_Destroy@U_Node@?$_Tree_nod@V?$_Tmap_traits@EPAVCBuffer@Win32@OnlineGameLib@@U?$less@E@std@@V?$allocator@U?$pair@$$CBEPAVCBuffer@Win32@OnlineGameLib@@@std@@@5@$0A@@std@@@std@@@std@@YAXPAU_Node@?$_Tree_nod@V?$_Tmap_traits@EPAVCBuffer@Win32@OnlineGameLib@@U?$less@E@std@@V?$allocator@U?$pair@$$CBEPAVCBuffer@Win32@OnlineGameLib@@@std@@@5@$0A@@std@@@0@@Z 0041be50 f i common:Buffer.obj
 0001:0001ae60       ??$_Destroy@PAU_Node@?$_Tree_nod@V?$_Tmap_traits@EPAVCBuffer@Win32@OnlineGameLib@@U?$less@E@std@@V?$allocator@U?$pair@$$CBEPAVCBuffer@Win32@OnlineGameLib@@@std@@@5@$0A@@std@@@std@@@std@@YAXPAPAU_Node@?$_Tree_nod@V?$_Tmap_traits@EPAVCBuffer@Win32@OnlineGameLib@@U?$less@E@std@@V?$allocator@U?$pair@$$CBEPAVCBuffer@Win32@OnlineGameLib@@@std@@@5@$0A@@std@@@0@@Z 0041be60 f i common:Buffer.obj
 0001:0001ae70       ??$?0U?$pair@$$CBEPAVCBuffer@Win32@OnlineGameLib@@@std@@@?$allocator@PAU_Node@?$_Tree_nod@V?$_Tmap_traits@EPAVCBuffer@Win32@OnlineGameLib@@U?$less@E@std@@V?$allocator@U?$pair@$$CBEPAVCBuffer@Win32@OnlineGameLib@@@std@@@5@$0A@@std@@@std@@@std@@QAE@ABV?$allocator@U?$pair@$$CBEPAVCBuffer@Win32@OnlineGameLib@@@std@@@1@@Z 0041be70 f i common:Buffer.obj
 0001:0001ae80       ??$?0U?$pair@$$CBEPAVCBuffer@Win32@OnlineGameLib@@@std@@@?$allocator@U_Node@?$_Tree_nod@V?$_Tmap_traits@EPAVCBuffer@Win32@OnlineGameLib@@U?$less@E@std@@V?$allocator@U?$pair@$$CBEPAVCBuffer@Win32@OnlineGameLib@@@std@@@5@$0A@@std@@@std@@@std@@QAE@ABV?$allocator@U?$pair@$$CBEPAVCBuffer@Win32@OnlineGameLib@@@std@@@1@@Z 0041be80 f i common:Buffer.obj
 0001:0001ae90       ??$_Allocate@U_Node@?$_Tree_nod@V?$_Tmap_traits@EPAVCBuffer@Win32@OnlineGameLib@@U?$less@E@std@@V?$allocator@U?$pair@$$CBEPAVCBuffer@Win32@OnlineGameLib@@@std@@@5@$0A@@std@@@std@@@std@@YAPAU_Node@?$_Tree_nod@V?$_Tmap_traits@EPAVCBuffer@Win32@OnlineGameLib@@U?$less@E@std@@V?$allocator@U?$pair@$$CBEPAVCBuffer@Win32@OnlineGameLib@@@std@@@5@$0A@@std@@@0@IPAU120@@Z 0041be90 f i common:Buffer.obj
 0001:0001aef0       ??$_Construct@PAU_Node@?$_Tree_nod@V?$_Tmap_traits@EPAVCBuffer@Win32@OnlineGameLib@@U?$less@E@std@@V?$allocator@U?$pair@$$CBEPAVCBuffer@Win32@OnlineGameLib@@@std@@@5@$0A@@std@@@std@@PAU123@@std@@YAXPAPAU_Node@?$_Tree_nod@V?$_Tmap_traits@EPAVCBuffer@Win32@OnlineGameLib@@U?$less@E@std@@V?$allocator@U?$pair@$$CBEPAVCBuffer@Win32@OnlineGameLib@@@std@@@5@$0A@@std@@@0@ABQAU120@@Z 0041bef0 f i common:Buffer.obj
 0001:0001af10       ??$_Iter_cat@Viterator@?$_Tree@V?$_Tmap_traits@EPAVCBuffer@Win32@OnlineGameLib@@U?$less@E@std@@V?$allocator@U?$pair@$$CBEPAVCBuffer@Win32@OnlineGameLib@@@std@@@5@$0A@@std@@@std@@@std@@YA?AUbidirectional_iterator_tag@0@ABViterator@?$_Tree@V?$_Tmap_traits@EPAVCBuffer@Win32@OnlineGameLib@@U?$less@E@std@@V?$allocator@U?$pair@$$CBEPAVCBuffer@Win32@OnlineGameLib@@@std@@@5@$0A@@std@@@0@@Z 0041bf10 f i common:Buffer.obj
 0001:0001af20       ?_Header@CPackager@Win32@OnlineGameLib@@AAE_NE@Z 0041bf20 f i common:Buffer.obj
 0001:0001af40       ?_Middle@CPackager@Win32@OnlineGameLib@@AAE_NE@Z 0041bf40 f i common:Buffer.obj
 0001:0001af60       ?_Tail@CPackager@Win32@OnlineGameLib@@AAE_NE@Z 0041bf60 f i common:Buffer.obj
 0001:0001af80       ?_Error@CPackager@Win32@OnlineGameLib@@AAE_NE@Z 0041bf80 f i common:Buffer.obj
 0001:0001afa0       ??_GCBuffer@Win32@OnlineGameLib@@AAEPAXI@Z 0041bfa0 f i common:Buffer.obj
 0001:0001afc0       ??0Allocator@CBuffer@Win32@OnlineGameLib@@QAE@II@Z 0041bfc0 f   common:Buffer.obj
 0001:0001b000       ?OnBufferCreated@Allocator@CBuffer@Win32@OnlineGameLib@@EAEXXZ 0041c000 f i common:Buffer.obj
 0001:0001b010       ?OnBufferAllocated@Allocator@CBuffer@Win32@OnlineGameLib@@EAEXXZ 0041c010 f i common:Buffer.obj
 0001:0001b020       ?OnBufferReleased@Allocator@CBuffer@Win32@OnlineGameLib@@EAEXXZ 0041c020 f i common:Buffer.obj
 0001:0001b030       ?_Key@?$_Tree@V?$_Tmap_traits@EPAVCBuffer@Win32@OnlineGameLib@@U?$less@E@std@@V?$allocator@U?$pair@$$CBEPAVCBuffer@Win32@OnlineGameLib@@@std@@@5@$0A@@std@@@std@@KAABEPAU_Node@?$_Tree_nod@V?$_Tmap_traits@EPAVCBuffer@Win32@OnlineGameLib@@U?$less@E@std@@V?$allocator@U?$pair@$$CBEPAVCBuffer@Win32@OnlineGameLib@@@std@@@5@$0A@@std@@@2@@Z 0041c030 f i common:Buffer.obj
 0001:0001b040       ?_Lmost@?$_Tree@V?$_Tmap_traits@EPAVCBuffer@Win32@OnlineGameLib@@U?$less@E@std@@V?$allocator@U?$pair@$$CBEPAVCBuffer@Win32@OnlineGameLib@@@std@@@5@$0A@@std@@@std@@IBEAAPAU_Node@?$_Tree_nod@V?$_Tmap_traits@EPAVCBuffer@Win32@OnlineGameLib@@U?$less@E@std@@V?$allocator@U?$pair@$$CBEPAVCBuffer@Win32@OnlineGameLib@@@std@@@5@$0A@@std@@@2@XZ 0041c040 f i common:Buffer.obj
 0001:0001b050       ??0iterator@?$_Tree@V?$_Tmap_traits@EPAVCBuffer@Win32@OnlineGameLib@@U?$less@E@std@@V?$allocator@U?$pair@$$CBEPAVCBuffer@Win32@OnlineGameLib@@@std@@@5@$0A@@std@@@std@@QAE@PAU_Node@?$_Tree_nod@V?$_Tmap_traits@EPAVCBuffer@Win32@OnlineGameLib@@U?$less@E@std@@V?$allocator@U?$pair@$$CBEPAVCBuffer@Win32@OnlineGameLib@@@std@@@5@$0A@@std@@@2@PBV12@@Z 0041c050 f i common:Buffer.obj
 0001:0001b080       ??0const_iterator@?$_Tree@V?$_Tmap_traits@EPAVCBuffer@Win32@OnlineGameLib@@U?$less@E@std@@V?$allocator@U?$pair@$$CBEPAVCBuffer@Win32@OnlineGameLib@@@std@@@5@$0A@@std@@@std@@QAE@XZ 0041c080 f i common:Buffer.obj
 0001:0001b090       ??Dconst_iterator@?$_Tree@V?$_Tmap_traits@EPAVCBuffer@Win32@OnlineGameLib@@U?$less@E@std@@V?$allocator@U?$pair@$$CBEPAVCBuffer@Win32@OnlineGameLib@@@std@@@5@$0A@@std@@@std@@QBEABU?$pair@$$CBEPAVCBuffer@Win32@OnlineGameLib@@@2@XZ 0041c090 f i common:Buffer.obj
 0001:0001b0c0       ?_Lbound@?$_Tree@V?$_Tmap_traits@EPAVCBuffer@Win32@OnlineGameLib@@U?$less@E@std@@V?$allocator@U?$pair@$$CBEPAVCBuffer@Win32@OnlineGameLib@@@std@@@5@$0A@@std@@@std@@IBEPAU_Node@?$_Tree_nod@V?$_Tmap_traits@EPAVCBuffer@Win32@OnlineGameLib@@U?$less@E@std@@V?$allocator@U?$pair@$$CBEPAVCBuffer@Win32@OnlineGameLib@@@std@@@5@$0A@@std@@@2@ABE@Z 0041c0c0 f i common:Buffer.obj
 0001:0001b0f0       ?_Lrotate@?$_Tree@V?$_Tmap_traits@EPAVCBuffer@Win32@OnlineGameLib@@U?$less@E@std@@V?$allocator@U?$pair@$$CBEPAVCBuffer@Win32@OnlineGameLib@@@std@@@5@$0A@@std@@@std@@IAEXPAU_Node@?$_Tree_nod@V?$_Tmap_traits@EPAVCBuffer@Win32@OnlineGameLib@@U?$less@E@std@@V?$allocator@U?$pair@$$CBEPAVCBuffer@Win32@OnlineGameLib@@@std@@@5@$0A@@std@@@2@@Z 0041c0f0 f i common:Buffer.obj
 0001:0001b140       ?destroy@?$allocator@U_Node@?$_Tree_nod@V?$_Tmap_traits@EPAVCBuffer@Win32@OnlineGameLib@@U?$less@E@std@@V?$allocator@U?$pair@$$CBEPAVCBuffer@Win32@OnlineGameLib@@@std@@@5@$0A@@std@@@std@@@std@@QAEXPAU_Node@?$_Tree_nod@V?$_Tmap_traits@EPAVCBuffer@Win32@OnlineGameLib@@U?$less@E@std@@V?$allocator@U?$pair@$$CBEPAVCBuffer@Win32@OnlineGameLib@@@std@@@5@$0A@@std@@@2@@Z 0041c140 f i common:Buffer.obj
 0001:0001b150       ?destroy@?$allocator@PAU_Node@?$_Tree_nod@V?$_Tmap_traits@EPAVCBuffer@Win32@OnlineGameLib@@U?$less@E@std@@V?$allocator@U?$pair@$$CBEPAVCBuffer@Win32@OnlineGameLib@@@std@@@5@$0A@@std@@@std@@@std@@QAEXPAPAU_Node@?$_Tree_nod@V?$_Tmap_traits@EPAVCBuffer@Win32@OnlineGameLib@@U?$less@E@std@@V?$allocator@U?$pair@$$CBEPAVCBuffer@Win32@OnlineGameLib@@@std@@@5@$0A@@std@@@2@@Z 0041c150 f i common:Buffer.obj
 0001:0001b160       ??Econst_iterator@?$_Tree@V?$_Tmap_traits@EPAVCBuffer@Win32@OnlineGameLib@@U?$less@E@std@@V?$allocator@U?$pair@$$CBEPAVCBuffer@Win32@OnlineGameLib@@@std@@@5@$0A@@std@@@std@@QAEAAV012@XZ 0041c160 f i common:Buffer.obj
 0001:0001b170       ?max_size@?$_Tree@V?$_Tmap_traits@EPAVCBuffer@Win32@OnlineGameLib@@U?$less@E@std@@V?$allocator@U?$pair@$$CBEPAVCBuffer@Win32@OnlineGameLib@@@std@@@5@$0A@@std@@@std@@QBEIXZ 0041c170 f i common:Buffer.obj
 0001:0001b180       ?_Ubound@?$_Tree@V?$_Tmap_traits@EPAVCBuffer@Win32@OnlineGameLib@@U?$less@E@std@@V?$allocator@U?$pair@$$CBEPAVCBuffer@Win32@OnlineGameLib@@@std@@@5@$0A@@std@@@std@@IBEPAU_Node@?$_Tree_nod@V?$_Tmap_traits@EPAVCBuffer@Win32@OnlineGameLib@@U?$less@E@std@@V?$allocator@U?$pair@$$CBEPAVCBuffer@Win32@OnlineGameLib@@@std@@@5@$0A@@std@@@2@ABE@Z 0041c180 f i common:Buffer.obj
 0001:0001b1b0       ??Fconst_iterator@?$_Tree@V?$_Tmap_traits@EPAVCBuffer@Win32@OnlineGameLib@@U?$less@E@std@@V?$allocator@U?$pair@$$CBEPAVCBuffer@Win32@OnlineGameLib@@@std@@@5@$0A@@std@@@std@@QAEAAV012@XZ 0041c1b0 f i common:Buffer.obj
 0001:0001b1c0       ??0?$_Tree_nod@V?$_Tmap_traits@EPAVCBuffer@Win32@OnlineGameLib@@U?$less@E@std@@V?$allocator@U?$pair@$$CBEPAVCBuffer@Win32@OnlineGameLib@@@std@@@5@$0A@@std@@@std@@IAE@ABU?$less@E@1@V?$allocator@U?$pair@$$CBEPAVCBuffer@Win32@OnlineGameLib@@@std@@@1@@Z 0041c1c0 f i common:Buffer.obj
 0001:0001b1d0       ?allocate@?$allocator@U_Node@?$_Tree_nod@V?$_Tmap_traits@EPAVCBuffer@Win32@OnlineGameLib@@U?$less@E@std@@V?$allocator@U?$pair@$$CBEPAVCBuffer@Win32@OnlineGameLib@@@std@@@5@$0A@@std@@@std@@@std@@QAEPAU_Node@?$_Tree_nod@V?$_Tmap_traits@EPAVCBuffer@Win32@OnlineGameLib@@U?$less@E@std@@V?$allocator@U?$pair@$$CBEPAVCBuffer@Win32@OnlineGameLib@@@std@@@5@$0A@@std@@@2@I@Z 0041c1d0 f i common:Buffer.obj
 0001:0001b1f0       ?construct@?$allocator@PAU_Node@?$_Tree_nod@V?$_Tmap_traits@EPAVCBuffer@Win32@OnlineGameLib@@U?$less@E@std@@V?$allocator@U?$pair@$$CBEPAVCBuffer@Win32@OnlineGameLib@@@std@@@5@$0A@@std@@@std@@@std@@QAEXPAPAU_Node@?$_Tree_nod@V?$_Tmap_traits@EPAVCBuffer@Win32@OnlineGameLib@@U?$less@E@std@@V?$allocator@U?$pair@$$CBEPAVCBuffer@Win32@OnlineGameLib@@@std@@@5@$0A@@std@@@2@ABQAU342@@Z 0041c1f0 f i common:Buffer.obj
 0001:0001b210       ?DestroyBuffer@Allocator@CBuffer@Win32@OnlineGameLib@@AAEXPAV234@@Z 0041c210 f i common:Buffer.obj
 0001:0001b280       ?Flush@Allocator@CBuffer@Win32@OnlineGameLib@@IAEXXZ 0041c280 f   common:Buffer.obj
 0001:0001b320       ?begin@?$_Tree@V?$_Tmap_traits@EPAVCBuffer@Win32@OnlineGameLib@@U?$less@E@std@@V?$allocator@U?$pair@$$CBEPAVCBuffer@Win32@OnlineGameLib@@@std@@@5@$0A@@std@@@std@@QAE?AViterator@12@XZ 0041c320 f i common:Buffer.obj
 0001:0001b340       ?end@?$_Tree@V?$_Tmap_traits@EPAVCBuffer@Win32@OnlineGameLib@@U?$less@E@std@@V?$allocator@U?$pair@$$CBEPAVCBuffer@Win32@OnlineGameLib@@@std@@@5@$0A@@std@@@std@@QAE?AViterator@12@XZ 0041c340 f i common:Buffer.obj
 0001:0001b350       ??0iterator@?$_Tree@V?$_Tmap_traits@EPAVCBuffer@Win32@OnlineGameLib@@U?$less@E@std@@V?$allocator@U?$pair@$$CBEPAVCBuffer@Win32@OnlineGameLib@@@std@@@5@$0A@@std@@@std@@QAE@XZ 0041c350 f i common:Buffer.obj
 0001:0001b360       ??Diterator@?$_Tree@V?$_Tmap_traits@EPAVCBuffer@Win32@OnlineGameLib@@U?$less@E@std@@V?$allocator@U?$pair@$$CBEPAVCBuffer@Win32@OnlineGameLib@@@std@@@5@$0A@@std@@@std@@QBEAAU?$pair@$$CBEPAVCBuffer@Win32@OnlineGameLib@@@2@XZ 0041c360 f i common:Buffer.obj
 0001:0001b390       ?lower_bound@?$_Tree@V?$_Tmap_traits@EPAVCBuffer@Win32@OnlineGameLib@@U?$less@E@std@@V?$allocator@U?$pair@$$CBEPAVCBuffer@Win32@OnlineGameLib@@@std@@@5@$0A@@std@@@std@@QAE?AViterator@12@ABE@Z 0041c390 f i common:Buffer.obj
 0001:0001b3d0       ??Eiterator@?$_Tree@V?$_Tmap_traits@EPAVCBuffer@Win32@OnlineGameLib@@U?$less@E@std@@V?$allocator@U?$pair@$$CBEPAVCBuffer@Win32@OnlineGameLib@@@std@@@5@$0A@@std@@@std@@QAEAAV012@XZ 0041c3d0 f i common:Buffer.obj
 0001:0001b3e0       ?upper_bound@?$_Tree@V?$_Tmap_traits@EPAVCBuffer@Win32@OnlineGameLib@@U?$less@E@std@@V?$allocator@U?$pair@$$CBEPAVCBuffer@Win32@OnlineGameLib@@@std@@@5@$0A@@std@@@std@@QAE?AViterator@12@ABE@Z 0041c3e0 f i common:Buffer.obj
 0001:0001b420       ?_Erase@?$_Tree@V?$_Tmap_traits@EPAVCBuffer@Win32@OnlineGameLib@@U?$less@E@std@@V?$allocator@U?$pair@$$CBEPAVCBuffer@Win32@OnlineGameLib@@@std@@@5@$0A@@std@@@std@@IAEXPAU_Node@?$_Tree_nod@V?$_Tmap_traits@EPAVCBuffer@Win32@OnlineGameLib@@U?$less@E@std@@V?$allocator@U?$pair@$$CBEPAVCBuffer@Win32@OnlineGameLib@@@std@@@5@$0A@@std@@@2@@Z 0041c420 f i common:Buffer.obj
 0001:0001b460       ??Fiterator@?$_Tree@V?$_Tmap_traits@EPAVCBuffer@Win32@OnlineGameLib@@U?$less@E@std@@V?$allocator@U?$pair@$$CBEPAVCBuffer@Win32@OnlineGameLib@@@std@@@5@$0A@@std@@@std@@QAEAAV012@XZ 0041c460 f i common:Buffer.obj
 0001:0001b470       ?_Buynode@?$_Tree@V?$_Tmap_traits@EPAVCBuffer@Win32@OnlineGameLib@@U?$less@E@std@@V?$allocator@U?$pair@$$CBEPAVCBuffer@Win32@OnlineGameLib@@@std@@@5@$0A@@std@@@std@@IAEPAU_Node@?$_Tree_nod@V?$_Tmap_traits@EPAVCBuffer@Win32@OnlineGameLib@@U?$less@E@std@@V?$allocator@U?$pair@$$CBEPAVCBuffer@Win32@OnlineGameLib@@@std@@@5@$0A@@std@@@2@XZ 0041c470 f i common:Buffer.obj
 0001:0001b4b0       ?_Buynode@?$_Tree@V?$_Tmap_traits@EPAVCBuffer@Win32@OnlineGameLib@@U?$less@E@std@@V?$allocator@U?$pair@$$CBEPAVCBuffer@Win32@OnlineGameLib@@@std@@@5@$0A@@std@@@std@@IAEPAU_Node@?$_Tree_nod@V?$_Tmap_traits@EPAVCBuffer@Win32@OnlineGameLib@@U?$less@E@std@@V?$allocator@U?$pair@$$CBEPAVCBuffer@Win32@OnlineGameLib@@@std@@@5@$0A@@std@@@2@PAU342@00ABU?$pair@$$CBEPAVCBuffer@Win32@OnlineGameLib@@@2@D@Z 0041c4b0 f i common:Buffer.obj
 0001:0001b4f0       ??0?$_Tree_ptr@V?$_Tmap_traits@EPAVCBuffer@Win32@OnlineGameLib@@U?$less@E@std@@V?$allocator@U?$pair@$$CBEPAVCBuffer@Win32@OnlineGameLib@@@std@@@5@$0A@@std@@@std@@IAE@ABU?$less@E@1@V?$allocator@U?$pair@$$CBEPAVCBuffer@Win32@OnlineGameLib@@@std@@@1@@Z 0041c4f0 f i common:Buffer.obj
 0001:0001b500       ??$_Distance2@Viterator@?$_Tree@V?$_Tmap_traits@EPAVCBuffer@Win32@OnlineGameLib@@U?$less@E@std@@V?$allocator@U?$pair@$$CBEPAVCBuffer@Win32@OnlineGameLib@@@std@@@5@$0A@@std@@@std@@I@std@@YAXViterator@?$_Tree@V?$_Tmap_traits@EPAVCBuffer@Win32@OnlineGameLib@@U?$less@E@std@@V?$allocator@U?$pair@$$CBEPAVCBuffer@Win32@OnlineGameLib@@@std@@@5@$0A@@std@@@0@0AAIUbidirectional_iterator_tag@0@@Z 0041c500 f i common:Buffer.obj
 0001:0001b540       ??1Allocator@CBuffer@Win32@OnlineGameLib@@UAE@XZ 0041c540 f   common:Buffer.obj
 0001:0001b5b0       ?find@?$_Tree@V?$_Tmap_traits@EPAVCBuffer@Win32@OnlineGameLib@@U?$less@E@std@@V?$allocator@U?$pair@$$CBEPAVCBuffer@Win32@OnlineGameLib@@@std@@@5@$0A@@std@@@std@@QAE?AViterator@12@ABE@Z 0041c5b0 f i common:Buffer.obj
 0001:0001b630       ??Eiterator@?$_Tree@V?$_Tmap_traits@EPAVCBuffer@Win32@OnlineGameLib@@U?$less@E@std@@V?$allocator@U?$pair@$$CBEPAVCBuffer@Win32@OnlineGameLib@@@std@@@5@$0A@@std@@@std@@QAE?AV012@H@Z 0041c630 f i common:Buffer.obj
 0001:0001b650       ?clear@?$_Tree@V?$_Tmap_traits@EPAVCBuffer@Win32@OnlineGameLib@@U?$less@E@std@@V?$allocator@U?$pair@$$CBEPAVCBuffer@Win32@OnlineGameLib@@@std@@@5@$0A@@std@@@std@@QAEXXZ 0041c650 f i common:Buffer.obj
 0001:0001b680       ?equal_range@?$_Tree@V?$_Tmap_traits@EPAVCBuffer@Win32@OnlineGameLib@@U?$less@E@std@@V?$allocator@U?$pair@$$CBEPAVCBuffer@Win32@OnlineGameLib@@@std@@@5@$0A@@std@@@std@@QAE?AU?$pair@Viterator@?$_Tree@V?$_Tmap_traits@EPAVCBuffer@Win32@OnlineGameLib@@U?$less@E@std@@V?$allocator@U?$pair@$$CBEPAVCBuffer@Win32@OnlineGameLib@@@std@@@5@$0A@@std@@@std@@V123@@2@ABE@Z 0041c680 f i common:Buffer.obj
 0001:0001b6e0       ?_Init@?$_Tree@V?$_Tmap_traits@EPAVCBuffer@Win32@OnlineGameLib@@U?$less@E@std@@V?$allocator@U?$pair@$$CBEPAVCBuffer@Win32@OnlineGameLib@@@std@@@5@$0A@@std@@@std@@IAEXXZ 0041c6e0 f i common:Buffer.obj
 0001:0001b710       ??0?$_Tree_val@V?$_Tmap_traits@EPAVCBuffer@Win32@OnlineGameLib@@U?$less@E@std@@V?$allocator@U?$pair@$$CBEPAVCBuffer@Win32@OnlineGameLib@@@std@@@5@$0A@@std@@@std@@IAE@ABU?$less@E@1@V?$allocator@U?$pair@$$CBEPAVCBuffer@Win32@OnlineGameLib@@@std@@@1@@Z 0041c710 f i common:Buffer.obj
 0001:0001b720       ??$_Distance@Viterator@?$_Tree@V?$_Tmap_traits@EPAVCBuffer@Win32@OnlineGameLib@@U?$less@E@std@@V?$allocator@U?$pair@$$CBEPAVCBuffer@Win32@OnlineGameLib@@@std@@@5@$0A@@std@@@std@@I@std@@YAXViterator@?$_Tree@V?$_Tmap_traits@EPAVCBuffer@Win32@OnlineGameLib@@U?$less@E@std@@V?$allocator@U?$pair@$$CBEPAVCBuffer@Win32@OnlineGameLib@@@std@@@5@$0A@@std@@@0@0AAI@Z 0041c720 f i common:Buffer.obj
 0001:0001b750       ??_GAllocator@CBuffer@Win32@OnlineGameLib@@UAEPAXI@Z 0041c750 f i common:Buffer.obj
 0001:0001b750       ??_EAllocator@CBuffer@Win32@OnlineGameLib@@UAEPAXI@Z 0041c750 f i common:Buffer.obj
 0001:0001b770       ??0?$_Tree@V?$_Tmap_traits@EPAVCBuffer@Win32@OnlineGameLib@@U?$less@E@std@@V?$allocator@U?$pair@$$CBEPAVCBuffer@Win32@OnlineGameLib@@@std@@@5@$0A@@std@@@std@@QAE@ABU?$less@E@1@ABV?$allocator@U?$pair@$$CBEPAVCBuffer@Win32@OnlineGameLib@@@std@@@1@@Z 0041c770 f i common:Buffer.obj
 0001:0001b7a0       ?erase@?$_Tree@V?$_Tmap_traits@EPAVCBuffer@Win32@OnlineGameLib@@U?$less@E@std@@V?$allocator@U?$pair@$$CBEPAVCBuffer@Win32@OnlineGameLib@@@std@@@5@$0A@@std@@@std@@QAE?AViterator@12@V312@@Z 0041c7a0 f i common:Buffer.obj
 0001:0001ba60       ?_Insert@?$_Tree@V?$_Tmap_traits@EPAVCBuffer@Win32@OnlineGameLib@@U?$less@E@std@@V?$allocator@U?$pair@$$CBEPAVCBuffer@Win32@OnlineGameLib@@@std@@@5@$0A@@std@@@std@@IAE?AViterator@12@_NPAU_Node@?$_Tree_nod@V?$_Tmap_traits@EPAVCBuffer@Win32@OnlineGameLib@@U?$less@E@std@@V?$allocator@U?$pair@$$CBEPAVCBuffer@Win32@OnlineGameLib@@@std@@@5@$0A@@std@@@2@ABU?$pair@$$CBEPAVCBuffer@Win32@OnlineGameLib@@@2@@Z 0041ca60 f i common:Buffer.obj
 0001:0001bc60       ?AddData@CBuffer@Win32@OnlineGameLib@@QAEXQBDI@Z 0041cc60 f   common:Buffer.obj
 0001:0001bd50       ?AddData@CBuffer@Win32@OnlineGameLib@@QAEXQBEI@Z 0041cd50 f   common:Buffer.obj
 0001:0001bd60       ?AddData@CBuffer@Win32@OnlineGameLib@@QAEXE@Z 0041cd60 f   common:Buffer.obj
 0001:0001bd70       ?Allocate@Allocator@CBuffer@Win32@OnlineGameLib@@QAEPAV234@XZ 0041cd70 f   common:Buffer.obj
 0001:0001bec0       ?Release@Allocator@CBuffer@Win32@OnlineGameLib@@AAEXPAV234@@Z 0041cec0 f   common:Buffer.obj
 0001:0001bfe0       ?erase@?$_Tree@V?$_Tmap_traits@EPAVCBuffer@Win32@OnlineGameLib@@U?$less@E@std@@V?$allocator@U?$pair@$$CBEPAVCBuffer@Win32@OnlineGameLib@@@std@@@5@$0A@@std@@@std@@QAE?AViterator@12@V312@0@Z 0041cfe0 f i common:Buffer.obj
 0001:0001c0b0       ?erase@?$_Tree@V?$_Tmap_traits@EPAVCBuffer@Win32@OnlineGameLib@@U?$less@E@std@@V?$allocator@U?$pair@$$CBEPAVCBuffer@Win32@OnlineGameLib@@@std@@@5@$0A@@std@@@std@@QAEIABE@Z 0041d0b0 f i common:Buffer.obj
 0001:0001c120       ?_Tidy@?$_Tree@V?$_Tmap_traits@EPAVCBuffer@Win32@OnlineGameLib@@U?$less@E@std@@V?$allocator@U?$pair@$$CBEPAVCBuffer@Win32@OnlineGameLib@@@std@@@5@$0A@@std@@@std@@IAEXXZ 0041d120 f i common:Buffer.obj
 0001:0001c160       ?insert@?$_Tree@V?$_Tmap_traits@EPAVCBuffer@Win32@OnlineGameLib@@U?$less@E@std@@V?$allocator@U?$pair@$$CBEPAVCBuffer@Win32@OnlineGameLib@@@std@@@5@$0A@@std@@@std@@QAE?AU?$pair@Viterator@?$_Tree@V?$_Tmap_traits@EPAVCBuffer@Win32@OnlineGameLib@@U?$less@E@std@@V?$allocator@U?$pair@$$CBEPAVCBuffer@Win32@OnlineGameLib@@@std@@@5@$0A@@std@@@std@@_N@2@ABU?$pair@$$CBEPAVCBuffer@Win32@OnlineGameLib@@@2@@Z 0041d160 f i common:Buffer.obj
 0001:0001c220       ?GetHeadPack@CBuffer@Win32@OnlineGameLib@@QAEPAV123@I@Z 0041d220 f   common:Buffer.obj
 0001:0001c270       ?GetNextPack@CBuffer@Win32@OnlineGameLib@@QAEPAV123@XZ 0041d270 f   common:Buffer.obj
 0001:0001c2c0       ?SplitBuffer@CBuffer@Win32@OnlineGameLib@@QAEPAV123@I@Z 0041d2c0 f   common:Buffer.obj
 0001:0001c300       ?AllocateNewBuffer@CBuffer@Win32@OnlineGameLib@@QBEPAV123@XZ 0041d300 f   common:Buffer.obj
 0001:0001c310       ?Release@CBuffer@Win32@OnlineGameLib@@QAEXXZ 0041d310 f   common:Buffer.obj
 0001:0001c3e0       ?Empty@CPackager@Win32@OnlineGameLib@@QAEXXZ 0041d3e0 f   common:Buffer.obj
 0001:0001c5a0       ??1?$_Tree@V?$_Tmap_traits@EPAVCBuffer@Win32@OnlineGameLib@@U?$less@E@std@@V?$allocator@U?$pair@$$CBEPAVCBuffer@Win32@OnlineGameLib@@@std@@@5@$0A@@std@@@std@@QAE@XZ 0041d5a0 f i common:Buffer.obj
 0001:0001c5e0       ?insert@?$_Tree@V?$_Tmap_traits@EPAVCBuffer@Win32@OnlineGameLib@@U?$less@E@std@@V?$allocator@U?$pair@$$CBEPAVCBuffer@Win32@OnlineGameLib@@@std@@@5@$0A@@std@@@std@@QAE?AViterator@12@V312@ABU?$pair@$$CBEPAVCBuffer@Win32@OnlineGameLib@@@2@@Z 0041d5e0 f i common:Buffer.obj
 0001:0001c7a0       ??1?$map@EPAVCBuffer@Win32@OnlineGameLib@@U?$less@E@std@@V?$allocator@U?$pair@$$CBEPAVCBuffer@Win32@OnlineGameLib@@@std@@@5@@std@@QAE@XZ 0041d7a0 f i common:Buffer.obj
 0001:0001c7e0       ??1CPackager@Win32@OnlineGameLib@@UAE@XZ 0041d7e0 f   common:Buffer.obj
 0001:0001c8c0       ??0?$map@EPAVCBuffer@Win32@OnlineGameLib@@U?$less@E@std@@V?$allocator@U?$pair@$$CBEPAVCBuffer@Win32@OnlineGameLib@@@std@@@5@@std@@QAE@XZ 0041d8c0 f i common:Buffer.obj
 0001:0001c8f0       ??A?$map@EPAVCBuffer@Win32@OnlineGameLib@@U?$less@E@std@@V?$allocator@U?$pair@$$CBEPAVCBuffer@Win32@OnlineGameLib@@@std@@@5@@std@@QAEAAPAVCBuffer@Win32@OnlineGameLib@@ABE@Z 0041d8f0 f i common:Buffer.obj
 0001:0001c980       ??0CPackager@Win32@OnlineGameLib@@QAE@II@Z 0041d980 f   common:Buffer.obj
 0001:0001ca60       ??_GCPackager@Win32@OnlineGameLib@@UAEPAXI@Z 0041da60 f i common:Buffer.obj
 0001:0001ca60       ??_ECPackager@Win32@OnlineGameLib@@UAEPAXI@Z 0041da60 f i common:Buffer.obj
 0001:0001ca80       ?AddData@CPackager@Win32@OnlineGameLib@@QAEXEQBDIK@Z 0041da80 f   common:Buffer.obj
 0001:0001cb80       ?AddData@CPackager@Win32@OnlineGameLib@@QAEXEQBEIK@Z 0041db80 f   common:Buffer.obj
 0001:0001cb90       ?DelData@CPackager@Win32@OnlineGameLib@@QAEXE@Z 0041db90 f   common:Buffer.obj
 0001:0001cc70       ?GetHeadPack@CPackager@Win32@OnlineGameLib@@QAEPAVCBuffer@23@EI@Z 0041dc70 f   common:Buffer.obj
 0001:0001cdb0       ?GetNextPack@CPackager@Win32@OnlineGameLib@@QAEPAVCBuffer@23@E@Z 0041ddb0 f   common:Buffer.obj
 0001:0001cee0       ?PackUp@CPackager@Win32@OnlineGameLib@@QAEPAVCBuffer@23@PBXI@Z 0041dee0 f   common:Buffer.obj
 0001:0001d060       ?_AtlGetConversionACP@ATL@@YGIXZ 0041e060 f i common:Utils.obj
 0001:0001d070       ?T2A@@YAPADPAD@Z           0041e070 f i common:Utils.obj
 0001:0001d080       ?Message@Win32@OnlineGameLib@@YAXQBD@Z 0041e080 f   common:Utils.obj
 0001:0001d0b0       ?Output@Win32@OnlineGameLib@@YAXABV?$basic_string@DU?$char_traits@D@std@@V?$allocator@D@2@@std@@@Z 0041e0b0 f   common:Utils.obj
 0001:0001d0c0       ?Trace@Win32@OnlineGameLib@@YAXABV?$basic_string@DU?$char_traits@D@std@@V?$allocator@D@2@@std@@0@Z 0041e0c0 f   common:Utils.obj
 0001:0001d0d0       ?HexStringToDWORD@Win32@OnlineGameLib@@YAKPBD@Z 0041e0d0 f   common:Utils.obj
 0001:0001d140       ?HashStr2ID@Win32@OnlineGameLib@@YAKQBD@Z 0041e140 f   common:Utils.obj
 0001:0001d1a0       ?net_aton@Win32@OnlineGameLib@@YAKPBD@Z 0041e1a0 f   common:Utils.obj
 0001:0001d230       ?net_ntoa@Win32@OnlineGameLib@@YAPBDK@Z 0041e230 f   common:Utils.obj
 0001:0001d270       ?GetLocalName@Win32@OnlineGameLib@@YA_NPADI@Z 0041e270 f   common:Utils.obj
 0001:0001d370       ?GetLocalAddress@Win32@OnlineGameLib@@YA_NPADIH@Z 0041e370 f   common:Utils.obj
 0001:0001d4b0       ??0?$auto_ptr@D@std@@QAE@PAD@Z 0041e4b0 f i common:Utils.obj
 0001:0001d4c0       ??1?$auto_ptr@D@std@@QAE@XZ 0041e4c0 f i common:Utils.obj
 0001:0001d4d0       ?get@?$auto_ptr@D@std@@QBEPADXZ 0041e4d0 f i common:Utils.obj
 0001:0001d4e0       ??0?$auto_ptr@E@std@@QAE@PAE@Z 0041e4e0 f i common:Utils.obj
 0001:0001d4f0       ??1?$auto_ptr@E@std@@QAE@XZ 0041e4f0 f i common:Utils.obj
 0001:0001d500       ?get@?$auto_ptr@E@std@@QBEPAEXZ 0041e500 f i common:Utils.obj
 0001:0001d510       ?is_open@?$basic_filebuf@DU?$char_traits@D@std@@@std@@QBE_NXZ 0041e510 f i common:Utils.obj
 0001:0001d520       ?_Init@?$basic_streambuf@DU?$char_traits@D@std@@@std@@IAEXPAPAD0PAH001@Z 0041e520 f i common:Utils.obj
 0001:0001d550       ??D?$_String_const_iterator@DU?$char_traits@D@std@@V?$allocator@D@2@@std@@QBEABDXZ 0041e550 f i common:Utils.obj
 0001:0001d590       ?unshift@?$codecvt@DDH@std@@QBEHAAHPAD1AAPAD@Z 0041e590 f i common:Utils.obj
 0001:0001d5a0       ??0?$_Ranit_base@DHPBDABDU_Iterator_base@std@@@std@@QAE@XZ 0041e5a0 f i common:Utils.obj
 0001:0001d5b0       ??A?$basic_string@DU?$char_traits@D@std@@V?$allocator@D@2@@std@@QBEABDI@Z 0041e5b0 f i common:Utils.obj
 0001:0001d5e0       ?is_open@?$basic_fstream@DU?$char_traits@D@std@@@std@@QBE_NXZ 0041e5e0 f i common:Utils.obj
 0001:0001d5f0       ?_Init@?$basic_filebuf@DU?$char_traits@D@std@@@std@@IAEXPAU_iobuf@@W4_Initfl@12@@Z 0041e5f0 f i common:Utils.obj
 0001:0001d640       ??D?$_String_iterator@DU?$char_traits@D@std@@V?$allocator@D@2@@std@@QBEAADXZ 0041e640 f i common:Utils.obj
 0001:0001d680       ??0?$_String_const_iterator@DU?$char_traits@D@std@@V?$allocator@D@2@@std@@QAE@PBDPBU_Container_base@1@@Z 0041e680 f i common:Utils.obj
 0001:0001d6e0       ??0?$basic_filebuf@DU?$char_traits@D@std@@@std@@QAE@PAU_iobuf@@@Z 0041e6e0 f i common:Utils.obj
 0001:0001d740       ?not_eof@?$char_traits@D@std@@SAHABH@Z 0041e740 f i common:Utils.obj
 0001:0001d760       ??0codecvt_base@std@@QAE@I@Z 0041e760 f i common:Utils.obj
 0001:0001d780       ?always_noconv@codecvt_base@std@@QBE_NXZ 0041e780 f i common:Utils.obj
 0001:0001d790       ??1codecvt_base@std@@UAE@XZ 0041e790 f i common:Utils.obj
 0001:0001d7a0       ?do_always_noconv@codecvt_base@std@@MBE_NXZ 0041e7a0 f i common:Utils.obj
 0001:0001d7b0       ?do_max_length@codecvt_base@std@@MBEHXZ 0041e7b0 f i common:Utils.obj
 0001:0001d7c0       ?do_encoding@codecvt_base@std@@MBEHXZ 0041e7c0 f i common:Utils.obj
 0001:0001d7d0       ??_Ecodecvt_base@std@@UAEPAXI@Z 0041e7d0 f i common:Utils.obj
 0001:0001d7d0       ??_Gcodecvt_base@std@@UAEPAXI@Z 0041e7d0 f i common:Utils.obj
 0001:0001d7f0       ??$_Fgetc@D@std@@YA_NAADPAU_iobuf@@@Z 0041e7f0 f i common:Utils.obj
 0001:0001d810       ??$_Fputc@D@std@@YA_NDPAU_iobuf@@@Z 0041e810 f i common:Utils.obj
 0001:0001d830       ??$_Ungetc@D@std@@YA_NABDPAU_iobuf@@@Z 0041e830 f i common:Utils.obj
 0001:0001d850       ?underflow@?$basic_filebuf@DU?$char_traits@D@std@@@std@@MAEHXZ 0041e850 f i common:Utils.obj
 0001:0001d8a0       ?sync@?$basic_filebuf@DU?$char_traits@D@std@@@std@@MAEHXZ 0041e8a0 f i common:Utils.obj
 0001:0001d8d0       ?_Gndec@?$basic_streambuf@DU?$char_traits@D@std@@@std@@IAEPADXZ 0041e8d0 f i common:Utils.obj
 0001:0001d8f0       ??0?$fpos@H@std@@QAE@H_J@Z 0041e8f0 f i common:Utils.obj
 0001:0001d910       ?state@?$fpos@H@std@@QBEHXZ 0041e910 f i common:Utils.obj
 0001:0001d920       ?seekpos@?$fpos@H@std@@QBE_JXZ 0041e920 f i common:Utils.obj
 0001:0001d930       ?_Initcvt@?$basic_filebuf@DU?$char_traits@D@std@@@std@@IAEXPAV?$codecvt@DDH@2@@Z 0041e930 f i common:Utils.obj
 0001:0001d960       ?in@?$codecvt@DDH@std@@QBEHAAHPBD1AAPBDPAD3AAPAD@Z 0041e960 f i common:Utils.obj
 0001:0001d970       ?out@?$codecvt@DDH@std@@QBEHAAHPBD1AAPBDPAD3AAPAD@Z 0041e970 f i common:Utils.obj
 0001:0001d980       ?_Init@?$codecvt@DDH@std@@IAEXABV_Locinfo@2@@Z 0041e980 f i common:Utils.obj
 0001:0001d990       ?pbackfail@?$basic_filebuf@DU?$char_traits@D@std@@@std@@MAEHH@Z 0041e990 f i common:Utils.obj
 0001:0001da00       ?setbuf@?$basic_filebuf@DU?$char_traits@D@std@@@std@@MAEPAV?$basic_streambuf@DU?$char_traits@D@std@@@2@PADH@Z 0041ea00 f i common:Utils.obj
 0001:0001da80       ??0?$_String_iterator@DU?$char_traits@D@std@@V?$allocator@D@2@@std@@QAE@PADPBU_Container_base@1@@Z 0041ea80 f i common:Utils.obj
 0001:0001daa0       ?begin@?$basic_string@DU?$char_traits@D@std@@V?$allocator@D@2@@std@@QAE?AV?$_String_iterator@DU?$char_traits@D@std@@V?$allocator@D@2@@2@XZ 0041eaa0 f i common:Utils.obj
 0001:0001dae0       ?assign@?$basic_string@DU?$char_traits@D@std@@V?$allocator@D@2@@std@@QAEAAV12@ID@Z 0041eae0 f i common:Utils.obj
 0001:0001db70       ??Y?$basic_string@DU?$char_traits@D@std@@V?$allocator@D@2@@std@@QAEAAV01@D@Z 0041eb70 f i common:Utils.obj
 0001:0001db80       ?uflow@?$basic_filebuf@DU?$char_traits@D@std@@@std@@MAEHXZ 0041eb80 f i common:Utils.obj
 0001:0001dee0       ??0?$basic_string@DU?$char_traits@D@std@@V?$allocator@D@2@@std@@QAE@ABV01@II@Z 0041eee0 f i common:Utils.obj
 0001:0001df10       ??0?$basic_string@DU?$char_traits@D@std@@V?$allocator@D@2@@std@@QAE@ID@Z 0041ef10 f i common:Utils.obj
 0001:0001df40       ?append@?$basic_string@DU?$char_traits@D@std@@V?$allocator@D@2@@std@@QAEAAV12@ABV12@@Z 0041ef40 f i common:Utils.obj
 0001:0001df60       ?_Endwrite@?$basic_filebuf@DU?$char_traits@D@std@@@std@@IAE_NXZ 0041ef60 f i common:Utils.obj
 0001:0001e280       ?HexToString@Win32@OnlineGameLib@@YA?AV?$basic_string@DU?$char_traits@D@std@@V?$allocator@D@2@@std@@PBEI@Z 0041f280 f   common:Utils.obj
 0001:0001e340       ??Y?$basic_string@DU?$char_traits@D@std@@V?$allocator@D@2@@std@@QAEAAV01@ABV01@@Z 0041f340 f i common:Utils.obj
 0001:0001e360       ?substr@?$basic_string@DU?$char_traits@D@std@@V?$allocator@D@2@@std@@QBE?AV12@II@Z 0041f360 f i common:Utils.obj
 0001:0001e3a0       ?overflow@?$basic_filebuf@DU?$char_traits@D@std@@@std@@MAEHH@Z 0041f3a0 f i common:Utils.obj
 0001:0001e770       ?seekoff@?$basic_filebuf@DU?$char_traits@D@std@@@std@@MAE?AV?$fpos@H@2@JHH@Z 0041f770 f i common:Utils.obj
 0001:0001e850       ?seekpos@?$basic_filebuf@DU?$char_traits@D@std@@@std@@MAE?AV?$fpos@H@2@V32@H@Z 0041f850 f i common:Utils.obj
 0001:0001e940       ?close@?$basic_filebuf@DU?$char_traits@D@std@@@std@@QAEPAV12@XZ 0041f940 f i common:Utils.obj
 0001:0001e990       ??$?HDU?$char_traits@D@std@@V?$allocator@D@1@@std@@YA?AV?$basic_string@DU?$char_traits@D@std@@V?$allocator@D@2@@0@ABV10@0@Z 0041f990 f i common:Utils.obj
 0001:0001ea40       ?GetLastErrorMessage@Win32@OnlineGameLib@@YA?AV?$basic_string@DU?$char_traits@D@std@@V?$allocator@D@2@@std@@K@Z 0041fa40 f   common:Utils.obj
 0001:0001eb00       ?StringToHex@Win32@OnlineGameLib@@YAXABV?$basic_string@DU?$char_traits@D@std@@V?$allocator@D@2@@std@@PAEI@Z 0041fb00 f   common:Utils.obj
 0001:0001ec40       ?GetCurrentDirectoryA@Win32@OnlineGameLib@@YA?AV?$basic_string@DU?$char_traits@D@std@@V?$allocator@D@2@@std@@XZ 0041fc40 f   common:Utils.obj
 0001:0001ed60       ?GetAppFullPath@Win32@OnlineGameLib@@YA?AV?$basic_string@DU?$char_traits@D@std@@V?$allocator@D@2@@std@@PAUHINSTANCE__@@@Z 0041fd60 f   common:Utils.obj
 0001:0001ee70       ?GetDateStamp@Win32@OnlineGameLib@@YA?AV?$basic_string@DU?$char_traits@D@std@@V?$allocator@D@2@@std@@XZ 0041fe70 f   common:Utils.obj
 0001:0001ef00       ?GetTimeStamp@Win32@OnlineGameLib@@YA?AV?$basic_string@DU?$char_traits@D@std@@V?$allocator@D@2@@std@@XZ 0041ff00 f   common:Utils.obj
 0001:0001ef80       ?ToHex@Win32@OnlineGameLib@@YA?AV?$basic_string@DU?$char_traits@D@std@@V?$allocator@D@2@@std@@E@Z 0041ff80 f   common:Utils.obj
 0001:0001efe0       ?DumpData@Win32@OnlineGameLib@@YA?AV?$basic_string@DU?$char_traits@D@std@@V?$allocator@D@2@@std@@QBEII@Z 0041ffe0 f   common:Utils.obj
 0001:0001f340       ?GetComputerNameA@Win32@OnlineGameLib@@YA?AV?$basic_string@DU?$char_traits@D@std@@V?$allocator@D@2@@std@@XZ 00420340 f   common:Utils.obj
 0001:0001f460       ?GetModuleFileNameA@Win32@OnlineGameLib@@YA?AV?$basic_string@DU?$char_traits@D@std@@V?$allocator@D@2@@std@@PAUHINSTANCE__@@@Z 00420460 f   common:Utils.obj
 0001:0001f590       ?GetUserNameA@Win32@OnlineGameLib@@YA?AV?$basic_string@DU?$char_traits@D@std@@V?$allocator@D@2@@std@@XZ 00420590 f   common:Utils.obj
 0001:0001f6c0       ?StripLeading@Win32@OnlineGameLib@@YA?AV?$basic_string@DU?$char_traits@D@std@@V?$allocator@D@2@@std@@ABV34@D@Z 004206c0 f   common:Utils.obj
 0001:0001f730       ?StripTrailing@Win32@OnlineGameLib@@YA?AV?$basic_string@DU?$char_traits@D@std@@V?$allocator@D@2@@std@@ABV34@D@Z 00420730 f   common:Utils.obj
 0001:0001f790       ?GetFileVersion@Win32@OnlineGameLib@@YA?AV?$basic_string@DU?$char_traits@D@std@@V?$allocator@D@2@@std@@XZ 00420790 f   common:Utils.obj
 0001:0001f9c0       ??1?$basic_filebuf@DU?$char_traits@D@std@@@std@@UAE@XZ 004209c0 f i common:Utils.obj
 0001:0001fa30       ??_E?$basic_filebuf@DU?$char_traits@D@std@@@std@@UAEPAXI@Z 00420a30 f i common:Utils.obj
 0001:0001fa30       ??_G?$basic_filebuf@DU?$char_traits@D@std@@@std@@UAEPAXI@Z 00420a30 f i common:Utils.obj
 0001:0001fa50       ??0?$codecvt@DDH@std@@QAE@I@Z 00420a50 f i common:Utils.obj
 0001:0001fae0       ??1?$codecvt@DDH@std@@MAE@XZ 00420ae0 f i common:Utils.obj
 0001:0001faf0       ?do_in@?$codecvt@DDH@std@@MBEHAAHPBD1AAPBDPAD3AAPAD@Z 00420af0 f i common:Utils.obj
 0001:0001fb10       ?do_out@?$codecvt@DDH@std@@MBEHAAHPBD1AAPBDPAD3AAPAD@Z 00420b10 f i common:Utils.obj
 0001:0001fb30       ?do_unshift@?$codecvt@DDH@std@@MBEHAAHPAD1AAPAD@Z 00420b30 f i common:Utils.obj
 0001:0001fb50       ?do_length@?$codecvt@DDH@std@@MBEHABHPBD1I@Z 00420b50 f i common:Utils.obj
 0001:0001fb70       ??_E?$codecvt@DDH@std@@MAEPAXI@Z 00420b70 f i common:Utils.obj
 0001:0001fb70       ??_G?$codecvt@DDH@std@@MAEPAXI@Z 00420b70 f i common:Utils.obj
 0001:0001fb90       ??1?$basic_fstream@DU?$char_traits@D@std@@@std@@UAE@XZ 00420b90 f i common:Utils.obj
 0001:0001fc20       ?close@?$basic_fstream@DU?$char_traits@D@std@@@std@@QAEXXZ 00420c20 f i common:Utils.obj
 0001:0001fc50       ?_Getcat@?$codecvt@DDH@std@@SAIPAPBVfacet@locale@2@@Z 00420c50 f i common:Utils.obj
 0001:0001fcc0       ??_D?$basic_fstream@DU?$char_traits@D@std@@@std@@QAEXXZ 00420cc0 f i common:Utils.obj
 0001:0001fce0       ?SetLogFileName@Win32@OnlineGameLib@@YAXABV?$basic_string@DU?$char_traits@D@std@@V?$allocator@D@2@@std@@@Z 00420ce0 f   common:Utils.obj
 0001:0001fd60       ??_E?$basic_fstream@DU?$char_traits@D@std@@@std@@UAEPAXI@Z 00420d60 f i common:Utils.obj
 0001:0001fd60       ??_G?$basic_fstream@DU?$char_traits@D@std@@@std@@UAEPAXI@Z 00420d60 f i common:Utils.obj
 0001:0001fda0       ??$use_facet@V?$codecvt@DDH@std@@@std@@YAABV?$codecvt@DDH@0@ABVlocale@0@@Z 00420da0 f i common:Utils.obj
 0001:0001fed0       ??0?$basic_fstream@DU?$char_traits@D@std@@@std@@QAE@XZ 00420ed0 f i common:Utils.obj
 0001:0001ff90       ?imbue@?$basic_filebuf@DU?$char_traits@D@std@@@std@@MAEXABVlocale@2@@Z 00420f90 f i common:Utils.obj
 0001:0001ffd0       ?Free@CLibrary@Win32@OnlineGameLib@@QAE_NXZ 00420fd0 f   common:Library.obj
 0001:0001fff0       ??0CLibrary@Win32@OnlineGameLib@@QAE@XZ 00420ff0 f   common:Library.obj
 0001:00020010       ??1CLibrary@Win32@OnlineGameLib@@UAE@XZ 00421010 f   common:Library.obj
 0001:00020050       ??_ECLibrary@Win32@OnlineGameLib@@UAEPAXI@Z 00421050 f i common:Library.obj
 0001:00020050       ??_GCLibrary@Win32@OnlineGameLib@@UAEPAXI@Z 00421050 f i common:Library.obj
 0001:00020070       ?Load@CLibrary@Win32@OnlineGameLib@@QAE_NQBD@Z 00421070 f   common:Library.obj
 0001:000200b0       ??0CLibrary@Win32@OnlineGameLib@@QAE@QBD@Z 004210b0 f   common:Library.obj
 0001:00020120       ??0CIniFile@Win32@OnlineGameLib@@QAE@XZ 00421120 f   common:IniFile.obj
 0001:00020140       ??0CIniFile@Win32@OnlineGameLib@@QAE@PBD@Z 00421140 f   common:IniFile.obj
 0001:00020170       ??1CIniFile@Win32@OnlineGameLib@@QAE@XZ 00421170 f   common:IniFile.obj
 0001:00020180       ?SetFile@CIniFile@Win32@OnlineGameLib@@QAEXPBD@Z 00421180 f   common:IniFile.obj
 0001:000201a0       ?WriteInteger@CIniFile@Win32@OnlineGameLib@@QAEHPBD0H@Z 004211a0 f   common:IniFile.obj
 0001:00020200       ?WriteHexNum@CIniFile@Win32@OnlineGameLib@@QAEHPBD0K@Z 00421200 f   common:IniFile.obj
 0001:00020260       ?ReadString@CIniFile@Win32@OnlineGameLib@@QAEKPBD0PADK0@Z 00421260 f   common:IniFile.obj
 0001:00020290       ?WriteString@CIniFile@Win32@OnlineGameLib@@QAEHPBD00@Z 00421290 f   common:IniFile.obj
 0001:000202b0       ?size@?$vector@V?$basic_string@DU?$char_traits@D@std@@V?$allocator@D@2@@std@@V?$allocator@V?$basic_string@DU?$char_traits@D@std@@V?$allocator@D@2@@std@@@2@@std@@QBEIXZ 004212b0 f i common:IniFile.obj
 0001:000202e0       ?capacity@?$vector@V?$basic_string@DU?$char_traits@D@std@@V?$allocator@D@2@@std@@V?$allocator@V?$basic_string@DU?$char_traits@D@std@@V?$allocator@D@2@@std@@@2@@std@@QBEIXZ 004212e0 f i common:IniFile.obj
 0001:00020310       ??G?$_Vector_const_iterator@V?$basic_string@DU?$char_traits@D@std@@V?$allocator@D@2@@std@@V?$allocator@V?$basic_string@DU?$char_traits@D@std@@V?$allocator@D@2@@std@@@2@@std@@QBEHABV01@@Z 00421310 f i common:IniFile.obj
 0001:00020350       ??Y?$_Vector_const_iterator@V?$basic_string@DU?$char_traits@D@std@@V?$allocator@D@2@@std@@V?$allocator@V?$basic_string@DU?$char_traits@D@std@@V?$allocator@D@2@@std@@@2@@std@@QAEAAV01@H@Z 00421350 f i common:IniFile.obj
 0001:00020390       ??$_Iter_random@PAV?$basic_string@DU?$char_traits@D@std@@V?$allocator@D@2@@std@@PAV12@@std@@YA?AUrandom_access_iterator_tag@0@ABQAV?$basic_string@DU?$char_traits@D@std@@V?$allocator@D@2@@0@0@Z 00421390 f i common:IniFile.obj
 0001:000203a0       ??$_Move_cat@PAV?$basic_string@DU?$char_traits@D@std@@V?$allocator@D@2@@std@@@std@@YA?AU_Swap_move_tag@0@ABQAV?$basic_string@DU?$char_traits@D@std@@V?$allocator@D@2@@0@@Z 004213a0 f i common:IniFile.obj
 0001:000203b0       ??$_Checked_base@PAV?$basic_string@DU?$char_traits@D@std@@V?$allocator@D@2@@std@@@std@@YAPAV?$basic_string@DU?$char_traits@D@std@@V?$allocator@D@2@@0@AAPAV10@U_Unchanged_checked_iterator_base_type_tag@0@@Z 004213b0 f i common:IniFile.obj
 0001:000203c0       ??$?8DD@std@@YA_NABV?$allocator@D@0@0@Z 004213c0 f i common:IniFile.obj
 0001:000203d0       ?ReadInteger@CIniFile@Win32@OnlineGameLib@@QAEHPBD0H@Z 004213d0 f   common:IniFile.obj
 0001:00020460       ?ReadHexNum@CIniFile@Win32@OnlineGameLib@@QAEKPBD0K@Z 00421460 f   common:IniFile.obj
 0001:000204f0       ??G?$_Vector_iterator@V?$basic_string@DU?$char_traits@D@std@@V?$allocator@D@2@@std@@V?$allocator@V?$basic_string@DU?$char_traits@D@std@@V?$allocator@D@2@@std@@@2@@std@@QBEHABV?$_Vector_const_iterator@V?$basic_string@DU?$char_traits@D@std@@V?$allocator@D@2@@std@@V?$allocator@V?$basic_string@DU?$char_traits@D@std@@V?$allocator@D@2@@std@@@2@@1@@Z 004214f0 f i common:IniFile.obj
 0001:00020530       ??Y?$_Vector_iterator@V?$basic_string@DU?$char_traits@D@std@@V?$allocator@D@2@@std@@V?$allocator@V?$basic_string@DU?$char_traits@D@std@@V?$allocator@D@2@@std@@@2@@std@@QAEAAV01@H@Z 00421530 f i common:IniFile.obj
 0001:00020570       ??$_Checked_base@PAV?$basic_string@DU?$char_traits@D@std@@V?$allocator@D@2@@std@@@std@@YAPAV?$basic_string@DU?$char_traits@D@std@@V?$allocator@D@2@@0@AAPAV10@@Z 00421570 f i common:IniFile.obj
 0001:00020580       ??H?$_Vector_iterator@V?$basic_string@DU?$char_traits@D@std@@V?$allocator@D@2@@std@@V?$allocator@V?$basic_string@DU?$char_traits@D@std@@V?$allocator@D@2@@std@@@2@@std@@QBE?AV01@H@Z 00421580 f i common:IniFile.obj
 0001:000205c0       ??$_Copy_opt@PAV?$basic_string@DU?$char_traits@D@std@@V?$allocator@D@2@@std@@PAV12@Uforward_iterator_tag@2@@std@@YAPAV?$basic_string@DU?$char_traits@D@std@@V?$allocator@D@2@@0@PAV10@00Uforward_iterator_tag@0@U_Nonscalar_ptr_iterator_tag@0@U_Range_checked_iterator_tag@0@@Z 004215c0 f i common:IniFile.obj
 0001:00020600       ??$_Construct@V?$basic_string@DU?$char_traits@D@std@@V?$allocator@D@2@@std@@V12@@std@@YAXPAV?$basic_string@DU?$char_traits@D@std@@V?$allocator@D@2@@0@ABV10@@Z 00421600 f i common:IniFile.obj
 0001:00020670       ?swap@?$basic_string@DU?$char_traits@D@std@@V?$allocator@D@2@@std@@QAEXAAV12@@Z 00421670 f i common:IniFile.obj
 0001:000206e0       ??$_Copy_opt@PAV?$basic_string@DU?$char_traits@D@std@@V?$allocator@D@2@@std@@PAV12@@std@@YAPAV?$basic_string@DU?$char_traits@D@std@@V?$allocator@D@2@@0@PAV10@00Urandom_access_iterator_tag@0@U_Nonscalar_ptr_iterator_tag@0@U_Range_checked_iterator_tag@0@@Z 004216e0 f i common:IniFile.obj
 0001:00020740       ??$_Fill@PAV?$basic_string@DU?$char_traits@D@std@@V?$allocator@D@2@@std@@V12@@std@@YAXPAV?$basic_string@DU?$char_traits@D@std@@V?$allocator@D@2@@0@0ABV10@@Z 00421740 f i common:IniFile.obj
 0001:00020770       ?construct@?$allocator@V?$basic_string@DU?$char_traits@D@std@@V?$allocator@D@2@@std@@@std@@QAEXPAV?$basic_string@DU?$char_traits@D@std@@V?$allocator@D@2@@2@ABV32@@Z 00421770 f i common:IniFile.obj
 0001:00020790       ??$swap@DU?$char_traits@D@std@@V?$allocator@D@2@@std@@YAXAAV?$basic_string@DU?$char_traits@D@std@@V?$allocator@D@2@@0@0@Z 00421790 f i common:IniFile.obj
 0001:000207a0       ??$unchecked_copy@PAV?$basic_string@DU?$char_traits@D@std@@V?$allocator@D@2@@std@@PAV12@@stdext@@YAPAV?$basic_string@DU?$char_traits@D@std@@V?$allocator@D@2@@std@@PAV12@00@Z 004217a0 f i common:IniFile.obj
 0001:000207d0       ??$fill@PAV?$basic_string@DU?$char_traits@D@std@@V?$allocator@D@2@@std@@V12@@std@@YAXPAV?$basic_string@DU?$char_traits@D@std@@V?$allocator@D@2@@0@0ABV10@@Z 004217d0 f i common:IniFile.obj
 0001:00020800       ??$_Uninit_fill_n@PAV?$basic_string@DU?$char_traits@D@std@@V?$allocator@D@2@@std@@IV12@V?$allocator@V?$basic_string@DU?$char_traits@D@std@@V?$allocator@D@2@@std@@@2@@std@@YAXPAV?$basic_string@DU?$char_traits@D@std@@V?$allocator@D@2@@0@IABV10@AAV?$allocator@V?$basic_string@DU?$char_traits@D@std@@V?$allocator@D@2@@std@@@0@U_Nonscalar_ptr_iterator_tag@0@U_Range_checked_iterator_tag@0@@Z 00421800 f i common:IniFile.obj
 0001:000208c0       ??$_Uninit_move@PAV?$basic_string@DU?$char_traits@D@std@@V?$allocator@D@2@@std@@PAV12@V?$allocator@V?$basic_string@DU?$char_traits@D@std@@V?$allocator@D@2@@std@@@2@@std@@YAPAV?$basic_string@DU?$char_traits@D@std@@V?$allocator@D@2@@0@PAV10@00AAV?$allocator@V?$basic_string@DU?$char_traits@D@std@@V?$allocator@D@2@@std@@@0@U_Swap_move_tag@0@U_Range_checked_iterator_tag@0@@Z 004218c0 f i common:IniFile.obj
 0001:00020a00       ??$_Move_backward_opt@PAV?$basic_string@DU?$char_traits@D@std@@V?$allocator@D@2@@std@@PAV12@Uforward_iterator_tag@2@@std@@YAPAV?$basic_string@DU?$char_traits@D@std@@V?$allocator@D@2@@0@PAV10@00Uforward_iterator_tag@0@U_Swap_move_tag@0@U_Range_checked_iterator_tag@0@@Z 00421a00 f i common:IniFile.obj
 0001:00020a90       ??$unchecked_uninitialized_fill_n@PAV?$basic_string@DU?$char_traits@D@std@@V?$allocator@D@2@@std@@IV12@V?$allocator@V?$basic_string@DU?$char_traits@D@std@@V?$allocator@D@2@@std@@@2@@stdext@@YAXPAV?$basic_string@DU?$char_traits@D@std@@V?$allocator@D@2@@std@@IABV12@AAV?$allocator@V?$basic_string@DU?$char_traits@D@std@@V?$allocator@D@2@@std@@@2@@Z 00421a90 f i common:IniFile.obj
 0001:00020ac0       ??$_Unchecked_uninitialized_move@PAV?$basic_string@DU?$char_traits@D@std@@V?$allocator@D@2@@std@@PAV12@V?$allocator@V?$basic_string@DU?$char_traits@D@std@@V?$allocator@D@2@@std@@@2@@stdext@@YAPAV?$basic_string@DU?$char_traits@D@std@@V?$allocator@D@2@@std@@PAV12@00AAV?$allocator@V?$basic_string@DU?$char_traits@D@std@@V?$allocator@D@2@@std@@@2@@Z 00421ac0 f i common:IniFile.obj
 0001:00020af0       ??$_Move_backward_opt@PAV?$basic_string@DU?$char_traits@D@std@@V?$allocator@D@2@@std@@PAV12@@std@@YAPAV?$basic_string@DU?$char_traits@D@std@@V?$allocator@D@2@@0@PAV10@00Urandom_access_iterator_tag@0@U_Swap_move_tag@0@U_Range_checked_iterator_tag@0@@Z 00421af0 f i common:IniFile.obj
 0001:00020b50       ?erase@?$vector@V?$basic_string@DU?$char_traits@D@std@@V?$allocator@D@2@@std@@V?$allocator@V?$basic_string@DU?$char_traits@D@std@@V?$allocator@D@2@@std@@@2@@std@@QAE?AV?$_Vector_iterator@V?$basic_string@DU?$char_traits@D@std@@V?$allocator@D@2@@std@@V?$allocator@V?$basic_string@DU?$char_traits@D@std@@V?$allocator@D@2@@std@@@2@@2@V32@0@Z 00421b50 f i common:IniFile.obj
 0001:00020bc0       ?_Ufill@?$vector@V?$basic_string@DU?$char_traits@D@std@@V?$allocator@D@2@@std@@V?$allocator@V?$basic_string@DU?$char_traits@D@std@@V?$allocator@D@2@@std@@@2@@std@@IAEPAV?$basic_string@DU?$char_traits@D@std@@V?$allocator@D@2@@2@PAV32@IABV32@@Z 00421bc0 f i common:IniFile.obj
 0001:00020c00       ??$_Umove@PAV?$basic_string@DU?$char_traits@D@std@@V?$allocator@D@2@@std@@@?$vector@V?$basic_string@DU?$char_traits@D@std@@V?$allocator@D@2@@std@@V?$allocator@V?$basic_string@DU?$char_traits@D@std@@V?$allocator@D@2@@std@@@2@@std@@IAEPAV?$basic_string@DU?$char_traits@D@std@@V?$allocator@D@2@@1@PAV21@00@Z 00421c00 f i common:IniFile.obj
 0001:00020c30       ??$_Unchecked_move_backward@PAV?$basic_string@DU?$char_traits@D@std@@V?$allocator@D@2@@std@@PAV12@@stdext@@YAPAV?$basic_string@DU?$char_traits@D@std@@V?$allocator@D@2@@std@@PAV12@00@Z 00421c30 f i common:IniFile.obj
 0001:00020c60       ?clear@?$vector@V?$basic_string@DU?$char_traits@D@std@@V?$allocator@D@2@@std@@V?$allocator@V?$basic_string@DU?$char_traits@D@std@@V?$allocator@D@2@@std@@@2@@std@@QAEXXZ 00421c60 f i common:IniFile.obj
 0001:00020ca0       ?_Insert_n@?$vector@V?$basic_string@DU?$char_traits@D@std@@V?$allocator@D@2@@std@@V?$allocator@V?$basic_string@DU?$char_traits@D@std@@V?$allocator@D@2@@std@@@2@@std@@IAEXV?$_Vector_iterator@V?$basic_string@DU?$char_traits@D@std@@V?$allocator@D@2@@std@@V?$allocator@V?$basic_string@DU?$char_traits@D@std@@V?$allocator@D@2@@std@@@2@@2@IABV?$basic_string@DU?$char_traits@D@std@@V?$allocator@D@2@@2@@Z 00421ca0 f i common:IniFile.obj
 0001:00021000       ?insert@?$vector@V?$basic_string@DU?$char_traits@D@std@@V?$allocator@D@2@@std@@V?$allocator@V?$basic_string@DU?$char_traits@D@std@@V?$allocator@D@2@@std@@@2@@std@@QAE?AV?$_Vector_iterator@V?$basic_string@DU?$char_traits@D@std@@V?$allocator@D@2@@std@@V?$allocator@V?$basic_string@DU?$char_traits@D@std@@V?$allocator@D@2@@std@@@2@@2@V32@ABV?$basic_string@DU?$char_traits@D@std@@V?$allocator@D@2@@2@@Z 00422000 f i common:IniFile.obj
 0001:000210c0       ?push_back@?$vector@V?$basic_string@DU?$char_traits@D@std@@V?$allocator@D@2@@std@@V?$allocator@V?$basic_string@DU?$char_traits@D@std@@V?$allocator@D@2@@std@@@2@@std@@QAEXABV?$basic_string@DU?$char_traits@D@std@@V?$allocator@D@2@@2@@Z 004220c0 f i common:IniFile.obj
 0001:00021170       ?ReadSections@CIniFile@Win32@OnlineGameLib@@QAEHAAV?$vector@V?$basic_string@DU?$char_traits@D@std@@V?$allocator@D@2@@std@@V?$allocator@V?$basic_string@DU?$char_traits@D@std@@V?$allocator@D@2@@std@@@2@@std@@@Z 00422170 f   common:IniFile.obj
 0001:000212e0       ?ReadSection@CIniFile@Win32@OnlineGameLib@@QAEHPBDAAV?$vector@V?$basic_string@DU?$char_traits@D@std@@V?$allocator@D@2@@std@@V?$allocator@V?$basic_string@DU?$char_traits@D@std@@V?$allocator@D@2@@std@@@2@@std@@@Z 004222e0 f   common:IniFile.obj
 0001:00021450       ?Next@Node@CNodeList@OnlineGameLib@@QBEPAV123@XZ 00422450 f i common:NodeList.obj
 0001:00021460       ?Next@Node@CNodeList@OnlineGameLib@@QAEXPAV123@@Z 00422460 f i common:NodeList.obj
 0001:00021470       ??0CNodeList@OnlineGameLib@@QAE@XZ 00422470 f   common:NodeList.obj
 0001:00021480       ??0Node@CNodeList@OnlineGameLib@@IAE@XZ 00422480 f   common:NodeList.obj
 0001:00021490       ?AddToList@Node@CNodeList@OnlineGameLib@@QAEXPAV23@@Z 00422490 f   common:NodeList.obj
 0001:000214a0       ?Unlink@Node@CNodeList@OnlineGameLib@@AAEXXZ 004224a0 f   common:NodeList.obj
 0001:000214d0       ?PushNode@CNodeList@OnlineGameLib@@QAEXPAVNode@12@@Z 004224d0 f   common:NodeList.obj
 0001:000214f0       ?RemoveNode@CNodeList@OnlineGameLib@@AAEXPAVNode@12@@Z 004224f0 f   common:NodeList.obj
 0001:00021510       ?RemoveFromList@Node@CNodeList@OnlineGameLib@@QAEXXZ 00422510 f   common:NodeList.obj
 0001:00021520       ?PopNode@CNodeList@OnlineGameLib@@QAEPAVNode@12@XZ 00422520 f   common:NodeList.obj
 0001:00021540       ??1Node@CNodeList@OnlineGameLib@@IAE@XZ 00422540 f   common:NodeList.obj
 0001:00021554       ?KSG_StringToMD5String@@YAHQADQBD@Z 00422554 f   engine:Engine.dll
 0001:0002155a       ??0invalid_argument@std@@QAE@ABV?$basic_string@DU?$char_traits@D@std@@V?$allocator@D@2@@1@@Z 0042255a f i libcpmt:string.obj
 0001:00021572       ??1invalid_argument@std@@UAE@XZ 00422572 f i libcpmt:string.obj
 0001:0002157d       ??_Ginvalid_argument@std@@UAEPAXI@Z 0042257d f i libcpmt:string.obj
 0001:0002157d       ??_Einvalid_argument@std@@UAEPAXI@Z 0042257d f i libcpmt:string.obj
 0001:0002159f       ?_Xlen@_String_base@std@@SAXXZ 0042259f f   libcpmt:string.obj
 0001:000215de       ?_Xran@_String_base@std@@SAXXZ 004225de f   libcpmt:string.obj
 0001:0002161d       ?_Xinvarg@_String_base@std@@SAXXZ 0042261d f   libcpmt:string.obj
 0001:0002165c       ??0invalid_argument@std@@QAE@ABV01@@Z 0042265c f i libcpmt:string.obj
 0001:00021674       __Tolower                  00422674 f   libcpmt:_tolower.obj
 0001:00021783       __Getctype                 00422783 f   libcpmt:_tolower.obj
 0001:000217de       __Wcrtomb                  004227de f   libcpmt:xwctomb.obj
 0001:0002185f       __Getcvt                   0042285f f   libcpmt:xwctomb.obj
 0001:00021873       ___Wcrtomb_lk              00422873 f   libcpmt:xwctomb.obj
 0001:00021878       ??0_Init_locks@std@@QAE@XZ 00422878 f   libcpmt:xlock.obj
 0001:000218a7       ??1_Init_locks@std@@QAE@XZ 004228a7 f   libcpmt:xlock.obj
 0001:000218d0       ?_Init_locks_ctor@_Init_locks@std@@CAXPAV12@@Z 004228d0 f   libcpmt:xlock.obj
 0001:000218f9       ?_Init_locks_dtor@_Init_locks@std@@CAXPAV12@@Z 004228f9 f   libcpmt:xlock.obj
 0001:00021922       ??0_Lockit@std@@QAE@XZ     00422922 f   libcpmt:xlock.obj
 0001:00021937       ??0_Lockit@std@@QAE@H@Z    00422937 f   libcpmt:xlock.obj
 0001:00021958       ??1_Lockit@std@@QAE@XZ     00422958 f   libcpmt:xlock.obj
 0001:0002196a       ?_Lockit_ctor@_Lockit@std@@CAXPAV12@@Z 0042296a f   libcpmt:xlock.obj
 0001:00021976       ?_Lockit_ctor@_Lockit@std@@CAXPAV12@H@Z 00422976 f   libcpmt:xlock.obj
 0001:00021993       ?_Lockit_dtor@_Lockit@std@@CAXPAV12@@Z 00422993 f   libcpmt:xlock.obj
 0001:000219a9       ?_Lockit_ctor@_Lockit@std@@SAXH@Z 004229a9 f   libcpmt:xlock.obj
 0001:000219c0       ?_Lockit_dtor@_Lockit@std@@SAXH@Z 004229c0 f   libcpmt:xlock.obj
 0001:000219d7       ??0locale@std@@QAE@W4_Uninitialized@1@@Z 004229d7 f i libcpmt:locale0.obj
 0001:000219dc       ??0locale@std@@AAE@PAV_Locimp@01@@Z 004229dc f i libcpmt:locale0.obj
 0001:000219e7       ??0_Fac_node@std@@QAE@PAU01@PAVfacet@locale@1@@Z 004229e7 f i libcpmt:locale0.obj
 0001:000219f9       ??1_Fac_node@std@@QAE@XZ   004229f9 f i libcpmt:locale0.obj
 0001:00021a0e       ??_G_Fac_node@std@@QAEPAXI@Z 00422a0e f i libcpmt:locale0.obj
 0001:00021a2a       __Deletegloballocale       00422a2a f   libcpmt:locale0.obj
 0001:00021a70       ?_Getgloballocale@locale@std@@CAPAV_Locimp@12@XZ 00422a70 f   libcpmt:locale0.obj
 0001:00021a76       ?_Setgloballocale@locale@std@@CAXPAX@Z 00422a76 f   libcpmt:locale0.obj
 0001:00021a9b       ?_Clocptr_func@_Locimp@locale@std@@CAAAPAV123@XZ 00422a9b f   libcpmt:locale0.obj
 0001:00021aa1       ?_Id_cnt_func@id@locale@std@@CAAAHXZ 00422aa1 f   libcpmt:locale0.obj
 0001:00021aa7       ?_Id_func@?$ctype@D@std@@SAAAVid@locale@2@XZ 00422aa7 f   libcpmt:locale0.obj
 0001:00021aad       ?_Id_func@?$ctype@_W@std@@SAAAVid@locale@2@XZ 00422aad f   libcpmt:locale0.obj
 0001:00021ab3       ?_Id_func@?$codecvt@_WDH@std@@SAAAVid@locale@2@XZ 00422ab3 f   libcpmt:locale0.obj
 0001:00021ab9       ?_Id_func@?$ctype@G@std@@SAAAVid@locale@2@XZ 00422ab9 f   libcpmt:locale0.obj
 0001:00021abf       ?_Id_func@?$codecvt@GDH@std@@SAAAVid@locale@2@XZ 00422abf f   libcpmt:locale0.obj
 0001:00021ac5       ?_Locimp_dtor@_Locimp@locale@std@@CAXPAV123@@Z 00422ac5 f   libcpmt:locale0.obj
 0001:00021b25       __Fac_tidy                 00422b25 f   libcpmt:locale0.obj
 0001:00021b68       ?facet_Register@facet@locale@std@@CAXPAV123@@Z 00422b68 f   libcpmt:locale0.obj
 0001:00021ba1       ?_Locinfo_dtor@_Locinfo@std@@SAXPAV12@@Z 00422ba1 f   libcpmt:locale0.obj
 0001:00021bc4       ??0_Locimp@locale@std@@AAE@_N@Z 00422bc4 f i libcpmt:locale0.obj
 0001:00021c0d       ??1_Locimp@locale@std@@MAE@XZ 00422c0d f i libcpmt:locale0.obj
 0001:00021c4a       ??_G_Locimp@locale@std@@MAEPAXI@Z 00422c4a f i libcpmt:locale0.obj
 0001:00021c4a       ??_E_Locimp@locale@std@@MAEPAXI@Z 00422c4a f i libcpmt:locale0.obj
 0001:00021c66       ?_Init@locale@std@@CAPAV_Locimp@12@XZ 00422c66 f   libcpmt:locale0.obj
 0001:00021d00       ?_Locinfo_ctor@_Locinfo@std@@SAXPAV12@PBD@Z 00422d00 f   libcpmt:locale0.obj
 0001:00021d4a       ?classic@locale@std@@SAABV12@XZ 00422d4a f   libcpmt:locale0.obj
 0001:00021d55       ?empty@locale@std@@SA?AV12@XZ 00422d55 f   libcpmt:locale0.obj
 0001:00021d97       ?_Callfns@ios_base@std@@AAEXW4event@12@@Z 00422d97 f i libcpmt:ios.obj
 0001:00021db9       ?_Tidy@ios_base@std@@AAAXXZ 00422db9 f i libcpmt:ios.obj
 0001:00021dff       ?_Fpz_func@std@@YAAA_JXZ   00422dff f   libcpmt:ios.obj
 0001:00021e05       ?_BADOFF_func@std@@YAABJXZ 00422e05 f   libcpmt:ios.obj
 0001:00021e0b       ?_Index_func@ios_base@std@@CAAAHXZ 00422e0b f   libcpmt:ios.obj
 0001:00021e11       ?_Sync_func@ios_base@std@@CAAA_NXZ 00422e11 f   libcpmt:ios.obj
 0001:00021e17       ?_Addstd@ios_base@std@@SAXPAV12@@Z 00422e17 f   libcpmt:ios.obj
 0001:00021e67       ?_Ios_base_dtor@ios_base@std@@CAXPAV12@@Z 00422e67 f   libcpmt:ios.obj
 0001:00021ea5       ??0_Mutex@std@@QAE@XZ      00422ea5 f   libcpmt:xmutex.obj
 0001:00021ebd       ??1_Mutex@std@@QAE@XZ      00422ebd f   libcpmt:xmutex.obj
 0001:00021ed2       ?_Lock@_Mutex@std@@QAEXXZ  00422ed2 f   libcpmt:xmutex.obj
 0001:00021edb       ?_Unlock@_Mutex@std@@QAEXXZ 00422edb f   libcpmt:xmutex.obj
 0001:00021ee4       ?_Mutex_ctor@_Mutex@std@@CAXPAV12@@Z 00422ee4 f   libcpmt:xmutex.obj
 0001:00021efa       ?_Mutex_dtor@_Mutex@std@@CAXPAV12@@Z 00422efa f   libcpmt:xmutex.obj
 0001:00021f11       ?_Mutex_Lock@_Mutex@std@@CAXPAV12@@Z 00422f11 f   libcpmt:xmutex.obj
 0001:00021f1e       ?_Mutex_Unlock@_Mutex@std@@CAXPAV12@@Z 00422f1e f   libcpmt:xmutex.obj
 0001:00021f2b       ??_U@YAPAXI@Z              00422f2b f   libcpmt:newaop.obj
 0001:00021f30       __Toupper                  00422f30 f   libcpmt:_toupper.obj
 0001:00022044       ?uncaught_exception@std@@YA_NXZ 00423044 f   libcpmt:uncaught.obj
 0001:00022089       __GetLocaleForCP           00423089 f   libcpmt:xmbtowc.obj
 0001:0002216c       __Mbrtowc                  0042316c f   libcpmt:xmbtowc.obj
 0001:000222dd       __Once                     004232dd f   libcpmt:xmtx.obj
 0001:00022314       __Mtxinit                  00423314 f   libcpmt:xmtx.obj
 0001:0002231f       __Mtxdst                   0042331f f   libcpmt:xmtx.obj
 0001:0002232a       __Mtxlock                  0042332a f   libcpmt:xmtx.obj
 0001:00022335       __Mtxunlock                00423335 f   libcpmt:xmtx.obj
 0001:00022340       ?_Atexit@@YAXP6AXXZ@Z      00423340 f   libcpmt:iosptrs.obj
 0001:00022360       ??1_Init_atexit@@QAE@XZ    00423360 f i libcpmt:iosptrs.obj
 0001:00022386       _inet_addr@4               00423386 f   ws2_32:WS2_32.dll
 0001:0002238c       _gethostbyname@4           0042338c f   ws2_32:WS2_32.dll
 0001:00022392       _gethostname@8             00423392 f   ws2_32:WS2_32.dll
 0001:00022398       ?InterlockedExchangePointer@@YGPAXPAPAXPAX@Z 00423398 f i atls:atltrace.obj
 0001:0002239e       ?_AtlGetThreadACPFake@ATL@@YGIXZ 0042339e f i atls:atltrace.obj
 0001:00022403       ?_AtlGetThreadACPReal@ATL@@YGIXZ 00423403 f i atls:atltrace.obj
 0001:00022407       ?_AtlGetThreadACPThunk@ATL@@YGIXZ 00423407 f i atls:atltrace.obj
 0001:0002246b       ??3@YAXPAX@Z               0042346b f   LIBCMT:delete.obj
 0001:00022470       ??0exception@std@@QAE@XZ   00423470 f   LIBCMT:stdexcpt.obj
 0001:00022481       ??0exception@std@@QAE@ABQBD@Z 00423481 f   LIBCMT:stdexcpt.obj
 0001:000224cf       ??0exception@std@@QAE@ABQBDH@Z 004234cf f   LIBCMT:stdexcpt.obj
 0001:000224e7       ??0exception@std@@QAE@ABV01@@Z 004234e7 f   LIBCMT:stdexcpt.obj
 0001:0002253f       ??4exception@std@@QAEAAV01@ABV01@@Z 0042353f f   LIBCMT:stdexcpt.obj
 0001:00022595       ??1exception@std@@UAE@XZ   00423595 f   LIBCMT:stdexcpt.obj
 0001:000225ab       ?what@exception@std@@UBEPBDXZ 004235ab f   LIBCMT:stdexcpt.obj
 0001:000225b8       ??0bad_cast@std@@QAE@PBD@Z 004235b8 f   LIBCMT:stdexcpt.obj
 0001:000225d1       ??0bad_cast@std@@QAE@ABV01@@Z 004235d1 f   LIBCMT:stdexcpt.obj
 0001:000225e9       ??1bad_cast@std@@UAE@XZ    004235e9 f   LIBCMT:stdexcpt.obj
 0001:000225f4       ??0bad_typeid@std@@QAE@PBD@Z 004235f4 f   LIBCMT:stdexcpt.obj
 0001:0002260d       ??0bad_typeid@std@@QAE@ABV01@@Z 0042360d f   LIBCMT:stdexcpt.obj
 0001:00022625       ??1bad_typeid@std@@UAE@XZ  00423625 f   LIBCMT:stdexcpt.obj
 0001:00022630       ??0__non_rtti_object@std@@QAE@PBD@Z 00423630 f   LIBCMT:stdexcpt.obj
 0001:00022648       ??0__non_rtti_object@std@@QAE@ABV01@@Z 00423648 f   LIBCMT:stdexcpt.obj
 0001:00022660       ??1__non_rtti_object@std@@UAE@XZ 00423660 f   LIBCMT:stdexcpt.obj
 0001:0002266b       ??_Eexception@std@@UAEPAXI@Z 0042366b f i LIBCMT:stdexcpt.obj
 0001:0002266b       ??_Gexception@std@@UAEPAXI@Z 0042366b f i LIBCMT:stdexcpt.obj
 0001:00022687       ??_Gbad_cast@std@@UAEPAXI@Z 00423687 f i LIBCMT:stdexcpt.obj
 0001:00022687       ??_Ebad_cast@std@@UAEPAXI@Z 00423687 f i LIBCMT:stdexcpt.obj
 0001:000226a9       ??_Gbad_typeid@std@@UAEPAXI@Z 004236a9 f i LIBCMT:stdexcpt.obj
 0001:000226a9       ??_Ebad_typeid@std@@UAEPAXI@Z 004236a9 f i LIBCMT:stdexcpt.obj
 0001:000226cb       ??_G__non_rtti_object@std@@UAEPAXI@Z 004236cb f i LIBCMT:stdexcpt.obj
 0001:000226cb       ??_E__non_rtti_object@std@@UAEPAXI@Z 004236cb f i LIBCMT:stdexcpt.obj
 0001:000226ed       ?name@type_info@@QBEPBDPAU__type_info_node@@@Z 004236ed f   LIBCMT:typinfo.obj
 0001:000226fc       ??1type_info@@UAE@XZ       004236fc f   LIBCMT:typinfo.obj
 0001:0002270a       ??_Gtype_info@@UAEPAXI@Z   0042370a f i LIBCMT:typinfo.obj
 0001:0002270a       ??_Etype_info@@UAEPAXI@Z   0042370a f i LIBCMT:typinfo.obj
 0001:00022726       ?_name_internal_method@type_info@@QBEPBDPAU__type_info_node@@@Z 00423726 f   LIBCMT:typinfo.obj
 0001:00022735       ?_type_info_dtor_internal_method@type_info@@QAEXXZ 00423735 f   LIBCMT:typinfo.obj
 0001:0002273d       ??8type_info@@QBE_NABV0@@Z 0042373d f   LIBCMT:typinfo.obj
 0001:00022758       ??9type_info@@QBE_NABV0@@Z 00423758 f   LIBCMT:typinfo.obj
 0001:00022774       ?before@type_info@@QBEHABV1@@Z 00423774 f   LIBCMT:typinfo.obj
 0001:00022793       ?raw_name@type_info@@QBEPBDXZ 00423793 f   LIBCMT:typinfo.obj
 0001:00022797       ??0type_info@@AAE@ABV0@@Z  00423797 f   LIBCMT:typinfo.obj
 0001:000227a2       ??4type_info@@AAEAAV0@ABV0@@Z 004237a2 f   LIBCMT:typinfo.obj
 0001:000227a7       _memcpy_s                  004237a7 f   LIBCMT:memcpy_s.obj
 0001:00022822       _memmove_s                 00423822 f   LIBCMT:memmove_s.obj
 0001:0002287d       __time64                   0042387d f   LIBCMT:time64.obj
 0001:000228b9       @__security_check_cookie@4 004238b9 f   LIBCMT:secchk.obj
 0001:000228c8       ??0bad_alloc@std@@QAE@XZ   004238c8 f i LIBCMT:new.obj
 0001:000228e1       ??2@YAPAXI@Z               004238e1 f   LIBCMT:new.obj
 0001:0002294b       __CxxThrowException@8      0042394b f   LIBCMT:throw.obj
 0001:00022995       ?_JumpToContinuation@@YGXPAXPAUEHRegistrationNode@@@Z 00423995 f   LIBCMT:trnsctrl.obj
 0001:000229c5       ?_CallMemberFunction0@@YGXPAX0@Z 004239c5 f   LIBCMT:trnsctrl.obj
 0001:000229cc       ?_CallMemberFunction1@@YGXPAX00@Z 004239cc f   LIBCMT:trnsctrl.obj
 0001:000229d3       ?_CallMemberFunction2@@YGXPAX00H@Z 004239d3 f   LIBCMT:trnsctrl.obj
 0001:000229da       ?_UnwindNestedFrames@@YGXPAUEHRegistrationNode@@PAUEHExceptionRecord@@@Z 004239da f   LIBCMT:trnsctrl.obj
 0001:00022a2c       ___CxxFrameHandler         00423a2c f   LIBCMT:trnsctrl.obj
 0001:00022a62       ___CxxFrameHandler3        00423a62 f   LIBCMT:trnsctrl.obj
 0001:00022a98       ___CxxFrameHandler2        00423a98 f   LIBCMT:trnsctrl.obj
 0001:00022ace       ___CxxLongjmpUnwind@4      00423ace f   LIBCMT:trnsctrl.obj
 0001:00022b18       ?_CallSETranslator@@YAHPAUEHExceptionRecord@@PAUEHRegistrationNode@@PAX2PBU_s_FuncInfo@@H1@Z 00423b18 f   LIBCMT:trnsctrl.obj
 0001:00022c8a       ?_GetRangeOfTrysToCheck@@YAPBU_s_TryBlockMapEntry@@PBU_s_FuncInfo@@HHPAI1@Z 00423c8a f   LIBCMT:trnsctrl.obj
 0001:00022cfd       __CreateFrameInfo          00423cfd f   LIBCMT:trnsctrl.obj
 0001:00022d25       __IsExceptionObjectToBeDestroyed 00423d25 f   LIBCMT:trnsctrl.obj
 0001:00022d46       __FindAndUnlinkFrame       00423d46 f   LIBCMT:trnsctrl.obj
 0001:00022d92       ?_CallCatchBlock2@@YAPAXPAUEHRegistrationNode@@PBU_s_FuncInfo@@PAXHK@Z 00423d92 f   LIBCMT:trnsctrl.obj
 0001:00022df0       _sprintf                   00423df0 f   LIBCMT:sprintf.obj
 0001:00022e6b       __sprintf_l                00423e6b f   LIBCMT:sprintf.obj
 0001:00022e85       _sprintf_s                 00423e85 f   LIBCMT:sprintf.obj
 0001:00022ea1       __sprintf_s_l              00423ea1 f   LIBCMT:sprintf.obj
 0001:00022ebe       __snprintf_s               00423ebe f   LIBCMT:sprintf.obj
 0001:00022edd       __snprintf_s_l             00423edd f   LIBCMT:sprintf.obj
 0001:00022efd       __sprintf_p                00423efd f   LIBCMT:sprintf.obj
 0001:00022f19       __sprintf_p_l              00423f19 f   LIBCMT:sprintf.obj
 0001:00022f36       __scprintf                 00423f36 f   LIBCMT:sprintf.obj
 0001:00022f47       __scprintf_p               00423f47 f   LIBCMT:sprintf.obj
 0001:00022f58       __scprintf_l               00423f58 f   LIBCMT:sprintf.obj
 0001:00022f6e       __scprintf_p_l             00423f6e f   LIBCMT:sprintf.obj
 0001:00022f84       _srand                     00423f84 f   LIBCMT:rand.obj
 0001:00022f91       _rand                      00423f91 f   LIBCMT:rand.obj
 0001:0002306c       ___onexitinit              0042406c f   LIBCMT:onexit.obj
 0001:0002309b       __onexit                   0042409b f   LIBCMT:onexit.obj
 0001:000230d7       _atexit                    004240d7 f   LIBCMT:onexit.obj
 0001:000230e9       __purecall                 004240e9 f   LIBCMT:purevirt.obj
 0001:00023113       __set_purecall_handler     00424113 f   LIBCMT:purevirt.obj
 0001:00023135       __get_purecall_handler     00424135 f   LIBCMT:purevirt.obj
 0001:00023142       ??_V@YAXPAX@Z              00424142 f   LIBCMT:delete2.obj
 0001:00023147       _free                      00424147 f   LIBCMT:free.obj
 0001:000231e0       _memcpy                    004241e0 f   LIBCMT:memcpy.obj
 0001:00023545       __initp_misc_invarg        00424545 f   LIBCMT:invarg.obj
 0001:0002354f       __invoke_watson            0042454f f   LIBCMT:invarg.obj
 0001:0002364b       __set_invalid_parameter_handler 0042464b f   LIBCMT:invarg.obj
 0001:0002366d       __get_invalid_parameter_handler 0042466d f   LIBCMT:invarg.obj
 0001:0002367a       ?_invoke_watson@@YAXPBG00II@Z 0042467a f   LIBCMT:invarg.obj
 0001:00023683       __invalid_parameter        00424683 f   LIBCMT:invarg.obj
 0001:000236a7       __invalid_parameter_noinfo 004246a7 f   LIBCMT:invarg.obj
 0001:000236b7       ?_invalid_parameter@@YAXPBG00II@Z 004246b7 f   LIBCMT:invarg.obj
 0001:000236c0       _memset                    004246c0 f   LIBCMT:memset.obj
 0001:0002373a       _localeconv                0042473a f   LIBCMT:lconv.obj
 0001:00023760       _memchr                    00424760 f   LIBCMT:memchr.obj
 0001:0002381f       ?__ArrayUnwind@@YGXPAXIHP6EX0@Z@Z 0042481f f   LIBCMT:ehvecdtr.obj
 0001:0002387d       ??_M@YGXPAXIHP6EX0@Z@Z     0042487d f   LIBCMT:ehvecdtr.obj
 0001:000238e0       _strcspn                   004248e0 f   LIBCMT:strcspn.obj
 0001:00023926       __fpclear                  00424926 f   LIBCMT:fpinit.obj
 0001:00023927       __cfltcvt_init             00424927 f   LIBCMT:fpinit.obj
 0001:00023987       ___setfflag                00424987 f   LIBCMT:fpinit.obj
 0001:00023997       __fpmath                   00424997 f   LIBCMT:fpinit.obj
 0001:000239b5       ??_L@YGXPAXIHP6EX0@Z1@Z    004249b5 f   LIBCMT:ehvecctr.obj
 0001:00023a20       _strncpy                   00424a20 f   LIBCMT:strncpy.obj
 0001:00023b44       _atol                      00424b44 f   LIBCMT:atox.obj
 0001:00023b55       __atol_l                   00424b55 f   LIBCMT:atox.obj
 0001:00023b6a       _atoi                      00424b6a f   LIBCMT:atox.obj
 0001:00023b6f       __atoi_l                   00424b6f f   LIBCMT:atox.obj
 0001:00023b74       __atoi64                   00424b74 f   LIBCMT:atox.obj
 0001:00023b85       __atoi64_l                 00424b85 f   LIBCMT:atox.obj
 0001:00023ba0       __alloca_probe_16          00424ba0 f   LIBCMT:alloca16.obj
 0001:00023bb6       __alloca_probe_8           00424bb6     LIBCMT:alloca16.obj
 0001:00023bcc       __set_osplatform           00424bcc f i LIBCMT:wincrt0.obj
 0001:00023bd6       __set_osver                00424bd6 f i LIBCMT:wincrt0.obj
 0001:00023be0       __set_winver               00424be0 f i LIBCMT:wincrt0.obj
 0001:00023bea       __set_winmajor             00424bea f i LIBCMT:wincrt0.obj
 0001:00023bf4       __set_winminor             00424bf4 f i LIBCMT:wincrt0.obj
 0001:00023e43       _WinMainCRTStartup         00424e43 f   LIBCMT:wincrt0.obj
 0001:00023e50       _memmove                   00424e50 f   LIBCMT:memmove.obj
 0001:000241b5       _strtok                    004251b5 f   LIBCMT:strtok.obj
 0001:00024274       _fgetc                     00425274 f   LIBCMT:fgetc.obj
 0001:000243ab       _getc                      004253ab f   LIBCMT:fgetc.obj
 0001:000244e2       __getc_nolock              004254e2 f   LIBCMT:fgetc.obj
 0001:000244fc       _fputc                     004254fc f   LIBCMT:fputc.obj
 0001:0002463b       _putc                      0042563b f   LIBCMT:fputc.obj
 0001:0002477a       __ungetc_nolock            0042577a f   LIBCMT:ungetc.obj
 0001:00024898       _ungetc                    00425898 f   LIBCMT:ungetc.obj
 0001:0002490a       __flush                    0042590a f   LIBCMT:fflush.obj
 0001:0002496c       __fflush_nolock            0042596c f   LIBCMT:fflush.obj
 0001:00024a88       _fflush                    00425a88 f   LIBCMT:fflush.obj
 0001:00024adb       __flushall                 00425adb f   LIBCMT:fflush.obj
 0001:00024ae4       _setvbuf                   00425ae4 f   LIBCMT:setvbuf.obj
 0001:00024be2       __fwrite_nolock            00425be2 f   LIBCMT:fwrite.obj
 0001:00024d41       _fwrite                    00425d41 f   LIBCMT:fwrite.obj
 0001:00024dc3       _fgetpos                   00425dc3 f   LIBCMT:fgetpos.obj
 0001:00024e2e       __fseek_nolock             00425e2e f   LIBCMT:fseek.obj
 0001:00024eb5       _fseek                     00425eb5 f   LIBCMT:fseek.obj
 0001:00024f3a       _fsetpos                   00425f3a f   LIBCMT:fsetpos.obj
 0001:00024f7c       __fclose_nolock            00425f7c f   LIBCMT:fclose.obj
 0001:00024fee       _fclose                    00425fee f   LIBCMT:fclose.obj
 0001:0002506a       ??0_LocaleUpdate@@QAE@PAUlocaleinfo_struct@@@Z 0042606a f i LIBCMT:toupper.obj
 0001:000250ec       ??1_LocaleUpdate@@QAE@XZ   004260ec f i LIBCMT:toupper.obj
 0001:000250fa       ?GetLocaleT@_LocaleUpdate@@QAEPAUlocaleinfo_struct@@XZ 004260fa f i LIBCMT:toupper.obj
 0001:000250fd       __toupper                  004260fd f   LIBCMT:toupper.obj
 0001:00025105       __toupper_l                00426105 f   LIBCMT:toupper.obj
 0001:0002521d       _toupper                   0042621d f   LIBCMT:toupper.obj
 0001:00025244       __isalpha_l                00426244 f i LIBCMT:_ctype.obj
 0001:00025298       _isalpha                   00426298 f i LIBCMT:_ctype.obj
 0001:000252c3       __isupper_l                004262c3 f i LIBCMT:_ctype.obj
 0001:00025312       _isupper                   00426312 f i LIBCMT:_ctype.obj
 0001:0002533b       __islower_l                0042633b f i LIBCMT:_ctype.obj
 0001:0002538a       _islower                   0042638a f i LIBCMT:_ctype.obj
 0001:000253b3       __isdigit_l                004263b3 f i LIBCMT:_ctype.obj
 0001:00025402       _isdigit                   00426402 f i LIBCMT:_ctype.obj
 0001:0002542b       __isxdigit_l               0042642b f i LIBCMT:_ctype.obj
 0001:0002547f       _isxdigit                  0042647f f i LIBCMT:_ctype.obj
 0001:000254aa       __isspace_l                004264aa f i LIBCMT:_ctype.obj
 0001:000254f9       _isspace                   004264f9 f i LIBCMT:_ctype.obj
 0001:00025522       __ispunct_l                00426522 f i LIBCMT:_ctype.obj
 0001:00025571       _ispunct                   00426571 f i LIBCMT:_ctype.obj
 0001:0002559a       __isalnum_l                0042659a f i LIBCMT:_ctype.obj
 0001:000255ee       _isalnum                   004265ee f i LIBCMT:_ctype.obj
 0001:00025619       __isprint_l                00426619 f i LIBCMT:_ctype.obj
 0001:0002566d       _isprint                   0042666d f i LIBCMT:_ctype.obj
 0001:00025698       __isgraph_l                00426698 f i LIBCMT:_ctype.obj
 0001:000256ec       _isgraph                   004266ec f i LIBCMT:_ctype.obj
 0001:00025717       __iscntrl_l                00426717 f i LIBCMT:_ctype.obj
 0001:00025766       _iscntrl                   00426766 f i LIBCMT:_ctype.obj
 0001:0002578f       ___isascii                 0042678f f i LIBCMT:_ctype.obj
 0001:0002579c       ___toascii                 0042679c f i LIBCMT:_ctype.obj
 0001:000257a4       __iscsymf_l                004267a4 f i LIBCMT:_ctype.obj
 0001:000257c3       ___iscsymf                 004267c3 f i LIBCMT:_ctype.obj
 0001:000257dd       __iscsym_l                 004267dd f i LIBCMT:_ctype.obj
 0001:000257fc       ___iscsym                  004267fc f i LIBCMT:_ctype.obj
 0001:00025820       _strlen                    00426820 f   LIBCMT:strlen.obj
 0001:000258ab       __EH_prolog3               004268ab f   LIBCMT:ehprolg3.obj
 0001:000258de       __EH_prolog3_catch         004268de f   LIBCMT:ehprolg3.obj
 0001:00025914       __EH_prolog3_GS            00426914 f   LIBCMT:ehprolg3.obj
 0001:0002594a       __EH_prolog3_catch_GS      0042694a f   LIBCMT:ehprolg3.obj
 0001:00025983       __EH_epilog3               00426983 f   LIBCMT:ehprolg3.obj
 0001:00025997       __EH_epilog3_GS            00426997 f   LIBCMT:ehprolg3.obj
 0001:000259a6       __EH_epilog3_catch_GS      004269a6 f   LIBCMT:ehprolg3.obj
 0001:000259b5       __MarkAllocaS              004269b5 f i LIBCMT:a_map.obj
 0001:000259c7       __freea                    004269c7 f i LIBCMT:a_map.obj
 0001:00025d9e       ___crtLCMapStringA         00426d9e f   LIBCMT:a_map.obj
 0001:00025de1       ___pwctype_func            00426de1 f   LIBCMT:ctype.obj
 0001:00025de7       ___pctype_func             00426de7 f   LIBCMT:ctype.obj
 0001:00025e10       ___init_ctype              00426e10 f   LIBCMT:initctyp.obj
 0001:000261a5       ____mb_cur_max_func        004271a5 f   LIBCMT:initctyp.obj
 0001:000261ce       ____mb_cur_max_l_func      004271ce f   LIBCMT:initctyp.obj
 0001:000261e4       ____lc_codepage_func       004271e4 f   LIBCMT:initctyp.obj
 0001:0002620a       ____lc_collate_cp_func     0042720a f   LIBCMT:initctyp.obj
 0001:00026230       ____lc_handle_func         00427230 f   LIBCMT:initctyp.obj
 0001:00026256       _wait_a_bit                00427256 f i LIBCMT:crtheap.obj
 0001:00026277       __set_malloc_crt_max_wait  00427277 f   LIBCMT:crtheap.obj
 0001:00026287       __malloc_crt               00427287 f   LIBCMT:crtheap.obj
 0001:000262c7       __calloc_crt               004272c7 f   LIBCMT:crtheap.obj
 0001:0002630f       __realloc_crt              0042730f f   LIBCMT:crtheap.obj
 0001:0002635a       __recalloc_crt             0042735a f   LIBCMT:crtheap.obj
 0001:000263aa       @_malloc_crt_fastcall@4    004273aa f   LIBCMT:crtheap.obj
 0001:000263b2       @_calloc_crt_fastcall@8    004273b2 f   LIBCMT:crtheap.obj
 0001:000263bc       @_realloc_crt_fastcall@8   004273bc f   LIBCMT:crtheap.obj
 0001:000263c6       __get_errno_from_oserr     004273c6 f   LIBCMT:dosmap.obj
 0001:00026401       __errno                    00427401 f   LIBCMT:dosmap.obj
 0001:00026414       ___doserrno                00427414 f   LIBCMT:dosmap.obj
 0001:00026427       __dosmaperr                00427427 f   LIBCMT:dosmap.obj
 0001:00026445       __set_errno                00427445 f   LIBCMT:dosmap.obj
 0001:00026460       __get_errno                00427460 f   LIBCMT:dosmap.obj
 0001:0002648a       __set_doserrno             0042748a f   LIBCMT:dosmap.obj
 0001:000264a5       __get_doserrno             004274a5 f   LIBCMT:dosmap.obj
 0001:000264cf       __invoke_watson_if_error   004274cf f i LIBCMT:setlocal.obj
 0001:000264f1       ____setlc_active_func      004274f1 f   LIBCMT:setlocal.obj
 0001:000264f7       ____unguarded_readlc_active_add_func 004274f7 f   LIBCMT:setlocal.obj
 0001:000264fd       ___freetlocinfo            004274fd f   LIBCMT:setlocal.obj
 0001:0002663d       ___addlocaleref            0042763d f   LIBCMT:setlocal.obj
 0001:000266c3       ___removelocaleref         004276c3 f   LIBCMT:setlocal.obj
 0001:000267b1       ___updatetlocinfo          004277b1 f   LIBCMT:setlocal.obj
 0001:00026827       __configthreadlocale       00427827 f   LIBCMT:setlocal.obj
 0001:000268e0       __free_locale              004278e0 f   LIBCMT:setlocal.obj
 0001:00026976       ___free_locale             00427976 f   LIBCMT:setlocal.obj
 0001:0002697b       __get_current_locale       0042797b f   LIBCMT:setlocal.obj
 0001:00026a03       ___get_current_locale      00427a03 f   LIBCMT:setlocal.obj
 0001:00026a08       ___init_dummy              00427a08 f   LIBCMT:setlocal.obj
 0001:00026a0b       __strcats                  00427a0b f   LIBCMT:setlocal.obj
 0001:00026a49       ___lc_strtolc              00427a49 f   LIBCMT:setlocal.obj
 0001:00026b72       ___lc_lctostr              00427b72 f   LIBCMT:setlocal.obj
 0001:00026d4e       __expandlocale             00427d4e f   LIBCMT:setlocal.obj
 0001:000273e6       __create_locale            004283e6 f   LIBCMT:setlocal.obj
 0001:000274d9       ___create_locale           004284d9 f   LIBCMT:setlocal.obj
 0001:000274de       _setlocale                 004284de f   LIBCMT:setlocal.obj
 0001:0002764e       ??0bad_exception@std@@QAE@PBD@Z 0042864e f i LIBCMT:frame.obj
 0001:00027667       ??1bad_exception@std@@UAE@XZ 00428667 f i LIBCMT:frame.obj
 0001:00027672       ??_Gbad_exception@std@@UAEPAXI@Z 00428672 f i LIBCMT:frame.obj
 0001:00027672       ??_Ebad_exception@std@@UAEPAXI@Z 00428672 f i LIBCMT:frame.obj
 0001:00027694       ___TypeMatch               00428694 f   LIBCMT:frame.obj
 0001:000276f0       ___FrameUnwindFilter       004286f0 f   LIBCMT:frame.obj
 0001:00027734       ___FrameUnwindToState      00428734 f   LIBCMT:frame.obj
 0001:0002785a       ___DestructExceptionObject 0042885a f   LIBCMT:frame.obj
 0001:000278ae       ___AdjustPointer           004288ae f   LIBCMT:frame.obj
 0001:000278d3       ?__uncaught_exception@@YA_NXZ 004288d3 f   LIBCMT:frame.obj
 0001:000278e6       ___CxxRegisterExceptionObject 004288e6 f   LIBCMT:frame.obj
 0001:00027999       ___CxxDetectRethrow        00428999 f   LIBCMT:frame.obj
 0001:000279e5       ___CxxUnregisterExceptionObject 004289e5 f   LIBCMT:frame.obj
 0001:00027b1e       ___CxxQueryExceptionSize   00428b1e f   LIBCMT:frame.obj
 0001:00027b22       ___CxxCallUnwindDtor       00428b22 f   LIBCMT:frame.obj
 0001:00027b54       ___CxxCallUnwindDelDtor    00428b54 f   LIBCMT:frame.obj
 0001:00027b87       ___CxxCallUnwindStdDelDtor 00428b87 f   LIBCMT:frame.obj
 0001:00027bb9       ___CxxCallUnwindVecDtor    00428bb9 f   LIBCMT:frame.obj
 0001:00027ce6       ?_is_exception_typeof@@YAHABVtype_info@@PAU_EXCEPTION_POINTERS@@@Z 00428ce6 f   LIBCMT:frame.obj
 0001:00027f04       ___BuildCatchObjectHelper  00428f04 f   LIBCMT:frame.obj
 0001:00028083       ___BuildCatchObject        00429083 f   LIBCMT:frame.obj
 0001:00028114       ___CxxExceptionFilter      00429114 f   LIBCMT:frame.obj
 0001:0002870b       ??0bad_exception@std@@QAE@ABV01@@Z 0042970b f i LIBCMT:frame.obj
 0001:00028723       ___InternalCxxFrameHandler 00429723 f   LIBCMT:frame.obj
 0001:000288e2       __itoa_s                   004298e2 f   LIBCMT:xtoas.obj
 0001:0002890a       __ltoa_s                   0042990a f   LIBCMT:xtoas.obj
 0001:0002892f       __ultoa_s                  0042992f f   LIBCMT:xtoas.obj
 0001:00028a3d       __i64toa_s                 00429a3d f   LIBCMT:xtoas.obj
 0001:00028a70       __ui64toa_s                00429a70 f   LIBCMT:xtoas.obj
 0001:00028a8d       _abort                     00429a8d f   LIBCMT:abort.obj
 0001:00028b80       __set_abort_behavior       00429b80 f   LIBCMT:abort.obj
 0001:00028b9e       _strcpy_s                  00429b9e f   LIBCMT:strcpy_s.obj
 0001:00028c03       _V6_HeapAlloc              00429c03 f   LIBCMT:malloc.obj
 0001:00028c52       __heap_alloc               00429c52 f i LIBCMT:malloc.obj
 0001:00028cc7       _malloc                    00429cc7 f   LIBCMT:malloc.obj
 0001:00028d8a       ?_Type_info_dtor@type_info@@CAXPAV1@@Z 00429d8a f   LIBCMT:typname.obj
 0001:00028dfa       ?_Name_base@type_info@@CAPBDPBV1@PAU__type_info_node@@@Z 00429dfa f   LIBCMT:typname.obj
 0001:00028eef       ?_Type_info_dtor_internal@type_info@@CAXPAV1@@Z 00429eef f   LIBCMT:typname.obj
 0001:00028f5f       ___unDNameHelper           00429f5f f   LIBCMT:typname.obj
 0001:00028f90       ?_Name_base_internal@type_info@@CAPBDPBV1@PAU__type_info_node@@@Z 00429f90 f   LIBCMT:typname.obj
 0001:0002907b       ___clean_type_info_names_internal 0042a07b f   LIBCMT:typname.obj
 0001:000290d0       _strcmp                    0042a0d0 f   LIBCMT:strcmp.obj
 0001:00029160       __aulldiv                  0042a160 f   LIBCMT:ulldiv.obj
 0001:000291c8       ___report_gsfailure        0042a1c8 f   LIBCMT:gs_report.obj
 0001:000292cc       __initp_heap_handler       0042a2cc f   LIBCMT:handler.obj
 0001:000292d6       ?_set_new_handler@@YAP6AHI@ZP6AHI@Z@Z 0042a2d6 f   LIBCMT:handler.obj
 0001:00029307       ?_set_new_handler@@YAP6AHI@ZH@Z 0042a307 f   LIBCMT:handler.obj
 0001:00029310       ?_query_new_handler@@YAP6AHI@ZXZ 0042a310 f   LIBCMT:handler.obj
 0001:0002931d       __callnewh                 0042a31d f   LIBCMT:handler.obj
 0001:000293ab       __encode_pointer           0042a3ab f   LIBCMT:tidtable.obj
 0001:00029419       __encoded_null             0042a419 f   LIBCMT:tidtable.obj
 0001:00029422       __decode_pointer           0042a422 f   LIBCMT:tidtable.obj
 0001:00029490       ___crtTlsAlloc@4           0042a490 f   LIBCMT:tidtable.obj
 0001:00029499       ___fls_getvalue@4          0042a499 f   LIBCMT:tidtable.obj
 0001:000294ae       ___get_flsindex            0042a4ae f   LIBCMT:tidtable.obj
 0001:000294b4       ___set_flsgetvalue         0042a4b4 f   LIBCMT:tidtable.obj
 0001:000294e6       ___fls_setvalue@8          0042a4e6 f   LIBCMT:tidtable.obj
 0001:000294ff       __mtterm                   0042a4ff f   LIBCMT:tidtable.obj
 0001:0002953c       __initptd                  0042a53c f   LIBCMT:tidtable.obj
 0001:000295fb       __getptd_noexit            0042a5fb f   LIBCMT:tidtable.obj
 0001:00029672       __getptd                   0042a672 f   LIBCMT:tidtable.obj
 0001:0002968a       __freefls@4                0042a68a f   LIBCMT:tidtable.obj
 0001:000297ab       __freeptd                  0042a7ab f   LIBCMT:tidtable.obj
 0001:00029814       ___threadid                0042a814 f   LIBCMT:tidtable.obj
 0001:0002981a       ___threadhandle            0042a81a f   LIBCMT:tidtable.obj
 0001:00029820       __mtinit                   0042a820 f   LIBCMT:tidtable.obj
 0001:000299a4       ?terminate@@YAXXZ          0042a9a4 f   LIBCMT:hooks.obj
 0001:000299dd       ?unexpected@@YAXXZ         0042a9dd f   LIBCMT:hooks.obj
 0001:000299f0       ?_inconsistency@@YAXXZ     0042a9f0 f   LIBCMT:hooks.obj
 0001:00029a27       __initp_eh_hooks           0042aa27 f   LIBCMT:hooks.obj
 0001:00029a40       __CallSettingFrame@12      0042aa40 f   LIBCMT:lowhelpr.obj
 0001:00029a67       __NLG_Return               0042aa67     LIBCMT:lowhelpr.obj
 0001:00029a8c       __flsbuf                   0042aa8c f   LIBCMT:_flsbuf.obj
 0001:00029c8d       _get_int_arg               0042ac8d f i LIBCMT:output.obj
 0001:00029c9a       _get_int64_arg             0042ac9a f i LIBCMT:output.obj
 0001:00029caa       _get_short_arg             0042acaa f i LIBCMT:output.obj
 0001:00029cb8       __output_l                 0042acb8 f   LIBCMT:output.obj
 0001:0002a64c       __vsprintf_l               0042b64c f   LIBCMT:vsprintf.obj
 0001:0002a6c8       _vsprintf                  0042b6c8 f   LIBCMT:vsprintf.obj
 0001:0002a6df       __vscprintf_helper         0042b6df f   LIBCMT:vsprintf.obj
 0001:0002a734       __vscprintf                0042b734 f   LIBCMT:vsprintf.obj
 0001:0002a74c       __vscprintf_l              0042b74c f   LIBCMT:vsprintf.obj
 0001:0002a766       __vscprintf_p              0042b766 f   LIBCMT:vsprintf.obj
 0001:0002a77e       __vscprintf_p_l            0042b77e f   LIBCMT:vsprintf.obj
 0001:0002a798       __vsnprintf_helper         0042b798 f   LIBCMT:vsnprnc.obj
 0001:0002a862       __vsnprintf_c              0042b862 f   LIBCMT:vsnprnc.obj
 0001:0002a889       __vsnprintf_c_l            0042b889 f   LIBCMT:vsnprnc.obj
 0001:0002a8b1       __vsprintf_s_l             0042b8b1 f   LIBCMT:vsnprnc.obj
 0001:0002a937       _vsprintf_s                0042b937 f   LIBCMT:vsnprnc.obj
 0001:0002a952       __vsnprintf_s_l            0042b952 f   LIBCMT:vsnprnc.obj
 0001:0002aa57       __vsnprintf_s              0042ba57 f   LIBCMT:vsnprnc.obj
 0001:0002aa75       __vsprintf_p               0042ba75 f   LIBCMT:vsnprnc.obj
 0001:0002aa9c       __vsprintf_p_l             0042ba9c f   LIBCMT:vsnprnc.obj
 0001:0002aac4       __msize                    0042bac4 f   LIBCMT:msize.obj
 0001:0002ab67       __amsg_exit                0042bb67 f   LIBCMT:crt0dat.obj
 0001:0002ab8b       ___crtCorExitProcess       0042bb8b f   LIBCMT:crt0dat.obj
 0001:0002abb1       ___crtExitProcess          0042bbb1 f   LIBCMT:crt0dat.obj
 0001:0002abc6       __lockexit                 0042bbc6 f   LIBCMT:crt0dat.obj
 0001:0002abcf       __unlockexit               0042bbcf f   LIBCMT:crt0dat.obj
 0001:0002abf0       __initterm_e               0042bbf0 f   LIBCMT:crt0dat.obj
 0001:0002ac10       __get_osplatform           0042bc10 f   LIBCMT:crt0dat.obj
 0001:0002ac47       __get_osver                0042bc47 f   LIBCMT:crt0dat.obj
 0001:0002ac83       __get_winver               0042bc83 f   LIBCMT:crt0dat.obj
 0001:0002acbf       __get_winmajor             0042bcbf f   LIBCMT:crt0dat.obj
 0001:0002acfb       __get_winminor             0042bcfb f   LIBCMT:crt0dat.obj
 0001:0002ad37       __get_wpgmptr              0042bd37 f   LIBCMT:crt0dat.obj
 0001:0002ad6e       __get_pgmptr               0042bd6e f   LIBCMT:crt0dat.obj
 0001:0002ada5       __cinit                    0042bda5 f   LIBCMT:crt0dat.obj
 0001:0002af19       _exit                      0042bf19 f   LIBCMT:crt0dat.obj
 0001:0002af2a       __exit                     0042bf2a f   LIBCMT:crt0dat.obj
 0001:0002af3b       __cexit                    0042bf3b f   LIBCMT:crt0dat.obj
 0001:0002af4a       __c_exit                   0042bf4a f   LIBCMT:crt0dat.obj
 0001:0002af59       __init_pointers            0042bf59 f   LIBCMT:crt0dat.obj
 0001:0002afa8       __SEH_prolog4              0042bfa8 f   LIBCMT:sehprolg4.obj
 0001:0002afed       __SEH_epilog4              0042bfed f   LIBCMT:sehprolg4.obj
 0001:0002b040       __except_handler4          0042c040 f   LIBCMT:chandler4.obj
 0001:0002b1d6       __NMSG_WRITE               0042c1d6 f   LIBCMT:crt0msg.obj
 0001:0002b376       __GET_RTERRMSG             0042c376 f   LIBCMT:crt0msg.obj
 0001:0002b396       __FF_MSGBANNER             0042c396 f   LIBCMT:crt0msg.obj
 0001:0002b3cf       ___getlocaleinfo           0042c3cf f   LIBCMT:inithelp.obj
 0001:0002b529       __initp_misc_purevirt      0042c529 f   LIBCMT:inithelp.obj
 0001:0002b533       ___heap_select             0042c533 f   LIBCMT:heapinit.obj
 0001:0002b58e       __heap_init                0042c58e f   LIBCMT:heapinit.obj
 0001:0002b5e8       __heap_term                0042c5e8 f   LIBCMT:heapinit.obj
 0001:0002b65c       __get_heap_handle          0042c65c f   LIBCMT:heapinit.obj
 0001:0002b662       __mtinitlocks              0042c662 f   LIBCMT:mlock.obj
 0001:0002b6ab       __mtdeletelocks            0042c6ab f   LIBCMT:mlock.obj
 0001:0002b700       __unlock                   0042c700 f   LIBCMT:mlock.obj
 0001:0002b715       __lockerr_exit             0042c715 f   LIBCMT:mlock.obj
 0001:0002b72d       __mtinitlocknum            0042c72d f   LIBCMT:mlock.obj
 0001:0002b7f0       __lock                     0042c7f0 f   LIBCMT:mlock.obj
 0001:0002b821       __get_sbh_threshold        0042c821 f   LIBCMT:sbheap.obj
 0001:0002b842       __set_amblksiz             0042c842 f   LIBCMT:sbheap.obj
 0001:0002b888       __get_amblksiz             0042c888 f   LIBCMT:sbheap.obj
 0001:0002b8c4       ___sbh_heap_init           0042c8c4 f   LIBCMT:sbheap.obj
 0001:0002b90c       ___sbh_find_block          0042c90c f   LIBCMT:sbheap.obj
 0001:0002b937       ___sbh_free_block          0042c937 f   LIBCMT:sbheap.obj
 0001:0002bc4b       ___sbh_alloc_new_region    0042cc4b f   LIBCMT:sbheap.obj
 0001:0002bcfb       ___sbh_alloc_new_group     0042ccfb f   LIBCMT:sbheap.obj
 0001:0002be01       ___sbh_resize_block        0042ce01 f   LIBCMT:sbheap.obj
 0001:0002c0e0       ___sbh_heapmin             0042d0e0 f   LIBCMT:sbheap.obj
 0001:0002c1ad       ___sbh_heap_check          0042d1ad f   LIBCMT:sbheap.obj
 0001:0002c48f       __set_sbh_threshold        0042d48f f   LIBCMT:sbheap.obj
 0001:0002c537       ___sbh_alloc_block         0042d537 f   LIBCMT:sbheap.obj
 0001:0002c8a1       __VEC_memcpy               0042d8a1 f   LIBCMT:p4_memcpy.obj
 0001:0002c984       __sse2_mathfcns_init       0042d984 f   LIBCMT:mathfcns.obj
 0001:0002c998       __set_SSE2_enable          0042d998 f   LIBCMT:mathfcns.obj
 0001:0002c9ac       __crt_debugger_hook        0042d9ac f   LIBCMT:dbghook.obj
 0001:0002ca0b       __VEC_memzero              0042da0b f   LIBCMT:p4_memset.obj
 0001:0002ca9a       ?strrchr@@YAPADPADH@Z      0042da9a f i LIBCMT:cvt.obj
 0001:0002ca9f       __forcdecpt_l              0042da9f f   LIBCMT:cvt.obj
 0001:0002cb10       __cropzeros_l              0042db10 f   LIBCMT:cvt.obj
 0001:0002cb90       __positive                 0042db90 f   LIBCMT:cvt.obj
 0001:0002cba6       __fassign_l                0042dba6 f   LIBCMT:cvt.obj
 0001:0002cbe6       __fassign                  0042dbe6 f   LIBCMT:cvt.obj
 0001:0002cc1a       __forcdecpt                0042dc1a f   LIBCMT:cvt.obj
 0001:0002cc28       __cropzeros                0042dc28 f   LIBCMT:cvt.obj
 0001:0002cda3       __cftoe_l                  0042dda3 f   LIBCMT:cvt.obj
 0001:0002ce71       __cftoe                    0042de71 f   LIBCMT:cvt.obj
 0001:0002ce8f       __cftoa_l                  0042de8f f   LIBCMT:cvt.obj
 0001:0002d200       __cftoa                    0042e200 f   LIBCMT:cvt.obj
 0001:0002d313       __cftof_l                  0042e313 f   LIBCMT:cvt.obj
 0001:0002d3cc       __cftof                    0042e3cc f   LIBCMT:cvt.obj
 0001:0002d3e7       __cftog_l                  0042e3e7 f   LIBCMT:cvt.obj
 0001:0002d4df       __cftog                    0042e4df f   LIBCMT:cvt.obj
 0001:0002d4fd       __cfltcvt_l                0042e4fd f   LIBCMT:cvt.obj
 0001:0002d583       __cfltcvt                  0042e583 f   LIBCMT:cvt.obj
 0001:0002d5a4       __initp_misc_cfltcvt_tab   0042e5a4 f   LIBCMT:cmiscdat.obj
 0001:0002d5c3       __setdefaultprecision      0042e5c3 f   LIBCMT:fp8.obj
 0001:0002d5ec       __ms_p5_test_fdiv          0042e5ec f   LIBCMT:testfdiv.obj
 0001:0002d628       __ms_p5_mp_test_fdiv       0042e628 f   LIBCMT:testfdiv.obj
 0001:0002d87c       _strtol                    0042e87c f   LIBCMT:strtol.obj
 0001:0002d8a5       __strtol_l                 0042e8a5 f   LIBCMT:strtol.obj
 0001:0002d8c0       _strtoul                   0042e8c0 f   LIBCMT:strtol.obj
 0001:0002d8ea       __strtoul_l                0042e8ea f   LIBCMT:strtol.obj
 0001:0002db99       __strtoi64                 0042eb99 f   LIBCMT:strtoq.obj
 0001:0002dbc2       __strtoi64_l               0042ebc2 f   LIBCMT:strtoq.obj
 0001:0002dbdd       __strtoui64                0042ebdd f   LIBCMT:strtoq.obj
 0001:0002dc07       __strtoui64_l              0042ec07 f   LIBCMT:strtoq.obj
 0001:0002dc30       __alloca_probe             0042ec30     LIBCMT:chkstk.obj
 0001:0002dc30       __chkstk                   0042ec30 f   LIBCMT:chkstk.obj
 0001:0002dc5b       ?__CxxUnhandledExceptionFilter@@YGJPAU_EXCEPTION_POINTERS@@@Z 0042ec5b f   LIBCMT:unhandld.obj
 0001:0002dc98       ___CxxSetUnhandledExceptionFilter 0042ec98 f   LIBCMT:unhandld.obj
 0001:0002dca6       __initp_misc_winxfltr      0042eca6 f   LIBCMT:winxfltr.obj
 0001:0002dcd9       __XcptFilter               0042ecd9 f   LIBCMT:winxfltr.obj
 0001:0002de37       ___CppXcptFilter           0042ee37 f   LIBCMT:winxfltr.obj
 0001:0002de52       __wincmdln                 0042ee52 f   LIBCMT:wincmdln.obj
 0001:0002deaf       __setenvp                  0042eeaf f   LIBCMT:stdenvp.obj
 0001:0002df8a       __set_pgmptr               0042ef8a f i LIBCMT:stdargv.obj
 0001:0002e12c       __setargv                  0042f12c f   LIBCMT:stdargv.obj
 0001:0002e1e5       ___crtGetEnvironmentStringsA 0042f1e5 f   LIBCMT:a_env.obj
 0001:0002e31a       __ioinit                   0042f31a f   LIBCMT:ioinit.obj
 0001:0002e55a       __ioterm                   0042f55a f   LIBCMT:ioinit.obj
 0001:0002e5a6       __RTC_Initialize           0042f5a6 f   LIBCMT:initsect.obj
 0001:0002e5ca       __RTC_Terminate            0042f5ca f   LIBCMT:initsect.obj
 0001:0002e5ee       ___security_init_cookie    0042f5ee f   LIBCMT:gs_support.obj
 0001:0002e682       ___iob_func                0042f682 f   LIBCMT:_file.obj
 0001:0002e688       ___initstdio               0042f688 f   LIBCMT:_file.obj
 0001:0002e739       ___endstdio                0042f739 f   LIBCMT:_file.obj
 0001:0002e759       __lock_file                0042f759 f   LIBCMT:_file.obj
 0001:0002e795       __lock_file2               0042f795 f   LIBCMT:_file.obj
 0001:0002e7c3       __unlock_file              0042f7c3 f   LIBCMT:_file.obj
 0001:0002e7f9       __unlock_file2             0042f7f9 f   LIBCMT:_file.obj
 0001:0002e823       __filbuf                   0042f823 f   LIBCMT:_filbuf.obj
 0001:0002e943       __fileno                   0042f943 f   LIBCMT:fileno.obj
 0001:0002e970       __getbuf                   0042f970 f   LIBCMT:_getbuf.obj
 0001:0002e9b4       __write_nolock             0042f9b4 f   LIBCMT:write.obj
 0001:0002ef7a       __write                    0042ff7a f   LIBCMT:write.obj
 0001:0002f056       __commit                   00430056 f   LIBCMT:commit.obj
 0001:0002f137       __freebuf                  00430137 f   LIBCMT:_freebuf.obj
 0001:0002f163       __ftelli64_nolock          00430163 f   LIBCMT:ftelli64.obj
 0001:0002f43f       __ftelli64                 0043043f f   LIBCMT:ftelli64.obj
 0001:0002f489       __lseek_nolock             00430489 f   LIBCMT:lseek.obj
 0001:0002f4fb       __lseek                    004304fb f   LIBCMT:lseek.obj
 0001:0002f5d7       __ftell_nolock             004305d7 f   LIBCMT:ftell.obj
 0001:0002f76f       _ftell                     0043076f f   LIBCMT:ftell.obj
 0001:0002f7dd       __fseeki64_nolock          004307dd f   LIBCMT:fseeki64.obj
 0001:0002f876       __fseeki64                 00430876 f   LIBCMT:fseeki64.obj
 0001:0002f8c5       __close_nolock             004308c5 f   LIBCMT:close.obj
 0001:0002f959       __close                    00430959 f   LIBCMT:close.obj
 0001:0002fc34       ___updatetmbcinfo          00430c34 f   LIBCMT:mbctype.obj
 0001:0002fd52       __setmbcp_nolock           00430d52 f   LIBCMT:mbctype.obj
 0001:0002ff2b       __getmbcp                  00430f2b f   LIBCMT:mbctype.obj
 0001:0002ff67       __setmbcp                  00430f67 f   LIBCMT:mbctype.obj
 0001:00030101       ___initmbctable            00431101 f   LIBCMT:mbctype.obj
 0001:0003011f       __isleadbyte_l             0043111f f i LIBCMT:_wctype.obj
 0001:00030155       _isleadbyte                00431155 f i LIBCMT:_wctype.obj
 0001:00030163       __iswalpha_l               00431163 f i LIBCMT:_wctype.obj
 0001:00030179       _iswalpha                  00431179 f i LIBCMT:_wctype.obj
 0001:0003018a       __iswupper_l               0043118a f i LIBCMT:_wctype.obj
 0001:0003019d       _iswupper                  0043119d f i LIBCMT:_wctype.obj
 0001:000301ab       __iswlower_l               004311ab f i LIBCMT:_wctype.obj
 0001:000301be       _iswlower                  004311be f i LIBCMT:_wctype.obj
 0001:000301cc       __iswdigit_l               004311cc f i LIBCMT:_wctype.obj
 0001:000301df       _iswdigit                  004311df f i LIBCMT:_wctype.obj
 0001:000301ed       __iswxdigit_l              004311ed f i LIBCMT:_wctype.obj
 0001:00030203       _iswxdigit                 00431203 f i LIBCMT:_wctype.obj
 0001:00030214       __iswspace_l               00431214 f i LIBCMT:_wctype.obj
 0001:00030227       _iswspace                  00431227 f i LIBCMT:_wctype.obj
 0001:00030235       __iswpunct_l               00431235 f i LIBCMT:_wctype.obj
 0001:00030248       _iswpunct                  00431248 f i LIBCMT:_wctype.obj
 0001:00030256       __iswalnum_l               00431256 f i LIBCMT:_wctype.obj
 0001:0003026c       _iswalnum                  0043126c f i LIBCMT:_wctype.obj
 0001:0003027d       __iswprint_l               0043127d f i LIBCMT:_wctype.obj
 0001:00030293       _iswprint                  00431293 f i LIBCMT:_wctype.obj
 0001:000302a4       __iswgraph_l               004312a4 f i LIBCMT:_wctype.obj
 0001:000302ba       _iswgraph                  004312ba f i LIBCMT:_wctype.obj
 0001:000302cb       __iswcntrl_l               004312cb f i LIBCMT:_wctype.obj
 0001:000302de       _iswcntrl                  004312de f i LIBCMT:_wctype.obj
 0001:000302ec       _iswascii                  004312ec f i LIBCMT:_wctype.obj
 0001:000302f8       __iswcsym_l                004312f8 f i LIBCMT:_wctype.obj
 0001:0003031e       ___iswcsym                 0043131e f i LIBCMT:_wctype.obj
 0001:0003033f       __iswcsymf_l               0043133f f i LIBCMT:_wctype.obj
 0001:00030365       ___iswcsymf                00431365 f i LIBCMT:_wctype.obj
 0001:00030386       __isctype_l                00431386 f   LIBCMT:isctype.obj
 0001:0003043c       __isctype                  0043143c f   LIBCMT:isctype.obj
 0001:0003046b       ___ansicp                  0043146b f   LIBCMT:convrtcp.obj
 0001:000304b2       ___convertcp               004314b2 f   LIBCMT:convrtcp.obj
 0001:0003081c       ___crtGetStringTypeA       0043181c f   LIBCMT:a_str.obj
 0001:0003085c       __calloc_impl              0043185c f   LIBCMT:calloc.obj
 0001:0003097a       _calloc                    0043197a f   LIBCMT:calloc.obj
 0001:000309b9       _realloc                   004319b9 f   LIBCMT:realloc.obj
 0001:00030bd4       __recalloc                 00431bd4 f   LIBCMT:realloc.obj
 0001:00031066       ___free_lc_time            00432066 f   LIBCMT:inittime.obj
 0001:000311f6       ___init_time               004321f6 f   LIBCMT:inittime.obj
 0001:0003129c       ___free_lconv_num          0043229c f   LIBCMT:initnum.obj
 0001:000312dc       ___init_numeric            004322dc f   LIBCMT:initnum.obj
 0001:000314d7       ___free_lconv_mon          004324d7 f   LIBCMT:initmon.obj
 0001:00031560       ___init_monetary           00432560 f   LIBCMT:initmon.obj
 0001:00031824       ___init_collate            00432824 f   LIBCMT:initcoll.obj
 0001:00031827       __Getdays_l                00432827 f   LIBCMT:strftime.obj
 0001:00031925       __Getdays                  00432925 f   LIBCMT:strftime.obj
 0001:0003192e       __Getmonths_l              0043292e f   LIBCMT:strftime.obj
 0001:00031a2c       __Getmonths                00432a2c f   LIBCMT:strftime.obj
 0001:00031a35       __Gettnames_l              00432a35 f   LIBCMT:strftime.obj
 0001:00031d8a       __Gettnames                00432d8a f   LIBCMT:strftime.obj
 0001:000326a5       __Strftime_l               004336a5 f   LIBCMT:strftime.obj
 0001:00032854       __strftime_l               00433854 f   LIBCMT:strftime.obj
 0001:00032872       _strftime                  00433872 f   LIBCMT:strftime.obj
 0001:0003288f       __Strftime                 0043388f f   LIBCMT:strftime.obj
 0001:000328ad       _strcat_s                  004338ad f   LIBCMT:strcat_s.obj
 0001:0003291e       _strncpy_s                 0043391e f   LIBCMT:strncpy_s.obj
 0001:00032f8b       ___get_qualified_locale    00433f8b f   LIBCMT:getqloc.obj
 0001:000346e0       _memcmp                    004356e0 f   LIBCMT:memcmp.obj
 0001:00035d60       _strncmp                   00436d60 f   LIBCMT:strncmp.obj
 0001:00035e20       _strpbrk                   00436e20 f   LIBCMT:strpbrk.obj
 0001:00035e60       ?_ValidateRead@@YAHPBXI@Z  00436e60 f   LIBCMT:validate.obj
 0001:00035e6d       ?_ValidateWrite@@YAHPAXI@Z 00436e6d f   LIBCMT:validate.obj
 0001:00035e7a       ?_ValidateExecute@@YAHP6GHXZ@Z 00436e7a f   LIBCMT:validate.obj
 0001:00035e90       __aulldvrm                 00436e90 f   LIBCMT:ulldvrm.obj
 0001:00035f25       __initp_misc_winsig        00436f25 f   LIBCMT:winsig.obj
 0001:0003600d       ___get_sigabrt             0043700d f   LIBCMT:winsig.obj
 0001:0003601a       ___fpecode                 0043701a f   LIBCMT:winsig.obj
 0001:00036023       ___pxcptinfoptrs           00437023 f   LIBCMT:winsig.obj
 0001:0003602c       _signal                    0043702c f   LIBCMT:winsig.obj
 0001:00036269       _raise                     00437269 f   LIBCMT:winsig.obj
 0001:00036419       ??0Block@HeapManager@@QAE@XZ 00437419 f i LIBCMT:undname.obj
 0001:0003641f       ?Constructor@HeapManager@@QAEXP6APAXI@ZP6AXPAX@Z@Z 0043741f f i LIBCMT:undname.obj
 0001:0003643a       ?Destructor@HeapManager@@QAEXXZ 0043743a f i LIBCMT:undname.obj
 0001:00036460       ?getNumberOfDimensions@UnDecorator@@CAHXZ 00437460 f   LIBCMT:undname.obj
 0001:000364c3       ?getTypeEncoding@UnDecorator@@CAHXZ 004374c3 f i LIBCMT:undname.obj
 0001:00036937       ?doUnderScore@UnDecorator@@SAHXZ 00437937 f i LIBCMT:undname.obj
 0001:00036942       ?doMSKeywords@UnDecorator@@SAHXZ 00437942 f i LIBCMT:undname.obj
 0001:0003694f       ?doPtr64@UnDecorator@@SAHXZ 0043794f f i LIBCMT:undname.obj
 0001:0003695d       ?doFunctionReturns@UnDecorator@@SAHXZ 0043795d f i LIBCMT:undname.obj
 0001:0003696b       ?doAllocationModel@UnDecorator@@SAHXZ 0043796b f i LIBCMT:undname.obj
 0001:00036979       ?doAllocationLanguage@UnDecorator@@SAHXZ 00437979 f i LIBCMT:undname.obj
 0001:00036987       ?doThisTypes@UnDecorator@@SAHXZ 00437987 f i LIBCMT:undname.obj
 0001:00036999       ?doAccessSpecifiers@UnDecorator@@SAHXZ 00437999 f i LIBCMT:undname.obj
 0001:000369a7       ?doThrowTypes@UnDecorator@@SAHXZ 004379a7 f i LIBCMT:undname.obj
 0001:000369b5       ?doMemberTypes@UnDecorator@@SAHXZ 004379b5 f i LIBCMT:undname.obj
 0001:000369c3       ?doNameOnly@UnDecorator@@SAHXZ 004379c3 f i LIBCMT:undname.obj
 0001:000369ce       ?doTypeOnly@UnDecorator@@SAHXZ 004379ce f i LIBCMT:undname.obj
 0001:000369d9       ?haveTemplateParameters@UnDecorator@@SAHXZ 004379d9 f i LIBCMT:undname.obj
 0001:000369e4       ?doEcsu@UnDecorator@@SAHXZ 004379e4 f i LIBCMT:undname.obj
 0001:000369f2       ?doNoIdentCharCheck@UnDecorator@@SAHXZ 004379f2 f i LIBCMT:undname.obj
 0001:000369fd       ?doEllipsis@UnDecorator@@SAHXZ 004379fd f i LIBCMT:undname.obj
 0001:00036a0b       ?UScore@UnDecorator@@SAPBDW4Tokens@@@Z 00437a0b f   LIBCMT:undname.obj
 0001:00036a24       ?getMemory@HeapManager@@QAEPAXIH@Z 00437a24 f   LIBCMT:undname.obj
 0001:00036aa8       ??0DName@@QAE@XZ           00437aa8 f i LIBCMT:undname.obj
 0001:00036ab5       ??0DName@@QAE@PAVDNameNode@@@Z 00437ab5 f i LIBCMT:undname.obj
 0001:00036ac7       ??0DName@@QAE@ABV0@@Z      00437ac7 f i LIBCMT:undname.obj
 0001:00036b63       ?status@DName@@QBE?AW4DNameStatus@@XZ 00437b63 f i LIBCMT:undname.obj
 0001:00036b6d       ?clearStatus@DName@@QAEXXZ 00437b6d f i LIBCMT:undname.obj
 0001:00036b72       ?setPtrRef@DName@@QAEAAV1@XZ 00437b72 f i LIBCMT:undname.obj
 0001:00036b79       ?isPtrRef@DName@@QBEHXZ    00437b79 f i LIBCMT:undname.obj
 0001:00036b83       ?setIsArray@DName@@QAEXXZ  00437b83 f i LIBCMT:undname.obj
 0001:00036b8b       ?isArray@DName@@QBEHXZ     00437b8b f i LIBCMT:undname.obj
 0001:00036b95       ?isNoTE@DName@@QBEHXZ      00437b95 f i LIBCMT:undname.obj
 0001:00036b9f       ?setIsNoTE@DName@@QAEXXZ   00437b9f f i LIBCMT:undname.obj
 0001:00036ba7       ?isPinPtr@DName@@QBEHXZ    00437ba7 f i LIBCMT:undname.obj
 0001:00036bb1       ?setIsPinPtr@DName@@QAEXXZ 00437bb1 f i LIBCMT:undname.obj
 0001:00036bb9       ?isComArray@DName@@QBEHXZ  00437bb9 f i LIBCMT:undname.obj
 0001:00036bc3       ?setIsComArray@DName@@QAEXXZ 00437bc3 f i LIBCMT:undname.obj
 0001:00036bcb       ?isVCallThunk@DName@@QBEHXZ 00437bcb f i LIBCMT:undname.obj
 0001:00036bd5       ?setIsVCallThunk@DName@@QAEXXZ 00437bd5 f i LIBCMT:undname.obj
 0001:00036bdd       ??4DName@@QAEAAV0@ABV0@@Z  00437bdd f   LIBCMT:undname.obj
 0001:00036c58       ?isFull@Replicator@@QBEHXZ 00437c58 f i LIBCMT:undname.obj
 0001:00036c61       ??AReplicator@@QBEABVDName@@H@Z 00437c61 f   LIBCMT:undname.obj
 0001:00036c86       ??0DNameNode@@IAE@XZ       00437c86 f   LIBCMT:undname.obj
 0001:00036c93       ?nextNode@DNameNode@@QBEPAV1@XZ 00437c93 f i LIBCMT:undname.obj
 0001:00036c97       ??YDNameNode@@QAEAAV0@PAV0@@Z 00437c97 f   LIBCMT:undname.obj
 0001:00036cc0       ??0charNode@@QAE@D@Z       00437cc0 f   LIBCMT:undname.obj
 0001:00036cd6       ?length@charNode@@UBEHXZ   00437cd6 f i LIBCMT:undname.obj
 0001:00036cda       ?getLastChar@charNode@@UBEDXZ 00437cda f i LIBCMT:undname.obj
 0001:00036cde       ?getString@charNode@@UBEPADPADH@Z 00437cde f   LIBCMT:undname.obj
 0001:00036cf9       ?length@pcharNode@@UBEHXZ  00437cf9 f i LIBCMT:undname.obj
 0001:00036cfd       ??0pDNameNode@@QAE@PAVDName@@@Z 00437cfd f   LIBCMT:undname.obj
 0001:00036d2c       ??0DNameStatusNode@@QAE@W4DNameStatus@@@Z 00437d2c f   LIBCMT:undname.obj
 0001:00036d51       ?length@DNameStatusNode@@UBEHXZ 00437d51 f i LIBCMT:undname.obj
 0001:00036d55       ?getLastChar@DNameStatusNode@@UBEDXZ 00437d55 f i LIBCMT:undname.obj
 0001:00036db5       ?getDataIndirectType@UnDecorator@@CA?AVDName@@XZ 00437db5 f i LIBCMT:undname.obj
 0001:00036de8       ?getThisType@UnDecorator@@CA?AVDName@@XZ 00437de8 f i LIBCMT:undname.obj
 0001:00036e1c       ??2@YAPAXIAAVHeapManager@@H@Z 00437e1c f i LIBCMT:undname.obj
 0001:00036e2f       ??0DName@@QAE@PAV0@@Z      00437e2f f   LIBCMT:undname.obj
 0001:00036e85       ??0DName@@QAE@W4DNameStatus@@@Z 00437e85 f   LIBCMT:undname.obj
 0001:00036ee6       ?isValid@DName@@QBEHXZ     00437ee6 f   LIBCMT:undname.obj
 0001:00036efd       ?isEmpty@DName@@QBEHXZ     00437efd f   LIBCMT:undname.obj
 0001:00036f12       ?isUDC@DName@@QBEHXZ       00437f12 f i LIBCMT:undname.obj
 0001:00036f26       ?setIsUDC@DName@@QAEXXZ    00437f26 f i LIBCMT:undname.obj
 0001:00036f34       ?isUDTThunk@DName@@QBEHXZ  00437f34 f i LIBCMT:undname.obj
 0001:00036f48       ?length@DName@@QBEHXZ      00437f48 f   LIBCMT:undname.obj
 0001:00036f6d       ?getLastChar@DName@@QBEDXZ 00437f6d f   LIBCMT:undname.obj
 0001:00036fa5       ?getString@DName@@QBEPADPADH@Z 00437fa5 f   LIBCMT:undname.obj
 0001:00037036       ??_5DName@@QAEAAV0@ABV0@@Z 00438036 f   LIBCMT:undname.obj
 0001:0003706b       ??4DName@@QAEAAV0@W4DNameStatus@@@Z 0043806b f   LIBCMT:undname.obj
 0001:000370ec       ??0Replicator@@QAE@XZ      004380ec f i LIBCMT:undname.obj
 0001:0003710a       ??YReplicator@@QAEAAV0@ABVDName@@@Z 0043810a f   LIBCMT:undname.obj
 0001:00037151       ?clone@DNameNode@@QAEPAV1@XZ 00438151 f   LIBCMT:undname.obj
 0001:00037198       ??0pcharNode@@QAE@PBDH@Z   00438198 f   LIBCMT:undname.obj
 0001:000371fd       ?getLastChar@pcharNode@@UBEDXZ 004381fd f i LIBCMT:undname.obj
 0001:0003720f       ?getString@pcharNode@@UBEPADPADH@Z 0043820f f   LIBCMT:undname.obj
 0001:00037240       ?length@pDNameNode@@UBEHXZ 00438240 f i LIBCMT:undname.obj
 0001:0003724f       ?getLastChar@pDNameNode@@UBEDXZ 0043824f f i LIBCMT:undname.obj
 0001:0003725e       ?getString@pDNameNode@@UBEPADPADH@Z 0043825e f   LIBCMT:undname.obj
 0001:0003727b       ?getString@DNameStatusNode@@UBEPADPADH@Z 0043827b f   LIBCMT:undname.obj
 0001:000372ae       ??0UnDecorator@@QAE@PADPBDHP6APADJ@ZK@Z 004382ae f i LIBCMT:undname.obj
 0001:00037321       ?getReturnType@UnDecorator@@CA?AVDName@@PAV2@@Z 00438321 f   LIBCMT:undname.obj
 0001:00037350       ?getStorageConvention@UnDecorator@@CA?AVDName@@XZ 00438350 f i LIBCMT:undname.obj
 0001:0003735f       ??YDName@@QAEAAV0@W4DNameStatus@@@Z 0043835f f   LIBCMT:undname.obj
 0001:000373d8       ??4DName@@QAEAAV0@PAV0@@Z  004383d8 f   LIBCMT:undname.obj
 0001:00037440       ?doPchar@DName@@AAEXPBDH@Z 00438440 f   LIBCMT:undname.obj
 0001:000374e6       ??0DName@@QAE@D@Z          004384e6 f   LIBCMT:undname.obj
 0001:0003750c       ??0DName@@QAE@PBD@Z        0043850c f   LIBCMT:undname.obj
 0001:0003753d       ??0DName@@QAE@AAPBDD@Z     0043853d f   LIBCMT:undname.obj
 0001:0003760d       ??0DName@@QAE@_K@Z         0043860d f   LIBCMT:undname.obj
 0001:00037676       ??0DName@@QAE@_J@Z         00438676 f   LIBCMT:undname.obj
 0001:0003770c       ??HDName@@QBE?AV0@W4DNameStatus@@@Z 0043870c f   LIBCMT:undname.obj
 0001:0003773a       ??YDName@@QAEAAV0@ABV0@@Z  0043873a f   LIBCMT:undname.obj
 0001:0003779c       ??YDName@@QAEAAV0@PAV0@@Z  0043879c f   LIBCMT:undname.obj
 0001:00037827       ??4DName@@QAEAAV0@D@Z      00438827 f   LIBCMT:undname.obj
 0001:00037843       ??4DName@@QAEAAV0@PBD@Z    00438843 f   LIBCMT:undname.obj
 0001:0003786d       ?getCallingConvention@UnDecorator@@CA?AVDName@@XZ 0043886d f   LIBCMT:undname.obj
 0001:00037913       ?getVCallThunkType@UnDecorator@@CA?AVDName@@XZ 00438913 f i LIBCMT:undname.obj
 0001:0003794a       ??HDName@@QBE?AV0@ABV0@@Z  0043894a f   LIBCMT:undname.obj
 0001:0003799b       ??HDName@@QBE?AV0@PAV0@@Z  0043899b f   LIBCMT:undname.obj
 0001:000379c9       ??YDName@@QAEAAV0@D@Z      004389c9 f   LIBCMT:undname.obj
 0001:00037a33       ??YDName@@QAEAAV0@PBD@Z    00438a33 f   LIBCMT:undname.obj
 0001:00037a9f       ?getArgumentList@UnDecorator@@CA?AVDName@@XZ 00438a9f f   LIBCMT:undname.obj
 0001:00037b7f       ?getVdispMapType@UnDecorator@@CA?AVDName@@ABV2@@Z 00438b7f f i LIBCMT:undname.obj
 0001:00037bce       ??H@YA?AVDName@@DABV0@@Z   00438bce f i LIBCMT:undname.obj
 0001:00037bf0       ??H@YA?AVDName@@W4DNameStatus@@ABV0@@Z 00438bf0 f i LIBCMT:undname.obj
 0001:00037c12       ??H@YA?AVDName@@PBDABV0@@Z 00438c12 f i LIBCMT:undname.obj
 0001:00037c34       ??HDName@@QBE?AV0@D@Z      00438c34 f   LIBCMT:undname.obj
 0001:00037c62       ??HDName@@QBE?AV0@PBD@Z    00438c62 f   LIBCMT:undname.obj
 0001:00037c90       ?getDimension@UnDecorator@@CA?AVDName@@_N@Z 00438c90 f   LIBCMT:undname.obj
 0001:00037dd1       ?getEnumType@UnDecorator@@CA?AVDName@@XZ 00438dd1 f i LIBCMT:undname.obj
 0001:00037ea5       ?getArgumentTypes@UnDecorator@@CA?AVDName@@XZ 00438ea5 f   LIBCMT:undname.obj
 0001:00037f69       ?getThrowTypes@UnDecorator@@CA?AVDName@@XZ 00438f69 f   LIBCMT:undname.obj
 0001:00037fe7       ?getExtendedDataIndirectType@UnDecorator@@CA?AVDName@@AADAA_NH@Z 00438fe7 f   LIBCMT:undname.obj
 0001:0003810c       ?getArrayType@UnDecorator@@CA?AVDName@@ABV2@@Z 0043910c f i LIBCMT:undname.obj
 0001:0003826b       ?getLexicalFrame@UnDecorator@@CA?AVDName@@XZ 0043926b f i LIBCMT:undname.obj
 0001:0003829c       ?getDisplacement@UnDecorator@@CA?AVDName@@XZ 0043929c f i LIBCMT:undname.obj
 0001:000382ae       ?getCallIndex@UnDecorator@@CA?AVDName@@XZ 004392ae f i LIBCMT:undname.obj
 0001:000382c0       ?getGuardNumber@UnDecorator@@CA?AVDName@@XZ 004392c0 f i LIBCMT:undname.obj
 0001:000382d2       ?getVfTableType@UnDecorator@@CA?AVDName@@ABV2@@Z 004392d2 f i LIBCMT:undname.obj
 0001:00038422       ?getStringEncoding@UnDecorator@@CA?AVDName@@PADH@Z 00439422 f   LIBCMT:undname.obj
 0001:000384c2       ?getSignedDimension@UnDecorator@@CA?AVDName@@XZ 004394c2 f   LIBCMT:undname.obj
 0001:00038512       ?getTemplateConstant@UnDecorator@@CA?AVDName@@XZ 00439512 f   LIBCMT:undname.obj
 0001:000387cd       ?getPtrRefDataType@UnDecorator@@CA?AVDName@@ABV2@H@Z 004397cd f i LIBCMT:undname.obj
 0001:000388a6       ?getVbTableType@UnDecorator@@CA?AVDName@@ABV2@@Z 004398a6 f i LIBCMT:undname.obj
 0001:000388ba       ?getTemplateArgumentList@UnDecorator@@CA?AVDName@@XZ 004398ba f   LIBCMT:undname.obj
 0001:00038a72       ?getOperatorName@UnDecorator@@CA?AVDName@@_NPA_N@Z 00439a72 f i LIBCMT:undname.obj
 0001:00038fe1       ?getTemplateName@UnDecorator@@CA?AVDName@@_N@Z 00439fe1 f   LIBCMT:undname.obj
 0001:00039134       ?getZName@UnDecorator@@CA?AVDName@@_N@Z 0043a134 f   LIBCMT:undname.obj
 0001:0003931e       ?getScopedName@UnDecorator@@CA?AVDName@@XZ 0043a31e f   LIBCMT:undname.obj
 0001:00039402       ?getECSUName@UnDecorator@@CA?AVDName@@XZ 0043a402 f i LIBCMT:undname.obj
 0001:00039411       ?getECSUDataType@UnDecorator@@CA?AVDName@@XZ 0043a411 f   LIBCMT:undname.obj
 0001:00039511       ?getSymbolName@UnDecorator@@CA?AVDName@@XZ 0043a511 f i LIBCMT:undname.obj
 0001:00039557       ?getBasedType@UnDecorator@@CA?AVDName@@XZ 0043a557 f   LIBCMT:undname.obj
 0001:000395e9       ?composeDeclaration@UnDecorator@@CA?AVDName@@ABV2@@Z 0043a5e9 f i LIBCMT:undname.obj
 0001:0003a12b       ?getDecoratedName@UnDecorator@@CA?AVDName@@XZ 0043b12b f   LIBCMT:undname.obj
 0001:0003a33c       ?getScope@UnDecorator@@CA?AVDName@@XZ 0043b33c f   LIBCMT:undname.obj
 0001:0003a5c7       ?getFunctionIndirectType@UnDecorator@@CA?AVDName@@ABV2@@Z 0043b5c7 f   LIBCMT:undname.obj
 0001:0003a908       ?getDataIndirectType@UnDecorator@@CA?AVDName@@ABV2@D0H@Z 0043b908 f   LIBCMT:undname.obj
 0001:0003adec       ??BUnDecorator@@QAEPADXZ   0043bdec f i LIBCMT:undname.obj
 0001:0003af38       ?getPtrRefType@UnDecorator@@CA?AVDName@@ABV2@0D@Z 0043bf38 f   LIBCMT:undname.obj
 0001:0003b04e       ?getPointerType@UnDecorator@@CA?AVDName@@ABV2@0@Z 0043c04e f i LIBCMT:undname.obj
 0001:0003b069       ?getPointerTypeArray@UnDecorator@@CA?AVDName@@ABV2@0@Z 0043c069 f i LIBCMT:undname.obj
 0001:0003b084       ?getReferenceType@UnDecorator@@CA?AVDName@@ABV2@0@Z 0043c084 f i LIBCMT:undname.obj
 0001:0003b09f       ___unDName                 0043c09f f   LIBCMT:undname.obj
 0001:0003b142       ___unDNameEx               0043c142 f   LIBCMT:undname.obj
 0001:0003b1e5       ?getBasicDataType@UnDecorator@@CA?AVDName@@ABV2@@Z 0043c1e5 f   LIBCMT:undname.obj
 0001:0003b56c       ?getPrimaryDataType@UnDecorator@@CA?AVDName@@ABV2@@Z 0043c56c f   LIBCMT:undname.obj
 0001:0003b6aa       ?getDataType@UnDecorator@@CA?AVDName@@PAV2@@Z 0043c6aa f   LIBCMT:undname.obj
 0001:0003b75b       ?getExternalDataType@UnDecorator@@CA?AVDName@@ABV2@@Z 0043c75b f i LIBCMT:undname.obj
 0001:0003b7c0       __global_unwind2           0043c7c0 f   LIBCMT:exsup.obj
 0001:0003b825       __local_unwind2            0043c825 f   LIBCMT:exsup.obj
 0001:0003b8a9       __abnormal_termination     0043c8a9 f   LIBCMT:exsup.obj
 0001:0003b8cc       __NLG_Notify1              0043c8cc f   LIBCMT:exsup.obj
 0001:0003b8d5       __NLG_Notify               0043c8d5 f   LIBCMT:exsup.obj
 0001:0003b8ec       __NLG_Dispatch2            0043c8ec     LIBCMT:exsup.obj
 0001:0003b8ec       __NLG_Dispatch             0043c8ec     LIBCMT:exsup.obj
 0001:0003b8f4       __NLG_Call                 0043c8f4 f   LIBCMT:exsup.obj
 0001:0003b8f6       __NLG_Return2              0043c8f6     LIBCMT:exsup.obj
 0001:0003b8f7       __lseeki64_nolock          0043c8f7 f   LIBCMT:lseeki64.obj
 0001:0003b97a       __lseeki64                 0043c97a f   LIBCMT:lseeki64.obj
 0001:0003ba93       __isatty                   0043ca93 f   LIBCMT:isatty.obj
 0001:0003baf1       _printf                    0043caf1 f   LIBCMT:printf.obj
 0001:0003bba0       __printf_l                 0043cba0 f   LIBCMT:printf.obj
 0001:0003bbb6       __printf_s_l               0043cbb6 f   LIBCMT:printf.obj
 0001:0003bbcc       _printf_s                  0043cbcc f   LIBCMT:printf.obj
 0001:0003bbe0       __printf_p_l               0043cbe0 f   LIBCMT:printf.obj
 0001:0003bbf6       __printf_p                 0043cbf6 f   LIBCMT:printf.obj
 0001:0003bc0a       __set_printf_count_output  0043cc0a f   LIBCMT:printf.obj
 0001:0003bc2f       __get_printf_count_output  0043cc2f f   LIBCMT:printf.obj
 0001:0003bc45       __wctomb_s_l               0043cc45 f   LIBCMT:wctomb.obj
 0001:0003bda4       _wctomb_s                  0043cda4 f   LIBCMT:wctomb.obj
 0001:0003bdbf       __wctomb_l                 0043cdbf f   LIBCMT:wctomb.obj
 0001:0003be0e       _wctomb                    0043ce0e f   LIBCMT:wctomb.obj
 0001:0003be3e       __validate_param_reuseA    0043ce3e f   LIBCMT:outputp.obj
 0001:0003c008       _get_crtdouble_arg         0043d008 f i LIBCMT:outputp.obj
 0001:0003c018       __output_p_l               0043d018 f   LIBCMT:outputp.obj
 0001:0003d041       __output_s_l               0043e041 f   LIBCMT:outputs.obj
 0001:0003da00       __ValidateImageBase        0043ea00 f   LIBCMT:pesect.obj
 0001:0003da30       __FindPESection            0043ea30 f   LIBCMT:pesect.obj
 0001:0003da80       __IsNonwritableInCurrentImage 0043ea80 f   LIBCMT:pesect.obj
 0001:0003db3b       __initp_misc_rand_s        0043eb3b f   LIBCMT:rand_s.obj
 0001:0003db45       _rand_s                    0043eb45 f   LIBCMT:rand_s.obj
 0001:0003dc49       __initp_misc_initcrit      0043ec49 f   LIBCMT:initcrit.obj
 0001:0003dc63       ___crtInitCritSecAndSpinCount 0043ec63 f   LIBCMT:initcrit.obj
 0001:0003dd28       __local_unwind4            0043ed28 f   LIBCMT:exsup4.obj
 0001:0003ddfe       __seh_longjmp_unwind4@4    0043edfe f   LIBCMT:exsup4.obj
 0001:0003de1a       @_EH4_CallFilterFunc@8     0043ee1a f   LIBCMT:exsup4.obj
 0001:0003de31       @_EH4_TransferToHandler@8  0043ee31 f   LIBCMT:exsup4.obj
 0001:0003de4a       @_EH4_GlobalUnwind@4       0043ee4a f   LIBCMT:exsup4.obj
 0001:0003de64       @_EH4_LocalUnwind@16       0043ee64 f   LIBCMT:exsup4.obj
 0001:0003de7b       ___crtMessageBoxA          0043ee7b f   LIBCMT:crtmbox.obj
 0001:0003e038       __set_error_mode           0043f038 f   LIBCMT:errmode.obj
 0001:0003e07e       ___set_app_type            0043f07e f   LIBCMT:errmode.obj
 0001:0003e088       ___get_app_type            0043f088 f   LIBCMT:errmode.obj
 0001:0003e1c9       ___crtGetLocaleInfoW       0043f1c9 f   LIBCMT:w_loc.obj
 0001:0003e341       ___crtGetLocaleInfoA       0043f341 f   LIBCMT:a_loc.obj
 0001:0003e3cc       __get_sse2_info            0043f3cc f   LIBCMT:cpu_disp.obj
 0001:0003e42c       ___sse2_available_init     0043f42c f   LIBCMT:cpu_disp.obj
 0001:0003e440       _strrchr                   0043f440 f   LIBCMT:strrchr.obj
 0001:0003e46d       __tolower                  0043f46d f   LIBCMT:tolower.obj
 0001:0003e475       __tolower_l                0043f475 f   LIBCMT:tolower.obj
 0001:0003e58c       _tolower                   0043f58c f   LIBCMT:tolower.obj
 0001:0003e5b3       __atodbl_l                 0043f5b3 f   LIBCMT:atodbl.obj
 0001:0003e659       __atodbl                   0043f659 f   LIBCMT:atodbl.obj
 0001:0003e66c       __atoldbl_l                0043f66c f   LIBCMT:atodbl.obj
 0001:0003e713       __atoldbl                  0043f713 f   LIBCMT:atodbl.obj
 0001:0003e726       __atoflt_l                 0043f726 f   LIBCMT:atodbl.obj
 0001:0003e7cc       __atoflt                   0043f7cc f   LIBCMT:atodbl.obj
 0001:0003e7df       __set_output_format        0043f7df f   LIBCMT:outputformat.obj
 0001:0003e816       __get_output_format        0043f816 f   LIBCMT:outputformat.obj
 0001:0003e81c       __fptostr                  0043f81c f   LIBCMT:_fptostr.obj
 0001:0003e8d9       ___dtold                   0043f8d9 f   LIBCMT:cfout.obj
 0001:0003e994       __fltout2                  0043f994 f   LIBCMT:cfout.obj
 0001:0003ea30       __alldvrm                  0043fa30 f   LIBCMT:lldvrm.obj
 0001:0003eb10       __aullshr                  0043fb10 f   LIBCMT:ullshr.obj
 0001:0003eb2f       __fptrap                   0043fb2f f   LIBCMT:crt0fp.obj
 0001:0003eb38       __controlfp_s              0043fb38 f   LIBCMT:contrlfp.obj
 0001:0003ebb0       __allmul                   0043fbb0 f   LIBCMT:llmul.obj
 0001:0003ec35       __ismbbkalnum_l            0043fc35 f   LIBCMT:ismbbyte.obj
 0001:0003ec4a       __ismbbkalnum              0043fc4a f   LIBCMT:ismbbyte.obj
 0001:0003ec5d       __ismbbkprint_l            0043fc5d f   LIBCMT:ismbbyte.obj
 0001:0003ec72       __ismbbkprint              0043fc72 f   LIBCMT:ismbbyte.obj
 0001:0003ec85       __ismbbkpunct_l            0043fc85 f   LIBCMT:ismbbyte.obj
 0001:0003ec9a       __ismbbkpunct              0043fc9a f   LIBCMT:ismbbyte.obj
 0001:0003ecad       __ismbbalnum_l             0043fcad f   LIBCMT:ismbbyte.obj
 0001:0003ecc5       __ismbbalnum               0043fcc5 f   LIBCMT:ismbbyte.obj
 0001:0003ecdb       __ismbbalpha_l             0043fcdb f   LIBCMT:ismbbyte.obj
 0001:0003ecf3       __ismbbalpha               0043fcf3 f   LIBCMT:ismbbyte.obj
 0001:0003ed09       __ismbbgraph_l             0043fd09 f   LIBCMT:ismbbyte.obj
 0001:0003ed21       __ismbbgraph               0043fd21 f   LIBCMT:ismbbyte.obj
 0001:0003ed37       __ismbbprint_l             0043fd37 f   LIBCMT:ismbbyte.obj
 0001:0003ed4f       __ismbbprint               0043fd4f f   LIBCMT:ismbbyte.obj
 0001:0003ed65       __ismbbpunct_l             0043fd65 f   LIBCMT:ismbbyte.obj
 0001:0003ed7a       __ismbbpunct               0043fd7a f   LIBCMT:ismbbyte.obj
 0001:0003ed8d       __ismbblead_l              0043fd8d f   LIBCMT:ismbbyte.obj
 0001:0003eda2       __ismbblead                0043fda2 f   LIBCMT:ismbbyte.obj
 0001:0003edb5       __ismbbtrail_l             0043fdb5 f   LIBCMT:ismbbyte.obj
 0001:0003edca       __ismbbtrail               0043fdca f   LIBCMT:ismbbyte.obj
 0001:0003eddd       __ismbbkana_l              0043fddd f   LIBCMT:ismbbyte.obj
 0001:0003ee30       __ismbbkana                0043fe30 f   LIBCMT:ismbbyte.obj
 0001:0003ee3e       __fcloseall                0043fe3e f   LIBCMT:closeall.obj
 0001:0003eedd       __read_nolock              0043fedd f   LIBCMT:read.obj
 0001:0003f49e       __read                     0044049e f   LIBCMT:read.obj
 0001:0003f59b       __putwch_nolock            0044059b f   LIBCMT:putwch.obj
 0001:0003f65d       __cputws                   0044065d f   LIBCMT:putwch.obj
 0001:0003f6f8       __putwch                   004406f8 f   LIBCMT:putwch.obj
 0001:0003f73e       __mbtowc_l                 0044073e f   LIBCMT:mbtowc.obj
 0001:0003f851       _mbtowc                    00440851 f   LIBCMT:mbtowc.obj
 0001:0003f868       __set_osfhnd               00440868 f   LIBCMT:osfinfo.obj
 0001:0003f8e5       __free_osfhnd              004408e5 f   LIBCMT:osfinfo.obj
 0001:0003f966       __get_osfhandle            00440966 f   LIBCMT:osfinfo.obj
 0001:0003f9d7       ___lock_fhandle            004409d7 f   LIBCMT:osfinfo.obj
 0001:0003fa77       __unlock_fhandle           00440a77 f   LIBCMT:osfinfo.obj
 0001:0003fa99       __alloc_osfhnd             00440a99 f   LIBCMT:osfinfo.obj
 0001:0003fc38       __open_osfhandle           00440c38 f   LIBCMT:osfinfo.obj
 0001:0003fd4d       __iswctype_l               00440d4d f   LIBCMT:iswctype.obj
 0001:0003fdcf       _iswctype                  00440dcf f   LIBCMT:iswctype.obj
 0001:0003fe3d       _is_wctype                 00440e3d f   LIBCMT:iswctype.obj
 0001:0003fe42       __get_daylight             00440e42 f   LIBCMT:timeset.obj
 0001:0003fe76       __get_dstbias              00440e76 f   LIBCMT:timeset.obj
 0001:0003feaa       __get_timezone             00440eaa f   LIBCMT:timeset.obj
 0001:0003fede       __get_tzname               00440ede f   LIBCMT:timeset.obj
 0001:0003ff80       ___daylight                00440f80 f   LIBCMT:timeset.obj
 0001:0003ff86       ___dstbias                 00440f86 f   LIBCMT:timeset.obj
 0001:0003ff8c       ___timezone                00440f8c f   LIBCMT:timeset.obj
 0001:0003ff92       ___tzname                  00440f92 f   LIBCMT:timeset.obj
 0001:0003ff98       __set_daylight             00440f98 f i LIBCMT:tzset.obj
 0001:0003ffa4       __set_dstbias              00440fa4 f i LIBCMT:tzset.obj
 0001:0003ffb0       __set_timezone             00440fb0 f i LIBCMT:tzset.obj
 0001:000406a8       ___tzset                   004416a8 f   LIBCMT:tzset.obj
 0001:000406f7       __tzset                    004416f7 f   LIBCMT:tzset.obj
 0001:0004072f       __isindst                  0044172f f   LIBCMT:tzset.obj
 0001:00040770       ___ascii_stricmp           00441770 f   LIBCMT:stricmp.obj
 0001:000407a5       __stricmp_l                004417a5 f   LIBCMT:stricmp.obj
 0001:00040878       __stricmp                  00441878 f   LIBCMT:stricmp.obj
 0001:000408c8       __strnicmp_l               004418c8 f   LIBCMT:strnicmp.obj
 0001:000409b8       __strnicmp                 004419b8 f   LIBCMT:strnicmp.obj
 0001:00040a14       __stbuf                    00441a14 f   LIBCMT:_sftbuf.obj
 0001:00040aaa       __ftbuf                    00441aaa f   LIBCMT:_sftbuf.obj
 0001:00040ad9       _vprintf_helper            00441ad9 f   LIBCMT:vprintf.obj
 0001:00040b69       __vprintf_l                00441b69 f   LIBCMT:vprintf.obj
 0001:00040b83       __vprintf_s_l              00441b83 f   LIBCMT:vprintf.obj
 0001:00040b9d       __vprintf_p_l              00441b9d f   LIBCMT:vprintf.obj
 0001:00040bb7       _vprintf                   00441bb7 f   LIBCMT:vprintf.obj
 0001:00040bcf       _vprintf_s                 00441bcf f   LIBCMT:vprintf.obj
 0001:00040be7       __vprintf_p                00441be7 f   LIBCMT:vprintf.obj
 0001:00040bff       ___addl                    00441bff f i LIBCMT:intrncvt.obj
 0001:00040c20       __ZeroTail                 00441c20 f i LIBCMT:intrncvt.obj
 0001:00040c65       __IncMan                   00441c65 f i LIBCMT:intrncvt.obj
 0001:00040ccf       __RoundMan                 00441ccf f i LIBCMT:intrncvt.obj
 0001:00040dbd       __CopyMan                  00441dbd f i LIBCMT:intrncvt.obj
 0001:00040dd8       __FillZeroMan              00441dd8 f i LIBCMT:intrncvt.obj
 0001:00040de4       __IsZeroMan                00441de4 f i LIBCMT:intrncvt.obj
 0001:00040dfd       __ShrMan                   00441dfd f i LIBCMT:intrncvt.obj
 0001:00040e95       __ld12cvt                  00441e95 f i LIBCMT:intrncvt.obj
 0001:000413be       __ld12tod                  004423be f   LIBCMT:intrncvt.obj
 0001:00041900       __ld12tof                  00442900 f   LIBCMT:intrncvt.obj
 0001:00041e42       __ld12told                 00442e42 f   LIBCMT:intrncvt.obj
 0001:00041f04       ___shl_12                  00442f04 f i LIBCMT:strgtold.obj
 0001:00041f32       ___shr_12                  00442f32 f i LIBCMT:strgtold.obj
 0001:00041f5f       ___ld12mul                 00442f5f f i LIBCMT:strgtold.obj
 0001:000421d3       ___multtenpow12            004431d3 f i LIBCMT:strgtold.obj
 0001:000424dc       ___strgtold12_l            004434dc f   LIBCMT:strgtold.obj
 0001:00042b9c       ___STRINGTOLD_L            00443b9c f   LIBCMT:strgtold.obj
 0001:00042bf5       ___add_12                  00443bf5 f i LIBCMT:x10fout.obj
 0001:00042c62       _$I10_OUTPUT               00443c62 f   LIBCMT:x10fout.obj
 0001:00043528       __set_controlfp            00444528 f   LIBCMT:ieee87.obj
 0001:0004387e       __statusfp                 0044487e f   LIBCMT:ieee87.obj
 0001:0004390e       __fpreset                  0044490e f   LIBCMT:ieee87.obj
 0001:00043b3e       __statusfp2                00444b3e f   LIBCMT:ieee87.obj
 0001:00043b96       __clearfp                  00444b96 f   LIBCMT:ieee87.obj
 0001:00043c6d       ___control87_2             00444c6d f   LIBCMT:ieee87.obj
 0001:00043f77       __control87                00444f77 f i LIBCMT:ieee87.obj
 0001:0004427a       __controlfp                0044527a f   LIBCMT:ieee87.obj
 0001:00044583       ___initconin               00445583 f   LIBCMT:initcon.obj
 0001:000445a2       ___initconout              004455a2 f   LIBCMT:initcon.obj
 0001:000445c1       ___termcon                 004455c1 f   LIBCMT:initcon.obj
 0001:000445ee       _wcslen                    004455ee f   LIBCMT:wcslen.obj
 0001:00044828       ___crtGetStringTypeW       00445828 f   LIBCMT:w_str.obj
 0001:00044866       __getenv_helper_nolock     00445866 f   LIBCMT:getenv.obj
 0001:00044a1c       _getenv                    00445a1c f   LIBCMT:getenv.obj
 0001:00044a9f       _getenv_s                  00445a9f f   LIBCMT:getenv.obj
 0001:00044b77       __dupenv_s                 00445b77 f   LIBCMT:getenv.obj
 0001:00044c60       ___ascii_strnicmp          00445c60 f   LIBCMT:_strnicm.obj
 0001:00044cc1       ___mtold12                 00445cc1 f   LIBCMT:mantold.obj
 0001:00044e8d       __statfp                   00445e8d f   LIBCMT:fpctrl.obj
 0001:00044e98       __clrfp                    00445e98 f   LIBCMT:fpctrl.obj
 0001:00044ea4       __ctrlfp                   00445ea4 f   LIBCMT:fpctrl.obj
 0001:00044ecb       __set_statfp               00445ecb f   LIBCMT:fpctrl.obj
 0001:00044f21       ___get_fpsr_sse2           00445f21 f   LIBCMT:fpctrl.obj
 0001:00044f3d       ___set_fpsr_sse2           00445f3d f   LIBCMT:fpctrl.obj
 0001:00044faf       ___fclrf_sse2              00445faf f   LIBCMT:fpctrl.obj
 0001:00044fc7       ___statfp_sse2             00445fc7 f   LIBCMT:fpctrl.obj
 0001:00044fda       ___clrfp_sse2              00445fda f   LIBCMT:fpctrl.obj
 0001:00044ff2       ___ctrlfp_sse2             00445ff2 f   LIBCMT:fpctrl.obj
 0001:00045026       ___set_statfp_sse2         00446026 f   LIBCMT:fpctrl.obj
 0001:0004503c       __mbsnbicoll_l             0044603c f   LIBCMT:mbsnbico.obj
 0001:00045128       __mbsnbicoll               00446128 f   LIBCMT:mbsnbico.obj
 0001:0004513f       ___wtomb_environ           0044613f f   LIBCMT:wtombenv.obj
 0001:000451d4       _strnlen                   004461d4 f   LIBCMT:strlen_s.obj
 0001:00045591       ___crtCompareStringA       00446591 f   LIBCMT:a_cmp.obj
 0001:000455d1       __strnicoll_l              004465d1 f   LIBCMT:strnicol.obj
 0001:000456c9       __strnicoll                004466c9 f   LIBCMT:strnicol.obj
 0001:0004579a       ___crtsetenv               0044679a f   LIBCMT:setenv.obj
 0001:000459e6       __strdup                   004469e6 f   LIBCMT:strdup.obj
 0001:00045a36       __mbschr_l                 00446a36 f   LIBCMT:mbschr.obj
 0001:00045af0       __mbschr                   00446af0 f   LIBCMT:mbschr.obj
 0001:00045b20       _strchr                    00446b20 f   LIBCMT:strchr.obj
 0001:00045b26       ___from_strstr_to_strchr   00446b26     LIBCMT:strchr.obj
 0001:00045bde       _VerQueryValueA@16         00446bde f   Version:VERSION.dll
 0001:00045be4       _GetFileVersionInfoA@16    00446be4 f   Version:VERSION.dll
 0001:00045bea       _GetFileVersionInfoSizeA@8 00446bea f   Version:VERSION.dll
 0001:00045bf0       _CreateMutexA@12           00446bf0 f   kernel32:KERNEL32.dll
 0001:00045bf6       _InterlockedDecrement@4    00446bf6 f   kernel32:KERNEL32.dll
 0001:00045bfc       _SetLastError@4            00446bfc f   kernel32:KERNEL32.dll
 0001:00045c02       _FormatMessageA@28         00446c02 f   kernel32:KERNEL32.dll
 0001:00045c08       _GetCurrentDirectoryA@8    00446c08 f   kernel32:KERNEL32.dll
 0001:00045c0e       _GetModuleFileNameA@12     00446c0e f   kernel32:KERNEL32.dll
 0001:00045c14       _GetSystemTime@4           00446c14 f   kernel32:KERNEL32.dll
 0001:00045c1a       _GetLocalTime@4            00446c1a f   kernel32:KERNEL32.dll
 0001:00045c20       _GetComputerNameA@8        00446c20 f   kernel32:KERNEL32.dll
 0001:00045c26       _WritePrivateProfileStringA@16 00446c26 f   kernel32:KERNEL32.dll
 0001:00045c2c       _GetPrivateProfileStringA@24 00446c2c f   kernel32:KERNEL32.dll
 0001:00045c32       _GlobalFree@4              00446c32 f   kernel32:KERNEL32.dll
 0001:00045c38       _GlobalUnlock@4            00446c38 f   kernel32:KERNEL32.dll
 0001:00045c3e       _GlobalLock@4              00446c3e f   kernel32:KERNEL32.dll
 0001:00045c44       _GlobalAlloc@8             00446c44 f   kernel32:KERNEL32.dll
 0001:00045c4a       _WideCharToMultiByte@32    00446c4a f   kernel32:KERNEL32.dll
 0001:00045c50       _InterlockedCompareExchange@12 00446c50 f   kernel32:KERNEL32.dll
 0001:00045c56       _MultiByteToWideChar@24    00446c56 f   kernel32:KERNEL32.dll
 0001:00045c5c       _GetACP@0                  00446c5c f   kernel32:KERNEL32.dll
 0001:00045c62       _GetLocaleInfoA@16         00446c62 f   kernel32:KERNEL32.dll
 0001:00045c68       _GetThreadLocale@0         00446c68 f   kernel32:KERNEL32.dll
 0001:00045c6e       _GetVersionExA@4           00446c6e f   kernel32:KERNEL32.dll
 0001:00045c74       _GetSystemTimeAsFileTime@4 00446c74 f   kernel32:KERNEL32.dll
 0001:00045c7a       _RaiseException@16         00446c7a f   kernel32:KERNEL32.dll
 0001:00045c80       _RtlUnwind@16              00446c80 f   kernel32:KERNEL32.dll
 0001:00045c86       _HeapFree@12               00446c86 f   kernel32:KERNEL32.dll
 0001:00045c8c       _TerminateProcess@8        00446c8c f   kernel32:KERNEL32.dll
 0001:00045c92       _GetCurrentProcess@0       00446c92 f   kernel32:KERNEL32.dll
 0001:00045c98       _UnhandledExceptionFilter@4 00446c98 f   kernel32:KERNEL32.dll
 0001:00045c9e       _SetUnhandledExceptionFilter@4 00446c9e f   kernel32:KERNEL32.dll
 0001:00045ca4       _IsDebuggerPresent@0       00446ca4 f   kernel32:KERNEL32.dll
 0001:00045caa       _GetCommandLineA@0         00446caa f   kernel32:KERNEL32.dll
 0001:00045cb0       _HeapAlloc@12              00446cb0 f   kernel32:KERNEL32.dll
 0001:00045cb6       _GetProcessHeap@0          00446cb6 f   kernel32:KERNEL32.dll
 0001:00045cbc       _GetStartupInfoA@4         00446cbc f   kernel32:KERNEL32.dll
 0001:00045cc2       _LCMapStringA@24           00446cc2 f   kernel32:KERNEL32.dll
 0001:00045cc8       _LCMapStringW@24           00446cc8 f   kernel32:KERNEL32.dll
 0001:00045cce       _GetCPInfo@8               00446cce f   kernel32:KERNEL32.dll
 0001:00045cd4       _GetModuleHandleA@4        00446cd4 f   kernel32:KERNEL32.dll
 0001:00045cda       _TlsGetValue@4             00446cda f   kernel32:KERNEL32.dll
 0001:00045ce0       _TlsAlloc@0                00446ce0 f   kernel32:KERNEL32.dll
 0001:00045ce6       _TlsSetValue@8             00446ce6 f   kernel32:KERNEL32.dll
 0001:00045cec       _TlsFree@4                 00446cec f   kernel32:KERNEL32.dll
 0001:00045cf2       _GetCurrentThreadId@0      00446cf2 f   kernel32:KERNEL32.dll
 0001:00045cf8       _GetCurrentThread@0        00446cf8 f   kernel32:KERNEL32.dll
 0001:00045cfe       _HeapSize@12               00446cfe f   kernel32:KERNEL32.dll
 0001:00045d04       _ExitProcess@4             00446d04 f   kernel32:KERNEL32.dll
 0001:00045d0a       _WriteFile@20              00446d0a f   kernel32:KERNEL32.dll
 0001:00045d10       _GetStdHandle@4            00446d10 f   kernel32:KERNEL32.dll
 0001:00045d16       _HeapDestroy@4             00446d16 f   kernel32:KERNEL32.dll
 0001:00045d1c       _HeapCreate@12             00446d1c f   kernel32:KERNEL32.dll
 0001:00045d22       _VirtualFree@12            00446d22 f   kernel32:KERNEL32.dll
 0001:00045d28       _FatalAppExitA@8           00446d28 f   kernel32:KERNEL32.dll
 0001:00045d2e       _VirtualAlloc@16           00446d2e f   kernel32:KERNEL32.dll
 0001:00045d34       _HeapReAlloc@16            00446d34 f   kernel32:KERNEL32.dll
 0001:00045d3a       _FreeEnvironmentStringsA@4 00446d3a f   kernel32:KERNEL32.dll
 0001:00045d40       _GetEnvironmentStrings@0   00446d40 f   kernel32:KERNEL32.dll
 0001:00045d46       _FreeEnvironmentStringsW@4 00446d46 f   kernel32:KERNEL32.dll
 0001:00045d4c       _GetEnvironmentStringsW@0  00446d4c f   kernel32:KERNEL32.dll
 0001:00045d52       _SetHandleCount@4          00446d52 f   kernel32:KERNEL32.dll
 0001:00045d58       _GetFileType@4             00446d58 f   kernel32:KERNEL32.dll
 0001:00045d5e       _QueryPerformanceCounter@4 00446d5e f   kernel32:KERNEL32.dll
 0001:00045d64       _GetCurrentProcessId@0     00446d64 f   kernel32:KERNEL32.dll
 0001:00045d6a       _GetConsoleCP@0            00446d6a f   kernel32:KERNEL32.dll
 0001:00045d70       _GetConsoleMode@8          00446d70 f   kernel32:KERNEL32.dll
 0001:00045d76       _FlushFileBuffers@4        00446d76 f   kernel32:KERNEL32.dll
 0001:00045d7c       _ReadFile@20               00446d7c f   kernel32:KERNEL32.dll
 0001:00045d82       _SetFilePointer@16         00446d82 f   kernel32:KERNEL32.dll
 0001:00045d88       _GetOEMCP@0                00446d88 f   kernel32:KERNEL32.dll
 0001:00045d8e       _IsValidCodePage@4         00446d8e f   kernel32:KERNEL32.dll
 0001:00045d94       _GetStringTypeA@20         00446d94 f   kernel32:KERNEL32.dll
 0001:00045d9a       _GetStringTypeW@16         00446d9a f   kernel32:KERNEL32.dll
 0001:00045da0       _GetTimeFormatA@24         00446da0 f   kernel32:KERNEL32.dll
 0001:00045da6       _GetDateFormatA@24         00446da6 f   kernel32:KERNEL32.dll
 0001:00045dac       _GetUserDefaultLCID@0      00446dac f   kernel32:KERNEL32.dll
 0001:00045db2       _EnumSystemLocalesA@8      00446db2 f   kernel32:KERNEL32.dll
 0001:00045db8       _IsValidLocale@8           00446db8 f   kernel32:KERNEL32.dll
 0001:00045dbe       _SetConsoleCtrlHandler@8   00446dbe f   kernel32:KERNEL32.dll
 0001:00045dc4       _GetLocaleInfoW@16         00446dc4 f   kernel32:KERNEL32.dll
 0001:00045dca       _WriteConsoleA@20          00446dca f   kernel32:KERNEL32.dll
 0001:00045dd0       _GetConsoleOutputCP@0      00446dd0 f   kernel32:KERNEL32.dll
 0001:00045dd6       _WriteConsoleW@20          00446dd6 f   kernel32:KERNEL32.dll
 0001:00045ddc       _SetStdHandle@8            00446ddc f   kernel32:KERNEL32.dll
 0001:00045de2       _GetTimeZoneInformation@4  00446de2 f   kernel32:KERNEL32.dll
 0001:00045de8       _CreateFileA@28            00446de8 f   kernel32:KERNEL32.dll
 0001:00045dee       _CompareStringA@24         00446dee f   kernel32:KERNEL32.dll
 0001:00045df4       _CompareStringW@24         00446df4 f   kernel32:KERNEL32.dll
 0001:00045dfa       _SetEnvironmentVariableA@8 00446dfa f   kernel32:KERNEL32.dll
 0001:00045e00       _MessageBeep@4             00446e00 f   user32:USER32.dll
 0001:00045e06       _wsprintfA                 00446e06 f   user32:USER32.dll
 0001:00045e0c       _GetUserNameA@8            00446e0c f   advapi32:ADVAPI32.dll
 0002:00000000       __imp__GetUserNameA@8      0044a000     advapi32:ADVAPI32.dll
 0002:00000004       \177ADVAPI32_NULL_THUNK_DATA 0044a004     advapi32:ADVAPI32.dll
 0002:00000008       __imp_?KSG_StringToMD5String@@YAHQADQBD@Z 0044a008     engine:Engine.dll
 0002:0000000c       \177Engine_NULL_THUNK_DATA 0044a00c     engine:Engine.dll
 0002:00000010       __imp__GetStockObject@4    0044a010     gdi32:GDI32.dll
 0002:00000014       \177GDI32_NULL_THUNK_DATA  0044a014     gdi32:GDI32.dll
 0002:00000018       __imp__SetEvent@4          0044a018     kernel32:KERNEL32.dll
 0002:0000001c       __imp__PulseEvent@4        0044a01c     kernel32:KERNEL32.dll
 0002:00000020       __imp__EnterCriticalSection@4 0044a020     kernel32:KERNEL32.dll
 0002:00000024       __imp__LeaveCriticalSection@4 0044a024     kernel32:KERNEL32.dll
 0002:00000028       __imp__InitializeCriticalSection@4 0044a028     kernel32:KERNEL32.dll
 0002:0000002c       __imp__DeleteCriticalSection@4 0044a02c     kernel32:KERNEL32.dll
 0002:00000030       __imp__InterlockedIncrement@4 0044a030     kernel32:KERNEL32.dll
 0002:00000034       __imp__InterlockedExchangeAdd@8 0044a034     kernel32:KERNEL32.dll
 0002:00000038       __imp__GetTickCount@0      0044a038     kernel32:KERNEL32.dll
 0002:0000003c       __imp__Sleep@4             0044a03c     kernel32:KERNEL32.dll
 0002:00000040       __imp__CreateThread@24     0044a040     kernel32:KERNEL32.dll
 0002:00000044       __imp__TerminateThread@8   0044a044     kernel32:KERNEL32.dll
 0002:00000048       __imp__GetProcAddress@8    0044a048     kernel32:KERNEL32.dll
 0002:0000004c       __imp__FreeLibrary@4       0044a04c     kernel32:KERNEL32.dll
 0002:00000050       __imp__LoadLibraryA@4      0044a050     kernel32:KERNEL32.dll
 0002:00000054       __imp__CreateEventA@16     0044a054     kernel32:KERNEL32.dll
 0002:00000058       __imp__SetEnvironmentVariableA@8 0044a058     kernel32:KERNEL32.dll
 0002:0000005c       __imp__CompareStringW@24   0044a05c     kernel32:KERNEL32.dll
 0002:00000060       __imp__CompareStringA@24   0044a060     kernel32:KERNEL32.dll
 0002:00000064       __imp__CreateFileA@28      0044a064     kernel32:KERNEL32.dll
 0002:00000068       __imp__GetTimeZoneInformation@4 0044a068     kernel32:KERNEL32.dll
 0002:0000006c       __imp__SetStdHandle@8      0044a06c     kernel32:KERNEL32.dll
 0002:00000070       __imp__WriteConsoleW@20    0044a070     kernel32:KERNEL32.dll
 0002:00000074       __imp__ResetEvent@4        0044a074     kernel32:KERNEL32.dll
 0002:00000078       __imp__GetLastError@0      0044a078     kernel32:KERNEL32.dll
 0002:0000007c       __imp__GetLocaleInfoW@16   0044a07c     kernel32:KERNEL32.dll
 0002:00000080       __imp__SetConsoleCtrlHandler@8 0044a080     kernel32:KERNEL32.dll
 0002:00000084       __imp__IsValidLocale@8     0044a084     kernel32:KERNEL32.dll
 0002:00000088       __imp__EnumSystemLocalesA@8 0044a088     kernel32:KERNEL32.dll
 0002:0000008c       __imp__GetUserDefaultLCID@0 0044a08c     kernel32:KERNEL32.dll
 0002:00000090       __imp__GetDateFormatA@24   0044a090     kernel32:KERNEL32.dll
 0002:00000094       __imp__GetTimeFormatA@24   0044a094     kernel32:KERNEL32.dll
 0002:00000098       __imp__GetStringTypeW@16   0044a098     kernel32:KERNEL32.dll
 0002:0000009c       __imp__GetStringTypeA@20   0044a09c     kernel32:KERNEL32.dll
 0002:000000a0       __imp__IsValidCodePage@4   0044a0a0     kernel32:KERNEL32.dll
 0002:000000a4       __imp__GetOEMCP@0          0044a0a4     kernel32:KERNEL32.dll
 0002:000000a8       __imp__SetFilePointer@16   0044a0a8     kernel32:KERNEL32.dll
 0002:000000ac       __imp__ReadFile@20         0044a0ac     kernel32:KERNEL32.dll
 0002:000000b0       __imp__FlushFileBuffers@4  0044a0b0     kernel32:KERNEL32.dll
 0002:000000b4       __imp__GetConsoleMode@8    0044a0b4     kernel32:KERNEL32.dll
 0002:000000b8       __imp__GetConsoleCP@0      0044a0b8     kernel32:KERNEL32.dll
 0002:000000bc       __imp__GetCurrentProcessId@0 0044a0bc     kernel32:KERNEL32.dll
 0002:000000c0       __imp__QueryPerformanceCounter@4 0044a0c0     kernel32:KERNEL32.dll
 0002:000000c4       __imp__GetFileType@4       0044a0c4     kernel32:KERNEL32.dll
 0002:000000c8       __imp__SetHandleCount@4    0044a0c8     kernel32:KERNEL32.dll
 0002:000000cc       __imp__GetEnvironmentStringsW@0 0044a0cc     kernel32:KERNEL32.dll
 0002:000000d0       __imp__FreeEnvironmentStringsW@4 0044a0d0     kernel32:KERNEL32.dll
 0002:000000d4       __imp__GetEnvironmentStrings@0 0044a0d4     kernel32:KERNEL32.dll
 0002:000000d8       __imp__FreeEnvironmentStringsA@4 0044a0d8     kernel32:KERNEL32.dll
 0002:000000dc       __imp__GetConsoleOutputCP@0 0044a0dc     kernel32:KERNEL32.dll
 0002:000000e0       __imp__WaitForSingleObject@8 0044a0e0     kernel32:KERNEL32.dll
 0002:000000e4       __imp__HeapReAlloc@16      0044a0e4     kernel32:KERNEL32.dll
 0002:000000e8       __imp__VirtualAlloc@16     0044a0e8     kernel32:KERNEL32.dll
 0002:000000ec       __imp__CloseHandle@4       0044a0ec     kernel32:KERNEL32.dll
 0002:000000f0       __imp__WriteConsoleA@20    0044a0f0     kernel32:KERNEL32.dll
 0002:000000f4       __imp__FatalAppExitA@8     0044a0f4     kernel32:KERNEL32.dll
 0002:000000f8       __imp__VirtualFree@12      0044a0f8     kernel32:KERNEL32.dll
 0002:000000fc       __imp__HeapCreate@12       0044a0fc     kernel32:KERNEL32.dll
 0002:00000100       __imp__HeapDestroy@4       0044a100     kernel32:KERNEL32.dll
 0002:00000104       __imp__GetStdHandle@4      0044a104     kernel32:KERNEL32.dll
 0002:00000108       __imp__WriteFile@20        0044a108     kernel32:KERNEL32.dll
 0002:0000010c       __imp__ExitProcess@4       0044a10c     kernel32:KERNEL32.dll
 0002:00000110       __imp__HeapSize@12         0044a110     kernel32:KERNEL32.dll
 0002:00000114       __imp__CreateMutexA@12     0044a114     kernel32:KERNEL32.dll
 0002:00000118       __imp__InterlockedDecrement@4 0044a118     kernel32:KERNEL32.dll
 0002:0000011c       __imp__SetLastError@4      0044a11c     kernel32:KERNEL32.dll
 0002:00000120       __imp__FormatMessageA@28   0044a120     kernel32:KERNEL32.dll
 0002:00000124       __imp__GetCurrentDirectoryA@8 0044a124     kernel32:KERNEL32.dll
 0002:00000128       __imp__GetModuleFileNameA@12 0044a128     kernel32:KERNEL32.dll
 0002:0000012c       __imp__GetSystemTime@4     0044a12c     kernel32:KERNEL32.dll
 0002:00000130       __imp__GetLocalTime@4      0044a130     kernel32:KERNEL32.dll
 0002:00000134       __imp__GetComputerNameA@8  0044a134     kernel32:KERNEL32.dll
 0002:00000138       __imp__WritePrivateProfileStringA@16 0044a138     kernel32:KERNEL32.dll
 0002:0000013c       __imp__GetPrivateProfileStringA@24 0044a13c     kernel32:KERNEL32.dll
 0002:00000140       __imp__GlobalFree@4        0044a140     kernel32:KERNEL32.dll
 0002:00000144       __imp__GlobalUnlock@4      0044a144     kernel32:KERNEL32.dll
 0002:00000148       __imp__GlobalLock@4        0044a148     kernel32:KERNEL32.dll
 0002:0000014c       __imp__GlobalAlloc@8       0044a14c     kernel32:KERNEL32.dll
 0002:00000150       __imp__WideCharToMultiByte@32 0044a150     kernel32:KERNEL32.dll
 0002:00000154       __imp__InterlockedCompareExchange@12 0044a154     kernel32:KERNEL32.dll
 0002:00000158       __imp__MultiByteToWideChar@24 0044a158     kernel32:KERNEL32.dll
 0002:0000015c       __imp__GetACP@0            0044a15c     kernel32:KERNEL32.dll
 0002:00000160       __imp__GetLocaleInfoA@16   0044a160     kernel32:KERNEL32.dll
 0002:00000164       __imp__GetThreadLocale@0   0044a164     kernel32:KERNEL32.dll
 0002:00000168       __imp__GetVersionExA@4     0044a168     kernel32:KERNEL32.dll
 0002:0000016c       __imp__GetSystemTimeAsFileTime@4 0044a16c     kernel32:KERNEL32.dll
 0002:00000170       __imp__RaiseException@16   0044a170     kernel32:KERNEL32.dll
 0002:00000174       __imp__RtlUnwind@16        0044a174     kernel32:KERNEL32.dll
 0002:00000178       __imp__HeapFree@12         0044a178     kernel32:KERNEL32.dll
 0002:0000017c       __imp__TerminateProcess@8  0044a17c     kernel32:KERNEL32.dll
 0002:00000180       __imp__GetCurrentProcess@0 0044a180     kernel32:KERNEL32.dll
 0002:00000184       __imp__UnhandledExceptionFilter@4 0044a184     kernel32:KERNEL32.dll
 0002:00000188       __imp__SetUnhandledExceptionFilter@4 0044a188     kernel32:KERNEL32.dll
 0002:0000018c       __imp__IsDebuggerPresent@0 0044a18c     kernel32:KERNEL32.dll
 0002:00000190       __imp__GetCommandLineA@0   0044a190     kernel32:KERNEL32.dll
 0002:00000194       __imp__HeapAlloc@12        0044a194     kernel32:KERNEL32.dll
 0002:00000198       __imp__GetProcessHeap@0    0044a198     kernel32:KERNEL32.dll
 0002:0000019c       __imp__GetStartupInfoA@4   0044a19c     kernel32:KERNEL32.dll
 0002:000001a0       __imp__LCMapStringA@24     0044a1a0     kernel32:KERNEL32.dll
 0002:000001a4       __imp__LCMapStringW@24     0044a1a4     kernel32:KERNEL32.dll
 0002:000001a8       __imp__GetCPInfo@8         0044a1a8     kernel32:KERNEL32.dll
 0002:000001ac       __imp__GetModuleHandleA@4  0044a1ac     kernel32:KERNEL32.dll
 0002:000001b0       __imp__TlsGetValue@4       0044a1b0     kernel32:KERNEL32.dll
 0002:000001b4       __imp__TlsAlloc@0          0044a1b4     kernel32:KERNEL32.dll
 0002:000001b8       __imp__TlsSetValue@8       0044a1b8     kernel32:KERNEL32.dll
 0002:000001bc       __imp__TlsFree@4           0044a1bc     kernel32:KERNEL32.dll
 0002:000001c0       __imp__GetCurrentThreadId@0 0044a1c0     kernel32:KERNEL32.dll
 0002:000001c4       __imp__GetCurrentThread@0  0044a1c4     kernel32:KERNEL32.dll
 0002:000001c8       __imp__InterlockedExchange@8 0044a1c8     kernel32:KERNEL32.dll
 0002:000001cc       \177KERNEL32_NULL_THUNK_DATA 0044a1cc     kernel32:KERNEL32.dll
 0002:000001d0       __imp__EnableWindow@8      0044a1d0     user32:USER32.dll
 0002:000001d4       __imp__wsprintfA           0044a1d4     user32:USER32.dll
 0002:000001d8       __imp__MessageBeep@4       0044a1d8     user32:USER32.dll
 0002:000001dc       __imp__GetDlgItem@8        0044a1dc     user32:USER32.dll
 0002:000001e0       __imp__GetDlgItemInt@16    0044a1e0     user32:USER32.dll
 0002:000001e4       __imp__MessageBoxA@16      0044a1e4     user32:USER32.dll
 0002:000001e8       __imp__SetFocus@4          0044a1e8     user32:USER32.dll
 0002:000001ec       __imp__GetDlgItemTextA@16  0044a1ec     user32:USER32.dll
 0002:000001f0       __imp__SendMessageA@16     0044a1f0     user32:USER32.dll
 0002:000001f4       __imp__CreateDialogParamA@20 0044a1f4     user32:USER32.dll
 0002:000001f8       __imp__ShowWindow@8        0044a1f8     user32:USER32.dll
 0002:000001fc       __imp__UpdateWindow@4      0044a1fc     user32:USER32.dll
 0002:00000200       __imp__GetMessageA@16      0044a200     user32:USER32.dll
 0002:00000204       __imp__IsDialogMessageA@8  0044a204     user32:USER32.dll
 0002:00000208       __imp__TranslateMessage@4  0044a208     user32:USER32.dll
 0002:0000020c       __imp__DispatchMessageA@4  0044a20c     user32:USER32.dll
 0002:00000210       __imp__LoadIconA@8         0044a210     user32:USER32.dll
 0002:00000214       __imp__LoadCursorA@8       0044a214     user32:USER32.dll
 0002:00000218       __imp__GetSystemMetrics@4  0044a218     user32:USER32.dll
 0002:0000021c       __imp__LoadImageA@24       0044a21c     user32:USER32.dll
 0002:00000220       __imp__RegisterClassExA@4  0044a220     user32:USER32.dll
 0002:00000224       __imp__SetTimer@16         0044a224     user32:USER32.dll
 0002:00000228       __imp__SetWindowTextA@8    0044a228     user32:USER32.dll
 0002:0000022c       __imp__IsDlgButtonChecked@8 0044a22c     user32:USER32.dll
 0002:00000230       __imp__KillTimer@8         0044a230     user32:USER32.dll
 0002:00000234       __imp__DestroyWindow@4     0044a234     user32:USER32.dll
 0002:00000238       __imp__PostQuitMessage@4   0044a238     user32:USER32.dll
 0002:0000023c       __imp__DialogBoxParamA@20  0044a23c     user32:USER32.dll
 0002:00000240       __imp__CheckDlgButton@12   0044a240     user32:USER32.dll
 0002:00000244       __imp__EndDialog@8         0044a244     user32:USER32.dll
 0002:00000248       __imp__PostMessageA@16     0044a248     user32:USER32.dll
 0002:0000024c       __imp__SetDlgItemTextA@12  0044a24c     user32:USER32.dll
 0002:00000250       __imp__SetDlgItemInt@16    0044a250     user32:USER32.dll
 0002:00000254       __imp__LoadStringA@16      0044a254     user32:USER32.dll
 0002:00000258       __imp__IsWindow@4          0044a258     user32:USER32.dll
 0002:0000025c       \177USER32_NULL_THUNK_DATA 0044a25c     user32:USER32.dll
 0002:00000260       __imp__GetFileVersionInfoSizeA@8 0044a260     Version:VERSION.dll
 0002:00000264       __imp__GetFileVersionInfoA@16 0044a264     Version:VERSION.dll
 0002:00000268       __imp__VerQueryValueA@16   0044a268     Version:VERSION.dll
 0002:0000026c       \177VERSION_NULL_THUNK_DATA 0044a26c     Version:VERSION.dll
 0002:00000270       __imp__gethostname@8       0044a270     ws2_32:WS2_32.dll
 0002:00000274       __imp__gethostbyname@4     0044a274     ws2_32:WS2_32.dll
 0002:00000278       __imp__inet_addr@4         0044a278     ws2_32:WS2_32.dll
 0002:0000027c       \177WS2_32_NULL_THUNK_DATA 0044a27c     ws2_32:WS2_32.dll
 0002:00000280       __imp__CoCreateGuid@4      0044a280     ole32:ole32.dll
 0002:00000284       \177ole32_NULL_THUNK_DATA  0044a284     ole32:ole32.dll
 0002:00000288       ___xc_a                    0044a288     LIBCMT:crt0init.obj
 0002:000002f0       ___xc_z                    0044a2f0     LIBCMT:crt0init.obj
 0002:000002f4       ___xi_a                    0044a2f4     LIBCMT:crt0init.obj
 0002:00000314       ___xi_z                    0044a314     LIBCMT:crt0init.obj
 0002:00000318       ___xp_a                    0044a318     LIBCMT:crt0init.obj
 0002:00000324       ___xp_z                    0044a324     LIBCMT:crt0init.obj
 0002:00000328       ___xt_a                    0044a328     LIBCMT:crt0init.obj
 0002:0000032c       ___xt_z                    0044a32c     LIBCMT:crt0init.obj
 0002:0000034c       ??_C@_07KJLOKDKB@TypeLib?$AA@ 0044a34c     Application.obj
 0002:00000354       ??_C@_08KEKAJNJI@Software?$AA@ 0044a354     Application.obj
 0002:00000360       ??_C@_06FDHFNJBJ@SYSTEM?$AA@ 0044a360     Application.obj
 0002:00000368       ??_C@_08LOPHEHKG@SECURITY?$AA@ 0044a368     Application.obj
 0002:00000374       ??_C@_03DDIMFGBA@SAM?$AA@  0044a374     Application.obj
 0002:00000378       ??_C@_04IHBFOLAC@Mime?$AA@ 0044a378     Application.obj
 0002:00000380       ??_C@_08PPIOJEA@Hardware?$AA@ 0044a380     Application.obj
 0002:0000038c       ??_C@_09JKPGEJCH@Interface?$AA@ 0044a38c     Application.obj
 0002:00000398       ??_C@_08PICKODJL@FileType?$AA@ 0044a398     Application.obj
 0002:000003a4       ??_C@_0BF@HDDNNDFH@Component?5Categories?$AA@ 0044a3a4     Application.obj
 0002:000003bc       ??_C@_05GIBEAPNE@CLSID?$AA@ 0044a3bc     Application.obj
 0002:000003c4       ??_C@_05PDIKPLII@AppID?$AA@ 0044a3c4     Application.obj
 0002:000003cc       ??_C@_06JBKGCNBB@Delete?$AA@ 0044a3cc     Application.obj
 0002:000003d4       ??_C@_08KAAPDIAN@NoRemove?$AA@ 0044a3d4     Application.obj
 0002:000003e0       ??_C@_0M@DBGDLGLL@ForceRemove?$AA@ 0044a3e0     Application.obj
 0002:000003ec       ??_C@_03LAIAPFCB@Val?$AA@  0044a3ec     Application.obj
 0002:000003f0       ??_C@_01HMGJMAIH@B?$AA@    0044a3f0     Application.obj
 0002:000003f4       ??_C@_01CKDDGHAB@D?$AA@    0044a3f4     Application.obj
 0002:000003f8       ??_C@_01PLPBNMEI@M?$AA@    0044a3f8     Application.obj
 0002:000003fc       ??_C@_01CPLAODJH@S?$AA@    0044a3fc     Application.obj
 0002:00000400       ??_C@_0P@GHFPNOJB@bad?5allocation?$AA@ 0044a400     Application.obj
 0002:00000410       ?collate@?$_Locbase@H@std@@2HB 0044a410     Application.obj
 0002:00000414       ?ctype@?$_Locbase@H@std@@2HB 0044a414     Application.obj
 0002:00000418       ?monetary@?$_Locbase@H@std@@2HB 0044a418     Application.obj
 0002:0000041c       ?numeric@?$_Locbase@H@std@@2HB 0044a41c     Application.obj
 0002:00000420       ?time@?$_Locbase@H@std@@2HB 0044a420     Application.obj
 0002:00000424       ?messages@?$_Locbase@H@std@@2HB 0044a424     Application.obj
 0002:00000428       ?all@?$_Locbase@H@std@@2HB 0044a428     Application.obj
 0002:0000042c       ?none@?$_Locbase@H@std@@2HB 0044a42c     Application.obj
 0002:00000430       ?table_size@?$ctype@D@std@@2IB 0044a430     Application.obj
 0002:00000434       ?skipws@?$_Iosb@H@std@@2W4_Fmtflags@12@B 0044a434     Application.obj
 0002:00000438       ?unitbuf@?$_Iosb@H@std@@2W4_Fmtflags@12@B 0044a438     Application.obj
 0002:0000043c       ?uppercase@?$_Iosb@H@std@@2W4_Fmtflags@12@B 0044a43c     Application.obj
 0002:00000440       ?showbase@?$_Iosb@H@std@@2W4_Fmtflags@12@B 0044a440     Application.obj
 0002:00000444       ?showpoint@?$_Iosb@H@std@@2W4_Fmtflags@12@B 0044a444     Application.obj
 0002:00000448       ?showpos@?$_Iosb@H@std@@2W4_Fmtflags@12@B 0044a448     Application.obj
 0002:0000044c       ?left@?$_Iosb@H@std@@2W4_Fmtflags@12@B 0044a44c     Application.obj
 0002:00000450       ?right@?$_Iosb@H@std@@2W4_Fmtflags@12@B 0044a450     Application.obj
 0002:00000454       ?internal@?$_Iosb@H@std@@2W4_Fmtflags@12@B 0044a454     Application.obj
 0002:00000458       ?dec@?$_Iosb@H@std@@2W4_Fmtflags@12@B 0044a458     Application.obj
 0002:0000045c       ?oct@?$_Iosb@H@std@@2W4_Fmtflags@12@B 0044a45c     Application.obj
 0002:00000460       ?hex@?$_Iosb@H@std@@2W4_Fmtflags@12@B 0044a460     Application.obj
 0002:00000464       ?scientific@?$_Iosb@H@std@@2W4_Fmtflags@12@B 0044a464     Application.obj
 0002:00000468       ?fixed@?$_Iosb@H@std@@2W4_Fmtflags@12@B 0044a468     Application.obj
 0002:0000046c       ?boolalpha@?$_Iosb@H@std@@2W4_Fmtflags@12@B 0044a46c     Application.obj
 0002:00000470       ?_Stdio@?$_Iosb@H@std@@2W4_Fmtflags@12@B 0044a470     Application.obj
 0002:00000474       ?adjustfield@?$_Iosb@H@std@@2W4_Fmtflags@12@B 0044a474     Application.obj
 0002:00000478       ?basefield@?$_Iosb@H@std@@2W4_Fmtflags@12@B 0044a478     Application.obj
 0002:0000047c       ?floatfield@?$_Iosb@H@std@@2W4_Fmtflags@12@B 0044a47c     Application.obj
 0002:00000480       ?goodbit@?$_Iosb@H@std@@2W4_Iostate@12@B 0044a480     Application.obj
 0002:00000484       ?eofbit@?$_Iosb@H@std@@2W4_Iostate@12@B 0044a484     Application.obj
 0002:00000488       ?failbit@?$_Iosb@H@std@@2W4_Iostate@12@B 0044a488     Application.obj
 0002:0000048c       ?badbit@?$_Iosb@H@std@@2W4_Iostate@12@B 0044a48c     Application.obj
 0002:00000490       ?_Hardfail@?$_Iosb@H@std@@2W4_Iostate@12@B 0044a490     Application.obj
 0002:00000494       ?in@?$_Iosb@H@std@@2W4_Openmode@12@B 0044a494     Application.obj
 0002:00000498       ?out@?$_Iosb@H@std@@2W4_Openmode@12@B 0044a498     Application.obj
 0002:0000049c       ?ate@?$_Iosb@H@std@@2W4_Openmode@12@B 0044a49c     Application.obj
 0002:000004a0       ?app@?$_Iosb@H@std@@2W4_Openmode@12@B 0044a4a0     Application.obj
 0002:000004a4       ?trunc@?$_Iosb@H@std@@2W4_Openmode@12@B 0044a4a4     Application.obj
 0002:000004a8       ?_Nocreate@?$_Iosb@H@std@@2W4_Openmode@12@B 0044a4a8     Application.obj
 0002:000004ac       ?_Noreplace@?$_Iosb@H@std@@2W4_Openmode@12@B 0044a4ac     Application.obj
 0002:000004b0       ?binary@?$_Iosb@H@std@@2W4_Openmode@12@B 0044a4b0     Application.obj
 0002:000004b4       ?beg@?$_Iosb@H@std@@2W4_Seekdir@12@B 0044a4b4     Application.obj
 0002:000004b8       ?cur@?$_Iosb@H@std@@2W4_Seekdir@12@B 0044a4b8     Application.obj
 0002:000004bc       ?end@?$_Iosb@H@std@@2W4_Seekdir@12@B 0044a4bc     Application.obj
 0002:000004c0       ?_Min@?$AtlLimits@H@ATL@@2HB 0044a4c0     Application.obj
 0002:000004c4       ?_Max@?$AtlLimits@H@ATL@@2HB 0044a4c4     Application.obj
 0002:000004c8       ?_Min@?$AtlLimits@I@ATL@@2IB 0044a4c8     Application.obj
 0002:000004cc       ?_Max@?$AtlLimits@I@ATL@@2IB 0044a4cc     Application.obj
 0002:000004d0       ?_Min@?$AtlLimits@J@ATL@@2JB 0044a4d0     Application.obj
 0002:000004d4       ?_Max@?$AtlLimits@J@ATL@@2JB 0044a4d4     Application.obj
 0002:000004d8       ?_Min@?$AtlLimits@K@ATL@@2KB 0044a4d8     Application.obj
 0002:000004dc       ?_Max@?$AtlLimits@K@ATL@@2KB 0044a4dc     Application.obj
 0002:000004e0       ?_Min@?$AtlLimits@_J@ATL@@2_JB 0044a4e0     Application.obj
 0002:000004e8       ?_Max@?$AtlLimits@_J@ATL@@2_JB 0044a4e8     Application.obj
 0002:000004f0       ?_Min@?$AtlLimits@_K@ATL@@2_KB 0044a4f0     Application.obj
 0002:000004f8       ?_Max@?$AtlLimits@_K@ATL@@2_KB 0044a4f8     Application.obj
 0002:00000500       ?VT@?$CVarTypeInfo@D@ATL@@2GB 0044a500     Application.obj
 0002:00000504       ?pmField@?$CVarTypeInfo@D@ATL@@2QQtagVARIANT@@DQ3@ 0044a504     Application.obj
 0002:00000508       ?VT@?$CVarTypeInfo@E@ATL@@2GB 0044a508     Application.obj
 0002:0000050c       ?pmField@?$CVarTypeInfo@E@ATL@@2QQtagVARIANT@@EQ3@ 0044a50c     Application.obj
 0002:00000510       ?VT@?$CVarTypeInfo@PAD@ATL@@2GB 0044a510     Application.obj
 0002:00000514       ?pmField@?$CVarTypeInfo@PAD@ATL@@2QQtagVARIANT@@PADQ3@ 0044a514     Application.obj
 0002:00000518       ?VT@?$CVarTypeInfo@PAE@ATL@@2GB 0044a518     Application.obj
 0002:0000051c       ?pmField@?$CVarTypeInfo@PAE@ATL@@2QQtagVARIANT@@PAEQ3@ 0044a51c     Application.obj
 0002:00000520       ?VT@?$CVarTypeInfo@F@ATL@@2GB 0044a520     Application.obj
 0002:00000524       ?pmField@?$CVarTypeInfo@F@ATL@@2QQtagVARIANT@@FQ3@ 0044a524     Application.obj
 0002:00000528       ?VT@?$CVarTypeInfo@PAF@ATL@@2GB 0044a528     Application.obj
 0002:0000052c       ?pmField@?$CVarTypeInfo@PAF@ATL@@2QQtagVARIANT@@PAFQ3@ 0044a52c     Application.obj
 0002:00000530       ?VT@?$CVarTypeInfo@G@ATL@@2GB 0044a530     Application.obj
 0002:00000534       ?pmField@?$CVarTypeInfo@G@ATL@@2QQtagVARIANT@@GQ3@ 0044a534     Application.obj
 0002:00000538       ?VT@?$CVarTypeInfo@PAG@ATL@@2GB 0044a538     Application.obj
 0002:0000053c       ?pmField@?$CVarTypeInfo@PAG@ATL@@2QQtagVARIANT@@PAGQ3@ 0044a53c     Application.obj
 0002:00000540       ?VT@?$CVarTypeInfo@H@ATL@@2GB 0044a540     Application.obj
 0002:00000544       ?pmField@?$CVarTypeInfo@H@ATL@@2QQtagVARIANT@@HQ3@ 0044a544     Application.obj
 0002:00000548       ?VT@?$CVarTypeInfo@PAH@ATL@@2GB 0044a548     Application.obj
 0002:0000054c       ?pmField@?$CVarTypeInfo@PAH@ATL@@2QQtagVARIANT@@PAHQ3@ 0044a54c     Application.obj
 0002:00000550       ?VT@?$CVarTypeInfo@I@ATL@@2GB 0044a550     Application.obj
 0002:00000554       ?pmField@?$CVarTypeInfo@I@ATL@@2QQtagVARIANT@@IQ3@ 0044a554     Application.obj
 0002:00000558       ?VT@?$CVarTypeInfo@PAI@ATL@@2GB 0044a558     Application.obj
 0002:0000055c       ?pmField@?$CVarTypeInfo@PAI@ATL@@2QQtagVARIANT@@PAIQ3@ 0044a55c     Application.obj
 0002:00000560       ?VT@?$CVarTypeInfo@J@ATL@@2GB 0044a560     Application.obj
 0002:00000564       ?pmField@?$CVarTypeInfo@J@ATL@@2QQtagVARIANT@@JQ3@ 0044a564     Application.obj
 0002:00000568       ?VT@?$CVarTypeInfo@PAJ@ATL@@2GB 0044a568     Application.obj
 0002:0000056c       ?pmField@?$CVarTypeInfo@PAJ@ATL@@2QQtagVARIANT@@PAJQ3@ 0044a56c     Application.obj
 0002:00000570       ?VT@?$CVarTypeInfo@K@ATL@@2GB 0044a570     Application.obj
 0002:00000574       ?pmField@?$CVarTypeInfo@K@ATL@@2QQtagVARIANT@@KQ3@ 0044a574     Application.obj
 0002:00000578       ?VT@?$CVarTypeInfo@PAK@ATL@@2GB 0044a578     Application.obj
 0002:0000057c       ?pmField@?$CVarTypeInfo@PAK@ATL@@2QQtagVARIANT@@PAKQ3@ 0044a57c     Application.obj
 0002:00000580       ?VT@?$CVarTypeInfo@_J@ATL@@2GB 0044a580     Application.obj
 0002:00000584       ?pmField@?$CVarTypeInfo@_J@ATL@@2QQtagVARIANT@@_JQ3@ 0044a584     Application.obj
 0002:00000588       ?VT@?$CVarTypeInfo@PA_J@ATL@@2GB 0044a588     Application.obj
 0002:0000058c       ?pmField@?$CVarTypeInfo@PA_J@ATL@@2QQtagVARIANT@@PA_JQ3@ 0044a58c     Application.obj
 0002:00000590       ?VT@?$CVarTypeInfo@_K@ATL@@2GB 0044a590     Application.obj
 0002:00000594       ?pmField@?$CVarTypeInfo@_K@ATL@@2QQtagVARIANT@@_KQ3@ 0044a594     Application.obj
 0002:00000598       ?VT@?$CVarTypeInfo@PA_K@ATL@@2GB 0044a598     Application.obj
 0002:0000059c       ?pmField@?$CVarTypeInfo@PA_K@ATL@@2QQtagVARIANT@@PA_KQ3@ 0044a59c     Application.obj
 0002:000005a0       ?VT@?$CVarTypeInfo@M@ATL@@2GB 0044a5a0     Application.obj
 0002:000005a4       ?pmField@?$CVarTypeInfo@M@ATL@@2QQtagVARIANT@@MQ3@ 0044a5a4     Application.obj
 0002:000005a8       ?VT@?$CVarTypeInfo@PAM@ATL@@2GB 0044a5a8     Application.obj
 0002:000005ac       ?pmField@?$CVarTypeInfo@PAM@ATL@@2QQtagVARIANT@@PAMQ3@ 0044a5ac     Application.obj
 0002:000005b0       ?VT@?$CVarTypeInfo@N@ATL@@2GB 0044a5b0     Application.obj
 0002:000005b4       ?pmField@?$CVarTypeInfo@N@ATL@@2QQtagVARIANT@@NQ3@ 0044a5b4     Application.obj
 0002:000005b8       ?VT@?$CVarTypeInfo@PAN@ATL@@2GB 0044a5b8     Application.obj
 0002:000005bc       ?pmField@?$CVarTypeInfo@PAN@ATL@@2QQtagVARIANT@@PANQ3@ 0044a5bc     Application.obj
 0002:000005c0       ?VT@?$CVarTypeInfo@UtagVARIANT@@@ATL@@2GB 0044a5c0     Application.obj
 0002:000005c4       ?VT@?$CVarTypeInfo@PA_W@ATL@@2GB 0044a5c4     Application.obj
 0002:000005c8       ?pmField@?$CVarTypeInfo@PA_W@ATL@@2QQtagVARIANT@@PA_WQ3@ 0044a5c8     Application.obj
 0002:000005cc       ?VT@?$CVarTypeInfo@PAPA_W@ATL@@2GB 0044a5cc     Application.obj
 0002:000005d0       ?pmField@?$CVarTypeInfo@PAPA_W@ATL@@2QQtagVARIANT@@PAPA_WQ3@ 0044a5d0     Application.obj
 0002:000005d4       ?VT@?$CVarTypeInfo@PAUIUnknown@@@ATL@@2GB 0044a5d4     Application.obj
 0002:000005d8       ?pmField@?$CVarTypeInfo@PAUIUnknown@@@ATL@@2QQtagVARIANT@@PAUIUnknown@@Q3@ 0044a5d8     Application.obj
 0002:000005dc       ?VT@?$CVarTypeInfo@PAPAUIUnknown@@@ATL@@2GB 0044a5dc     Application.obj
 0002:000005e0       ?pmField@?$CVarTypeInfo@PAPAUIUnknown@@@ATL@@2QQtagVARIANT@@PAPAUIUnknown@@Q3@ 0044a5e0     Application.obj
 0002:000005e4       ?VT@?$CVarTypeInfo@PAUIDispatch@@@ATL@@2GB 0044a5e4     Application.obj
 0002:000005e8       ?pmField@?$CVarTypeInfo@PAUIDispatch@@@ATL@@2QQtagVARIANT@@PAUIDispatch@@Q3@ 0044a5e8     Application.obj
 0002:000005ec       ?VT@?$CVarTypeInfo@PAPAUIDispatch@@@ATL@@2GB 0044a5ec     Application.obj
 0002:000005f0       ?pmField@?$CVarTypeInfo@PAPAUIDispatch@@@ATL@@2QQtagVARIANT@@PAPAUIDispatch@@Q3@ 0044a5f0     Application.obj
 0002:000005f4       ?VT@?$CVarTypeInfo@TtagCY@@@ATL@@2GB 0044a5f4     Application.obj
 0002:000005f8       ?pmField@?$CVarTypeInfo@TtagCY@@@ATL@@2QQtagVARIANT@@TtagCY@@Q3@ 0044a5f8     Application.obj
 0002:000005fc       ?VT@?$CVarTypeInfo@PATtagCY@@@ATL@@2GB 0044a5fc     Application.obj
 0002:00000600       ?pmField@?$CVarTypeInfo@PATtagCY@@@ATL@@2QQtagVARIANT@@PATtagCY@@Q3@ 0044a600     Application.obj
 0002:00000604       _LIBID_ATLLib              0044a604     Application.obj
 0002:00000614       _CLSID_Registrar           0044a614     Application.obj
 0002:00000624       _IID_IRegistrar            0044a624     Application.obj
 0002:00000634       _IID_IAxWinHostWindow      0044a634     Application.obj
 0002:00000644       _IID_IAxWinAmbientDispatch 0044a644     Application.obj
 0002:00000654       _IID_IInternalConnection   0044a654     Application.obj
 0002:00000664       _IID_IDocHostUIHandlerDispatch 0044a664     Application.obj
 0002:00000674       _IID_IAxWinHostWindowLic   0044a674     Application.obj
 0002:00000684       _IID_IAxWinAmbientDispatchEx 0044a684     Application.obj
 0002:000006c0       ?MAX_VALUE@CRegParser@ATL@@1HB 0044a6c0     Application.obj
 0002:000006c4       ?MAX_TYPE@CRegParser@ATL@@1HB 0044a6c4     Application.obj
 0002:000006c8       ?rgszNeverDelete@CRegParser@ATL@@1QBQBDB 0044a6c8     Application.obj
 0002:000006f8       ?cbNeverDelete@CRegParser@ATL@@1HB 0044a6f8     Application.obj
 0002:00000700       ??_7bad_alloc@std@@6B@     0044a700     Application.obj
 0002:0000070c       ??_7Thank_you@Define_the_symbol__ATL_MIXED@@6B@ 0044a70c     Application.obj
 0002:00000714       ??_7CBishopApp@@6B@        0044a714     Application.obj
 0002:00000718       ??_C@_0BL@GLOMNMEK@Please?5input?5a?5valid?5port?$CB?$AA@ 0044a718     Application.obj
 0002:00000734       ??_C@_0BJ@OBPHCMIE@Please?5input?5a?5valid?5IP?$CB?$AA@ 0044a734     Application.obj
 0002:00000750       ??_C@_0BP@LAHBNCKG@Please?5input?5a?5valid?5username?$CB?$AA@ 0044a750     Application.obj
 0002:00000770       ??_C@_07KGMMFLDN@Warning?$AA@ 0044a770     Application.obj
 0002:00000778       ??_C@_0BO@LCIACFAE@Please?5input?5a?5valid?5message?$CB?$AA@ 0044a778     Application.obj
 0002:00000798       ??_C@_0L@GOHGLDDA@Exception?$CB?$AA@ 0044a798     Application.obj
 0002:000007a4       ??_C@_07IPKKBMCH@?$CFd?5?1?5?$CFd?$AA@ 0044a7a4     Application.obj
 0002:000007ac       ??_C@_0BD@LEFPGCHL@Are?5you?5sure?5quit?$DP?$AA@ 0044a7ac     Application.obj
 0002:000007c0       ??_C@_04BJPIHCBA@Info?$AA@ 0044a7c0     Application.obj
 0002:000007c8       ??_C@_07DJMIGIHO@Invalid?$AA@ 0044a7c8     Application.obj
 0002:000007d0       ??_C@_0BC@GOHOJFIP@Bishop?5?9?5?$FLEnable?$FN?$AA@ 0044a7d0     Application.obj
 0002:000007e4       ??_C@_0BB@JBMHLLML@IntercessorClass?$AA@ 0044a7e4     Application.obj
 0002:0000081c       ??_7CEvent@Win32@OnlineGameLib@@6B@ 0044a81c     Event.obj
 0002:00000820       ??_C@_0BB@EHIAEGNH@CEvent?3?3Create?$CI?$CJ?$AA@ 0044a820     Event.obj
 0002:00000838       ??_7CException@Win32@OnlineGameLib@@6B@ 0044a838     Event.obj
 0002:00000848       ??_7CWin32Exception@Win32@OnlineGameLib@@6B@ 0044a848     Event.obj
 0002:00000854       ??_C@_0CF@OJNFELIB@CEvent?3?3Wait?$CI?$CJ?5?9?5WaitForSingleOb@ 0044a854     Event.obj
 0002:0000087c       ??_C@_0BA@CDAFMLOD@CEvent?3?3Reset?$CI?$CJ?$AA@ 0044a87c     Event.obj
 0002:0000088c       ??_C@_0O@GODIEGGL@CEvent?3?3Set?$CI?$CJ?$AA@ 0044a88c     Event.obj
 0002:0000089c       ??_C@_0BA@PDHLLCMG@CEvent?3?3Pulse?$CI?$CJ?$AA@ 0044a89c     Event.obj
 0002:000008ac       ??_C@_0P@OJPPPAGG@CEvent?3?3Wait?$CI?$CJ?$AA@ 0044a8ac     Event.obj
 0002:000008bc       ??_C@_0CE@FNEEFDAP@Unexpected?5timeout?5on?5infinite?5w@ 0044a8bc     Event.obj
 0002:00000900       ?s_nRoleListCount@CGamePlayer@@0HB 0044a900     GamePlayer.obj
 0002:00000904       ?s_nLoginTimeoutTimer@CGamePlayer@@0HB 0044a904     GamePlayer.obj
 0002:00000908       ?s_nProcessTimeoutTimer@CGamePlayer@@0HB 0044a908     GamePlayer.obj
 0002:00000910       ??_7IPlayer@@6B@           0044a910     GamePlayer.obj
 0002:00000938       ??_7ICommand@@6B@          0044a938     GamePlayer.obj
 0002:00000944       ??_7facet@locale@std@@6B@  0044a944     GamePlayer.obj
 0002:0000094c       ??_7ctype_base@std@@6B@    0044a94c     GamePlayer.obj
 0002:00000954       ??_7ios_base@std@@6B@      0044a954     GamePlayer.obj
 0002:0000095c       ??_7?$basic_ostream@DU?$char_traits@D@std@@@std@@6B@ 0044a95c     GamePlayer.obj
 0002:00000964       ??_7?$basic_ios@DU?$char_traits@D@std@@@std@@6B@ 0044a964     GamePlayer.obj
 0002:0000096c       ??_7?$basic_istream@DU?$char_traits@D@std@@@std@@6B@ 0044a96c     GamePlayer.obj
 0002:00000974       ??_7?$basic_iostream@DU?$char_traits@D@std@@@std@@6B@ 0044a974     GamePlayer.obj
 0002:00000978       ??_8?$basic_ostream@DU?$char_traits@D@std@@@std@@7B@ 0044a978     GamePlayer.obj
 0002:00000984       ??_7?$basic_streambuf@DU?$char_traits@D@std@@@std@@6B@ 0044a984     GamePlayer.obj
 0002:000009c0       ??_7?$CTaskCommand@VCGamePlayer@@@@6B@ 0044a9c0     GamePlayer.obj
 0002:000009cc       ??_7strstreambuf@std@@6B@  0044a9cc     GamePlayer.obj
 0002:00000a08       ??_7strstream@std@@6B@     0044aa08     GamePlayer.obj
 0002:00000a10       ??_7logic_error@std@@6B@   0044aa10     GamePlayer.obj
 0002:00000a1c       ??_7runtime_error@std@@6B@ 0044aa1c     GamePlayer.obj
 0002:00000a28       ??_7length_error@std@@6B@  0044aa28     GamePlayer.obj
 0002:00000a34       ??_7out_of_range@std@@6B@  0044aa34     GamePlayer.obj
 0002:00000a40       ??_7failure@ios_base@std@@6B@ 0044aa40     GamePlayer.obj
 0002:00000a48       ??_C@_0BM@PAPJHAGI@invalid?5map?1set?$DMT?$DO?5iterator?$AA@ 0044aa48     GamePlayer.obj
 0002:00000a64       ??_C@_0BE@JONHPENG@map?1set?$DMT?$DO?5too?5long?$AA@ 0044aa64     GamePlayer.obj
 0002:00000a78       ??_C@_0BD@OLBABOEK@vector?$DMT?$DO?5too?5long?$AA@ 0044aa78     GamePlayer.obj
 0002:00000a8c       ??_C@_0BA@ELKIONDK@bad?5locale?5name?$AA@ 0044aa8c     GamePlayer.obj
 0002:00000aa0       ??_7?$ctype@D@std@@6B@     0044aaa0     GamePlayer.obj
 0002:00000acc       ??_C@_01GFHCPBMG@C?$AA@    0044aacc     GamePlayer.obj
 0002:00000ad0       ??_C@_0BF@OOHOMBOF@ios_base?3?3eofbit?5set?$AA@ 0044aad0     GamePlayer.obj
 0002:00000ae8       ??_C@_0BG@FMKFHCIL@ios_base?3?3failbit?5set?$AA@ 0044aae8     GamePlayer.obj
 0002:00000b00       ??_C@_0BF@PHHKMMFD@ios_base?3?3badbit?5set?$AA@ 0044ab00     GamePlayer.obj
 0002:00000b15       ??_C@_00CNPNBAHC@?$AA@     0044ab15     GamePlayer.obj
 0002:00000b18       ??_C@_08EPJLHIJG@bad?5cast?$AA@ 0044ab18     GamePlayer.obj
 0002:00000b28       ??_7?$num_put@DV?$ostreambuf_iterator@DU?$char_traits@D@std@@@std@@@std@@6B@ 0044ab28     GamePlayer.obj
 0002:00000b4c       ??_C@_05LAPONLG@false?$AA@ 0044ab4c     GamePlayer.obj
 0002:00000b54       ??_C@_04LOAJBDKD@true?$AA@ 0044ab54     GamePlayer.obj
 0002:00000b60       ??_7?$numpunct@D@std@@6B@  0044ab60     GamePlayer.obj
 0002:00000b7c       ??_7CGamePlayer@@6B@       0044ab7c     GamePlayer.obj
 0002:00000ba0       ??_8?$basic_istream@DU?$char_traits@D@std@@@std@@7B@ 0044aba0     GamePlayer.obj
 0002:00000ba8       ??_8?$basic_iostream@DU?$char_traits@D@std@@@std@@7B?$basic_ostream@DU?$char_traits@D@std@@@1@@ 0044aba8     GamePlayer.obj
 0002:00000bb0       ??_8?$basic_iostream@DU?$char_traits@D@std@@@std@@7B?$basic_istream@DU?$char_traits@D@std@@@1@@ 0044abb0     GamePlayer.obj
 0002:00000bb8       ??_C@_01KGKMHCOC@e?$AA@    0044abb8     GamePlayer.obj
 0002:00000bbc       ??_C@_01DDCIFGEA@E?$AA@    0044abbc     GamePlayer.obj
 0002:00000bc0       ??_8strstream@std@@7B?$basic_ostream@DU?$char_traits@D@std@@@1@@ 0044abc0     GamePlayer.obj
 0002:00000bc8       ??_8strstream@std@@7B?$basic_istream@DU?$char_traits@D@std@@@1@@ 0044abc8     GamePlayer.obj
 0002:00000bd0       ??_C@_02EAOCLKAK@ld?$AA@   0044abd0     GamePlayer.obj
 0002:00000bd4       ??_C@_02BDDLJJBK@lu?$AA@   0044abd4     GamePlayer.obj
 0002:00000bd8       ??_C@_02HIKPPMOK@Ld?$AA@   0044abd8     GamePlayer.obj
 0002:00000bdc       ??_C@_02CLHGNPPK@Lu?$AA@   0044abdc     GamePlayer.obj
 0002:00000be0       __real@38aa95a5b7f87a0f    0044abe0     GamePlayer.obj
 0002:00000be8       __real@4202a05f20000000    0044abe8     GamePlayer.obj
 0002:00000bf0       __real@4733426172c74d82    0044abf0     GamePlayer.obj
 0002:00000bf8       __real@0000000000000000    0044abf8     GamePlayer.obj
 0002:00000c00       ??_C@_02BBAHNLBA@?$CFp?$AA@ 0044ac00     GamePlayer.obj
 0002:00000c04       ??_C@_0BL@OHMOPFIG@CGamePlayer?3?3TaskCompleted?$AA@ 0044ac04     GamePlayer.obj
 0002:00000c44       ??_7IGServer@@6B@          0044ac44     GameServer.obj
 0002:00000c74       ??_C@_04LLKPOCGK@?$CFd?$CFd?$AA@ 0044ac74     GameServer.obj
 0002:00000c7c       ??_C@_0BB@MOGOBHAF@list?$DMT?$DO?5too?5long?$AA@ 0044ac7c     GameServer.obj
 0002:00000c94       ??_7CGameServer@@6B@       0044ac94     GameServer.obj
 0002:00000ce8       ??_7CIntercessor@@6B@      0044ace8     Intercessor.obj
 0002:00000cec       ??_C@_0BA@OBHPCBFP@CreateInterface?$AA@ 0044acec     Intercessor.obj
 0002:00000cfc       ??_C@_0CD@JDAEKLNM@Startup?5a?5helper?5thread?5is?5faile@ 0044acfc     Intercessor.obj
 0002:00000d20       ??_C@_0BD@BCPACFBN@CIntercessor?5class?$AA@ 0044ad20     Intercessor.obj
 0002:00000d34       ??_C@_0CA@PMIIEHII@Run?5a?5working?5thread?5is?5failed?$CB?$AA@ 0044ad34     Intercessor.obj
 0002:00000d54       ??_C@_0L@MBMGBBBM@heaven?4dll?$AA@ 0044ad54     Intercessor.obj
 0002:00000d60       ??_C@_0M@NPHFFLOC@rainbow?4dll?$AA@ 0044ad60     Intercessor.obj
 0002:00000d6c       _IID_IESClient             0044ad6c     Network.obj
 0002:00000d7c       _IID_IClientFactory        0044ad7c     Network.obj
 0002:00000d8c       _IID_IIOCPServer           0044ad8c     Network.obj
 0002:00000d9c       _IID_IServerFactory        0044ad9c     Network.obj
 0002:00000dac       _LIBID_Accessibility       0044adac     Network.obj
 0002:00000dbc       _IID_IAccessible           0044adbc     Network.obj
 0002:00000dcc       _IID_IAccessibleHandler    0044adcc     Network.obj
 0002:00000ddc       _IID_IAccIdentity          0044addc     Network.obj
 0002:00000dec       _IID_IAccPropServer        0044adec     Network.obj
 0002:00000dfc       _IID_IAccPropServices      0044adfc     Network.obj
 0002:00000e0c       _IID_IAccPropMgrInternal   0044ae0c     Network.obj
 0002:00000e1c       _CLSID_AccPropServices     0044ae1c     Network.obj
 0002:00000e2c       _IIS_IsOleaccProxy         0044ae2c     Network.obj
 0002:00000e3c       _PROPID_ACC_NAME           0044ae3c     Network.obj
 0002:00000e4c       _PROPID_ACC_VALUE          0044ae4c     Network.obj
 0002:00000e5c       _PROPID_ACC_DESCRIPTION    0044ae5c     Network.obj
 0002:00000e6c       _PROPID_ACC_ROLE           0044ae6c     Network.obj
 0002:00000e7c       _PROPID_ACC_STATE          0044ae7c     Network.obj
 0002:00000e8c       _PROPID_ACC_HELP           0044ae8c     Network.obj
 0002:00000e9c       _PROPID_ACC_KEYBOARDSHORTCUT 0044ae9c     Network.obj
 0002:00000eac       _PROPID_ACC_DEFAULTACTION  0044aeac     Network.obj
 0002:00000ebc       _PROPID_ACC_HELPTOPIC      0044aebc     Network.obj
 0002:00000ecc       _PROPID_ACC_FOCUS          0044aecc     Network.obj
 0002:00000edc       _PROPID_ACC_SELECTION      0044aedc     Network.obj
 0002:00000eec       _PROPID_ACC_PARENT         0044aeec     Network.obj
 0002:00000efc       _PROPID_ACC_NAV_UP         0044aefc     Network.obj
 0002:00000f0c       _PROPID_ACC_NAV_DOWN       0044af0c     Network.obj
 0002:00000f1c       _PROPID_ACC_NAV_LEFT       0044af1c     Network.obj
 0002:00000f2c       _PROPID_ACC_NAV_RIGHT      0044af2c     Network.obj
 0002:00000f3c       _PROPID_ACC_NAV_PREV       0044af3c     Network.obj
 0002:00000f4c       _PROPID_ACC_NAV_NEXT       0044af4c     Network.obj
 0002:00000f5c       _PROPID_ACC_NAV_FIRSTCHILD 0044af5c     Network.obj
 0002:00000f6c       _PROPID_ACC_NAV_LASTCHILD  0044af6c     Network.obj
 0002:00000f7c       _PROPID_ACC_ROLEMAP        0044af7c     Network.obj
 0002:00000f8c       _PROPID_ACC_VALUEMAP       0044af8c     Network.obj
 0002:00000f9c       _PROPID_ACC_STATEMAP       0044af9c     Network.obj
 0002:00000fac       _PROPID_ACC_DESCRIPTIONMAP 0044afac     Network.obj
 0002:00000fbc       _PROPID_ACC_DODEFAULTACTION 0044afbc     Network.obj
 0002:00000ff0       ??_7CNetwork@@6B@          0044aff0     Network.obj
 0002:00000ff4       ??_C@_0BA@LNEIIPIE@GameSvrOpenPort?$AA@ 0044aff4     Network.obj
 0002:00001004       ??_C@_0P@JAGONIBG@ClientOpenPort?$AA@ 0044b004     Network.obj
 0002:00001014       ??_C@_0L@IJALBPIC@AccSvrPort?$AA@ 0044b014     Network.obj
 0002:00001020       ??_C@_08MMGLOBAP@AccSvrIP?$AA@ 0044b020     Network.obj
 0002:0000102c       ??_C@_0M@BPOCCKEE@RoleSvrPort?$AA@ 0044b02c     Network.obj
 0002:00001038       ??_C@_07BGDMAJAE@Network?$AA@ 0044b038     Network.obj
 0002:00001040       ??_C@_09IEMKLFAF@RoleSvrIP?$AA@ 0044b040     Network.obj
 0002:0000104c       ??_C@_0L@LKNGDHCO@Bishop?4cfg?$AA@ 0044b04c     Network.obj
 0002:00001078       ??_C@_06KBFFDHLK@ilucky?$AA@ 0044b078     PlayerCreator.obj
 0002:00001080       ??_C@_09EGHILDPH@irandseed?$AA@ 0044b080     PlayerCreator.obj
 0002:0000108c       ??_C@_0O@EHCKPPGE@iequipversion?$AA@ 0044b08c     PlayerCreator.obj
 0002:0000109c       ??_C@_07LDCCHNBN@iparam6?$AA@ 0044b09c     PlayerCreator.obj
 0002:000010a4       ??_C@_07JIAPCONO@iparam5?$AA@ 0044b0a4     PlayerCreator.obj
 0002:000010ac       ??_C@_07IBBEBPJP@iparam4?$AA@ 0044b0ac     PlayerCreator.obj
 0002:000010b4       ??_C@_07MOFFIJFI@iparam3?$AA@ 0044b0b4     PlayerCreator.obj
 0002:000010bc       ??_C@_07NHEOLIBJ@iparam2?$AA@ 0044b0bc     PlayerCreator.obj
 0002:000010c4       ??_C@_07PMGDOLNK@iparam1?$AA@ 0044b0c4     PlayerCreator.obj
 0002:000010cc       ??_C@_06LBCHNLFL@ilocal?$AA@ 0044b0cc     PlayerCreator.obj
 0002:000010d4       ??_C@_02LJEFBEPN@iy?$AA@   0044b0d4     PlayerCreator.obj
 0002:000010d8       ??_C@_02KAFOCFLM@ix?$AA@   0044b0d8     PlayerCreator.obj
 0002:000010dc       ??_C@_07FPPCOHIB@iseries?$AA@ 0044b0dc     PlayerCreator.obj
 0002:000010e4       ??_C@_06JLFJMMIL@ilevel?$AA@ 0044b0e4     PlayerCreator.obj
 0002:000010ec       ??_C@_0BA@MBIGBNE@iparticulartype?$AA@ 0044b0ec     PlayerCreator.obj
 0002:000010fc       ??_C@_0M@GABKOPMH@idetailtype?$AA@ 0044b0fc     PlayerCreator.obj
 0002:00001108       ??_C@_0BA@DLNGJLLM@iequipclasscode?$AA@ 0044b108     PlayerCreator.obj
 0002:00001118       ??_C@_04BLNHNEEM@ITEM?$AA@ 0044b118     PlayerCreator.obj
 0002:00001120       ??_C@_05OOOHNEPI@ITEMS?$AA@ 0044b120     PlayerCreator.obj
 0002:00001128       ??_C@_07PPHKFJDP@LSKILLS?$AA@ 0044b128     PlayerCreator.obj
 0002:00001130       ??_C@_01OCOKONAJ@L?$AA@    0044b130     PlayerCreator.obj
 0002:00001134       ??_C@_04HGGBINEM@?$CFs?$CFd?$AA@ 0044b134     PlayerCreator.obj
 0002:0000113c       ??_C@_07GOLKEFPH@FSKILLS?$AA@ 0044b13c     PlayerCreator.obj
 0002:00001144       ??_C@_05EFFCCOAM@COUNT?$AA@ 0044b144     PlayerCreator.obj
 0002:0000114c       ??_C@_09JNKCDDMO@irevivaly?$AA@ 0044b14c     PlayerCreator.obj
 0002:00001158       ??_C@_09IELJACIP@irevivalx?$AA@ 0044b158     PlayerCreator.obj
 0002:00001164       ??_C@_0L@GBPGEAFH@irevivalid?$AA@ 0044b164     PlayerCreator.obj
 0002:00001170       ??_C@_09NOHIOFJI@imaxinner?$AA@ 0044b170     PlayerCreator.obj
 0002:0000117c       ??_C@_0M@DPLMLDLI@imaxstamina?$AA@ 0044b17c     PlayerCreator.obj
 0002:00001188       ??_C@_08CGFEKLIM@imaxlife?$AA@ 0044b188     PlayerCreator.obj
 0002:00001194       ??_C@_04KFPNJII@bsex?$AA@  0044b194     PlayerCreator.obj
 0002:0000119c       ??_C@_05PICKPFAN@iteam?$AA@ 0044b19c     PlayerCreator.obj
 0002:000011a4       ??_C@_09FCILPNEG@ifiveprop?$AA@ 0044b1a4     PlayerCreator.obj
 0002:000011b0       ??_C@_0L@JOCGABNL@isavemoney?$AA@ 0044b1b0     PlayerCreator.obj
 0002:000011bc       ??_C@_06LIKNJOOL@imoney?$AA@ 0044b1bc     PlayerCreator.obj
 0002:000011c4       ??_C@_0L@COCKCHFE@ijoincount?$AA@ 0044b1c4     PlayerCreator.obj
 0002:000011d0       ??_C@_0L@IDNGOCEP@ifirstsect?$AA@ 0044b1d0     PlayerCreator.obj
 0002:000011dc       ??_C@_05NCIOFEGL@isect?$AA@ 0044b1dc     PlayerCreator.obj
 0002:000011e4       ??_C@_08GBMDEAEF@ileadexp?$AA@ 0044b1e4     PlayerCreator.obj
 0002:000011f0       ??_C@_0L@OGJCOLFE@ileadlevel?$AA@ 0044b1f0     PlayerCreator.obj
 0002:000011fc       ??_C@_0M@GAINFKKP@ifightlevel?$AA@ 0044b1fc     PlayerCreator.obj
 0002:00001208       ??_C@_09OJLAFPB@ifightexp?$AA@ 0044b208     PlayerCreator.obj
 0002:00001214       ??_C@_05KNHNANDJ@iluck?$AA@ 0044b214     PlayerCreator.obj
 0002:0000121c       ??_C@_07NGKBCCJC@iinside?$AA@ 0044b21c     PlayerCreator.obj
 0002:00001224       ??_C@_06DGFNOPD@iouter?$AA@ 0044b224     PlayerCreator.obj
 0002:0000122c       ??_C@_08CDHEHAIE@iagility?$AA@ 0044b22c     PlayerCreator.obj
 0002:00001238       ??_C@_06MJAAEOHA@ipower?$AA@ 0044b238     PlayerCreator.obj
 0002:00001240       ??_C@_0L@INIEILBE@ileftfight?$AA@ 0044b240     PlayerCreator.obj
 0002:0000124c       ??_C@_04EMPHBDMG@ROLE?$AA@ 0044b24c     PlayerCreator.obj
 0002:00001254       ??_C@_09DPFOCPGH@ileftprop?$AA@ 0044b254     PlayerCreator.obj
 0002:00001260       ??_C@_0P@JIHKLBHC@RevivalId?$CF2?42d?$AA@ 0044b260     PlayerCreator.obj
 0002:00001270       ??_C@_05IJGIMMHE@Count?$AA@ 0044b270     PlayerCreator.obj
 0002:00001278       ??_C@_0BO@KKHIFNLL@settings?2player?2revivalid?4ini?$AA@ 0044b278     PlayerCreator.obj
 0002:00001298       ??_C@_0CF@DIHDBDKO@settings?2player?2newplayerini?$CF02d@ 0044b298     PlayerCreator.obj
 0002:000012e0       ??_C@_0BA@INMFFGLD@GetAdaptersInfo?$AA@ 0044b2e0     SmartClient.obj
 0002:000012f0       ??_C@_0N@BBCKHBCL@iphlpapi?4dll?$AA@ 0044b2f0     SmartClient.obj
 0002:00001304       ??_7CSmartClient@@6B@      0044b304     SmartClient.obj
 0002:00001308       ??_C@_0BD@FPLJNOCF@CSmartClient?5class?$AA@ 0044b308     SmartClient.obj
 0002:00001320       ??_7CMutex@Win32@OnlineGameLib@@6B@ 0044b320     common:Mutex.obj
 0002:00001324       ??_C@_0BB@KHLJLKDJ@hMutex?3?3Create?$CI?$CJ?$AA@ 0044b324     common:Mutex.obj
 0002:00001338       ??_C@_0CF@LGPOJCJB@CMutex?3?3Wait?$CI?$CJ?5?9?5WaitForSingleOb@ 0044b338     common:Mutex.obj
 0002:00001360       ??_C@_0P@MJMMEEMH@CMutex?3?3Wait?$CI?$CJ?$AA@ 0044b360     common:Mutex.obj
 0002:000013b4       ??_7Allocator@CBuffer@Win32@OnlineGameLib@@6B@ 0044b3b4     common:Buffer.obj
 0002:000013c4       ??_C@_0BB@KEONPNEL@CBuffer?3?3AddData?$AA@ 0044b3c4     common:Buffer.obj
 0002:000013d8       ??_C@_0BL@LAEGIPOC@Not?5enough?5space?5in?5buffer?$AA@ 0044b3d8     common:Buffer.obj
 0002:000013f4       ??_C@_0BP@DAOIPELN@CBuffer?3?3Allocator?3?3Allocate?$CI?$CJ?$AA@ 0044b3f4     common:Buffer.obj
 0002:00001414       ??_C@_0O@NALGGDJF@Out?5of?5memory?$AA@ 0044b414     common:Buffer.obj
 0002:00001424       ??_C@_0BO@FOHGFLM@CBuffer?3?3Allocator?3?3Release?$CI?$CJ?$AA@ 0044b424     common:Buffer.obj
 0002:00001444       ??_C@_0BA@BPMKMKBN@pBuffer?5is?5null?$AA@ 0044b444     common:Buffer.obj
 0002:00001454       ??_C@_0BD@POBGHIED@CBuffer?3?3Release?$CI?$CJ?$AA@ 0044b454     common:Buffer.obj
 0002:00001468       ??_C@_0BG@LJGOFAJE@m_ref?5is?5already?5zero?$AA@ 0044b468     common:Buffer.obj
 0002:00001484       ??_7CPackager@Win32@OnlineGameLib@@6B@ 0044b484     common:Buffer.obj
 0002:000014a8       ??_C@_0M@CDHNGIPM@?$CFu?4?$CFu?4?$CFu?4?$CFu?$AA@ 0044b4a8     common:Utils.obj
 0002:000014b8       ??_7?$basic_filebuf@DU?$char_traits@D@std@@@std@@6B@ 0044b4b8     common:Utils.obj
 0002:000014f4       ??_7codecvt_base@std@@6B@  0044b4f4     common:Utils.obj
 0002:00001504       ??_C@_0BG@FEDMODFP@GetCurrentDirectory?$CI?$CJ?$AA@ 0044b504     common:Utils.obj
 0002:0000151c       ??_C@_0CA@EKPOOGMI@Failed?5to?5get?5current?5directory?$AA@ 0044b51c     common:Utils.obj
 0002:0000153c       ??_C@_0N@NMLPILGG@?$CF02d?$CF02d?$CF02d?$AA@ 0044b53c     common:Utils.obj
 0002:0000154c       ??_C@_0P@PLMNPDMB@?$CF02d?3?$CF02d?3?$CF02d?$AA@ 0044b54c     common:Utils.obj
 0002:0000155c       ??_C@_04JFFKLGJF@?$CF02X?$AA@ 0044b55c     common:Utils.obj
 0002:00001564       ??_C@_01EEMJAFIK@?6?$AA@   0044b564     common:Utils.obj
 0002:00001568       ??_C@_03NLJIHOMM@?5?9?5?$AA@ 0044b568     common:Utils.obj
 0002:0000156c       ??_C@_03NDEAONJP@?5?5?5?$AA@ 0044b56c     common:Utils.obj
 0002:00001570       ??_C@_01CLKCMJKC@?5?$AA@   0044b570     common:Utils.obj
 0002:00001574       ??_C@_0M@DIMCGEGC@UNAVAILABLE?$AA@ 0044b574     common:Utils.obj
 0002:00001580       ??_C@_0CF@HNBACNBO@?2StringFileInfo?2?$CF04x?$CF04x?2FileVer@ 0044b580     common:Utils.obj
 0002:000015a8       ??_C@_0BJ@KPNNKBCP@?2VarFileInfo?2Translation?$AA@ 0044b5a8     common:Utils.obj
 0002:000015c8       ??_7?$codecvt@DDH@std@@6B@ 0044b5c8     common:Utils.obj
 0002:000015ec       ??_7?$basic_fstream@DU?$char_traits@D@std@@@std@@6B@ 0044b5ec     common:Utils.obj
 0002:000015f0       ??_8?$basic_fstream@DU?$char_traits@D@std@@@std@@7B?$basic_ostream@DU?$char_traits@D@std@@@1@@ 0044b5f0     common:Utils.obj
 0002:000015f8       ??_8?$basic_fstream@DU?$char_traits@D@std@@@std@@7B?$basic_istream@DU?$char_traits@D@std@@@1@@ 0044b5f8     common:Utils.obj
 0002:00001600       ??_C@_0M@JLHFKIMF@?2common?4log?$AA@ 0044b600     common:Utils.obj
 0002:00001610       ??_7CLibrary@Win32@OnlineGameLib@@6B@ 0044b610     common:Library.obj
 0002:00001634       ??_C@_02DPKJAMEF@?$CFd?$AA@ 0044b634     common:IniFile.obj
 0002:00001638       ??_C@_05JAPKICOH@?$CF8?48X?$AA@ 0044b638     common:IniFile.obj
 0002:00001644       ??_7invalid_argument@std@@6B@ 0044b644     libcpmt:string.obj
 0002:0000164c       ??_C@_0BA@JFNIOLAK@string?5too?5long?$AA@ 0044b64c     libcpmt:string.obj
 0002:0000165c       ??_C@_0BI@CFPLBAOH@invalid?5string?5position?$AA@ 0044b65c     libcpmt:string.obj
 0002:00001674       ??_C@_0BI@ILCMCLF@invalid?5string?5argument?$AA@ 0044b674     libcpmt:string.obj
 0002:00001690       ??_7_Locimp@locale@std@@6B@ 0044b690     libcpmt:locale0.obj
 0002:00001694       ??_C@_01NBENCBCI@?$CK?$AA@ 0044b694     libcpmt:locale0.obj
 0002:00001698       ?_BADOFF@std@@3JB          0044b698     libcpmt:ios.obj
 0002:000016a0       ??_7exception@std@@6B@     0044b6a0     LIBCMT:stdexcpt.obj
 0002:000016a8       ??_C@_0BC@EOODALEL@Unknown?5exception?$AA@ 0044b6a8     LIBCMT:stdexcpt.obj
 0002:000016c0       ??_7bad_cast@std@@6B@      0044b6c0     LIBCMT:stdexcpt.obj
 0002:000016cc       ??_7bad_typeid@std@@6B@    0044b6cc     LIBCMT:stdexcpt.obj
 0002:000016d8       ??_7__non_rtti_object@std@@6B@ 0044b6d8     LIBCMT:stdexcpt.obj
 0002:000016e4       ??_7type_info@@6B@         0044b6e4     LIBCMT:typinfo.obj
 0002:00001708       ?ProcessDetach@NativeDll@<CrtImplementationDetails>@@0IB 0044b708     LIBCMT:trnsctrl.obj
 0002:0000170c       ?ProcessAttach@NativeDll@<CrtImplementationDetails>@@0IB 0044b70c     LIBCMT:trnsctrl.obj
 0002:00001710       ?ThreadAttach@NativeDll@<CrtImplementationDetails>@@0IB 0044b710     LIBCMT:trnsctrl.obj
 0002:00001714       ?ThreadDetach@NativeDll@<CrtImplementationDetails>@@0IB 0044b714     LIBCMT:trnsctrl.obj
 0002:00001718       ?ProcessVerifier@NativeDll@<CrtImplementationDetails>@@0IB 0044b718     LIBCMT:trnsctrl.obj
 0002:0000171c       __FPinit                   0044b71c     LIBCMT:fpinit.obj
 0002:00001720       __FPmtinit                 0044b720     LIBCMT:fpinit.obj
 0002:00001724       __FPmtterm                 0044b724     LIBCMT:fpinit.obj
 0002:00001728       ??_C@_13NOLLCAOD@?$AA?$AA?$AA?$AA@ 0044b728     LIBCMT:a_map.obj
 0002:00001730       ___newctype                0044b730     LIBCMT:ctype.obj
 0002:00001a30       __wctype                   0044ba30     LIBCMT:ctype.obj
 0002:00001c38       ___newclmap                0044bc38     LIBCMT:ctype.obj
 0002:00001db8       ___newcumap                0044bdb8     LIBCMT:ctype.obj
 0002:00001f38       ??_C@_07LCBHPJJN@LC_TIME?$AA@ 0044bf38     LIBCMT:setlocal.obj
 0002:00001f40       ??_C@_0L@DLHIECNL@LC_NUMERIC?$AA@ 0044bf40     LIBCMT:setlocal.obj
 0002:00001f4c       ??_C@_0M@MIENIKLA@LC_MONETARY?$AA@ 0044bf4c     LIBCMT:setlocal.obj
 0002:00001f58       ??_C@_08EADHIDAD@LC_CTYPE?$AA@ 0044bf58     LIBCMT:setlocal.obj
 0002:00001f64       ??_C@_0L@KFJHEKIK@LC_COLLATE?$AA@ 0044bf64     LIBCMT:setlocal.obj
 0002:00001f70       ??_C@_06NEFDFEKB@LC_ALL?$AA@ 0044bf70     LIBCMT:setlocal.obj
 0002:00001f78       ___lc_category             0044bf78     LIBCMT:setlocal.obj
 0002:00002040       ??_C@_03EGDHDPFD@_?4?0?$AA@ 0044c040     LIBCMT:setlocal.obj
 0002:00002044       ??_C@_01LFCBOECM@?4?$AA@   0044c044     LIBCMT:setlocal.obj
 0002:00002048       ??_C@_01IDAFKMJL@_?$AA@    0044c048     LIBCMT:setlocal.obj
 0002:0000204c       ??_C@_01ICJEACDI@?$DL?$AA@ 0044c04c     LIBCMT:setlocal.obj
 0002:00002050       ??_C@_01NEMOKFLO@?$DN?$AA@ 0044c050     LIBCMT:setlocal.obj
 0002:00002054       ??_C@_02BALPLPBG@?$DN?$DL?$AA@ 0044c054     LIBCMT:setlocal.obj
 0002:00002058       __pDestructExceptionObject 0044c058     LIBCMT:frame.obj
 0002:00002060       ??_7bad_exception@std@@6B@ 0044c060     LIBCMT:frame.obj
 0002:00002068       ??_C@_0O@DPKOEFFH@bad?5exception?$AA@ 0044c068     LIBCMT:frame.obj
 0002:00002080       ??_C@_07EPKMNAGK@?4mixcrt?$AA@ 0044c080     LIBCMT:tidtable.obj
 0002:00002088       ??_C@_0O@NLDKAIKN@EncodePointer?$AA@ 0044c088     LIBCMT:tidtable.obj
 0002:00002098       ??_C@_0N@NHGLKGEC@KERNEL32?4DLL?$AA@ 0044c098     LIBCMT:tidtable.obj
 0002:000020a8       ??_C@_0O@KBPMFGHI@DecodePointer?$AA@ 0044c0a8     LIBCMT:tidtable.obj
 0002:000020b8       ??_C@_07PEJMOBNF@FlsFree?$AA@ 0044c0b8     LIBCMT:tidtable.obj
 0002:000020c0       ??_C@_0M@JCPCPOEF@FlsSetValue?$AA@ 0044c0c0     LIBCMT:tidtable.obj
 0002:000020cc       ??_C@_0M@GDNOONDI@FlsGetValue?$AA@ 0044c0cc     LIBCMT:tidtable.obj
 0002:000020d8       ??_C@_08KNHFBNJ@FlsAlloc?$AA@ 0044c0d8     LIBCMT:tidtable.obj
 0002:000020e4       ??_C@_1O@CEDCILHN@?$AA?$CI?$AAn?$AAu?$AAl?$AAl?$AA?$CJ?$AA?$AA@ 0044c0e4     LIBCMT:output.obj
 0002:000020f4       ??_C@_06OJHGLDPL@?$CInull?$CJ?$AA@ 0044c0f4     LIBCMT:output.obj
 0002:00002100       ___lookuptable             0044c100     LIBCMT:output.obj
 0002:0000215c       ??_C@_0P@MIGLKIOC@CorExitProcess?$AA@ 0044c15c     LIBCMT:crt0dat.obj
 0002:0000216c       ??_C@_0M@MBOPBNBK@mscoree?4dll?$AA@ 0044c16c     LIBCMT:crt0dat.obj
 0002:00002178       ??_C@_0P@GGKDKEEG@runtime?5error?5?$AA@ 0044c178     LIBCMT:crt0msg.obj
 0002:00002188       ??_C@_02PCIJFNDE@?$AN?6?$AA@ 0044c188     LIBCMT:crt0msg.obj
 0002:0000218c       ??_C@_0O@MJNIPGOH@TLOSS?5error?$AN?6?$AA@ 0044c18c     LIBCMT:crt0msg.obj
 0002:0000219c       ??_C@_0N@BONNPDHF@SING?5error?$AN?6?$AA@ 0044c19c     LIBCMT:crt0msg.obj
 0002:000021ac       ??_C@_0P@MBDAJNE@DOMAIN?5error?$AN?6?$AA@ 0044c1ac     LIBCMT:crt0msg.obj
 0002:000021c0       ??_C@_0JL@DFDOOABL@R6034?$AN?6An?5application?5has?5made?5a@ 0044c1c0     LIBCMT:crt0msg.obj
 0002:00002260       ??_C@_0PH@EPAFIJ@R6033?$AN?6?9?5Attempt?5to?5use?5MSIL?5cod@ 0044c260     LIBCMT:crt0msg.obj
 0002:00002358       ??_C@_0DD@BKEEABMM@R6032?$AN?6?9?5not?5enough?5space?5for?5lo@ 0044c358     LIBCMT:crt0msg.obj
 0002:00002390       ??_C@_0GD@OFKILIED@R6031?$AN?6?9?5Attempt?5to?5initialize?5t@ 0044c390     LIBCMT:crt0msg.obj
 0002:000023f4       ??_C@_0BP@LPMHJOKI@R6030?$AN?6?9?5CRT?5not?5initialized?$AN?6?$AA@ 0044c3f4     LIBCMT:crt0msg.obj
 0002:00002414       ??_C@_0CF@KJDAIALP@R6028?$AN?6?9?5unable?5to?5initialize?5he@ 0044c414     LIBCMT:crt0msg.obj
 0002:0000243c       ??_C@_0DF@GAKBPDFP@R6027?$AN?6?9?5not?5enough?5space?5for?5lo@ 0044c43c     LIBCMT:crt0msg.obj
 0002:00002474       ??_C@_0DF@IBLNNAIG@R6026?$AN?6?9?5not?5enough?5space?5for?5st@ 0044c474     LIBCMT:crt0msg.obj
 0002:000024ac       ??_C@_0CG@IOHKGFNJ@R6025?$AN?6?9?5pure?5virtual?5function?5c@ 0044c4ac     LIBCMT:crt0msg.obj
 0002:000024d4       ??_C@_0DF@JIJJFJDC@R6024?$AN?6?9?5not?5enough?5space?5for?5_o@ 0044c4d4     LIBCMT:crt0msg.obj
 0002:0000250c       ??_C@_0CJ@EGEJHFME@R6019?$AN?6?9?5unable?5to?5open?5console?5@ 0044c50c     LIBCMT:crt0msg.obj
 0002:00002538       ??_C@_0CB@GNHNIELH@R6018?$AN?6?9?5unexpected?5heap?5error?$AN?6@ 0044c538     LIBCMT:crt0msg.obj
 0002:0000255c       ??_C@_0CN@FOLDKNG@R6017?$AN?6?9?5unexpected?5multithread?5@ 0044c55c     LIBCMT:crt0msg.obj
 0002:0000258c       ??_C@_0CM@FAHFJNHO@R6016?$AN?6?9?5not?5enough?5space?5for?5th@ 0044c58c     LIBCMT:crt0msg.obj
 0002:000025b8       ??_C@_0JG@LBKMGKLD@?$AN?6This?5application?5has?5requested@ 0044c5b8     LIBCMT:crt0msg.obj
 0002:00002650       ??_C@_0CM@FLCNIPKK@R6009?$AN?6?9?5not?5enough?5space?5for?5en@ 0044c650     LIBCMT:crt0msg.obj
 0002:0000267c       ??_C@_0CK@KMMJOAPP@R6008?$AN?6?9?5not?5enough?5space?5for?5ar@ 0044c67c     LIBCMT:crt0msg.obj
 0002:000026a8       ??_C@_0CN@LEKKICBM@R6002?$AN?6?9?5floating?5point?5support?5@ 0044c6a8     LIBCMT:crt0msg.obj
 0002:000026d8       ??_C@_0CF@GOGNBNAK@Microsoft?5Visual?5C?$CL?$CL?5Runtime?5Lib@ 0044c6d8     LIBCMT:crt0msg.obj
 0002:00002700       ??_C@_02PHMGELLB@?6?6?$AA@ 0044c700     LIBCMT:crt0msg.obj
 0002:00002704       ??_C@_03KHICJKCI@?4?4?4?$AA@ 0044c704     LIBCMT:crt0msg.obj
 0002:00002708       ??_C@_0BH@DNAGHKFM@?$DMprogram?5name?5unknown?$DO?$AA@ 0044c708     LIBCMT:crt0msg.obj
 0002:00002720       ??_C@_0BK@OFGJDLJJ@Runtime?5Error?$CB?6?6Program?3?5?$AA@ 0044c720     LIBCMT:crt0msg.obj
 0002:0000273c       ??_C@_05KLBDPFGC@e?$CL000?$AA@ 0044c73c     LIBCMT:cvt.obj
 0002:00002748       __real@3ff0000000000000    0044c748     LIBCMT:testfdiv.obj
 0002:00002750       __real@4150017ec0000000    0044c750     LIBCMT:testfdiv.obj
 0002:00002758       __real@4147ffff80000000    0044c758     LIBCMT:testfdiv.obj
 0002:00002760       ??_C@_0BK@NHEOCAHP@IsProcessorFeaturePresent?$AA@ 0044c760     LIBCMT:testfdiv.obj
 0002:0000277c       ??_C@_08CPNIBGIE@KERNEL32?$AA@ 0044c77c     LIBCMT:testfdiv.obj
 0002:00002788       ??_C@_08JCCMCCIL@HH?3mm?3ss?$AA@ 0044c788     LIBCMT:strftime.obj
 0002:00002794       ??_C@_0BE@CKGJFCPC@dddd?0?5MMMM?5dd?0?5yyyy?$AA@ 0044c794     LIBCMT:strftime.obj
 0002:000027a8       ??_C@_08BPBNCDIB@MM?1dd?1yy?$AA@ 0044c7a8     LIBCMT:strftime.obj
 0002:000027b4       ??_C@_02CJNFDJBF@PM?$AA@   0044c7b4     LIBCMT:strftime.obj
 0002:000027b8       ??_C@_02DEDBPAFC@AM?$AA@   0044c7b8     LIBCMT:strftime.obj
 0002:000027bc       ??_C@_08EDHMEBNP@December?$AA@ 0044c7bc     LIBCMT:strftime.obj
 0002:000027c8       ??_C@_08HCHEGEOA@November?$AA@ 0044c7c8     LIBCMT:strftime.obj
 0002:000027d4       ??_C@_07JJNFCEND@October?$AA@ 0044c7d4     LIBCMT:strftime.obj
 0002:000027dc       ??_C@_09BHHEALKD@September?$AA@ 0044c7dc     LIBCMT:strftime.obj
 0002:000027e8       ??_C@_06LBBHFDDG@August?$AA@ 0044c7e8     LIBCMT:strftime.obj
 0002:000027f0       ??_C@_04MIEPOIFP@July?$AA@ 0044c7f0     LIBCMT:strftime.obj
 0002:000027f8       ??_C@_04CNLMGBGM@June?$AA@ 0044c7f8     LIBCMT:strftime.obj
 0002:00002800       ??_C@_05DMJDNLEJ@April?$AA@ 0044c800     LIBCMT:strftime.obj
 0002:00002808       ??_C@_05HPCKOFNC@March?$AA@ 0044c808     LIBCMT:strftime.obj
 0002:00002810       ??_C@_08GNJGEPFN@February?$AA@ 0044c810     LIBCMT:strftime.obj
 0002:0000281c       ??_C@_07CGJPFGJA@January?$AA@ 0044c81c     LIBCMT:strftime.obj
 0002:00002824       ??_C@_03MKABNOCG@Dec?$AA@  0044c824     LIBCMT:strftime.obj
 0002:00002828       ??_C@_03JPJOFNIA@Nov?$AA@  0044c828     LIBCMT:strftime.obj
 0002:0000282c       ??_C@_03BMAOKBAD@Oct?$AA@  0044c82c     LIBCMT:strftime.obj
 0002:00002830       ??_C@_03GGCAPAJC@Sep?$AA@  0044c830     LIBCMT:strftime.obj
 0002:00002834       ??_C@_03IFJFEIGA@Aug?$AA@  0044c834     LIBCMT:strftime.obj
 0002:00002838       ??_C@_03LBGABGKK@Jul?$AA@  0044c838     LIBCMT:strftime.obj
 0002:0000283c       ??_C@_03IDFGHECI@Jun?$AA@  0044c83c     LIBCMT:strftime.obj
 0002:00002840       ??_C@_03CNMDKL@May?$AA@    0044c840     LIBCMT:strftime.obj
 0002:00002844       ??_C@_03LEOLGMJP@Apr?$AA@  0044c844     LIBCMT:strftime.obj
 0002:00002848       ??_C@_03ODNJBKGA@Mar?$AA@  0044c848     LIBCMT:strftime.obj
 0002:0000284c       ??_C@_03HJBDCHOM@Feb?$AA@  0044c84c     LIBCMT:strftime.obj
 0002:00002850       ??_C@_03JIHJHPIE@Jan?$AA@  0044c850     LIBCMT:strftime.obj
 0002:00002854       ??_C@_08INBOOONO@Saturday?$AA@ 0044c854     LIBCMT:strftime.obj
 0002:00002860       ??_C@_06JECMNKMI@Friday?$AA@ 0044c860     LIBCMT:strftime.obj
 0002:00002868       ??_C@_08HACCIKIA@Thursday?$AA@ 0044c868     LIBCMT:strftime.obj
 0002:00002874       ??_C@_09DLIGFAKA@Wednesday?$AA@ 0044c874     LIBCMT:strftime.obj
 0002:00002880       ??_C@_07BAAGCFCM@Tuesday?$AA@ 0044c880     LIBCMT:strftime.obj
 0002:00002888       ??_C@_06JLEDEDGH@Monday?$AA@ 0044c888     LIBCMT:strftime.obj
 0002:00002890       ??_C@_06OOPIFAJ@Sunday?$AA@ 0044c890     LIBCMT:strftime.obj
 0002:00002898       ??_C@_03FEFJNEK@Sat?$AA@   0044c898     LIBCMT:strftime.obj
 0002:0000289c       ??_C@_03IDIOELNC@Fri?$AA@  0044c89c     LIBCMT:strftime.obj
 0002:000028a0       ??_C@_03IOFIKPDN@Thu?$AA@  0044c8a0     LIBCMT:strftime.obj
 0002:000028a4       ??_C@_03MHOMLAJA@Wed?$AA@  0044c8a4     LIBCMT:strftime.obj
 0002:000028a8       ??_C@_03NAGEINEP@Tue?$AA@  0044c8a8     LIBCMT:strftime.obj
 0002:000028ac       ??_C@_03PDAGKDH@Mon?$AA@   0044c8ac     LIBCMT:strftime.obj
 0002:000028b0       ??_C@_03KOEHGMDN@Sun?$AA@  0044c8b0     LIBCMT:strftime.obj
 0002:000028b4       ??_C@_03EBAPMIKO@a?1p?$AA@ 0044c8b4     LIBCMT:strftime.obj
 0002:000028b8       ??_C@_05JAMEPDIN@am?1pm?$AA@ 0044c8b8     LIBCMT:strftime.obj
 0002:000028c0       ??_C@_0O@FMJNFNKE@united?9states?$AA@ 0044c8c0     LIBCMT:getqloc.obj
 0002:000028d0       ??_C@_0P@NDHFFKCA@united?9kingdom?$AA@ 0044c8d0     LIBCMT:getqloc.obj
 0002:000028e0       ??_C@_0BC@HHDADLGF@trinidad?5?$CG?5tobago?$AA@ 0044c8e0     LIBCMT:getqloc.obj
 0002:000028f4       ??_C@_0M@IOAEBDAC@south?9korea?$AA@ 0044c8f4     LIBCMT:getqloc.obj
 0002:00002900       ??_C@_0N@FIELFKIJ@south?9africa?$AA@ 0044c900     LIBCMT:getqloc.obj
 0002:00002910       ??_C@_0M@OPNDHCMC@south?5korea?$AA@ 0044c910     LIBCMT:getqloc.obj
 0002:0000291c       ??_C@_0N@MDEOEPFI@south?5africa?$AA@ 0044c91c     LIBCMT:getqloc.obj
 0002:0000292c       ??_C@_06FKAPCJLB@slovak?$AA@ 0044c92c     LIBCMT:getqloc.obj
 0002:00002934       ??_C@_0M@EFJANOAL@puerto?9rico?$AA@ 0044c934     LIBCMT:getqloc.obj
 0002:00002940       ??_C@_08PGOJKDAI@pr?9china?$AA@ 0044c940     LIBCMT:getqloc.obj
 0002:0000294c       ??_C@_08JHDOMCMI@pr?5china?$AA@ 0044c94c     LIBCMT:getqloc.obj
 0002:00002958       ??_C@_02JHCHFBLL@nz?$AA@   0044c958     LIBCMT:getqloc.obj
 0002:0000295c       ??_C@_0M@LINHDHKP@new?9zealand?$AA@ 0044c95c     LIBCMT:getqloc.obj
 0002:00002968       ??_C@_09IIIPPBDB@hong?9kong?$AA@ 0044c968     LIBCMT:getqloc.obj
 0002:00002974       ??_C@_07HJLCKBG@holland?$AA@ 0044c974     LIBCMT:getqloc.obj
 0002:0000297c       ??_C@_0O@LEHGMHAG@great?5britain?$AA@ 0044c97c     LIBCMT:getqloc.obj
 0002:0000298c       ??_C@_07FACOMELA@england?$AA@ 0044c98c     LIBCMT:getqloc.obj
 0002:00002994       ??_C@_05JIHCEICB@czech?$AA@ 0044c994     LIBCMT:getqloc.obj
 0002:0000299c       ??_C@_05BBJOBLGB@china?$AA@ 0044c99c     LIBCMT:getqloc.obj
 0002:000029a4       ??_C@_07GPKPHICP@britain?$AA@ 0044c9a4     LIBCMT:getqloc.obj
 0002:000029ac       ??_C@_07MHIPBHMG@america?$AA@ 0044c9ac     LIBCMT:getqloc.obj
 0002:000029b4       ??_C@_03KIALPMKC@usa?$AA@  0044c9b4     LIBCMT:getqloc.obj
 0002:000029b8       ??_C@_02FGJGKGGD@us?$AA@   0044c9b8     LIBCMT:getqloc.obj
 0002:000029bc       ??_C@_02NEINDODK@uk?$AA@   0044c9bc     LIBCMT:getqloc.obj
 0002:000029c0       ??_C@_05JMPCFJFJ@swiss?$AA@ 0044c9c0     LIBCMT:getqloc.obj
 0002:000029c8       ??_C@_0BA@HLOCPIOD@swedish?9finland?$AA@ 0044c9c8     LIBCMT:getqloc.obj
 0002:000029d8       ??_C@_0BC@PKCNIABK@spanish?9venezuela?$AA@ 0044c9d8     LIBCMT:getqloc.obj
 0002:000029ec       ??_C@_0BA@GBHHMIJI@spanish?9uruguay?$AA@ 0044c9ec     LIBCMT:getqloc.obj
 0002:000029fc       ??_C@_0BE@BHDOHPMC@spanish?9puerto?5rico?$AA@ 0044c9fc     LIBCMT:getqloc.obj
 0002:00002a10       ??_C@_0N@KMOIDGGN@spanish?9peru?$AA@ 0044ca10     LIBCMT:getqloc.obj
 0002:00002a20       ??_C@_0BB@HMHLPGPH@spanish?9paraguay?$AA@ 0044ca20     LIBCMT:getqloc.obj
 0002:00002a34       ??_C@_0P@MCPKNGFD@spanish?9panama?$AA@ 0044ca34     LIBCMT:getqloc.obj
 0002:00002a44       ??_C@_0BC@IHOHGAIL@spanish?9nicaragua?$AA@ 0044ca44     LIBCMT:getqloc.obj
 0002:00002a58       ??_C@_0P@KLMJDNFJ@spanish?9modern?$AA@ 0044ca58     LIBCMT:getqloc.obj
 0002:00002a68       ??_C@_0BA@BPAPGBCM@spanish?9mexican?$AA@ 0044ca68     LIBCMT:getqloc.obj
 0002:00002a78       ??_C@_0BB@PDECHHHE@spanish?9honduras?$AA@ 0044ca78     LIBCMT:getqloc.obj
 0002:00002a8c       ??_C@_0BC@KLHKFGDB@spanish?9guatemala?$AA@ 0044ca8c     LIBCMT:getqloc.obj
 0002:00002aa0       ??_C@_0BE@MFOOKJAI@spanish?9el?5salvador?$AA@ 0044caa0     LIBCMT:getqloc.obj
 0002:00002ab4       ??_C@_0BA@FCOKFPFC@spanish?9ecuador?$AA@ 0044cab4     LIBCMT:getqloc.obj
 0002:00002ac4       ??_C@_0BL@PLMGIMOO@spanish?9dominican?5republic?$AA@ 0044cac4     LIBCMT:getqloc.obj
 0002:00002ae0       ??_C@_0BD@HLGDNMHB@spanish?9costa?5rica?$AA@ 0044cae0     LIBCMT:getqloc.obj
 0002:00002af4       ??_C@_0BB@PKCBKCPE@spanish?9colombia?$AA@ 0044caf4     LIBCMT:getqloc.obj
 0002:00002b08       ??_C@_0O@MCBIJGNE@spanish?9chile?$AA@ 0044cb08     LIBCMT:getqloc.obj
 0002:00002b18       ??_C@_0BA@BEFEIGJJ@spanish?9bolivia?$AA@ 0044cb18     LIBCMT:getqloc.obj
 0002:00002b28       ??_C@_0BC@EMECMPD@spanish?9argentina?$AA@ 0044cb28     LIBCMT:getqloc.obj
 0002:00002b3c       ??_C@_0BF@EALFLENP@portuguese?9brazilian?$AA@ 0044cb3c     LIBCMT:getqloc.obj
 0002:00002b54       ??_C@_0BC@HBLEBLNN@norwegian?9nynorsk?$AA@ 0044cb54     LIBCMT:getqloc.obj
 0002:00002b68       ??_C@_0BB@HMACDDCK@norwegian?9bokmal?$AA@ 0044cb68     LIBCMT:getqloc.obj
 0002:00002b7c       ??_C@_09BAFFPPHE@norwegian?$AA@ 0044cb7c     LIBCMT:getqloc.obj
 0002:00002b88       ??_C@_0O@EAJFJDFG@italian?9swiss?$AA@ 0044cb88     LIBCMT:getqloc.obj
 0002:00002b98       ??_C@_0O@CNOMPGD@irish?9english?$AA@ 0044cb98     LIBCMT:getqloc.obj
 0002:00002ba8       ??_C@_0N@EDHBGCKG@german?9swiss?$AA@ 0044cba8     LIBCMT:getqloc.obj
 0002:00002bb8       ??_C@_0BC@JACMHNBP@german?9luxembourg?$AA@ 0044cbb8     LIBCMT:getqloc.obj
 0002:00002bcc       ??_C@_0BE@HBGMGFEG@german?9lichtenstein?$AA@ 0044cbcc     LIBCMT:getqloc.obj
 0002:00002be0       ??_C@_0BA@HKKBIBKL@german?9austrian?$AA@ 0044cbe0     LIBCMT:getqloc.obj
 0002:00002bf0       ??_C@_0N@GCAEPEBK@french?9swiss?$AA@ 0044cbf0     LIBCMT:getqloc.obj
 0002:00002c00       ??_C@_0BC@DJFJJCK@french?9luxembourg?$AA@ 0044cc00     LIBCMT:getqloc.obj
 0002:00002c14       ??_C@_0BA@NNCEDFIC@french?9canadian?$AA@ 0044cc14     LIBCMT:getqloc.obj
 0002:00002c24       ??_C@_0P@CMPOCLM@french?9belgian?$AA@ 0044cc24     LIBCMT:getqloc.obj
 0002:00002c34       ??_C@_0M@GHHDJOK@english?9usa?$AA@ 0044cc34     LIBCMT:getqloc.obj
 0002:00002c40       ??_C@_0L@PLDJKEIL@english?9us?$AA@ 0044cc40     LIBCMT:getqloc.obj
 0002:00002c4c       ??_C@_0L@HJCCDMNC@english?9uk?$AA@ 0044cc4c     LIBCMT:getqloc.obj
 0002:00002c58       ??_C@_0BK@CKLIAGJB@english?9trinidad?5y?5tobago?$AA@ 0044cc58     LIBCMT:getqloc.obj
 0002:00002c74       ??_C@_0BF@JMJMGNNF@english?9south?5africa?$AA@ 0044cc74     LIBCMT:getqloc.obj
 0002:00002c8c       ??_C@_0L@DKIIFDFD@english?9nz?$AA@ 0044cc8c     LIBCMT:getqloc.obj
 0002:00002c98       ??_C@_0BA@ONHGJCLH@english?9jamaica?$AA@ 0044cc98     LIBCMT:getqloc.obj
 0002:00002ca8       ??_C@_0M@HJBGHOPO@english?9ire?$AA@ 0044cca8     LIBCMT:getqloc.obj
 0002:00002cb4       ??_C@_0BC@LFEKMIFB@english?9caribbean?$AA@ 0044ccb4     LIBCMT:getqloc.obj
 0002:00002cc8       ??_C@_0M@OLDPFKHI@english?9can?$AA@ 0044ccc8     LIBCMT:getqloc.obj
 0002:00002cd4       ??_C@_0P@OMDEHBMP@english?9belize?$AA@ 0044ccd4     LIBCMT:getqloc.obj
 0002:00002ce4       ??_C@_0M@KFHFPFED@english?9aus?$AA@ 0044cce4     LIBCMT:getqloc.obj
 0002:00002cf0       ??_C@_0BB@MNMBKDFE@english?9american?$AA@ 0044ccf0     LIBCMT:getqloc.obj
 0002:00002d04       ??_C@_0O@KIDLNNBA@dutch?9belgian?$AA@ 0044cd04     LIBCMT:getqloc.obj
 0002:00002d14       ??_C@_0BE@JBKABBMH@chinese?9traditional?$AA@ 0044cd14     LIBCMT:getqloc.obj
 0002:00002d28       ??_C@_0BC@MJJMPKCG@chinese?9singapore?$AA@ 0044cd28     LIBCMT:getqloc.obj
 0002:00002d3c       ??_C@_0BD@FDKADDCP@chinese?9simplified?$AA@ 0044cd3c     LIBCMT:getqloc.obj
 0002:00002d50       ??_C@_0BB@DBEFDDME@chinese?9hongkong?$AA@ 0044cd50     LIBCMT:getqloc.obj
 0002:00002d64       ??_C@_07DHNMFMCI@chinese?$AA@ 0044cd64     LIBCMT:getqloc.obj
 0002:00002d6c       ??_C@_03FNDDCHI@chi?$AA@   0044cd6c     LIBCMT:getqloc.obj
 0002:00002d70       ??_C@_03BMMIADDJ@chh?$AA@  0044cd70     LIBCMT:getqloc.obj
 0002:00002d74       ??_C@_08OAIPJDGI@canadian?$AA@ 0044cd74     LIBCMT:getqloc.obj
 0002:00002d80       ??_C@_07HBPMNPNJ@belgian?$AA@ 0044cd80     LIBCMT:getqloc.obj
 0002:00002d88       ??_C@_0L@OEKOPBEL@australian?$AA@ 0044cd88     LIBCMT:getqloc.obj
 0002:00002d94       ??_C@_0BB@MEIMBEDG@american?9english?$AA@ 0044cd94     LIBCMT:getqloc.obj
 0002:00002da8       ??_C@_0BB@DFMDPDGB@american?5english?$AA@ 0044cda8     LIBCMT:getqloc.obj
 0002:00002dbc       ??_C@_08IJLOKOLL@american?$AA@ 0044cdbc     LIBCMT:getqloc.obj
 0002:00002dc8       ___rg_language             0044cdc8     LIBCMT:getqloc.obj
 0002:00002fd0       ___rg_country              0044cfd0     LIBCMT:getqloc.obj
 0002:00003088       ___rglangidNotDefault      0044d088     LIBCMT:getqloc.obj
 0002:0000309c       ??_C@_03NFKLAGEF@OCP?$AA@  0044d09c     LIBCMT:getqloc.obj
 0002:000030a0       ??_C@_03DFHEHBHG@ACP?$AA@  0044d0a0     LIBCMT:getqloc.obj
 0002:000030a4       ??_C@_0BC@NFIEMBLL@Norwegian?9Nynorsk?$AA@ 0044d0a4     LIBCMT:getqloc.obj
 0002:000030b8       ??_C@_0BK@CFCOFLF@?5Complete?5Object?5Locator?8?$AA@ 0044d0b8     LIBCMT:undname.obj
 0002:000030d4       ??_C@_0BN@MECKDCOJ@?5Class?5Hierarchy?5Descriptor?8?$AA@ 0044d0d4     LIBCMT:undname.obj
 0002:000030f4       ??_C@_0BD@LGICGFMM@?5Base?5Class?5Array?8?$AA@ 0044d0f4     LIBCMT:undname.obj
 0002:00003108       ??_C@_0BM@LDKODKLH@?5Base?5Class?5Descriptor?5at?5?$CI?$AA@ 0044d108     LIBCMT:undname.obj
 0002:00003124       ??_C@_0BC@DAFEJGAK@?5Type?5Descriptor?8?$AA@ 0044d124     LIBCMT:undname.obj
 0002:00003138       ??_C@_0BM@PMGGMLDN@?$GAlocal?5static?5thread?5guard?8?$AA@ 0044d138     LIBCMT:undname.obj
 0002:00003154       ??_C@_0CL@FGIJHLCE@?$GAmanaged?5vector?5copy?5constructor@ 0044d154     LIBCMT:undname.obj
 0002:00003180       ??_C@_0CJ@GJELGAMM@?$GAvector?5vbase?5copy?5constructor?5i@ 0044d180     LIBCMT:undname.obj
 0002:000031ac       ??_C@_0CD@CGAJBKEJ@?$GAvector?5copy?5constructor?5iterato@ 0044d1ac     LIBCMT:undname.obj
 0002:000031d0       ??_C@_0CB@PDBIFEP@?$GAdynamic?5atexit?5destructor?5for?5?8@ 0044d1d0     LIBCMT:undname.obj
 0002:000031f4       ??_C@_0BL@CLIPGLGB@?$GAdynamic?5initializer?5for?5?8?$AA@ 0044d1f4     LIBCMT:undname.obj
 0002:00003210       ??_C@_0CM@FCBBDIGB@?$GAeh?5vector?5vbase?5copy?5constructo@ 0044d210     LIBCMT:undname.obj
 0002:0000323c       ??_C@_0CG@HLDDJMAG@?$GAeh?5vector?5copy?5constructor?5iter@ 0044d23c     LIBCMT:undname.obj
 0002:00003264       ??_C@_0CF@IMGKMJNO@?$GAmanaged?5vector?5destructor?5itera@ 0044d264     LIBCMT:undname.obj
 0002:0000328c       ??_C@_0CG@CFDHKGGD@?$GAmanaged?5vector?5constructor?5iter@ 0044d28c     LIBCMT:undname.obj
 0002:000032b4       ??_C@_0BN@CKNJLHMB@?$GAplacement?5delete?$FL?$FN?5closure?8?$AA@ 0044d2b4     LIBCMT:undname.obj
 0002:000032d4       ??_C@_0BL@CNOONJFP@?$GAplacement?5delete?5closure?8?$AA@ 0044d2d4     LIBCMT:undname.obj
 0002:000032f0       ??_C@_0P@HJKNJFNN@?$GAomni?5callsig?8?$AA@ 0044d2f0     LIBCMT:undname.obj
 0002:00003300       ??_C@_09LBNFPBCA@?5delete?$FL?$FN?$AA@ 0044d300     LIBCMT:undname.obj
 0002:0000330c       ??_C@_06FHBGPFGH@?5new?$FL?$FN?$AA@ 0044d30c     LIBCMT:undname.obj
 0002:00003314       ??_C@_0CE@IIHCMGGL@?$GAlocal?5vftable?5constructor?5closu@ 0044d314     LIBCMT:undname.obj
 0002:00003338       ??_C@_0BA@KKLDJDLB@?$GAlocal?5vftable?8?$AA@ 0044d338     LIBCMT:undname.obj
 0002:00003348       ??_C@_05KHLCHHI@?$GARTTI?$AA@ 0044d348     LIBCMT:undname.obj
 0002:00003350       ??_C@_03KLGMFNMG@?$GAEH?$AA@ 0044d350     LIBCMT:undname.obj
 0002:00003354       ??_C@_0BA@KBCDOMBN@?$GAudt?5returning?8?$AA@ 0044d354     LIBCMT:undname.obj
 0002:00003364       ??_C@_0BL@LLKPOHJI@?$GAcopy?5constructor?5closure?8?$AA@ 0044d364     LIBCMT:undname.obj
 0002:00003380       ??_C@_0CH@OOJPLCPH@?$GAeh?5vector?5vbase?5constructor?5ite@ 0044d380     LIBCMT:undname.obj
 0002:000033a8       ??_C@_0CA@GCEOPDGL@?$GAeh?5vector?5destructor?5iterator?8?$AA@ 0044d3a8     LIBCMT:undname.obj
 0002:000033c8       ??_C@_0CB@JONCMFFK@?$GAeh?5vector?5constructor?5iterator?8@ 0044d3c8     LIBCMT:undname.obj
 0002:000033ec       ??_C@_0BL@NILFHHPC@?$GAvirtual?5displacement?5map?8?$AA@ 0044d3ec     LIBCMT:undname.obj
 0002:00003408       ??_C@_0CE@IKBNEHA@?$GAvector?5vbase?5constructor?5iterat@ 0044d408     LIBCMT:undname.obj
 0002:0000342c       ??_C@_0BN@LFPFMEDL@?$GAvector?5destructor?5iterator?8?$AA@ 0044d42c     LIBCMT:undname.obj
 0002:0000344c       ??_C@_0BO@PFGOCPJJ@?$GAvector?5constructor?5iterator?8?$AA@ 0044d44c     LIBCMT:undname.obj
 0002:0000346c       ??_C@_0BN@IMDCHIKM@?$GAscalar?5deleting?5destructor?8?$AA@ 0044d46c     LIBCMT:undname.obj
 0002:0000348c       ??_C@_0BO@OBMKPJIG@?$GAdefault?5constructor?5closure?8?$AA@ 0044d48c     LIBCMT:undname.obj
 0002:000034ac       ??_C@_0BN@DEGPLNFK@?$GAvector?5deleting?5destructor?8?$AA@ 0044d4ac     LIBCMT:undname.obj
 0002:000034cc       ??_C@_0BD@JDLKDPAB@?$GAvbase?5destructor?8?$AA@ 0044d4cc     LIBCMT:undname.obj
 0002:000034e0       ??_C@_08OBABFOLI@?$GAstring?8?$AA@ 0044d4e0     LIBCMT:undname.obj
 0002:000034ec       ??_C@_0BF@KDPPACIK@?$GAlocal?5static?5guard?8?$AA@ 0044d4ec     LIBCMT:undname.obj
 0002:00003504       ??_C@_08LLFFHHDJ@?$GAtypeof?8?$AA@ 0044d504     LIBCMT:undname.obj
 0002:00003510       ??_C@_07FEEIOKP@?$GAvcall?8?$AA@ 0044d510     LIBCMT:undname.obj
 0002:00003518       ??_C@_09BLBHBJP@?$GAvbtable?8?$AA@ 0044d518     LIBCMT:undname.obj
 0002:00003524       ??_C@_09IFPLHPGF@?$GAvftable?8?$AA@ 0044d524     LIBCMT:undname.obj
 0002:00003530       ??_C@_02MHEGNOJ@?$FO?$DN?$AA@ 0044d530     LIBCMT:undname.obj
 0002:00003534       ??_C@_02DHLNPPGH@?$HM?$DN?$AA@ 0044d534     LIBCMT:undname.obj
 0002:00003538       ??_C@_02FGJGFEAB@?$CG?$DN?$AA@ 0044d538     LIBCMT:undname.obj
 0002:0000353c       ??_C@_03CDNPDDLA@?$DM?$DM?$DN?$AA@ 0044d53c     LIBCMT:undname.obj
 0002:00003540       ??_C@_03IKFCCPFF@?$DO?$DO?$DN?$AA@ 0044d540     LIBCMT:undname.obj
 0002:00003544       ??_C@_02FENAOKFI@?$CF?$DN?$AA@ 0044d544     LIBCMT:undname.obj
 0002:00003548       ??_C@_02FJEHGPIO@?1?$DN?$AA@ 0044d548     LIBCMT:undname.obj
 0002:0000354c       ??_C@_02FKMDLLOA@?9?$DN?$AA@ 0044d54c     LIBCMT:undname.obj
 0002:00003550       ??_C@_02FOEOMHFC@?$CL?$DN?$AA@ 0044d550     LIBCMT:undname.obj
 0002:00003554       ??_C@_02FPIMKNGF@?$CK?$DN?$AA@ 0044d554     LIBCMT:undname.obj
 0002:00003558       ??_C@_02NONPIBCD@?$HM?$HM?$AA@ 0044d558     LIBCMT:undname.obj
 0002:0000355c       ??_C@_02PPKAJPJL@?$CG?$CG?$AA@ 0044d55c     LIBCMT:undname.obj
 0002:00003560       ??_C@_01DNKMNLPK@?$HM?$AA@ 0044d560     LIBCMT:undname.obj
 0002:00003564       ??_C@_01JKBOJNNK@?$FO?$AA@ 0044d564     LIBCMT:undname.obj
 0002:00003568       ??_C@_01PJKLJHI@?$HO?$AA@  0044d568     LIBCMT:undname.obj
 0002:0000356c       ??_C@_02HCKGKOFO@?$CI?$CJ?$AA@ 0044d56c     LIBCMT:undname.obj
 0002:00003570       ??_C@_01IHBHIGKO@?0?$AA@   0044d570     LIBCMT:undname.obj
 0002:00003574       ??_C@_02EEKDKGMJ@?$DO?$DN?$AA@ 0044d574     LIBCMT:undname.obj
 0002:00003578       ??_C@_01PPODPGHN@?$DO?$AA@ 0044d578     LIBCMT:undname.obj
 0002:0000357c       ??_C@_02EHCHHCKH@?$DM?$DN?$AA@ 0044d57c     LIBCMT:undname.obj
 0002:00003580       ??_C@_01MNNFJEPP@?$DM?$AA@ 0044d580     LIBCMT:undname.obj
 0002:00003584       ??_C@_01FGNFDNOH@?$CF?$AA@ 0044d584     LIBCMT:undname.obj
 0002:00003588       ??_C@_01KMDKNFGN@?1?$AA@   0044d588     LIBCMT:undname.obj
 0002:0000358c       ??_C@_03MNHNFDLC@?9?$DO?$CK?$AA@ 0044d58c     LIBCMT:undname.obj
 0002:00003590       ??_C@_01HNPIGOCE@?$CG?$AA@ 0044d590     LIBCMT:undname.obj
 0002:00003594       ??_C@_01MIFGBAGJ@?$CL?$AA@ 0044d594     LIBCMT:undname.obj
 0002:00003598       ??_C@_01JOAMLHOP@?9?$AA@   0044d598     LIBCMT:undname.obj
 0002:0000359c       ??_C@_02BAABKJLB@?9?9?$AA@ 0044d59c     LIBCMT:undname.obj
 0002:000035a0       ??_C@_02ECNGHCIF@?$CL?$CL?$AA@ 0044d5a0     LIBCMT:undname.obj
 0002:000035a4       ??_C@_02HBOOOICD@?9?$DO?$AA@ 0044d5a4     LIBCMT:undname.obj
 0002:000035a8       ??_C@_08LHJFAFGD@operator?$AA@ 0044d5a8     LIBCMT:undname.obj
 0002:000035b4       ??_C@_02GPECMEKF@?$FL?$FN?$AA@ 0044d5b4     LIBCMT:undname.obj
 0002:000035b8       ??_C@_02FDNJECIE@?$CB?$DN?$AA@ 0044d5b8     LIBCMT:undname.obj
 0002:000035bc       ??_C@_02EGOFBIJA@?$DN?$DN?$AA@ 0044d5bc     LIBCMT:undname.obj
 0002:000035c0       ??_C@_01DCLJPIOD@?$CB?$AA@ 0044d5c0     LIBCMT:undname.obj
 0002:000035c4       ??_C@_02FODMEDOG@?$DM?$DM?$AA@ 0044d5c4     LIBCMT:undname.obj
 0002:000035c8       ??_C@_02GPIOPFAK@?$DO?$DO?$AA@ 0044d5c8     LIBCMT:undname.obj
 0002:000035cc       ??_C@_07FPCDHGMM@?5delete?$AA@ 0044d5cc     LIBCMT:undname.obj
 0002:000035d4       ??_C@_04NIHEBCM@?5new?$AA@ 0044d5d4     LIBCMT:undname.obj
 0002:000035dc       ??_C@_0M@GFIIJFMG@__unaligned?$AA@ 0044d5dc     LIBCMT:undname.obj
 0002:000035e8       ??_C@_0L@PILCLIHE@__restrict?$AA@ 0044d5e8     LIBCMT:undname.obj
 0002:000035f4       ??_C@_07JOMMBBKO@__ptr64?$AA@ 0044d5f4     LIBCMT:undname.obj
 0002:000035fc       ??_C@_09HIJEGCPM@__clrcall?$AA@ 0044d5fc     LIBCMT:undname.obj
 0002:00003608       ??_C@_0L@JMKHOMEK@__fastcall?$AA@ 0044d608     LIBCMT:undname.obj
 0002:00003614       ??_C@_0L@NPHFGOKO@__thiscall?$AA@ 0044d614     LIBCMT:undname.obj
 0002:00003620       ??_C@_09IFJBGAPI@__stdcall?$AA@ 0044d620     LIBCMT:undname.obj
 0002:0000362c       ??_C@_08GHMPAG@__pascal?$AA@ 0044d62c     LIBCMT:undname.obj
 0002:00003638       ??_C@_07KOLFKCDI@__cdecl?$AA@ 0044d638     LIBCMT:undname.obj
 0002:00003640       ??_C@_08EHJDFFNH@__based?$CI?$AA@ 0044d640     LIBCMT:undname.obj
 0002:000037d4       ??_7DNameNode@@6B@         0044d7d4     LIBCMT:undname.obj
 0002:000037e4       ??_7charNode@@6B@          0044d7e4     LIBCMT:undname.obj
 0002:000037f4       ??_7pDNameNode@@6B@        0044d7f4     LIBCMT:undname.obj
 0002:00003804       ??_7DNameStatusNode@@6B@   0044d804     LIBCMT:undname.obj
 0002:00003814       ??_7pcharNode@@6B@         0044d814     LIBCMT:undname.obj
 0002:00003820       ??_C@_04OKOHEJBO@?5?$DP?$DP?5?$AA@ 0044d820     LIBCMT:undname.obj
 0002:00003828       ??_C@_06EEGAIFAK@?$HLflat?$HN?$AA@ 0044d828     LIBCMT:undname.obj
 0002:00003830       ??_C@_05JIBOFOHK@?$HLfor?5?$AA@ 0044d830     LIBCMT:undname.obj
 0002:00003838       ??_C@_0BN@IBLMMFAP@?$GAnon?9type?9template?9parameter?$AA@ 0044d838     LIBCMT:undname.obj
 0002:00003858       ??_C@_09EBBEKKIH@unsigned?5?$AA@ 0044d858     LIBCMT:undname.obj
 0002:00003864       ??_C@_05CJIMAING@long?5?$AA@ 0044d864     LIBCMT:undname.obj
 0002:0000386c       ??_C@_04LAHKHJMA@int?5?$AA@ 0044d86c     LIBCMT:undname.obj
 0002:00003874       ??_C@_06EHJMALKF@short?5?$AA@ 0044d874     LIBCMT:undname.obj
 0002:0000387c       ??_C@_05CIHEBHNO@char?5?$AA@ 0044d87c     LIBCMT:undname.obj
 0002:00003884       ??_C@_04GKJNKENE@void?$AA@ 0044d884     LIBCMT:undname.obj
 0002:0000388c       ??_C@_0L@EGPHHEKN@?$DMellipsis?$DO?$AA@ 0044d88c     LIBCMT:undname.obj
 0002:00003898       ??_C@_0M@ELJOJFFH@?0?$DMellipsis?$DO?$AA@ 0044d898     LIBCMT:undname.obj
 0002:000038a4       ??_C@_04EENFHACM@?0?4?4?4?$AA@ 0044d8a4     LIBCMT:undname.obj
 0002:000038ac       ??_C@_07HDJPLPEK@?5throw?$CI?$AA@ 0044d8ac     LIBCMT:undname.obj
 0002:000038b4       ??_C@_02GOGNNPBN@?$CJ?$FL?$AA@ 0044d8b4     LIBCMT:undname.obj
 0002:000038b8       ??_C@_02MDINNEEG@s?5?$AA@  0044d8b8     LIBCMT:undname.obj
 0002:000038bc       ??_C@_0BE@EODMJLIF@?$GAtemplate?9parameter?$AA@ 0044d8bc     LIBCMT:undname.obj
 0002:000038d0       ??_C@_01GEODFPGF@?8?$AA@   0044d8d0     LIBCMT:undname.obj
 0002:000038d4       ??_C@_04HIBGFPH@NULL?$AA@  0044d8d4     LIBCMT:undname.obj
 0002:000038dc       ??_C@_0O@GKABPPIF@cli?3?3pin_ptr?$DM?$AA@ 0044d8dc     LIBCMT:undname.obj
 0002:000038ec       ??_C@_0M@EALIELKG@cli?3?3array?$DM?$AA@ 0044d8ec     LIBCMT:undname.obj
 0002:000038f8       ??_C@_05BEFAKPML@void?5?$AA@ 0044d8f8     LIBCMT:undname.obj
 0002:00003900       ??_C@_02OHHJMEON@?8?8?$AA@ 0044d900     LIBCMT:undname.obj
 0002:00003904       ??_C@_0BG@JNJLAMPM@?$GAanonymous?5namespace?8?$AA@ 0044d904     LIBCMT:undname.obj
 0002:0000391c       ??_C@_01NLNLIGKH@?$GA?$AA@ 0044d91c     LIBCMT:undname.obj
 0002:00003920       ??_C@_0O@KHGCOMHP@generic?9type?9?$AA@ 0044d920     LIBCMT:undname.obj
 0002:00003930       ??_C@_0BE@JAEOCHPE@template?9parameter?9?$AA@ 0044d930     LIBCMT:undname.obj
 0002:00003944       ??_C@_02MOLJINC@?3?3?$AA@  0044d944     LIBCMT:undname.obj
 0002:00003948       ??_C@_0P@GCIFDJCJ@?$GAunknown?5ecsu?8?$AA@ 0044d948     LIBCMT:undname.obj
 0002:00003958       ??_C@_06MOJHIBMG@union?5?$AA@ 0044d958     LIBCMT:undname.obj
 0002:00003960       ??_C@_07DIBCDNGL@struct?5?$AA@ 0044d960     LIBCMT:undname.obj
 0002:00003968       ??_C@_06LJBABKPM@class?5?$AA@ 0044d968     LIBCMT:undname.obj
 0002:00003970       ??_C@_05LJGMCFOG@enum?5?$AA@ 0044d970     LIBCMT:undname.obj
 0002:00003978       ??_C@_08KOFANOFK@coclass?5?$AA@ 0044d978     LIBCMT:undname.obj
 0002:00003984       ??_C@_0N@DLIEFKNA@cointerface?5?$AA@ 0044d984     LIBCMT:undname.obj
 0002:00003994       ??_C@_02KCKGHPCA@?$CJ?5?$AA@ 0044d994     LIBCMT:undname.obj
 0002:00003998       ??_C@_0M@DHNBOJMP@extern?5?$CCC?$CC?5?$AA@ 0044d998     LIBCMT:undname.obj
 0002:000039a4       ??_C@_08KJLFOPNE@?$FLthunk?$FN?3?$AA@ 0044d9a4     LIBCMT:undname.obj
 0002:000039b0       ??_C@_08GPDDCMKI@public?3?5?$AA@ 0044d9b0     LIBCMT:undname.obj
 0002:000039bc       ??_C@_0M@GAIFPFIP@protected?3?5?$AA@ 0044d9bc     LIBCMT:undname.obj
 0002:000039c8       ??_C@_09LAPHOOG@private?3?5?$AA@ 0044d9c8     LIBCMT:undname.obj
 0002:000039d4       ??_C@_08NIEOINHE@virtual?5?$AA@ 0044d9d4     LIBCMT:undname.obj
 0002:000039e0       ??_C@_07PGOEDBHP@static?5?$AA@ 0044d9e0     LIBCMT:undname.obj
 0002:000039e8       ??_C@_0DA@HGFJFBBE@?$GAtemplate?5static?5data?5member?5des@ 0044d9e8     LIBCMT:undname.obj
 0002:00003a18       ??_C@_0DB@ILEFOCIJ@?$GAtemplate?5static?5data?5member?5con@ 0044da18     LIBCMT:undname.obj
 0002:00003a4c       ??_C@_0CB@KJDOOODE@?$GAlocal?5static?5destructor?5helper?8@ 0044da4c     LIBCMT:undname.obj
 0002:00003a70       ??_C@_0L@HNGCOGAE@?$GAadjustor?$HL?$AA@ 0044da70     LIBCMT:undname.obj
 0002:00003a7c       ??_C@_0L@GHPFDFH@?$GAvtordisp?$HL?$AA@ 0044da7c     LIBCMT:undname.obj
 0002:00003a88       ??_C@_0N@CBHHHENL@?$GAvtordispex?$HL?$AA@ 0044da88     LIBCMT:undname.obj
 0002:00003a98       ??_C@_02IGFCGPIL@?$HN?8?$AA@ 0044da98     LIBCMT:undname.obj
 0002:00003a9c       ??_C@_03OPGICMGF@?$HN?8?5?$AA@ 0044da9c     LIBCMT:undname.obj
 0002:00003aa0       ??_C@_06LIJLOJAG@const?5?$AA@ 0044daa0     LIBCMT:undname.obj
 0002:00003aa8       ??_C@_09GAIEOBLP@volatile?5?$AA@ 0044daa8     LIBCMT:undname.obj
 0002:00003ab4       ??_C@_04HEJADOOB@CV?3?5?$AA@ 0044dab4     LIBCMT:undname.obj
 0002:00003abc       ??_C@_08PABEKFH@volatile?$AA@ 0044dabc     LIBCMT:undname.obj
 0002:00003ac8       ??_C@_09EFNPDFFP@?5volatile?$AA@ 0044dac8     LIBCMT:undname.obj
 0002:00003ad4       ??_C@_05BNCCCJPP@const?$AA@ 0044dad4     LIBCMT:undname.obj
 0002:00003adc       ??_C@_07EDHNAJHC@signed?5?$AA@ 0044dadc     LIBCMT:undname.obj
 0002:00003ae4       ??_C@_06BNJCAIGJ@double?$AA@ 0044dae4     LIBCMT:undname.obj
 0002:00003aec       ??_C@_04DDKJGDCM@bool?$AA@ 0044daec     LIBCMT:undname.obj
 0002:00003af4       ??_C@_07CLGGIAMF@wchar_t?$AA@ 0044daf4     LIBCMT:undname.obj
 0002:00003afc       ??_C@_07NFANNNEC@UNKNOWN?$AA@ 0044dafc     LIBCMT:undname.obj
 0002:00003b04       ??_C@_08GAHOLHEO@__int128?$AA@ 0044db04     LIBCMT:undname.obj
 0002:00003b10       ??_C@_07OFLPPHGP@__int32?$AA@ 0044db10     LIBCMT:undname.obj
 0002:00003b18       ??_C@_07LFCOJCAC@__int64?$AA@ 0044db18     LIBCMT:undname.obj
 0002:00003b20       ??_C@_07ICFHOGAF@__int16?$AA@ 0044db20     LIBCMT:undname.obj
 0002:00003b28       ??_C@_06GCICPBLB@__w64?5?$AA@ 0044db28     LIBCMT:undname.obj
 0002:00003b30       ??_C@_06EBGKOKIG@__int8?$AA@ 0044db30     LIBCMT:undname.obj
 0002:00003b38       ??_C@_05KNFBNCOH@float?$AA@ 0044db38     LIBCMT:undname.obj
 0002:00003b40       ??_C@_04GOKPGOLB@long?$AA@ 0044db40     LIBCMT:undname.obj
 0002:00003b48       ??_C@_03JBIPMCLC@int?$AA@  0044db48     LIBCMT:undname.obj
 0002:00003b4c       ??_C@_05BFKKPKCG@short?$AA@ 0044db4c     LIBCMT:undname.obj
 0002:00003b54       ??_C@_04ENMBGAPA@char?$AA@ 0044db54     LIBCMT:undname.obj
 0002:00003b60       ___lookuptable_s           0044db60     LIBCMT:outputs.obj
 0002:00003bbc       ??_C@_0BC@JEAENNKH@SystemFunction036?$AA@ 0044dbbc     LIBCMT:rand_s.obj
 0002:00003bd0       ??_C@_0N@JJPEKNFO@ADVAPI32?4DLL?$AA@ 0044dbd0     LIBCMT:rand_s.obj
 0002:00003be0       ??_C@_0CG@PKBDLMEO@InitializeCriticalSectionAndSpin@ 0044dbe0     LIBCMT:initcrit.obj
 0002:00003c08       ??_C@_0N@MDJJJHMB@kernel32?4dll?$AA@ 0044dc08     LIBCMT:initcrit.obj
 0002:00003c18       ??_C@_0BI@DFKBFLJE@GetProcessWindowStation?$AA@ 0044dc18     LIBCMT:crtmbox.obj
 0002:00003c30       ??_C@_0BK@CIDNPOGP@GetUserObjectInformationA?$AA@ 0044dc30     LIBCMT:crtmbox.obj
 0002:00003c4c       ??_C@_0BD@HHGDFDBJ@GetLastActivePopup?$AA@ 0044dc4c     LIBCMT:crtmbox.obj
 0002:00003c60       ??_C@_0BA@HNOPNCHB@GetActiveWindow?$AA@ 0044dc60     LIBCMT:crtmbox.obj
 0002:00003c70       ??_C@_0M@CHKKJDAI@MessageBoxA?$AA@ 0044dc70     LIBCMT:crtmbox.obj
 0002:00003c7c       ??_C@_0L@NDEGIDAG@USER32?4DLL?$AA@ 0044dc7c     LIBCMT:crtmbox.obj
 0002:00003c88       ___dnames                  0044dc88     LIBCMT:timeset.obj
 0002:00003ca0       ___mnames                  0044dca0     LIBCMT:timeset.obj
 0002:00003cc8       ??_C@_02CLFPBFFP@TZ?$AA@   0044dcc8     LIBCMT:tzset.obj
 0002:00003ccc       ??_C@_06IMKFLFPG@1?$CDQNAN?$AA@ 0044dccc     LIBCMT:x10fout.obj
 0002:00003cd4       ??_C@_05DNEBIAHO@1?$CDINF?$AA@ 0044dcd4     LIBCMT:x10fout.obj
 0002:00003cdc       ??_C@_05PHHOCPM@1?$CDIND?$AA@ 0044dcdc     LIBCMT:x10fout.obj
 0002:00003ce4       ??_C@_06PGGFOGJG@1?$CDSNAN?$AA@ 0044dce4     LIBCMT:x10fout.obj
 0002:00003cec       ??_C@_06GDENEHCP@CONIN$?$AA@ 0044dcec     LIBCMT:initcon.obj
 0002:00003cf4       ??_C@_07GPDNMNG@CONOUT$?$AA@ 0044dcf4     LIBCMT:initcon.obj
 0002:00003d00       __load_config_used         0044dd00     LIBCMT:loadcfg.obj
 0002:00003da8       ??_R4bad_alloc@std@@6B@    0044dda8     Application.obj
 0002:00003dbc       ??_R3bad_alloc@std@@8      0044ddbc     Application.obj
 0002:00003dcc       ??_R2bad_alloc@std@@8      0044ddcc     Application.obj
 0002:00003dd8       ??_R1A@?0A@EA@bad_alloc@std@@8 0044ddd8     Application.obj
 0002:00003df4       ??_R1A@?0A@EA@exception@std@@8 0044ddf4     Application.obj
 0002:00003e10       ??_R3exception@std@@8      0044de10     Application.obj
 0002:00003e20       ??_R2exception@std@@8      0044de20     Application.obj
 0002:00003e28       ??_R4Thank_you@Define_the_symbol__ATL_MIXED@@6B@ 0044de28     Application.obj
 0002:00003e3c       ??_R3Thank_you@Define_the_symbol__ATL_MIXED@@8 0044de3c     Application.obj
 0002:00003e4c       ??_R2Thank_you@Define_the_symbol__ATL_MIXED@@8 0044de4c     Application.obj
 0002:00003e54       ??_R1A@?0A@EA@Thank_you@Define_the_symbol__ATL_MIXED@@8 0044de54     Application.obj
 0002:00003e70       ??_R4CBishopApp@@6B@       0044de70     Application.obj
 0002:00003e84       ??_R3CBishopApp@@8         0044de84     Application.obj
 0002:00003e94       ??_R2CBishopApp@@8         0044de94     Application.obj
 0002:00003e9c       ??_R1A@?0A@EA@CBishopApp@@8 0044de9c     Application.obj
 0002:00003eb8       ??_R4CEvent@Win32@OnlineGameLib@@6B@ 0044deb8     Event.obj
 0002:00003ecc       ??_R3CEvent@Win32@OnlineGameLib@@8 0044decc     Event.obj
 0002:00003edc       ??_R2CEvent@Win32@OnlineGameLib@@8 0044dedc     Event.obj
 0002:00003ee4       ??_R1A@?0A@EA@CEvent@Win32@OnlineGameLib@@8 0044dee4     Event.obj
 0002:00003f00       ??_R4CException@Win32@OnlineGameLib@@6B@ 0044df00     Event.obj
 0002:00003f14       ??_R3CException@Win32@OnlineGameLib@@8 0044df14     Event.obj
 0002:00003f24       ??_R2CException@Win32@OnlineGameLib@@8 0044df24     Event.obj
 0002:00003f2c       ??_R1A@?0A@EA@CException@Win32@OnlineGameLib@@8 0044df2c     Event.obj
 0002:00003f48       ??_R4CWin32Exception@Win32@OnlineGameLib@@6B@ 0044df48     Event.obj
 0002:00003f5c       ??_R3CWin32Exception@Win32@OnlineGameLib@@8 0044df5c     Event.obj
 0002:00003f6c       ??_R2CWin32Exception@Win32@OnlineGameLib@@8 0044df6c     Event.obj
 0002:00003f78       ??_R1A@?0A@EA@CWin32Exception@Win32@OnlineGameLib@@8 0044df78     Event.obj
 0002:00003f94       ??_R4IPlayer@@6B@          0044df94     GamePlayer.obj
 0002:00003fa8       ??_R3IPlayer@@8            0044dfa8     GamePlayer.obj
 0002:00003fb8       ??_R2IPlayer@@8            0044dfb8     GamePlayer.obj
 0002:00003fc0       ??_R1A@?0A@EA@IPlayer@@8   0044dfc0     GamePlayer.obj
 0002:00003fdc       ??_R4ICommand@@6B@         0044dfdc     GamePlayer.obj
 0002:00003ff0       ??_R3ICommand@@8           0044dff0     GamePlayer.obj
 0002:00004000       ??_R2ICommand@@8           0044e000     GamePlayer.obj
 0002:00004008       ??_R1A@?0A@EA@ICommand@@8  0044e008     GamePlayer.obj
 0002:00004024       ??_R4facet@locale@std@@6B@ 0044e024     GamePlayer.obj
 0002:00004038       ??_R3facet@locale@std@@8   0044e038     GamePlayer.obj
 0002:00004048       ??_R2facet@locale@std@@8   0044e048     GamePlayer.obj
 0002:00004050       ??_R1A@?0A@EA@facet@locale@std@@8 0044e050     GamePlayer.obj
 0002:0000406c       ??_R4ctype_base@std@@6B@   0044e06c     GamePlayer.obj
 0002:00004080       ??_R3ctype_base@std@@8     0044e080     GamePlayer.obj
 0002:00004090       ??_R2ctype_base@std@@8     0044e090     GamePlayer.obj
 0002:0000409c       ??_R1A@?0A@EA@ctype_base@std@@8 0044e09c     GamePlayer.obj
 0002:000040b8       ??_R4ios_base@std@@6B@     0044e0b8     GamePlayer.obj
 0002:000040cc       ??_R3ios_base@std@@8       0044e0cc     GamePlayer.obj
 0002:000040dc       ??_R2ios_base@std@@8       0044e0dc     GamePlayer.obj
 0002:000040e8       ??_R1A@?0A@EA@ios_base@std@@8 0044e0e8     GamePlayer.obj
 0002:00004104       ??_R13?0A@EA@?$_Iosb@H@std@@8 0044e104     GamePlayer.obj
 0002:00004120       ??_R3?$_Iosb@H@std@@8      0044e120     GamePlayer.obj
 0002:00004130       ??_R2?$_Iosb@H@std@@8      0044e130     GamePlayer.obj
 0002:00004138       ??_R1A@?0A@EA@?$_Iosb@H@std@@8 0044e138     GamePlayer.obj
 0002:00004154       ??_R4?$basic_ostream@DU?$char_traits@D@std@@@std@@6B@ 0044e154     GamePlayer.obj
 0002:00004168       ??_R3?$basic_ostream@DU?$char_traits@D@std@@@std@@8 0044e168     GamePlayer.obj
 0002:00004178       ??_R2?$basic_ostream@DU?$char_traits@D@std@@@std@@8 0044e178     GamePlayer.obj
 0002:0000418c       ??_R1A@?0A@EA@?$basic_ostream@DU?$char_traits@D@std@@@std@@8 0044e18c     GamePlayer.obj
 0002:000041a8       ??_R1A@A@3FA@?$basic_ios@DU?$char_traits@D@std@@@std@@8 0044e1a8     GamePlayer.obj
 0002:000041c4       ??_R3?$basic_ios@DU?$char_traits@D@std@@@std@@8 0044e1c4     GamePlayer.obj
 0002:000041d4       ??_R2?$basic_ios@DU?$char_traits@D@std@@@std@@8 0044e1d4     GamePlayer.obj
 0002:000041e4       ??_R1A@?0A@EA@?$basic_ios@DU?$char_traits@D@std@@@std@@8 0044e1e4     GamePlayer.obj
 0002:00004200       ??_R1A@A@3EA@ios_base@std@@8 0044e200     GamePlayer.obj
 0002:0000421c       ??_R13A@3EA@?$_Iosb@H@std@@8 0044e21c     GamePlayer.obj
 0002:00004238       ??_R4?$basic_ios@DU?$char_traits@D@std@@@std@@6B@ 0044e238     GamePlayer.obj
 0002:0000424c       ??_R4?$basic_istream@DU?$char_traits@D@std@@@std@@6B@ 0044e24c     GamePlayer.obj
 0002:00004260       ??_R3?$basic_istream@DU?$char_traits@D@std@@@std@@8 0044e260     GamePlayer.obj
 0002:00004270       ??_R2?$basic_istream@DU?$char_traits@D@std@@@std@@8 0044e270     GamePlayer.obj
 0002:00004284       ??_R1A@?0A@EA@?$basic_istream@DU?$char_traits@D@std@@@std@@8 0044e284     GamePlayer.obj
 0002:000042a0       ??_R4?$basic_iostream@DU?$char_traits@D@std@@@std@@6B@ 0044e2a0     GamePlayer.obj
 0002:000042b4       ??_R3?$basic_iostream@DU?$char_traits@D@std@@@std@@8 0044e2b4     GamePlayer.obj
 0002:000042c4       ??_R2?$basic_iostream@DU?$char_traits@D@std@@@std@@8 0044e2c4     GamePlayer.obj
 0002:000042ec       ??_R1A@?0A@EA@?$basic_iostream@DU?$char_traits@D@std@@@std@@8 0044e2ec     GamePlayer.obj
 0002:00004308       ??_R17?0A@EA@?$basic_ostream@DU?$char_traits@D@std@@@std@@8 0044e308     GamePlayer.obj
 0002:00004324       ??_R4?$basic_streambuf@DU?$char_traits@D@std@@@std@@6B@ 0044e324     GamePlayer.obj
 0002:00004338       ??_R3?$basic_streambuf@DU?$char_traits@D@std@@@std@@8 0044e338     GamePlayer.obj
 0002:00004348       ??_R2?$basic_streambuf@DU?$char_traits@D@std@@@std@@8 0044e348     GamePlayer.obj
 0002:00004350       ??_R1A@?0A@EA@?$basic_streambuf@DU?$char_traits@D@std@@@std@@8 0044e350     GamePlayer.obj
 0002:0000436c       ??_R4?$CTaskCommand@VCGamePlayer@@@@6B@ 0044e36c     GamePlayer.obj
 0002:00004380       ??_R3?$CTaskCommand@VCGamePlayer@@@@8 0044e380     GamePlayer.obj
 0002:00004390       ??_R2?$CTaskCommand@VCGamePlayer@@@@8 0044e390     GamePlayer.obj
 0002:0000439c       ??_R1A@?0A@EA@?$CTaskCommand@VCGamePlayer@@@@8 0044e39c     GamePlayer.obj
 0002:000043b8       ??_R4strstreambuf@std@@6B@ 0044e3b8     GamePlayer.obj
 0002:000043cc       ??_R3strstreambuf@std@@8   0044e3cc     GamePlayer.obj
 0002:000043dc       ??_R2strstreambuf@std@@8   0044e3dc     GamePlayer.obj
 0002:000043e8       ??_R1A@?0A@EA@strstreambuf@std@@8 0044e3e8     GamePlayer.obj
 0002:00004404       ??_R4strstream@std@@6B@    0044e404     GamePlayer.obj
 0002:00004418       ??_R3strstream@std@@8      0044e418     GamePlayer.obj
 0002:00004428       ??_R2strstream@std@@8      0044e428     GamePlayer.obj
 0002:00004454       ??_R1A@?0A@EA@strstream@std@@8 0044e454     GamePlayer.obj
 0002:00004470       ??_R4logic_error@std@@6B@  0044e470     GamePlayer.obj
 0002:00004484       ??_R3logic_error@std@@8    0044e484     GamePlayer.obj
 0002:00004494       ??_R2logic_error@std@@8    0044e494     GamePlayer.obj
 0002:000044a0       ??_R1A@?0A@EA@logic_error@std@@8 0044e4a0     GamePlayer.obj
 0002:000044bc       ??_R4runtime_error@std@@6B@ 0044e4bc     GamePlayer.obj
 0002:000044d0       ??_R3runtime_error@std@@8  0044e4d0     GamePlayer.obj
 0002:000044e0       ??_R2runtime_error@std@@8  0044e4e0     GamePlayer.obj
 0002:000044ec       ??_R1A@?0A@EA@runtime_error@std@@8 0044e4ec     GamePlayer.obj
 0002:00004508       ??_R4length_error@std@@6B@ 0044e508     GamePlayer.obj
 0002:0000451c       ??_R3length_error@std@@8   0044e51c     GamePlayer.obj
 0002:0000452c       ??_R2length_error@std@@8   0044e52c     GamePlayer.obj
 0002:0000453c       ??_R1A@?0A@EA@length_error@std@@8 0044e53c     GamePlayer.obj
 0002:00004558       ??_R4out_of_range@std@@6B@ 0044e558     GamePlayer.obj
 0002:0000456c       ??_R3out_of_range@std@@8   0044e56c     GamePlayer.obj
 0002:0000457c       ??_R2out_of_range@std@@8   0044e57c     GamePlayer.obj
 0002:0000458c       ??_R1A@?0A@EA@out_of_range@std@@8 0044e58c     GamePlayer.obj
 0002:000045a8       ??_R4failure@ios_base@std@@6B@ 0044e5a8     GamePlayer.obj
 0002:000045bc       ??_R3failure@ios_base@std@@8 0044e5bc     GamePlayer.obj
 0002:000045cc       ??_R2failure@ios_base@std@@8 0044e5cc     GamePlayer.obj
 0002:000045dc       ??_R1A@?0A@EA@failure@ios_base@std@@8 0044e5dc     GamePlayer.obj
 0002:000045f8       ??_R4?$ctype@D@std@@6B@    0044e5f8     GamePlayer.obj
 0002:0000460c       ??_R3?$ctype@D@std@@8      0044e60c     GamePlayer.obj
 0002:0000461c       ??_R2?$ctype@D@std@@8      0044e61c     GamePlayer.obj
 0002:0000462c       ??_R1A@?0A@EA@?$ctype@D@std@@8 0044e62c     GamePlayer.obj
 0002:00004648       ??_R4?$num_put@DV?$ostreambuf_iterator@DU?$char_traits@D@std@@@std@@@std@@6B@ 0044e648     GamePlayer.obj
 0002:0000465c       ??_R3?$num_put@DV?$ostreambuf_iterator@DU?$char_traits@D@std@@@std@@@std@@8 0044e65c     GamePlayer.obj
 0002:0000466c       ??_R2?$num_put@DV?$ostreambuf_iterator@DU?$char_traits@D@std@@@std@@@std@@8 0044e66c     GamePlayer.obj
 0002:00004678       ??_R1A@?0A@EA@?$num_put@DV?$ostreambuf_iterator@DU?$char_traits@D@std@@@std@@@std@@8 0044e678     GamePlayer.obj
 0002:00004694       ??_R4?$numpunct@D@std@@6B@ 0044e694     GamePlayer.obj
 0002:000046a8       ??_R3?$numpunct@D@std@@8   0044e6a8     GamePlayer.obj
 0002:000046b8       ??_R2?$numpunct@D@std@@8   0044e6b8     GamePlayer.obj
 0002:000046c4       ??_R1A@?0A@EA@?$numpunct@D@std@@8 0044e6c4     GamePlayer.obj
 0002:000046e0       ??_R4CGamePlayer@@6B@      0044e6e0     GamePlayer.obj
 0002:000046f4       ??_R3CGamePlayer@@8        0044e6f4     GamePlayer.obj
 0002:00004704       ??_R2CGamePlayer@@8        0044e704     GamePlayer.obj
 0002:00004710       ??_R1A@?0A@EA@CGamePlayer@@8 0044e710     GamePlayer.obj
 0002:0000472c       ??_R4IGServer@@6B@         0044e72c     GameServer.obj
 0002:00004740       ??_R3IGServer@@8           0044e740     GameServer.obj
 0002:00004750       ??_R2IGServer@@8           0044e750     GameServer.obj
 0002:00004758       ??_R1A@?0A@EA@IGServer@@8  0044e758     GameServer.obj
 0002:00004774       ??_R4CGameServer@@6B@      0044e774     GameServer.obj
 0002:00004788       ??_R3CGameServer@@8        0044e788     GameServer.obj
 0002:00004798       ??_R2CGameServer@@8        0044e798     GameServer.obj
 0002:000047a4       ??_R1A@?0A@EA@CGameServer@@8 0044e7a4     GameServer.obj
 0002:000047c0       ??_R4CIntercessor@@6B@     0044e7c0     Intercessor.obj
 0002:000047d4       ??_R3CIntercessor@@8       0044e7d4     Intercessor.obj
 0002:000047e4       ??_R2CIntercessor@@8       0044e7e4     Intercessor.obj
 0002:000047ec       ??_R1A@?0A@EA@CIntercessor@@8 0044e7ec     Intercessor.obj
 0002:00004808       ??_R4CNetwork@@6B@         0044e808     Network.obj
 0002:0000481c       ??_R3CNetwork@@8           0044e81c     Network.obj
 0002:0000482c       ??_R2CNetwork@@8           0044e82c     Network.obj
 0002:00004834       ??_R1A@?0A@EA@CNetwork@@8  0044e834     Network.obj
 0002:00004850       ??_R4CSmartClient@@6B@     0044e850     SmartClient.obj
 0002:00004864       ??_R3CSmartClient@@8       0044e864     SmartClient.obj
 0002:00004874       ??_R2CSmartClient@@8       0044e874     SmartClient.obj
 0002:0000487c       ??_R1A@?0A@EA@CSmartClient@@8 0044e87c     SmartClient.obj
 0002:00004898       ??_R4CMutex@Win32@OnlineGameLib@@6B@ 0044e898     common:Mutex.obj
 0002:000048ac       ??_R3CMutex@Win32@OnlineGameLib@@8 0044e8ac     common:Mutex.obj
 0002:000048bc       ??_R2CMutex@Win32@OnlineGameLib@@8 0044e8bc     common:Mutex.obj
 0002:000048c4       ??_R1A@?0A@EA@CMutex@Win32@OnlineGameLib@@8 0044e8c4     common:Mutex.obj
 0002:000048e0       ??_R4Allocator@CBuffer@Win32@OnlineGameLib@@6B@ 0044e8e0     common:Buffer.obj
 0002:000048f4       ??_R3Allocator@CBuffer@Win32@OnlineGameLib@@8 0044e8f4     common:Buffer.obj
 0002:00004904       ??_R2Allocator@CBuffer@Win32@OnlineGameLib@@8 0044e904     common:Buffer.obj
 0002:0000490c       ??_R1A@?0A@EA@Allocator@CBuffer@Win32@OnlineGameLib@@8 0044e90c     common:Buffer.obj
 0002:00004928       ??_R4CPackager@Win32@OnlineGameLib@@6B@ 0044e928     common:Buffer.obj
 0002:0000493c       ??_R3CPackager@Win32@OnlineGameLib@@8 0044e93c     common:Buffer.obj
 0002:0000494c       ??_R2CPackager@Win32@OnlineGameLib@@8 0044e94c     common:Buffer.obj
 0002:00004954       ??_R1A@?0A@EA@CPackager@Win32@OnlineGameLib@@8 0044e954     common:Buffer.obj
 0002:00004970       ??_R4?$basic_filebuf@DU?$char_traits@D@std@@@std@@6B@ 0044e970     common:Utils.obj
 0002:00004984       ??_R3?$basic_filebuf@DU?$char_traits@D@std@@@std@@8 0044e984     common:Utils.obj
 0002:00004994       ??_R2?$basic_filebuf@DU?$char_traits@D@std@@@std@@8 0044e994     common:Utils.obj
 0002:000049a0       ??_R1A@?0A@EA@?$basic_filebuf@DU?$char_traits@D@std@@@std@@8 0044e9a0     common:Utils.obj
 0002:000049bc       ??_R4codecvt_base@std@@6B@ 0044e9bc     common:Utils.obj
 0002:000049d0       ??_R3codecvt_base@std@@8   0044e9d0     common:Utils.obj
 0002:000049e0       ??_R2codecvt_base@std@@8   0044e9e0     common:Utils.obj
 0002:000049ec       ??_R1A@?0A@EA@codecvt_base@std@@8 0044e9ec     common:Utils.obj
 0002:00004a08       ??_R4?$codecvt@DDH@std@@6B@ 0044ea08     common:Utils.obj
 0002:00004a1c       ??_R3?$codecvt@DDH@std@@8  0044ea1c     common:Utils.obj
 0002:00004a2c       ??_R2?$codecvt@DDH@std@@8  0044ea2c     common:Utils.obj
 0002:00004a3c       ??_R1A@?0A@EA@?$codecvt@DDH@std@@8 0044ea3c     common:Utils.obj
 0002:00004a58       ??_R4?$basic_fstream@DU?$char_traits@D@std@@@std@@6B@ 0044ea58     common:Utils.obj
 0002:00004a6c       ??_R3?$basic_fstream@DU?$char_traits@D@std@@@std@@8 0044ea6c     common:Utils.obj
 0002:00004a7c       ??_R2?$basic_fstream@DU?$char_traits@D@std@@@std@@8 0044ea7c     common:Utils.obj
 0002:00004aa8       ??_R1A@?0A@EA@?$basic_fstream@DU?$char_traits@D@std@@@std@@8 0044eaa8     common:Utils.obj
 0002:00004ac4       ??_R4CLibrary@Win32@OnlineGameLib@@6B@ 0044eac4     common:Library.obj
 0002:00004ad8       ??_R3CLibrary@Win32@OnlineGameLib@@8 0044ead8     common:Library.obj
 0002:00004ae8       ??_R2CLibrary@Win32@OnlineGameLib@@8 0044eae8     common:Library.obj
 0002:00004af0       ??_R1A@?0A@EA@CLibrary@Win32@OnlineGameLib@@8 0044eaf0     common:Library.obj
 0002:00004b0c       ??_R4invalid_argument@std@@6B@ 0044eb0c     libcpmt:string.obj
 0002:00004b20       ??_R3invalid_argument@std@@8 0044eb20     libcpmt:string.obj
 0002:00004b30       ??_R2invalid_argument@std@@8 0044eb30     libcpmt:string.obj
 0002:00004b40       ??_R1A@?0A@EA@invalid_argument@std@@8 0044eb40     libcpmt:string.obj
 0002:00004b5c       ??_R4_Locimp@locale@std@@6B@ 0044eb5c     libcpmt:locale0.obj
 0002:00004b70       ??_R3_Locimp@locale@std@@8 0044eb70     libcpmt:locale0.obj
 0002:00004b80       ??_R2_Locimp@locale@std@@8 0044eb80     libcpmt:locale0.obj
 0002:00004b8c       ??_R1A@?0A@EA@_Locimp@locale@std@@8 0044eb8c     libcpmt:locale0.obj
 0002:00004ba8       ??_R4exception@std@@6B@    0044eba8     LIBCMT:stdexcpt.obj
 0002:00004bbc       ??_R4bad_cast@std@@6B@     0044ebbc     LIBCMT:stdexcpt.obj
 0002:00004bd0       ??_R3bad_cast@std@@8       0044ebd0     LIBCMT:stdexcpt.obj
 0002:00004be0       ??_R2bad_cast@std@@8       0044ebe0     LIBCMT:stdexcpt.obj
 0002:00004bec       ??_R1A@?0A@EA@bad_cast@std@@8 0044ebec     LIBCMT:stdexcpt.obj
 0002:00004c08       ??_R4bad_typeid@std@@6B@   0044ec08     LIBCMT:stdexcpt.obj
 0002:00004c1c       ??_R3bad_typeid@std@@8     0044ec1c     LIBCMT:stdexcpt.obj
 0002:00004c2c       ??_R2bad_typeid@std@@8     0044ec2c     LIBCMT:stdexcpt.obj
 0002:00004c38       ??_R1A@?0A@EA@bad_typeid@std@@8 0044ec38     LIBCMT:stdexcpt.obj
 0002:00004c54       ??_R4__non_rtti_object@std@@6B@ 0044ec54     LIBCMT:stdexcpt.obj
 0002:00004c68       ??_R3__non_rtti_object@std@@8 0044ec68     LIBCMT:stdexcpt.obj
 0002:00004c78       ??_R2__non_rtti_object@std@@8 0044ec78     LIBCMT:stdexcpt.obj
 0002:00004c88       ??_R1A@?0A@EA@__non_rtti_object@std@@8 0044ec88     LIBCMT:stdexcpt.obj
 0002:00004ca4       ??_R4type_info@@6B@        0044eca4     LIBCMT:typinfo.obj
 0002:00004cb8       ??_R3type_info@@8          0044ecb8     LIBCMT:typinfo.obj
 0002:00004cc8       ??_R2type_info@@8          0044ecc8     LIBCMT:typinfo.obj
 0002:00004cd0       ??_R1A@?0A@EA@type_info@@8 0044ecd0     LIBCMT:typinfo.obj
 0002:00004cec       ??_R4bad_exception@std@@6B@ 0044ecec     LIBCMT:frame.obj
 0002:00004d00       ??_R3bad_exception@std@@8  0044ed00     LIBCMT:frame.obj
 0002:00004d10       ??_R2bad_exception@std@@8  0044ed10     LIBCMT:frame.obj
 0002:00004d1c       ??_R1A@?0A@EA@bad_exception@std@@8 0044ed1c     LIBCMT:frame.obj
 0002:00004d38       ??_R4DNameNode@@6B@        0044ed38     LIBCMT:undname.obj
 0002:00004d4c       ??_R3DNameNode@@8          0044ed4c     LIBCMT:undname.obj
 0002:00004d5c       ??_R2DNameNode@@8          0044ed5c     LIBCMT:undname.obj
 0002:00004d64       ??_R1A@?0A@EA@DNameNode@@8 0044ed64     LIBCMT:undname.obj
 0002:00004d80       ??_R4charNode@@6B@         0044ed80     LIBCMT:undname.obj
 0002:00004d94       ??_R3charNode@@8           0044ed94     LIBCMT:undname.obj
 0002:00004da4       ??_R2charNode@@8           0044eda4     LIBCMT:undname.obj
 0002:00004db0       ??_R1A@?0A@EA@charNode@@8  0044edb0     LIBCMT:undname.obj
 0002:00004dcc       ??_R4pDNameNode@@6B@       0044edcc     LIBCMT:undname.obj
 0002:00004de0       ??_R3pDNameNode@@8         0044ede0     LIBCMT:undname.obj
 0002:00004df0       ??_R2pDNameNode@@8         0044edf0     LIBCMT:undname.obj
 0002:00004dfc       ??_R1A@?0A@EA@pDNameNode@@8 0044edfc     LIBCMT:undname.obj
 0002:00004e18       ??_R4DNameStatusNode@@6B@  0044ee18     LIBCMT:undname.obj
 0002:00004e2c       ??_R3DNameStatusNode@@8    0044ee2c     LIBCMT:undname.obj
 0002:00004e3c       ??_R2DNameStatusNode@@8    0044ee3c     LIBCMT:undname.obj
 0002:00004e48       ??_R1A@?0A@EA@DNameStatusNode@@8 0044ee48     LIBCMT:undname.obj
 0002:00004e64       ??_R4pcharNode@@6B@        0044ee64     LIBCMT:undname.obj
 0002:00004e78       ??_R3pcharNode@@8          0044ee78     LIBCMT:undname.obj
 0002:00004e88       ??_R2pcharNode@@8          0044ee88     LIBCMT:undname.obj
 0002:00004e94       ??_R1A@?0A@EA@pcharNode@@8 0044ee94     LIBCMT:undname.obj
 0002:00004eb0       ___safe_se_handler_table   0044eeb0     <linker-defined>
 0002:000051bc       ___rtc_iaa                 0044f1bc     LIBCMT:initsect.obj
 0002:000051c0       ___rtc_izz                 0044f1c0     LIBCMT:initsect.obj
 0002:000051c4       ___rtc_taa                 0044f1c4     LIBCMT:initsect.obj
 0002:000051c8       ___rtc_tzz                 0044f1c8     LIBCMT:initsect.obj
 0002:000051d0       __TI2?AVbad_alloc@std@@    0044f1d0     Application.obj
 0002:000051e0       __CTA2?AVbad_alloc@std@@   0044f1e0     Application.obj
 0002:000051ec       __CT??_R0?AVbad_alloc@std@@@8??0bad_alloc@std@@QAE@ABV01@@Z12 0044f1ec     Application.obj
 0002:00005208       __CT??_R0?AVexception@std@@@8??0exception@std@@QAE@ABV01@@Z12 0044f208     Application.obj
 0002:000052dc       __TI2?AVCWin32Exception@Win32@OnlineGameLib@@ 0044f2dc     Event.obj
 0002:00005318       __CTA2?AVCWin32Exception@Win32@OnlineGameLib@@ 0044f318     Event.obj
 0002:00005324       __CT??_R0?AVCWin32Exception@Win32@OnlineGameLib@@@8??0CWin32Exception@Win32@OnlineGameLib@@QAE@ABV012@@Z64 0044f324     Event.obj
 0002:00005340       __CT??_R0?AVCException@Win32@OnlineGameLib@@@8??0CException@Win32@OnlineGameLib@@QAE@ABV012@@Z60 0044f340     Event.obj
 0002:00005438       __TI1?AVCException@Win32@OnlineGameLib@@ 0044f438     Event.obj
 0002:0000547c       __CTA1?AVCException@Win32@OnlineGameLib@@ 0044f47c     Event.obj
 0002:00005774       __TI3?AVout_of_range@std@@ 0044f774     GamePlayer.obj
 0002:000057b0       __CTA3?AVout_of_range@std@@ 0044f7b0     GamePlayer.obj
 0002:000057c0       __CT??_R0?AVout_of_range@std@@@8??0out_of_range@std@@QAE@ABV01@@Z40 0044f7c0     GamePlayer.obj
 0002:000057dc       __CT??_R0?AVlogic_error@std@@@8??0logic_error@std@@QAE@ABV01@@Z40 0044f7dc     GamePlayer.obj
 0002:00005824       __TI3?AVlength_error@std@@ 0044f824     GamePlayer.obj
 0002:00005860       __CTA3?AVlength_error@std@@ 0044f860     GamePlayer.obj
 0002:00005870       __CT??_R0?AVlength_error@std@@@8??0length_error@std@@QAE@ABV01@@Z40 0044f870     GamePlayer.obj
 0002:000058b8       __TI2?AVruntime_error@std@@ 0044f8b8     GamePlayer.obj
 0002:0000591c       __CTA2?AVruntime_error@std@@ 0044f91c     GamePlayer.obj
 0002:00005928       __CT??_R0?AVruntime_error@std@@@8??0runtime_error@std@@QAE@ABV01@@Z40 0044f928     GamePlayer.obj
 0002:000059c8       __TI3?AVfailure@ios_base@std@@ 0044f9c8     GamePlayer.obj
 0002:00005a14       __CTA3?AVfailure@ios_base@std@@ 0044fa14     GamePlayer.obj
 0002:00005a24       __CT??_R0?AVfailure@ios_base@std@@@8??0failure@ios_base@std@@QAE@ABV012@@Z40 0044fa24     GamePlayer.obj
 0002:00005f0c       __TI2?AVbad_cast@std@@     0044ff0c     GamePlayer.obj
 0002:00005f48       __CTA2?AVbad_cast@std@@    0044ff48     GamePlayer.obj
 0002:00005f54       __CT??_R0?AVbad_cast@std@@@8??0bad_cast@std@@QAE@ABV01@@Z12 0044ff54     GamePlayer.obj
 0002:00008520       __TI3?AVinvalid_argument@std@@ 00452520     libcpmt:string.obj
 0002:0000855c       __CTA3?AVinvalid_argument@std@@ 0045255c     libcpmt:string.obj
 0002:0000856c       __CT??_R0?AVinvalid_argument@std@@@8??0invalid_argument@std@@QAE@ABV01@@Z40 0045256c     libcpmt:string.obj
 0002:00008ac4       __TI2?AVbad_exception@std@@ 00452ac4     LIBCMT:frame.obj
 0002:00008ad4       __CTA2?AVbad_exception@std@@ 00452ad4     LIBCMT:frame.obj
 0002:00008ae0       __CT??_R0?AVbad_exception@std@@@8??0bad_exception@std@@QAE@ABV01@@Z12 00452ae0     LIBCMT:frame.obj
 0002:0000916c       ___pobjMapEntryFirst       0045316c     Application.obj
 0002:00009170       ___pobjMapEntryLast        00453170     Application.obj
 0002:00009174       __IMPORT_DESCRIPTOR_KERNEL32 00453174     kernel32:KERNEL32.dll
 0002:00009188       __IMPORT_DESCRIPTOR_USER32 00453188     user32:USER32.dll
 0002:0000919c       __IMPORT_DESCRIPTOR_GDI32  0045319c     gdi32:GDI32.dll
 0002:000091b0       __IMPORT_DESCRIPTOR_ole32  004531b0     ole32:ole32.dll
 0002:000091c4       __IMPORT_DESCRIPTOR_Engine 004531c4     engine:Engine.dll
 0002:000091d8       __IMPORT_DESCRIPTOR_WS2_32 004531d8     ws2_32:WS2_32.dll
 0002:000091ec       __IMPORT_DESCRIPTOR_VERSION 004531ec     Version:VERSION.dll
 0002:00009200       __IMPORT_DESCRIPTOR_ADVAPI32 00453200     advapi32:ADVAPI32.dll
 0002:00009214       __NULL_IMPORT_DESCRIPTOR   00453214     kernel32:KERNEL32.dll
 0003:00000008       ??_R0?AVbad_alloc@std@@@8  00454008     Application.obj
 0003:00000024       ??_R0?AVexception@std@@@8  00454024     Application.obj
 0003:00000040       ??_R0?AUThank_you@Define_the_symbol__ATL_MIXED@@@8 00454040     Application.obj
 0003:00000078       ??_R0?AVCBishopApp@@@8     00454078     Application.obj
 0003:00000094       ?clash@Define_the_symbol__ATL_MIXED@@3UThank_you@1@A 00454094     Application.obj
 0003:000000a0       ??_R0?AVCEvent@Win32@OnlineGameLib@@@8 004540a0     Event.obj
 0003:000000cc       ??_R0?AVCWin32Exception@Win32@OnlineGameLib@@@8 004540cc     Event.obj
 0003:00000100       ??_R0?AVCException@Win32@OnlineGameLib@@@8 00454100     Event.obj
 0003:00000134       ??_R0?AVIPlayer@@@8        00454134     GamePlayer.obj
 0003:0000014c       ??_R0?AVICommand@@@8       0045414c     GamePlayer.obj
 0003:00000164       ??_R0?AVfacet@locale@std@@@8 00454164     GamePlayer.obj
 0003:00000184       ??_R0?AUctype_base@std@@@8 00454184     GamePlayer.obj
 0003:000001a4       ??_R0?AVios_base@std@@@8   004541a4     GamePlayer.obj
 0003:000001c0       ??_R0?AV?$_Iosb@H@std@@@8  004541c0     GamePlayer.obj
 0003:000001dc       ??_R0?AV?$basic_ostream@DU?$char_traits@D@std@@@std@@@8 004541dc     GamePlayer.obj
 0003:00000218       ??_R0?AV?$basic_ios@DU?$char_traits@D@std@@@std@@@8 00454218     GamePlayer.obj
 0003:00000250       ??_R0?AV?$basic_istream@DU?$char_traits@D@std@@@std@@@8 00454250     GamePlayer.obj
 0003:0000028c       ??_R0?AV?$basic_iostream@DU?$char_traits@D@std@@@std@@@8 0045428c     GamePlayer.obj
 0003:000002c8       ??_R0?AV?$basic_streambuf@DU?$char_traits@D@std@@@std@@@8 004542c8     GamePlayer.obj
 0003:00000304       ??_R0?AV?$CTaskCommand@VCGamePlayer@@@@@8 00454304     GamePlayer.obj
 0003:00000330       ??_R0?AVstrstreambuf@std@@@8 00454330     GamePlayer.obj
 0003:00000350       ??_R0?AVstrstream@std@@@8  00454350     GamePlayer.obj
 0003:0000036c       ??_R0?AVlogic_error@std@@@8 0045436c     GamePlayer.obj
 0003:0000038c       ??_R0?AVruntime_error@std@@@8 0045438c     GamePlayer.obj
 0003:000003ac       ??_R0?AVlength_error@std@@@8 004543ac     GamePlayer.obj
 0003:000003cc       ??_R0?AVout_of_range@std@@@8 004543cc     GamePlayer.obj
 0003:000003ec       ??_R0?AVfailure@ios_base@std@@@8 004543ec     GamePlayer.obj
 0003:00000410       ??_R0?AV?$ctype@D@std@@@8  00454410     GamePlayer.obj
 0003:0000042c       ??_R0?AVbad_cast@std@@@8   0045442c     GamePlayer.obj
 0003:00000448       ??_R0?AV?$num_put@DV?$ostreambuf_iterator@DU?$char_traits@D@std@@@std@@@std@@@8 00454448     GamePlayer.obj
 0003:0000049c       ??_R0?AV?$numpunct@D@std@@@8 0045449c     GamePlayer.obj
 0003:000004bc       ??_R0?AVCGamePlayer@@@8    004544bc     GamePlayer.obj
 0003:000004dc       ??_R0?AVIGServer@@@8       004544dc     GameServer.obj
 0003:000004f4       ??_R0?AVCGameServer@@@8    004544f4     GameServer.obj
 0003:00000514       ??_R0?AVCIntercessor@@@8   00454514     Intercessor.obj
 0003:00000534       ??_R0?AVCNetwork@@@8       00454534     Network.obj
 0003:00000554       ??_R0?AVCSmartClient@@@8   00454554     SmartClient.obj
 0003:00000574       ??_R0?AVCMutex@Win32@OnlineGameLib@@@8 00454574     common:Mutex.obj
 0003:000005ac       ??_R0?AVAllocator@CBuffer@Win32@OnlineGameLib@@@8 004545ac     common:Buffer.obj
 0003:000005e0       ??_R0?AVCPackager@Win32@OnlineGameLib@@@8 004545e0     common:Buffer.obj
 0003:00000630       ??_R0?AV?$basic_filebuf@DU?$char_traits@D@std@@@std@@@8 00454630     common:Utils.obj
 0003:0000066c       ??_R0?AVcodecvt_base@std@@@8 0045466c     common:Utils.obj
 0003:0000068c       ??_R0?AV?$codecvt@DDH@std@@@8 0045468c     common:Utils.obj
 0003:000006ac       ??_R0?AV?$basic_fstream@DU?$char_traits@D@std@@@std@@@8 004546ac     common:Utils.obj
 0003:000006ec       ??_R0?AVCLibrary@Win32@OnlineGameLib@@@8 004546ec     common:Library.obj
 0003:00000720       ??_R0?AVinvalid_argument@std@@@8 00454720     libcpmt:string.obj
 0003:0000074c       ??_R0?AV_Locimp@locale@std@@@8 0045474c     libcpmt:locale0.obj
 0003:00000774       ?_Sync@ios_base@std@@0_NA  00454774     libcpmt:ios.obj
 0003:00000788       ?_PJP_CPP_Copyright@@3PADA 00454788     libcpmt:iosptrs.obj
 0003:000007e4       ?g_pfnGetThreadACP@ATL@@3P6GIXZA 004547e4     atls:atltrace.obj
 0003:000007e8       ?rcDefault@CWindow@ATL@@2UtagRECT@@A 004547e8     atls:atltrace.obj
 0003:000007fc       ??_R0?AVbad_typeid@std@@@8 004547fc     LIBCMT:stdexcpt.obj
 0003:0000081c       ??_R0?AV__non_rtti_object@std@@@8 0045481c     LIBCMT:stdexcpt.obj
 0003:00000844       ??_R0?AVtype_info@@@8      00454844     LIBCMT:typinfo.obj
 0003:0000085c       ___security_cookie         0045485c     LIBCMT:gs_cookie.obj
 0003:00000860       ___security_cookie_complement 00454860     LIBCMT:gs_cookie.obj
 0003:00000870       ___lconv_static_decimal    00454870     LIBCMT:lconv.obj
 0003:00000874       ___lconv_c                 00454874     LIBCMT:lconv.obj
 0003:000008a4       ___lconv                   004548a4     LIBCMT:lconv.obj
 0003:000008b0       __fltused                  004548b0     LIBCMT:fpinit.obj
 0003:000008b4       __ldused                   004548b4     LIBCMT:fpinit.obj
 0003:000008c0       ___app_type                004548c0     LIBCMT:wincrt0.obj
 0003:000008d0       __pctype                   004548d0     LIBCMT:ctype.obj
 0003:000008d4       __pwctype                  004548d4     LIBCMT:ctype.obj
 0003:00000a50       ??_R0?AVbad_exception@std@@@8 00454a50     LIBCMT:frame.obj
 0003:00000a70       ___abort_behavior          00454a70     LIBCMT:abort.obj
 0003:00000a80       ___flsindex                00454a80     LIBCMT:tidtable.obj
 0003:00000a84       ___getvalueindex           00454a84     LIBCMT:tidtable.obj
 0003:00000a90       ___nullstring              00454a90     LIBCMT:output.obj
 0003:00000a94       ___wnullstring             00454a94     LIBCMT:output.obj
 0003:00000a98       __aexit_rtn                00454a98     LIBCMT:crt0dat.obj
 0003:00000b58       __amblksiz                 00454b58     LIBCMT:heapinit.obj
 0003:00000c80       ___globallocalestatus      00454c80     LIBCMT:glstatus.obj
 0003:00000c88       ___clocalestr              00454c88     LIBCMT:nlsdata2.obj
 0003:00000c90       ___initiallocinfo          00454c90     LIBCMT:nlsdata2.obj
 0003:00000d68       ___ptlocinfo               00454d68     LIBCMT:nlsdata2.obj
 0003:00000d6c       ___lc_clike                00454d6c     LIBCMT:nlsdata2.obj
 0003:00000d70       ___initiallocalestructinfo 00454d70     LIBCMT:nlsdata2.obj
 0003:00000d78       __cfltcvt_tab              00454d78     LIBCMT:cmiscdat.obj
 0003:00000da0       __XcptActTab               00454da0     LIBCMT:winxfltr.obj
 0003:00000e18       __First_FPE_Indx           00454e18     LIBCMT:winxfltr.obj
 0003:00000e1c       __Num_FPE                  00454e1c     LIBCMT:winxfltr.obj
 0003:00000e20       __XcptActTabSize           00454e20     LIBCMT:winxfltr.obj
 0003:00000e24       __XcptActTabCount          00454e24     LIBCMT:winxfltr.obj
 0003:00000e28       ___badioinfo               00454e28     LIBCMT:ioinit.obj
 0003:00000e60       __iob                      00454e60     LIBCMT:_file.obj
 0003:000010e0       ___initialmbcinfo          004550e0     LIBCMT:mbctype.obj
 0003:00001300       __mbctype                  00455300     LIBCMT:mbctype.obj
 0003:00001408       __mbcasemap                00455408     LIBCMT:mbctype.obj
 0003:00001508       ___ptmbcinfo               00455508     LIBCMT:mbctype.obj
 0003:00001600       ___lc_time_c               00455600     LIBCMT:strftime.obj
 0003:000016b8       ___lc_time_curr            004556b8     LIBCMT:strftime.obj
 0003:000016bc       ___mb_cur_max              004556bc     LIBCMT:nlsdata1.obj
 0003:000016c0       ___decimal_point           004556c0     LIBCMT:nlsdata1.obj
 0003:000016c4       ___decimal_point_length    004556c4     LIBCMT:nlsdata1.obj
 0003:000016d0       ??_R0?AVDNameNode@@@8      004556d0     LIBCMT:undname.obj
 0003:000016e8       ??_R0?AVcharNode@@@8       004556e8     LIBCMT:undname.obj
 0003:00001700       ??_R0?AVpDNameNode@@@8     00455700     LIBCMT:undname.obj
 0003:0000171c       ??_R0?AVDNameStatusNode@@@8 0045571c     LIBCMT:undname.obj
 0003:0000173c       ??_R0?AVpcharNode@@@8      0045573c     LIBCMT:undname.obj
 0003:00001754       __NLG_Destination          00455754     LIBCMT:exsup.obj
 0003:00001770       __lookuptrailbytes         00455770     LIBCMT:read.obj
 0003:00001878       __timezone                 00455878     LIBCMT:timeset.obj
 0003:0000187c       __daylight                 0045587c     LIBCMT:timeset.obj
 0003:00001880       __dstbias                  00455880     LIBCMT:timeset.obj
 0003:00001908       __tzname                   00455908     LIBCMT:timeset.obj
 0003:00001958       __coninpfh                 00455958     LIBCMT:initcon.obj
 0003:0000195c       __confh                    0045595c     LIBCMT:initcon.obj
 0003:00001960       __lpdays                   00455960     LIBCMT:days.obj
 0003:00001994       __days                     00455994     LIBCMT:days.obj
 0003:000019d0       __pow10pos                 004559d0     LIBCMT:constpow.obj
 0003:00001b30       __pow10neg                 00455b30     LIBCMT:constpow.obj
 0003:00001cc0       ?_pAtlAutoThreadModule@ATL@@3PAUIAtlAutoThreadModule@1@A 00455cc0     Application.obj
 0003:00001cc4       ?m_bInitFailed@CAtlBaseModule@ATL@@2_NA 00455cc4     Application.obj
 0003:00001cc8       ?_pPerfRegFunc@ATL@@3P6AJPAUHINSTANCE__@@@ZA 00455cc8     Application.obj
 0003:00001ccc       ?_pPerfUnRegFunc@ATL@@3P6AJXZA 00455ccc     Application.obj
 0003:00001cd0       ?_pAtlModule@ATL@@3PAVCAtlModule@1@A 00455cd0     Application.obj
 0003:00001cd4       ?m_libid@CAtlModule@ATL@@2U_GUID@@A 00455cd4     Application.obj
 0003:00001ce4       ?_pModule@ATL@@3PAVCComModule@1@A 00455ce4     Application.obj
 0003:00001ce8       ?ATL_CREATE_OBJECT@CComApartment@ATL@@2IA 00455ce8     Application.obj
 0003:00001cf0       ?m_hInst@CBishopApp@@0PAUHINSTANCE__@@A 00455cf0     Application.obj
 0003:00001cf4       ?m_pIntercessor@CBishopApp@@0PAVCIntercessor@@A 00455cf4     Application.obj
 0003:00001d00       ?m_theNetwork@CBishopApp@@0VCNetwork@@A 00455d00     Application.obj
 0003:00001d90       ?clash@Inconsistent_definition_of_symbol__ATL_MIXED@@3U_Please_define_it_the_same_throughout_your_project@1@A 00455d90     Application.obj
 0003:00001d94       ?m_slnIdentityCounts@CGamePlayer@@0JA 00455d94     GamePlayer.obj
 0003:00001d98       ?m_lnWorkingCounts@CGamePlayer@@0JA 00455d98     GamePlayer.obj
 0003:00001d9c       ?m_pPlayerServer@CGamePlayer@@0PAUIServer@@A 00455d9c     GamePlayer.obj
 0003:00001da0       ?m_pDBRoleClient@CGamePlayer@@0PAUIClient@@A 00455da0     GamePlayer.obj
 0003:00001da4       ?m_theGlobalAllocator@CGamePlayer@@0VAllocator@CBuffer@Win32@OnlineGameLib@@A 00455da4     GamePlayer.obj
 0003:00001dd8       ?m_csMapSP@CGamePlayer@@0VCCriticalSection@Win32@OnlineGameLib@@A 00455dd8     GamePlayer.obj
 0003:00001df0       ?m_sthePlayerTable@CGamePlayer@@0V?$map@V?$basic_string@DU?$char_traits@D@std@@V?$allocator@D@2@@std@@PAVIPlayer@@U?$less@V?$basic_string@DU?$char_traits@D@std@@V?$allocator@D@2@@std@@@2@V?$allocator@U?$pair@$$CBV?$basic_string@DU?$char_traits@D@std@@V?$allocator@D@2@@std@@PAVIPlayer@@@std@@@2@@std@@A 00455df0     GamePlayer.obj
 0003:00001dfc       ?m_thePlayerCreator@CGamePlayer@@0VCPlayerCreator@@A 00455dfc     GamePlayer.obj
 0003:00001e30       ?_Psave@?$_Facetptr@V?$ctype@D@std@@@std@@2PBVfacet@locale@2@B 00455e30     GamePlayer.obj
 0003:00001e34       ?_Psave@?$_Facetptr@V?$num_put@DV?$ostreambuf_iterator@DU?$char_traits@D@std@@@std@@@std@@@std@@2PBVfacet@locale@2@B 00455e34     GamePlayer.obj
 0003:00001e38       ?_Psave@?$_Facetptr@V?$numpunct@D@std@@@std@@2PBVfacet@locale@2@B 00455e38     GamePlayer.obj
 0003:00001e3c       ?id@?$numpunct@D@std@@2V0locale@2@A 00455e3c     GamePlayer.obj
 0003:00001e40       ?id@?$num_put@DV?$ostreambuf_iterator@DU?$char_traits@D@std@@@std@@@std@@2V0locale@2@A 00455e40     GamePlayer.obj
 0003:00001e44       ?m_shManagerThread@CGameServer@@0PAXA 00455e44     GameServer.obj
 0003:00001e48       ?m_slnIdentityCounts@CGameServer@@0JA 00455e48     GameServer.obj
 0003:00001e4c       ?m_theGlobalAllocator@CGameServer@@0VAllocator@CBuffer@Win32@OnlineGameLib@@A 00455e4c     GameServer.obj
 0003:00001e80       ?m_csMapIDAction@CGameServer@@0VCCriticalSection@Win32@OnlineGameLib@@A 00455e80     GameServer.obj
 0003:00001e98       ?m_theMapIDConvert@CGameServer@@0V?$map@IV?$list@PAVIGServer@@V?$allocator@PAVIGServer@@@std@@@std@@U?$less@I@2@V?$allocator@U?$pair@$$CBIV?$list@PAVIGServer@@V?$allocator@PAVIGServer@@@std@@@std@@@std@@@2@@std@@A 00455e98     GameServer.obj
 0003:00001ea4       ?m_shQuitEvent@CGameServer@@0VCEvent@Win32@OnlineGameLib@@A 00455ea4     GameServer.obj
 0003:00001eac       ?m_shStartupManagerThreadEvent@CGameServer@@0VCEvent@Win32@OnlineGameLib@@A 00455eac     GameServer.obj
 0003:00001eb4       ?m_theGameServers@CGameServer@@0V?$map@IPAVIGServer@@U?$less@I@std@@V?$allocator@U?$pair@$$CBIPAVIGServer@@@std@@@3@@std@@A 00455eb4     GameServer.obj
 0003:00001ec0       ?m_csGameSvrAction@CGameServer@@0VCCriticalSection@Win32@OnlineGameLib@@A 00455ec0     GameServer.obj
 0003:00001ef4       ?m_theHeavenLib@CIntercessor@@1VCLibrary@Win32@OnlineGameLib@@A 00455ef4     Intercessor.obj
 0003:00001f18       ?m_theRainbowLib@CIntercessor@@1VCLibrary@Win32@OnlineGameLib@@A 00455f18     Intercessor.obj
 0003:00001f3c       ?m_theHeavenLib@CNetwork@@1VCLibrary@Win32@OnlineGameLib@@A 00455f3c     Network.obj
 0003:00001f60       ?m_theRainbowLib@CNetwork@@1VCLibrary@Win32@OnlineGameLib@@A 00455f60     Network.obj
 0003:00001f88       ?m_theRainbowLib@CSmartClient@@0VCLibrary@Win32@OnlineGameLib@@A 00455f88     SmartClient.obj
 0003:00001fb0       ?g_theSmartClient@@3VCSmartClient@@A 00455fb0     SmartClient.obj
 0003:000020b0       ?_Stinit@?1??_Init@?$basic_filebuf@DU?$char_traits@D@std@@@std@@IAEXPAU_iobuf@@W4_Initfl@23@@Z@4HA 004560b0     common:Utils.obj
 0003:00002178       ?_Psave@?$_Facetptr@V?$codecvt@DDH@std@@@std@@2PBVfacet@locale@2@B 00456178     common:Utils.obj
 0003:0000217c       ?id@?$codecvt@DDH@std@@2V0locale@2@A 0045617c     common:Utils.obj
 0003:00002180       ?s_criticalSection@Win32@OnlineGameLib@@3VCCriticalSection@12@A 00456180     common:Utils.obj
 0003:00002294       ?_Clocptr@_Locimp@locale@std@@0PAV123@A 00456294     libcpmt:locale0.obj
 0003:00002298       ?_Id_cnt@id@locale@std@@0HA 00456298     libcpmt:locale0.obj
 0003:0000229c       ?id@?$ctype@D@std@@2V0locale@2@A 0045629c     libcpmt:locale0.obj
 0003:000022a0       ?id@?$codecvt@GDH@std@@2V0locale@2@A 004562a0     libcpmt:locale0.obj
 0003:000022a4       ?id@?$ctype@_W@std@@2V0locale@2@A 004562a4     libcpmt:locale0.obj
 0003:000022a8       ?id@?$codecvt@_WDH@std@@2V0locale@2@A 004562a8     libcpmt:locale0.obj
 0003:000022b0       ?id@?$ctype@G@std@@2V0locale@2@A 004562b0     libcpmt:locale0.obj
 0003:000022b8       ?_Fpz@std@@3_JA            004562b8     libcpmt:ios.obj
 0003:000022c0       ?_Index@ios_base@std@@0HA  004562c0     libcpmt:ios.obj
 0003:000023f0       ?_Ptr_cin@std@@3PAV?$basic_istream@DU?$char_traits@D@std@@@1@A 004563f0     libcpmt:iosptrs.obj
 0003:000023f4       ?_Ptr_cout@std@@3PAV?$basic_ostream@DU?$char_traits@D@std@@@1@A 004563f4     libcpmt:iosptrs.obj
 0003:000023f8       ?_Ptr_cerr@std@@3PAV?$basic_ostream@DU?$char_traits@D@std@@@1@A 004563f8     libcpmt:iosptrs.obj
 0003:000023fc       ?_Ptr_clog@std@@3PAV?$basic_ostream@DU?$char_traits@D@std@@@1@A 004563fc     libcpmt:iosptrs.obj
 0003:00002400       ?_Ptr_wcin@std@@3PAV?$basic_istream@_WU?$char_traits@_W@std@@@1@A 00456400     libcpmt:iosptrs.obj
 0003:00002404       ?_Ptr_wcout@std@@3PAV?$basic_ostream@_WU?$char_traits@_W@std@@@1@A 00456404     libcpmt:iosptrs.obj
 0003:00002408       ?_Ptr_wcerr@std@@3PAV?$basic_ostream@_WU?$char_traits@_W@std@@@1@A 00456408     libcpmt:iosptrs.obj
 0003:0000240c       ?_Ptr_wclog@std@@3PAV?$basic_ostream@_WU?$char_traits@_W@std@@@1@A 0045640c     libcpmt:iosptrs.obj
 0003:0000244c       ___pInvalidArgHandler      0045644c     LIBCMT:invarg.obj
 0003:00002450       ___lconv_static_null       00456450     LIBCMT:lconv.obj
 0003:00002454       ___fastflag                00456454     LIBCMT:fpinit.obj
 0003:00002458       __adjust_fdiv              00456458     LIBCMT:fpinit.obj
 0003:0000245c       __aenvptr                  0045645c     LIBCMT:wincrt0.obj
 0003:00002460       __wenvptr                  00456460     LIBCMT:wincrt0.obj
 0003:00002464       ___error_mode              00456464     LIBCMT:wincrt0.obj
 0003:0000246c       __maxwait                  0045646c     LIBCMT:crtheap.obj
 0003:00002470       ___locale_changed          00456470     LIBCMT:setlocal.obj
 0003:000027a4       ?_pnhHeap@@3P6AHI@ZA       004567a4     LIBCMT:handler.obj
 0003:000027a8       _gpFlsAlloc                004567a8     LIBCMT:tidtable.obj
 0003:000027ac       _gpFlsGetValue             004567ac     LIBCMT:tidtable.obj
 0003:000027b0       _gpFlsSetValue             004567b0     LIBCMT:tidtable.obj
 0003:000027b4       _gpFlsFree                 004567b4     LIBCMT:tidtable.obj
 0003:000027b8       ?__pInconsistency@@3P6AXXZA 004567b8     LIBCMT:hooks.obj
 0003:000027bc       __umaskval                 004567bc     LIBCMT:crt0dat.obj
 0003:000027c0       __osplatform               004567c0     LIBCMT:crt0dat.obj
 0003:000027c4       __osver                    004567c4     LIBCMT:crt0dat.obj
 0003:000027c8       __winver                   004567c8     LIBCMT:crt0dat.obj
 0003:000027cc       __winmajor                 004567cc     LIBCMT:crt0dat.obj
 0003:000027d0       __winminor                 004567d0     LIBCMT:crt0dat.obj
 0003:000027d4       ___argc                    004567d4     LIBCMT:crt0dat.obj
 0003:000027d8       ___argv                    004567d8     LIBCMT:crt0dat.obj
 0003:000027dc       ___wargv                   004567dc     LIBCMT:crt0dat.obj
 0003:000027e0       __environ                  004567e0     LIBCMT:crt0dat.obj
 0003:000027e4       ___initenv                 004567e4     LIBCMT:crt0dat.obj
 0003:000027e8       __wenviron                 004567e8     LIBCMT:crt0dat.obj
 0003:000027ec       ___winitenv                004567ec     LIBCMT:crt0dat.obj
 0003:000027f0       __pgmptr                   004567f0     LIBCMT:crt0dat.obj
 0003:000027f4       __wpgmptr                  004567f4     LIBCMT:crt0dat.obj
 0003:000027f8       __exitflag                 004567f8     LIBCMT:crt0dat.obj
 0003:000027fc       __C_Termination_Done       004567fc     LIBCMT:crt0dat.obj
 0003:00002800       __C_Exit_Done              00456800     LIBCMT:crt0dat.obj
 0003:00002b24       ___pPurecall               00456b24     LIBCMT:inithelp.obj
 0003:00002b28       __crtheap                  00456b28     LIBCMT:heapinit.obj
 0003:00002c80       ___sbh_pHeaderDefer        00456c80     LIBCMT:sbheap.obj
 0003:00002c84       ___lc_handle               00456c84     LIBCMT:nlsdata2.obj
 0003:00002c9c       ___lc_codepage             00456c9c     LIBCMT:nlsdata2.obj
 0003:00002ca0       ___lc_collate_cp           00456ca0     LIBCMT:nlsdata2.obj
 0003:00002db4       __cflush                   00456db4     LIBCMT:_file.obj
 0003:00002dbc       ___mbulinfo                00456dbc     LIBCMT:mbctype.obj
 0003:00002dc8       ___mbcodepage              00456dc8     LIBCMT:mbctype.obj
 0003:00002dcc       ___ismbcodepage            00456dcc     LIBCMT:mbctype.obj
 0003:00002dd0       ___mblcid                  00456dd0     LIBCMT:mbctype.obj
 0003:00002dec       __newmode                  00456dec     LIBCMT:_newmode.obj
 0003:00002e04       ?pArgList@UnDecorator@@0PAVReplicator@@A 00456e04     LIBCMT:undname.obj
 0003:00002e08       ?pZNameList@UnDecorator@@0PAVReplicator@@A 00456e08     LIBCMT:undname.obj
 0003:00002e0c       ?pTemplateArgList@UnDecorator@@0PAVReplicator@@A 00456e0c     LIBCMT:undname.obj
 0003:00002e10       ?gName@UnDecorator@@0PBDB  00456e10     LIBCMT:undname.obj
 0003:00002e14       ?name@UnDecorator@@0PBDB   00456e14     LIBCMT:undname.obj
 0003:00002e18       ?outputString@UnDecorator@@0PADA 00456e18     LIBCMT:undname.obj
 0003:00002e1c       ?maxStringLength@UnDecorator@@0HA 00456e1c     LIBCMT:undname.obj
 0003:00002e20       ?disableFlags@UnDecorator@@0KA 00456e20     LIBCMT:undname.obj
 0003:00002e24       ?m_pGetParameter@UnDecorator@@0P6APADJ@ZA 00456e24     LIBCMT:undname.obj
 0003:00002e28       ?fExplicitTemplateParams@UnDecorator@@0_NA 00456e28     LIBCMT:undname.obj
 0003:00002e29       ?fGetTemplateArgumentList@UnDecorator@@0_NA 00456e29     LIBCMT:undname.obj
 0003:00002e54       __outputformat             00456e54     LIBCMT:outputformat.obj
 0003:00002f10       __stdbuf                   00456f10     LIBCMT:_sftbuf.obj
 0003:00002f20       ___piob                    00456f20     <common>
 0003:00002f40       __bufin                    00456f40     <common>
 0003:00003f40       __nstream                  00457f40     <common>
 0003:00003f44       __nhandle                  00457f44     <common>
 0003:00003f60       ___pioinfo                 00457f60     <common>
 0003:00004060       __debugger_hook_dummy      00458060     <common>
 0003:00004064       ___use_sse2_mathfcns       00458064     <common>
 0003:00004068       ___sse2_available          00458068     <common>
 0003:0000406c       ___sbh_initialized         0045806c     <common>
 0003:00004070       ___sbh_cntHeaderList       00458070     <common>
 0003:00004074       ___sbh_pHeaderList         00458074     <common>
 0003:00004078       ___sbh_threshold           00458078     <common>
 0003:0000407c       ___sbh_pHeaderScan         0045807c     <common>
 0003:00004080       ___sbh_sizeHeaderList      00458080     <common>
 0003:00004084       ___sbh_indGroupDefer       00458084     <common>
 0003:00004088       ___active_heap             00458088     <common>
 0003:0000408c       ___env_initialized         0045808c     <common>
 0003:00004090       ___onexitend               00458090     <common>
 0003:00004094       ___onexitbegin             00458094     <common>
 0003:00004098       ___mbctype_initialized     00458098     <common>
 0003:0000409c       ___dyn_tls_init_callback   0045809c     <common>
 0003:000040a0       ___setlc_active            004580a0     <common>
 0003:000040a4       ___unguarded_readlc_active 004580a4     <common>
 0003:000040a8       __acmdln                   004580a8     <common>

 entry point at        0001:00023e43

 Static symbols

 0001:fffff000       __unwindfunclet$??$?HDU?$char_traits@D@std@@V?$allocator@D@1@@std@@YA?AV?$basic_string@DU?$char_traits@D@std@@V?$allocator@D@2@@0@ABV10@PBD@Z$0 00400000 f   common:Utils.obj
 0001:fffff000       __unwindfunclet$??0?$basic_streambuf@DU?$char_traits@D@std@@@std@@IAE@XZ$0 00400000 f   common:Utils.obj
 0001:fffff000       __ehhandler$?_Copy@?$basic_string@DU?$char_traits@D@std@@V?$allocator@D@2@@std@@IAEXII@Z 00400000 f   SmartClient.obj
 0001:fffff000       __ehhandler$?_Copy@?$basic_string@DU?$char_traits@D@std@@V?$allocator@D@2@@std@@IAEXII@Z 00400000 f   Network.obj
 0001:fffff000       __ehhandler$?_Copy@?$basic_string@DU?$char_traits@D@std@@V?$allocator@D@2@@std@@IAEXII@Z 00400000 f   common:Utils.obj
 0001:fffff000       __ehhandler$?_Copy@?$basic_string@DU?$char_traits@D@std@@V?$allocator@D@2@@std@@IAEXII@Z 00400000 f   GamePlayer.obj
 0001:fffff000       __unwindfunclet$??0?$ctype@D@std@@QAE@PBF_NI@Z$0 00400000 f   common:Utils.obj
 0001:fffff000       __unwindfunclet$??0?$basic_ostream@DU?$char_traits@D@std@@@std@@QAE@W4_Uninitialized@1@_N@Z$0 00400000 f   common:Utils.obj
 0001:fffff000       __ehhandler$?_Copy@?$basic_string@DU?$char_traits@D@std@@V?$allocator@D@2@@std@@IAEXII@Z 00400000 f   Event.obj
 0001:fffff000       __unwindfunclet$?clear@ios_base@std@@QAEXH_N@Z$0 00400000 f   common:Utils.obj
 0001:fffff000       __unwindfunclet$??0CException@Win32@OnlineGameLib@@QAE@ABV012@@Z$0 00400000 f   common:Mutex.obj
 0001:fffff000       __ehhandler$?_Copy@?$basic_string@DU?$char_traits@D@std@@V?$allocator@D@2@@std@@IAEXII@Z 00400000 f   common:Buffer.obj
 0001:fffff000       __unwindfunclet$??0logic_error@std@@QAE@ABV?$basic_string@DU?$char_traits@D@std@@V?$allocator@D@2@@1@@Z$0 00400000 f   common:Buffer.obj
 0001:fffff000       __unwindfunclet$??0CException@Win32@OnlineGameLib@@QAE@ABV012@@Z$0 00400000 f   common:Utils.obj
 0001:fffff000       __unwindfunclet$??0logic_error@std@@QAE@ABV01@@Z$0 00400000 f   common:Buffer.obj
 0001:fffff000       __unwindfunclet$??$use_facet@V?$ctype@D@std@@@std@@YAABV?$ctype@D@0@ABVlocale@0@@Z$0 00400000 f   common:Utils.obj
 0001:fffff000       __unwindfunclet$??0CException@Win32@OnlineGameLib@@QAE@ABV012@@Z$0 00400000 f   common:Buffer.obj
 0001:fffff000       __unwindfunclet$?widen@?$basic_ios@DU?$char_traits@D@std@@@std@@QBEDD@Z$0 00400000 f   common:Utils.obj
 0001:fffff000       __ehhandler$?_Copy@?$basic_string@DU?$char_traits@D@std@@V?$allocator@D@2@@std@@IAEXII@Z 00400000 f   common:Mutex.obj
 0001:fffff000       __unwindfunclet$??1_Locinfo@std@@QAE@XZ$0 00400000 f   common:Utils.obj
 0001:fffff000       __unwindfunclet$??0?$basic_istream@DU?$char_traits@D@std@@@std@@QAE@PAV?$basic_streambuf@DU?$char_traits@D@std@@@1@_N@Z$0 00400000 f   common:Utils.obj
 0001:fffff000       __unwindfunclet$??0logic_error@std@@QAE@ABV?$basic_string@DU?$char_traits@D@std@@V?$allocator@D@2@@1@@Z$0 00400000 f   SmartClient.obj
 0001:fffff000       __unwindfunclet$??0?$basic_iostream@DU?$char_traits@D@std@@@std@@QAE@PAV?$basic_streambuf@DU?$char_traits@D@std@@@1@@Z$0 00400000 f   common:Utils.obj
 0001:fffff000       __unwindfunclet$??0logic_error@std@@QAE@ABV01@@Z$0 00400000 f   GameServer.obj
 0001:fffff000       __ehhandler$?_Copy@?$basic_string@DU?$char_traits@D@std@@V?$allocator@D@2@@std@@IAEXII@Z 00400000 f   common:Exception.obj
 0001:fffff000       __unwindfunclet$??0logic_error@std@@QAE@ABV01@@Z$0 00400000 f   SmartClient.obj
 0001:fffff000       __unwindfunclet$??0runtime_error@std@@QAE@ABV01@@Z$0 00400000 f   common:Utils.obj
 0001:fffff000       __unwindfunclet$??0runtime_error@std@@QAE@ABV?$basic_string@DU?$char_traits@D@std@@V?$allocator@D@2@@1@@Z$0 00400000 f   common:Utils.obj
 0001:fffff000       __unwindfunclet$??0_Locinfo@std@@QAE@PBD@Z$0 00400000 f   common:Utils.obj
 0001:fffff000       __unwindfunclet$??0logic_error@std@@QAE@ABV?$basic_string@DU?$char_traits@D@std@@V?$allocator@D@2@@1@@Z$0 00400000 f   GameServer.obj
 0001:fffff000       __ehhandler$?_Copy@?$basic_string@DU?$char_traits@D@std@@V?$allocator@D@2@@std@@IAEXII@Z 00400000 f   common:Library.obj
 0001:fffff000       __ehhandler$?_Copy@?$basic_string@DU?$char_traits@D@std@@V?$allocator@D@2@@std@@IAEXII@Z 00400000 f   common:IniFile.obj
 0001:fffff000       __unwindfunclet$??0logic_error@std@@QAE@ABV?$basic_string@DU?$char_traits@D@std@@V?$allocator@D@2@@1@@Z$0 00400000 f   common:IniFile.obj
 0001:fffff000       __ehhandler$?_Copy@?$basic_string@DU?$char_traits@D@std@@V?$allocator@D@2@@std@@IAEXII@Z 00400000 f   libcpmt:string.obj
 0001:fffff000       __unwindfunclet$?_Xlen@?$vector@V?$basic_string@DU?$char_traits@D@std@@V?$allocator@D@2@@std@@V?$allocator@V?$basic_string@DU?$char_traits@D@std@@V?$allocator@D@2@@std@@@2@@std@@KAXXZ$0 00400000 f   common:IniFile.obj
 0001:fffff000       __unwindfunclet$??0logic_error@std@@QAE@ABV?$basic_string@DU?$char_traits@D@std@@V?$allocator@D@2@@1@@Z$0 00400000 f   libcpmt:string.obj
 0001:fffff000       __ehhandler$?_Copy@?$basic_string@DU?$char_traits@D@std@@V?$allocator@D@2@@std@@IAEXII@Z 00400000 f   GameServer.obj
 0001:fffff000       __unwindfunclet$??0logic_error@std@@QAE@ABV01@@Z$0 00400000 f   Intercessor.obj
 0001:fffff000       __unwindfunclet$??$?HDU?$char_traits@D@std@@V?$allocator@D@1@@std@@YA?AV?$basic_string@DU?$char_traits@D@std@@V?$allocator@D@2@@0@ABV10@PBD@Z$0 00400000 f   PlayerCreator.obj
 0001:fffff000       __unwindfunclet$??0logic_error@std@@QAE@ABV01@@Z$0 00400000 f   common:IniFile.obj
 0001:fffff000       __unwindfunclet$??0logic_error@std@@QAE@ABV01@@Z$0 00400000 f   libcpmt:string.obj
 0001:fffff000       __ehhandler$?_Copy@?$basic_string@DU?$char_traits@D@std@@V?$allocator@D@2@@std@@IAEXII@Z 00400000 f   libcpmt:locale0.obj
 0001:fffff000       __unwindfunclet$?_Getcat@?$ctype@D@std@@SAIPAPBVfacet@locale@2@@Z$0 00400000 f   common:Utils.obj
 0001:fffff000       __unwindfunclet$??0logic_error@std@@QAE@ABV01@@Z$0 00400000 f   PlayerCreator.obj
 0001:fffff000       __unwindfunclet$??0logic_error@std@@QAE@ABV?$basic_string@DU?$char_traits@D@std@@V?$allocator@D@2@@1@@Z$0 00400000 f   Intercessor.obj
 0001:fffff000       __ehhandler$?_Copy@?$basic_string@DU?$char_traits@D@std@@V?$allocator@D@2@@std@@IAEXII@Z 00400000 f   PlayerCreator.obj
 0001:fffff000       __unwindfunclet$??0logic_error@std@@QAE@ABV?$basic_string@DU?$char_traits@D@std@@V?$allocator@D@2@@1@@Z$0 00400000 f   PlayerCreator.obj
 0001:fffff000       __ehhandler$?_Copy@?$basic_string@DU?$char_traits@D@std@@V?$allocator@D@2@@std@@IAEXII@Z 00400000 f   Intercessor.obj
 0001:fffff008       __ehhandler$??0logic_error@std@@QAE@ABV?$basic_string@DU?$char_traits@D@std@@V?$allocator@D@2@@1@@Z 00400008 f   PlayerCreator.obj
 0001:fffff008       __ehhandler$??$?HDU?$char_traits@D@std@@V?$allocator@D@1@@std@@YA?AV?$basic_string@DU?$char_traits@D@std@@V?$allocator@D@2@@0@ABV10@PBD@Z 00400008 f   common:Utils.obj
 0001:fffff008       __ehhandler$??0logic_error@std@@QAE@ABV?$basic_string@DU?$char_traits@D@std@@V?$allocator@D@2@@1@@Z 00400008 f   Intercessor.obj
 0001:fffff008       __ehhandler$??0logic_error@std@@QAE@ABV01@@Z 00400008 f   PlayerCreator.obj
 0001:fffff008       __ehhandler$??0logic_error@std@@QAE@ABV01@@Z 00400008 f   libcpmt:string.obj
 0001:fffff008       __ehhandler$??0logic_error@std@@QAE@ABV01@@Z 00400008 f   common:IniFile.obj
 0001:fffff008       __ehhandler$??0runtime_error@std@@QAE@ABV?$basic_string@DU?$char_traits@D@std@@V?$allocator@D@2@@1@@Z 00400008 f   common:Utils.obj
 0001:fffff008       __ehhandler$??$?HDU?$char_traits@D@std@@V?$allocator@D@1@@std@@YA?AV?$basic_string@DU?$char_traits@D@std@@V?$allocator@D@2@@0@ABV10@PBD@Z 00400008 f   PlayerCreator.obj
 0001:fffff008       __ehhandler$??0logic_error@std@@QAE@ABV?$basic_string@DU?$char_traits@D@std@@V?$allocator@D@2@@1@@Z 00400008 f   libcpmt:string.obj
 0001:fffff008       __ehhandler$?_Xlen@?$vector@V?$basic_string@DU?$char_traits@D@std@@V?$allocator@D@2@@std@@V?$allocator@V?$basic_string@DU?$char_traits@D@std@@V?$allocator@D@2@@std@@@2@@std@@KAXXZ 00400008 f   common:IniFile.obj
 0001:fffff008       __ehhandler$??0logic_error@std@@QAE@ABV?$basic_string@DU?$char_traits@D@std@@V?$allocator@D@2@@1@@Z 00400008 f   common:IniFile.obj
 0001:fffff008       __unwindfunclet$?clear@ios_base@std@@QAEXH_N@Z$1 00400008 f   common:Utils.obj
 0001:fffff008       __unwindfunclet$??0_Locinfo@std@@QAE@PBD@Z$1 00400008 f   common:Utils.obj
 0001:fffff008       __ehhandler$??0logic_error@std@@QAE@ABV?$basic_string@DU?$char_traits@D@std@@V?$allocator@D@2@@1@@Z 00400008 f   common:Buffer.obj
 0001:fffff008       __ehhandler$??0logic_error@std@@QAE@ABV01@@Z 00400008 f   Intercessor.obj
 0001:fffff008       __ehhandler$??0logic_error@std@@QAE@ABV?$basic_string@DU?$char_traits@D@std@@V?$allocator@D@2@@1@@Z 00400008 f   GameServer.obj
 0001:fffff008       __ehhandler$??0logic_error@std@@QAE@ABV01@@Z 00400008 f   SmartClient.obj
 0001:fffff008       __ehhandler$??0runtime_error@std@@QAE@ABV01@@Z 00400008 f   common:Utils.obj
 0001:fffff008       __ehhandler$??0logic_error@std@@QAE@ABV?$basic_string@DU?$char_traits@D@std@@V?$allocator@D@2@@1@@Z 00400008 f   SmartClient.obj
 0001:fffff008       __ehhandler$??0logic_error@std@@QAE@ABV01@@Z 00400008 f   common:Buffer.obj
 0001:fffff008       __ehhandler$??$use_facet@V?$ctype@D@std@@@std@@YAABV?$ctype@D@0@ABVlocale@0@@Z 00400008 f   common:Utils.obj
 0001:fffff008       __ehhandler$??0logic_error@std@@QAE@ABV01@@Z 00400008 f   GameServer.obj
 0001:fffff008       __ehhandler$?widen@?$basic_ios@DU?$char_traits@D@std@@@std@@QBEDD@Z 00400008 f   common:Utils.obj
 0001:fffff008       __unwindfunclet$??1_Locinfo@std@@QAE@XZ$1 00400008 f   common:Utils.obj
 0001:fffff00b       __ehhandler$?_Getcat@?$ctype@D@std@@SAIPAPBVfacet@locale@2@@Z 0040000b f   common:Utils.obj
 0001:fffff00b       __ehhandler$??0?$basic_streambuf@DU?$char_traits@D@std@@@std@@IAE@XZ 0040000b f   common:Utils.obj
 0001:fffff00b       __ehhandler$??0CException@Win32@OnlineGameLib@@QAE@ABV012@@Z 0040000b f   common:Utils.obj
 0001:fffff00b       __ehhandler$??0?$ctype@D@std@@QAE@PBF_NI@Z 0040000b f   common:Utils.obj
 0001:fffff00b       __ehhandler$??0CException@Win32@OnlineGameLib@@QAE@ABV012@@Z 0040000b f   common:Buffer.obj
 0001:fffff00b       __ehhandler$??0CException@Win32@OnlineGameLib@@QAE@ABV012@@Z 0040000b f   common:Mutex.obj
 0001:fffff010       __unwindfunclet$?clear@ios_base@std@@QAEXH_N@Z$2 00400010 f   common:Utils.obj
 0001:fffff013       __unwindfunclet$??1_Locinfo@std@@QAE@XZ$2 00400013 f   common:Utils.obj
 0001:fffff013       __unwindfunclet$??0_Locinfo@std@@QAE@PBD@Z$2 00400013 f   common:Utils.obj
 0001:fffff018       __ehhandler$?clear@ios_base@std@@QAEXH_N@Z 00400018 f   common:Utils.obj
 0001:fffff01c       __ehhandler$??0?$basic_istream@DU?$char_traits@D@std@@@std@@QAE@PAV?$basic_streambuf@DU?$char_traits@D@std@@@1@_N@Z 0040001c f   common:Utils.obj
 0001:fffff01c       __unwindfunclet$??0?$basic_iostream@DU?$char_traits@D@std@@@std@@QAE@PAV?$basic_streambuf@DU?$char_traits@D@std@@@1@@Z$1 0040001c f   common:Utils.obj
 0001:fffff01c       __ehhandler$??0?$basic_ostream@DU?$char_traits@D@std@@@std@@QAE@W4_Uninitialized@1@_N@Z 0040001c f   common:Utils.obj
 0001:fffff01e       __unwindfunclet$??1_Locinfo@std@@QAE@XZ$3 0040001e f   common:Utils.obj
 0001:fffff01e       __unwindfunclet$??0_Locinfo@std@@QAE@PBD@Z$3 0040001e f   common:Utils.obj
 0001:fffff027       __ehhandler$??0?$basic_iostream@DU?$char_traits@D@std@@@std@@QAE@PAV?$basic_streambuf@DU?$char_traits@D@std@@@1@@Z 00400027 f   common:Utils.obj
 0001:fffff029       __unwindfunclet$??1_Locinfo@std@@QAE@XZ$4 00400029 f   common:Utils.obj
 0001:fffff029       __unwindfunclet$??0_Locinfo@std@@QAE@PBD@Z$4 00400029 f   common:Utils.obj
 0001:fffff034       __ehhandler$??1_Locinfo@std@@QAE@XZ 00400034 f   common:Utils.obj
 0001:fffff034       __unwindfunclet$??0_Locinfo@std@@QAE@PBD@Z$5 00400034 f   common:Utils.obj
 0001:fffff03c       __ehhandler$??0_Locinfo@std@@QAE@PBD@Z 0040003c f   common:Utils.obj
 0001:fffff05b       __catch$?_Copy@?$basic_string@DU?$char_traits@D@std@@V?$allocator@D@2@@std@@IAEXII@Z$0 0040005b f   libcpmt:string.obj
 0001:fffff05b       __catch$?_Copy@?$basic_string@DU?$char_traits@D@std@@V?$allocator@D@2@@std@@IAEXII@Z$0 0040005b f   libcpmt:locale0.obj
 0001:fffff07d       __catch$?_Copy@?$basic_string@DU?$char_traits@D@std@@V?$allocator@D@2@@std@@IAEXII@Z$0 0040007d f   common:Utils.obj
 0001:fffff07d       __catch$?_Copy@?$basic_string@DU?$char_traits@D@std@@V?$allocator@D@2@@std@@IAEXII@Z$0 0040007d f   GamePlayer.obj
 0001:fffff07d       __catch$?_Copy@?$basic_string@DU?$char_traits@D@std@@V?$allocator@D@2@@std@@IAEXII@Z$0 0040007d f   common:Mutex.obj
 0001:fffff07d       __catch$?_Copy@?$basic_string@DU?$char_traits@D@std@@V?$allocator@D@2@@std@@IAEXII@Z$0 0040007d f   Intercessor.obj
 0001:fffff07d       __catch$?_Copy@?$basic_string@DU?$char_traits@D@std@@V?$allocator@D@2@@std@@IAEXII@Z$0 0040007d f   SmartClient.obj
 0001:fffff07d       __catch$?_Copy@?$basic_string@DU?$char_traits@D@std@@V?$allocator@D@2@@std@@IAEXII@Z$0 0040007d f   PlayerCreator.obj
 0001:fffff07d       __catch$?_Copy@?$basic_string@DU?$char_traits@D@std@@V?$allocator@D@2@@std@@IAEXII@Z$0 0040007d f   Event.obj
 0001:fffff07d       __catch$?_Copy@?$basic_string@DU?$char_traits@D@std@@V?$allocator@D@2@@std@@IAEXII@Z$0 0040007d f   common:Library.obj
 0001:fffff07d       __catch$?_Copy@?$basic_string@DU?$char_traits@D@std@@V?$allocator@D@2@@std@@IAEXII@Z$0 0040007d f   common:Buffer.obj
 0001:fffff07d       __catch$?_Copy@?$basic_string@DU?$char_traits@D@std@@V?$allocator@D@2@@std@@IAEXII@Z$0 0040007d f   GameServer.obj
 0001:fffff07d       __catch$?_Copy@?$basic_string@DU?$char_traits@D@std@@V?$allocator@D@2@@std@@IAEXII@Z$0 0040007d f   common:IniFile.obj
 0001:fffff07d       __catch$?_Copy@?$basic_string@DU?$char_traits@D@std@@V?$allocator@D@2@@std@@IAEXII@Z$0 0040007d f   common:Exception.obj
 0001:fffff07d       __catch$?_Copy@?$basic_string@DU?$char_traits@D@std@@V?$allocator@D@2@@std@@IAEXII@Z$0 0040007d f   Network.obj
 0001:fffff0cd       __catch$?_Copy@?$basic_string@DU?$char_traits@D@std@@V?$allocator@D@2@@std@@IAEXII@Z$1 004000cd f   libcpmt:locale0.obj
 0001:fffff0cd       __catch$?_Copy@?$basic_string@DU?$char_traits@D@std@@V?$allocator@D@2@@std@@IAEXII@Z$1 004000cd f   libcpmt:string.obj
 0001:fffff110       __catch$?_Copy@?$basic_string@DU?$char_traits@D@std@@V?$allocator@D@2@@std@@IAEXII@Z$1 00400110 f   GameServer.obj
 0001:fffff110       __catch$?_Copy@?$basic_string@DU?$char_traits@D@std@@V?$allocator@D@2@@std@@IAEXII@Z$1 00400110 f   common:Buffer.obj
 0001:fffff110       __catch$?_Copy@?$basic_string@DU?$char_traits@D@std@@V?$allocator@D@2@@std@@IAEXII@Z$1 00400110 f   PlayerCreator.obj
 0001:fffff110       __catch$?_Copy@?$basic_string@DU?$char_traits@D@std@@V?$allocator@D@2@@std@@IAEXII@Z$1 00400110 f   SmartClient.obj
 0001:fffff110       __catch$?_Copy@?$basic_string@DU?$char_traits@D@std@@V?$allocator@D@2@@std@@IAEXII@Z$1 00400110 f   Event.obj
 0001:fffff110       __catch$?_Copy@?$basic_string@DU?$char_traits@D@std@@V?$allocator@D@2@@std@@IAEXII@Z$1 00400110 f   common:Exception.obj
 0001:fffff110       __catch$?_Copy@?$basic_string@DU?$char_traits@D@std@@V?$allocator@D@2@@std@@IAEXII@Z$1 00400110 f   Intercessor.obj
 0001:fffff110       __catch$?_Copy@?$basic_string@DU?$char_traits@D@std@@V?$allocator@D@2@@std@@IAEXII@Z$1 00400110 f   common:Library.obj
 0001:fffff110       __catch$?_Copy@?$basic_string@DU?$char_traits@D@std@@V?$allocator@D@2@@std@@IAEXII@Z$1 00400110 f   common:Mutex.obj
 0001:fffff110       __catch$?_Copy@?$basic_string@DU?$char_traits@D@std@@V?$allocator@D@2@@std@@IAEXII@Z$1 00400110 f   common:Utils.obj
 0001:fffff110       __catch$?_Copy@?$basic_string@DU?$char_traits@D@std@@V?$allocator@D@2@@std@@IAEXII@Z$1 00400110 f   GamePlayer.obj
 0001:fffff110       __catch$?_Copy@?$basic_string@DU?$char_traits@D@std@@V?$allocator@D@2@@std@@IAEXII@Z$1 00400110 f   Network.obj
 0001:fffff110       __catch$?_Copy@?$basic_string@DU?$char_traits@D@std@@V?$allocator@D@2@@std@@IAEXII@Z$1 00400110 f   common:IniFile.obj
 0001:000001c0       _time                      004011c0 f   Application.obj
 0001:00000e1d       __catch$?_Copy@?$basic_string@DU?$char_traits@D@std@@V?$allocator@D@2@@std@@IAEXII@Z$0 00401e1d f i Application.obj
 0001:00000eb0       __catch$?_Copy@?$basic_string@DU?$char_traits@D@std@@V?$allocator@D@2@@std@@IAEXII@Z$1 00401eb0 f i Application.obj
 0001:00001ac0       ?Create@Win32@OnlineGameLib@@YAPAXPAU_SECURITY_ATTRIBUTES@@_N1PBD@Z 00402ac0 f   Event.obj
 0001:00002857       __catch$?DETACH_NETWORK@CGamePlayer@@SAXXZ$0 00403857 f   GamePlayer.obj
 0001:0000288f       __catch$?DETACH_NETWORK@CGamePlayer@@SAXXZ$2 0040388f f   GamePlayer.obj
 0001:000029b0       __catch$?_QueryRoleInfo_ToDBRole@CGamePlayer@@IAE_NPBD@Z$0 004039b0 f   GamePlayer.obj
 0001:00004ff4       __catch$?_UnlockAccount@CGamePlayer@@IAE_NXZ$0 00405ff4 f   GamePlayer.obj
 0001:00005fa3       __catch$??1CTask@CGamePlayer@@QAE@XZ$0 00406fa3 f   GamePlayer.obj
 0001:000073a1       __catch$?Empty@CDataQueue@CGamePlayer@@QAEXXZ$0 004083a1 f   GamePlayer.obj
 0001:00007587       __catch$?Clear@CDataQueue@CGamePlayer@@QAEXJ@Z$0 00408587 f   GamePlayer.obj
 0001:0000769f       __catch$?WaitForAccPwd@CGamePlayer@@IAEIXZ$0 0040869f f   GamePlayer.obj
 0001:0000786f       __catch$?QueryAccPwd@CGamePlayer@@IAEIXZ$0 0040886f f   GamePlayer.obj
 0001:00007950       __catch$?VerifyAccount@CGamePlayer@@IAEIXZ$0 00408950 f   GamePlayer.obj
 0001:00007a7a       __catch$?QueryRoleList@CGamePlayer@@IAEIXZ$0 00408a7a f   GamePlayer.obj
 0001:00007b37       __catch$?ProcessRoleList@CGamePlayer@@IAEIXZ$0 00408b37 f   GamePlayer.obj
 0001:00007c50       __catch$?DelRole_WaitForVerify@CGamePlayer@@IAEIXZ$0 00408c50 f   GamePlayer.obj
 0001:00007ca2       __catch$?DelRole_WaitForVerify@CGamePlayer@@IAEIXZ$2 00408ca2 f   GamePlayer.obj
 0001:00007dad       __catch$?WaitForCreateResult@CGamePlayer@@IAEIXZ$0 00408dad f   GamePlayer.obj
 0001:00007eb1       __catch$?WaitForDeleteResult@CGamePlayer@@IAEIXZ$0 00408eb1 f   GamePlayer.obj
 0001:00007ffd       __catch$?WaitForGameSvrPermit@CGamePlayer@@IAEIXZ$0 00408ffd f   GamePlayer.obj
 0001:000085dd       __catch$?_Buynode@?$_Tree@V?$_Tmap_traits@V?$basic_string@DU?$char_traits@D@std@@V?$allocator@D@2@@std@@PAVIPlayer@@U?$less@V?$basic_string@DU?$char_traits@D@std@@V?$allocator@D@2@@std@@@2@V?$allocator@U?$pair@$$CBV?$basic_string@DU?$char_traits@D@std@@V?$allocator@D@2@@std@@PAVIPlayer@@@std@@@2@$0A@@std@@@std@@IAEPAU_Node@?$_Tree_nod@V?$_Tmap_traits@V?$basic_string@DU?$char_traits@D@std@@V?$allocator@D@2@@std@@PAVIPlayer@@U?$less@V?$basic_string@DU?$char_traits@D@std@@V?$allocator@D@2@@std@@@2@V?$allocator@U?$pair@$$CBV?$basic_string@DU?$char_traits@D@std@@V?$allocator@D@2@@std@@PAVIPlayer@@@std@@@2@$0A@@std@@@2@PAU342@00ABU?$pair@$$CBV?$basic_string@DU?$char_traits@D@std@@V?$allocator@D@2@@std@@PAVIPlayer@@@2@D@Z$0 004095dd f i GamePlayer.obj
 0001:00008bff       __catch$?_Init@?$numpunct@D@std@@IAEXABV_Locinfo@2@@Z$0 00409bff f i GamePlayer.obj
 0001:000096cc       __catch$?AddData@CDataQueue@CGamePlayer@@QAE_NJPBEI@Z$0 0040a6cc f   GamePlayer.obj
 0001:000096e4       __catch$?AddData@CDataQueue@CGamePlayer@@QAE_NJPBEI@Z$2 0040a6e4 f   GamePlayer.obj
 0001:00009720       __catch$?AddData@CDataQueue@CGamePlayer@@QAE_NJPBEI@Z$4 0040a720 f   GamePlayer.obj
 0001:0000997b       __catch$?_CreateNewPlayer_ToDBRole@CGamePlayer@@IAE_NPBDHHG@Z$0 0040a97b f   GamePlayer.obj
 0001:0000998d       __catch$?_CreateNewPlayer_ToDBRole@CGamePlayer@@IAE_NPBDHHG@Z$2 0040a98d f   GamePlayer.obj
 0001:0000a348       __catch$?LargePackProcess@CGamePlayer@@IAE_NIPBXI@Z$0 0040b348 f   GamePlayer.obj
 0001:0000a3ee       __catch$?SelAddDelRole@CGamePlayer@@IAEIXZ$0 0040b3ee f   GamePlayer.obj
 0001:0000a47b       __catch$?SelAddDelRole@CGamePlayer@@IAEIXZ$2 0040b47b f   GamePlayer.obj
 0001:0000a517       __catch$?SelAddDelRole@CGamePlayer@@IAEIXZ$4 0040b517 f   GamePlayer.obj
 0001:0000aaf3       __catch$?_Osfx@?$basic_ostream@DU?$char_traits@D@std@@@std@@QAEXXZ$0 0040baf3 f i GamePlayer.obj
 0001:0000b513       __catch$??6?$basic_ostream@DU?$char_traits@D@std@@@std@@QAEAAV01@J@Z$0 0040c513 f i GamePlayer.obj
 0001:0000c48b       __catch$?put@?$basic_ostream@DU?$char_traits@D@std@@@std@@QAEAAV12@D@Z$0 0040d48b f i GamePlayer.obj
 0001:0000cd1f       __catch$?ProcessRoleInfo@CGamePlayer@@IAEIXZ$0 0040dd1f f   GamePlayer.obj
 0001:0000d380       ?GenGuid@@YAXPAU_GUID@@@Z  0040e380 f   GameServer.obj
 0001:0000d6ae       __catch$?ConsumeMoney@CGameServer@@IAE_NPBD@Z$0 0040e6ae f   GameServer.obj
 0001:0000d7cd       __catch$?FreezeMoney@CGameServer@@IAE_NPBDG@Z$0 0040e7cd f   GameServer.obj
 0001:0000d96e       __catch$?_SyncRoleInfo@CGameServer@@IAE_NPBXIG@Z$0 0040e96e f   GameServer.obj
 0001:0000fb98       __catch$?ManagerThreadFunction@CGameServer@@CGKPAX@Z$0 00410b98 f   GameServer.obj
 0001:00010e6d       __catch$?_Buynode@?$_Tree@V?$_Tmap_traits@V?$basic_string@DU?$char_traits@D@std@@V?$allocator@D@2@@std@@PAXU?$less@V?$basic_string@DU?$char_traits@D@std@@V?$allocator@D@2@@std@@@2@V?$allocator@U?$pair@$$CBV?$basic_string@DU?$char_traits@D@std@@V?$allocator@D@2@@std@@PAX@std@@@2@$0A@@std@@@std@@IAEPAU_Node@?$_Tree_nod@V?$_Tmap_traits@V?$basic_string@DU?$char_traits@D@std@@V?$allocator@D@2@@std@@PAXU?$less@V?$basic_string@DU?$char_traits@D@std@@V?$allocator@D@2@@std@@@2@V?$allocator@U?$pair@$$CBV?$basic_string@DU?$char_traits@D@std@@V?$allocator@D@2@@std@@PAX@std@@@2@$0A@@std@@@2@PAU342@00ABU?$pair@$$CBV?$basic_string@DU?$char_traits@D@std@@V?$allocator@D@2@@std@@PAX@2@D@Z$0 00411e6d f i GameServer.obj
 0001:00010f9a       __catch$??$_Insert@V?$_Const_iterator@$00@?$list@PAVIGServer@@V?$allocator@PAVIGServer@@@std@@@std@@@?$list@PAVIGServer@@V?$allocator@PAVIGServer@@@std@@@std@@QAEXV?$_Iterator@$00@01@V?$_Const_iterator@$00@01@1Uforward_iterator_tag@1@@Z$0 00411f9a f i GameServer.obj
 0001:00011c57       __catch$??0?$list@PAVIGServer@@V?$allocator@PAVIGServer@@@std@@@std@@QAE@ABV01@@Z$0 00412c57 f i GameServer.obj
 0001:00012371       __catch$?_Buynode@?$_Tree@V?$_Tmap_traits@IV?$list@PAVIGServer@@V?$allocator@PAVIGServer@@@std@@@std@@U?$less@I@2@V?$allocator@U?$pair@$$CBIV?$list@PAVIGServer@@V?$allocator@PAVIGServer@@@std@@@std@@@std@@@2@$0A@@std@@@std@@IAEPAU_Node@?$_Tree_nod@V?$_Tmap_traits@IV?$list@PAVIGServer@@V?$allocator@PAVIGServer@@@std@@@std@@U?$less@I@2@V?$allocator@U?$pair@$$CBIV?$list@PAVIGServer@@V?$allocator@PAVIGServer@@@std@@@std@@@std@@@2@$0A@@std@@@2@PAU342@00ABU?$pair@$$CBIV?$list@PAVIGServer@@V?$allocator@PAVIGServer@@@std@@@std@@@2@D@Z$0 00413371 f i GameServer.obj
 0001:00012a20       __catch$?GameSvrEventNotify@CGameServer@@SGXPAXABK1@Z$0 00413a20 f   GameServer.obj
 0001:00013ead       __catch$?CleanNetwork@CIntercessor@@IAEXXZ$0 00414ead f   Intercessor.obj
 0001:00013fb0       __catch$?CleanNetwork@CIntercessor@@IAEXXZ$2 00414fb0 f   Intercessor.obj
 0001:00013fc8       __catch$?CleanNetwork@CIntercessor@@IAEXXZ$4 00414fc8 f   Intercessor.obj
 0001:00013fda       __catch$?CleanNetwork@CIntercessor@@IAEXXZ$6 00414fda f   Intercessor.obj
 0001:00014894       __catch$?PlayerEventNotify@CIntercessor@@SGXPAXABK1@Z$0 00415894 f   Intercessor.obj
 0001:00014979       __catch$?StartupNetwork@CIntercessor@@IAE_NXZ$0 00415979 f   Intercessor.obj
 0001:00014d7e       __catch$?HelperThreadFunction@CIntercessor@@KGKPAX@Z$0 00415d7e f   Intercessor.obj
 0001:00014dee       __catch$?WorkingThreadFunction@CIntercessor@@KGKPAX@Z$0 00415dee f   Intercessor.obj
 0001:00017fc1       __catch$?_Buynode@?$_Tree@V?$_Tmap_traits@IV?$vector@IV?$allocator@I@std@@@std@@U?$less@I@2@V?$allocator@U?$pair@$$CBIV?$vector@IV?$allocator@I@std@@@std@@@std@@@2@$0A@@std@@@std@@IAEPAU_Node@?$_Tree_nod@V?$_Tmap_traits@IV?$vector@IV?$allocator@I@std@@@std@@U?$less@I@2@V?$allocator@U?$pair@$$CBIV?$vector@IV?$allocator@I@std@@@std@@@std@@@2@$0A@@std@@@2@PAU342@00ABU?$pair@$$CBIV?$vector@IV?$allocator@I@std@@@std@@@2@D@Z$0 00418fc1 f i PlayerCreator.obj
 0001:00019664       __catch$?_Connect@CSmartClient@@IAEPAUIClient@@XZ$0 0041a664 f   SmartClient.obj
 0001:000196dc       __catch$?_Connect@CSmartClient@@IAEPAUIClient@@XZ$2 0041a6dc f   SmartClient.obj
 0001:00019827       __catch$??1CSmartClient@@UAE@XZ$0 0041a827 f   SmartClient.obj
 0001:00019b57       __catch$?Send@CSmartClient@@QAE_NQBXABI@Z$0 0041ab57 f   SmartClient.obj
 0001:00019f57       __catch$?WorkingThreadFunction@CSmartClient@@SGKPAX@Z$0 0041af57 f   SmartClient.obj
 0001:00019fa5       __catch$?WorkingThreadFunction@CSmartClient@@SGKPAX@Z$2 0041afa5 f   SmartClient.obj
 0001:00019fc7       __catch$?WorkingThreadFunction@CSmartClient@@SGKPAX@Z$4 0041afc7 f   SmartClient.obj
 0001:0001a147       __catch$?Open@CSmartClient@@QAE_NQBDGPAUHWND__@@PBD2_N@Z$0 0041b147 f   SmartClient.obj
 0001:0001a360       ?Create@Win32@OnlineGameLib@@YAPAXPAU_SECURITY_ATTRIBUTES@@HHPBD@Z 0041b360 f   common:Mutex.obj
 0001:0001b26d       __catch$?DestroyBuffer@Allocator@CBuffer@Win32@OnlineGameLib@@AAEXPAV234@@Z$0 0041c26d f i common:Buffer.obj
 0001:0001b588       __catch$??1Allocator@CBuffer@Win32@OnlineGameLib@@UAE@XZ$0 0041c588 f   common:Buffer.obj
 0001:0001c48b       __catch$?Empty@CPackager@Win32@OnlineGameLib@@QAEXXZ$0 0041d48b f   common:Buffer.obj
 0001:0001c549       __catch$?Empty@CPackager@Win32@OnlineGameLib@@QAEXXZ$2 0041d549 f   common:Buffer.obj
 0001:0001cc4f       __catch$?DelData@CPackager@Win32@OnlineGameLib@@QAEXE@Z$0 0041dc4f f   common:Buffer.obj
 0001:0002087b       __catch$??$_Uninit_fill_n@PAV?$basic_string@DU?$char_traits@D@std@@V?$allocator@D@2@@std@@IV12@V?$allocator@V?$basic_string@DU?$char_traits@D@std@@V?$allocator@D@2@@std@@@2@@std@@YAXPAV?$basic_string@DU?$char_traits@D@std@@V?$allocator@D@2@@0@IABV10@AAV?$allocator@V?$basic_string@DU?$char_traits@D@std@@V?$allocator@D@2@@std@@@0@U_Nonscalar_ptr_iterator_tag@0@U_Range_checked_iterator_tag@0@@Z$0 0042187b f i common:IniFile.obj
 0001:000209a4       __catch$??$_Uninit_move@PAV?$basic_string@DU?$char_traits@D@std@@V?$allocator@D@2@@std@@PAV12@V?$allocator@V?$basic_string@DU?$char_traits@D@std@@V?$allocator@D@2@@std@@@2@@std@@YAPAV?$basic_string@DU?$char_traits@D@std@@V?$allocator@D@2@@0@PAV10@00AAV?$allocator@V?$basic_string@DU?$char_traits@D@std@@V?$allocator@D@2@@std@@@0@U_Swap_move_tag@0@U_Range_checked_iterator_tag@0@@Z$0 004219a4 f i common:IniFile.obj
 0001:00020ea5       __catch$?_Insert_n@?$vector@V?$basic_string@DU?$char_traits@D@std@@V?$allocator@D@2@@std@@V?$allocator@V?$basic_string@DU?$char_traits@D@std@@V?$allocator@D@2@@std@@@2@@std@@IAEXV?$_Vector_iterator@V?$basic_string@DU?$char_traits@D@std@@V?$allocator@D@2@@std@@V?$allocator@V?$basic_string@DU?$char_traits@D@std@@V?$allocator@D@2@@std@@@2@@2@IABV?$basic_string@DU?$char_traits@D@std@@V?$allocator@D@2@@2@@Z$0 00421ea5 f i common:IniFile.obj
 0001:00020f5f       __catch$?_Insert_n@?$vector@V?$basic_string@DU?$char_traits@D@std@@V?$allocator@D@2@@std@@V?$allocator@V?$basic_string@DU?$char_traits@D@std@@V?$allocator@D@2@@std@@@2@@std@@IAEXV?$_Vector_iterator@V?$basic_string@DU?$char_traits@D@std@@V?$allocator@D@2@@std@@V?$allocator@V?$basic_string@DU?$char_traits@D@std@@V?$allocator@D@2@@std@@@2@@2@IABV?$basic_string@DU?$char_traits@D@std@@V?$allocator@D@2@@2@@Z$2 00421f5f f i common:IniFile.obj
 0001:00021a46       _tidy_global               00422a46 f   libcpmt:locale0.obj
 0001:00022049       __CreateLocForCP           00423049 f   libcpmt:xmbtowc.obj
 0001:0002211b       __ReleaseCPLocHash         0042311b f   libcpmt:xmbtowc.obj
 0001:00022159       __InitCPLocHash            00423159 f   libcpmt:xmbtowc.obj
 0001:00022ae8       ?CatchGuardHandler@@YA?AW4_EXCEPTION_DISPOSITION@@PAUEHExceptionRecord@@PAUCatchGuardRN@@PAX2@Z 00423ae8 f   LIBCMT:trnsctrl.obj
 0001:00022bed       ?TranslatorGuardHandler@@YA?AW4_EXCEPTION_DISPOSITION@@PAUEHExceptionRecord@@PAUTranslatorGuardRN@@PAX2@Z 00423bed f   LIBCMT:trnsctrl.obj
 0001:00022fb3       __onexit_nolock            00423fb3 f   LIBCMT:onexit.obj
 0001:0002380d       ?ArrayUnwindFilter@@YAHPAU_EXCEPTION_POINTERS@@@Z 0042480d f   LIBCMT:ehvecdtr.obj
 0001:00023bfe       _fast_error_exit           00424bfe f   LIBCMT:wincrt0.obj
 0001:00023c22       _check_managed_app         00424c22 f   LIBCMT:wincrt0.obj
 0001:00023c63       ___tmainCRTStartup         00424c63 f   LIBCMT:wincrt0.obj
 0001:000249ae       _flsall                    004259ae f   LIBCMT:fflush.obj
 0001:000259e2       ?strncnt@@YAHPBDH@Z        004269e2 f   LIBCMT:a_map.obj
 0001:000259fc       ?__crtLCMapStringA_stat@@YAHPAUlocaleinfo_struct@@KKPBDHPADHHH@Z 004269fc f   LIBCMT:a_map.obj
 0001:0002674f       __copytlocinfo_nolock      0042774f f   LIBCMT:setlocal.obj
 0001:00026773       __updatetlocinfoEx_nolock  00427773 f   LIBCMT:setlocal.obj
 0001:0002688d       _sync_legacy_variables_lk  0042788d f   LIBCMT:setlocal.obj
 0001:00026bdd       __setlocale_get_all        00427bdd f   LIBCMT:setlocal.obj
 0001:00026f22       __setlocale_set_cat        00427f22 f   LIBCMT:setlocal.obj
 0001:00027218       __setlocale_nolock         00428218 f   LIBCMT:setlocal.obj
 0001:00027815       ?ExFilterRethrow@@YAHPAU_EXCEPTION_POINTERS@@@Z 00428815 f   LIBCMT:frame.obj
 0001:00027bf4       ?IsInExceptionSpec@@YAEPAUEHExceptionRecord@@PBU_s_ESTypeList@@@Z 00428bf4 f   LIBCMT:frame.obj
 0001:00027c6d       ?CallUnexpected@@YAXPBU_s_ESTypeList@@@Z 00428c6d f   LIBCMT:frame.obj
 0001:00027c9e       __catch$?CallUnexpected@@YAXPBU_s_ESTypeList@@@Z$0 00428c9e f   LIBCMT:frame.obj
 0001:00027cb6       ?Is_bad_exception_allowed@@YAEPBU_s_ESTypeList@@@Z 00428cb6 f   LIBCMT:frame.obj
 0001:00027d68       ?CallCatchBlock@@YAPAXPAUEHExceptionRecord@@PAUEHRegistrationNode@@PAU_CONTEXT@@PBU_s_FuncInfo@@PAXHK@Z 00428d68 f   LIBCMT:frame.obj
 0001:00028257       ?CatchIt@@YAXPAUEHExceptionRecord@@PAUEHRegistrationNode@@PAU_CONTEXT@@PAXPBU_s_FuncInfo@@PBU_s_HandlerType@@PBU_s_CatchableType@@PBU_s_TryBlockMapEntry@@H1E@Z 00429257 f   LIBCMT:frame.obj
 0001:000282c3       ?FindHandlerForForeignException@@YAXPAUEHExceptionRecord@@PAUEHRegistrationNode@@PAU_CONTEXT@@PAXPBU_s_FuncInfo@@HH1@Z 004292c3 f   LIBCMT:frame.obj
 0001:000283b5       ?FindHandler@@YAXPAUEHExceptionRecord@@PAUEHRegistrationNode@@PAU_CONTEXT@@PAXPBU_s_FuncInfo@@EH1@Z 004293b5 f   LIBCMT:frame.obj
 0001:00028807       _xtoa_s@20                 00429807 f   LIBCMT:xtoas.obj
 0001:00028947       @x64toa_s@24               00429947 f   LIBCMT:xtoas.obj
 0001:0002933f       __use_encode_pointer       0042a33f f   LIBCMT:tidtable.obj
 0001:00029bec       _write_char                0042abec f   LIBCMT:output.obj
 0001:00029c1f       _write_multi_char          0042ac1f f   LIBCMT:output.obj
 0001:00029c43       _write_string              0042ac43 f   LIBCMT:output.obj
 0001:0002abd8       __initterm                 0042bbd8 f   LIBCMT:crt0dat.obj
 0001:0002ae37       _doexit                    0042be37 f   LIBCMT:crt0dat.obj
 0001:0002b010       _ValidateLocalCookies      0042c010 f   LIBCMT:chandler4.obj
 0001:0002c81a       _fastcopy_I                0042d81a f   LIBCMT:p4_memcpy.obj
 0001:0002c9b4       _fastzero_I                0042d9b4 f   LIBCMT:p4_memset.obj
 0001:0002cbfd       __shift                    0042dbfd f   LIBCMT:cvt.obj
 0001:0002cc36       __cftoe2_l                 0042dc36 f   LIBCMT:cvt.obj
 0001:0002d21e       __cftof2_l                 0042e21e f   LIBCMT:cvt.obj
 0001:0002d651       ?strtoxl@@YAKPAUlocaleinfo_struct@@PBDPAPBDHH@Z 0042e651 f   LIBCMT:strtol.obj
 0001:0002d905       ?strtoxq@@YA_KPAUlocaleinfo_struct@@PBDPAPBDHH@Z 0042e905 f   LIBCMT:strtoq.obj
 0001:0002dca7       _xcptlookup                0042eca7 f   LIBCMT:winxfltr.obj
 0001:0002df94       _parse_cmdline             0042ef94 f   LIBCMT:stdargv.obj
 0001:0002fa26       ?CPtoLCID@@YAHH@Z          00430a26 f   LIBCMT:mbctype.obj
 0001:0002fa55       ?setSBCS@@YAXPAUthreadmbcinfostruct@@@Z 00430a55 f   LIBCMT:mbctype.obj
 0001:0002faaa       ?setSBUpLow@@YAXPAUthreadmbcinfostruct@@@Z 00430aaa f   LIBCMT:mbctype.obj
 0001:0002fcd8       ?getSystemCP@@YAHH@Z       00430cd8 f   LIBCMT:mbctype.obj
 0001:00030664       ?__crtGetStringTypeA_stat@@YAHPAUlocaleinfo_struct@@KPBDHPAGHHH@Z 00431664 f   LIBCMT:a_str.obj
 0001:00030c4d       __get_lc_time              00431c4d f   LIBCMT:inittime.obj
 0001:00031269       _fix_grouping              00432269 f   LIBCMT:initnum.obj
 0001:000314a4       _fix_grouping              004324a4 f   LIBCMT:initmon.obj
 0001:00031d93       ?_store_str@@YAXPADPAPADPAI@Z 00432d93 f   LIBCMT:strftime.obj
 0001:00031db3       ?_store_number@@YAXHPAPADPAI@Z 00432db3 f   LIBCMT:strftime.obj
 0001:00031de9       ?_store_num@@YAXHHPAPADPAII@Z 00432de9 f   LIBCMT:strftime.obj
 0001:00031e62       ?_expandtime@@YAHPAUlocaleinfo_struct@@DPBUtm@@PAPADPAIPAU__lc_time_data@@I@Z 00432e62 f   LIBCMT:strftime.obj
 0001:00032248       ?_store_winword@@YAHPAUlocaleinfo_struct@@HPBUtm@@PAPADPAIPAU__lc_time_data@@@Z 00433248 f   LIBCMT:strftime.obj
 0001:000329d1       _TranslateName             004339d1 f   LIBCMT:getqloc.obj
 0001:00032a31       _GetLcidFromDefault        00433a31 f   LIBCMT:getqloc.obj
 0001:00032a45       _ProcessCodePage           00433a45 f   LIBCMT:getqloc.obj
 0001:00032abc       _TestDefaultCountry        00433abc f   LIBCMT:getqloc.obj
 0001:00032ada       _LcidFromHexString         00433ada f   LIBCMT:getqloc.obj
 0001:00032b0c       _GetPrimaryLen             00433b0c f   LIBCMT:getqloc.obj
 0001:00032b27       _CountryEnumProc@4         00433b27 f   LIBCMT:getqloc.obj
 0001:00032bbd       _TestDefaultLanguage       00433bbd f   LIBCMT:getqloc.obj
 0001:00032c2f       _LangCountryEnumProc@4     00433c2f f   LIBCMT:getqloc.obj
 0001:00032dff       _LanguageEnumProc@4        00433dff f   LIBCMT:getqloc.obj
 0001:00032ebe       _GetLcidFromCountry        00433ebe f   LIBCMT:getqloc.obj
 0001:00032eea       _GetLcidFromLangCountry    00433eea f   LIBCMT:getqloc.obj
 0001:00032f4f       _GetLcidFromLanguage       00433f4f f   LIBCMT:getqloc.obj
 0001:0003316e       _cmpResult                 0043416e f   LIBCMT:memcmp.obj
 0001:00033180       _cmpBYTE                   00434180 f   LIBCMT:memcmp.obj
 0001:00033198       _cmpWORD                   00434198 f   LIBCMT:memcmp.obj
 0001:000331d8       _cmpDWORD                  004341d8 f   LIBCMT:memcmp.obj
 0001:00033250       _unaligned_memcmp          00434250 f   LIBCMT:memcmp.obj
 0001:00035f3e       _ctrlevent_capture@4       00436f3e f   LIBCMT:winsig.obj
 0001:00035fd9       _siglookup                 00436fd9 f   LIBCMT:winsig.obj
 0001:00036d62       ?und_strlen@@YAIPBD@Z      00437d62 f   LIBCMT:undname.obj
 0001:00036d70       ?und_strncpy@@YAPADPADPBDI@Z 00437d70 f   LIBCMT:undname.obj
 0001:00036d90       ?und_strncmp@@YAIPBD0I@Z   00437d90 f   LIBCMT:undname.obj
 0001:0003b7e0       __unwind_handler           0043c7e0 f   LIBCMT:exsup.obj
 0001:0003bf67       _write_char                0043cf67 f   LIBCMT:outputp.obj
 0001:0003bf9a       _write_multi_char          0043cf9a f   LIBCMT:outputp.obj
 0001:0003bfbe       _write_string              0043cfbe f   LIBCMT:outputp.obj
 0001:0003cfa0       _write_char                0043dfa0 f   LIBCMT:outputs.obj
 0001:0003cfd3       _write_multi_char          0043dfd3 f   LIBCMT:outputs.obj
 0001:0003cff7       _write_string              0043dff7 f   LIBCMT:outputs.obj
 0001:0003dc53       ___crtInitCritSecNoSpinCount@8 0043ec53 f   LIBCMT:initcrit.obj
 0001:0003ddb8       __unwind_handler4          0043edb8 f   LIBCMT:exsup4.obj
 0001:0003e08e       ?__crtGetLocaleInfoW_stat@@YAHPAUlocaleinfo_struct@@KKPA_WHH@Z 0043f08e f   LIBCMT:w_loc.obj
 0001:0003e204       ?__crtGetLocaleInfoA_stat@@YAHPAUlocaleinfo_struct@@KKPADHH@Z 0043f204 f   LIBCMT:a_loc.obj
 0001:0003e37c       _has_osfxsr_set            0043f37c f   LIBCMT:cpu_disp.obj
 0001:0003ebe4       ?x_ismbbtype_l@@YAHPAUlocaleinfo_struct@@IHH@Z 0043fbe4 f   LIBCMT:ismbbyte.obj
 0001:0003ffbc       __tzset_nolock             00440fbc f   LIBCMT:tzset.obj
 0001:00040305       _cvtdate                   00441305 f   LIBCMT:tzset.obj
 0001:000404fa       __isindst_nolock           004414fa f   LIBCMT:tzset.obj
 0001:00043597       __abstract_cw              00444597 f   LIBCMT:ieee87.obj
 0001:0004362b       __hw_cw                    0044462b f   LIBCMT:ieee87.obj
 0001:000436b9       __abstract_sw              004446b9 f   LIBCMT:ieee87.obj
 0001:000436f7       ___abstract_cw_sse2        004446f7 f   LIBCMT:ieee87.obj
 0001:00043794       ___hw_cw_sse2              00444794 f   LIBCMT:ieee87.obj
 0001:00043834       ___abstract_sw_sse2        00444834 f   LIBCMT:ieee87.obj
 0001:00043872       ___fpreset_sse2            00444872 f   LIBCMT:ieee87.obj
 0001:00043944       ___statusfp_sse2           00444944 f   LIBCMT:ieee87.obj
 0001:0004397f       ___clearfp_sse2            0044497f f   LIBCMT:ieee87.obj
 0001:000439ca       ___control87_sse2          004449ca f   LIBCMT:ieee87.obj
 0001:00044604       ?__crtGetStringTypeW_stat@@YAHPAUlocaleinfo_struct@@KPB_WHPAGHH@Z 00445604 f   LIBCMT:w_str.obj
 0001:000448e7       __getenv_s_helper          004458e7 f   LIBCMT:getenv.obj
 0001:0004497a       __dupenv_s_helper          0044597a f   LIBCMT:getenv.obj
 0001:000451ee       ?strncnt@@YAHPBDH@Z        004461ee f   LIBCMT:a_cmp.obj
 0001:00045208       ?__crtCompareStringA_stat@@YAHPAUlocaleinfo_struct@@KKPBDH1HH@Z 00446208 f   LIBCMT:a_cmp.obj
 0001:000456f0       _findenv                   004466f0 f   LIBCMT:setenv.obj
 0001:0004573d       _copy_environ              0044673d f   LIBCMT:setenv.obj
 0001:00045e20       __ehhandler$?_Copy@?$basic_string@DU?$char_traits@D@std@@V?$allocator@D@2@@std@@IAEXII@Z 00446e20 f   Application.obj
 0001:00045e40       __unwindfunclet$?Run@CBishopApp@@QAEHXZ$0 00446e40 f   Application.obj
 0001:00045e4b       __ehhandler$?Run@CBishopApp@@QAEHXZ 00446e4b f   Application.obj
 0001:00045e70       __unwindfunclet$?Create@Win32@OnlineGameLib@@YAPAXPAU_SECURITY_ATTRIBUTES@@_N1PBD@Z$0 00446e70 f   Event.obj
 0001:00045e78       __ehhandler$?Create@Win32@OnlineGameLib@@YAPAXPAU_SECURITY_ATTRIBUTES@@_N1PBD@Z 00446e78 f   Event.obj
 0001:00045ea0       __unwindfunclet$??0CException@Win32@OnlineGameLib@@QAE@ABV012@@Z$0 00446ea0 f   Event.obj
 0001:00045eab       __ehhandler$??0CException@Win32@OnlineGameLib@@QAE@ABV012@@Z 00446eab f   Event.obj
 0001:00045ed0       __unwindfunclet$?Wait@CEvent@Win32@OnlineGameLib@@QBE_NK@Z$0 00446ed0 f   Event.obj
 0001:00045ed8       __ehhandler$?Wait@CEvent@Win32@OnlineGameLib@@QBE_NK@Z 00446ed8 f   Event.obj
 0001:00045f00       __unwindfunclet$?Reset@CEvent@Win32@OnlineGameLib@@QAEXXZ$0 00446f00 f   Event.obj
 0001:00045f08       __ehhandler$?Reset@CEvent@Win32@OnlineGameLib@@QAEXXZ 00446f08 f   Event.obj
 0001:00045f30       __unwindfunclet$?Set@CEvent@Win32@OnlineGameLib@@QAEXXZ$0 00446f30 f   Event.obj
 0001:00045f38       __ehhandler$?Set@CEvent@Win32@OnlineGameLib@@QAEXXZ 00446f38 f   Event.obj
 0001:00045f60       __unwindfunclet$?Pulse@CEvent@Win32@OnlineGameLib@@QAEXXZ$0 00446f60 f   Event.obj
 0001:00045f68       __ehhandler$?Pulse@CEvent@Win32@OnlineGameLib@@QAEXXZ 00446f68 f   Event.obj
 0001:00045f90       __unwindfunclet$?Wait@CEvent@Win32@OnlineGameLib@@QBEXXZ$0 00446f90 f   Event.obj
 0001:00045f98       __unwindfunclet$?Wait@CEvent@Win32@OnlineGameLib@@QBEXXZ$1 00446f98 f   Event.obj
 0001:00045fa0       __ehhandler$?Wait@CEvent@Win32@OnlineGameLib@@QBEXXZ 00446fa0 f   Event.obj
 0001:00045fc0       __ehhandler$?DETACH_NETWORK@CGamePlayer@@SAXXZ 00446fc0 f   GamePlayer.obj
 0001:00045fe0       __ehhandler$?_QueryRoleInfo_ToDBRole@CGamePlayer@@IAE_NPBD@Z 00446fe0 f   GamePlayer.obj
 0001:00046000       __unwindfunclet$??0?$basic_ostream@DU?$char_traits@D@std@@@std@@QAE@W4_Uninitialized@1@_N@Z$0 00447000 f   GamePlayer.obj
 0001:0004601c       __ehhandler$??0?$basic_ostream@DU?$char_traits@D@std@@@std@@QAE@W4_Uninitialized@1@_N@Z 0044701c f   GamePlayer.obj
 0001:00046040       __unwindfunclet$??0?$basic_streambuf@DU?$char_traits@D@std@@@std@@IAE@XZ$0 00447040 f   GamePlayer.obj
 0001:0004604b       __ehhandler$??0?$basic_streambuf@DU?$char_traits@D@std@@@std@@IAE@XZ 0044704b f   GamePlayer.obj
 0001:00046070       __unwindfunclet$??1strstreambuf@std@@UAE@XZ$0 00447070 f   GamePlayer.obj
 0001:00046078       __ehhandler$??1strstreambuf@std@@UAE@XZ 00447078 f   GamePlayer.obj
 0001:000460a0       __unwindfunclet$??1strstream@std@@UAE@XZ$0 004470a0 f   GamePlayer.obj
 0001:000460ab       __ehhandler$??1strstream@std@@UAE@XZ 004470ab f   GamePlayer.obj
 0001:000460d0       __ehhandler$?_UnlockAccount@CGamePlayer@@IAE_NXZ 004470d0 f   GamePlayer.obj
 0001:00046100       __unwindfunclet$??1_Locinfo@std@@QAE@XZ$0 00447100 f   GamePlayer.obj
 0001:00046108       __unwindfunclet$??1_Locinfo@std@@QAE@XZ$1 00447108 f   GamePlayer.obj
 0001:00046113       __unwindfunclet$??1_Locinfo@std@@QAE@XZ$2 00447113 f   GamePlayer.obj
 0001:0004611e       __unwindfunclet$??1_Locinfo@std@@QAE@XZ$3 0044711e f   GamePlayer.obj
 0001:00046129       __unwindfunclet$??1_Locinfo@std@@QAE@XZ$4 00447129 f   GamePlayer.obj
 0001:00046134       __ehhandler$??1_Locinfo@std@@QAE@XZ 00447134 f   GamePlayer.obj
 0001:00046150       __unwindfunclet$??1CTask@CGamePlayer@@QAE@XZ$2 00447150 f   GamePlayer.obj
 0001:0004615b       __ehhandler$??1CTask@CGamePlayer@@QAE@XZ 0044715b f   GamePlayer.obj
 0001:00046180       __unwindfunclet$??0logic_error@std@@QAE@ABV?$basic_string@DU?$char_traits@D@std@@V?$allocator@D@2@@1@@Z$0 00447180 f   GamePlayer.obj
 0001:00046188       __ehhandler$??0logic_error@std@@QAE@ABV?$basic_string@DU?$char_traits@D@std@@V?$allocator@D@2@@1@@Z 00447188 f   GamePlayer.obj
 0001:000461b0       __unwindfunclet$??0runtime_error@std@@QAE@ABV?$basic_string@DU?$char_traits@D@std@@V?$allocator@D@2@@1@@Z$0 004471b0 f   GamePlayer.obj
 0001:000461b8       __ehhandler$??0runtime_error@std@@QAE@ABV?$basic_string@DU?$char_traits@D@std@@V?$allocator@D@2@@1@@Z 004471b8 f   GamePlayer.obj
 0001:000461e0       __unwindfunclet$?erase@?$_Tree@V?$_Tmap_traits@JPAVCBuffer@Win32@OnlineGameLib@@U?$less@J@std@@V?$allocator@U?$pair@$$CBJPAVCBuffer@Win32@OnlineGameLib@@@std@@@5@$0A@@std@@@std@@QAE?AViterator@12@V312@@Z$0 004471e0 f   GamePlayer.obj
 0001:000461e8       __ehhandler$?erase@?$_Tree@V?$_Tmap_traits@JPAVCBuffer@Win32@OnlineGameLib@@U?$less@J@std@@V?$allocator@U?$pair@$$CBJPAVCBuffer@Win32@OnlineGameLib@@@std@@@5@$0A@@std@@@std@@QAE?AViterator@12@V312@@Z 004471e8 f   GamePlayer.obj
 0001:00046210       __unwindfunclet$??0logic_error@std@@QAE@ABV01@@Z$0 00447210 f   GamePlayer.obj
 0001:00046218       __ehhandler$??0logic_error@std@@QAE@ABV01@@Z 00447218 f   GamePlayer.obj
 0001:00046240       __unwindfunclet$?_Insert@?$_Tree@V?$_Tmap_traits@JPAVCBuffer@Win32@OnlineGameLib@@U?$less@J@std@@V?$allocator@U?$pair@$$CBJPAVCBuffer@Win32@OnlineGameLib@@@std@@@5@$0A@@std@@@std@@IAE?AViterator@12@_NPAU_Node@?$_Tree_nod@V?$_Tmap_traits@JPAVCBuffer@Win32@OnlineGameLib@@U?$less@J@std@@V?$allocator@U?$pair@$$CBJPAVCBuffer@Win32@OnlineGameLib@@@std@@@5@$0A@@std@@@2@ABU?$pair@$$CBJPAVCBuffer@Win32@OnlineGameLib@@@2@@Z$0 00447240 f   GamePlayer.obj
 0001:00046248       __ehhandler$?_Insert@?$_Tree@V?$_Tmap_traits@JPAVCBuffer@Win32@OnlineGameLib@@U?$less@J@std@@V?$allocator@U?$pair@$$CBJPAVCBuffer@Win32@OnlineGameLib@@@std@@@5@$0A@@std@@@std@@IAE?AViterator@12@_NPAU_Node@?$_Tree_nod@V?$_Tmap_traits@JPAVCBuffer@Win32@OnlineGameLib@@U?$less@J@std@@V?$allocator@U?$pair@$$CBJPAVCBuffer@Win32@OnlineGameLib@@@std@@@5@$0A@@std@@@2@ABU?$pair@$$CBJPAVCBuffer@Win32@OnlineGameLib@@@2@@Z 00447248 f   GamePlayer.obj
 0001:00046270       __unwindfunclet$?_Xlen@?$vector@PAVICommand@@V?$allocator@PAVICommand@@@std@@@std@@KAXXZ$0 00447270 f   GamePlayer.obj
 0001:00046278       __ehhandler$?_Xlen@?$vector@PAVICommand@@V?$allocator@PAVICommand@@@std@@@std@@KAXXZ 00447278 f   GamePlayer.obj
 0001:000462a0       __unwindfunclet$??0_Locinfo@std@@QAE@PBD@Z$0 004472a0 f   GamePlayer.obj
 0001:000462a8       __unwindfunclet$??0_Locinfo@std@@QAE@PBD@Z$1 004472a8 f   GamePlayer.obj
 0001:000462b3       __unwindfunclet$??0_Locinfo@std@@QAE@PBD@Z$2 004472b3 f   GamePlayer.obj
 0001:000462be       __unwindfunclet$??0_Locinfo@std@@QAE@PBD@Z$3 004472be f   GamePlayer.obj
 0001:000462c9       __unwindfunclet$??0_Locinfo@std@@QAE@PBD@Z$4 004472c9 f   GamePlayer.obj
 0001:000462d4       __unwindfunclet$??0_Locinfo@std@@QAE@PBD@Z$5 004472d4 f   GamePlayer.obj
 0001:000462dc       __ehhandler$??0_Locinfo@std@@QAE@PBD@Z 004472dc f   GamePlayer.obj
 0001:00046300       __unwindfunclet$??0runtime_error@std@@QAE@ABV01@@Z$0 00447300 f   GamePlayer.obj
 0001:00046308       __ehhandler$??0runtime_error@std@@QAE@ABV01@@Z 00447308 f   GamePlayer.obj
 0001:00046330       __unwindfunclet$??0?$ctype@D@std@@QAE@PBF_NI@Z$0 00447330 f   GamePlayer.obj
 0001:0004633b       __ehhandler$??0?$ctype@D@std@@QAE@PBF_NI@Z 0044733b f   GamePlayer.obj
 0001:00046370       __unwindfunclet$?_Getcat@?$ctype@D@std@@SAIPAPBVfacet@locale@2@@Z$0 00447370 f   GamePlayer.obj
 0001:0004637b       __ehhandler$?_Getcat@?$ctype@D@std@@SAIPAPBVfacet@locale@2@@Z 0044737b f   GamePlayer.obj
 0001:000463a0       __unwindfunclet$?clear@ios_base@std@@QAEXH_N@Z$0 004473a0 f   GamePlayer.obj
 0001:000463a8       __unwindfunclet$?clear@ios_base@std@@QAEXH_N@Z$1 004473a8 f   GamePlayer.obj
 0001:000463b0       __unwindfunclet$?clear@ios_base@std@@QAEXH_N@Z$2 004473b0 f   GamePlayer.obj
 0001:000463b8       __ehhandler$?clear@ios_base@std@@QAEXH_N@Z 004473b8 f   GamePlayer.obj
 0001:000463e0       __unwindfunclet$?Empty@CDataQueue@CGamePlayer@@QAEXXZ$2 004473e0 f   GamePlayer.obj
 0001:000463e8       __ehhandler$?Empty@CDataQueue@CGamePlayer@@QAEXXZ 004473e8 f   GamePlayer.obj
 0001:00046410       __unwindfunclet$?Attach@CDataQueue@CGamePlayer@@QAEPAVCBuffer@Win32@OnlineGameLib@@J@Z$0 00447410 f   GamePlayer.obj
 0001:00046418       __ehhandler$?Attach@CDataQueue@CGamePlayer@@QAEPAVCBuffer@Win32@OnlineGameLib@@J@Z 00447418 f   GamePlayer.obj
 0001:00046440       __unwindfunclet$?Clear@CDataQueue@CGamePlayer@@QAEXJ@Z$2 00447440 f   GamePlayer.obj
 0001:00046448       __ehhandler$?Clear@CDataQueue@CGamePlayer@@QAEXJ@Z 00447448 f   GamePlayer.obj
 0001:00046470       __ehhandler$?WaitForAccPwd@CGamePlayer@@IAEIXZ 00447470 f   GamePlayer.obj
 0001:00046490       __ehhandler$?QueryAccPwd@CGamePlayer@@IAEIXZ 00447490 f   GamePlayer.obj
 0001:000464c0       __ehhandler$?VerifyAccount@CGamePlayer@@IAEIXZ 004474c0 f   GamePlayer.obj
 0001:000464e0       __ehhandler$?QueryRoleList@CGamePlayer@@IAEIXZ 004474e0 f   GamePlayer.obj
 0001:00046500       __ehhandler$?ProcessRoleList@CGamePlayer@@IAEIXZ 00447500 f   GamePlayer.obj
 0001:00046520       __ehhandler$?DelRole_WaitForVerify@CGamePlayer@@IAEIXZ 00447520 f   GamePlayer.obj
 0001:00046550       __ehhandler$?WaitForCreateResult@CGamePlayer@@IAEIXZ 00447550 f   GamePlayer.obj
 0001:00046580       __ehhandler$?WaitForDeleteResult@CGamePlayer@@IAEIXZ 00447580 f   GamePlayer.obj
 0001:000465b0       __ehhandler$?WaitForGameSvrPermit@CGamePlayer@@IAEIXZ 004475b0 f   GamePlayer.obj
 0001:000465d0       __unwindfunclet$?Get@CGamePlayer@@SAPAVIPlayer@@PBD@Z$0 004475d0 f   GamePlayer.obj
 0001:000465d8       __unwindfunclet$?Get@CGamePlayer@@SAPAVIPlayer@@PBD@Z$1 004475d8 f   GamePlayer.obj
 0001:000465e0       __ehhandler$?Get@CGamePlayer@@SAPAVIPlayer@@PBD@Z 004475e0 f   GamePlayer.obj
 0001:00046600       __unwindfunclet$?_Buynode@?$_Tree@V?$_Tmap_traits@V?$basic_string@DU?$char_traits@D@std@@V?$allocator@D@2@@std@@PAVIPlayer@@U?$less@V?$basic_string@DU?$char_traits@D@std@@V?$allocator@D@2@@std@@@2@V?$allocator@U?$pair@$$CBV?$basic_string@DU?$char_traits@D@std@@V?$allocator@D@2@@std@@PAVIPlayer@@@std@@@2@$0A@@std@@@std@@IAEPAU_Node@?$_Tree_nod@V?$_Tmap_traits@V?$basic_string@DU?$char_traits@D@std@@V?$allocator@D@2@@std@@PAVIPlayer@@U?$less@V?$basic_string@DU?$char_traits@D@std@@V?$allocator@D@2@@std@@@2@V?$allocator@U?$pair@$$CBV?$basic_string@DU?$char_traits@D@std@@V?$allocator@D@2@@std@@PAVIPlayer@@@std@@@2@$0A@@std@@@2@PAU342@00ABU?$pair@$$CBV?$basic_string@DU?$char_traits@D@std@@V?$allocator@D@2@@std@@PAVIPlayer@@@2@D@Z$2 00447600 f   GamePlayer.obj
 0001:00046611       __ehhandler$?_Buynode@?$_Tree@V?$_Tmap_traits@V?$basic_string@DU?$char_traits@D@std@@V?$allocator@D@2@@std@@PAVIPlayer@@U?$less@V?$basic_string@DU?$char_traits@D@std@@V?$allocator@D@2@@std@@@2@V?$allocator@U?$pair@$$CBV?$basic_string@DU?$char_traits@D@std@@V?$allocator@D@2@@std@@PAVIPlayer@@@std@@@2@$0A@@std@@@std@@IAEPAU_Node@?$_Tree_nod@V?$_Tmap_traits@V?$basic_string@DU?$char_traits@D@std@@V?$allocator@D@2@@std@@PAVIPlayer@@U?$less@V?$basic_string@DU?$char_traits@D@std@@V?$allocator@D@2@@std@@@2@V?$allocator@U?$pair@$$CBV?$basic_string@DU?$char_traits@D@std@@V?$allocator@D@2@@std@@PAVIPlayer@@@std@@@2@$0A@@std@@@2@PAU342@00ABU?$pair@$$CBV?$basic_string@DU?$char_traits@D@std@@V?$allocator@D@2@@std@@PAVIPlayer@@@2@D@Z 00447611 f   GamePlayer.obj
 0001:00046630       __unwindfunclet$??$use_facet@V?$ctype@D@std@@@std@@YAABV?$ctype@D@0@ABVlocale@0@@Z$0 00447630 f   GamePlayer.obj
 0001:00046638       __ehhandler$??$use_facet@V?$ctype@D@std@@@std@@YAABV?$ctype@D@0@ABVlocale@0@@Z 00447638 f   GamePlayer.obj
 0001:00046660       __unwindfunclet$??0?$num_put@DV?$ostreambuf_iterator@DU?$char_traits@D@std@@@std@@@std@@QAE@I@Z$0 00447660 f   GamePlayer.obj
 0001:0004666b       __ehhandler$??0?$num_put@DV?$ostreambuf_iterator@DU?$char_traits@D@std@@@std@@@std@@QAE@I@Z 0044766b f   GamePlayer.obj
 0001:000466a0       __ehhandler$?_Init@?$numpunct@D@std@@IAEXABV_Locinfo@2@@Z 004476a0 f   GamePlayer.obj
 0001:000466c0       __unwindfunclet$??0?$numpunct@D@std@@QAE@I@Z$0 004476c0 f   GamePlayer.obj
 0001:000466cb       __unwindfunclet$??0?$numpunct@D@std@@QAE@I@Z$1 004476cb f   GamePlayer.obj
 0001:000466d6       __ehhandler$??0?$numpunct@D@std@@QAE@I@Z 004476d6 f   GamePlayer.obj
 0001:00046710       __unwindfunclet$??1CDataQueue@CGamePlayer@@QAE@XZ$0 00447710 f   GamePlayer.obj
 0001:00046718       __unwindfunclet$??1CDataQueue@CGamePlayer@@QAE@XZ$1 00447718 f   GamePlayer.obj
 0001:00046723       __unwindfunclet$??1CDataQueue@CGamePlayer@@QAE@XZ$2 00447723 f   GamePlayer.obj
 0001:0004672e       __ehhandler$??1CDataQueue@CGamePlayer@@QAE@XZ 0044772e f   GamePlayer.obj
 0001:00046750       __unwindfunclet$?AddData@CDataQueue@CGamePlayer@@QAE_NJPBEI@Z$6 00447750 f   GamePlayer.obj
 0001:00046758       __ehhandler$?AddData@CDataQueue@CGamePlayer@@QAE_NJPBEI@Z 00447758 f   GamePlayer.obj
 0001:00046780       __ehhandler$?_CreateNewPlayer_ToDBRole@CGamePlayer@@IAE_NPBDHHG@Z 00447780 f   GamePlayer.obj
 0001:000467b0       __unwindfunclet$?erase@?$_Tree@V?$_Tmap_traits@V?$basic_string@DU?$char_traits@D@std@@V?$allocator@D@2@@std@@PAVIPlayer@@U?$less@V?$basic_string@DU?$char_traits@D@std@@V?$allocator@D@2@@std@@@2@V?$allocator@U?$pair@$$CBV?$basic_string@DU?$char_traits@D@std@@V?$allocator@D@2@@std@@PAVIPlayer@@@std@@@2@$0A@@std@@@std@@QAE?AViterator@12@V312@@Z$0 004477b0 f   GamePlayer.obj
 0001:000467b8       __ehhandler$?erase@?$_Tree@V?$_Tmap_traits@V?$basic_string@DU?$char_traits@D@std@@V?$allocator@D@2@@std@@PAVIPlayer@@U?$less@V?$basic_string@DU?$char_traits@D@std@@V?$allocator@D@2@@std@@@2@V?$allocator@U?$pair@$$CBV?$basic_string@DU?$char_traits@D@std@@V?$allocator@D@2@@std@@PAVIPlayer@@@std@@@2@$0A@@std@@@std@@QAE?AViterator@12@V312@@Z 004477b8 f   GamePlayer.obj
 0001:000467e0       __unwindfunclet$?_Insert@?$_Tree@V?$_Tmap_traits@V?$basic_string@DU?$char_traits@D@std@@V?$allocator@D@2@@std@@PAVIPlayer@@U?$less@V?$basic_string@DU?$char_traits@D@std@@V?$allocator@D@2@@std@@@2@V?$allocator@U?$pair@$$CBV?$basic_string@DU?$char_traits@D@std@@V?$allocator@D@2@@std@@PAVIPlayer@@@std@@@2@$0A@@std@@@std@@IAE?AViterator@12@_NPAU_Node@?$_Tree_nod@V?$_Tmap_traits@V?$basic_string@DU?$char_traits@D@std@@V?$allocator@D@2@@std@@PAVIPlayer@@U?$less@V?$basic_string@DU?$char_traits@D@std@@V?$allocator@D@2@@std@@@2@V?$allocator@U?$pair@$$CBV?$basic_string@DU?$char_traits@D@std@@V?$allocator@D@2@@std@@PAVIPlayer@@@std@@@2@$0A@@std@@@2@ABU?$pair@$$CBV?$basic_string@DU?$char_traits@D@std@@V?$allocator@D@2@@std@@PAVIPlayer@@@2@@Z$0 004477e0 f   GamePlayer.obj
 0001:000467e8       __ehhandler$?_Insert@?$_Tree@V?$_Tmap_traits@V?$basic_string@DU?$char_traits@D@std@@V?$allocator@D@2@@std@@PAVIPlayer@@U?$less@V?$basic_string@DU?$char_traits@D@std@@V?$allocator@D@2@@std@@@2@V?$allocator@U?$pair@$$CBV?$basic_string@DU?$char_traits@D@std@@V?$allocator@D@2@@std@@PAVIPlayer@@@std@@@2@$0A@@std@@@std@@IAE?AViterator@12@_NPAU_Node@?$_Tree_nod@V?$_Tmap_traits@V?$basic_string@DU?$char_traits@D@std@@V?$allocator@D@2@@std@@PAVIPlayer@@U?$less@V?$basic_string@DU?$char_traits@D@std@@V?$allocator@D@2@@std@@@2@V?$allocator@U?$pair@$$CBV?$basic_string@DU?$char_traits@D@std@@V?$allocator@D@2@@std@@PAVIPlayer@@@std@@@2@$0A@@std@@@2@ABU?$pair@$$CBV?$basic_string@DU?$char_traits@D@std@@V?$allocator@D@2@@std@@PAVIPlayer@@@2@@Z 004477e8 f   GamePlayer.obj
 0001:00046810       __unwindfunclet$?widen@?$basic_ios@DU?$char_traits@D@std@@@std@@QBEDD@Z$0 00447810 f   GamePlayer.obj
 0001:00046818       __ehhandler$?widen@?$basic_ios@DU?$char_traits@D@std@@@std@@QBEDD@Z 00447818 f   GamePlayer.obj
 0001:00046840       __unwindfunclet$?_Getcat@?$num_put@DV?$ostreambuf_iterator@DU?$char_traits@D@std@@@std@@@std@@SAIPAPBVfacet@locale@2@@Z$0 00447840 f   GamePlayer.obj
 0001:0004684b       __ehhandler$?_Getcat@?$num_put@DV?$ostreambuf_iterator@DU?$char_traits@D@std@@@std@@@std@@SAIPAPBVfacet@locale@2@@Z 0044784b f   GamePlayer.obj
 0001:00046870       __unwindfunclet$?_Getcat@?$numpunct@D@std@@SAIPAPBVfacet@locale@2@@Z$0 00447870 f   GamePlayer.obj
 0001:0004687b       __ehhandler$?_Getcat@?$numpunct@D@std@@SAIPAPBVfacet@locale@2@@Z 0044787b f   GamePlayer.obj
 0001:000468a0       __unwindfunclet$??0CDataQueue@CGamePlayer@@QAE@II@Z$0 004478a0 f   GamePlayer.obj
 0001:000468a8       __ehhandler$??0CDataQueue@CGamePlayer@@QAE@II@Z 004478a8 f   GamePlayer.obj
 0001:000468d0       __ehhandler$?LargePackProcess@CGamePlayer@@IAE_NIPBXI@Z 004478d0 f   GamePlayer.obj
 0001:000468f0       __ehhandler$?SelAddDelRole@CGamePlayer@@IAEIXZ 004478f0 f   GamePlayer.obj
 0001:00046920       __unwindfunclet$?Del@CGamePlayer@@SA_NPBD@Z$0 00447920 f   GamePlayer.obj
 0001:00046928       __unwindfunclet$?Del@CGamePlayer@@SA_NPBD@Z$1 00447928 f   GamePlayer.obj
 0001:00046930       __ehhandler$?Del@CGamePlayer@@SA_NPBD@Z 00447930 f   GamePlayer.obj
 0001:00046950       __unwindfunclet$??0sentry@?$basic_ostream@DU?$char_traits@D@std@@@std@@QAE@AAV12@@Z$0 00447950 f   GamePlayer.obj
 0001:00046958       __ehhandler$??0sentry@?$basic_ostream@DU?$char_traits@D@std@@@std@@QAE@AAV12@@Z 00447958 f   GamePlayer.obj
 0001:00046980       __ehhandler$?_Osfx@?$basic_ostream@DU?$char_traits@D@std@@@std@@QAEXXZ 00447980 f   GamePlayer.obj
 0001:000469a0       __unwindfunclet$??$use_facet@V?$num_put@DV?$ostreambuf_iterator@DU?$char_traits@D@std@@@std@@@std@@@std@@YAABV?$num_put@DV?$ostreambuf_iterator@DU?$char_traits@D@std@@@std@@@0@ABVlocale@0@@Z$0 004479a0 f   GamePlayer.obj
 0001:000469a8       __ehhandler$??$use_facet@V?$num_put@DV?$ostreambuf_iterator@DU?$char_traits@D@std@@@std@@@std@@@std@@YAABV?$num_put@DV?$ostreambuf_iterator@DU?$char_traits@D@std@@@std@@@0@ABVlocale@0@@Z 004479a8 f   GamePlayer.obj
 0001:000469d0       __unwindfunclet$??$use_facet@V?$numpunct@D@std@@@std@@YAABV?$numpunct@D@0@ABVlocale@0@@Z$0 004479d0 f   GamePlayer.obj
 0001:000469d8       __ehhandler$??$use_facet@V?$numpunct@D@std@@@std@@YAABV?$numpunct@D@0@ABVlocale@0@@Z 004479d8 f   GamePlayer.obj
 0001:00046a00       __unwindfunclet$??1CGamePlayer@@UAE@XZ$0 00447a00 f   GamePlayer.obj
 0001:00046a08       __unwindfunclet$??1CGamePlayer@@UAE@XZ$1 00447a08 f   GamePlayer.obj
 0001:00046a13       __unwindfunclet$??1CGamePlayer@@UAE@XZ$2 00447a13 f   GamePlayer.obj
 0001:00046a1e       __unwindfunclet$??1CGamePlayer@@UAE@XZ$3 00447a1e f   GamePlayer.obj
 0001:00046a29       __unwindfunclet$??1CGamePlayer@@UAE@XZ$4 00447a29 f   GamePlayer.obj
 0001:00046a34       __unwindfunclet$??1CGamePlayer@@UAE@XZ$5 00447a34 f   GamePlayer.obj
 0001:00046a3f       __unwindfunclet$??1CGamePlayer@@UAE@XZ$6 00447a3f f   GamePlayer.obj
 0001:00046a4d       __unwindfunclet$??1CGamePlayer@@UAE@XZ$7 00447a4d f   GamePlayer.obj
 0001:00046a5b       __unwindfunclet$??1CGamePlayer@@UAE@XZ$8 00447a5b f   GamePlayer.obj
 0001:00046a69       __unwindfunclet$??1CGamePlayer@@UAE@XZ$9 00447a69 f   GamePlayer.obj
 0001:00046a77       __unwindfunclet$??1CGamePlayer@@UAE@XZ$10 00447a77 f   GamePlayer.obj
 0001:00046a85       __unwindfunclet$??1CGamePlayer@@UAE@XZ$11 00447a85 f   GamePlayer.obj
 0001:00046a93       __unwindfunclet$??1CGamePlayer@@UAE@XZ$12 00447a93 f   GamePlayer.obj
 0001:00046aab       __unwindfunclet$??1CGamePlayer@@UAE@XZ$13 00447aab f   GamePlayer.obj
 0001:00046ab9       __unwindfunclet$??1CGamePlayer@@UAE@XZ$14 00447ab9 f   GamePlayer.obj
 0001:00046ac1       __ehhandler$??1CGamePlayer@@UAE@XZ 00447ac1 f   GamePlayer.obj
 0001:00046ae0       __unwindfunclet$?Add@CGamePlayer@@SA_NPBDPAVIPlayer@@@Z$0 00447ae0 f   GamePlayer.obj
 0001:00046ae8       __unwindfunclet$?Add@CGamePlayer@@SA_NPBDPAVIPlayer@@@Z$1 00447ae8 f   GamePlayer.obj
 0001:00046af0       __unwindfunclet$?Add@CGamePlayer@@SA_NPBDPAVIPlayer@@@Z$2 00447af0 f   GamePlayer.obj
 0001:00046af8       __ehhandler$?Add@CGamePlayer@@SA_NPBDPAVIPlayer@@@Z 00447af8 f   GamePlayer.obj
 0001:00046b20       __unwindfunclet$??0?$basic_istream@DU?$char_traits@D@std@@@std@@QAE@PAV?$basic_streambuf@DU?$char_traits@D@std@@@1@_N@Z$0 00447b20 f   GamePlayer.obj
 0001:00046b3c       __ehhandler$??0?$basic_istream@DU?$char_traits@D@std@@@std@@QAE@PAV?$basic_streambuf@DU?$char_traits@D@std@@@1@_N@Z 00447b3c f   GamePlayer.obj
 0001:00046b60       __unwindfunclet$??0?$basic_iostream@DU?$char_traits@D@std@@@std@@QAE@PAV?$basic_streambuf@DU?$char_traits@D@std@@@1@@Z$0 00447b60 f   GamePlayer.obj
 0001:00046b7c       __unwindfunclet$??0?$basic_iostream@DU?$char_traits@D@std@@@std@@QAE@PAV?$basic_streambuf@DU?$char_traits@D@std@@@1@@Z$1 00447b7c f   GamePlayer.obj
 0001:00046b87       __ehhandler$??0?$basic_iostream@DU?$char_traits@D@std@@@std@@QAE@PAV?$basic_streambuf@DU?$char_traits@D@std@@@1@@Z 00447b87 f   GamePlayer.obj
 0001:00046bb0       __unwindfunclet$??1sentry@?$basic_ostream@DU?$char_traits@D@std@@@std@@QAE@XZ$0 00447bb0 f   GamePlayer.obj
 0001:00046bb8       __ehhandler$??1sentry@?$basic_ostream@DU?$char_traits@D@std@@@std@@QAE@XZ 00447bb8 f   GamePlayer.obj
 0001:00046be0       __unwindfunclet$??6?$basic_ostream@DU?$char_traits@D@std@@@std@@QAEAAV01@J@Z$2 00447be0 f   GamePlayer.obj
 0001:00046be8       __unwindfunclet$??6?$basic_ostream@DU?$char_traits@D@std@@@std@@QAEAAV01@J@Z$3 00447be8 f   GamePlayer.obj
 0001:00046bf0       __ehhandler$??6?$basic_ostream@DU?$char_traits@D@std@@@std@@QAEAAV01@J@Z 00447bf0 f   GamePlayer.obj
 0001:00046c10       __unwindfunclet$?do_put@?$num_put@DV?$ostreambuf_iterator@DU?$char_traits@D@std@@@std@@@std@@MBE?AV?$ostreambuf_iterator@DU?$char_traits@D@std@@@2@V32@AAVios_base@2@D_N@Z$0 00447c10 f   GamePlayer.obj
 0001:00046c18       __unwindfunclet$?do_put@?$num_put@DV?$ostreambuf_iterator@DU?$char_traits@D@std@@@std@@@std@@MBE?AV?$ostreambuf_iterator@DU?$char_traits@D@std@@@2@V32@AAVios_base@2@D_N@Z$1 00447c18 f   GamePlayer.obj
 0001:00046c20       __unwindfunclet$?do_put@?$num_put@DV?$ostreambuf_iterator@DU?$char_traits@D@std@@@std@@@std@@MBE?AV?$ostreambuf_iterator@DU?$char_traits@D@std@@@2@V32@AAVios_base@2@D_N@Z$2 00447c20 f   GamePlayer.obj
 0001:00046c28       __unwindfunclet$?do_put@?$num_put@DV?$ostreambuf_iterator@DU?$char_traits@D@std@@@std@@@std@@MBE?AV?$ostreambuf_iterator@DU?$char_traits@D@std@@@2@V32@AAVios_base@2@D_N@Z$3 00447c28 f   GamePlayer.obj
 0001:00046c30       __ehhandler$?do_put@?$num_put@DV?$ostreambuf_iterator@DU?$char_traits@D@std@@@std@@@std@@MBE?AV?$ostreambuf_iterator@DU?$char_traits@D@std@@@2@V32@AAVios_base@2@D_N@Z 00447c30 f   GamePlayer.obj
 0001:00046c60       __unwindfunclet$?_Fput@?$num_put@DV?$ostreambuf_iterator@DU?$char_traits@D@std@@@std@@@std@@ABA?AV?$ostreambuf_iterator@DU?$char_traits@D@std@@@2@V32@AAVios_base@2@DPBDIIII@Z$0 00447c60 f   GamePlayer.obj
 0001:00046c68       __unwindfunclet$?_Fput@?$num_put@DV?$ostreambuf_iterator@DU?$char_traits@D@std@@@std@@@std@@ABA?AV?$ostreambuf_iterator@DU?$char_traits@D@std@@@2@V32@AAVios_base@2@DPBDIIII@Z$1 00447c68 f   GamePlayer.obj
 0001:00046c70       __unwindfunclet$?_Fput@?$num_put@DV?$ostreambuf_iterator@DU?$char_traits@D@std@@@std@@@std@@ABA?AV?$ostreambuf_iterator@DU?$char_traits@D@std@@@2@V32@AAVios_base@2@DPBDIIII@Z$2 00447c70 f   GamePlayer.obj
 0001:00046c78       __ehhandler$?_Fput@?$num_put@DV?$ostreambuf_iterator@DU?$char_traits@D@std@@@std@@@std@@ABA?AV?$ostreambuf_iterator@DU?$char_traits@D@std@@@2@V32@AAVios_base@2@DPBDIIII@Z 00447c78 f   GamePlayer.obj
 0001:00046ca0       __unwindfunclet$?_Iput@?$num_put@DV?$ostreambuf_iterator@DU?$char_traits@D@std@@@std@@@std@@ABA?AV?$ostreambuf_iterator@DU?$char_traits@D@std@@@2@V32@AAVios_base@2@DPADI@Z$0 00447ca0 f   GamePlayer.obj
 0001:00046ca8       __unwindfunclet$?_Iput@?$num_put@DV?$ostreambuf_iterator@DU?$char_traits@D@std@@@std@@@std@@ABA?AV?$ostreambuf_iterator@DU?$char_traits@D@std@@@2@V32@AAVios_base@2@DPADI@Z$1 00447ca8 f   GamePlayer.obj
 0001:00046cb0       __ehhandler$?_Iput@?$num_put@DV?$ostreambuf_iterator@DU?$char_traits@D@std@@@std@@@std@@ABA?AV?$ostreambuf_iterator@DU?$char_traits@D@std@@@2@V32@AAVios_base@2@DPADI@Z 00447cb0 f   GamePlayer.obj
 0001:00046ce0       __unwindfunclet$??0strstream@std@@QAE@XZ$0 00447ce0 f   GamePlayer.obj
 0001:00046cfc       __unwindfunclet$??0strstream@std@@QAE@XZ$1 00447cfc f   GamePlayer.obj
 0001:00046d07       __ehhandler$??0strstream@std@@QAE@XZ 00447d07 f   GamePlayer.obj
 0001:00046d30       __unwindfunclet$?put@?$basic_ostream@DU?$char_traits@D@std@@@std@@QAEAAV12@D@Z$2 00447d30 f   GamePlayer.obj
 0001:00046d38       __ehhandler$?put@?$basic_ostream@DU?$char_traits@D@std@@@std@@QAEAAV12@D@Z 00447d38 f   GamePlayer.obj
 0001:00046d60       __ehhandler$?ProcessRoleInfo@CGamePlayer@@IAEIXZ 00447d60 f   GamePlayer.obj
 0001:00046d90       __unwindfunclet$??$ToString@J@Win32@OnlineGameLib@@YA?AV?$basic_string@DU?$char_traits@D@std@@V?$allocator@D@2@@std@@J@Z$0 00447d90 f   GamePlayer.obj
 0001:00046db2       __unwindfunclet$??$ToString@J@Win32@OnlineGameLib@@YA?AV?$basic_string@DU?$char_traits@D@std@@V?$allocator@D@2@@std@@J@Z$1 00447db2 f   GamePlayer.obj
 0001:00046dbd       __ehhandler$??$ToString@J@Win32@OnlineGameLib@@YA?AV?$basic_string@DU?$char_traits@D@std@@V?$allocator@D@2@@std@@J@Z 00447dbd f   GamePlayer.obj
 0001:00046de0       __unwindfunclet$?TaskCompleted@CGamePlayer@@IAE_NXZ$0 00447de0 f   GamePlayer.obj
 0001:00046de8       __unwindfunclet$?TaskCompleted@CGamePlayer@@IAE_NXZ$1 00447de8 f   GamePlayer.obj
 0001:00046df0       __ehhandler$?TaskCompleted@CGamePlayer@@IAE_NXZ 00447df0 f   GamePlayer.obj
 0001:00046e10       __unwindfunclet$??0CGamePlayer@@QAE@I@Z$0 00447e10 f   GamePlayer.obj
 0001:00046e18       __unwindfunclet$??0CGamePlayer@@QAE@I@Z$1 00447e18 f   GamePlayer.obj
 0001:00046e23       __unwindfunclet$??0CGamePlayer@@QAE@I@Z$2 00447e23 f   GamePlayer.obj
 0001:00046e2e       __unwindfunclet$??0CGamePlayer@@QAE@I@Z$3 00447e2e f   GamePlayer.obj
 0001:00046e39       __unwindfunclet$??0CGamePlayer@@QAE@I@Z$4 00447e39 f   GamePlayer.obj
 0001:00046e44       __unwindfunclet$??0CGamePlayer@@QAE@I@Z$5 00447e44 f   GamePlayer.obj
 0001:00046e4f       __unwindfunclet$??0CGamePlayer@@QAE@I@Z$6 00447e4f f   GamePlayer.obj
 0001:00046e5d       __unwindfunclet$??0CGamePlayer@@QAE@I@Z$7 00447e5d f   GamePlayer.obj
 0001:00046e6b       __unwindfunclet$??0CGamePlayer@@QAE@I@Z$8 00447e6b f   GamePlayer.obj
 0001:00046e79       __unwindfunclet$??0CGamePlayer@@QAE@I@Z$9 00447e79 f   GamePlayer.obj
 0001:00046e87       __unwindfunclet$??0CGamePlayer@@QAE@I@Z$10 00447e87 f   GamePlayer.obj
 0001:00046e95       __unwindfunclet$??0CGamePlayer@@QAE@I@Z$11 00447e95 f   GamePlayer.obj
 0001:00046ea3       __unwindfunclet$??0CGamePlayer@@QAE@I@Z$12 00447ea3 f   GamePlayer.obj
 0001:00046ebb       __unwindfunclet$??0CGamePlayer@@QAE@I@Z$13 00447ebb f   GamePlayer.obj
 0001:00046ec9       __ehhandler$??0CGamePlayer@@QAE@I@Z 00447ec9 f   GamePlayer.obj
 0001:00046ef0       __ehhandler$?ConsumeMoney@CGameServer@@IAE_NPBD@Z 00447ef0 f   GameServer.obj
 0001:00046f20       __ehhandler$?FreezeMoney@CGameServer@@IAE_NPBDG@Z 00447f20 f   GameServer.obj
 0001:00046f50       __ehhandler$?_SyncRoleInfo@CGameServer@@IAE_NPBXIG@Z 00447f50 f   GameServer.obj
 0001:00046f80       __unwindfunclet$?ManagerThreadFunction@CGameServer@@CGKPAX@Z$2 00447f80 f   GameServer.obj
 0001:00046f88       __ehhandler$?ManagerThreadFunction@CGameServer@@CGKPAX@Z 00447f88 f   GameServer.obj
 0001:00046fb0       __unwindfunclet$?QueryServer@CGameServer@@SAPAVIGServer@@I@Z$0 00447fb0 f   GameServer.obj
 0001:00046fb8       __ehhandler$?QueryServer@CGameServer@@SAPAVIGServer@@I@Z 00447fb8 f   GameServer.obj
 0001:00046fe0       __unwindfunclet$?SendToAll@CGameServer@@SAXPBDHI@Z$0 00447fe0 f   GameServer.obj
 0001:00046fe8       __ehhandler$?SendToAll@CGameServer@@SAXPBDHI@Z 00447fe8 f   GameServer.obj
 0001:00047010       __unwindfunclet$?erase@?$_Tree@V?$_Tmap_traits@IPAVIGServer@@U?$less@I@std@@V?$allocator@U?$pair@$$CBIPAVIGServer@@@std@@@3@$0A@@std@@@std@@QAE?AViterator@12@V312@@Z$0 00448010 f   GameServer.obj
 0001:00047018       __ehhandler$?erase@?$_Tree@V?$_Tmap_traits@IPAVIGServer@@U?$less@I@std@@V?$allocator@U?$pair@$$CBIPAVIGServer@@@std@@@3@$0A@@std@@@std@@QAE?AViterator@12@V312@@Z 00448018 f   GameServer.obj
 0001:00047040       __unwindfunclet$?_Insert@?$_Tree@V?$_Tmap_traits@IPAVIGServer@@U?$less@I@std@@V?$allocator@U?$pair@$$CBIPAVIGServer@@@std@@@3@$0A@@std@@@std@@IAE?AViterator@12@_NPAU_Node@?$_Tree_nod@V?$_Tmap_traits@IPAVIGServer@@U?$less@I@std@@V?$allocator@U?$pair@$$CBIPAVIGServer@@@std@@@3@$0A@@std@@@2@ABU?$pair@$$CBIPAVIGServer@@@2@@Z$0 00448040 f   GameServer.obj
 0001:00047048       __ehhandler$?_Insert@?$_Tree@V?$_Tmap_traits@IPAVIGServer@@U?$less@I@std@@V?$allocator@U?$pair@$$CBIPAVIGServer@@@std@@@3@$0A@@std@@@std@@IAE?AViterator@12@_NPAU_Node@?$_Tree_nod@V?$_Tmap_traits@IPAVIGServer@@U?$less@I@std@@V?$allocator@U?$pair@$$CBIPAVIGServer@@@std@@@3@$0A@@std@@@2@ABU?$pair@$$CBIPAVIGServer@@@2@@Z 00448048 f   GameServer.obj
 0001:00047070       __unwindfunclet$?_Incsize@?$list@PAVIGServer@@V?$allocator@PAVIGServer@@@std@@@std@@IAEXI@Z$0 00448070 f   GameServer.obj
 0001:00047078       __ehhandler$?_Incsize@?$list@PAVIGServer@@V?$allocator@PAVIGServer@@@std@@@std@@IAEXI@Z 00448078 f   GameServer.obj
 0001:000470a0       __unwindfunclet$?Destroy@CGameServer@@UAE_NXZ$0 004480a0 f   GameServer.obj
 0001:000470a8       __unwindfunclet$?Destroy@CGameServer@@UAE_NXZ$1 004480a8 f   GameServer.obj
 0001:000470b0       __ehhandler$?Destroy@CGameServer@@UAE_NXZ 004480b0 f   GameServer.obj
 0001:000470e0       __unwindfunclet$?HaveAccountInGameServer@CGameServer@@AAE_NPBD@Z$0 004480e0 f   GameServer.obj
 0001:000470e8       __unwindfunclet$?HaveAccountInGameServer@CGameServer@@AAE_NPBD@Z$1 004480e8 f   GameServer.obj
 0001:000470f0       __ehhandler$?HaveAccountInGameServer@CGameServer@@AAE_NPBD@Z 004480f0 f   GameServer.obj
 0001:00047110       __unwindfunclet$?_Buynode@?$_Tree@V?$_Tmap_traits@V?$basic_string@DU?$char_traits@D@std@@V?$allocator@D@2@@std@@PAXU?$less@V?$basic_string@DU?$char_traits@D@std@@V?$allocator@D@2@@std@@@2@V?$allocator@U?$pair@$$CBV?$basic_string@DU?$char_traits@D@std@@V?$allocator@D@2@@std@@PAX@std@@@2@$0A@@std@@@std@@IAEPAU_Node@?$_Tree_nod@V?$_Tmap_traits@V?$basic_string@DU?$char_traits@D@std@@V?$allocator@D@2@@std@@PAXU?$less@V?$basic_string@DU?$char_traits@D@std@@V?$allocator@D@2@@std@@@2@V?$allocator@U?$pair@$$CBV?$basic_string@DU?$char_traits@D@std@@V?$allocator@D@2@@std@@PAX@std@@@2@$0A@@std@@@2@PAU342@00ABU?$pair@$$CBV?$basic_string@DU?$char_traits@D@std@@V?$allocator@D@2@@std@@PAX@2@D@Z$2 00448110 f   GameServer.obj
 0001:00047121       __ehhandler$?_Buynode@?$_Tree@V?$_Tmap_traits@V?$basic_string@DU?$char_traits@D@std@@V?$allocator@D@2@@std@@PAXU?$less@V?$basic_string@DU?$char_traits@D@std@@V?$allocator@D@2@@std@@@2@V?$allocator@U?$pair@$$CBV?$basic_string@DU?$char_traits@D@std@@V?$allocator@D@2@@std@@PAX@std@@@2@$0A@@std@@@std@@IAEPAU_Node@?$_Tree_nod@V?$_Tmap_traits@V?$basic_string@DU?$char_traits@D@std@@V?$allocator@D@2@@std@@PAXU?$less@V?$basic_string@DU?$char_traits@D@std@@V?$allocator@D@2@@std@@@2@V?$allocator@U?$pair@$$CBV?$basic_string@DU?$char_traits@D@std@@V?$allocator@D@2@@std@@PAX@std@@@2@$0A@@std@@@2@PAU342@00ABU?$pair@$$CBV?$basic_string@DU?$char_traits@D@std@@V?$allocator@D@2@@std@@PAX@2@D@Z 00448121 f   GameServer.obj
 0001:00047140       __ehhandler$??$_Insert@V?$_Const_iterator@$00@?$list@PAVIGServer@@V?$allocator@PAVIGServer@@@std@@@std@@@?$list@PAVIGServer@@V?$allocator@PAVIGServer@@@std@@@std@@QAEXV?$_Iterator@$00@01@V?$_Const_iterator@$00@01@1Uforward_iterator_tag@1@@Z 00448140 f   GameServer.obj
 0001:00047160       __unwindfunclet$?erase@?$_Tree@V?$_Tmap_traits@V?$basic_string@DU?$char_traits@D@std@@V?$allocator@D@2@@std@@PAXU?$less@V?$basic_string@DU?$char_traits@D@std@@V?$allocator@D@2@@std@@@2@V?$allocator@U?$pair@$$CBV?$basic_string@DU?$char_traits@D@std@@V?$allocator@D@2@@std@@PAX@std@@@2@$0A@@std@@@std@@QAE?AViterator@12@V312@@Z$0 00448160 f   GameServer.obj
 0001:00047168       __ehhandler$?erase@?$_Tree@V?$_Tmap_traits@V?$basic_string@DU?$char_traits@D@std@@V?$allocator@D@2@@std@@PAXU?$less@V?$basic_string@DU?$char_traits@D@std@@V?$allocator@D@2@@std@@@2@V?$allocator@U?$pair@$$CBV?$basic_string@DU?$char_traits@D@std@@V?$allocator@D@2@@std@@PAX@std@@@2@$0A@@std@@@std@@QAE?AViterator@12@V312@@Z 00448168 f   GameServer.obj
 0001:00047190       __unwindfunclet$?erase@?$_Tree@V?$_Tmap_traits@IV?$list@PAVIGServer@@V?$allocator@PAVIGServer@@@std@@@std@@U?$less@I@2@V?$allocator@U?$pair@$$CBIV?$list@PAVIGServer@@V?$allocator@PAVIGServer@@@std@@@std@@@std@@@2@$0A@@std@@@std@@QAE?AViterator@12@V312@@Z$0 00448190 f   GameServer.obj
 0001:00047198       __ehhandler$?erase@?$_Tree@V?$_Tmap_traits@IV?$list@PAVIGServer@@V?$allocator@PAVIGServer@@@std@@@std@@U?$less@I@2@V?$allocator@U?$pair@$$CBIV?$list@PAVIGServer@@V?$allocator@PAVIGServer@@@std@@@std@@@std@@@2@$0A@@std@@@std@@QAE?AViterator@12@V312@@Z 00448198 f   GameServer.obj
 0001:000471c0       __unwindfunclet$?_Insert@?$_Tree@V?$_Tmap_traits@V?$basic_string@DU?$char_traits@D@std@@V?$allocator@D@2@@std@@PAXU?$less@V?$basic_string@DU?$char_traits@D@std@@V?$allocator@D@2@@std@@@2@V?$allocator@U?$pair@$$CBV?$basic_string@DU?$char_traits@D@std@@V?$allocator@D@2@@std@@PAX@std@@@2@$0A@@std@@@std@@IAE?AViterator@12@_NPAU_Node@?$_Tree_nod@V?$_Tmap_traits@V?$basic_string@DU?$char_traits@D@std@@V?$allocator@D@2@@std@@PAXU?$less@V?$basic_string@DU?$char_traits@D@std@@V?$allocator@D@2@@std@@@2@V?$allocator@U?$pair@$$CBV?$basic_string@DU?$char_traits@D@std@@V?$allocator@D@2@@std@@PAX@std@@@2@$0A@@std@@@2@ABU?$pair@$$CBV?$basic_string@DU?$char_traits@D@std@@V?$allocator@D@2@@std@@PAX@2@@Z$0 004481c0 f   GameServer.obj
 0001:000471c8       __ehhandler$?_Insert@?$_Tree@V?$_Tmap_traits@V?$basic_string@DU?$char_traits@D@std@@V?$allocator@D@2@@std@@PAXU?$less@V?$basic_string@DU?$char_traits@D@std@@V?$allocator@D@2@@std@@@2@V?$allocator@U?$pair@$$CBV?$basic_string@DU?$char_traits@D@std@@V?$allocator@D@2@@std@@PAX@std@@@2@$0A@@std@@@std@@IAE?AViterator@12@_NPAU_Node@?$_Tree_nod@V?$_Tmap_traits@V?$basic_string@DU?$char_traits@D@std@@V?$allocator@D@2@@std@@PAXU?$less@V?$basic_string@DU?$char_traits@D@std@@V?$allocator@D@2@@std@@@2@V?$allocator@U?$pair@$$CBV?$basic_string@DU?$char_traits@D@std@@V?$allocator@D@2@@std@@PAX@std@@@2@$0A@@std@@@2@ABU?$pair@$$CBV?$basic_string@DU?$char_traits@D@std@@V?$allocator@D@2@@std@@PAX@2@@Z 004481c8 f   GameServer.obj
 0001:000471f0       __unwindfunclet$?DetachAccountFromGameServer@CGameServer@@AAE_NPBD@Z$0 004481f0 f   GameServer.obj
 0001:000471f8       __unwindfunclet$?DetachAccountFromGameServer@CGameServer@@AAE_NPBD@Z$1 004481f8 f   GameServer.obj
 0001:00047200       __ehhandler$?DetachAccountFromGameServer@CGameServer@@AAE_NPBD@Z 00448200 f   GameServer.obj
 0001:00047220       __ehhandler$??0?$list@PAVIGServer@@V?$allocator@PAVIGServer@@@std@@@std@@QAE@ABV01@@Z 00448220 f   GameServer.obj
 0001:00047240       __unwindfunclet$?AttatchAccountToGameServer@CGameServer@@AAE_NPBD@Z$0 00448240 f   GameServer.obj
 0001:00047248       __unwindfunclet$?AttatchAccountToGameServer@CGameServer@@AAE_NPBD@Z$1 00448248 f   GameServer.obj
 0001:00047250       __unwindfunclet$?AttatchAccountToGameServer@CGameServer@@AAE_NPBD@Z$2 00448250 f   GameServer.obj
 0001:00047258       __ehhandler$?AttatchAccountToGameServer@CGameServer@@AAE_NPBD@Z 00448258 f   GameServer.obj
 0001:00047280       __unwindfunclet$?End@CGameServer@@SAXXZ$2 00448280 f   GameServer.obj
 0001:00047288       __unwindfunclet$?End@CGameServer@@SAXXZ$3 00448288 f   GameServer.obj
 0001:00047290       __ehhandler$?End@CGameServer@@SAXXZ 00448290 f   GameServer.obj
 0001:000472b0       __unwindfunclet$?_Buynode@?$_Tree@V?$_Tmap_traits@IV?$list@PAVIGServer@@V?$allocator@PAVIGServer@@@std@@@std@@U?$less@I@2@V?$allocator@U?$pair@$$CBIV?$list@PAVIGServer@@V?$allocator@PAVIGServer@@@std@@@std@@@std@@@2@$0A@@std@@@std@@IAEPAU_Node@?$_Tree_nod@V?$_Tmap_traits@IV?$list@PAVIGServer@@V?$allocator@PAVIGServer@@@std@@@std@@U?$less@I@2@V?$allocator@U?$pair@$$CBIV?$list@PAVIGServer@@V?$allocator@PAVIGServer@@@std@@@std@@@std@@@2@$0A@@std@@@2@PAU342@00ABU?$pair@$$CBIV?$list@PAVIGServer@@V?$allocator@PAVIGServer@@@std@@@std@@@2@D@Z$2 004482b0 f   GameServer.obj
 0001:000472c1       __ehhandler$?_Buynode@?$_Tree@V?$_Tmap_traits@IV?$list@PAVIGServer@@V?$allocator@PAVIGServer@@@std@@@std@@U?$less@I@2@V?$allocator@U?$pair@$$CBIV?$list@PAVIGServer@@V?$allocator@PAVIGServer@@@std@@@std@@@std@@@2@$0A@@std@@@std@@IAEPAU_Node@?$_Tree_nod@V?$_Tmap_traits@IV?$list@PAVIGServer@@V?$allocator@PAVIGServer@@@std@@@std@@U?$less@I@2@V?$allocator@U?$pair@$$CBIV?$list@PAVIGServer@@V?$allocator@PAVIGServer@@@std@@@std@@@std@@@2@$0A@@std@@@2@PAU342@00ABU?$pair@$$CBIV?$list@PAVIGServer@@V?$allocator@PAVIGServer@@@std@@@std@@@2@D@Z 004482c1 f   GameServer.obj
 0001:000472e0       __unwindfunclet$??1CGameServer@@UAE@XZ$0 004482e0 f   GameServer.obj
 0001:000472e8       __unwindfunclet$??1CGameServer@@UAE@XZ$1 004482e8 f   GameServer.obj
 0001:000472f6       __unwindfunclet$??1CGameServer@@UAE@XZ$2 004482f6 f   GameServer.obj
 0001:00047304       __unwindfunclet$??1CGameServer@@UAE@XZ$3 00448304 f   GameServer.obj
 0001:00047312       __unwindfunclet$??1CGameServer@@UAE@XZ$4 00448312 f   GameServer.obj
 0001:00047320       __unwindfunclet$??1CGameServer@@UAE@XZ$5 00448320 f   GameServer.obj
 0001:0004732e       __ehhandler$??1CGameServer@@UAE@XZ 0044832e f   GameServer.obj
 0001:00047350       __unwindfunclet$?_Insert@?$_Tree@V?$_Tmap_traits@IV?$list@PAVIGServer@@V?$allocator@PAVIGServer@@@std@@@std@@U?$less@I@2@V?$allocator@U?$pair@$$CBIV?$list@PAVIGServer@@V?$allocator@PAVIGServer@@@std@@@std@@@std@@@2@$0A@@std@@@std@@IAE?AViterator@12@_NPAU_Node@?$_Tree_nod@V?$_Tmap_traits@IV?$list@PAVIGServer@@V?$allocator@PAVIGServer@@@std@@@std@@U?$less@I@2@V?$allocator@U?$pair@$$CBIV?$list@PAVIGServer@@V?$allocator@PAVIGServer@@@std@@@std@@@std@@@2@$0A@@std@@@2@ABU?$pair@$$CBIV?$list@PAVIGServer@@V?$allocator@PAVIGServer@@@std@@@std@@@2@@Z$0 00448350 f   GameServer.obj
 0001:00047358       __ehhandler$?_Insert@?$_Tree@V?$_Tmap_traits@IV?$list@PAVIGServer@@V?$allocator@PAVIGServer@@@std@@@std@@U?$less@I@2@V?$allocator@U?$pair@$$CBIV?$list@PAVIGServer@@V?$allocator@PAVIGServer@@@std@@@std@@@std@@@2@$0A@@std@@@std@@IAE?AViterator@12@_NPAU_Node@?$_Tree_nod@V?$_Tmap_traits@IV?$list@PAVIGServer@@V?$allocator@PAVIGServer@@@std@@@std@@U?$less@I@2@V?$allocator@U?$pair@$$CBIV?$list@PAVIGServer@@V?$allocator@PAVIGServer@@@std@@@std@@@std@@@2@$0A@@std@@@2@ABU?$pair@$$CBIV?$list@PAVIGServer@@V?$allocator@PAVIGServer@@@std@@@std@@@2@@Z 00448358 f   GameServer.obj
 0001:00047380       __unwindfunclet$??0CGameServer@@QAE@PAUIServer@@PAUIClient@@I@Z$0 00448380 f   GameServer.obj
 0001:00047388       __unwindfunclet$??0CGameServer@@QAE@PAUIServer@@PAUIClient@@I@Z$1 00448388 f   GameServer.obj
 0001:00047396       __unwindfunclet$??0CGameServer@@QAE@PAUIServer@@PAUIClient@@I@Z$2 00448396 f   GameServer.obj
 0001:000473a4       __unwindfunclet$??0CGameServer@@QAE@PAUIServer@@PAUIClient@@I@Z$3 004483a4 f   GameServer.obj
 0001:000473b2       __unwindfunclet$??0CGameServer@@QAE@PAUIServer@@PAUIClient@@I@Z$4 004483b2 f   GameServer.obj
 0001:000473c0       __ehhandler$??0CGameServer@@QAE@PAUIServer@@PAUIClient@@I@Z 004483c0 f   GameServer.obj
 0001:000473e0       __unwindfunclet$?GameSvrEventNotify@CGameServer@@SGXPAXABK1@Z$2 004483e0 f   GameServer.obj
 0001:000473e8       __unwindfunclet$?GameSvrEventNotify@CGameServer@@SGXPAXABK1@Z$3 004483e8 f   GameServer.obj
 0001:000473f3       __ehhandler$?GameSvrEventNotify@CGameServer@@SGXPAXABK1@Z 004483f3 f   GameServer.obj
 0001:00047410       __unwindfunclet$?RegisterServer@CGameServer@@CA_NIPAVIGServer@@@Z$0 00448410 f   GameServer.obj
 0001:00047418       __unwindfunclet$?RegisterServer@CGameServer@@CA_NIPAVIGServer@@@Z$1 00448418 f   GameServer.obj
 0001:00047420       __unwindfunclet$?RegisterServer@CGameServer@@CA_NIPAVIGServer@@@Z$2 00448420 f   GameServer.obj
 0001:00047428       __ehhandler$?RegisterServer@CGameServer@@CA_NIPAVIGServer@@@Z 00448428 f   GameServer.obj
 0001:00047450       __unwindfunclet$?erase@?$_Tree@V?$_Tmap_traits@IPAVIPlayer@@U?$less@I@std@@V?$allocator@U?$pair@$$CBIPAVIPlayer@@@std@@@3@$0A@@std@@@std@@QAE?AViterator@12@V312@@Z$0 00448450 f   Intercessor.obj
 0001:00047458       __ehhandler$?erase@?$_Tree@V?$_Tmap_traits@IPAVIPlayer@@U?$less@I@std@@V?$allocator@U?$pair@$$CBIPAVIPlayer@@@std@@@3@$0A@@std@@@std@@QAE?AViterator@12@V312@@Z 00448458 f   Intercessor.obj
 0001:00047480       __unwindfunclet$?_Insert@?$_Tree@V?$_Tmap_traits@IPAVIPlayer@@U?$less@I@std@@V?$allocator@U?$pair@$$CBIPAVIPlayer@@@std@@@3@$0A@@std@@@std@@IAE?AViterator@12@_NPAU_Node@?$_Tree_nod@V?$_Tmap_traits@IPAVIPlayer@@U?$less@I@std@@V?$allocator@U?$pair@$$CBIPAVIPlayer@@@std@@@3@$0A@@std@@@2@ABU?$pair@$$CBIPAVIPlayer@@@2@@Z$0 00448480 f   Intercessor.obj
 0001:00047488       __ehhandler$?_Insert@?$_Tree@V?$_Tmap_traits@IPAVIPlayer@@U?$less@I@std@@V?$allocator@U?$pair@$$CBIPAVIPlayer@@@std@@@3@$0A@@std@@@std@@IAE?AViterator@12@_NPAU_Node@?$_Tree_nod@V?$_Tmap_traits@IPAVIPlayer@@U?$less@I@std@@V?$allocator@U?$pair@$$CBIPAVIPlayer@@@std@@@3@$0A@@std@@@2@ABU?$pair@$$CBIPAVIPlayer@@@2@@Z 00448488 f   Intercessor.obj
 0001:000474b0       __unwindfunclet$?CleanNetwork@CIntercessor@@IAEXXZ$8 004484b0 f   Intercessor.obj
 0001:000474b8       __ehhandler$?CleanNetwork@CIntercessor@@IAEXXZ 004484b8 f   Intercessor.obj
 0001:000474e0       __unwindfunclet$??1CIntercessor@@UAE@XZ$0 004484e0 f   Intercessor.obj
 0001:000474eb       __unwindfunclet$??1CIntercessor@@UAE@XZ$1 004484eb f   Intercessor.obj
 0001:000474f6       __unwindfunclet$??1CIntercessor@@UAE@XZ$2 004484f6 f   Intercessor.obj
 0001:00047501       __unwindfunclet$??1CIntercessor@@UAE@XZ$3 00448501 f   Intercessor.obj
 0001:0004750c       __ehhandler$??1CIntercessor@@UAE@XZ 0044850c f   Intercessor.obj
 0001:00047530       __unwindfunclet$??0CIntercessor@@QAE@KAAVCNetwork@@@Z$0 00448530 f   Intercessor.obj
 0001:0004753b       __unwindfunclet$??0CIntercessor@@QAE@KAAVCNetwork@@@Z$1 0044853b f   Intercessor.obj
 0001:00047546       __unwindfunclet$??0CIntercessor@@QAE@KAAVCNetwork@@@Z$2 00448546 f   Intercessor.obj
 0001:00047551       __unwindfunclet$??0CIntercessor@@QAE@KAAVCNetwork@@@Z$3 00448551 f   Intercessor.obj
 0001:0004755c       __ehhandler$??0CIntercessor@@QAE@KAAVCNetwork@@@Z 0044855c f   Intercessor.obj
 0001:00047580       __ehhandler$?PlayerEventNotify@CIntercessor@@SGXPAXABK1@Z 00448580 f   Intercessor.obj
 0001:000475a0       __unwindfunclet$?StartupNetwork@CIntercessor@@IAE_NXZ$2 004485a0 f   Intercessor.obj
 0001:000475a8       __unwindfunclet$?StartupNetwork@CIntercessor@@IAE_NXZ$3 004485a8 f   Intercessor.obj
 0001:000475b3       __ehhandler$?StartupNetwork@CIntercessor@@IAE_NXZ 004485b3 f   Intercessor.obj
 0001:000475d0       __unwindfunclet$?Working@CIntercessor@@IAEHXZ$0 004485d0 f   Intercessor.obj
 0001:000475d8       __ehhandler$?Working@CIntercessor@@IAEHXZ 004485d8 f   Intercessor.obj
 0001:00047600       __ehhandler$?HelperThreadFunction@CIntercessor@@KGKPAX@Z 00448600 f   Intercessor.obj
 0001:00047620       __ehhandler$?WorkingThreadFunction@CIntercessor@@KGKPAX@Z 00448620 f   Intercessor.obj
 0001:00047640       __unwindfunclet$??$?HDU?$char_traits@D@std@@V?$allocator@D@1@@std@@YA?AV?$basic_string@DU?$char_traits@D@std@@V?$allocator@D@2@@0@ABV10@PBD@Z$0 00448640 f   Network.obj
 0001:00047648       __ehhandler$??$?HDU?$char_traits@D@std@@V?$allocator@D@1@@std@@YA?AV?$basic_string@DU?$char_traits@D@std@@V?$allocator@D@2@@0@ABV10@PBD@Z 00448648 f   Network.obj
 0001:00047670       __unwindfunclet$?Create@CNetwork@@QAE_NXZ$0 00448670 f   Network.obj
 0001:0004767b       __unwindfunclet$?Create@CNetwork@@QAE_NXZ$1 0044867b f   Network.obj
 0001:00047686       __unwindfunclet$?Create@CNetwork@@QAE_NXZ$2 00448686 f   Network.obj
 0001:00047691       __unwindfunclet$?Create@CNetwork@@QAE_NXZ$3 00448691 f   Network.obj
 0001:0004769c       __ehhandler$?Create@CNetwork@@QAE_NXZ 0044869c f   Network.obj
 0001:000476d0       __unwindfunclet$?Destroy@CNetwork@@QAEXXZ$0 004486d0 f   Network.obj
 0001:000476db       __unwindfunclet$?Destroy@CNetwork@@QAEXXZ$1 004486db f   Network.obj
 0001:000476e6       __unwindfunclet$?Destroy@CNetwork@@QAEXXZ$2 004486e6 f   Network.obj
 0001:000476f1       __unwindfunclet$?Destroy@CNetwork@@QAEXXZ$3 004486f1 f   Network.obj
 0001:000476fc       __ehhandler$?Destroy@CNetwork@@QAEXXZ 004486fc f   Network.obj
 0001:00047730       __unwindfunclet$?GetRoleDataFromIni@CPlayerCreator@@AAE_NPAEPBD@Z$0 00448730 f   PlayerCreator.obj
 0001:0004773b       __ehhandler$?GetRoleDataFromIni@CPlayerCreator@@AAE_NPAEPBD@Z 0044873b f   PlayerCreator.obj
 0001:00047770       __unwindfunclet$?_Xlen@?$vector@IV?$allocator@I@std@@@std@@KAXXZ$0 00448770 f   PlayerCreator.obj
 0001:00047778       __ehhandler$?_Xlen@?$vector@IV?$allocator@I@std@@@std@@KAXXZ 00448778 f   PlayerCreator.obj
 0001:000477a0       __unwindfunclet$?_Xlen@?$vector@V?$basic_string@DU?$char_traits@D@std@@V?$allocator@D@2@@std@@V?$allocator@V?$basic_string@DU?$char_traits@D@std@@V?$allocator@D@2@@std@@@2@@std@@KAXXZ$0 004487a0 f   PlayerCreator.obj
 0001:000477a8       __ehhandler$?_Xlen@?$vector@V?$basic_string@DU?$char_traits@D@std@@V?$allocator@D@2@@std@@V?$allocator@V?$basic_string@DU?$char_traits@D@std@@V?$allocator@D@2@@std@@@2@@std@@KAXXZ 004487a8 f   PlayerCreator.obj
 0001:000477d0       __unwindfunclet$?erase@?$_Tree@V?$_Tmap_traits@IV?$vector@IV?$allocator@I@std@@@std@@U?$less@I@2@V?$allocator@U?$pair@$$CBIV?$vector@IV?$allocator@I@std@@@std@@@std@@@2@$0A@@std@@@std@@QAE?AViterator@12@V312@@Z$0 004487d0 f   PlayerCreator.obj
 0001:000477d8       __ehhandler$?erase@?$_Tree@V?$_Tmap_traits@IV?$vector@IV?$allocator@I@std@@@std@@U?$less@I@2@V?$allocator@U?$pair@$$CBIV?$vector@IV?$allocator@I@std@@@std@@@std@@@2@$0A@@std@@@std@@QAE?AViterator@12@V312@@Z 004487d8 f   PlayerCreator.obj
 0001:00047800       __unwindfunclet$?_Buynode@?$_Tree@V?$_Tmap_traits@IV?$vector@IV?$allocator@I@std@@@std@@U?$less@I@2@V?$allocator@U?$pair@$$CBIV?$vector@IV?$allocator@I@std@@@std@@@std@@@2@$0A@@std@@@std@@IAEPAU_Node@?$_Tree_nod@V?$_Tmap_traits@IV?$vector@IV?$allocator@I@std@@@std@@U?$less@I@2@V?$allocator@U?$pair@$$CBIV?$vector@IV?$allocator@I@std@@@std@@@std@@@2@$0A@@std@@@2@PAU342@00ABU?$pair@$$CBIV?$vector@IV?$allocator@I@std@@@std@@@2@D@Z$2 00448800 f   PlayerCreator.obj
 0001:00047811       __ehhandler$?_Buynode@?$_Tree@V?$_Tmap_traits@IV?$vector@IV?$allocator@I@std@@@std@@U?$less@I@2@V?$allocator@U?$pair@$$CBIV?$vector@IV?$allocator@I@std@@@std@@@std@@@2@$0A@@std@@@std@@IAEPAU_Node@?$_Tree_nod@V?$_Tmap_traits@IV?$vector@IV?$allocator@I@std@@@std@@U?$less@I@2@V?$allocator@U?$pair@$$CBIV?$vector@IV?$allocator@I@std@@@std@@@std@@@2@$0A@@std@@@2@PAU342@00ABU?$pair@$$CBIV?$vector@IV?$allocator@I@std@@@std@@@2@D@Z 00448811 f   PlayerCreator.obj
 0001:00047830       __unwindfunclet$?_Insert@?$_Tree@V?$_Tmap_traits@IV?$vector@IV?$allocator@I@std@@@std@@U?$less@I@2@V?$allocator@U?$pair@$$CBIV?$vector@IV?$allocator@I@std@@@std@@@std@@@2@$0A@@std@@@std@@IAE?AViterator@12@_NPAU_Node@?$_Tree_nod@V?$_Tmap_traits@IV?$vector@IV?$allocator@I@std@@@std@@U?$less@I@2@V?$allocator@U?$pair@$$CBIV?$vector@IV?$allocator@I@std@@@std@@@std@@@2@$0A@@std@@@2@ABU?$pair@$$CBIV?$vector@IV?$allocator@I@std@@@std@@@2@@Z$0 00448830 f   PlayerCreator.obj
 0001:00047838       __ehhandler$?_Insert@?$_Tree@V?$_Tmap_traits@IV?$vector@IV?$allocator@I@std@@@std@@U?$less@I@2@V?$allocator@U?$pair@$$CBIV?$vector@IV?$allocator@I@std@@@std@@@std@@@2@$0A@@std@@@std@@IAE?AViterator@12@_NPAU_Node@?$_Tree_nod@V?$_Tmap_traits@IV?$vector@IV?$allocator@I@std@@@std@@U?$less@I@2@V?$allocator@U?$pair@$$CBIV?$vector@IV?$allocator@I@std@@@std@@@std@@@2@$0A@@std@@@2@ABU?$pair@$$CBIV?$vector@IV?$allocator@I@std@@@std@@@2@@Z 00448838 f   PlayerCreator.obj
 0001:00047860       __unwindfunclet$??1CPlayerCreator@@QAE@XZ$0 00448860 f   PlayerCreator.obj
 0001:0004786b       __ehhandler$??1CPlayerCreator@@QAE@XZ 0044886b f   PlayerCreator.obj
 0001:00047890       __unwindfunclet$?Init@CPlayerCreator@@AAE_NXZ$0 00448890 f   PlayerCreator.obj
 0001:0004789b       __unwindfunclet$?Init@CPlayerCreator@@AAE_NXZ$1 0044889b f   PlayerCreator.obj
 0001:000478a6       __unwindfunclet$?Init@CPlayerCreator@@AAE_NXZ$2 004488a6 f   PlayerCreator.obj
 0001:000478b1       __unwindfunclet$?Init@CPlayerCreator@@AAE_NXZ$3 004488b1 f   PlayerCreator.obj
 0001:000478bc       __unwindfunclet$?Init@CPlayerCreator@@AAE_NXZ$4 004488bc f   PlayerCreator.obj
 0001:000478c7       __unwindfunclet$?Init@CPlayerCreator@@AAE_NXZ$5 004488c7 f   PlayerCreator.obj
 0001:000478d2       __unwindfunclet$?Init@CPlayerCreator@@AAE_NXZ$6 004488d2 f   PlayerCreator.obj
 0001:000478dd       __unwindfunclet$?Init@CPlayerCreator@@AAE_NXZ$7 004488dd f   PlayerCreator.obj
 0001:000478e8       __unwindfunclet$?Init@CPlayerCreator@@AAE_NXZ$8 004488e8 f   PlayerCreator.obj
 0001:000478f3       __unwindfunclet$?Init@CPlayerCreator@@AAE_NXZ$9 004488f3 f   PlayerCreator.obj
 0001:000478fe       __ehhandler$?Init@CPlayerCreator@@AAE_NXZ 004488fe f   PlayerCreator.obj
 0001:00047930       __unwindfunclet$??0CPlayerCreator@@QAE@XZ$0 00448930 f   PlayerCreator.obj
 0001:0004793b       __ehhandler$??0CPlayerCreator@@QAE@XZ 0044893b f   PlayerCreator.obj
 0001:00047960       __ehhandler$?_Connect@CSmartClient@@IAEPAUIClient@@XZ 00448960 f   SmartClient.obj
 0001:00047980       __unwindfunclet$??1CSmartClient@@UAE@XZ$2 00448980 f   SmartClient.obj
 0001:0004798b       __unwindfunclet$??1CSmartClient@@UAE@XZ$3 0044898b f   SmartClient.obj
 0001:00047996       __unwindfunclet$??1CSmartClient@@UAE@XZ$4 00448996 f   SmartClient.obj
 0001:000479a1       __unwindfunclet$??1CSmartClient@@UAE@XZ$5 004489a1 f   SmartClient.obj
 0001:000479ac       __unwindfunclet$??1CSmartClient@@UAE@XZ$6 004489ac f   SmartClient.obj
 0001:000479b7       __unwindfunclet$??1CSmartClient@@UAE@XZ$7 004489b7 f   SmartClient.obj
 0001:000479c5       __unwindfunclet$??1CSmartClient@@UAE@XZ$8 004489c5 f   SmartClient.obj
 0001:000479d3       __ehhandler$??1CSmartClient@@UAE@XZ 004489d3 f   SmartClient.obj
 0001:000479f0       __unwindfunclet$??0CSmartClient@@QAE@XZ$0 004489f0 f   SmartClient.obj
 0001:000479fb       __unwindfunclet$??0CSmartClient@@QAE@XZ$1 004489fb f   SmartClient.obj
 0001:00047a06       __unwindfunclet$??0CSmartClient@@QAE@XZ$2 00448a06 f   SmartClient.obj
 0001:00047a11       __unwindfunclet$??0CSmartClient@@QAE@XZ$3 00448a11 f   SmartClient.obj
 0001:00047a1c       __unwindfunclet$??0CSmartClient@@QAE@XZ$4 00448a1c f   SmartClient.obj
 0001:00047a27       __ehhandler$??0CSmartClient@@QAE@XZ 00448a27 f   SmartClient.obj
 0001:00047a50       __unwindfunclet$?_Incsize@?$list@PAVCBuffer@Win32@OnlineGameLib@@V?$allocator@PAVCBuffer@Win32@OnlineGameLib@@@std@@@std@@IAEXI@Z$0 00448a50 f   SmartClient.obj
 0001:00047a58       __ehhandler$?_Incsize@?$list@PAVCBuffer@Win32@OnlineGameLib@@V?$allocator@PAVCBuffer@Win32@OnlineGameLib@@@std@@@std@@IAEXI@Z 00448a58 f   SmartClient.obj
 0001:00047a80       __unwindfunclet$?Send@CSmartClient@@QAE_NQBXABI@Z$2 00448a80 f   SmartClient.obj
 0001:00047a88       __unwindfunclet$?Send@CSmartClient@@QAE_NQBXABI@Z$3 00448a88 f   SmartClient.obj
 0001:00047a90       __ehhandler$?Send@CSmartClient@@QAE_NQBXABI@Z 00448a90 f   SmartClient.obj
 0001:00047ab0       __ehhandler$?WorkingThreadFunction@CSmartClient@@SGKPAX@Z 00448ab0 f   SmartClient.obj
 0001:00047ad0       __ehhandler$?Open@CSmartClient@@QAE_NQBDGPAUHWND__@@PBD2_N@Z 00448ad0 f   SmartClient.obj
 0001:00047af0       __unwindfunclet$?Create@Win32@OnlineGameLib@@YAPAXPAU_SECURITY_ATTRIBUTES@@HHPBD@Z$0 00448af0 f   common:Mutex.obj
 0001:00047afb       __unwindfunclet$?Create@Win32@OnlineGameLib@@YAPAXPAU_SECURITY_ATTRIBUTES@@HHPBD@Z$1 00448afb f   common:Mutex.obj
 0001:00047b06       __ehhandler$?Create@Win32@OnlineGameLib@@YAPAXPAU_SECURITY_ATTRIBUTES@@HHPBD@Z 00448b06 f   common:Mutex.obj
 0001:00047b30       __unwindfunclet$?Wait@CMutex@Win32@OnlineGameLib@@QBE_NK@Z$0 00448b30 f   common:Mutex.obj
 0001:00047b38       __ehhandler$?Wait@CMutex@Win32@OnlineGameLib@@QBE_NK@Z 00448b38 f   common:Mutex.obj
 0001:00047b60       __unwindfunclet$?Wait@CMutex@Win32@OnlineGameLib@@QBEXXZ$0 00448b60 f   common:Mutex.obj
 0001:00047b68       __unwindfunclet$?Wait@CMutex@Win32@OnlineGameLib@@QBEXXZ$1 00448b68 f   common:Mutex.obj
 0001:00047b70       __ehhandler$?Wait@CMutex@Win32@OnlineGameLib@@QBEXXZ 00448b70 f   common:Mutex.obj
 0001:00047b90       __unwindfunclet$??0CWin32Exception@Win32@OnlineGameLib@@QAE@ABV?$basic_string@DU?$char_traits@D@std@@V?$allocator@D@2@@std@@K@Z$0 00448b90 f   common:Win32Exception.obj
 0001:00047b98       __ehhandler$??0CWin32Exception@Win32@OnlineGameLib@@QAE@ABV?$basic_string@DU?$char_traits@D@std@@V?$allocator@D@2@@std@@K@Z 00448b98 f   common:Win32Exception.obj
 0001:00047bc0       __unwindfunclet$?MessageBoxA@CException@Win32@OnlineGameLib@@QBEXPAUHWND__@@@Z$0 00448bc0 f   common:Exception.obj
 0001:00047bc8       __ehhandler$?MessageBoxA@CException@Win32@OnlineGameLib@@QBEXPAUHWND__@@@Z 00448bc8 f   common:Exception.obj
 0001:00047bf0       __unwindfunclet$??0CException@Win32@OnlineGameLib@@QAE@ABV?$basic_string@DU?$char_traits@D@std@@V?$allocator@D@2@@std@@0@Z$0 00448bf0 f   common:Exception.obj
 0001:00047bfb       __ehhandler$??0CException@Win32@OnlineGameLib@@QAE@ABV?$basic_string@DU?$char_traits@D@std@@V?$allocator@D@2@@std@@0@Z 00448bfb f   common:Exception.obj
 0001:00047c20       __unwindfunclet$??0CBuffer@Win32@OnlineGameLib@@AAE@AAVAllocator@012@I@Z$0 00448c20 f   common:Buffer.obj
 0001:00047c28       __unwindfunclet$??0CBuffer@Win32@OnlineGameLib@@AAE@AAVAllocator@012@I@Z$1 00448c28 f   common:Buffer.obj
 0001:00047c33       __ehhandler$??0CBuffer@Win32@OnlineGameLib@@AAE@AAVAllocator@012@I@Z 00448c33 f   common:Buffer.obj
 0001:00047c50       __ehhandler$?DestroyBuffer@Allocator@CBuffer@Win32@OnlineGameLib@@AAEXPAV234@@Z 00448c50 f   common:Buffer.obj
 0001:00047c70       __unwindfunclet$?Flush@Allocator@CBuffer@Win32@OnlineGameLib@@IAEXXZ$0 00448c70 f   common:Buffer.obj
 0001:00047c78       __ehhandler$?Flush@Allocator@CBuffer@Win32@OnlineGameLib@@IAEXXZ 00448c78 f   common:Buffer.obj
 0001:00047ca0       __unwindfunclet$??1Allocator@CBuffer@Win32@OnlineGameLib@@UAE@XZ$2 00448ca0 f   common:Buffer.obj
 0001:00047cab       __ehhandler$??1Allocator@CBuffer@Win32@OnlineGameLib@@UAE@XZ 00448cab f   common:Buffer.obj
 0001:00047cd0       __unwindfunclet$?erase@?$_Tree@V?$_Tmap_traits@EPAVCBuffer@Win32@OnlineGameLib@@U?$less@E@std@@V?$allocator@U?$pair@$$CBEPAVCBuffer@Win32@OnlineGameLib@@@std@@@5@$0A@@std@@@std@@QAE?AViterator@12@V312@@Z$0 00448cd0 f   common:Buffer.obj
 0001:00047cd8       __ehhandler$?erase@?$_Tree@V?$_Tmap_traits@EPAVCBuffer@Win32@OnlineGameLib@@U?$less@E@std@@V?$allocator@U?$pair@$$CBEPAVCBuffer@Win32@OnlineGameLib@@@std@@@5@$0A@@std@@@std@@QAE?AViterator@12@V312@@Z 00448cd8 f   common:Buffer.obj
 0001:00047d00       __unwindfunclet$?_Insert@?$_Tree@V?$_Tmap_traits@EPAVCBuffer@Win32@OnlineGameLib@@U?$less@E@std@@V?$allocator@U?$pair@$$CBEPAVCBuffer@Win32@OnlineGameLib@@@std@@@5@$0A@@std@@@std@@IAE?AViterator@12@_NPAU_Node@?$_Tree_nod@V?$_Tmap_traits@EPAVCBuffer@Win32@OnlineGameLib@@U?$less@E@std@@V?$allocator@U?$pair@$$CBEPAVCBuffer@Win32@OnlineGameLib@@@std@@@5@$0A@@std@@@2@ABU?$pair@$$CBEPAVCBuffer@Win32@OnlineGameLib@@@2@@Z$0 00448d00 f   common:Buffer.obj
 0001:00047d08       __ehhandler$?_Insert@?$_Tree@V?$_Tmap_traits@EPAVCBuffer@Win32@OnlineGameLib@@U?$less@E@std@@V?$allocator@U?$pair@$$CBEPAVCBuffer@Win32@OnlineGameLib@@@std@@@5@$0A@@std@@@std@@IAE?AViterator@12@_NPAU_Node@?$_Tree_nod@V?$_Tmap_traits@EPAVCBuffer@Win32@OnlineGameLib@@U?$less@E@std@@V?$allocator@U?$pair@$$CBEPAVCBuffer@Win32@OnlineGameLib@@@std@@@5@$0A@@std@@@2@ABU?$pair@$$CBEPAVCBuffer@Win32@OnlineGameLib@@@2@@Z 00448d08 f   common:Buffer.obj
 0001:00047d30       __unwindfunclet$?AddData@CBuffer@Win32@OnlineGameLib@@QAEXQBDI@Z$0 00448d30 f   common:Buffer.obj
 0001:00047d38       __unwindfunclet$?AddData@CBuffer@Win32@OnlineGameLib@@QAEXQBDI@Z$1 00448d38 f   common:Buffer.obj
 0001:00047d40       __ehhandler$?AddData@CBuffer@Win32@OnlineGameLib@@QAEXQBDI@Z 00448d40 f   common:Buffer.obj
 0001:00047d60       __unwindfunclet$?Allocate@Allocator@CBuffer@Win32@OnlineGameLib@@QAEPAV234@XZ$0 00448d60 f   common:Buffer.obj
 0001:00047d6b       __unwindfunclet$?Allocate@Allocator@CBuffer@Win32@OnlineGameLib@@QAEPAV234@XZ$1 00448d6b f   common:Buffer.obj
 0001:00047d85       __unwindfunclet$?Allocate@Allocator@CBuffer@Win32@OnlineGameLib@@QAEPAV234@XZ$2 00448d85 f   common:Buffer.obj
 0001:00047d8d       __unwindfunclet$?Allocate@Allocator@CBuffer@Win32@OnlineGameLib@@QAEPAV234@XZ$3 00448d8d f   common:Buffer.obj
 0001:00047d95       __ehhandler$?Allocate@Allocator@CBuffer@Win32@OnlineGameLib@@QAEPAV234@XZ 00448d95 f   common:Buffer.obj
 0001:00047dc0       __unwindfunclet$?Release@Allocator@CBuffer@Win32@OnlineGameLib@@AAEXPAV234@@Z$0 00448dc0 f   common:Buffer.obj
 0001:00047dc8       __unwindfunclet$?Release@Allocator@CBuffer@Win32@OnlineGameLib@@AAEXPAV234@@Z$1 00448dc8 f   common:Buffer.obj
 0001:00047dd0       __unwindfunclet$?Release@Allocator@CBuffer@Win32@OnlineGameLib@@AAEXPAV234@@Z$2 00448dd0 f   common:Buffer.obj
 0001:00047ddb       __ehhandler$?Release@Allocator@CBuffer@Win32@OnlineGameLib@@AAEXPAV234@@Z 00448ddb f   common:Buffer.obj
 0001:00047e00       __unwindfunclet$?Release@CBuffer@Win32@OnlineGameLib@@QAEXXZ$0 00448e00 f   common:Buffer.obj
 0001:00047e08       __unwindfunclet$?Release@CBuffer@Win32@OnlineGameLib@@QAEXXZ$1 00448e08 f   common:Buffer.obj
 0001:00047e10       __ehhandler$?Release@CBuffer@Win32@OnlineGameLib@@QAEXXZ 00448e10 f   common:Buffer.obj
 0001:00047e30       __unwindfunclet$?Empty@CPackager@Win32@OnlineGameLib@@QAEXXZ$4 00448e30 f   common:Buffer.obj
 0001:00047e38       __unwindfunclet$?Empty@CPackager@Win32@OnlineGameLib@@QAEXXZ$5 00448e38 f   common:Buffer.obj
 0001:00047e40       __ehhandler$?Empty@CPackager@Win32@OnlineGameLib@@QAEXXZ 00448e40 f   common:Buffer.obj
 0001:00047e60       __unwindfunclet$??1CPackager@Win32@OnlineGameLib@@UAE@XZ$0 00448e60 f   common:Buffer.obj
 0001:00047e6b       __unwindfunclet$??1CPackager@Win32@OnlineGameLib@@UAE@XZ$1 00448e6b f   common:Buffer.obj
 0001:00047e76       __unwindfunclet$??1CPackager@Win32@OnlineGameLib@@UAE@XZ$2 00448e76 f   common:Buffer.obj
 0001:00047e81       __unwindfunclet$??1CPackager@Win32@OnlineGameLib@@UAE@XZ$3 00448e81 f   common:Buffer.obj
 0001:00047e8c       __unwindfunclet$??1CPackager@Win32@OnlineGameLib@@UAE@XZ$4 00448e8c f   common:Buffer.obj
 0001:00047e97       __ehhandler$??1CPackager@Win32@OnlineGameLib@@UAE@XZ 00448e97 f   common:Buffer.obj
 0001:00047ec0       __unwindfunclet$??0CPackager@Win32@OnlineGameLib@@QAE@II@Z$0 00448ec0 f   common:Buffer.obj
 0001:00047ecb       __unwindfunclet$??0CPackager@Win32@OnlineGameLib@@QAE@II@Z$1 00448ecb f   common:Buffer.obj
 0001:00047ed6       __unwindfunclet$??0CPackager@Win32@OnlineGameLib@@QAE@II@Z$2 00448ed6 f   common:Buffer.obj
 0001:00047ee1       __unwindfunclet$??0CPackager@Win32@OnlineGameLib@@QAE@II@Z$3 00448ee1 f   common:Buffer.obj
 0001:00047eec       __ehhandler$??0CPackager@Win32@OnlineGameLib@@QAE@II@Z 00448eec f   common:Buffer.obj
 0001:00047f10       __unwindfunclet$?AddData@CPackager@Win32@OnlineGameLib@@QAEXEQBDIK@Z$0 00448f10 f   common:Buffer.obj
 0001:00047f18       __ehhandler$?AddData@CPackager@Win32@OnlineGameLib@@QAEXEQBDIK@Z 00448f18 f   common:Buffer.obj
 0001:00047f40       __unwindfunclet$?DelData@CPackager@Win32@OnlineGameLib@@QAEXE@Z$2 00448f40 f   common:Buffer.obj
 0001:00047f48       __ehhandler$?DelData@CPackager@Win32@OnlineGameLib@@QAEXE@Z 00448f48 f   common:Buffer.obj
 0001:00047f70       __unwindfunclet$?GetHeadPack@CPackager@Win32@OnlineGameLib@@QAEPAVCBuffer@23@EI@Z$0 00448f70 f   common:Buffer.obj
 0001:00047f78       __ehhandler$?GetHeadPack@CPackager@Win32@OnlineGameLib@@QAEPAVCBuffer@23@EI@Z 00448f78 f   common:Buffer.obj
 0001:00047fa0       __unwindfunclet$?GetNextPack@CPackager@Win32@OnlineGameLib@@QAEPAVCBuffer@23@E@Z$0 00448fa0 f   common:Buffer.obj
 0001:00047fa8       __ehhandler$?GetNextPack@CPackager@Win32@OnlineGameLib@@QAEPAVCBuffer@23@E@Z 00448fa8 f   common:Buffer.obj
 0001:00047fd0       __unwindfunclet$?PackUp@CPackager@Win32@OnlineGameLib@@QAEPAVCBuffer@23@PBXI@Z$0 00448fd0 f   common:Buffer.obj
 0001:00047fd8       __ehhandler$?PackUp@CPackager@Win32@OnlineGameLib@@QAEPAVCBuffer@23@PBXI@Z 00448fd8 f   common:Buffer.obj
 0001:00048000       __unwindfunclet$?uflow@?$basic_filebuf@DU?$char_traits@D@std@@@std@@MAEHXZ$0 00449000 f   common:Utils.obj
 0001:00048008       __ehhandler$?uflow@?$basic_filebuf@DU?$char_traits@D@std@@@std@@MAEHXZ 00449008 f   common:Utils.obj
 0001:00048030       __unwindfunclet$?_Endwrite@?$basic_filebuf@DU?$char_traits@D@std@@@std@@IAE_NXZ$0 00449030 f   common:Utils.obj
 0001:00048038       __ehhandler$?_Endwrite@?$basic_filebuf@DU?$char_traits@D@std@@@std@@IAE_NXZ 00449038 f   common:Utils.obj
 0001:00048060       __unwindfunclet$?HexToString@Win32@OnlineGameLib@@YA?AV?$basic_string@DU?$char_traits@D@std@@V?$allocator@D@2@@std@@PBEI@Z$0 00449060 f   common:Utils.obj
 0001:00048079       __ehhandler$?HexToString@Win32@OnlineGameLib@@YA?AV?$basic_string@DU?$char_traits@D@std@@V?$allocator@D@2@@std@@PBEI@Z 00449079 f   common:Utils.obj
 0001:000480a0       __unwindfunclet$?overflow@?$basic_filebuf@DU?$char_traits@D@std@@@std@@MAEHH@Z$0 004490a0 f   common:Utils.obj
 0001:000480a8       __ehhandler$?overflow@?$basic_filebuf@DU?$char_traits@D@std@@@std@@MAEHH@Z 004490a8 f   common:Utils.obj
 0001:000480d0       __unwindfunclet$??$?HDU?$char_traits@D@std@@V?$allocator@D@1@@std@@YA?AV?$basic_string@DU?$char_traits@D@std@@V?$allocator@D@2@@0@ABV10@0@Z$0 004490d0 f   common:Utils.obj
 0001:000480d8       __ehhandler$??$?HDU?$char_traits@D@std@@V?$allocator@D@1@@std@@YA?AV?$basic_string@DU?$char_traits@D@std@@V?$allocator@D@2@@0@ABV10@0@Z 004490d8 f   common:Utils.obj
 0001:00048100       __unwindfunclet$?GetCurrentDirectoryA@Win32@OnlineGameLib@@YA?AV?$basic_string@DU?$char_traits@D@std@@V?$allocator@D@2@@std@@XZ$0 00449100 f   common:Utils.obj
 0001:0004810b       __unwindfunclet$?GetCurrentDirectoryA@Win32@OnlineGameLib@@YA?AV?$basic_string@DU?$char_traits@D@std@@V?$allocator@D@2@@std@@XZ$1 0044910b f   common:Utils.obj
 0001:00048113       __unwindfunclet$?GetCurrentDirectoryA@Win32@OnlineGameLib@@YA?AV?$basic_string@DU?$char_traits@D@std@@V?$allocator@D@2@@std@@XZ$2 00449113 f   common:Utils.obj
 0001:0004811b       __ehhandler$?GetCurrentDirectoryA@Win32@OnlineGameLib@@YA?AV?$basic_string@DU?$char_traits@D@std@@V?$allocator@D@2@@std@@XZ 0044911b f   common:Utils.obj
 0001:00048140       __unwindfunclet$?DumpData@Win32@OnlineGameLib@@YA?AV?$basic_string@DU?$char_traits@D@std@@V?$allocator@D@2@@std@@QBEII@Z$0 00449140 f   common:Utils.obj
 0001:00048162       __unwindfunclet$?DumpData@Win32@OnlineGameLib@@YA?AV?$basic_string@DU?$char_traits@D@std@@V?$allocator@D@2@@std@@QBEII@Z$1 00449162 f   common:Utils.obj
 0001:0004816a       __unwindfunclet$?DumpData@Win32@OnlineGameLib@@YA?AV?$basic_string@DU?$char_traits@D@std@@V?$allocator@D@2@@std@@QBEII@Z$2 0044916a f   common:Utils.obj
 0001:00048172       __unwindfunclet$?DumpData@Win32@OnlineGameLib@@YA?AV?$basic_string@DU?$char_traits@D@std@@V?$allocator@D@2@@std@@QBEII@Z$3 00449172 f   common:Utils.obj
 0001:0004817a       __unwindfunclet$?DumpData@Win32@OnlineGameLib@@YA?AV?$basic_string@DU?$char_traits@D@std@@V?$allocator@D@2@@std@@QBEII@Z$4 0044917a f   common:Utils.obj
 0001:00048185       __unwindfunclet$?DumpData@Win32@OnlineGameLib@@YA?AV?$basic_string@DU?$char_traits@D@std@@V?$allocator@D@2@@std@@QBEII@Z$5 00449185 f   common:Utils.obj
 0001:0004818d       __unwindfunclet$?DumpData@Win32@OnlineGameLib@@YA?AV?$basic_string@DU?$char_traits@D@std@@V?$allocator@D@2@@std@@QBEII@Z$6 0044918d f   common:Utils.obj
 0001:00048195       __unwindfunclet$?DumpData@Win32@OnlineGameLib@@YA?AV?$basic_string@DU?$char_traits@D@std@@V?$allocator@D@2@@std@@QBEII@Z$7 00449195 f   common:Utils.obj
 0001:000481a0       __ehhandler$?DumpData@Win32@OnlineGameLib@@YA?AV?$basic_string@DU?$char_traits@D@std@@V?$allocator@D@2@@std@@QBEII@Z 004491a0 f   common:Utils.obj
 0001:000481d0       __unwindfunclet$?GetComputerNameA@Win32@OnlineGameLib@@YA?AV?$basic_string@DU?$char_traits@D@std@@V?$allocator@D@2@@std@@XZ$0 004491d0 f   common:Utils.obj
 0001:000481de       __ehhandler$?GetComputerNameA@Win32@OnlineGameLib@@YA?AV?$basic_string@DU?$char_traits@D@std@@V?$allocator@D@2@@std@@XZ 004491de f   common:Utils.obj
 0001:00048210       __unwindfunclet$?GetModuleFileNameA@Win32@OnlineGameLib@@YA?AV?$basic_string@DU?$char_traits@D@std@@V?$allocator@D@2@@std@@PAUHINSTANCE__@@@Z$0 00449210 f   common:Utils.obj
 0001:0004821e       __ehhandler$?GetModuleFileNameA@Win32@OnlineGameLib@@YA?AV?$basic_string@DU?$char_traits@D@std@@V?$allocator@D@2@@std@@PAUHINSTANCE__@@@Z 0044921e f   common:Utils.obj
 0001:00048250       __unwindfunclet$?GetUserNameA@Win32@OnlineGameLib@@YA?AV?$basic_string@DU?$char_traits@D@std@@V?$allocator@D@2@@std@@XZ$0 00449250 f   common:Utils.obj
 0001:0004825e       __ehhandler$?GetUserNameA@Win32@OnlineGameLib@@YA?AV?$basic_string@DU?$char_traits@D@std@@V?$allocator@D@2@@std@@XZ 0044925e f   common:Utils.obj
 0001:00048290       __unwindfunclet$?GetFileVersion@Win32@OnlineGameLib@@YA?AV?$basic_string@DU?$char_traits@D@std@@V?$allocator@D@2@@std@@XZ$2 00449290 f   common:Utils.obj
 0001:00048298       __unwindfunclet$?GetFileVersion@Win32@OnlineGameLib@@YA?AV?$basic_string@DU?$char_traits@D@std@@V?$allocator@D@2@@std@@XZ$3 00449298 f   common:Utils.obj
 0001:000482a3       __unwindfunclet$?GetFileVersion@Win32@OnlineGameLib@@YA?AV?$basic_string@DU?$char_traits@D@std@@V?$allocator@D@2@@std@@XZ$4 004492a3 f   common:Utils.obj
 0001:000482ab       __ehhandler$?GetFileVersion@Win32@OnlineGameLib@@YA?AV?$basic_string@DU?$char_traits@D@std@@V?$allocator@D@2@@std@@XZ 004492ab f   common:Utils.obj
 0001:000482e0       __unwindfunclet$??1?$basic_filebuf@DU?$char_traits@D@std@@@std@@UAE@XZ$0 004492e0 f   common:Utils.obj
 0001:000482e8       __ehhandler$??1?$basic_filebuf@DU?$char_traits@D@std@@@std@@UAE@XZ 004492e8 f   common:Utils.obj
 0001:00048310       __unwindfunclet$??0?$codecvt@DDH@std@@QAE@I@Z$0 00449310 f   common:Utils.obj
 0001:0004831b       __ehhandler$??0?$codecvt@DDH@std@@QAE@I@Z 0044931b f   common:Utils.obj
 0001:00048350       __unwindfunclet$??1?$basic_fstream@DU?$char_traits@D@std@@@std@@UAE@XZ$0 00449350 f   common:Utils.obj
 0001:0004835b       __ehhandler$??1?$basic_fstream@DU?$char_traits@D@std@@@std@@UAE@XZ 0044935b f   common:Utils.obj
 0001:00048380       __unwindfunclet$?_Getcat@?$codecvt@DDH@std@@SAIPAPBVfacet@locale@2@@Z$0 00449380 f   common:Utils.obj
 0001:0004838b       __ehhandler$?_Getcat@?$codecvt@DDH@std@@SAIPAPBVfacet@locale@2@@Z 0044938b f   common:Utils.obj
 0001:000483b0       __unwindfunclet$??$use_facet@V?$codecvt@DDH@std@@@std@@YAABV?$codecvt@DDH@0@ABVlocale@0@@Z$0 004493b0 f   common:Utils.obj
 0001:000483b8       __ehhandler$??$use_facet@V?$codecvt@DDH@std@@@std@@YAABV?$codecvt@DDH@0@ABVlocale@0@@Z 004493b8 f   common:Utils.obj
 0001:000483e0       __unwindfunclet$??0?$basic_fstream@DU?$char_traits@D@std@@@std@@QAE@XZ$0 004493e0 f   common:Utils.obj
 0001:000483fc       __unwindfunclet$??0?$basic_fstream@DU?$char_traits@D@std@@@std@@QAE@XZ$1 004493fc f   common:Utils.obj
 0001:00048407       __ehhandler$??0?$basic_fstream@DU?$char_traits@D@std@@@std@@QAE@XZ 00449407 f   common:Utils.obj
 0001:00048430       __unwindfunclet$??0CLibrary@Win32@OnlineGameLib@@QAE@QBD@Z$0 00449430 f   common:Library.obj
 0001:0004843b       __ehhandler$??0CLibrary@Win32@OnlineGameLib@@QAE@QBD@Z 0044943b f   common:Library.obj
 0001:00048460       __unwindfunclet$??$_Construct@V?$basic_string@DU?$char_traits@D@std@@V?$allocator@D@2@@std@@V12@@std@@YAXPAV?$basic_string@DU?$char_traits@D@std@@V?$allocator@D@2@@0@ABV10@@Z$0 00449460 f   common:IniFile.obj
 0001:00048471       __ehhandler$??$_Construct@V?$basic_string@DU?$char_traits@D@std@@V?$allocator@D@2@@std@@V12@@std@@YAXPAV?$basic_string@DU?$char_traits@D@std@@V?$allocator@D@2@@0@ABV10@@Z 00449471 f   common:IniFile.obj
 0001:00048490       __unwindfunclet$??$_Uninit_fill_n@PAV?$basic_string@DU?$char_traits@D@std@@V?$allocator@D@2@@std@@IV12@V?$allocator@V?$basic_string@DU?$char_traits@D@std@@V?$allocator@D@2@@std@@@2@@std@@YAXPAV?$basic_string@DU?$char_traits@D@std@@V?$allocator@D@2@@0@IABV10@AAV?$allocator@V?$basic_string@DU?$char_traits@D@std@@V?$allocator@D@2@@std@@@0@U_Nonscalar_ptr_iterator_tag@0@U_Range_checked_iterator_tag@0@@Z$2 00449490 f   common:IniFile.obj
 0001:000484a1       __ehhandler$??$_Uninit_fill_n@PAV?$basic_string@DU?$char_traits@D@std@@V?$allocator@D@2@@std@@IV12@V?$allocator@V?$basic_string@DU?$char_traits@D@std@@V?$allocator@D@2@@std@@@2@@std@@YAXPAV?$basic_string@DU?$char_traits@D@std@@V?$allocator@D@2@@0@IABV10@AAV?$allocator@V?$basic_string@DU?$char_traits@D@std@@V?$allocator@D@2@@std@@@0@U_Nonscalar_ptr_iterator_tag@0@U_Range_checked_iterator_tag@0@@Z 004494a1 f   common:IniFile.obj
 0001:000484c0       __unwindfunclet$??$_Uninit_move@PAV?$basic_string@DU?$char_traits@D@std@@V?$allocator@D@2@@std@@PAV12@V?$allocator@V?$basic_string@DU?$char_traits@D@std@@V?$allocator@D@2@@std@@@2@@std@@YAPAV?$basic_string@DU?$char_traits@D@std@@V?$allocator@D@2@@0@PAV10@00AAV?$allocator@V?$basic_string@DU?$char_traits@D@std@@V?$allocator@D@2@@std@@@0@U_Swap_move_tag@0@U_Range_checked_iterator_tag@0@@Z$2 004494c0 f   common:IniFile.obj
 0001:000484c8       __unwindfunclet$??$_Uninit_move@PAV?$basic_string@DU?$char_traits@D@std@@V?$allocator@D@2@@std@@PAV12@V?$allocator@V?$basic_string@DU?$char_traits@D@std@@V?$allocator@D@2@@std@@@2@@std@@YAPAV?$basic_string@DU?$char_traits@D@std@@V?$allocator@D@2@@0@PAV10@00AAV?$allocator@V?$basic_string@DU?$char_traits@D@std@@V?$allocator@D@2@@std@@@0@U_Swap_move_tag@0@U_Range_checked_iterator_tag@0@@Z$3 004494c8 f   common:IniFile.obj
 0001:000484d9       __ehhandler$??$_Uninit_move@PAV?$basic_string@DU?$char_traits@D@std@@V?$allocator@D@2@@std@@PAV12@V?$allocator@V?$basic_string@DU?$char_traits@D@std@@V?$allocator@D@2@@std@@@2@@std@@YAPAV?$basic_string@DU?$char_traits@D@std@@V?$allocator@D@2@@0@PAV10@00AAV?$allocator@V?$basic_string@DU?$char_traits@D@std@@V?$allocator@D@2@@std@@@0@U_Swap_move_tag@0@U_Range_checked_iterator_tag@0@@Z 004494d9 f   common:IniFile.obj
 0001:00048500       __unwindfunclet$?_Insert_n@?$vector@V?$basic_string@DU?$char_traits@D@std@@V?$allocator@D@2@@std@@V?$allocator@V?$basic_string@DU?$char_traits@D@std@@V?$allocator@D@2@@std@@@2@@std@@IAEXV?$_Vector_iterator@V?$basic_string@DU?$char_traits@D@std@@V?$allocator@D@2@@std@@V?$allocator@V?$basic_string@DU?$char_traits@D@std@@V?$allocator@D@2@@std@@@2@@2@IABV?$basic_string@DU?$char_traits@D@std@@V?$allocator@D@2@@2@@Z$4 00449500 f   common:IniFile.obj
 0001:00048508       __ehhandler$?_Insert_n@?$vector@V?$basic_string@DU?$char_traits@D@std@@V?$allocator@D@2@@std@@V?$allocator@V?$basic_string@DU?$char_traits@D@std@@V?$allocator@D@2@@std@@@2@@std@@IAEXV?$_Vector_iterator@V?$basic_string@DU?$char_traits@D@std@@V?$allocator@D@2@@std@@V?$allocator@V?$basic_string@DU?$char_traits@D@std@@V?$allocator@D@2@@std@@@2@@2@IABV?$basic_string@DU?$char_traits@D@std@@V?$allocator@D@2@@2@@Z 00449508 f   common:IniFile.obj
 0001:00048530       __unwindfunclet$?ReadSections@CIniFile@Win32@OnlineGameLib@@QAEHAAV?$vector@V?$basic_string@DU?$char_traits@D@std@@V?$allocator@D@2@@std@@V?$allocator@V?$basic_string@DU?$char_traits@D@std@@V?$allocator@D@2@@std@@@2@@std@@@Z$0 00449530 f   common:IniFile.obj
 0001:00048538       __ehhandler$?ReadSections@CIniFile@Win32@OnlineGameLib@@QAEHAAV?$vector@V?$basic_string@DU?$char_traits@D@std@@V?$allocator@D@2@@std@@V?$allocator@V?$basic_string@DU?$char_traits@D@std@@V?$allocator@D@2@@std@@@2@@std@@@Z 00449538 f   common:IniFile.obj
 0001:00048560       __unwindfunclet$?ReadSection@CIniFile@Win32@OnlineGameLib@@QAEHPBDAAV?$vector@V?$basic_string@DU?$char_traits@D@std@@V?$allocator@D@2@@std@@V?$allocator@V?$basic_string@DU?$char_traits@D@std@@V?$allocator@D@2@@std@@@2@@std@@@Z$0 00449560 f   common:IniFile.obj
 0001:00048568       __ehhandler$?ReadSection@CIniFile@Win32@OnlineGameLib@@QAEHPBDAAV?$vector@V?$basic_string@DU?$char_traits@D@std@@V?$allocator@D@2@@std@@V?$allocator@V?$basic_string@DU?$char_traits@D@std@@V?$allocator@D@2@@std@@@2@@std@@@Z 00449568 f   common:IniFile.obj
 0001:00048583       __unwindfunclet$?_Xlen@_String_base@std@@SAXXZ$0 00449583 f   libcpmt:string.obj
 0001:0004858b       __ehhandler$?_Xlen@_String_base@std@@SAXXZ 0044958b f   libcpmt:string.obj
 0001:000485a6       __unwindfunclet$?_Xran@_String_base@std@@SAXXZ$0 004495a6 f   libcpmt:string.obj
 0001:000485ae       __ehhandler$?_Xran@_String_base@std@@SAXXZ 004495ae f   libcpmt:string.obj
 0001:000485c9       __unwindfunclet$?_Xinvarg@_String_base@std@@SAXXZ$0 004495c9 f   libcpmt:string.obj
 0001:000485d1       __ehhandler$?_Xinvarg@_String_base@std@@SAXXZ 004495d1 f   libcpmt:string.obj
 0001:000485ec       __unwindfunclet$?_Locimp_dtor@_Locimp@locale@std@@CAXPAV123@@Z$0 004495ec f   libcpmt:locale0.obj
 0001:000485f4       __ehhandler$?_Locimp_dtor@_Locimp@locale@std@@CAXPAV123@@Z 004495f4 f   libcpmt:locale0.obj
 0001:0004860f       __unwindfunclet$??0_Locimp@locale@std@@AAE@_N@Z$0 0044960f f   libcpmt:locale0.obj
 0001:00048617       __ehhandler$??0_Locimp@locale@std@@AAE@_N@Z 00449617 f   libcpmt:locale0.obj
 0001:00048632       __unwindfunclet$??1_Locimp@locale@std@@MAE@XZ$0 00449632 f   libcpmt:locale0.obj
 0001:0004863a       __unwindfunclet$??1_Locimp@locale@std@@MAE@XZ$1 0044963a f   libcpmt:locale0.obj
 0001:00048645       __ehhandler$??1_Locimp@locale@std@@MAE@XZ 00449645 f   libcpmt:locale0.obj
 0001:00048660       __unwindfunclet$?_Init@locale@std@@CAPAV_Locimp@12@XZ$0 00449660 f   libcpmt:locale0.obj
 0001:00048668       __unwindfunclet$?_Init@locale@std@@CAPAV_Locimp@12@XZ$1 00449668 f   libcpmt:locale0.obj
 0001:00048672       __ehhandler$?_Init@locale@std@@CAPAV_Locimp@12@XZ 00449672 f   libcpmt:locale0.obj
 0001:0004868d       __unwindfunclet$?empty@locale@std@@SA?AV12@XZ$0 0044968d f   libcpmt:locale0.obj
 0001:00048697       __ehhandler$?empty@locale@std@@SA?AV12@XZ 00449697 f   libcpmt:locale0.obj
 0001:000486b2       __ehhandler$?CallUnexpected@@YAXPBU_s_ESTypeList@@@Z 004496b2 f   LIBCMT:frame.obj
 0001:000486d0       ??__E?m_theNetwork@CBishopApp@@0VCNetwork@@A@@YAXXZ 004496d0 f   Application.obj
 0001:000486f0       ??__E?m_theGlobalAllocator@CGamePlayer@@0VAllocator@CBuffer@Win32@OnlineGameLib@@A@@YAXXZ 004496f0 f   GamePlayer.obj
 0001:00048710       ??__E?m_csMapSP@CGamePlayer@@0VCCriticalSection@Win32@OnlineGameLib@@A@@YAXXZ 00449710 f   GamePlayer.obj
 0001:00048730       ??__E?m_sthePlayerTable@CGamePlayer@@0V?$map@V?$basic_string@DU?$char_traits@D@std@@V?$allocator@D@2@@std@@PAVIPlayer@@U?$less@V?$basic_string@DU?$char_traits@D@std@@V?$allocator@D@2@@std@@@2@V?$allocator@U?$pair@$$CBV?$basic_string@DU?$char_traits@D@std@@V?$allocator@D@2@@std@@PAVIPlayer@@@std@@@2@@std@@A@@YAXXZ 00449730 f   GamePlayer.obj
 0001:00048770       ??__E?m_thePlayerCreator@CGamePlayer@@0VCPlayerCreator@@A@@YAXXZ 00449770 f   GamePlayer.obj
 0001:00048790       ??__E?m_theGlobalAllocator@CGameServer@@0VAllocator@CBuffer@Win32@OnlineGameLib@@A@@YAXXZ 00449790 f   GameServer.obj
 0001:000487b0       ??__E?m_csMapIDAction@CGameServer@@0VCCriticalSection@Win32@OnlineGameLib@@A@@YAXXZ 004497b0 f   GameServer.obj
 0001:000487d0       ??__E?m_theMapIDConvert@CGameServer@@0V?$map@IV?$list@PAVIGServer@@V?$allocator@PAVIGServer@@@std@@@std@@U?$less@I@2@V?$allocator@U?$pair@$$CBIV?$list@PAVIGServer@@V?$allocator@PAVIGServer@@@std@@@std@@@std@@@2@@std@@A@@YAXXZ 004497d0 f   GameServer.obj
 0001:00048810       ??__E?m_shQuitEvent@CGameServer@@0VCEvent@Win32@OnlineGameLib@@A@@YAXXZ 00449810 f   GameServer.obj
 0001:00048830       ??__E?m_shStartupManagerThreadEvent@CGameServer@@0VCEvent@Win32@OnlineGameLib@@A@@YAXXZ 00449830 f   GameServer.obj
 0001:00048850       ??__E?m_theGameServers@CGameServer@@0V?$map@IPAVIGServer@@U?$less@I@std@@V?$allocator@U?$pair@$$CBIPAVIGServer@@@std@@@3@@std@@A@@YAXXZ 00449850 f   GameServer.obj
 0001:00048890       ??__E?m_csGameSvrAction@CGameServer@@0VCCriticalSection@Win32@OnlineGameLib@@A@@YAXXZ 00449890 f   GameServer.obj
 0001:000488b0       ??__E?m_theHeavenLib@CIntercessor@@1VCLibrary@Win32@OnlineGameLib@@A@@YAXXZ 004498b0 f   Intercessor.obj
 0001:000488d0       ??__E?m_theRainbowLib@CIntercessor@@1VCLibrary@Win32@OnlineGameLib@@A@@YAXXZ 004498d0 f   Intercessor.obj
 0001:000488f0       ??__E?m_theHeavenLib@CNetwork@@1VCLibrary@Win32@OnlineGameLib@@A@@YAXXZ 004498f0 f   Network.obj
 0001:00048910       ??__E?m_theRainbowLib@CNetwork@@1VCLibrary@Win32@OnlineGameLib@@A@@YAXXZ 00449910 f   Network.obj
 0001:00048930       ??__E?m_theRainbowLib@CSmartClient@@0VCLibrary@Win32@OnlineGameLib@@A@@YAXXZ 00449930 f   SmartClient.obj
 0001:00048950       ??__Eg_theSmartClient@@YAXXZ 00449950 f   SmartClient.obj
 0001:00048970       ??__Es_criticalSection@Win32@OnlineGameLib@@YAXXZ 00449970 f   common:Utils.obj
 0001:00048990       ??__Es_debugOut@Win32@OnlineGameLib@@YAXXZ 00449990 f   common:Utils.obj
 0001:000489b0       ??__Es_logFileName@Win32@OnlineGameLib@@YAXXZ 004499b0 f   common:Utils.obj
 0001:000489cd       ??__Einitlocks@std@@YAXXZ  004499cd f   libcpmt:xlock.obj
 0001:000489e3       ??__Eclassic_locale@std@@YAXXZ 004499e3 f   libcpmt:locale0.obj
 0001:000489ef       ??__Einitlocks@std@@YAXXZ  004499ef f   libcpmt:iosptrs.obj
 0001:00048a05       ??__Einit_atexit@@YAXXZ    00449a05 f   libcpmt:iosptrs.obj
 0001:00048a20       ??__F?m_theNetwork@CBishopApp@@0VCNetwork@@A@@YAXXZ 00449a20 f   Application.obj
 0001:00048a30       ??__F?m_theGlobalAllocator@CGamePlayer@@0VAllocator@CBuffer@Win32@OnlineGameLib@@A@@YAXXZ 00449a30 f   GamePlayer.obj
 0001:00048a40       ??__F?m_csMapSP@CGamePlayer@@0VCCriticalSection@Win32@OnlineGameLib@@A@@YAXXZ 00449a40 f   GamePlayer.obj
 0001:00048a50       ??__F?m_thePlayerCreator@CGamePlayer@@0VCPlayerCreator@@A@@YAXXZ 00449a50 f   GamePlayer.obj
 0001:00048a60       ??__F?m_sthePlayerTable@CGamePlayer@@0V?$map@V?$basic_string@DU?$char_traits@D@std@@V?$allocator@D@2@@std@@PAVIPlayer@@U?$less@V?$basic_string@DU?$char_traits@D@std@@V?$allocator@D@2@@std@@@2@V?$allocator@U?$pair@$$CBV?$basic_string@DU?$char_traits@D@std@@V?$allocator@D@2@@std@@PAVIPlayer@@@std@@@2@@std@@A@@YAXXZ 00449a60 f   GamePlayer.obj
 0001:00048aa0       ??__F?m_theGlobalAllocator@CGameServer@@0VAllocator@CBuffer@Win32@OnlineGameLib@@A@@YAXXZ 00449aa0 f   GameServer.obj
 0001:00048ab0       ??__F?m_csMapIDAction@CGameServer@@0VCCriticalSection@Win32@OnlineGameLib@@A@@YAXXZ 00449ab0 f   GameServer.obj
 0001:00048ac0       ??__F?m_shQuitEvent@CGameServer@@0VCEvent@Win32@OnlineGameLib@@A@@YAXXZ 00449ac0 f   GameServer.obj
 0001:00048ad0       ??__F?m_shStartupManagerThreadEvent@CGameServer@@0VCEvent@Win32@OnlineGameLib@@A@@YAXXZ 00449ad0 f   GameServer.obj
 0001:00048ae0       ??__F?m_csGameSvrAction@CGameServer@@0VCCriticalSection@Win32@OnlineGameLib@@A@@YAXXZ 00449ae0 f   GameServer.obj
 0001:00048af0       ??__F?m_theGameServers@CGameServer@@0V?$map@IPAVIGServer@@U?$less@I@std@@V?$allocator@U?$pair@$$CBIPAVIGServer@@@std@@@3@@std@@A@@YAXXZ 00449af0 f   GameServer.obj
 0001:00048b30       ??__F?m_theMapIDConvert@CGameServer@@0V?$map@IV?$list@PAVIGServer@@V?$allocator@PAVIGServer@@@std@@@std@@U?$less@I@2@V?$allocator@U?$pair@$$CBIV?$list@PAVIGServer@@V?$allocator@PAVIGServer@@@std@@@std@@@std@@@2@@std@@A@@YAXXZ 00449b30 f   GameServer.obj
 0001:00048b70       ??__F?m_theHeavenLib@CIntercessor@@1VCLibrary@Win32@OnlineGameLib@@A@@YAXXZ 00449b70 f   Intercessor.obj
 0001:00048b80       ??__F?m_theRainbowLib@CIntercessor@@1VCLibrary@Win32@OnlineGameLib@@A@@YAXXZ 00449b80 f   Intercessor.obj
 0001:00048b90       ??__F?m_theHeavenLib@CNetwork@@1VCLibrary@Win32@OnlineGameLib@@A@@YAXXZ 00449b90 f   Network.obj
 0001:00048ba0       ??__F?m_theRainbowLib@CNetwork@@1VCLibrary@Win32@OnlineGameLib@@A@@YAXXZ 00449ba0 f   Network.obj
 0001:00048bb0       ??__F?m_theRainbowLib@CSmartClient@@0VCLibrary@Win32@OnlineGameLib@@A@@YAXXZ 00449bb0 f   SmartClient.obj
 0001:00048bc0       ??__Fg_theSmartClient@@YAXXZ 00449bc0 f   SmartClient.obj
 0001:00048bd0       ??__Fs_criticalSection@Win32@OnlineGameLib@@YAXXZ 00449bd0 f   common:Utils.obj
 0001:00048be0       ??__Fs_logFileName@Win32@OnlineGameLib@@YAXXZ 00449be0 f   common:Utils.obj
 0001:00048c10       ??__Fname@?1??GetAppFullPath@Win32@OnlineGameLib@@YA?AV?$basic_string@DU?$char_traits@D@std@@V?$allocator@D@2@@std@@PAUHINSTANCE__@@@Z@YAXXZ 00449c10 f   common:Utils.obj
 0001:00048c40       ??__Fname@?1??GetComputerNameA@Win32@OnlineGameLib@@YA?AV?$basic_string@DU?$char_traits@D@std@@V?$allocator@D@2@@std@@XZ@YAXXZ 00449c40 f   common:Utils.obj
 0001:00048c70       ??__Fname@?1??GetModuleFileNameA@Win32@OnlineGameLib@@YA?AV?$basic_string@DU?$char_traits@D@std@@V?$allocator@D@2@@std@@PAUHINSTANCE__@@@Z@YAXXZ 00449c70 f   common:Utils.obj
 0001:00048ca0       ??__Fname@?1??GetUserNameA@Win32@OnlineGameLib@@YA?AV?$basic_string@DU?$char_traits@D@std@@V?$allocator@D@2@@std@@XZ@YAXXZ 00449ca0 f   common:Utils.obj
 0001:00048cd0       ??__Fversion@?1??GetFileVersion@Win32@OnlineGameLib@@YA?AV?$basic_string@DU?$char_traits@D@std@@V?$allocator@D@2@@std@@XZ@YAXXZ 00449cd0 f   common:Utils.obj
 0001:00048d00       ??__Fs_debugOut@Win32@OnlineGameLib@@YAXXZ 00449d00 f   common:Utils.obj
 0001:00048d20       ??__Finitlocks@std@@YAXXZ  00449d20 f   libcpmt:xlock.obj
 0001:00048d2a       ??__Fclassic_locale@std@@YAXXZ 00449d2a f   libcpmt:locale0.obj
 0001:00048d34       ??__Finitlocks@std@@YAXXZ  00449d34 f   libcpmt:iosptrs.obj
 0001:00048d3e       ??__Finit_atexit@@YAXXZ    00449d3e f   libcpmt:iosptrs.obj
 0001:00048d48       ??__Fnomem@?5???2@YAPAXI@Z@YAXXZ 00449d48 f   LIBCMT:new.obj
