 Represent3

 Timestamp is 507eb4b2 (Wed Oct 17 20:37:54 2012)

 Preferred load address is 10000000

 Start         Length     Name                   Class
 0001:00000000 000ac574H .text                   CODE
 0001:000ac580 0000089dH .text$x                 CODE
 0001:000ace20 0000006fH .text$yc                CODE
 0001:000ace90 0000001aH .text$yd                CODE
 0002:00000000 000002f4H .idata$5                DATA
 0002:000002f4 00000004H .CRT$XCA                DATA
 0002:000002f8 00000008H .CRT$XCU                DATA
 0002:00000300 00000004H .CRT$XCZ                DATA
 0002:00000304 00000004H .CRT$XIA                DATA
 0002:00000308 00000004H .CRT$XIAA               DATA
 0002:0000030c 00000004H .CRT$XIC                DATA
 0002:00000310 00000004H .CRT$XIZ                DATA
 0002:00000320 00017568H .rdata                  DATA
 0002:00017888 00000066H .rdata$debug            DATA
 0002:000178f0 000004e0H .rdata$r                DATA
 0002:00017dd0 00000004H .rtc$IAA                DATA
 0002:00017dd4 00000004H .rtc$IZZ                DATA
 0002:00017dd8 00000004H .rtc$TAA                DATA
 0002:00017ddc 00000004H .rtc$TZZ                DATA
 0002:00017de0 00000d14H .xdata$x                DATA
 0002:00018af4 000000f0H .idata$2                DATA
 0002:00018be4 00000014H .idata$3                DATA
 0002:00018bf8 000002f4H .idata$4                DATA
 0002:00018eec 00000df8H .idata$6                DATA
 0002:00019cf0 0000007dH .edata                  DATA
 0003:00000000 00009728H .data                   DATA
 0003:00009730 0000298cH .bss                    DATA

  Address         Publics by Value              Rva+Base       Lib:Object

 0000:00000000       ___safe_se_handler_count   00000000     <absolute>
 0000:00000000       ___safe_se_handler_table   00000000     <absolute>
 0000:00000000       __except_list              00000000     <absolute>
 0000:00009876       __ldused                   00009876     <absolute>
 0000:00009876       __fltused                  00009876     <absolute>
 0000:00000000       ___ImageBase               10000000     <linker-defined>
 0001:00000000       ?ResetDevice@CD3D_Device@@QAE_NXZ 10001000 f   D3D_Device.obj
 0001:00000020       ?ReleaseDevObjects@CD3D_Device@@QAE_NXZ 10001020 f   D3D_Device.obj
 0001:00000030       ?RestoreDevObjects@CD3D_Device@@QAE_NXZ 10001030 f   D3D_Device.obj
 0001:00000040       ?ResetDeviceVars@CD3D_Device@@QAEXXZ 10001040 f   D3D_Device.obj
 0001:00000070       ?Reset@CD3D_Device@@QAEXXZ 10001070 f   D3D_Device.obj
 0001:00000090       ?GetDefaultMultiSampleType@CD3D_Device@@AAE?AW4_D3DMULTISAMPLE_TYPE@@I@Z 10001090 f   D3D_Device.obj
 0001:00000120       ?SetDefaultRenderStates@CD3D_Device@@QAEXXZ 10001120 f   D3D_Device.obj
 0001:00000400       ?SetupViewport@CD3D_Device@@QAEXIIIIMM@Z 10001400 f   D3D_Device.obj
 0001:000004b0       ?Start3D@CD3D_Device@@SA_NXZ 100014b0 f   D3D_Device.obj
 0001:000004e0       ?End3D@CD3D_Device@@SA_NXZ 100014e0 f   D3D_Device.obj
 0001:00000510       ?IsIn3D@CD3D_Device@@SA_NXZ 10001510 f   D3D_Device.obj
 0001:00000520       ?ListDeviceCaps@CD3D_Device@@QAEXXZ 10001520 f   D3D_Device.obj
 0001:00000610       ??0CD3D_Device@@QAE@XZ     10001610 f i D3D_Device.obj
 0001:00000620       ?FreeDevice@CD3D_Device@@QAEXXZ 10001620 f   D3D_Device.obj
 0001:00000640       ?FreeAll@CD3D_Device@@QAEXXZ 10001640 f   D3D_Device.obj
 0001:00000650       ?SetPresentationParams@CD3D_Device@@AAEXAAU_D3DPRESENT_PARAMETERS_@@PAUD3DModeInfo@@@Z 10001650 f   D3D_Device.obj
 0001:000006f0       ??1CD3D_Device@@QAE@XZ     100016f0 f i D3D_Device.obj
 0001:00000700       ?CreateDevice@CD3D_Device@@QAE_NPAUD3DAdapterInfo@@PAUD3DDeviceInfo@@PAUD3DModeInfo@@@Z 10001700 f   D3D_Device.obj
 0001:000007e0       ?SetMode@CD3D_Device@@QAE_NPAUD3DModeInfo@@@Z 100017e0 f   D3D_Device.obj
 0001:00000830       ??0_Iterator_base@std@@QAE@XZ 10001830 f i D3D_Shell.obj
 0001:00000840       ??0bad_alloc@std@@QAE@PBD@Z 10001840 f i D3D_Shell.obj
 0001:00000860       ??1bad_alloc@std@@UAE@XZ   10001860 f i D3D_Shell.obj
 0001:00000870       ??_Gbad_alloc@std@@UAEPAXI@Z 10001870 f i D3D_Shell.obj
 0001:00000870       ??_Ebad_alloc@std@@UAEPAXI@Z 10001870 f i D3D_Shell.obj
 0001:000008a0       ??2@YAPAXIPAX@Z            100018a0 f i D3D_Shell.obj
 0001:000008b0       ??3@YAXPAX0@Z              100018b0 f i D3D_Shell.obj
 0001:000008c0       ??0logic_error@std@@QAE@ABV?$basic_string@DU?$char_traits@D@std@@V?$allocator@D@2@@1@@Z 100018c0 f i D3D_Shell.obj
 0001:00000920       ??1logic_error@std@@UAE@XZ 10001920 f i D3D_Shell.obj
 0001:00000940       ?what@logic_error@std@@UBEPBDXZ 10001940 f i D3D_Shell.obj
 0001:00000950       ??_Glogic_error@std@@UAEPAXI@Z 10001950 f i D3D_Shell.obj
 0001:00000950       ??_Elogic_error@std@@UAEPAXI@Z 10001950 f i D3D_Shell.obj
 0001:00000980       ??0length_error@std@@QAE@ABV?$basic_string@DU?$char_traits@D@std@@V?$allocator@D@2@@1@@Z 10001980 f i D3D_Shell.obj
 0001:000009a0       ??1length_error@std@@UAE@XZ 100019a0 f i D3D_Shell.obj
 0001:000009c0       ??_Elength_error@std@@UAEPAXI@Z 100019c0 f i D3D_Shell.obj
 0001:000009c0       ??_Glength_error@std@@UAEPAXI@Z 100019c0 f i D3D_Shell.obj
 0001:000009f0       ??MD3DModeInfo@@QBE_NABU0@@Z 100019f0 f i D3D_Shell.obj
 0001:00000a20       ?size@?$vector@UD3DDeviceInfo@@V?$allocator@UD3DDeviceInfo@@@std@@@std@@QBEIXZ 10001a20 f i D3D_Shell.obj
 0001:00000a40       ??A?$vector@UD3DDeviceInfo@@V?$allocator@UD3DDeviceInfo@@@std@@@std@@QAEAAUD3DDeviceInfo@@I@Z 10001a40 f i D3D_Shell.obj
 0001:00000a80       ?size@?$vector@UD3DModeInfo@@V?$allocator@UD3DModeInfo@@@std@@@std@@QBEIXZ 10001a80 f i D3D_Shell.obj
 0001:00000aa0       ??A?$vector@UD3DModeInfo@@V?$allocator@UD3DModeInfo@@@std@@@std@@QAEAAUD3DModeInfo@@I@Z 10001aa0 f i D3D_Shell.obj
 0001:00000ad0       ?size@?$vector@UD3DAdapterInfo@@V?$allocator@UD3DAdapterInfo@@@std@@@std@@QBEIXZ 10001ad0 f i D3D_Shell.obj
 0001:00000af0       ??A?$vector@UD3DAdapterInfo@@V?$allocator@UD3DAdapterInfo@@@std@@@std@@QAEAAUD3DAdapterInfo@@I@Z 10001af0 f i D3D_Shell.obj
 0001:00000b30       ?size@?$vector@W4_D3DFORMAT@@V?$allocator@W4_D3DFORMAT@@@std@@@std@@QBEIXZ 10001b30 f i D3D_Shell.obj
 0001:00000b50       ??A?$vector@W4_D3DFORMAT@@V?$allocator@W4_D3DFORMAT@@@std@@@std@@QAEAAW4_D3DFORMAT@@I@Z 10001b50 f i D3D_Shell.obj
 0001:00000b80       ?capacity@?$vector@UD3DDeviceInfo@@V?$allocator@UD3DDeviceInfo@@@std@@@std@@QBEIXZ 10001b80 f i D3D_Shell.obj
 0001:00000ba0       ??0?$allocator@UD3DDeviceInfo@@@std@@QAE@XZ 10001ba0 f i D3D_Shell.obj
 0001:00000bb0       ?capacity@?$vector@UD3DModeInfo@@V?$allocator@UD3DModeInfo@@@std@@@std@@QBEIXZ 10001bb0 f i D3D_Shell.obj
 0001:00000bd0       ??0?$allocator@UD3DModeInfo@@@std@@QAE@XZ 10001bd0 f i D3D_Shell.obj
 0001:00000be0       ?capacity@?$vector@UD3DAdapterInfo@@V?$allocator@UD3DAdapterInfo@@@std@@@std@@QBEIXZ 10001be0 f i D3D_Shell.obj
 0001:00000c00       ??0?$allocator@UD3DAdapterInfo@@@std@@QAE@XZ 10001c00 f i D3D_Shell.obj
 0001:00000c10       ?capacity@?$vector@W4_D3DFORMAT@@V?$allocator@W4_D3DFORMAT@@@std@@@std@@QBEIXZ 10001c10 f i D3D_Shell.obj
 0001:00000c30       ??0?$allocator@W4_D3DFORMAT@@@std@@QAE@XZ 10001c30 f i D3D_Shell.obj
 0001:00000c40       ??D?$_Vector_const_iterator@UD3DModeInfo@@V?$allocator@UD3DModeInfo@@@std@@@std@@QBEABUD3DModeInfo@@XZ 10001c40 f i D3D_Shell.obj
 0001:00000c70       ??E?$_Vector_const_iterator@UD3DModeInfo@@V?$allocator@UD3DModeInfo@@@std@@@std@@QAEAAV01@XZ 10001c70 f i D3D_Shell.obj
 0001:00000ca0       ??8?$_Vector_const_iterator@UD3DModeInfo@@V?$allocator@UD3DModeInfo@@@std@@@std@@QBE_NABV01@@Z 10001ca0 f i D3D_Shell.obj
 0001:00000cd0       ?_Mask@?$_Vb_reference@V?$vector@_NV?$allocator@_N@std@@@std@@@std@@IBEIXZ 10001cd0 f i D3D_Shell.obj
 0001:00000ce0       ??D?$_Vector_const_iterator@UD3DAdapterInfo@@V?$allocator@UD3DAdapterInfo@@@std@@@std@@QBEABUD3DAdapterInfo@@XZ 10001ce0 f i D3D_Shell.obj
 0001:00000d10       ??E?$_Vector_const_iterator@UD3DAdapterInfo@@V?$allocator@UD3DAdapterInfo@@@std@@@std@@QAEAAV01@XZ 10001d10 f i D3D_Shell.obj
 0001:00000d40       ??8?$_Vector_const_iterator@UD3DAdapterInfo@@V?$allocator@UD3DAdapterInfo@@@std@@@std@@QBE_NABV01@@Z 10001d40 f i D3D_Shell.obj
 0001:00000d70       ??D?$_Vector_const_iterator@UD3DDeviceInfo@@V?$allocator@UD3DDeviceInfo@@@std@@@std@@QBEABUD3DDeviceInfo@@XZ 10001d70 f i D3D_Shell.obj
 0001:00000da0       ??E?$_Vector_const_iterator@UD3DDeviceInfo@@V?$allocator@UD3DDeviceInfo@@@std@@@std@@QAEAAV01@XZ 10001da0 f i D3D_Shell.obj
 0001:00000dd0       ??8?$_Vector_const_iterator@UD3DDeviceInfo@@V?$allocator@UD3DDeviceInfo@@@std@@@std@@QBE_NABV01@@Z 10001dd0 f i D3D_Shell.obj
 0001:00000e00       ?_Xlen@?$vector@UD3DDeviceInfo@@V?$allocator@UD3DDeviceInfo@@@std@@@std@@KAXXZ 10001e00 f i D3D_Shell.obj
 0001:00000e60       ??0?$allocator@UD3DDeviceInfo@@@std@@QAE@ABV01@@Z 10001e60 f i D3D_Shell.obj
 0001:00000e70       ?deallocate@?$allocator@UD3DDeviceInfo@@@std@@QAEXPAUD3DDeviceInfo@@I@Z 10001e70 f i D3D_Shell.obj
 0001:00000e80       ?_Xlen@?$vector@UD3DModeInfo@@V?$allocator@UD3DModeInfo@@@std@@@std@@KAXXZ 10001e80 f i D3D_Shell.obj
 0001:00000ee0       ??0?$allocator@UD3DModeInfo@@@std@@QAE@ABV01@@Z 10001ee0 f i D3D_Shell.obj
 0001:00000ef0       ?deallocate@?$allocator@UD3DModeInfo@@@std@@QAEXPAUD3DModeInfo@@I@Z 10001ef0 f i D3D_Shell.obj
 0001:00000f00       ?_Xlen@?$vector@UD3DAdapterInfo@@V?$allocator@UD3DAdapterInfo@@@std@@@std@@KAXXZ 10001f00 f i D3D_Shell.obj
 0001:00000f60       ??0?$allocator@UD3DAdapterInfo@@@std@@QAE@ABV01@@Z 10001f60 f i D3D_Shell.obj
 0001:00000f70       ?deallocate@?$allocator@UD3DAdapterInfo@@@std@@QAEXPAUD3DAdapterInfo@@I@Z 10001f70 f i D3D_Shell.obj
 0001:00000f80       ?_Xlen@?$vector@W4_D3DFORMAT@@V?$allocator@W4_D3DFORMAT@@@std@@@std@@KAXXZ 10001f80 f i D3D_Shell.obj
 0001:00000fe0       ??0?$allocator@W4_D3DFORMAT@@@std@@QAE@ABV01@@Z 10001fe0 f i D3D_Shell.obj
 0001:00000ff0       ?deallocate@?$allocator@W4_D3DFORMAT@@@std@@QAEXPAW4_D3DFORMAT@@I@Z 10001ff0 f i D3D_Shell.obj
 0001:00001000       ??0?$allocator@I@std@@QAE@XZ 10002000 f i D3D_Shell.obj
 0001:00001010       ??0logic_error@std@@QAE@ABV01@@Z 10002010 f i D3D_Shell.obj
 0001:00001080       ??0?$_Ranit@UD3DModeInfo@@HPBU1@ABU1@@std@@QAE@XZ 10002080 f i D3D_Shell.obj
 0001:00001090       ??0?$_Ranit@_NHPA_N_N@std@@QAE@XZ 10002090 f i D3D_Shell.obj
 0001:000010a0       ??0?$_Ranit@UD3DAdapterInfo@@HPBU1@ABU1@@std@@QAE@XZ 100020a0 f i D3D_Shell.obj
 0001:000010b0       ??0?$_Ranit@UD3DDeviceInfo@@HPBU1@ABU1@@std@@QAE@XZ 100020b0 f i D3D_Shell.obj
 0001:000010c0       ?max_size@?$allocator@UD3DDeviceInfo@@@std@@QBEIXZ 100020c0 f i D3D_Shell.obj
 0001:000010d0       ?max_size@?$allocator@UD3DModeInfo@@@std@@QBEIXZ 100020d0 f i D3D_Shell.obj
 0001:000010e0       ?max_size@?$allocator@UD3DAdapterInfo@@@std@@QBEIXZ 100020e0 f i D3D_Shell.obj
 0001:000010f0       ?max_size@?$allocator@W4_D3DFORMAT@@@std@@QBEIXZ 100020f0 f i D3D_Shell.obj
 0001:00001100       ??G?$_Vector_const_iterator@UD3DModeInfo@@V?$allocator@UD3DModeInfo@@@std@@@std@@QBEHABV01@@Z 10002100 f i D3D_Shell.obj
 0001:00001130       ?_Xlen@?$vector@IV?$allocator@I@std@@@std@@KAXXZ 10002130 f i D3D_Shell.obj
 0001:00001190       ??0?$allocator@I@std@@QAE@ABV01@@Z 10002190 f i D3D_Shell.obj
 0001:000011a0       ?deallocate@?$allocator@I@std@@QAEXPAII@Z 100021a0 f i D3D_Shell.obj
 0001:000011b0       ??G?$_Vector_const_iterator@UD3DAdapterInfo@@V?$allocator@UD3DAdapterInfo@@@std@@@std@@QBEHABV01@@Z 100021b0 f i D3D_Shell.obj
 0001:000011f0       ??G?$_Vector_const_iterator@UD3DDeviceInfo@@V?$allocator@UD3DDeviceInfo@@@std@@@std@@QBEHABV01@@Z 100021f0 f i D3D_Shell.obj
 0001:00001230       ??G?$_Vector_const_iterator@W4_D3DFORMAT@@V?$allocator@W4_D3DFORMAT@@@std@@@std@@QBEHABV01@@Z 10002230 f i D3D_Shell.obj
 0001:00001260       ??G?$_Vb_const_iterator@V?$vector@_NV?$allocator@_N@std@@@std@@@std@@QBEHABV01@@Z 10002260 f i D3D_Shell.obj
 0001:00001280       ??0?$_Ranit@W4_D3DFORMAT@@HPBW41@ABW41@@std@@QAE@XZ 10002280 f i D3D_Shell.obj
 0001:00001290       ??Y?$_Vector_const_iterator@UD3DModeInfo@@V?$allocator@UD3DModeInfo@@@std@@@std@@QAEAAV01@H@Z 10002290 f i D3D_Shell.obj
 0001:000012d0       ?size@?$vector@_NV?$allocator@_N@std@@@std@@QBEIXZ 100022d0 f i D3D_Shell.obj
 0001:000012e0       ?_Nw@?$vector@_NV?$allocator@_N@std@@@std@@KAII@Z 100022e0 f i D3D_Shell.obj
 0001:000012f0       ?_Xlen@?$vector@_NV?$allocator@_N@std@@@std@@IBEXXZ 100022f0 f i D3D_Shell.obj
 0001:00001350       ?max_size@?$allocator@I@std@@QBEIXZ 10002350 f i D3D_Shell.obj
 0001:00001360       ??0?$_Vb_iter_base@V?$vector@_NV?$allocator@_N@std@@@std@@@std@@QAE@PAIPAV?$vector@_NV?$allocator@_N@std@@@1@@Z 10002360 f i D3D_Shell.obj
 0001:00001390       ??Y?$_Vector_const_iterator@UD3DAdapterInfo@@V?$allocator@UD3DAdapterInfo@@@std@@@std@@QAEAAV01@H@Z 10002390 f i D3D_Shell.obj
 0001:000013d0       ??Y?$_Vector_const_iterator@UD3DDeviceInfo@@V?$allocator@UD3DDeviceInfo@@@std@@@std@@QAEAAV01@H@Z 100023d0 f i D3D_Shell.obj
 0001:00001410       ??Y?$_Vector_const_iterator@W4_D3DFORMAT@@V?$allocator@W4_D3DFORMAT@@@std@@@std@@QAEAAV01@H@Z 10002410 f i D3D_Shell.obj
 0001:00001450       ??0?$_Ranit@IHPBIABI@std@@QAE@XZ 10002450 f i D3D_Shell.obj
 0001:00001460       ?size@?$vector@IV?$allocator@I@std@@@std@@QBEIXZ 10002460 f i D3D_Shell.obj
 0001:00001480       ?capacity@?$vector@IV?$allocator@I@std@@@std@@QBEIXZ 10002480 f i D3D_Shell.obj
 0001:000014a0       ??Y?$_Vector_const_iterator@IV?$allocator@I@std@@@std@@QAEAAV01@H@Z 100024a0 f i D3D_Shell.obj
 0001:000014e0       ??8?$_Vector_const_iterator@IV?$allocator@I@std@@@std@@QBE_NABV01@@Z 100024e0 f i D3D_Shell.obj
 0001:00001510       ??$_Allocate@UD3DDeviceInfo@@@std@@YAPAUD3DDeviceInfo@@IPAU1@@Z 10002510 f i D3D_Shell.obj
 0001:00001570       ??$_Allocate@UD3DModeInfo@@@std@@YAPAUD3DModeInfo@@IPAU1@@Z 10002570 f i D3D_Shell.obj
 0001:000015d0       ??$_Allocate@UD3DAdapterInfo@@@std@@YAPAUD3DAdapterInfo@@IPAU1@@Z 100025d0 f i D3D_Shell.obj
 0001:00001630       ??$_Allocate@W4_D3DFORMAT@@@std@@YAPAW4_D3DFORMAT@@IPAW41@@Z 10002630 f i D3D_Shell.obj
 0001:00001690       ??$_Allocate@I@std@@YAPAIIPAI@Z 10002690 f i D3D_Shell.obj
 0001:000016f0       ??0bad_alloc@std@@QAE@ABV01@@Z 100026f0 f i D3D_Shell.obj
 0001:00001710       ??$_Ptr_cat@PAUD3DDeviceInfo@@PAU1@@std@@YA?AU_Nonscalar_ptr_iterator_tag@0@AAPAUD3DDeviceInfo@@0@Z 10002710 f i D3D_Shell.obj
 0001:00001720       ??$_Ptr_cat@PAUD3DModeInfo@@PAU1@@std@@YA?AU_Nonscalar_ptr_iterator_tag@0@AAPAUD3DModeInfo@@0@Z 10002720 f i D3D_Shell.obj
 0001:00001730       ??$_Iter_random@PAUD3DAdapterInfo@@PAU1@@std@@YA?AUrandom_access_iterator_tag@0@ABQAUD3DAdapterInfo@@0@Z 10002730 f i D3D_Shell.obj
 0001:00001740       ??$_Ptr_cat@PAUD3DAdapterInfo@@PAU1@@std@@YA?AU_Nonscalar_ptr_iterator_tag@0@AAPAUD3DAdapterInfo@@0@Z 10002740 f i D3D_Shell.obj
 0001:00001750       ??$_Ptr_cat@PAW4_D3DFORMAT@@PAW41@@std@@YA?AU_Nonscalar_ptr_iterator_tag@0@AAPAW4_D3DFORMAT@@0@Z 10002750 f i D3D_Shell.obj
 0001:00001760       ??$_Iter_random@PAUD3DDeviceInfo@@PAU1@@std@@YA?AUrandom_access_iterator_tag@0@ABQAUD3DDeviceInfo@@0@Z 10002760 f i D3D_Shell.obj
 0001:00001770       ??$_Move_cat@PAUD3DDeviceInfo@@@std@@YA?AU_Undefined_move_tag@0@ABQAUD3DDeviceInfo@@@Z 10002770 f i D3D_Shell.obj
 0001:00001780       ??$_Fill@PAUD3DModeInfo@@U1@@std@@YAXPAUD3DModeInfo@@0ABU1@@Z 10002780 f i D3D_Shell.obj
 0001:000017b0       ??$_Iter_random@PAUD3DModeInfo@@PAU1@@std@@YA?AUrandom_access_iterator_tag@0@ABQAUD3DModeInfo@@0@Z 100027b0 f i D3D_Shell.obj
 0001:000017c0       ??$_Move_cat@PAUD3DModeInfo@@@std@@YA?AU_Undefined_move_tag@0@ABQAUD3DModeInfo@@@Z 100027c0 f i D3D_Shell.obj
 0001:000017d0       ??$_Move_cat@PAUD3DAdapterInfo@@@std@@YA?AU_Undefined_move_tag@0@ABQAUD3DAdapterInfo@@@Z 100027d0 f i D3D_Shell.obj
 0001:000017e0       ??$_Fill@PAW4_D3DFORMAT@@W41@@std@@YAXPAW4_D3DFORMAT@@0ABW41@@Z 100027e0 f i D3D_Shell.obj
 0001:00001800       ??$_Iter_random@PAW4_D3DFORMAT@@PAW41@@std@@YA?AUrandom_access_iterator_tag@0@ABQAW4_D3DFORMAT@@0@Z 10002800 f i D3D_Shell.obj
 0001:00001810       ??$_Move_cat@PAW4_D3DFORMAT@@@std@@YA?AU_Undefined_move_tag@0@ABQAW4_D3DFORMAT@@@Z 10002810 f i D3D_Shell.obj
 0001:00001820       ??$_Iter_random@V?$_Vb_iterator@V?$vector@_NV?$allocator@_N@std@@@std@@@std@@V12@@std@@YA?AUrandom_access_iterator_tag@0@ABV?$_Vb_iterator@V?$vector@_NV?$allocator@_N@std@@@std@@@0@0@Z 10002820 f i D3D_Shell.obj
 0001:00001830       ??$_Ptr_cat@V?$_Vb_iterator@V?$vector@_NV?$allocator@_N@std@@@std@@@std@@V12@@std@@YA?AU_Nonscalar_ptr_iterator_tag@0@AAV?$_Vb_iterator@V?$vector@_NV?$allocator@_N@std@@@std@@@0@0@Z 10002830 f i D3D_Shell.obj
 0001:00001840       ??$_Ptr_cat@PAIPAI@std@@YA?AU_Scalar_ptr_iterator_tag@0@AAPAI0@Z 10002840 f i D3D_Shell.obj
 0001:00001850       ??$_Destroy_range@IV?$allocator@I@std@@@std@@YAXPAI0AAV?$allocator@I@0@U_Scalar_ptr_iterator_tag@0@@Z 10002850 f i D3D_Shell.obj
 0001:00001860       ??$_Iter_random@PAIPAI@std@@YA?AUrandom_access_iterator_tag@0@ABQAI0@Z 10002860 f i D3D_Shell.obj
 0001:00001870       ??$_Copy_opt@PAIPAIUrandom_access_iterator_tag@std@@@std@@YAPAIPAI00Urandom_access_iterator_tag@0@U_Scalar_ptr_iterator_tag@0@U_Range_checked_iterator_tag@0@@Z 10002870 f i D3D_Shell.obj
 0001:000018b0       ??$_Fill@PAII@std@@YAXPAI0ABI@Z 100028b0 f i D3D_Shell.obj
 0001:000018d0       ??$_Move_cat@PAI@std@@YA?AU_Undefined_move_tag@0@ABQAI@Z 100028d0 f i D3D_Shell.obj
 0001:000018e0       ??8?$_Vb_const_iterator@V?$vector@_NV?$allocator@_N@std@@@std@@@std@@QBE_NABV01@@Z 100028e0 f i D3D_Shell.obj
 0001:00001910       ??$_Checked_base@PAUD3DAdapterInfo@@@std@@YAPAUD3DAdapterInfo@@AAPAU1@U_Unchanged_checked_iterator_base_type_tag@0@@Z 10002910 f i D3D_Shell.obj
 0001:00001920       ??$_Checked_base@PAUD3DDeviceInfo@@@std@@YAPAUD3DDeviceInfo@@AAPAU1@U_Unchanged_checked_iterator_base_type_tag@0@@Z 10002920 f i D3D_Shell.obj
 0001:00001930       ??$_Checked_base@PAUD3DModeInfo@@@std@@YAPAUD3DModeInfo@@AAPAU1@U_Unchanged_checked_iterator_base_type_tag@0@@Z 10002930 f i D3D_Shell.obj
 0001:00001940       ??$_Checked_base@PAW4_D3DFORMAT@@@std@@YAPAW4_D3DFORMAT@@AAPAW41@U_Unchanged_checked_iterator_base_type_tag@0@@Z 10002940 f i D3D_Shell.obj
 0001:00001950       ??$_Ptr_cat@V?$_Vector_const_iterator@UD3DDeviceInfo@@V?$allocator@UD3DDeviceInfo@@@std@@@std@@PAUD3DDeviceInfo@@@std@@YA?AU_Nonscalar_ptr_iterator_tag@0@AAV?$_Vector_const_iterator@UD3DDeviceInfo@@V?$allocator@UD3DDeviceInfo@@@std@@@0@AAPAUD3DDeviceInfo@@@Z 10002950 f i D3D_Shell.obj
 0001:00001960       ??$_Ptr_cat@V?$_Vector_const_iterator@UD3DModeInfo@@V?$allocator@UD3DModeInfo@@@std@@@std@@PAUD3DModeInfo@@@std@@YA?AU_Nonscalar_ptr_iterator_tag@0@AAV?$_Vector_const_iterator@UD3DModeInfo@@V?$allocator@UD3DModeInfo@@@std@@@0@AAPAUD3DModeInfo@@@Z 10002960 f i D3D_Shell.obj
 0001:00001970       ??$_Checked_base@PAI@std@@YAPAIAAPAIU_Unchanged_checked_iterator_base_type_tag@0@@Z 10002970 f i D3D_Shell.obj
 0001:00001980       ??$_Copy_backward_opt@PAIPAIUrandom_access_iterator_tag@std@@@std@@YAPAIPAI00Urandom_access_iterator_tag@0@U_Scalar_ptr_iterator_tag@0@U_Range_checked_iterator_tag@0@@Z 10002980 f i D3D_Shell.obj
 0001:000019b0       ??$_Construct@UD3DModeInfo@@U1@@std@@YAXPAUD3DModeInfo@@ABU1@@Z 100029b0 f i D3D_Shell.obj
 0001:000019e0       ??$_Destroy@UD3DModeInfo@@@std@@YAXPAUD3DModeInfo@@@Z 100029e0 f i D3D_Shell.obj
 0001:000019f0       ??$_Construct@W4_D3DFORMAT@@W41@@std@@YAXPAW4_D3DFORMAT@@ABW41@@Z 100029f0 f i D3D_Shell.obj
 0001:00001a10       ??$_Destroy@W4_D3DFORMAT@@@std@@YAXPAW4_D3DFORMAT@@@Z 10002a10 f i D3D_Shell.obj
 0001:00001a20       ?_Checked_iterator_base@?$_Vector_iterator@UD3DModeInfo@@V?$allocator@UD3DModeInfo@@@std@@@std@@QBEPAUD3DModeInfo@@XZ 10002a20 f i D3D_Shell.obj
 0001:00001a30       ??0?$pair@PAUD3DModeInfo@@PAU1@@std@@QAE@ABQAUD3DModeInfo@@0@Z 10002a30 f i D3D_Shell.obj
 0001:00001a50       ??$_Dist_type@PAUD3DModeInfo@@@std@@YAPAHPAUD3DModeInfo@@@Z 10002a50 f i D3D_Shell.obj
 0001:00001a60       ??$_Val_type@PAUD3DModeInfo@@@std@@YAPAUD3DModeInfo@@PAU1@@Z 10002a60 f i D3D_Shell.obj
 0001:00001a70       ??$_Copy_backward_opt@PAUD3DModeInfo@@PAU1@Uforward_iterator_tag@std@@@std@@YAPAUD3DModeInfo@@PAU1@00Uforward_iterator_tag@0@U_Nonscalar_ptr_iterator_tag@0@U_Range_checked_iterator_tag@0@@Z 10002a70 f i D3D_Shell.obj
 0001:00001ab0       ??$_Copy_backward_opt@PAW4_D3DFORMAT@@PAW41@Uforward_iterator_tag@std@@@std@@YAPAW4_D3DFORMAT@@PAW41@00Uforward_iterator_tag@0@U_Nonscalar_ptr_iterator_tag@0@U_Range_checked_iterator_tag@0@@Z 10002ab0 f i D3D_Shell.obj
 0001:00001ae0       ??$_Iter_cat@PAI@std@@YA?AUrandom_access_iterator_tag@0@ABQAI@Z 10002ae0 f i D3D_Shell.obj
 0001:00001af0       ?_Checked_iterator_base@?$_Vector_const_iterator@UD3DModeInfo@@V?$allocator@UD3DModeInfo@@@std@@@std@@QBEPBUD3DModeInfo@@XZ 10002af0 f i D3D_Shell.obj
 0001:00001b00       ?_Checked_iterator_base@?$_Vector_const_iterator@UD3DDeviceInfo@@V?$allocator@UD3DDeviceInfo@@@std@@@std@@QBEPBUD3DDeviceInfo@@XZ 10002b00 f i D3D_Shell.obj
 0001:00001b10       ??$swap@UD3DModeInfo@@@std@@YAXAAUD3DModeInfo@@0@Z 10002b10 f i D3D_Shell.obj
 0001:00001b50       ??$_Uninit_copy@PAIPAIV?$allocator@I@std@@@std@@YAPAIPAI00AAV?$allocator@I@0@U_Scalar_ptr_iterator_tag@0@U_Range_checked_iterator_tag@0@@Z 10002b50 f i D3D_Shell.obj
 0001:00001b80       ??$_Fill_n@PAIII@std@@YAXPAIIABIU_Range_checked_iterator_tag@0@@Z 10002b80 f i D3D_Shell.obj
 0001:00001bb0       ??$_Copy_opt@PAUD3DModeInfo@@PAU1@Uforward_iterator_tag@std@@@std@@YAPAUD3DModeInfo@@PAU1@00Uforward_iterator_tag@0@U_Nonscalar_ptr_iterator_tag@0@U_Range_checked_iterator_tag@0@@Z 10002bb0 f i D3D_Shell.obj
 0001:00001bf0       ??$_Push_heap@PAUD3DModeInfo@@HU1@@std@@YAXPAUD3DModeInfo@@HHU1@@Z 10002bf0 f i D3D_Shell.obj
 0001:00001c80       ?GetAdapterInfo@CD3D_Shell@@QAEPAUD3DAdapterInfo@@I@Z 10002c80 f   D3D_Shell.obj
 0001:00001cf0       ?GetDeviceInfo@CD3D_Shell@@QAEPAUD3DDeviceInfo@@II@Z 10002cf0 f   D3D_Shell.obj
 0001:00001d40       ?GetModeInfo@CD3D_Shell@@QAEPAUD3DModeInfo@@III@Z 10002d40 f   D3D_Shell.obj
 0001:00001db0       ??D?$_Vector_iterator@UD3DModeInfo@@V?$allocator@UD3DModeInfo@@@std@@@std@@QBEAAUD3DModeInfo@@XZ 10002db0 f i D3D_Shell.obj
 0001:00001de0       ??C?$_Vector_iterator@UD3DModeInfo@@V?$allocator@UD3DModeInfo@@@std@@@std@@QBEPAUD3DModeInfo@@XZ 10002de0 f i D3D_Shell.obj
 0001:00001e10       ??E?$_Vector_iterator@UD3DModeInfo@@V?$allocator@UD3DModeInfo@@@std@@@std@@QAEAAV01@XZ 10002e10 f i D3D_Shell.obj
 0001:00001e40       ??9?$_Vector_const_iterator@UD3DModeInfo@@V?$allocator@UD3DModeInfo@@@std@@@std@@QBE_NABV01@@Z 10002e40 f i D3D_Shell.obj
 0001:00001e70       ??D?$_Vector_iterator@UD3DAdapterInfo@@V?$allocator@UD3DAdapterInfo@@@std@@@std@@QBEAAUD3DAdapterInfo@@XZ 10002e70 f i D3D_Shell.obj
 0001:00001ea0       ??C?$_Vector_iterator@UD3DAdapterInfo@@V?$allocator@UD3DAdapterInfo@@@std@@@std@@QBEPAUD3DAdapterInfo@@XZ 10002ea0 f i D3D_Shell.obj
 0001:00001ed0       ??E?$_Vector_iterator@UD3DAdapterInfo@@V?$allocator@UD3DAdapterInfo@@@std@@@std@@QAEAAV01@XZ 10002ed0 f i D3D_Shell.obj
 0001:00001f00       ??9?$_Vector_const_iterator@UD3DAdapterInfo@@V?$allocator@UD3DAdapterInfo@@@std@@@std@@QBE_NABV01@@Z 10002f00 f i D3D_Shell.obj
 0001:00001f30       ??D?$_Vector_iterator@UD3DDeviceInfo@@V?$allocator@UD3DDeviceInfo@@@std@@@std@@QBEAAUD3DDeviceInfo@@XZ 10002f30 f i D3D_Shell.obj
 0001:00001f60       ??C?$_Vector_iterator@UD3DDeviceInfo@@V?$allocator@UD3DDeviceInfo@@@std@@@std@@QBEPAUD3DDeviceInfo@@XZ 10002f60 f i D3D_Shell.obj
 0001:00001f90       ??E?$_Vector_iterator@UD3DDeviceInfo@@V?$allocator@UD3DDeviceInfo@@@std@@@std@@QAEAAV01@XZ 10002f90 f i D3D_Shell.obj
 0001:00001fc0       ??9?$_Vector_const_iterator@UD3DDeviceInfo@@V?$allocator@UD3DDeviceInfo@@@std@@@std@@QBE_NABV01@@Z 10002fc0 f i D3D_Shell.obj
 0001:00001ff0       ??0?$_Vector_val@UD3DDeviceInfo@@V?$allocator@UD3DDeviceInfo@@@std@@@std@@IAE@V?$allocator@UD3DDeviceInfo@@@1@@Z 10002ff0 f i D3D_Shell.obj
 0001:00002000       ??0?$_Vector_val@UD3DModeInfo@@V?$allocator@UD3DModeInfo@@@std@@@std@@IAE@V?$allocator@UD3DModeInfo@@@1@@Z 10003000 f i D3D_Shell.obj
 0001:00002010       ??0?$_Vector_val@UD3DAdapterInfo@@V?$allocator@UD3DAdapterInfo@@@std@@@std@@IAE@V?$allocator@UD3DAdapterInfo@@@1@@Z 10003010 f i D3D_Shell.obj
 0001:00002020       ??0?$_Vector_val@W4_D3DFORMAT@@V?$allocator@W4_D3DFORMAT@@@std@@@std@@IAE@V?$allocator@W4_D3DFORMAT@@@1@@Z 10003020 f i D3D_Shell.obj
 0001:00002030       ?max_size@?$vector@UD3DDeviceInfo@@V?$allocator@UD3DDeviceInfo@@@std@@@std@@QBEIXZ 10003030 f i D3D_Shell.obj
 0001:00002040       ?allocate@?$allocator@UD3DDeviceInfo@@@std@@QAEPAUD3DDeviceInfo@@I@Z 10003040 f i D3D_Shell.obj
 0001:00002060       ?max_size@?$vector@UD3DModeInfo@@V?$allocator@UD3DModeInfo@@@std@@@std@@QBEIXZ 10003060 f i D3D_Shell.obj
 0001:00002070       ?allocate@?$allocator@UD3DModeInfo@@@std@@QAEPAUD3DModeInfo@@I@Z 10003070 f i D3D_Shell.obj
 0001:00002090       ?max_size@?$vector@UD3DAdapterInfo@@V?$allocator@UD3DAdapterInfo@@@std@@@std@@QBEIXZ 10003090 f i D3D_Shell.obj
 0001:000020a0       ?allocate@?$allocator@UD3DAdapterInfo@@@std@@QAEPAUD3DAdapterInfo@@I@Z 100030a0 f i D3D_Shell.obj
 0001:000020c0       ?max_size@?$vector@W4_D3DFORMAT@@V?$allocator@W4_D3DFORMAT@@@std@@@std@@QBEIXZ 100030c0 f i D3D_Shell.obj
 0001:000020d0       ?allocate@?$allocator@W4_D3DFORMAT@@@std@@QAEPAW4_D3DFORMAT@@I@Z 100030d0 f i D3D_Shell.obj
 0001:000020f0       ??G?$_Vector_iterator@UD3DModeInfo@@V?$allocator@UD3DModeInfo@@@std@@@std@@QBEHABV?$_Vector_const_iterator@UD3DModeInfo@@V?$allocator@UD3DModeInfo@@@std@@@1@@Z 100030f0 f i D3D_Shell.obj
 0001:00002120       ??0?$_Vector_const_iterator@UD3DModeInfo@@V?$allocator@UD3DModeInfo@@@std@@@std@@QAE@PAUD3DModeInfo@@PBU_Container_base@1@@Z 10003120 f i D3D_Shell.obj
 0001:00002160       ??0?$_Vector_val@IV?$allocator@I@std@@@std@@IAE@V?$allocator@I@1@@Z 10003160 f i D3D_Shell.obj
 0001:00002170       ??0?$_Vb_iter_base@V?$vector@_NV?$allocator@_N@std@@@std@@@std@@QAE@ABV01@@Z 10003170 f i D3D_Shell.obj
 0001:000021a0       ??G?$_Vector_iterator@UD3DAdapterInfo@@V?$allocator@UD3DAdapterInfo@@@std@@@std@@QBEHABV?$_Vector_const_iterator@UD3DAdapterInfo@@V?$allocator@UD3DAdapterInfo@@@std@@@1@@Z 100031a0 f i D3D_Shell.obj
 0001:000021e0       ??0?$_Vector_const_iterator@UD3DAdapterInfo@@V?$allocator@UD3DAdapterInfo@@@std@@@std@@QAE@PAUD3DAdapterInfo@@PBU_Container_base@1@@Z 100031e0 f i D3D_Shell.obj
 0001:00002220       ??G?$_Vector_iterator@UD3DDeviceInfo@@V?$allocator@UD3DDeviceInfo@@@std@@@std@@QBEHABV?$_Vector_const_iterator@UD3DDeviceInfo@@V?$allocator@UD3DDeviceInfo@@@std@@@1@@Z 10003220 f i D3D_Shell.obj
 0001:00002260       ??0?$_Vector_const_iterator@UD3DDeviceInfo@@V?$allocator@UD3DDeviceInfo@@@std@@@std@@QAE@PAUD3DDeviceInfo@@PBU_Container_base@1@@Z 10003260 f i D3D_Shell.obj
 0001:000022a0       ??G?$_Vector_iterator@W4_D3DFORMAT@@V?$allocator@W4_D3DFORMAT@@@std@@@std@@QBEHABV?$_Vector_const_iterator@W4_D3DFORMAT@@V?$allocator@W4_D3DFORMAT@@@std@@@1@@Z 100032a0 f i D3D_Shell.obj
 0001:000022d0       ??G?$_Vb_iterator@V?$vector@_NV?$allocator@_N@std@@@std@@@std@@QBEHABV?$_Vb_const_iterator@V?$vector@_NV?$allocator@_N@std@@@std@@@1@@Z 100032d0 f i D3D_Shell.obj
 0001:000022f0       ??0length_error@std@@QAE@ABV01@@Z 100032f0 f i D3D_Shell.obj
 0001:00002310       ??Y?$_Vector_iterator@UD3DModeInfo@@V?$allocator@UD3DModeInfo@@@std@@@std@@QAEAAV01@H@Z 10003310 f i D3D_Shell.obj
 0001:00002350       ?max_size@?$vector@IV?$allocator@I@std@@@std@@QBEIXZ 10003350 f i D3D_Shell.obj
 0001:00002360       ?allocate@?$allocator@I@std@@QAEPAII@Z 10003360 f i D3D_Shell.obj
 0001:00002380       ??Y?$_Vector_iterator@UD3DAdapterInfo@@V?$allocator@UD3DAdapterInfo@@@std@@@std@@QAEAAV01@H@Z 10003380 f i D3D_Shell.obj
 0001:000023c0       ??Y?$_Vector_iterator@UD3DDeviceInfo@@V?$allocator@UD3DDeviceInfo@@@std@@@std@@QAEAAV01@H@Z 100033c0 f i D3D_Shell.obj
 0001:00002400       ??Y?$_Vector_iterator@W4_D3DFORMAT@@V?$allocator@W4_D3DFORMAT@@@std@@@std@@QAEAAV01@H@Z 10003400 f i D3D_Shell.obj
 0001:00002440       ??0?$_Vector_const_iterator@W4_D3DFORMAT@@V?$allocator@W4_D3DFORMAT@@@std@@@std@@QAE@PAW4_D3DFORMAT@@PBU_Container_base@1@@Z 10003440 f i D3D_Shell.obj
 0001:00002480       ??0?$_Vb_const_iterator@V?$vector@_NV?$allocator@_N@std@@@std@@@std@@QAE@PBIPBV?$vector@_NV?$allocator@_N@std@@@1@@Z 10003480 f i D3D_Shell.obj
 0001:000024b0       ?begin@?$vector@UD3DDeviceInfo@@V?$allocator@UD3DDeviceInfo@@@std@@@std@@QBE?AV?$_Vector_const_iterator@UD3DDeviceInfo@@V?$allocator@UD3DDeviceInfo@@@std@@@2@XZ 100034b0 f i D3D_Shell.obj
 0001:000024e0       ?end@?$vector@UD3DDeviceInfo@@V?$allocator@UD3DDeviceInfo@@@std@@@std@@QBE?AV?$_Vector_const_iterator@UD3DDeviceInfo@@V?$allocator@UD3DDeviceInfo@@@std@@@2@XZ 100034e0 f i D3D_Shell.obj
 0001:00002510       ?begin@?$vector@UD3DModeInfo@@V?$allocator@UD3DModeInfo@@@std@@@std@@QBE?AV?$_Vector_const_iterator@UD3DModeInfo@@V?$allocator@UD3DModeInfo@@@std@@@2@XZ 10003510 f i D3D_Shell.obj
 0001:00002540       ?end@?$vector@UD3DModeInfo@@V?$allocator@UD3DModeInfo@@@std@@@std@@QBE?AV?$_Vector_const_iterator@UD3DModeInfo@@V?$allocator@UD3DModeInfo@@@std@@@2@XZ 10003540 f i D3D_Shell.obj
 0001:00002570       ?max_size@?$vector@_NV?$allocator@_N@std@@@std@@QBEIXZ 10003570 f i D3D_Shell.obj
 0001:00002580       ??0?$_Vector_const_iterator@IV?$allocator@I@std@@@std@@QAE@PAIPBU_Container_base@1@@Z 10003580 f i D3D_Shell.obj
 0001:000025c0       ??Y?$_Vector_iterator@IV?$allocator@I@std@@@std@@QAEAAV01@H@Z 100035c0 f i D3D_Shell.obj
 0001:00002600       ??9?$_Vector_const_iterator@IV?$allocator@I@std@@@std@@QBE_NABV01@@Z 10003600 f i D3D_Shell.obj
 0001:00002630       ??$_Destroy_range@IV?$allocator@I@std@@@std@@YAXPAI0AAV?$allocator@I@0@@Z 10003630 f i D3D_Shell.obj
 0001:00002640       ??$_Checked_base@PAUD3DAdapterInfo@@@std@@YAPAUD3DAdapterInfo@@AAPAU1@@Z 10003640 f i D3D_Shell.obj
 0001:00002650       ??$_Checked_base@PAUD3DDeviceInfo@@@std@@YAPAUD3DDeviceInfo@@AAPAU1@@Z 10003650 f i D3D_Shell.obj
 0001:00002660       ??$_Checked_base@PAUD3DModeInfo@@@std@@YAPAUD3DModeInfo@@AAPAU1@@Z 10003660 f i D3D_Shell.obj
 0001:00002670       ??$_Checked_base@PAW4_D3DFORMAT@@@std@@YAPAW4_D3DFORMAT@@AAPAW41@@Z 10003670 f i D3D_Shell.obj
 0001:00002680       ??$_Checked_base@PAI@std@@YAPAIAAPAI@Z 10003680 f i D3D_Shell.obj
 0001:00002690       ??$_Move_backward_opt@PAIPAIUrandom_access_iterator_tag@std@@U_Undefined_move_tag@2@@std@@YAPAIPAI00Urandom_access_iterator_tag@0@U_Undefined_move_tag@0@U_Range_checked_iterator_tag@0@@Z 10003690 f i D3D_Shell.obj
 0001:000026c0       ?construct@?$allocator@UD3DModeInfo@@@std@@QAEXPAUD3DModeInfo@@ABU3@@Z 100036c0 f i D3D_Shell.obj
 0001:000026f0       ?destroy@?$allocator@UD3DModeInfo@@@std@@QAEXPAUD3DModeInfo@@@Z 100036f0 f i D3D_Shell.obj
 0001:00002700       ?construct@?$allocator@W4_D3DFORMAT@@@std@@QAEXPAW4_D3DFORMAT@@ABW43@@Z 10003700 f i D3D_Shell.obj
 0001:00002720       ?destroy@?$allocator@W4_D3DFORMAT@@@std@@QAEXPAW4_D3DFORMAT@@@Z 10003720 f i D3D_Shell.obj
 0001:00002730       ??9?$_Vb_const_iterator@V?$vector@_NV?$allocator@_N@std@@@std@@@std@@QBE_NABV01@@Z 10003730 f i D3D_Shell.obj
 0001:00002770       ??$_Checked_base@V?$_Vector_iterator@UD3DModeInfo@@V?$allocator@UD3DModeInfo@@@std@@@std@@U_Different_checked_iterator_base_type_tag@2@@std@@YAPAUD3DModeInfo@@AAV?$_Vector_iterator@UD3DModeInfo@@V?$allocator@UD3DModeInfo@@@std@@@0@U_Different_checked_iterator_base_type_tag@0@@Z 10003770 f i D3D_Shell.obj
 0001:00002780       ??$_Copy_backward_opt@PAUD3DModeInfo@@PAU1@@std@@YAPAUD3DModeInfo@@PAU1@00Urandom_access_iterator_tag@0@U_Nonscalar_ptr_iterator_tag@0@U_Range_checked_iterator_tag@0@@Z 10003780 f i D3D_Shell.obj
 0001:000027d0       ??$_Copy_backward_opt@PAW4_D3DFORMAT@@PAW41@@std@@YAPAW4_D3DFORMAT@@PAW41@00Urandom_access_iterator_tag@0@U_Nonscalar_ptr_iterator_tag@0@U_Range_checked_iterator_tag@0@@Z 100037d0 f i D3D_Shell.obj
 0001:00002810       ??$_Uninit_copy@PBUD3DModeInfo@@PAU1@V?$allocator@UD3DModeInfo@@@std@@@std@@YAPAUD3DModeInfo@@PBU1@0PAU1@AAV?$allocator@UD3DModeInfo@@@0@U_Nonscalar_ptr_iterator_tag@0@U_Range_checked_iterator_tag@0@@Z 10003810 f i D3D_Shell.obj
 0001:00002850       ??$iter_swap@PAUD3DModeInfo@@PAU1@@std@@YAXPAUD3DModeInfo@@0@Z 10003850 f i D3D_Shell.obj
 0001:00002890       ??$_Checked_base@V?$_Vector_const_iterator@UD3DDeviceInfo@@V?$allocator@UD3DDeviceInfo@@@std@@@std@@U_Different_checked_iterator_base_type_tag@2@@std@@YAPBUD3DDeviceInfo@@AAV?$_Vector_const_iterator@UD3DDeviceInfo@@V?$allocator@UD3DDeviceInfo@@@std@@@0@U_Different_checked_iterator_base_type_tag@0@@Z 10003890 f i D3D_Shell.obj
 0001:000028a0       ??$_Checked_base@V?$_Vector_const_iterator@UD3DModeInfo@@V?$allocator@UD3DModeInfo@@@std@@@std@@U_Different_checked_iterator_base_type_tag@2@@std@@YAPBUD3DModeInfo@@AAV?$_Vector_const_iterator@UD3DModeInfo@@V?$allocator@UD3DModeInfo@@@std@@@0@U_Different_checked_iterator_base_type_tag@0@@Z 100038a0 f i D3D_Shell.obj
 0001:000028b0       ??$unchecked_uninitialized_copy@PAIPAIV?$allocator@I@std@@@stdext@@YAPAIPAI00AAV?$allocator@I@std@@@Z 100038b0 f i D3D_Shell.obj
 0001:000028e0       ??$_Fill_n@PAIII@std@@YAXPAIIABIUrandom_access_iterator_tag@0@U_Range_checked_iterator_tag@0@@Z 100038e0 f i D3D_Shell.obj
 0001:00002910       ??$_Copy_opt@PAUD3DModeInfo@@PAU1@@std@@YAPAUD3DModeInfo@@PAU1@00Urandom_access_iterator_tag@0@U_Nonscalar_ptr_iterator_tag@0@U_Range_checked_iterator_tag@0@@Z 10003910 f i D3D_Shell.obj
 0001:00002960       ??$_Med3@PAUD3DModeInfo@@@std@@YAXPAUD3DModeInfo@@00@Z 10003960 f i D3D_Shell.obj
 0001:00002a70       ??$_Adjust_heap@PAUD3DModeInfo@@HU1@@std@@YAXPAUD3DModeInfo@@HHU1@@Z 10003a70 f i D3D_Shell.obj
 0001:00002b50       ??$unchecked_copy_backward@PAUD3DModeInfo@@PAU1@@stdext@@YAPAUD3DModeInfo@@PAU1@00@Z 10003b50 f i D3D_Shell.obj
 0001:00002b80       ??$_Uninit_copy@PAUD3DModeInfo@@PAU1@V?$allocator@UD3DModeInfo@@@std@@@std@@YAPAUD3DModeInfo@@PAU1@00AAV?$allocator@UD3DModeInfo@@@0@U_Nonscalar_ptr_iterator_tag@0@U_Range_checked_iterator_tag@0@@Z 10003b80 f i D3D_Shell.obj
 0001:00002bc0       ??$_Uninit_copy@PAW4_D3DFORMAT@@PAW41@V?$allocator@W4_D3DFORMAT@@@std@@@std@@YAPAW4_D3DFORMAT@@PAW41@00AAV?$allocator@W4_D3DFORMAT@@@0@U_Nonscalar_ptr_iterator_tag@0@U_Range_checked_iterator_tag@0@@Z 10003bc0 f i D3D_Shell.obj
 0001:00002bf0       ??$_Pop_heap@PAUD3DModeInfo@@HU1@@std@@YAXPAUD3DModeInfo@@00U1@PAH@Z 10003bf0 f i D3D_Shell.obj
 0001:00002c50       ?_Buy@?$vector@UD3DDeviceInfo@@V?$allocator@UD3DDeviceInfo@@@std@@@std@@IAE_NI@Z 10003c50 f i D3D_Shell.obj
 0001:00002ca0       ?_Buy@?$vector@UD3DModeInfo@@V?$allocator@UD3DModeInfo@@@std@@@std@@IAE_NI@Z 10003ca0 f i D3D_Shell.obj
 0001:00002cf0       ?_Buy@?$vector@UD3DAdapterInfo@@V?$allocator@UD3DAdapterInfo@@@std@@@std@@IAE_NI@Z 10003cf0 f i D3D_Shell.obj
 0001:00002d40       ?_Buy@?$vector@W4_D3DFORMAT@@V?$allocator@W4_D3DFORMAT@@@std@@@std@@IAE_NI@Z 10003d40 f i D3D_Shell.obj
 0001:00002d90       ??0?$_Vector_iterator@UD3DModeInfo@@V?$allocator@UD3DModeInfo@@@std@@@std@@QAE@PAUD3DModeInfo@@PBU_Container_base@1@@Z 10003d90 f i D3D_Shell.obj
 0001:00002dd0       ??0?$_Vector_iterator@UD3DAdapterInfo@@V?$allocator@UD3DAdapterInfo@@@std@@@std@@QAE@PAUD3DAdapterInfo@@PBU_Container_base@1@@Z 10003dd0 f i D3D_Shell.obj
 0001:00002e10       ??0?$_Vector_iterator@UD3DDeviceInfo@@V?$allocator@UD3DDeviceInfo@@@std@@@std@@QAE@PAUD3DDeviceInfo@@PBU_Container_base@1@@Z 10003e10 f i D3D_Shell.obj
 0001:00002e50       ??0?$_Vb_const_iterator@V?$vector@_NV?$allocator@_N@std@@@std@@@std@@QAE@ABV01@@Z 10003e50 f i D3D_Shell.obj
 0001:00002e80       ??H?$_Vector_iterator@UD3DModeInfo@@V?$allocator@UD3DModeInfo@@@std@@@std@@QBE?AV01@H@Z 10003e80 f i D3D_Shell.obj
 0001:00002ec0       ?_Buy@?$vector@IV?$allocator@I@std@@@std@@IAE_NI@Z 10003ec0 f i D3D_Shell.obj
 0001:00002f10       ??0?$_Vb_reference@V?$vector@_NV?$allocator@_N@std@@@std@@@std@@QAE@ABV?$_Vb_iter_base@V?$vector@_NV?$allocator@_N@std@@@std@@@1@@Z 10003f10 f i D3D_Shell.obj
 0001:00002f40       ??H?$_Vector_iterator@UD3DAdapterInfo@@V?$allocator@UD3DAdapterInfo@@@std@@@std@@QBE?AV01@H@Z 10003f40 f i D3D_Shell.obj
 0001:00002f80       ??H?$_Vector_iterator@UD3DDeviceInfo@@V?$allocator@UD3DDeviceInfo@@@std@@@std@@QBE?AV01@H@Z 10003f80 f i D3D_Shell.obj
 0001:00002fc0       ??0?$_Vector_iterator@W4_D3DFORMAT@@V?$allocator@W4_D3DFORMAT@@@std@@@std@@QAE@PAW4_D3DFORMAT@@PBU_Container_base@1@@Z 10003fc0 f i D3D_Shell.obj
 0001:00003000       ??H?$_Vector_iterator@W4_D3DFORMAT@@V?$allocator@W4_D3DFORMAT@@@std@@@std@@QBE?AV01@H@Z 10004000 f i D3D_Shell.obj
 0001:00003040       ??0?$_Vb_iterator@V?$vector@_NV?$allocator@_N@std@@@std@@@std@@QAE@PAIPAV?$vector@_NV?$allocator@_N@std@@@1@@Z 10004040 f i D3D_Shell.obj
 0001:00003070       ?_Destroy@?$vector@IV?$allocator@I@std@@@std@@IAEXPAI0@Z 10004070 f i D3D_Shell.obj
 0001:00003080       ??0?$_Vector_iterator@IV?$allocator@I@std@@@std@@QAE@PAIPBU_Container_base@1@@Z 10004080 f i D3D_Shell.obj
 0001:000030c0       ?end@?$vector@IV?$allocator@I@std@@@std@@QAE?AV?$_Vector_iterator@IV?$allocator@I@std@@@2@XZ 100040c0 f i D3D_Shell.obj
 0001:000030f0       ??H?$_Vector_iterator@IV?$allocator@I@std@@@std@@QBE?AV01@H@Z 100040f0 f i D3D_Shell.obj
 0001:00003130       ??$fill@PAUD3DModeInfo@@U1@@std@@YAXPAUD3DModeInfo@@0ABU1@@Z 10004130 f i D3D_Shell.obj
 0001:00003160       ??$fill@PAW4_D3DFORMAT@@W41@@std@@YAXPAW4_D3DFORMAT@@0ABW41@@Z 10004160 f i D3D_Shell.obj
 0001:00003180       ??$unchecked_copy@PAIPAI@stdext@@YAPAIPAI00@Z 10004180 f i D3D_Shell.obj
 0001:000031c0       ??$fill@PAII@std@@YAXPAI0ABI@Z 100041c0 f i D3D_Shell.obj
 0001:000031e0       ??$_Unchecked_move_backward@PAIPAI@stdext@@YAPAIPAI00@Z 100041e0 f i D3D_Shell.obj
 0001:00003210       ??$_Checked_base@V?$_Vector_iterator@UD3DModeInfo@@V?$allocator@UD3DModeInfo@@@std@@@std@@@std@@YAPAUD3DModeInfo@@AAV?$_Vector_iterator@UD3DModeInfo@@V?$allocator@UD3DModeInfo@@@std@@@0@@Z 10004210 f i D3D_Shell.obj
 0001:00003220       ??$_Uninit_fill_n@PAUD3DModeInfo@@IU1@V?$allocator@UD3DModeInfo@@@std@@@std@@YAXPAUD3DModeInfo@@IABU1@AAV?$allocator@UD3DModeInfo@@@0@U_Nonscalar_ptr_iterator_tag@0@U_Range_checked_iterator_tag@0@@Z 10004220 f i D3D_Shell.obj
 0001:00003260       ??$_Uninit_fill_n@PAW4_D3DFORMAT@@IW41@V?$allocator@W4_D3DFORMAT@@@std@@@std@@YAXPAW4_D3DFORMAT@@IABW41@AAV?$allocator@W4_D3DFORMAT@@@0@U_Nonscalar_ptr_iterator_tag@0@U_Range_checked_iterator_tag@0@@Z 10004260 f i D3D_Shell.obj
 0001:00003290       ??$_Destroy_range@UD3DModeInfo@@V?$allocator@UD3DModeInfo@@@std@@@std@@YAXPAUD3DModeInfo@@0AAV?$allocator@UD3DModeInfo@@@0@U_Nonscalar_ptr_iterator_tag@0@@Z 10004290 f i D3D_Shell.obj
 0001:000032a0       ??$_Move_backward_opt@PAUD3DModeInfo@@PAU1@Urandom_access_iterator_tag@std@@U_Undefined_move_tag@3@@std@@YAPAUD3DModeInfo@@PAU1@00Urandom_access_iterator_tag@0@U_Undefined_move_tag@0@U_Range_checked_iterator_tag@0@@Z 100042a0 f i D3D_Shell.obj
 0001:000032c0       ??$_Destroy_range@W4_D3DFORMAT@@V?$allocator@W4_D3DFORMAT@@@std@@@std@@YAXPAW4_D3DFORMAT@@0AAV?$allocator@W4_D3DFORMAT@@@0@U_Nonscalar_ptr_iterator_tag@0@@Z 100042c0 f i D3D_Shell.obj
 0001:000032d0       ??$_Move_backward_opt@PAW4_D3DFORMAT@@PAW41@Urandom_access_iterator_tag@std@@U_Undefined_move_tag@3@@std@@YAPAW4_D3DFORMAT@@PAW41@00Urandom_access_iterator_tag@0@U_Undefined_move_tag@0@U_Range_checked_iterator_tag@0@@Z 100042d0 f i D3D_Shell.obj
 0001:00003310       ??$_Checked_base@V?$_Vector_const_iterator@UD3DDeviceInfo@@V?$allocator@UD3DDeviceInfo@@@std@@@std@@@std@@YAPBUD3DDeviceInfo@@AAV?$_Vector_const_iterator@UD3DDeviceInfo@@V?$allocator@UD3DDeviceInfo@@@std@@@0@@Z 10004310 f i D3D_Shell.obj
 0001:00003320       ??$_Checked_base@V?$_Vector_const_iterator@UD3DModeInfo@@V?$allocator@UD3DModeInfo@@@std@@@std@@@std@@YAPBUD3DModeInfo@@AAV?$_Vector_const_iterator@UD3DModeInfo@@V?$allocator@UD3DModeInfo@@@std@@@0@@Z 10004320 f i D3D_Shell.obj
 0001:00003330       ??$_Uninit_move@PAIPAIV?$allocator@I@std@@U_Undefined_move_tag@2@@std@@YAPAIPAI00AAV?$allocator@I@0@U_Undefined_move_tag@0@U_Range_checked_iterator_tag@0@@Z 10004330 f i D3D_Shell.obj
 0001:00003360       ??$unchecked_fill_n@PAIII@stdext@@YAXPAIIABI@Z 10004360 f i D3D_Shell.obj
 0001:00003390       ??$unchecked_copy@PAUD3DModeInfo@@PAU1@@stdext@@YAPAUD3DModeInfo@@PAU1@00@Z 10004390 f i D3D_Shell.obj
 0001:000033c0       ??$_Median@PAUD3DModeInfo@@@std@@YAXPAUD3DModeInfo@@00@Z 100043c0 f i D3D_Shell.obj
 0001:00003450       ??$_Make_heap@PAUD3DModeInfo@@HU1@@std@@YAXPAUD3DModeInfo@@0PAH0@Z 10004450 f i D3D_Shell.obj
 0001:000034b0       ??$_Insertion_sort1@PAUD3DModeInfo@@U1@@std@@YAXPAUD3DModeInfo@@00@Z 100044b0 f i D3D_Shell.obj
 0001:000035a0       ??$unchecked_uninitialized_copy@PAUD3DModeInfo@@PAU1@V?$allocator@UD3DModeInfo@@@std@@@stdext@@YAPAUD3DModeInfo@@PAU1@00AAV?$allocator@UD3DModeInfo@@@std@@@Z 100045a0 f i D3D_Shell.obj
 0001:000035d0       ??$unchecked_uninitialized_copy@PAW4_D3DFORMAT@@PAW41@V?$allocator@W4_D3DFORMAT@@@std@@@stdext@@YAPAW4_D3DFORMAT@@PAW41@00AAV?$allocator@W4_D3DFORMAT@@@std@@@Z 100045d0 f i D3D_Shell.obj
 0001:00003600       ??$_Pop_heap_0@PAUD3DModeInfo@@U1@@std@@YAXPAUD3DModeInfo@@00@Z 10004600 f i D3D_Shell.obj
 0001:00003660       ??0?$vector@UD3DDeviceInfo@@V?$allocator@UD3DDeviceInfo@@@std@@@std@@QAE@XZ 10004660 f i D3D_Shell.obj
 0001:00003670       ?begin@?$vector@UD3DDeviceInfo@@V?$allocator@UD3DDeviceInfo@@@std@@@std@@QAE?AV?$_Vector_iterator@UD3DDeviceInfo@@V?$allocator@UD3DDeviceInfo@@@std@@@2@XZ 10004670 f i D3D_Shell.obj
 0001:000036a0       ?end@?$vector@UD3DDeviceInfo@@V?$allocator@UD3DDeviceInfo@@@std@@@std@@QAE?AV?$_Vector_iterator@UD3DDeviceInfo@@V?$allocator@UD3DDeviceInfo@@@std@@@2@XZ 100046a0 f i D3D_Shell.obj
 0001:000036d0       ??0?$vector@UD3DModeInfo@@V?$allocator@UD3DModeInfo@@@std@@@std@@QAE@XZ 100046d0 f i D3D_Shell.obj
 0001:000036e0       ?begin@?$vector@UD3DModeInfo@@V?$allocator@UD3DModeInfo@@@std@@@std@@QAE?AV?$_Vector_iterator@UD3DModeInfo@@V?$allocator@UD3DModeInfo@@@std@@@2@XZ 100046e0 f i D3D_Shell.obj
 0001:00003710       ?end@?$vector@UD3DModeInfo@@V?$allocator@UD3DModeInfo@@@std@@@std@@QAE?AV?$_Vector_iterator@UD3DModeInfo@@V?$allocator@UD3DModeInfo@@@std@@@2@XZ 10004710 f i D3D_Shell.obj
 0001:00003740       ??0?$vector@UD3DAdapterInfo@@V?$allocator@UD3DAdapterInfo@@@std@@@std@@QAE@XZ 10004740 f i D3D_Shell.obj
 0001:00003750       ?begin@?$vector@UD3DAdapterInfo@@V?$allocator@UD3DAdapterInfo@@@std@@@std@@QAE?AV?$_Vector_iterator@UD3DAdapterInfo@@V?$allocator@UD3DAdapterInfo@@@std@@@2@XZ 10004750 f i D3D_Shell.obj
 0001:00003780       ?end@?$vector@UD3DAdapterInfo@@V?$allocator@UD3DAdapterInfo@@@std@@@std@@QAE?AV?$_Vector_iterator@UD3DAdapterInfo@@V?$allocator@UD3DAdapterInfo@@@std@@@2@XZ 10004780 f i D3D_Shell.obj
 0001:000037b0       ??0?$vector@W4_D3DFORMAT@@V?$allocator@W4_D3DFORMAT@@@std@@@std@@QAE@XZ 100047b0 f i D3D_Shell.obj
 0001:000037c0       ?end@?$vector@W4_D3DFORMAT@@V?$allocator@W4_D3DFORMAT@@@std@@@std@@QAE?AV?$_Vector_iterator@W4_D3DFORMAT@@V?$allocator@W4_D3DFORMAT@@@std@@@2@XZ 100047c0 f i D3D_Shell.obj
 0001:000037f0       ??0?$vector@IV?$allocator@I@std@@@std@@QAE@XZ 100047f0 f i D3D_Shell.obj
 0001:00003800       ??D?$_Vb_iterator@V?$vector@_NV?$allocator@_N@std@@@std@@@std@@QBE?AV?$_Vb_reference@V?$vector@_NV?$allocator@_N@std@@@std@@@1@XZ 10004800 f i D3D_Shell.obj
 0001:00003830       ??0?$_Vb_iterator@V?$vector@_NV?$allocator@_N@std@@@std@@@std@@QAE@ABV01@@Z 10004830 f i D3D_Shell.obj
 0001:00003860       ?begin@?$vector@W4_D3DFORMAT@@V?$allocator@W4_D3DFORMAT@@@std@@@std@@QAE?AV?$_Vector_iterator@W4_D3DFORMAT@@V?$allocator@W4_D3DFORMAT@@@std@@@2@XZ 10004860 f i D3D_Shell.obj
 0001:00003890       ?begin@?$vector@IV?$allocator@I@std@@@std@@QAE?AV?$_Vector_iterator@IV?$allocator@I@std@@@2@XZ 10004890 f i D3D_Shell.obj
 0001:000038c0       ?_Tidy@?$vector@IV?$allocator@I@std@@@std@@IAEXXZ 100048c0 f i D3D_Shell.obj
 0001:000038f0       ?_My_cont_begin@?$_Vb_iter_base@V?$vector@_NV?$allocator@_N@std@@@std@@@std@@QBEPAIXZ 100048f0 f i D3D_Shell.obj
 0001:00003910       ?erase@?$vector@IV?$allocator@I@std@@@std@@QAE?AV?$_Vector_iterator@IV?$allocator@I@std@@@2@V32@0@Z 10004910 f i D3D_Shell.obj
 0001:00003970       ??$unchecked_uninitialized_fill_n@PAUD3DModeInfo@@IU1@V?$allocator@UD3DModeInfo@@@std@@@stdext@@YAXPAUD3DModeInfo@@IABU1@AAV?$allocator@UD3DModeInfo@@@std@@@Z 10004970 f i D3D_Shell.obj
 0001:000039a0       ??$unchecked_uninitialized_fill_n@PAW4_D3DFORMAT@@IW41@V?$allocator@W4_D3DFORMAT@@@std@@@stdext@@YAXPAW4_D3DFORMAT@@IABW41@AAV?$allocator@W4_D3DFORMAT@@@std@@@Z 100049a0 f i D3D_Shell.obj
 0001:000039d0       ??$_Destroy_range@UD3DModeInfo@@V?$allocator@UD3DModeInfo@@@std@@@std@@YAXPAUD3DModeInfo@@0AAV?$allocator@UD3DModeInfo@@@0@@Z 100049d0 f i D3D_Shell.obj
 0001:000039e0       ??$_Unchecked_move_backward@PAUD3DModeInfo@@PAU1@@stdext@@YAPAUD3DModeInfo@@PAU1@00@Z 100049e0 f i D3D_Shell.obj
 0001:00003a10       ??$_Destroy_range@W4_D3DFORMAT@@V?$allocator@W4_D3DFORMAT@@@std@@@std@@YAXPAW4_D3DFORMAT@@0AAV?$allocator@W4_D3DFORMAT@@@0@@Z 10004a10 f i D3D_Shell.obj
 0001:00003a20       ??$_Unchecked_move_backward@PAW4_D3DFORMAT@@PAW41@@stdext@@YAPAW4_D3DFORMAT@@PAW41@00@Z 10004a20 f i D3D_Shell.obj
 0001:00003a60       ??$unchecked_uninitialized_copy@V?$_Vector_const_iterator@UD3DModeInfo@@V?$allocator@UD3DModeInfo@@@std@@@std@@PAUD3DModeInfo@@V?$allocator@UD3DModeInfo@@@2@@stdext@@YAPAUD3DModeInfo@@V?$_Vector_const_iterator@UD3DModeInfo@@V?$allocator@UD3DModeInfo@@@std@@@std@@0PAU1@AAV?$allocator@UD3DModeInfo@@@3@@Z 10004a60 f i D3D_Shell.obj
 0001:00003a90       ??$_Unchecked_uninitialized_move@PAIPAIV?$allocator@I@std@@@stdext@@YAPAIPAI00AAV?$allocator@I@std@@@Z 10004a90 f i D3D_Shell.obj
 0001:00003ac0       ??$_Uninit_fill_n@PAIIIV?$allocator@I@std@@@std@@YAXPAIIABIAAV?$allocator@I@0@U_Scalar_ptr_iterator_tag@0@U_Range_checked_iterator_tag@0@@Z 10004ac0 f i D3D_Shell.obj
 0001:00003af0       ??$_Unguarded_partition@PAUD3DModeInfo@@@std@@YA?AU?$pair@PAUD3DModeInfo@@PAU1@@0@PAUD3DModeInfo@@0@Z 10004af0 f i D3D_Shell.obj
 0001:00003ec0       ??$make_heap@PAUD3DModeInfo@@@std@@YAXPAUD3DModeInfo@@0@Z 10004ec0 f i D3D_Shell.obj
 0001:00003ef0       ??$_Insertion_sort@PAUD3DModeInfo@@@std@@YAXPAUD3DModeInfo@@0@Z 10004ef0 f i D3D_Shell.obj
 0001:00003f10       ??$_Uninit_move@PAUD3DModeInfo@@PAU1@V?$allocator@UD3DModeInfo@@@std@@U_Undefined_move_tag@3@@std@@YAPAUD3DModeInfo@@PAU1@00AAV?$allocator@UD3DModeInfo@@@0@U_Undefined_move_tag@0@U_Range_checked_iterator_tag@0@@Z 10004f10 f i D3D_Shell.obj
 0001:00003f30       ??$_Uninit_move@PAW4_D3DFORMAT@@PAW41@V?$allocator@W4_D3DFORMAT@@@std@@U_Undefined_move_tag@3@@std@@YAPAW4_D3DFORMAT@@PAW41@00AAV?$allocator@W4_D3DFORMAT@@@0@U_Undefined_move_tag@0@U_Range_checked_iterator_tag@0@@Z 10004f30 f i D3D_Shell.obj
 0001:00003f50       ??$_Checked_base@V?$_Vb_iterator@V?$vector@_NV?$allocator@_N@std@@@std@@@std@@@std@@YA?AV?$_Vb_iterator@V?$vector@_NV?$allocator@_N@std@@@std@@@0@AAV10@U_Unchanged_checked_iterator_base_type_tag@0@@Z 10004f50 f i D3D_Shell.obj
 0001:00003f80       ??$_Ucopy@PAUD3DModeInfo@@@?$vector@UD3DModeInfo@@V?$allocator@UD3DModeInfo@@@std@@@std@@IAEPAUD3DModeInfo@@PAU2@00@Z 10004f80 f i D3D_Shell.obj
 0001:00003fb0       ?_Dec@?$_Vb_const_iterator@V?$vector@_NV?$allocator@_N@std@@@std@@@std@@IAEXXZ 10004fb0 f i D3D_Shell.obj
 0001:00004000       ??$pop_heap@PAUD3DModeInfo@@@std@@YAXPAUD3DModeInfo@@0@Z 10005000 f i D3D_Shell.obj
 0001:00004030       ?PickDefaultDev@CD3D_Shell@@QAEPAUD3DDeviceInfo@@PAPAUD3DAdapterInfo@@@Z 10005030 f   D3D_Shell.obj
 0001:00004160       ?PickDefaultMode@CD3D_Shell@@QAEPAUD3DModeInfo@@PAUD3DDeviceInfo@@I@Z 10005160 f   D3D_Shell.obj
 0001:00004280       ?ListDevices@CD3D_Shell@@QAEXXZ 10005280 f   D3D_Shell.obj
 0001:00004370       ?FindDevice@CD3D_Shell@@QAEPAUD3DDeviceInfo@@PBDPAPAUD3DAdapterInfo@@@Z 10005370 f   D3D_Shell.obj
 0001:000044a0       ?_Ufill@?$vector@UD3DModeInfo@@V?$allocator@UD3DModeInfo@@@std@@@std@@IAEPAUD3DModeInfo@@PAU3@IABU3@@Z 100054a0 f i D3D_Shell.obj
 0001:000044e0       ?_Ufill@?$vector@W4_D3DFORMAT@@V?$allocator@W4_D3DFORMAT@@@std@@@std@@IAEPAW4_D3DFORMAT@@PAW43@IABW43@@Z 100054e0 f i D3D_Shell.obj
 0001:00004520       ?begin@?$vector@_NV?$allocator@_N@std@@@std@@QAE?AV?$_Vb_iterator@V?$vector@_NV?$allocator@_N@std@@@std@@@2@XZ 10005520 f i D3D_Shell.obj
 0001:00004560       ??1?$vector@IV?$allocator@I@std@@@std@@QAE@XZ 10005560 f i D3D_Shell.obj
 0001:00004590       ?_Destroy@?$vector@UD3DModeInfo@@V?$allocator@UD3DModeInfo@@@std@@@std@@IAEXPAUD3DModeInfo@@0@Z 10005590 f i D3D_Shell.obj
 0001:000045a0       ?_Destroy@?$vector@W4_D3DFORMAT@@V?$allocator@W4_D3DFORMAT@@@std@@@std@@IAEXPAW4_D3DFORMAT@@0@Z 100055a0 f i D3D_Shell.obj
 0001:000045b0       ?_My_actual_offset@?$_Vb_iter_base@V?$vector@_NV?$allocator@_N@std@@@std@@@std@@QBEIXZ 100055b0 f i D3D_Shell.obj
 0001:000045e0       ??Y?$_Vb_const_iterator@V?$vector@_NV?$allocator@_N@std@@@std@@@std@@QAEAAV01@H@Z 100055e0 f i D3D_Shell.obj
 0001:000046b0       ??$_Ucopy@V?$_Vector_const_iterator@UD3DModeInfo@@V?$allocator@UD3DModeInfo@@@std@@@std@@@?$vector@UD3DModeInfo@@V?$allocator@UD3DModeInfo@@@std@@@std@@IAEPAUD3DModeInfo@@V?$_Vector_const_iterator@UD3DModeInfo@@V?$allocator@UD3DModeInfo@@@std@@@1@0PAU2@@Z 100056b0 f i D3D_Shell.obj
 0001:000046e0       ??$_Umove@PAI@?$vector@IV?$allocator@I@std@@@std@@IAEPAIPAI00@Z 100056e0 f i D3D_Shell.obj
 0001:00004720       ??$unchecked_uninitialized_fill_n@PAIIIV?$allocator@I@std@@@stdext@@YAXPAIIABIAAV?$allocator@I@std@@@Z 10005720 f i D3D_Shell.obj
 0001:00004750       ??$_Unchecked_uninitialized_move@PAUD3DModeInfo@@PAU1@V?$allocator@UD3DModeInfo@@@std@@@stdext@@YAPAUD3DModeInfo@@PAU1@00AAV?$allocator@UD3DModeInfo@@@std@@@Z 10005750 f i D3D_Shell.obj
 0001:00004780       ??$_Unchecked_uninitialized_move@PAW4_D3DFORMAT@@PAW41@V?$allocator@W4_D3DFORMAT@@@std@@@stdext@@YAPAW4_D3DFORMAT@@PAW41@00AAV?$allocator@W4_D3DFORMAT@@@std@@@Z 10005780 f i D3D_Shell.obj
 0001:000047b0       ??$_Checked_base@V?$_Vb_iterator@V?$vector@_NV?$allocator@_N@std@@@std@@@std@@@std@@YA?AV?$_Vb_iterator@V?$vector@_NV?$allocator@_N@std@@@std@@@0@AAV10@@Z 100057b0 f i D3D_Shell.obj
 0001:000047e0       ?erase@?$vector@UD3DModeInfo@@V?$allocator@UD3DModeInfo@@@std@@@std@@QAE?AV?$_Vector_iterator@UD3DModeInfo@@V?$allocator@UD3DModeInfo@@@std@@@2@V32@0@Z 100057e0 f i D3D_Shell.obj
 0001:00004840       ?_Inc@?$_Vb_const_iterator@V?$vector@_NV?$allocator@_N@std@@@std@@@std@@IAEXXZ 10005840 f i D3D_Shell.obj
 0001:000048b0       ??F?$_Vb_const_iterator@V?$vector@_NV?$allocator@_N@std@@@std@@@std@@QAEAAV01@XZ 100058b0 f i D3D_Shell.obj
 0001:00004900       ??$_Sort_heap@PAUD3DModeInfo@@@std@@YAXPAUD3DModeInfo@@0@Z 10005900 f i D3D_Shell.obj
 0001:00004980       ??0?$vector@_NV?$allocator@_N@std@@@std@@QAE@XZ 10005980 f i D3D_Shell.obj
 0001:00004990       ??1?$vector@_NV?$allocator@_N@std@@@std@@QAE@XZ 10005990 f i D3D_Shell.obj
 0001:000049c0       ?_Tidy@?$vector@UD3DModeInfo@@V?$allocator@UD3DModeInfo@@@std@@@std@@IAEXXZ 100059c0 f i D3D_Shell.obj
 0001:000049f0       ?_Tidy@?$vector@W4_D3DFORMAT@@V?$allocator@W4_D3DFORMAT@@@std@@@std@@IAEXXZ 100059f0 f i D3D_Shell.obj
 0001:00004a20       ?_Getptr@?$_Vb_reference@V?$vector@_NV?$allocator@_N@std@@@std@@@std@@QBEPAIXZ 10005a20 f i D3D_Shell.obj
 0001:00004a70       ??Y?$_Vb_iterator@V?$vector@_NV?$allocator@_N@std@@@std@@@std@@QAEAAV01@H@Z 10005a70 f i D3D_Shell.obj
 0001:00004a90       ??0?$vector@UD3DModeInfo@@V?$allocator@UD3DModeInfo@@@std@@@std@@QAE@ABV01@@Z 10005a90 f i D3D_Shell.obj
 0001:00004b80       ?_Ufill@?$vector@IV?$allocator@I@std@@@std@@IAEPAIPAIIABI@Z 10005b80 f i D3D_Shell.obj
 0001:00004bb0       ??$_Umove@PAUD3DModeInfo@@@?$vector@UD3DModeInfo@@V?$allocator@UD3DModeInfo@@@std@@@std@@IAEPAUD3DModeInfo@@PAU2@00@Z 10005bb0 f i D3D_Shell.obj
 0001:00004be0       ??$_Umove@PAW4_D3DFORMAT@@@?$vector@W4_D3DFORMAT@@V?$allocator@W4_D3DFORMAT@@@std@@@std@@IAEPAW4_D3DFORMAT@@PAW42@00@Z 10005be0 f i D3D_Shell.obj
 0001:00004c10       ??4?$_Vb_reference@V?$vector@_NV?$allocator@_N@std@@@std@@@std@@QAEAAV01@_N@Z 10005c10 f i D3D_Shell.obj
 0001:00004c40       ?clear@?$vector@UD3DModeInfo@@V?$allocator@UD3DModeInfo@@@std@@@std@@QAEXXZ 10005c40 f i D3D_Shell.obj
 0001:00004c80       ??Z?$_Vb_iterator@V?$vector@_NV?$allocator@_N@std@@@std@@@std@@QAEAAV01@H@Z 10005c80 f i D3D_Shell.obj
 0001:00004ca0       ??E?$_Vb_const_iterator@V?$vector@_NV?$allocator@_N@std@@@std@@@std@@QAEAAV01@XZ 10005ca0 f i D3D_Shell.obj
 0001:00004cb0       ??$sort_heap@PAUD3DModeInfo@@@std@@YAXPAUD3DModeInfo@@0@Z 10005cb0 f i D3D_Shell.obj
 0001:00004cc0       ??F?$_Vb_iterator@V?$vector@_NV?$allocator@_N@std@@@std@@@std@@QAEAAV01@XZ 10005cc0 f i D3D_Shell.obj
 0001:00004cd0       ??1?$vector@UD3DModeInfo@@V?$allocator@UD3DModeInfo@@@std@@@std@@QAE@XZ 10005cd0 f i D3D_Shell.obj
 0001:00004d00       ??1?$vector@W4_D3DFORMAT@@V?$allocator@W4_D3DFORMAT@@@std@@@std@@QAE@XZ 10005d00 f i D3D_Shell.obj
 0001:00004d30       ??B?$_Vb_reference@V?$vector@_NV?$allocator@_N@std@@@std@@@std@@QBE_NXZ 10005d30 f i D3D_Shell.obj
 0001:00004d90       ?end@?$vector@_NV?$allocator@_N@std@@@std@@QAE?AV?$_Vb_iterator@V?$vector@_NV?$allocator@_N@std@@@std@@@2@XZ 10005d90 f i D3D_Shell.obj
 0001:00004de0       ??H?$_Vb_iterator@V?$vector@_NV?$allocator@_N@std@@@std@@@std@@QBE?AV01@H@Z 10005de0 f i D3D_Shell.obj
 0001:00004e50       ?_Insert_n@?$vector@UD3DModeInfo@@V?$allocator@UD3DModeInfo@@@std@@@std@@IAEXV?$_Vector_iterator@UD3DModeInfo@@V?$allocator@UD3DModeInfo@@@std@@@2@IABUD3DModeInfo@@@Z 10005e50 f i D3D_Shell.obj
 0001:000050b0       ?_Insert_n@?$vector@W4_D3DFORMAT@@V?$allocator@W4_D3DFORMAT@@@std@@@std@@IAEXV?$_Vector_iterator@W4_D3DFORMAT@@V?$allocator@W4_D3DFORMAT@@@std@@@2@IABW4_D3DFORMAT@@@Z 100060b0 f i D3D_Shell.obj
 0001:00005300       ??0D3DDeviceInfo@@QAE@ABU0@@Z 10006300 f i D3D_Shell.obj
 0001:00005380       ?_Insert_n@?$vector@IV?$allocator@I@std@@@std@@IAEXV?$_Vector_iterator@IV?$allocator@I@std@@@2@IABI@Z 10006380 f i D3D_Shell.obj
 0001:00005540       ??$_Sort@PAUD3DModeInfo@@H@std@@YAXPAUD3DModeInfo@@0H@Z 10006540 f i D3D_Shell.obj
 0001:00005610       ??4?$vector@UD3DModeInfo@@V?$allocator@UD3DModeInfo@@@std@@@std@@QAEAAV01@ABV01@@Z 10006610 f i D3D_Shell.obj
 0001:00005750       ??E?$_Vb_iterator@V?$vector@_NV?$allocator@_N@std@@@std@@@std@@QAEAAV01@XZ 10006750 f i D3D_Shell.obj
 0001:00005760       ??G?$_Vb_iterator@V?$vector@_NV?$allocator@_N@std@@@std@@@std@@QBE?AV01@H@Z 10006760 f i D3D_Shell.obj
 0001:000057d0       ??$_Construct@UD3DDeviceInfo@@U1@@std@@YAXPAUD3DDeviceInfo@@ABU1@@Z 100067d0 f i D3D_Shell.obj
 0001:00005830       ??4?$_Vb_reference@V?$vector@_NV?$allocator@_N@std@@@std@@@std@@QAEAAV01@ABV01@@Z 10006830 f i D3D_Shell.obj
 0001:00005880       ??0D3DDeviceInfo@@QAE@XZ   10006880 f i D3D_Shell.obj
 0001:000058a0       ??1D3DDeviceInfo@@QAE@XZ   100068a0 f i D3D_Shell.obj
 0001:000058e0       ??A?$vector@_NV?$allocator@_N@std@@@std@@QAE?AV?$_Vb_reference@V?$vector@_NV?$allocator@_N@std@@@std@@@1@I@Z 100068e0 f i D3D_Shell.obj
 0001:00005950       ?insert@?$vector@UD3DModeInfo@@V?$allocator@UD3DModeInfo@@@std@@@std@@QAE?AV?$_Vector_iterator@UD3DModeInfo@@V?$allocator@UD3DModeInfo@@@std@@@2@V32@ABUD3DModeInfo@@@Z 10006950 f i D3D_Shell.obj
 0001:000059e0       ?insert@?$vector@W4_D3DFORMAT@@V?$allocator@W4_D3DFORMAT@@@std@@@std@@QAE?AV?$_Vector_iterator@W4_D3DFORMAT@@V?$allocator@W4_D3DFORMAT@@@std@@@2@V32@ABW4_D3DFORMAT@@@Z 100069e0 f i D3D_Shell.obj
 0001:00005a70       ?resize@?$vector@IV?$allocator@I@std@@@std@@QAEXII@Z 10006a70 f i D3D_Shell.obj
 0001:00005b30       ??$sort@V?$_Vector_iterator@UD3DModeInfo@@V?$allocator@UD3DModeInfo@@@std@@@std@@@std@@YAXV?$_Vector_iterator@UD3DModeInfo@@V?$allocator@UD3DModeInfo@@@std@@@0@0@Z 10006b30 f i D3D_Shell.obj
 0001:00005b60       ??$_Fill@V?$_Vb_iterator@V?$vector@_NV?$allocator@_N@std@@@std@@@std@@_N@std@@YAXV?$_Vb_iterator@V?$vector@_NV?$allocator@_N@std@@@std@@@0@0AB_N@Z 10006b60 f i D3D_Shell.obj
 0001:00005c50       ??4D3DDeviceInfo@@QAEAAU0@ABU0@@Z 10006c50 f i D3D_Shell.obj
 0001:00005cd0       ?construct@?$allocator@UD3DDeviceInfo@@@std@@QAEXPAUD3DDeviceInfo@@ABU3@@Z 10006cd0 f i D3D_Shell.obj
 0001:00005cf0       ??$_Copy_backward_opt@V?$_Vb_iterator@V?$vector@_NV?$allocator@_N@std@@@std@@@std@@V12@Uforward_iterator_tag@2@@std@@YA?AV?$_Vb_iterator@V?$vector@_NV?$allocator@_N@std@@@std@@@0@V10@00Uforward_iterator_tag@0@U_Nonscalar_ptr_iterator_tag@0@U_Range_checked_iterator_tag@0@@Z 10006cf0 f i D3D_Shell.obj
 0001:00005eb0       ??_GD3DDeviceInfo@@QAEPAXI@Z 10006eb0 f i D3D_Shell.obj
 0001:00005f00       ??$_Copy_backward_opt@PAUD3DDeviceInfo@@PAU1@Uforward_iterator_tag@std@@@std@@YAPAUD3DDeviceInfo@@PAU1@00Uforward_iterator_tag@0@U_Nonscalar_ptr_iterator_tag@0@U_Range_checked_iterator_tag@0@@Z 10006f00 f i D3D_Shell.obj
 0001:00005f40       ??$_Copy_opt@PAUD3DDeviceInfo@@PAU1@Uforward_iterator_tag@std@@@std@@YAPAUD3DDeviceInfo@@PAU1@00Uforward_iterator_tag@0@U_Nonscalar_ptr_iterator_tag@0@U_Range_checked_iterator_tag@0@@Z 10006f40 f i D3D_Shell.obj
 0001:00005f80       ?push_back@?$vector@UD3DModeInfo@@V?$allocator@UD3DModeInfo@@@std@@@std@@QAEXABUD3DModeInfo@@@Z 10006f80 f i D3D_Shell.obj
 0001:00006010       ?push_back@?$vector@W4_D3DFORMAT@@V?$allocator@W4_D3DFORMAT@@@std@@@std@@QAEXABW4_D3DFORMAT@@@Z 10007010 f i D3D_Shell.obj
 0001:000060a0       ??$fill@V?$_Vb_iterator@V?$vector@_NV?$allocator@_N@std@@@std@@@std@@_N@std@@YAXV?$_Vb_iterator@V?$vector@_NV?$allocator@_N@std@@@std@@@0@0AB_N@Z 100070a0 f i D3D_Shell.obj
 0001:00006110       ??$_Fill@PAUD3DDeviceInfo@@U1@@std@@YAXPAUD3DDeviceInfo@@0ABU1@@Z 10007110 f i D3D_Shell.obj
 0001:00006140       ??$_Copy_backward_opt@V?$_Vb_iterator@V?$vector@_NV?$allocator@_N@std@@@std@@@std@@V12@@std@@YA?AV?$_Vb_iterator@V?$vector@_NV?$allocator@_N@std@@@std@@@0@V10@00Urandom_access_iterator_tag@0@U_Nonscalar_ptr_iterator_tag@0@U_Range_checked_iterator_tag@0@@Z 10007140 f i D3D_Shell.obj
 0001:00006220       ??$_Copy_backward_opt@PAUD3DDeviceInfo@@PAU1@@std@@YAPAUD3DDeviceInfo@@PAU1@00Urandom_access_iterator_tag@0@U_Nonscalar_ptr_iterator_tag@0@U_Range_checked_iterator_tag@0@@Z 10007220 f i D3D_Shell.obj
 0001:00006280       ??$_Destroy@UD3DDeviceInfo@@@std@@YAXPAUD3DDeviceInfo@@@Z 10007280 f i D3D_Shell.obj
 0001:000062c0       ??$_Copy_opt@PAUD3DDeviceInfo@@PAU1@@std@@YAPAUD3DDeviceInfo@@PAU1@00Urandom_access_iterator_tag@0@U_Nonscalar_ptr_iterator_tag@0@U_Range_checked_iterator_tag@0@@Z 100072c0 f i D3D_Shell.obj
 0001:00006320       ??$fill@PAUD3DDeviceInfo@@U1@@std@@YAXPAUD3DDeviceInfo@@0ABU1@@Z 10007320 f i D3D_Shell.obj
 0001:00006350       ??$copy_backward@V?$_Vb_iterator@V?$vector@_NV?$allocator@_N@std@@@std@@@std@@V12@@std@@YA?AV?$_Vb_iterator@V?$vector@_NV?$allocator@_N@std@@@std@@@0@V10@00@Z 10007350 f i D3D_Shell.obj
 0001:00006400       ??$_Move_backward_opt@PAUD3DDeviceInfo@@PAU1@Urandom_access_iterator_tag@std@@U_Undefined_move_tag@3@@std@@YAPAUD3DDeviceInfo@@PAU1@00Urandom_access_iterator_tag@0@U_Undefined_move_tag@0@U_Range_checked_iterator_tag@0@@Z 10007400 f i D3D_Shell.obj
 0001:00006420       ?destroy@?$allocator@UD3DDeviceInfo@@@std@@QAEXPAUD3DDeviceInfo@@@Z 10007420 f i D3D_Shell.obj
 0001:00006460       ??$_Uninit_copy@PBUD3DDeviceInfo@@PAU1@V?$allocator@UD3DDeviceInfo@@@std@@@std@@YAPAUD3DDeviceInfo@@PBU1@0PAU1@AAV?$allocator@UD3DDeviceInfo@@@0@U_Nonscalar_ptr_iterator_tag@0@U_Range_checked_iterator_tag@0@@Z 10007460 f i D3D_Shell.obj
 0001:00006510       ??$unchecked_copy@PAUD3DDeviceInfo@@PAU1@@stdext@@YAPAUD3DDeviceInfo@@PAU1@00@Z 10007510 f i D3D_Shell.obj
 0001:00006540       ??$_Uninit_copy@PAUD3DDeviceInfo@@PAU1@V?$allocator@UD3DDeviceInfo@@@std@@@std@@YAPAUD3DDeviceInfo@@PAU1@00AAV?$allocator@UD3DDeviceInfo@@@0@U_Nonscalar_ptr_iterator_tag@0@U_Range_checked_iterator_tag@0@@Z 10007540 f i D3D_Shell.obj
 0001:000065f0       ?_Insert_x@?$vector@_NV?$allocator@_N@std@@@std@@IAEIV?$_Vb_iterator@V?$vector@_NV?$allocator@_N@std@@@std@@@2@I@Z 100075f0 f i D3D_Shell.obj
 0001:000066c0       ??$_Unchecked_move_backward@PAUD3DDeviceInfo@@PAU1@@stdext@@YAPAUD3DDeviceInfo@@PAU1@00@Z 100076c0 f i D3D_Shell.obj
 0001:000066f0       ??$_Uninit_fill_n@PAUD3DDeviceInfo@@IU1@V?$allocator@UD3DDeviceInfo@@@std@@@std@@YAXPAUD3DDeviceInfo@@IABU1@AAV?$allocator@UD3DDeviceInfo@@@0@U_Nonscalar_ptr_iterator_tag@0@U_Range_checked_iterator_tag@0@@Z 100076f0 f i D3D_Shell.obj
 0001:000067a0       ??$_Destroy_range@UD3DDeviceInfo@@V?$allocator@UD3DDeviceInfo@@@std@@@std@@YAXPAUD3DDeviceInfo@@0AAV?$allocator@UD3DDeviceInfo@@@0@U_Nonscalar_ptr_iterator_tag@0@@Z 100077a0 f i D3D_Shell.obj
 0001:000067f0       ??$unchecked_uninitialized_copy@V?$_Vector_const_iterator@UD3DDeviceInfo@@V?$allocator@UD3DDeviceInfo@@@std@@@std@@PAUD3DDeviceInfo@@V?$allocator@UD3DDeviceInfo@@@2@@stdext@@YAPAUD3DDeviceInfo@@V?$_Vector_const_iterator@UD3DDeviceInfo@@V?$allocator@UD3DDeviceInfo@@@std@@@std@@0PAU1@AAV?$allocator@UD3DDeviceInfo@@@3@@Z 100077f0 f i D3D_Shell.obj
 0001:00006820       ??$unchecked_uninitialized_copy@PAUD3DDeviceInfo@@PAU1@V?$allocator@UD3DDeviceInfo@@@std@@@stdext@@YAPAUD3DDeviceInfo@@PAU1@00AAV?$allocator@UD3DDeviceInfo@@@std@@@Z 10007820 f i D3D_Shell.obj
 0001:00006850       ?_Insert_n@?$vector@_NV?$allocator@_N@std@@@std@@IAEXV?$_Vb_iterator@V?$vector@_NV?$allocator@_N@std@@@std@@@2@I_N@Z 10007850 f i D3D_Shell.obj
 0001:00006920       ??$unchecked_uninitialized_fill_n@PAUD3DDeviceInfo@@IU1@V?$allocator@UD3DDeviceInfo@@@std@@@stdext@@YAXPAUD3DDeviceInfo@@IABU1@AAV?$allocator@UD3DDeviceInfo@@@std@@@Z 10007920 f i D3D_Shell.obj
 0001:00006950       ??$_Destroy_range@UD3DDeviceInfo@@V?$allocator@UD3DDeviceInfo@@@std@@@std@@YAXPAUD3DDeviceInfo@@0AAV?$allocator@UD3DDeviceInfo@@@0@@Z 10007950 f i D3D_Shell.obj
 0001:00006970       ??$_Ucopy@V?$_Vector_const_iterator@UD3DDeviceInfo@@V?$allocator@UD3DDeviceInfo@@@std@@@std@@@?$vector@UD3DDeviceInfo@@V?$allocator@UD3DDeviceInfo@@@std@@@std@@IAEPAUD3DDeviceInfo@@V?$_Vector_const_iterator@UD3DDeviceInfo@@V?$allocator@UD3DDeviceInfo@@@std@@@1@0PAU2@@Z 10007970 f i D3D_Shell.obj
 0001:000069a0       ??$_Uninit_move@PAUD3DDeviceInfo@@PAU1@V?$allocator@UD3DDeviceInfo@@@std@@U_Undefined_move_tag@3@@std@@YAPAUD3DDeviceInfo@@PAU1@00AAV?$allocator@UD3DDeviceInfo@@@0@U_Undefined_move_tag@0@U_Range_checked_iterator_tag@0@@Z 100079a0 f i D3D_Shell.obj
 0001:000069c0       ??$_Ucopy@PAUD3DDeviceInfo@@@?$vector@UD3DDeviceInfo@@V?$allocator@UD3DDeviceInfo@@@std@@@std@@IAEPAUD3DDeviceInfo@@PAU2@00@Z 100079c0 f i D3D_Shell.obj
 0001:000069f0       ?_Ufill@?$vector@UD3DDeviceInfo@@V?$allocator@UD3DDeviceInfo@@@std@@@std@@IAEPAUD3DDeviceInfo@@PAU3@IABU3@@Z 100079f0 f i D3D_Shell.obj
 0001:00006a30       ?insert@?$vector@_NV?$allocator@_N@std@@@std@@QAE?AV?$_Vb_iterator@V?$vector@_NV?$allocator@_N@std@@@std@@@2@V32@_N@Z 10007a30 f i D3D_Shell.obj
 0001:00006ae0       ?_Destroy@?$vector@UD3DDeviceInfo@@V?$allocator@UD3DDeviceInfo@@@std@@@std@@IAEXPAUD3DDeviceInfo@@0@Z 10007ae0 f i D3D_Shell.obj
 0001:00006b00       ??$_Unchecked_uninitialized_move@PAUD3DDeviceInfo@@PAU1@V?$allocator@UD3DDeviceInfo@@@std@@@stdext@@YAPAUD3DDeviceInfo@@PAU1@00AAV?$allocator@UD3DDeviceInfo@@@std@@@Z 10007b00 f i D3D_Shell.obj
 0001:00006b30       ?erase@?$vector@UD3DDeviceInfo@@V?$allocator@UD3DDeviceInfo@@@std@@@std@@QAE?AV?$_Vector_iterator@UD3DDeviceInfo@@V?$allocator@UD3DDeviceInfo@@@std@@@2@V32@0@Z 10007b30 f i D3D_Shell.obj
 0001:00006ba0       ?push_back@?$vector@_NV?$allocator@_N@std@@@std@@QAEX_N@Z 10007ba0 f i D3D_Shell.obj
 0001:00006c00       ?_Tidy@?$vector@UD3DDeviceInfo@@V?$allocator@UD3DDeviceInfo@@@std@@@std@@IAEXXZ 10007c00 f i D3D_Shell.obj
 0001:00006c40       ??0?$vector@UD3DDeviceInfo@@V?$allocator@UD3DDeviceInfo@@@std@@@std@@QAE@ABV01@@Z 10007c40 f i D3D_Shell.obj
 0001:00006d40       ??$_Umove@PAUD3DDeviceInfo@@@?$vector@UD3DDeviceInfo@@V?$allocator@UD3DDeviceInfo@@@std@@@std@@IAEPAUD3DDeviceInfo@@PAU2@00@Z 10007d40 f i D3D_Shell.obj
 0001:00006d70       ?clear@?$vector@UD3DDeviceInfo@@V?$allocator@UD3DDeviceInfo@@@std@@@std@@QAEXXZ 10007d70 f i D3D_Shell.obj
 0001:00006db0       ??1?$vector@UD3DDeviceInfo@@V?$allocator@UD3DDeviceInfo@@@std@@@std@@QAE@XZ 10007db0 f i D3D_Shell.obj
 0001:00006df0       ?_Insert_n@?$vector@UD3DDeviceInfo@@V?$allocator@UD3DDeviceInfo@@@std@@@std@@IAEXV?$_Vector_iterator@UD3DDeviceInfo@@V?$allocator@UD3DDeviceInfo@@@std@@@2@IABUD3DDeviceInfo@@@Z 10007df0 f i D3D_Shell.obj
 0001:00007100       ??0D3DAdapterInfo@@QAE@ABU0@@Z 10008100 f i D3D_Shell.obj
 0001:00007150       ??4?$vector@UD3DDeviceInfo@@V?$allocator@UD3DDeviceInfo@@@std@@@std@@QAEAAV01@ABV01@@Z 10008150 f i D3D_Shell.obj
 0001:000072e0       ??$_Construct@UD3DAdapterInfo@@U1@@std@@YAXPAUD3DAdapterInfo@@ABU1@@Z 100082e0 f i D3D_Shell.obj
 0001:00007340       ??0D3DAdapterInfo@@QAE@XZ  10008340 f i D3D_Shell.obj
 0001:00007360       ??1D3DAdapterInfo@@QAE@XZ  10008360 f i D3D_Shell.obj
 0001:000073b0       ?insert@?$vector@UD3DDeviceInfo@@V?$allocator@UD3DDeviceInfo@@@std@@@std@@QAE?AV?$_Vector_iterator@UD3DDeviceInfo@@V?$allocator@UD3DDeviceInfo@@@std@@@2@V32@ABUD3DDeviceInfo@@@Z 100083b0 f i D3D_Shell.obj
 0001:00007460       ??4D3DAdapterInfo@@QAEAAU0@ABU0@@Z 10008460 f i D3D_Shell.obj
 0001:000074b0       ?construct@?$allocator@UD3DAdapterInfo@@@std@@QAEXPAUD3DAdapterInfo@@ABU3@@Z 100084b0 f i D3D_Shell.obj
 0001:000074d0       ??$_Copy_opt@PAUD3DAdapterInfo@@PAU1@Uforward_iterator_tag@std@@@std@@YAPAUD3DAdapterInfo@@PAU1@00Uforward_iterator_tag@0@U_Nonscalar_ptr_iterator_tag@0@U_Range_checked_iterator_tag@0@@Z 100084d0 f i D3D_Shell.obj
 0001:00007540       ??_GD3DAdapterInfo@@QAEPAXI@Z 10008540 f i D3D_Shell.obj
 0001:000075a0       ??$_Copy_backward_opt@PAUD3DAdapterInfo@@PAU1@Uforward_iterator_tag@std@@@std@@YAPAUD3DAdapterInfo@@PAU1@00Uforward_iterator_tag@0@U_Nonscalar_ptr_iterator_tag@0@U_Range_checked_iterator_tag@0@@Z 100085a0 f i D3D_Shell.obj
 0001:00007620       ?push_back@?$vector@UD3DDeviceInfo@@V?$allocator@UD3DDeviceInfo@@@std@@@std@@QAEXABUD3DDeviceInfo@@@Z 10008620 f i D3D_Shell.obj
 0001:000076d0       ??$_Copy_opt@PAUD3DAdapterInfo@@PAU1@@std@@YAPAUD3DAdapterInfo@@PAU1@00Urandom_access_iterator_tag@0@U_Nonscalar_ptr_iterator_tag@0@U_Range_checked_iterator_tag@0@@Z 100086d0 f i D3D_Shell.obj
 0001:00007730       ??$_Fill@PAUD3DAdapterInfo@@U1@@std@@YAXPAUD3DAdapterInfo@@0ABU1@@Z 10008730 f i D3D_Shell.obj
 0001:00007790       ??$_Copy_backward_opt@PAUD3DAdapterInfo@@PAU1@@std@@YAPAUD3DAdapterInfo@@PAU1@00Urandom_access_iterator_tag@0@U_Nonscalar_ptr_iterator_tag@0@U_Range_checked_iterator_tag@0@@Z 10008790 f i D3D_Shell.obj
 0001:000077f0       ??$_Destroy@UD3DAdapterInfo@@@std@@YAXPAUD3DAdapterInfo@@@Z 100087f0 f i D3D_Shell.obj
 0001:00007840       ??$unchecked_copy@PAUD3DAdapterInfo@@PAU1@@stdext@@YAPAUD3DAdapterInfo@@PAU1@00@Z 10008840 f i D3D_Shell.obj
 0001:00007870       ??$fill@PAUD3DAdapterInfo@@U1@@std@@YAXPAUD3DAdapterInfo@@0ABU1@@Z 10008870 f i D3D_Shell.obj
 0001:00007880       ??$_Move_backward_opt@PAUD3DAdapterInfo@@PAU1@Urandom_access_iterator_tag@std@@U_Undefined_move_tag@3@@std@@YAPAUD3DAdapterInfo@@PAU1@00Urandom_access_iterator_tag@0@U_Undefined_move_tag@0@U_Range_checked_iterator_tag@0@@Z 10008880 f i D3D_Shell.obj
 0001:000078a0       ?destroy@?$allocator@UD3DAdapterInfo@@@std@@QAEXPAUD3DAdapterInfo@@@Z 100088a0 f i D3D_Shell.obj
 0001:000078f0       ??$_Uninit_copy@PAUD3DAdapterInfo@@PAU1@V?$allocator@UD3DAdapterInfo@@@std@@@std@@YAPAUD3DAdapterInfo@@PAU1@00AAV?$allocator@UD3DAdapterInfo@@@0@U_Nonscalar_ptr_iterator_tag@0@U_Range_checked_iterator_tag@0@@Z 100088f0 f i D3D_Shell.obj
 0001:000079e0       ??$_Unchecked_move_backward@PAUD3DAdapterInfo@@PAU1@@stdext@@YAPAUD3DAdapterInfo@@PAU1@00@Z 100089e0 f i D3D_Shell.obj
 0001:00007a10       ??$_Uninit_fill_n@PAUD3DAdapterInfo@@IU1@V?$allocator@UD3DAdapterInfo@@@std@@@std@@YAXPAUD3DAdapterInfo@@IABU1@AAV?$allocator@UD3DAdapterInfo@@@0@U_Nonscalar_ptr_iterator_tag@0@U_Range_checked_iterator_tag@0@@Z 10008a10 f i D3D_Shell.obj
 0001:00007b00       ??$_Destroy_range@UD3DAdapterInfo@@V?$allocator@UD3DAdapterInfo@@@std@@@std@@YAXPAUD3DAdapterInfo@@0AAV?$allocator@UD3DAdapterInfo@@@0@U_Nonscalar_ptr_iterator_tag@0@@Z 10008b00 f i D3D_Shell.obj
 0001:00007b60       ??$unchecked_uninitialized_copy@PAUD3DAdapterInfo@@PAU1@V?$allocator@UD3DAdapterInfo@@@std@@@stdext@@YAPAUD3DAdapterInfo@@PAU1@00AAV?$allocator@UD3DAdapterInfo@@@std@@@Z 10008b60 f i D3D_Shell.obj
 0001:00007b90       ??$unchecked_uninitialized_fill_n@PAUD3DAdapterInfo@@IU1@V?$allocator@UD3DAdapterInfo@@@std@@@stdext@@YAXPAUD3DAdapterInfo@@IABU1@AAV?$allocator@UD3DAdapterInfo@@@std@@@Z 10008b90 f i D3D_Shell.obj
 0001:00007bc0       ??$_Destroy_range@UD3DAdapterInfo@@V?$allocator@UD3DAdapterInfo@@@std@@@std@@YAXPAUD3DAdapterInfo@@0AAV?$allocator@UD3DAdapterInfo@@@0@@Z 10008bc0 f i D3D_Shell.obj
 0001:00007be0       ??$_Uninit_move@PAUD3DAdapterInfo@@PAU1@V?$allocator@UD3DAdapterInfo@@@std@@U_Undefined_move_tag@3@@std@@YAPAUD3DAdapterInfo@@PAU1@00AAV?$allocator@UD3DAdapterInfo@@@0@U_Undefined_move_tag@0@U_Range_checked_iterator_tag@0@@Z 10008be0 f i D3D_Shell.obj
 0001:00007c00       ?_Ufill@?$vector@UD3DAdapterInfo@@V?$allocator@UD3DAdapterInfo@@@std@@@std@@IAEPAUD3DAdapterInfo@@PAU3@IABU3@@Z 10008c00 f i D3D_Shell.obj
 0001:00007c40       ?_Destroy@?$vector@UD3DAdapterInfo@@V?$allocator@UD3DAdapterInfo@@@std@@@std@@IAEXPAUD3DAdapterInfo@@0@Z 10008c40 f i D3D_Shell.obj
 0001:00007c60       ??$_Unchecked_uninitialized_move@PAUD3DAdapterInfo@@PAU1@V?$allocator@UD3DAdapterInfo@@@std@@@stdext@@YAPAUD3DAdapterInfo@@PAU1@00AAV?$allocator@UD3DAdapterInfo@@@std@@@Z 10008c60 f i D3D_Shell.obj
 0001:00007c90       ?erase@?$vector@UD3DAdapterInfo@@V?$allocator@UD3DAdapterInfo@@@std@@@std@@QAE?AV?$_Vector_iterator@UD3DAdapterInfo@@V?$allocator@UD3DAdapterInfo@@@std@@@2@V32@0@Z 10008c90 f i D3D_Shell.obj
 0001:00007d00       ?_Tidy@?$vector@UD3DAdapterInfo@@V?$allocator@UD3DAdapterInfo@@@std@@@std@@IAEXXZ 10008d00 f i D3D_Shell.obj
 0001:00007d40       ??$_Umove@PAUD3DAdapterInfo@@@?$vector@UD3DAdapterInfo@@V?$allocator@UD3DAdapterInfo@@@std@@@std@@IAEPAUD3DAdapterInfo@@PAU2@00@Z 10008d40 f i D3D_Shell.obj
 0001:00007d70       ??1?$vector@UD3DAdapterInfo@@V?$allocator@UD3DAdapterInfo@@@std@@@std@@QAE@XZ 10008d70 f i D3D_Shell.obj
 0001:00007db0       ?clear@?$vector@UD3DAdapterInfo@@V?$allocator@UD3DAdapterInfo@@@std@@@std@@QAEXXZ 10008db0 f i D3D_Shell.obj
 0001:00007df0       ?_Insert_n@?$vector@UD3DAdapterInfo@@V?$allocator@UD3DAdapterInfo@@@std@@@std@@IAEXV?$_Vector_iterator@UD3DAdapterInfo@@V?$allocator@UD3DAdapterInfo@@@std@@@2@IABUD3DAdapterInfo@@@Z 10008df0 f i D3D_Shell.obj
 0001:00008170       ?Reset@CD3D_Shell@@QAEXXZ  10009170 f   D3D_Shell.obj
 0001:000081c0       ?FreeAll@CD3D_Shell@@QAEXXZ 100091c0 f   D3D_Shell.obj
 0001:000081e0       ?insert@?$vector@UD3DAdapterInfo@@V?$allocator@UD3DAdapterInfo@@@std@@@std@@QAE?AV?$_Vector_iterator@UD3DAdapterInfo@@V?$allocator@UD3DAdapterInfo@@@std@@@2@V32@ABUD3DAdapterInfo@@@Z 100091e0 f i D3D_Shell.obj
 0001:00008290       ??0CD3D_Shell@@QAE@XZ      10009290 f i D3D_Shell.obj
 0001:000082e0       ??1CD3D_Shell@@QAE@XZ      100092e0 f i D3D_Shell.obj
 0001:00008360       ?push_back@?$vector@UD3DAdapterInfo@@V?$allocator@UD3DAdapterInfo@@@std@@@std@@QAEXABUD3DAdapterInfo@@@Z 10009360 f i D3D_Shell.obj
 0001:00008410       ?BuildDeviceList@CD3D_Shell@@QAE_NXZ 10009410 f   D3D_Shell.obj
 0001:00008f30       ?Create@CD3D_Shell@@QAE_NXZ 10009f30 f   D3D_Shell.obj
 0001:00008f80       ?d3d_GetColorMasks@@YAXW4_D3DFORMAT@@AAI1111@Z 10009f80 f   D3D_Utils.obj
 0001:00009160       ?FitTextureSize@@YAHH@Z    1000a160 f   D3D_Utils.obj
 0001:00009190       ?GetTexture@KFontRes@@QBEPAUIDirect3DTexture9@@XZ 1000a190 f i KCharSet.obj
 0001:000091a0       ??0KCharSet@@QAE@XZ        1000a1a0 f   KCharSet.obj
 0001:00009210       ?Init@KCharSet@@QAE_NPBDPAUIDirect3DDevice9@@@Z 1000a210 f   KCharSet.obj
 0001:00009280       ?GetInfo@KCharSet@@QAEXAAH0@Z 1000a280 f   KCharSet.obj
 0001:000092a0       ?Terminate@KCharSet@@QAEXXZ 1000a2a0 f   KCharSet.obj
 0001:000092c0       ?CommitText@KCharSet@@QAEXPAGHPAUKFontVertex@@@Z 1000a2c0 f   KCharSet.obj
 0001:000096c0       ?GetTexture@KCharSet@@QBEPAUIDirect3DTexture9@@XZ 1000a6c0 f   KCharSet.obj
 0001:000096d0       ??1KCharSet@@UAE@XZ        1000a6d0 f   KCharSet.obj
 0001:00009740       ??_EKCharSet@@UAEPAXI@Z    1000a740 f i KCharSet.obj
 0001:00009740       ??_GKCharSet@@UAEPAXI@Z    1000a740 f i KCharSet.obj
 0001:00009760       ??0iFont@@QAE@XZ           1000a760 f i KFont3.obj
 0001:00009770       ?Load@KFont3@@UAE_NPBD@Z   1000a770 f   KFont3.obj
 0001:000097f0       ?Terminate@KFont3@@UAEXXZ  1000a7f0 f   KFont3.obj
 0001:00009850       ?OutputText@KFont3@@UAEXPBDHHHIH@Z 1000a850 f   KFont3.obj
 0001:00009ce0       ?RenderTextDirect@KFont3@@CAXPAUKFontVertex@@I@Z 1000ace0 f   KFont3.obj
 0001:00009d00       ?RenderTextCmp@KFont3@@CAXPAUKFontVertex@@I@Z 1000ad00 f   KFont3.obj
 0001:00009dc0       ?RenderTextCmpReverse@KFont3@@CAXPAUKFontVertex@@I@Z 1000adc0 f   KFont3.obj
 0001:00009ea0       ?InvalidateDeviceObjects@KFont3@@QAEXXZ 1000aea0 f   KFont3.obj
 0001:00009f20       ?RestoreDeviceObjects@KFont3@@QAE_NXZ 1000af20 f   KFont3.obj
 0001:0000a1e0       ?GetFontSize@KFont3@@UAEXPAH0@Z 1000b1e0 f   KFont3.obj
 0001:0000a210       ?SetBorderColor@KFont3@@UAEXI@Z 1000b210 f   KFont3.obj
 0001:0000a220       ?SetOutputSize@KFont3@@UAEXHH@Z 1000b220 f   KFont3.obj
 0001:0000a280       ?Clone@KFont3@@UAEPAUiFont@@XZ 1000b280 f   KFont3.obj
 0001:0000a2a0       ?CheckAlphaCmpCaps@KFont3@@CAXXZ 1000b2a0 f   KFont3.obj
 0001:0000a430       ??0KFont3@@QAE@XZ          1000b430 f   KFont3.obj
 0001:0000a4a0       ??1KFont3@@AAE@XZ          1000b4a0 f   KFont3.obj
 0001:0000a500       ?Init@KFont3@@UAE_NPAX@Z   1000b500 f   KFont3.obj
 0001:0000a540       ??_GKFont3@@AAEPAXI@Z      1000b540 f i KFont3.obj
 0001:0000a560       ?Release@KFont3@@UAEXXZ    1000b560 f   KFont3.obj
 0001:0000a590       ??0KFontData@@QAE@XZ       1000b590 f   KFontData.obj
 0001:0000a5b0       ?GetInfo@KFontData@@QBEXAAH0@Z 1000b5b0 f   KFontData.obj
 0001:0000a5d0       ?Terminate@KFontData@@QAEXXZ 1000b5d0 f   KFontData.obj
 0001:0000a610       ?GetCharacterData@KFontData@@QBEPAEEE@Z 1000b610 f   KFontData.obj
 0001:0000a660       ??1KFontData@@QAE@XZ       1000b660 f   KFontData.obj
 0001:0000a670       ?Load@KFontData@@QAE_NPBD@Z 1000b670 f   KFontData.obj
 0001:0000a800       ?EnableTextBorder@KFontRes@@SAX_N@Z 1000b800 f   KFontRes.obj
 0001:0000a810       ??0KFontRes@@QAE@XZ        1000b810 f   KFontRes.obj
 0001:0000a840       ?GetInfo@KFontRes@@QBEXAAH000@Z 1000b840 f   KFontRes.obj
 0001:0000a870       ?GetInfo@KFontRes@@QBEXAAM000@Z 1000b870 f   KFontRes.obj
 0001:0000a900       ?Terminate@KFontRes@@QAEXXZ 1000b900 f   KFontRes.obj
 0001:0000a930       ?Update@KFontRes@@AAEXPAE0H@Z 1000b930 f   KFontRes.obj
 0001:0000a9e0       ??1KFontRes@@UAE@XZ        1000b9e0 f   KFontRes.obj
 0001:0000aa40       ?Init@KFontRes@@QAE_NPBDPAUIDirect3DDevice9@@@Z 1000ba40 f   KFontRes.obj
 0001:0000ab40       ?Update@KFontRes@@QAEXPAGH@Z 1000bb40 f   KFontRes.obj
 0001:0000ac00       ??_GKFontRes@@UAEPAXI@Z    1000bc00 f i KFontRes.obj
 0001:0000ac00       ??_EKFontRes@@UAEPAXI@Z    1000bc00 f i KFontRes.obj
 0001:0000ac20       ??0KMRU@@QAE@XZ            1000bc20 f   KMRU.obj
 0001:0000ac40       ?Terminate@KMRU@@QAEXXZ    1000bc40 f   KMRU.obj
 0001:0000ac70       ?GetItemData@KMRU@@AAEGH@Z 1000bc70 f   KMRU.obj
 0001:0000ac90       ?Update@KMRU@@AAEXXZ       1000bc90 f   KMRU.obj
 0001:0000acc0       ?AdjustCharPos@KMRU@@AAEXII@Z 1000bcc0 f   KMRU.obj
 0001:0000ad50       ?GetCharPos@KMRU@@AAE_NGHHAAI@Z 1000bd50 f   KMRU.obj
 0001:0000adf0       ?GetMostLongestUnusedItem@KMRU@@AAEIXZ 1000bdf0 f   KMRU.obj
 0001:0000ae30       ??1KMRU@@UAE@XZ            1000be30 f   KMRU.obj
 0001:0000ae40       ?Init@KMRU@@QAE_NH@Z       1000be40 f   KMRU.obj
 0001:0000aea0       ?Commit@KMRU@@QAEXPAGH00AAH@Z 1000bea0 f   KMRU.obj
 0001:0000afd0       ??_EKMRU@@UAEPAXI@Z        1000bfd0 f i KMRU.obj
 0001:0000afd0       ??_GKMRU@@UAEPAXI@Z        1000bfd0 f i KMRU.obj
 0001:0000aff0       _fabsf                     1000bff0 f i KRepresentShell3.obj
 0001:0000b000       _sqrtf                     1000c000 f i KRepresentShell3.obj
 0001:0000b020       ?fabs@@YAMM@Z              1000c020 f i KRepresentShell3.obj
 0001:0000b030       ?sqrt@@YAMM@Z              1000c030 f i KRepresentShell3.obj
 0001:0000b050       ??0D3DXVECTOR3@@QAE@XZ     1000c050 f i KRepresentShell3.obj
 0001:0000b060       ??0D3DXMATRIX@@QAE@XZ      1000c060 f i KRepresentShell3.obj
 0001:0000b070       ??0D3DXVECTOR3@@QAE@MMM@Z  1000c070 f i KRepresentShell3.obj
 0001:0000b090       ??YD3DXVECTOR3@@QAEAAU0@ABU0@@Z 1000c090 f i KRepresentShell3.obj
 0001:0000b0c0       ??HD3DXVECTOR3@@QBE?AU0@ABU0@@Z 1000c0c0 f i KRepresentShell3.obj
 0001:0000b0f0       ??GD3DXVECTOR3@@QBE?AU0@ABU0@@Z 1000c0f0 f i KRepresentShell3.obj
 0001:0000b120       ??DD3DXVECTOR3@@QBE?AU0@M@Z 1000c120 f i KRepresentShell3.obj
 0001:0000b150       ??KD3DXVECTOR3@@QBE?AU0@M@Z 1000c150 f i KRepresentShell3.obj
 0001:0000b180       ??0D3DXVECTOR4@@QAE@MMMM@Z 1000c180 f i KRepresentShell3.obj
 0001:0000b1a0       ??DD3DXMATRIX@@QBE?AU0@ABU0@@Z 1000c1a0 f i KRepresentShell3.obj
 0001:0000b1c0       ?D3DXMatrixIdentity@@YAPAUD3DXMATRIX@@PAU1@@Z 1000c1c0 f i KRepresentShell3.obj
 0001:0000b200       ??0KOutputTextParam@@QAE@XZ 1000c200 f i KRepresentShell3.obj
 0001:0000b220       ?GetAdapterInfo@CD3D_Device@@QAEPAUD3DAdapterInfo@@XZ 1000c220 f i KRepresentShell3.obj
 0001:0000b230       ?GetDeviceInfo@CD3D_Device@@QAEPAUD3DDeviceInfo@@XZ 1000c230 f i KRepresentShell3.obj
 0001:0000b240       ?GetViewport@CD3D_Device@@QAE?AU_D3DVIEWPORT9@@XZ 1000c240 f i KRepresentShell3.obj
 0001:0000b280       ?GetWidth@TextureRes@@QAEHXZ 1000c280 f i KRepresentShell3.obj
 0001:0000b290       ?GetHeight@TextureRes@@QAEHXZ 1000c290 f i KRepresentShell3.obj
 0001:0000b2a0       ?GetCenterX@TextureResSpr@@QAEIXZ 1000c2a0 f i KRepresentShell3.obj
 0001:0000b2b0       ?GetCenterY@TextureResSpr@@QAEIXZ 1000c2b0 f i KRepresentShell3.obj
 0001:0000b2c0       ?Test3D@@YA_NXZ            1000c2c0 f   KRepresentShell3.obj
 0001:0000b420       ?GetPoint3dLighting@KRepresentShell3@@AAEIAAUD3DXVECTOR3@@@Z 1000c420 f i KRepresentShell3.obj
 0001:0000b4d0       ?SetPoint3dLighting@KRepresentShell3@@AAIXAAUVERTEX3D@@0K@Z 1000c4d0 f   KRepresentShell3.obj
 0001:0000b560       ?RenderToA4R4G4B4@@YAXPAGIPAEAAUtagRECT@@II0@Z 1000c560 f   KRepresentShell3.obj
 0001:0000b620       ?WndProc@@YGJPAUHWND__@@IIJ@Z 1000c620 f   KRepresentShell3.obj
 0001:0000b630       ?WorldToScreen@@YAPAUD3DXVECTOR3@@PAU1@PBU1@PBU_D3DVIEWPORT9@@PBUD3DXMATRIX@@33@Z 1000c630 f   KRepresentShell3.obj
 0001:0000b6b0       ?ChaZhi@@YAMMMMMM@Z        1000c6b0 f i KRepresentShell3.obj
 0001:0000b6e0       ?ChaZhi@@YA?AUD3DXVECTOR3@@U1@0MMM@Z 1000c6e0 f i KRepresentShell3.obj
 0001:0000b7b0       _RepresentIsModuleRecommended 1000c7b0 f   KRepresentShell3.obj
 0001:0000b7c0       ?AdviseRepresent@KRepresentShell3@@UAEJPAUIInlinePicEngineSink@@@Z 1000c7c0 f   KRepresentShell3.obj
 0001:0000b7d0       ?UnAdviseRepresent@KRepresentShell3@@UAEJPAUIInlinePicEngineSink@@@Z 1000c7d0 f   KRepresentShell3.obj
 0001:0000b7f0       ??0iRepresentShell@@QAE@XZ 1000c7f0 f i KRepresentShell3.obj
 0001:0000b800       ??1KRepresentShell3@@AAE@XZ 1000c800 f   KRepresentShell3.obj
 0001:0000b890       ?SetAdjustColorList@KRepresentShell3@@UAEIPAII@Z 1000c890 f i KRepresentShell3.obj
 0001:0000b8a0       ?SetUpProjectionMatrix@KRepresentShell3@@AAEXXZ 1000c8a0 f   KRepresentShell3.obj
 0001:0000b930       ?InitDeviceObjects@KRepresentShell3@@AAE_NXZ 1000c930 f   KRepresentShell3.obj
 0001:0000b9a0       ??_GKRepresentShell3@@AAEPAXI@Z 1000c9a0 f i KRepresentShell3.obj
 0001:0000b9c0       ?DeleteDeviceObjects@KRepresentShell3@@AAEXXZ 1000c9c0 f   KRepresentShell3.obj
 0001:0000ba40       ?InvalidateDeviceObjects@KRepresentShell3@@AAE_NXZ 1000ca40 f   KRepresentShell3.obj
 0001:0000bab0       ?RestoreDeviceObjects@KRepresentShell3@@AAE_NXZ 1000cab0 f   KRepresentShell3.obj
 0001:0000be60       ?CreateAFont@KRepresentShell3@@UAE_NPBDW4CHARACTER_CODE_SET@@H@Z 1000ce60 f   KRepresentShell3.obj
 0001:0000c030       ?CreateImage@KRepresentShell3@@UAEIPBDHHH@Z 1000d030 f   KRepresentShell3.obj
 0001:0000c050       ??_H@YGXPAXIHP6EPAX0@Z@Z   1000d050 f i KRepresentShell3.obj
 0001:0000c090       ?GetBoundBox3D@KRepresentShell3@@AAEXHPAUKRepresentUnit@@AAURECTFLOAT@@@Z 1000d090 f   KRepresentShell3.obj
 0001:0000c420       ?ClearImageData@KRepresentShell3@@UAEXPBDIF@Z 1000d420 f   KRepresentShell3.obj
 0001:0000c4b0       ?FreeAllImage@KRepresentShell3@@UAEXXZ 1000d4b0 f   KRepresentShell3.obj
 0001:0000c4c0       ?FreeImage@KRepresentShell3@@UAEXPBD@Z 1000d4c0 f   KRepresentShell3.obj
 0001:0000c4e0       ?GetBitmapDataBuffer@KRepresentShell3@@UAEPAXPBDPAUKBitmapDataBuffInfo@@@Z 1000d4e0 f   KRepresentShell3.obj
 0001:0000c590       ?ReleaseBitmapDataBuffer@KRepresentShell3@@UAEXPBDPAX@Z 1000d590 f   KRepresentShell3.obj
 0001:0000c5e0       ?GetImageParam@KRepresentShell3@@UAE_NPBDPAUKImageParam@@H@Z 1000d5e0 f   KRepresentShell3.obj
 0001:0000c620       ?GetImageFrameParam@KRepresentShell3@@UAE_NPBDHPAUKRPosition2@@1H@Z 1000d620 f   KRepresentShell3.obj
 0001:0000c660       ?GetImagePixelAlpha@KRepresentShell3@@UAEHPBDHHHH@Z 1000d660 f   KRepresentShell3.obj
 0001:0000c690       ?LookAt@KRepresentShell3@@UAEXHHH@Z 1000d690 f   KRepresentShell3.obj
 0001:0000c7c0       ?ReleaseAFont@KRepresentShell3@@UAEXH@Z 1000d7c0 f   KRepresentShell3.obj
 0001:0000c820       ?SaveImage@KRepresentShell3@@UAE_NPBD0H@Z 1000d820 f   KRepresentShell3.obj
 0001:0000c850       ?SetImageStoreBalanceParam@KRepresentShell3@@UAEXHI@Z 1000d850 f   KRepresentShell3.obj
 0001:0000c860       ?CopyDeviceImageToImage@KRepresentShell3@@UAE_NPBDHHHHHH@Z 1000d860 f   KRepresentShell3.obj
 0001:0000c880       ?RepresentBegin@KRepresentShell3@@UAE_NHI@Z 1000d880 f   KRepresentShell3.obj
 0001:0000c920       ?RepresentEnd@KRepresentShell3@@UAEXXZ 1000d920 f   KRepresentShell3.obj
 0001:0000c9b0       ?ViewPortCoordToSpaceCoord@KRepresentShell3@@UAEXAAH0H@Z 1000d9b0 f   KRepresentShell3.obj
 0001:0000cb60       ?D3DTerm@KRepresentShell3@@AAEXXZ 1000db60 f   KRepresentShell3.obj
 0001:0000cba0       ?CoordinateTransform@KRepresentShell3@@AAEXAAH0H@Z 1000dba0 f   KRepresentShell3.obj
 0001:0000cbe0       ?DrawRect@KRepresentShell3@@AAEXHHHHK@Z 1000dbe0 f   KRepresentShell3.obj
 0001:0000ce10       ?DrawPoint@KRepresentShell3@@AAEXHPAUKRepresentUnit@@H@Z 1000de10 f   KRepresentShell3.obj
 0001:0000cfd0       ?DrawLine@KRepresentShell3@@AAEXHHHHK@Z 1000dfd0 f   KRepresentShell3.obj
 0001:0000d150       ?DrawRectFrame@KRepresentShell3@@AAEXHHHHK@Z 1000e150 f   KRepresentShell3.obj
 0001:0000d3b0       ?DrawBitmap16@KRepresentShell3@@AAEXHHHHPAVTextureResBmp@@_N@Z 1000e3b0 f   KRepresentShell3.obj
 0001:0000d690       ?DrawSpriteAlpha@KRepresentShell3@@AAEXHHHHHPAVTextureResSpr@@KH@Z 1000e690 f   KRepresentShell3.obj
 0001:0000dc00       ?DrawSpritePartAlpha@KRepresentShell3@@AAEXHHHHHPAVTextureResSpr@@AAUtagRECT@@@Z 1000ec00 f   KRepresentShell3.obj
 0001:0000e2b0       ?DrawBitmap16Part@KRepresentShell3@@AAEXHHHHPAVTextureResBmp@@AAUtagRECT@@@Z 1000f2b0 f   KRepresentShell3.obj
 0001:0000e5f0       ?DrawBitmap163D@KRepresentShell3@@AAEXAAURenderParam3D@@PAVTextureResBmp@@@Z 1000f5f0 f   KRepresentShell3.obj
 0001:0000e840       ??0VERTEX3D@@QAE@XZ        1000f840 f i KRepresentShell3.obj
 0001:0000e850       ?DrawSpriteAlpha3D@KRepresentShell3@@AAEXAAURenderParam3D@@HPAVTextureResSpr@@KHPAUtagRECT@@@Z 1000f850 f   KRepresentShell3.obj
 0001:0000f3f0       ?BuildMesh3D@KRepresentShell3@@AAEIPAUVERTEX3D@@0IK@Z 100103f0 f   KRepresentShell3.obj
 0001:0000fb50       ?GetPoint3dLightingLerp@KRepresentShell3@@AAEIAAUD3DXVECTOR3@@@Z 10010b50 f   KRepresentShell3.obj
 0001:00010030       ?RIO_CopyBitmap16ToBuffer@KRepresentShell3@@AAEXPAVTextureResBmp@@0HH@Z 10011030 f   KRepresentShell3.obj
 0001:00010040       ?RIO_CopySprToBufferAlpha@KRepresentShell3@@AAEXPAVTextureResSpr@@HPAVTextureResBmp@@HH@Z 10011040 f   KRepresentShell3.obj
 0001:00010470       ?SetLightInfo@KRepresentShell3@@UAEXHHPAI@Z 10011470 f   KRepresentShell3.obj
 0001:000104b0       ?SaveScreenToFile@KRepresentShell3@@UAE_NPBDW4ScreenFileType@@I@Z 100114b0 f   KRepresentShell3.obj
 0001:000106e0       ?SetGamma@KRepresentShell3@@UAEXH@Z 100116e0 f   KRepresentShell3.obj
 0001:000107d0       ??0KRepresentShell3@@QAE@XZ 100117d0 f   KRepresentShell3.obj
 0001:00010860       ?SetOption@KRepresentShell3@@UAEXW4RepresentOption@@_N@Z 10011860 f   KRepresentShell3.obj
 0001:000108a0       ?Create@KRepresentShell3@@UAE_NHH_N@Z 100118a0 f   KRepresentShell3.obj
 0001:00010a50       ?Release@KRepresentShell3@@UAEXXZ 10011a50 f   KRepresentShell3.obj
 0001:00010a80       ?Reset@KRepresentShell3@@UAE_NHH_N@Z 10011a80 f   KRepresentShell3.obj
 0001:00010b00       ?DrawImage2DStretch@KRepresentShell3@@AAEXHPAUKRepresentUnit@@@Z 10011b00 f   KRepresentShell3.obj
 0001:00010b80       ?GetBoundBox2D@KRepresentShell3@@AAEXHPAUKRepresentUnit@@HAAUtagRECT@@@Z 10011b80 f   KRepresentShell3.obj
 0001:00010d20       ?DrawSprOnTexture2D@KRepresentShell3@@AAEXHPAUKRepresentUnit@@HAAUtagRECT@@AAURECTFLOAT@@H_N@Z 10011d20 f   KRepresentShell3.obj
 0001:000113e0       ??0RenderParam3D@@QAE@XZ   100123e0 f i KRepresentShell3.obj
 0001:000113f0       ?DrawPlayer3D@KRepresentShell3@@AAEXHPAUKRepresentUnit@@H@Z 100123f0 f   KRepresentShell3.obj
 0001:00011530       ?DrawPrimitivesOnImage@KRepresentShell3@@UAEXHPAUKRepresentUnit@@IPBDIAAF@Z 10012530 f   KRepresentShell3.obj
 0001:00011760       ?OutputText@KRepresentShell3@@UAEXHPBDHHHIHHI@Z 10012760 f   KRepresentShell3.obj
 0001:000118c0       ?OutputRichText@KRepresentShell3@@UAEHHPAUKOutputTextParam@@PBDHH@Z 100128c0 f   KRepresentShell3.obj
 0001:00011a50       ?LocateRichText@KRepresentShell3@@UAEHHHHPAUKOutputTextParam@@PBDHH@Z 10012a50 f   KRepresentShell3.obj
 0001:00011bf0       ?DrawBitmap163DLighting@KRepresentShell3@@AAEXAAURenderParam3D@@PAVTextureResBmp@@@Z 10012bf0 f   KRepresentShell3.obj
 0001:00011e80       ?DrawSpriteAlpha3DLighting@KRepresentShell3@@AAEXAAURenderParam3D@@HPAVTextureResSpr@@KHPAUtagRECT@@@Z 10012e80 f   KRepresentShell3.obj
 0001:00012a00       _CreateRepresentShell      10013a00 f   KRepresentShell3.obj
 0001:00012a20       ?DrawPlayer2D@KRepresentShell3@@AAEXHPAUKRepresentUnit@@H@Z 10013a20 f   KRepresentShell3.obj
 0001:00012b10       ?DrawImage3D@KRepresentShell3@@AAEXIHPAUKRepresentUnit@@H@Z 10013b10 f   KRepresentShell3.obj
 0001:00013510       ?DrawImage2D@KRepresentShell3@@AAEXHPAUKRepresentUnit@@H@Z 10014510 f   KRepresentShell3.obj
 0001:00013700       ?DrawPrimitives@KRepresentShell3@@UAEXHPAUKRepresentUnit@@IH@Z 10014700 f   KRepresentShell3.obj
 0001:00013be0       ??3GdiplusBase@Gdiplus@@SAXPAX@Z 10014be0 f i RepresentUtility.obj
 0001:00013bf0       ??2GdiplusBase@Gdiplus@@SAPAXI@Z 10014bf0 f i RepresentUtility.obj
 0001:00013c00       ??0GdiplusStartupInput@Gdiplus@@QAE@P6GXW4DebugEventLevel@1@PAD@ZHH@Z 10014c00 f i RepresentUtility.obj
 0001:00013c20       ?SetStatus@Image@Gdiplus@@IBE?AW4Status@2@W432@@Z 10014c20 f i RepresentUtility.obj
 0001:00013c40       ??0Image@Gdiplus@@QAE@PAUIStream@@H@Z 10014c40 f i RepresentUtility.obj
 0001:00013c80       ??1Image@Gdiplus@@UAE@XZ   10014c80 f i RepresentUtility.obj
 0001:00013c90       ?Save@Image@Gdiplus@@QAE?AW4Status@2@PB_WPBU_GUID@@PBVEncoderParameters@2@@Z 10014c90 f i RepresentUtility.obj
 0001:00013cc0       ?SetNativeImage@Image@Gdiplus@@IAEXPAVGpImage@2@@Z 10014cc0 f i RepresentUtility.obj
 0001:00013cd0       ?GetImageEncodersSize@Gdiplus@@YA?AW4Status@1@PAI0@Z 10014cd0 f i RepresentUtility.obj
 0001:00013ce0       ?GetImageEncoders@Gdiplus@@YA?AW4Status@1@IIPAVImageCodecInfo@1@@Z 10014ce0 f i RepresentUtility.obj
 0001:00013d00       ?InitGdiplus@@YA_NXZ       10014d00 f   RepresentUtility.obj
 0001:00013d50       ?ShutdownGdiplus@@YAXXZ    10014d50 f   RepresentUtility.obj
 0001:00013d70       ?GetEncoderClsid@@YAHPB_WPAU_GUID@@@Z 10014d70 f   RepresentUtility.obj
 0001:00013e70       ?SaveBufferToJpgFile32@@YA_NPADPAXHHHI@Z 10014e70 f   RepresentUtility.obj
 0001:00014190       ?SaveBufferToJpgFile24@@YA_NPADPAXHHHI@Z 10015190 f   RepresentUtility.obj
 0001:000144b0       ??_EImage@Gdiplus@@UAEPAXI@Z 100154b0 f i RepresentUtility.obj
 0001:000144b0       ??_GImage@Gdiplus@@UAEPAXI@Z 100154b0 f i RepresentUtility.obj
 0001:000144e0       ??0Image@Gdiplus@@IAE@PAVGpImage@1@W4Status@1@@Z 100154e0 f i RepresentUtility.obj
 0001:00014500       ?Clone@Image@Gdiplus@@UAEPAV12@XZ 10015500 f i RepresentUtility.obj
 0001:00014550       ?Backup@KTextProcess@@QAEXXZ 10015550 f i TextProcess.obj
 0001:00014580       ?Restore@KTextProcess@@QAEXXZ 10015580 f i TextProcess.obj
 0001:000145b0       ??0KTextProcess@@QAE@XZ    100155b0 f   TextProcess.obj
 0001:000145d0       ?SetContent@KTextProcess@@QAEXPBDHH@Z 100155d0 f   TextProcess.obj
 0001:00014620       ?GetSimplexText@KTextProcess@@AAEHAAHAAUKTP_CTRL@1@1H@Z 10015620 f   TextProcess.obj
 0001:000148d0       ?GetCurLineHeight@KTextProcess@@QAEXAAH0HH@Z 100158d0 f   TextProcess.obj
 0001:00014ac0       ??0KTextProcess@@QAE@PBDHH@Z 10015ac0 f   TextProcess.obj
 0001:00014ae0       ?SeekToSpecialLine@KTextProcess@@QAEHHAAUKTP_CTRL@1@0AAHHH@Z 10015ae0 f   TextProcess.obj
 0001:00014ee0       ?DrawTextLine@KTextProcess@@QAEHPAUiFont@@HPAUKOutputTextParam@@@Z 10015ee0 f   TextProcess.obj
 0001:00015410       ?TransXYPosToCharOffset@KTextProcess@@QAEHHHPAUiFont@@HPAUKOutputTextParam@@@Z 10016410 f   TextProcess.obj
 0001:00015a00       ?RenderToA4R4G4B4@@YAXPAGPAEHH1@Z 10016a00 f i TextureRes.obj
 0001:00015a70       ??0TextureRes@@QAE@XZ      10016a70 f   TextureRes.obj
 0001:00015a80       ?InvalidateDeviceObjects@TextureRes@@UAE_NXZ 10016a80 f i TextureRes.obj
 0001:00015a90       ?RestoreDeviceObjects@TextureRes@@UAE_NXZ 10016a90 f i TextureRes.obj
 0001:00015aa0       ??1TextureRes@@UAE@XZ      10016aa0 f   TextureRes.obj
 0001:00015ab0       ?Release@TextureRes@@UAEXXZ 10016ab0 f   TextureRes.obj
 0001:00015ac0       ?ResetVar@TextureResBmp@@UAEXXZ 10016ac0 f   TextureRes.obj
 0001:00015ae0       ?InvalidateDeviceObjects@TextureResBmp@@UAE_NXZ 10016ae0 f   TextureRes.obj
 0001:00015b00       ?RestoreDeviceObjects@TextureResBmp@@UAE_NXZ 10016b00 f   TextureRes.obj
 0001:00015b70       ?CreateImage@TextureResBmp@@UAE_NPBDHHI@Z 10016b70 f   TextureRes.obj
 0001:00015c60       ?LoadJpegFile@TextureResBmp@@AAE_NPAD@Z 10016c60 f   TextureRes.obj
 0001:00015e10       ?LockData@TextureResBmp@@QAE_NPAPAXAAH@Z 10016e10 f   TextureRes.obj
 0001:00015e60       ?UnLockData@TextureResBmp@@QAEXXZ 10016e60 f   TextureRes.obj
 0001:00015ea0       ?Release@TextureResBmp@@UAEXXZ 10016ea0 f   TextureRes.obj
 0001:00015ee0       ?ResetVar@TextureResSpr@@UAEXXZ 10016ee0 f   TextureRes.obj
 0001:00015f20       ?CreateImage@TextureResSpr@@UAE_NPBDHHI@Z 10016f20 f   TextureRes.obj
 0001:00015f30       ?LoadSprFile@TextureResSpr@@AAE_NPAD@Z 10016f30 f   TextureRes.obj
 0001:000161b0       ?GetTexture@TextureResSpr@@QAEPAUIDirect3DTexture9@@HH@Z 100171b0 f   TextureRes.obj
 0001:000161f0       ?CreateTexture32Bit@TextureResSpr@@AAEXI@Z 100171f0 f   TextureRes.obj
 0001:00016200       ?GetPixelAlpha@TextureResSpr@@QAEHHHH@Z 10017200 f   TextureRes.obj
 0001:00016380       ?Release@TextureResSpr@@UAEXXZ 10017380 f   TextureRes.obj
 0001:000164e0       ?ReleaseAFrameData@TextureResSpr@@UAE_NXZ 100174e0 f   TextureRes.obj
 0001:00016560       ?SplitTexture@TextureResSpr@@AAEHI@Z 10017560 f   TextureRes.obj
 0001:00016900       ??_ETextureRes@@UAEPAXI@Z  10017900 f i TextureRes.obj
 0001:00016900       ??_GTextureRes@@UAEPAXI@Z  10017900 f i TextureRes.obj
 0001:00016920       ??0TextureResBmp@@QAE@XZ   10017920 f   TextureRes.obj
 0001:00016940       ?ReleaseAFrameData@TextureResBmp@@UAE_NXZ 10017940 f i TextureRes.obj
 0001:00016950       ??1TextureResBmp@@UAE@XZ   10017950 f   TextureRes.obj
 0001:000169b0       ?LoadImageA@TextureResBmp@@UAE_NPADI@Z 100179b0 f   TextureRes.obj
 0001:000169f0       ??0TextureResSpr@@QAE@XZ   100179f0 f   TextureRes.obj
 0001:00016a10       ??1TextureResSpr@@UAE@XZ   10017a10 f   TextureRes.obj
 0001:00016a70       ?LoadImageA@TextureResSpr@@UAE_NPADI@Z 10017a70 f   TextureRes.obj
 0001:00016ab0       ?CreateTexture16Bit@TextureResSpr@@AAEXPBDH@Z 10017ab0 f   TextureRes.obj
 0001:00016cc0       ??_GTextureResBmp@@UAEPAXI@Z 10017cc0 f i TextureRes.obj
 0001:00016cc0       ??_ETextureResBmp@@UAEPAXI@Z 10017cc0 f i TextureRes.obj
 0001:00016ce0       ??_GTextureResSpr@@UAEPAXI@Z 10017ce0 f i TextureRes.obj
 0001:00016ce0       ??_ETextureResSpr@@UAEPAXI@Z 10017ce0 f i TextureRes.obj
 0001:00016d00       ?PrepareFrameData@TextureResSpr@@QAE_NPBDH_N@Z 10017d00 f   TextureRes.obj
 0001:00016e10       ?GetFrameNum@TextureResSpr@@QAEIXZ 10017e10 f i TextureResMgr.obj
 0001:00016e20       ?GetDirections@TextureResSpr@@QAEIXZ 10017e20 f i TextureResMgr.obj
 0001:00016e30       ?GetInterval@TextureResSpr@@QAEIXZ 10017e30 f i TextureResMgr.obj
 0001:00016e40       ??0KCriticalSection@@QAE@XZ 10017e40 f i TextureResMgr.obj
 0001:00016e50       ??1KCriticalSection@@QAE@XZ 10017e50 f i TextureResMgr.obj
 0001:00016e60       ?Lock@KCriticalSection@@QAEHXZ 10017e60 f i TextureResMgr.obj
 0001:00016e70       ?UnLock@KCriticalSection@@QAEHXZ 10017e70 f i TextureResMgr.obj
 0001:00016e80       ??0KAutoCriticalSection@@QAE@AAVKCriticalSection@@@Z 10017e80 f i TextureResMgr.obj
 0001:00016ea0       ??1KAutoCriticalSection@@QAE@XZ 10017ea0 f i TextureResMgr.obj
 0001:00016eb0       ?SetBalanceParam@TextureResMgr@@QAEXHI@Z 10017eb0 f   TextureResMgr.obj
 0001:00016ec0       ?LoadImageA@TextureResMgr@@ABEPAVTextureRes@@PBDI@Z 10017ec0 f   TextureResMgr.obj
 0001:00016fb0       ?size@?$vector@UResNode@@V?$allocator@UResNode@@@std@@@std@@QBEIXZ 10017fb0 f i TextureResMgr.obj
 0001:00016fd0       ??A?$vector@UResNode@@V?$allocator@UResNode@@@std@@@std@@QAEAAUResNode@@I@Z 10017fd0 f i TextureResMgr.obj
 0001:00017010       ??0?$allocator@UResNode@@@std@@QAE@XZ 10018010 f i TextureResMgr.obj
 0001:00017020       ??D?$_Vector_const_iterator@UResNode@@V?$allocator@UResNode@@@std@@@std@@QBEABUResNode@@XZ 10018020 f i TextureResMgr.obj
 0001:00017050       ??E?$_Vector_const_iterator@UResNode@@V?$allocator@UResNode@@@std@@@std@@QAEAAV01@XZ 10018050 f i TextureResMgr.obj
 0001:00017080       ??8?$_Vector_const_iterator@UResNode@@V?$allocator@UResNode@@@std@@@std@@QBE_NABV01@@Z 10018080 f i TextureResMgr.obj
 0001:000170b0       ??0?$_Ranit@UResNode@@HPBU1@ABU1@@std@@QAE@XZ 100180b0 f i TextureResMgr.obj
 0001:000170c0       ?capacity@?$vector@UResNode@@V?$allocator@UResNode@@@std@@@std@@QBEIXZ 100180c0 f i TextureResMgr.obj
 0001:000170e0       ?_Xlen@?$vector@UResNode@@V?$allocator@UResNode@@@std@@@std@@KAXXZ 100180e0 f i TextureResMgr.obj
 0001:00017140       ??0?$allocator@UResNode@@@std@@QAE@ABV01@@Z 10018140 f i TextureResMgr.obj
 0001:00017150       ?deallocate@?$allocator@UResNode@@@std@@QAEXPAUResNode@@I@Z 10018150 f i TextureResMgr.obj
 0001:00017160       ??0?$_Vector_const_iterator@UResNode@@V?$allocator@UResNode@@@std@@@std@@QAE@PAUResNode@@PBU_Container_base@1@@Z 10018160 f i TextureResMgr.obj
 0001:000171a0       ??Y?$_Vector_const_iterator@UResNode@@V?$allocator@UResNode@@@std@@@std@@QAEAAV01@H@Z 100181a0 f i TextureResMgr.obj
 0001:000171e0       ??G?$_Vector_const_iterator@UResNode@@V?$allocator@UResNode@@@std@@@std@@QBEHABV01@@Z 100181e0 f i TextureResMgr.obj
 0001:00017220       ?max_size@?$allocator@UResNode@@@std@@QBEIXZ 10018220 f i TextureResMgr.obj
 0001:00017230       ??$_Allocate@UResNode@@@std@@YAPAUResNode@@IPAU1@@Z 10018230 f i TextureResMgr.obj
 0001:00017290       ??$_Iter_random@PAUResNode@@PAU1@@std@@YA?AUrandom_access_iterator_tag@0@ABQAUResNode@@0@Z 10018290 f i TextureResMgr.obj
 0001:000172a0       ??$_Ptr_cat@PAUResNode@@PAU1@@std@@YA?AU_Nonscalar_ptr_iterator_tag@0@AAPAUResNode@@0@Z 100182a0 f i TextureResMgr.obj
 0001:000172b0       ??$_Fill@PAUResNode@@U1@@std@@YAXPAUResNode@@0ABU1@@Z 100182b0 f i TextureResMgr.obj
 0001:000172f0       ??$_Move_cat@PAUResNode@@@std@@YA?AU_Undefined_move_tag@0@ABQAUResNode@@@Z 100182f0 f i TextureResMgr.obj
 0001:00017300       ??$_Checked_base@PAUResNode@@@std@@YAPAUResNode@@AAPAU1@U_Unchanged_checked_iterator_base_type_tag@0@@Z 10018300 f i TextureResMgr.obj
 0001:00017310       ??$_Copy_opt@PAUResNode@@PAU1@Uforward_iterator_tag@std@@@std@@YAPAUResNode@@PAU1@00Uforward_iterator_tag@0@U_Nonscalar_ptr_iterator_tag@0@U_Range_checked_iterator_tag@0@@Z 10018310 f i TextureResMgr.obj
 0001:00017350       ??$_Construct@UResNode@@U1@@std@@YAXPAUResNode@@ABU1@@Z 10018350 f i TextureResMgr.obj
 0001:00017380       ??$_Destroy@UResNode@@@std@@YAXPAUResNode@@@Z 10018380 f i TextureResMgr.obj
 0001:00017390       ??$_Copy_backward_opt@PAUResNode@@PAU1@Uforward_iterator_tag@std@@@std@@YAPAUResNode@@PAU1@00Uforward_iterator_tag@0@U_Nonscalar_ptr_iterator_tag@0@U_Range_checked_iterator_tag@0@@Z 10018390 f i TextureResMgr.obj
 0001:000173d0       ?FindImage@TextureResMgr@@AAEHIH@Z 100183d0 f   TextureResMgr.obj
 0001:000175a0       ?StartProfile@TextureResMgr@@QAEXXZ 100185a0 f   TextureResMgr.obj
 0001:00017670       ?EndProfile@TextureResMgr@@QAEXXZ 10018670 f   TextureResMgr.obj
 0001:000177b0       ?GetProfileStringA@TextureResMgr@@QAEXPADH@Z 100187b0 f   TextureResMgr.obj
 0001:00017870       ?InvalidateDeviceObjects@TextureResMgr@@QAE_NXZ 10018870 f   TextureResMgr.obj
 0001:00017990       ?RestoreDeviceObjects@TextureResMgr@@QAE_NXZ 10018990 f   TextureResMgr.obj
 0001:00017ab0       ??D?$_Vector_iterator@UResNode@@V?$allocator@UResNode@@@std@@@std@@QBEAAUResNode@@XZ 10018ab0 f i TextureResMgr.obj
 0001:00017ae0       ??C?$_Vector_iterator@UResNode@@V?$allocator@UResNode@@@std@@@std@@QBEPAUResNode@@XZ 10018ae0 f i TextureResMgr.obj
 0001:00017b10       ??E?$_Vector_iterator@UResNode@@V?$allocator@UResNode@@@std@@@std@@QAEAAV01@XZ 10018b10 f i TextureResMgr.obj
 0001:00017b40       ??E?$_Vector_iterator@UResNode@@V?$allocator@UResNode@@@std@@@std@@QAE?AV01@H@Z 10018b40 f i TextureResMgr.obj
 0001:00017b80       ??9?$_Vector_const_iterator@UResNode@@V?$allocator@UResNode@@@std@@@std@@QBE_NABV01@@Z 10018b80 f i TextureResMgr.obj
 0001:00017bb0       ??0?$_Vector_val@UResNode@@V?$allocator@UResNode@@@std@@@std@@IAE@V?$allocator@UResNode@@@1@@Z 10018bb0 f i TextureResMgr.obj
 0001:00017bc0       ??0?$_Vector_iterator@UResNode@@V?$allocator@UResNode@@@std@@@std@@QAE@PAUResNode@@PBU_Container_base@1@@Z 10018bc0 f i TextureResMgr.obj
 0001:00017c00       ??Y?$_Vector_iterator@UResNode@@V?$allocator@UResNode@@@std@@@std@@QAEAAV01@H@Z 10018c00 f i TextureResMgr.obj
 0001:00017c40       ??G?$_Vector_iterator@UResNode@@V?$allocator@UResNode@@@std@@@std@@QBEHABV?$_Vector_const_iterator@UResNode@@V?$allocator@UResNode@@@std@@@1@@Z 10018c40 f i TextureResMgr.obj
 0001:00017c80       ??0?$_Vector_const_iterator@UResNode@@V?$allocator@UResNode@@@std@@@std@@QAE@XZ 10018c80 f i TextureResMgr.obj
 0001:00017c90       ?max_size@?$vector@UResNode@@V?$allocator@UResNode@@@std@@@std@@QBEIXZ 10018c90 f i TextureResMgr.obj
 0001:00017ca0       ?allocate@?$allocator@UResNode@@@std@@QAEPAUResNode@@I@Z 10018ca0 f i TextureResMgr.obj
 0001:00017cc0       ??$_Checked_base@PAUResNode@@@std@@YAPAUResNode@@AAPAU1@@Z 10018cc0 f i TextureResMgr.obj
 0001:00017cd0       ??$_Copy_opt@PAUResNode@@PAU1@@std@@YAPAUResNode@@PAU1@00Urandom_access_iterator_tag@0@U_Nonscalar_ptr_iterator_tag@0@U_Range_checked_iterator_tag@0@@Z 10018cd0 f i TextureResMgr.obj
 0001:00017d30       ?construct@?$allocator@UResNode@@@std@@QAEXPAUResNode@@ABU3@@Z 10018d30 f i TextureResMgr.obj
 0001:00017d60       ?destroy@?$allocator@UResNode@@@std@@QAEXPAUResNode@@@Z 10018d60 f i TextureResMgr.obj
 0001:00017d70       ??$_Copy_backward_opt@PAUResNode@@PAU1@@std@@YAPAUResNode@@PAU1@00Urandom_access_iterator_tag@0@U_Nonscalar_ptr_iterator_tag@0@U_Range_checked_iterator_tag@0@@Z 10018d70 f i TextureResMgr.obj
 0001:00017dd0       ??$_Uninit_copy@PAUResNode@@PAU1@V?$allocator@UResNode@@@std@@@std@@YAPAUResNode@@PAU1@00AAV?$allocator@UResNode@@@0@U_Nonscalar_ptr_iterator_tag@0@U_Range_checked_iterator_tag@0@@Z 10018dd0 f i TextureResMgr.obj
 0001:00017e10       ?begin@?$vector@UResNode@@V?$allocator@UResNode@@@std@@@std@@QAE?AV?$_Vector_iterator@UResNode@@V?$allocator@UResNode@@@std@@@2@XZ 10018e10 f i TextureResMgr.obj
 0001:00017e40       ?end@?$vector@UResNode@@V?$allocator@UResNode@@@std@@@std@@QAE?AV?$_Vector_iterator@UResNode@@V?$allocator@UResNode@@@std@@@2@XZ 10018e40 f i TextureResMgr.obj
 0001:00017e70       ??0?$_Vector_iterator@UResNode@@V?$allocator@UResNode@@@std@@@std@@QAE@XZ 10018e70 f i TextureResMgr.obj
 0001:00017e80       ??H?$_Vector_iterator@UResNode@@V?$allocator@UResNode@@@std@@@std@@QBE?AV01@H@Z 10018e80 f i TextureResMgr.obj
 0001:00017ec0       ?_Buy@?$vector@UResNode@@V?$allocator@UResNode@@@std@@@std@@IAE_NI@Z 10018ec0 f i TextureResMgr.obj
 0001:00017f10       ??$unchecked_copy@PAUResNode@@PAU1@@stdext@@YAPAUResNode@@PAU1@00@Z 10018f10 f i TextureResMgr.obj
 0001:00017f70       ??$fill@PAUResNode@@U1@@std@@YAXPAUResNode@@0ABU1@@Z 10018f70 f i TextureResMgr.obj
 0001:00017f80       ??$_Destroy_range@UResNode@@V?$allocator@UResNode@@@std@@@std@@YAXPAUResNode@@0AAV?$allocator@UResNode@@@0@U_Nonscalar_ptr_iterator_tag@0@@Z 10018f80 f i TextureResMgr.obj
 0001:00017f90       ??$_Move_backward_opt@PAUResNode@@PAU1@Urandom_access_iterator_tag@std@@U_Undefined_move_tag@3@@std@@YAPAUResNode@@PAU1@00Urandom_access_iterator_tag@0@U_Undefined_move_tag@0@U_Range_checked_iterator_tag@0@@Z 10018f90 f i TextureResMgr.obj
 0001:00017fb0       ??$_Uninit_fill_n@PAUResNode@@IU1@V?$allocator@UResNode@@@std@@@std@@YAXPAUResNode@@IABU1@AAV?$allocator@UResNode@@@0@U_Nonscalar_ptr_iterator_tag@0@U_Range_checked_iterator_tag@0@@Z 10018fb0 f i TextureResMgr.obj
 0001:00017ff0       ??$unchecked_uninitialized_copy@PAUResNode@@PAU1@V?$allocator@UResNode@@@std@@@stdext@@YAPAUResNode@@PAU1@00AAV?$allocator@UResNode@@@std@@@Z 10018ff0 f i TextureResMgr.obj
 0001:00018020       ??0?$vector@UResNode@@V?$allocator@UResNode@@@std@@@std@@QAE@XZ 10019020 f i TextureResMgr.obj
 0001:00018030       ??$_Destroy_range@UResNode@@V?$allocator@UResNode@@@std@@@std@@YAXPAUResNode@@0AAV?$allocator@UResNode@@@0@@Z 10019030 f i TextureResMgr.obj
 0001:00018040       ??$_Unchecked_move_backward@PAUResNode@@PAU1@@stdext@@YAPAUResNode@@PAU1@00@Z 10019040 f i TextureResMgr.obj
 0001:00018070       ??$unchecked_uninitialized_fill_n@PAUResNode@@IU1@V?$allocator@UResNode@@@std@@@stdext@@YAXPAUResNode@@IABU1@AAV?$allocator@UResNode@@@std@@@Z 10019070 f i TextureResMgr.obj
 0001:000180a0       ??$_Uninit_move@PAUResNode@@PAU1@V?$allocator@UResNode@@@std@@U_Undefined_move_tag@3@@std@@YAPAUResNode@@PAU1@00AAV?$allocator@UResNode@@@0@U_Undefined_move_tag@0@U_Range_checked_iterator_tag@0@@Z 100190a0 f i TextureResMgr.obj
 0001:000180c0       ?_Destroy@?$vector@UResNode@@V?$allocator@UResNode@@@std@@@std@@IAEXPAUResNode@@0@Z 100190c0 f i TextureResMgr.obj
 0001:000180d0       ?_Tidy@?$vector@UResNode@@V?$allocator@UResNode@@@std@@@std@@IAEXXZ 100190d0 f i TextureResMgr.obj
 0001:00018100       ?_Ufill@?$vector@UResNode@@V?$allocator@UResNode@@@std@@@std@@IAEPAUResNode@@PAU3@IABU3@@Z 10019100 f i TextureResMgr.obj
 0001:00018140       ??$_Unchecked_uninitialized_move@PAUResNode@@PAU1@V?$allocator@UResNode@@@std@@@stdext@@YAPAUResNode@@PAU1@00AAV?$allocator@UResNode@@@std@@@Z 10019140 f i TextureResMgr.obj
 0001:00018170       ??1?$vector@UResNode@@V?$allocator@UResNode@@@std@@@std@@QAE@XZ 10019170 f i TextureResMgr.obj
 0001:000181a0       ?erase@?$vector@UResNode@@V?$allocator@UResNode@@@std@@@std@@QAE?AV?$_Vector_iterator@UResNode@@V?$allocator@UResNode@@@std@@@2@V32@@Z 100191a0 f i TextureResMgr.obj
 0001:000181d0       ?erase@?$vector@UResNode@@V?$allocator@UResNode@@@std@@@std@@QAE?AV?$_Vector_iterator@UResNode@@V?$allocator@UResNode@@@std@@@2@V32@0@Z 100191d0 f i TextureResMgr.obj
 0001:00018220       ?clear@?$vector@UResNode@@V?$allocator@UResNode@@@std@@@std@@QAEXXZ 10019220 f i TextureResMgr.obj
 0001:00018260       ??$_Umove@PAUResNode@@@?$vector@UResNode@@V?$allocator@UResNode@@@std@@@std@@IAEPAUResNode@@PAU2@00@Z 10019260 f i TextureResMgr.obj
 0001:00018290       ??0TextureResMgr@@QAE@XZ   10019290 f   TextureResMgr.obj
 0001:00018330       ?CheckBalance@TextureResMgr@@QAEXXZ 10019330 f   TextureResMgr.obj
 0001:000185e0       ?FreeImage@TextureResMgr@@QAEXPBD@Z 100195e0 f   TextureResMgr.obj
 0001:000186e0       ?Free@TextureResMgr@@QAEXXZ 100196e0 f   TextureResMgr.obj
 0001:00018890       ?_Insert_n@?$vector@UResNode@@V?$allocator@UResNode@@@std@@@std@@IAEXV?$_Vector_iterator@UResNode@@V?$allocator@UResNode@@@std@@@2@IABUResNode@@@Z 10019890 f i TextureResMgr.obj
 0001:00018b50       ??1TextureResMgr@@QAE@XZ   10019b50 f   TextureResMgr.obj
 0001:00018bd0       ?insert@?$vector@UResNode@@V?$allocator@UResNode@@@std@@@std@@QAE?AV?$_Vector_iterator@UResNode@@V?$allocator@UResNode@@@std@@@2@V32@ABUResNode@@@Z 10019bd0 f i TextureResMgr.obj
 0001:00018c80       ?CreateImage@TextureResMgr@@QAEIPBDHHH@Z 10019c80 f   TextureResMgr.obj
 0001:00018de0       ?GetImage@TextureResMgr@@QAEPAVTextureRes@@PBDAAIAAFHH_N@Z 10019de0 f   TextureResMgr.obj
 0001:00019090       ?GetImagePixelAlpha@TextureResMgr@@QAEHPBDHHHH@Z 1001a090 f   TextureResMgr.obj
 0001:00019150       ?GetImageParam@TextureResMgr@@QAE_NPBDPAUKImageParam@@H@Z 1001a150 f   TextureResMgr.obj
 0001:00019220       ?GetImageFrameParam@TextureResMgr@@QAE_NPBDHPAUKRPosition2@@1H@Z 1001a220 f   TextureResMgr.obj
 0001:0001933f       ?init_D3DXFloat32To16Array@@YGPAUD3DXFLOAT16@@PAU1@PBMI@Z 1001a33f f   d3dx9dt:d3dxmath.obj
 0001:00019350       _D3DXFloat32To16Array@12   1001a350 f   d3dx9dt:d3dxmath.obj
 0001:00019356       ?c_D3DXFloat32To16Array@@YGPAUD3DXFLOAT16@@PAU1@PBMI@Z 1001a356 f   d3dx9dt:d3dxmath.obj
 0001:000193f6       ?init_D3DXFloat16To32Array@@YGPAMPAMPBUD3DXFLOAT16@@I@Z 1001a3f6 f   d3dx9dt:d3dxmath.obj
 0001:00019407       _D3DXFloat16To32Array@12   1001a407 f   d3dx9dt:d3dxmath.obj
 0001:0001940d       ?c_D3DXFloat16To32Array@@YGPAMPAMPBUD3DXFLOAT16@@I@Z 1001a40d f   d3dx9dt:d3dxmath.obj
 0001:000194c8       ?init_D3DXVec2Normalize@@YGPAUD3DXVECTOR2@@PAU1@PBU1@@Z 1001a4c8 f   d3dx9dt:d3dxmath.obj
 0001:000194d9       _D3DXVec2Normalize@8       1001a4d9 f   d3dx9dt:d3dxmath.obj
 0001:000194df       ?init_D3DXVec2Hermite@@YGPAUD3DXVECTOR2@@PAU1@PBU1@111M@Z 1001a4df f   d3dx9dt:d3dxmath.obj
 0001:00019509       _D3DXVec2Hermite@24        1001a509 f   d3dx9dt:d3dxmath.obj
 0001:0001950f       ?c_D3DXVec2Hermite@@YGPAUD3DXVECTOR2@@PAU1@PBU1@111M@Z 1001a50f f   d3dx9dt:d3dxmath.obj
 0001:000195bf       ?init_D3DXVec2CatmullRom@@YGPAUD3DXVECTOR2@@PAU1@PBU1@111M@Z 1001a5bf f   d3dx9dt:d3dxmath.obj
 0001:000195e9       _D3DXVec2CatmullRom@24     1001a5e9 f   d3dx9dt:d3dxmath.obj
 0001:000195ef       ?c_D3DXVec2CatmullRom@@YGPAUD3DXVECTOR2@@PAU1@PBU1@111M@Z 1001a5ef f   d3dx9dt:d3dxmath.obj
 0001:000196c8       ?init_D3DXVec2BaryCentric@@YGPAUD3DXVECTOR2@@PAU1@PBU1@11MM@Z 1001a6c8 f   d3dx9dt:d3dxmath.obj
 0001:000196f7       _D3DXVec2BaryCentric@24    1001a6f7 f   d3dx9dt:d3dxmath.obj
 0001:000196fd       ?c_D3DXVec2BaryCentric@@YGPAUD3DXVECTOR2@@PAU1@PBU1@11MM@Z 1001a6fd f   d3dx9dt:d3dxmath.obj
 0001:00019754       ?init_D3DXVec2Transform@@YGPAUD3DXVECTOR4@@PAU1@PBUD3DXVECTOR2@@PBUD3DXMATRIX@@@Z 1001a754 f   d3dx9dt:d3dxmath.obj
 0001:00019765       _D3DXVec2Transform@12      1001a765 f   d3dx9dt:d3dxmath.obj
 0001:0001976b       ?init_D3DXVec2TransformArray@@YGPAUD3DXVECTOR4@@PAU1@IPBUD3DXVECTOR2@@IPBUD3DXMATRIX@@I@Z 1001a76b f   d3dx9dt:d3dxmath.obj
 0001:0001977c       _D3DXVec2TransformArray@24 1001a77c f   d3dx9dt:d3dxmath.obj
 0001:00019782       _acosf@4                   1001a782 f i d3dx9dt:d3dxmath.obj
 0001:00019791       ?init_D3DXVec2TransformCoord@@YGPAUD3DXVECTOR2@@PAU1@PBU1@PBUD3DXMATRIX@@@Z 1001a791 f   d3dx9dt:d3dxmath.obj
 0001:000197a2       _D3DXVec2TransformCoord@12 1001a7a2 f   d3dx9dt:d3dxmath.obj
 0001:000197a8       _atan2f@8                  1001a7a8 f i d3dx9dt:d3dxmath.obj
 0001:000197b7       _fabsf@4                   1001a7b7 f i d3dx9dt:d3dxmath.obj
 0001:000197c3       ?init_D3DXVec2TransformCoordArray@@YGPAUD3DXVECTOR2@@PAU1@IPBU1@IPBUD3DXMATRIX@@I@Z 1001a7c3 f   d3dx9dt:d3dxmath.obj
 0001:000197d4       _D3DXVec2TransformCoordArray@24 1001a7d4 f   d3dx9dt:d3dxmath.obj
 0001:000197da       _sinf@4                    1001a7da f i d3dx9dt:d3dxmath.obj
 0001:000197e6       _sqrtf@4                   1001a7e6 f i d3dx9dt:d3dxmath.obj
 0001:000197f2       ?init_D3DXVec2TransformNormal@@YGPAUD3DXVECTOR2@@PAU1@PBU1@PBUD3DXMATRIX@@@Z 1001a7f2 f   d3dx9dt:d3dxmath.obj
 0001:00019803       _D3DXVec2TransformNormal@12 1001a803 f   d3dx9dt:d3dxmath.obj
 0001:00019809       ??0D3DXVECTOR2@@QAE@XZ     1001a809 f i d3dx9dt:d3dxmath.obj
 0001:0001980c       ?init_D3DXVec2TransformNormalArray@@YGPAUD3DXVECTOR2@@PAU1@IPBU1@IPBUD3DXMATRIX@@I@Z 1001a80c f   d3dx9dt:d3dxmath.obj
 0001:0001981d       ??0D3DXVECTOR4@@QAE@XZ     1001a81d f i d3dx9dt:d3dxmath.obj
 0001:00019820       _D3DXVec2TransformNormalArray@24 1001a820 f   d3dx9dt:d3dxmath.obj
 0001:00019826       ?c_D3DXVec2TransformNormalArray@@YGPAUD3DXVECTOR2@@PAU1@IPBU1@IPBUD3DXMATRIX@@I@Z 1001a826 f   d3dx9dt:d3dxmath.obj
 0001:0001989a       ??0_D3DXMATRIXA16@@QAE@XZ  1001a89a f i d3dx9dt:d3dxmath.obj
 0001:0001989d       ??0D3DXQUATERNION@@QAE@XZ  1001a89d f i d3dx9dt:d3dxmath.obj
 0001:000198a0       ??0D3DXPLANE@@QAE@XZ       1001a8a0 f i d3dx9dt:d3dxmath.obj
 0001:000198a3       ?init_D3DXVec3Normalize@@YGPAUD3DXVECTOR3@@PAU1@PBU1@@Z 1001a8a3 f   d3dx9dt:d3dxmath.obj
 0001:000198b4       _D3DXVec3Normalize@8       1001a8b4 f   d3dx9dt:d3dxmath.obj
 0001:000198ba       ?init_D3DXVec3Hermite@@YGPAUD3DXVECTOR3@@PAU1@PBU1@111M@Z 1001a8ba f   d3dx9dt:d3dxmath.obj
 0001:000198e4       _D3DXVec3Hermite@24        1001a8e4 f   d3dx9dt:d3dxmath.obj
 0001:000198ea       ??0D3DXVECTOR2@@QAE@MM@Z   1001a8ea f i d3dx9dt:d3dxmath.obj
 0001:000198fe       ?c_D3DXVec3Hermite@@YGPAUD3DXVECTOR3@@PAU1@PBU1@111M@Z 1001a8fe f   d3dx9dt:d3dxmath.obj
 0001:000199d6       ?init_D3DXVec3CatmullRom@@YGPAUD3DXVECTOR3@@PAU1@PBU1@111M@Z 1001a9d6 f   d3dx9dt:d3dxmath.obj
 0001:00019a00       ??_0D3DXVECTOR2@@QAEAAU0@M@Z 1001aa00 f i d3dx9dt:d3dxmath.obj
 0001:00019a1a       _D3DXVec3CatmullRom@24     1001aa1a f   d3dx9dt:d3dxmath.obj
 0001:00019a20       ?c_D3DXVec3CatmullRom@@YGPAUD3DXVECTOR3@@PAU1@PBU1@111M@Z 1001aa20 f   d3dx9dt:d3dxmath.obj
 0001:00019b1b       ?init_D3DXVec3BaryCentric@@YGPAUD3DXVECTOR3@@PAU1@PBU1@11MM@Z 1001ab1b f   d3dx9dt:d3dxmath.obj
 0001:00019b4a       ??KD3DXVECTOR2@@QBE?AU0@M@Z 1001ab4a f i d3dx9dt:d3dxmath.obj
 0001:00019b69       _D3DXVec3BaryCentric@24    1001ab69 f   d3dx9dt:d3dxmath.obj
 0001:00019b6f       ?c_D3DXVec3BaryCentric@@YGPAUD3DXVECTOR3@@PAU1@PBU1@11MM@Z 1001ab6f f   d3dx9dt:d3dxmath.obj
 0001:00019be0       ?init_D3DXVec3Transform@@YGPAUD3DXVECTOR4@@PAU1@PBUD3DXVECTOR3@@PBUD3DXMATRIX@@@Z 1001abe0 f   d3dx9dt:d3dxmath.obj
 0001:00019bf1       _D3DXVec3Transform@12      1001abf1 f   d3dx9dt:d3dxmath.obj
 0001:00019bf7       ?c_D3DXVec3Transform@@YGPAUD3DXVECTOR4@@PAU1@PBUD3DXVECTOR3@@PBUD3DXMATRIX@@@Z 1001abf7 f   d3dx9dt:d3dxmath.obj
 0001:00019c9d       ?init_D3DXVec3TransformArray@@YGPAUD3DXVECTOR4@@PAU1@IPBUD3DXVECTOR3@@IPBUD3DXMATRIX@@I@Z 1001ac9d f   d3dx9dt:d3dxmath.obj
 0001:00019cae       _D3DXVec3TransformArray@24 1001acae f   d3dx9dt:d3dxmath.obj
 0001:00019cb4       ?c_D3DXVec3TransformArray@@YGPAUD3DXVECTOR4@@PAU1@IPBUD3DXVECTOR3@@IPBUD3DXMATRIX@@I@Z 1001acb4 f   d3dx9dt:d3dxmath.obj
 0001:00019d93       ?init_D3DXVec3TransformCoord@@YGPAUD3DXVECTOR3@@PAU1@PBU1@PBUD3DXMATRIX@@@Z 1001ad93 f   d3dx9dt:d3dxmath.obj
 0001:00019da4       _D3DXVec3TransformCoord@12 1001ada4 f   d3dx9dt:d3dxmath.obj
 0001:00019daa       ??_0D3DXVECTOR3@@QAEAAU0@M@Z 1001adaa f i d3dx9dt:d3dxmath.obj
 0001:00019dcc       ?init_D3DXVec3TransformCoordArray@@YGPAUD3DXVECTOR3@@PAU1@IPBU1@IPBUD3DXMATRIX@@I@Z 1001adcc f   d3dx9dt:d3dxmath.obj
 0001:00019ddd       _D3DXVec3TransformCoordArray@24 1001addd f   d3dx9dt:d3dxmath.obj
 0001:00019de3       ?c_D3DXVec3TransformCoordArray@@YGPAUD3DXVECTOR3@@PAU1@IPBU1@IPBUD3DXMATRIX@@I@Z 1001ade3 f   d3dx9dt:d3dxmath.obj
 0001:00019efa       ?init_D3DXVec3TransformNormal@@YGPAUD3DXVECTOR3@@PAU1@PBU1@PBUD3DXMATRIX@@@Z 1001aefa f   d3dx9dt:d3dxmath.obj
 0001:00019f0b       _D3DXVec3TransformNormal@12 1001af0b f   d3dx9dt:d3dxmath.obj
 0001:00019f11       ?c_D3DXVec3TransformNormal@@YGPAUD3DXVECTOR3@@PAU1@PBU1@PBUD3DXMATRIX@@@Z 1001af11 f   d3dx9dt:d3dxmath.obj
 0001:00019f8a       ?init_D3DXVec3TransformNormalArray@@YGPAUD3DXVECTOR3@@PAU1@IPBU1@IPBUD3DXMATRIX@@I@Z 1001af8a f   d3dx9dt:d3dxmath.obj
 0001:00019f9b       _D3DXVec3TransformNormalArray@24 1001af9b f   d3dx9dt:d3dxmath.obj
 0001:00019fa1       ?c_D3DXVec3TransformNormalArray@@YGPAUD3DXVECTOR3@@PAU1@IPBU1@IPBUD3DXMATRIX@@I@Z 1001afa1 f   d3dx9dt:d3dxmath.obj
 0001:0001a047       ?init_D3DXVec3Project@@YGPAUD3DXVECTOR3@@PAU1@PBU1@PBU_D3DVIEWPORT9@@PBUD3DXMATRIX@@33@Z 1001b047 f   d3dx9dt:d3dxmath.obj
 0001:0001a058       _D3DXVec3Project@24        1001b058 f   d3dx9dt:d3dxmath.obj
 0001:0001a05e       ?init_D3DXVec3ProjectArray@@YGPAUD3DXVECTOR3@@PAU1@IPBU1@IPBU_D3DVIEWPORT9@@PBUD3DXMATRIX@@33I@Z 1001b05e f   d3dx9dt:d3dxmath.obj
 0001:0001a06f       _D3DXVec3ProjectArray@36   1001b06f f   d3dx9dt:d3dxmath.obj
 0001:0001a075       ??KD3DXVECTOR4@@QBE?AU0@M@Z 1001b075 f i d3dx9dt:d3dxmath.obj
 0001:0001a0a4       ?init_D3DXVec3Unproject@@YGPAUD3DXVECTOR3@@PAU1@PBU1@PBU_D3DVIEWPORT9@@PBUD3DXMATRIX@@33@Z 1001b0a4 f   d3dx9dt:d3dxmath.obj
 0001:0001a0b5       _D3DXVec3Unproject@24      1001b0b5 f   d3dx9dt:d3dxmath.obj
 0001:0001a0bb       ?init_D3DXVec3UnprojectArray@@YGPAUD3DXVECTOR3@@PAU1@IPBU1@IPBU_D3DVIEWPORT9@@PBUD3DXMATRIX@@33I@Z 1001b0bb f   d3dx9dt:d3dxmath.obj
 0001:0001a0cc       _D3DXVec3UnprojectArray@36 1001b0cc f   d3dx9dt:d3dxmath.obj
 0001:0001a0d2       ?init_D3DXVec4Cross@@YGPAUD3DXVECTOR4@@PAU1@PBU1@11@Z 1001b0d2 f   d3dx9dt:d3dxmath.obj
 0001:0001a0e3       _D3DXVec4Cross@16          1001b0e3 f   d3dx9dt:d3dxmath.obj
 0001:0001a0e9       ?c_D3DXVec4Cross@@YGPAUD3DXVECTOR4@@PAU1@PBU1@11@Z 1001b0e9 f   d3dx9dt:d3dxmath.obj
 0001:0001a200       ?init_D3DXVec4Normalize@@YGPAUD3DXVECTOR4@@PAU1@PBU1@@Z 1001b200 f   d3dx9dt:d3dxmath.obj
 0001:0001a211       _D3DXVec4Normalize@8       1001b211 f   d3dx9dt:d3dxmath.obj
 0001:0001a217       ?init_D3DXVec4Hermite@@YGPAUD3DXVECTOR4@@PAU1@PBU1@111M@Z 1001b217 f   d3dx9dt:d3dxmath.obj
 0001:0001a241       _D3DXVec4Hermite@24        1001b241 f   d3dx9dt:d3dxmath.obj
 0001:0001a247       ?c_D3DXVec4Hermite@@YGPAUD3DXVECTOR4@@PAU1@PBU1@111M@Z 1001b247 f   d3dx9dt:d3dxmath.obj
 0001:0001a341       ?init_D3DXVec4CatmullRom@@YGPAUD3DXVECTOR4@@PAU1@PBU1@111M@Z 1001b341 f   d3dx9dt:d3dxmath.obj
 0001:0001a36b       _D3DXVec4CatmullRom@24     1001b36b f   d3dx9dt:d3dxmath.obj
 0001:0001a371       ?c_D3DXVec4CatmullRom@@YGPAUD3DXVECTOR4@@PAU1@PBU1@111M@Z 1001b371 f   d3dx9dt:d3dxmath.obj
 0001:0001a48e       ?init_D3DXVec4BaryCentric@@YGPAUD3DXVECTOR4@@PAU1@PBU1@11MM@Z 1001b48e f   d3dx9dt:d3dxmath.obj
 0001:0001a4bd       _D3DXVec4BaryCentric@24    1001b4bd f   d3dx9dt:d3dxmath.obj
 0001:0001a4c3       ?c_D3DXVec4BaryCentric@@YGPAUD3DXVECTOR4@@PAU1@PBU1@11MM@Z 1001b4c3 f   d3dx9dt:d3dxmath.obj
 0001:0001a54e       ?init_D3DXVec4Transform@@YGPAUD3DXVECTOR4@@PAU1@PBU1@PBUD3DXMATRIX@@@Z 1001b54e f   d3dx9dt:d3dxmath.obj
 0001:0001a55f       _D3DXVec4Transform@12      1001b55f f   d3dx9dt:d3dxmath.obj
 0001:0001a565       ?c_D3DXVec4Transform@@YGPAUD3DXVECTOR4@@PAU1@PBU1@PBUD3DXMATRIX@@@Z 1001b565 f   d3dx9dt:d3dxmath.obj
 0001:0001a623       ?init_D3DXVec4TransformArray@@YGPAUD3DXVECTOR4@@PAU1@IPBU1@IPBUD3DXMATRIX@@I@Z 1001b623 f   d3dx9dt:d3dxmath.obj
 0001:0001a634       _D3DXVec4TransformArray@24 1001b634 f   d3dx9dt:d3dxmath.obj
 0001:0001a63a       ?c_D3DXVec4TransformArray@@YGPAUD3DXVECTOR4@@PAU1@IPBU1@IPBUD3DXMATRIX@@I@Z 1001b63a f   d3dx9dt:d3dxmath.obj
 0001:0001a731       ??0D3DXQUATERNION@@QAE@MMMM@Z 1001b731 f i d3dx9dt:d3dxmath.obj
 0001:0001a751       ?init_D3DXMatrixDeterminant@@YGMPBUD3DXMATRIX@@@Z 1001b751 f   d3dx9dt:d3dxmath.obj
 0001:0001a762       _D3DXMatrixDeterminant@4   1001b762 f   d3dx9dt:d3dxmath.obj
 0001:0001a768       ?c_D3DXMatrixDeterminant@@YGMPBUD3DXMATRIX@@@Z 1001b768 f   d3dx9dt:d3dxmath.obj
 0001:0001a841       ??_0D3DXQUATERNION@@QAEAAU0@M@Z 1001b841 f i d3dx9dt:d3dxmath.obj
 0001:0001a86b       ??GD3DXQUATERNION@@QBE?AU0@XZ 1001b86b f i d3dx9dt:d3dxmath.obj
 0001:0001a893       ??HD3DXQUATERNION@@QBE?AU0@ABU0@@Z 1001b893 f i d3dx9dt:d3dxmath.obj
 0001:0001a8c1       ?init_D3DXMatrixMultiply@@YGPAUD3DXMATRIX@@PAU1@PBU1@1@Z 1001b8c1 f   d3dx9dt:d3dxmath.obj
 0001:0001a8d2       ??GD3DXQUATERNION@@QBE?AU0@ABU0@@Z 1001b8d2 f i d3dx9dt:d3dxmath.obj
 0001:0001a900       _D3DXMatrixMultiply@12     1001b900 f   d3dx9dt:d3dxmath.obj
 0001:0001a906       ?c_D3DXMatrixMultiply@@YGPAUD3DXMATRIX@@PAU1@PBU1@1@Z 1001b906 f   d3dx9dt:d3dxmath.obj
 0001:0001ab58       ??DD3DXQUATERNION@@QBE?AU0@M@Z 1001bb58 f i d3dx9dt:d3dxmath.obj
 0001:0001ab84       ??KD3DXQUATERNION@@QBE?AU0@M@Z 1001bb84 f i d3dx9dt:d3dxmath.obj
 0001:0001abb3       ??0D3DXPLANE@@QAE@MMMM@Z   1001bbb3 f i d3dx9dt:d3dxmath.obj
 0001:0001abd3       ??GD3DXPLANE@@QBE?AU0@XZ   1001bbd3 f i d3dx9dt:d3dxmath.obj
 0001:0001abfb       ?init_D3DXMatrixTranspose@@YGPAUD3DXMATRIX@@PAU1@PBU1@@Z 1001bbfb f   d3dx9dt:d3dxmath.obj
 0001:0001ac0c       _D3DXMatrixTranspose@8     1001bc0c f   d3dx9dt:d3dxmath.obj
 0001:0001ac12       ?c_D3DXMatrixTranspose@@YGPAUD3DXMATRIX@@PAU1@PBU1@@Z 1001bc12 f   d3dx9dt:d3dxmath.obj
 0001:0001ac8d       ?init_D3DXMatrixMultiplyTranspose@@YGPAUD3DXMATRIX@@PAU1@PBU1@1@Z 1001bc8d f   d3dx9dt:d3dxmath.obj
 0001:0001ac9e       _D3DXMatrixMultiplyTranspose@12 1001bc9e f   d3dx9dt:d3dxmath.obj
 0001:0001aca4       ?c_D3DXMatrixMultiplyTranspose@@YGPAUD3DXMATRIX@@PAU1@PBU1@1@Z 1001bca4 f   d3dx9dt:d3dxmath.obj
 0001:0001aef6       ?init_D3DXMatrixInverse@@YGPAUD3DXMATRIX@@PAU1@PAMPBU1@@Z 1001bef6 f   d3dx9dt:d3dxmath.obj
 0001:0001af07       _D3DXMatrixInverse@12      1001bf07 f   d3dx9dt:d3dxmath.obj
 0001:0001af0d       ?c_D3DXMatrixInverse@@YGPAUD3DXMATRIX@@PAU1@PAMPBU1@@Z 1001bf0d f   d3dx9dt:d3dxmath.obj
 0001:0001b2be       ?D3DXVec2LengthSq@@YGMPBUD3DXVECTOR2@@@Z 1001c2be f i d3dx9dt:d3dxmath.obj
 0001:0001b2db       ?init_D3DXMatrixScaling@@YGPAUD3DXMATRIX@@PAU1@MMM@Z 1001c2db f   d3dx9dt:d3dxmath.obj
 0001:0001b309       _D3DXMatrixScaling@16      1001c309 f   d3dx9dt:d3dxmath.obj
 0001:0001b30f       ?c_D3DXMatrixScaling@@YGPAUD3DXMATRIX@@PAU1@MMM@Z 1001c30f f   d3dx9dt:d3dxmath.obj
 0001:0001b36f       ?init_D3DXMatrixTranslation@@YGPAUD3DXMATRIX@@PAU1@MMM@Z 1001c36f f   d3dx9dt:d3dxmath.obj
 0001:0001b39d       _D3DXMatrixTranslation@16  1001c39d f   d3dx9dt:d3dxmath.obj
 0001:0001b3a3       ?c_D3DXMatrixTranslation@@YGPAUD3DXMATRIX@@PAU1@MMM@Z 1001c3a3 f   d3dx9dt:d3dxmath.obj
 0001:0001b403       ?D3DXVec3LengthSq@@YGMPBUD3DXVECTOR3@@@Z 1001c403 f i d3dx9dt:d3dxmath.obj
 0001:0001b42b       ?init_D3DXMatrixRotationX@@YGPAUD3DXMATRIX@@PAU1@M@Z 1001c42b f   d3dx9dt:d3dxmath.obj
 0001:0001b449       ?D3DXVec3Dot@@YGMPBUD3DXVECTOR3@@0@Z 1001c449 f i d3dx9dt:d3dxmath.obj
 0001:0001b46a       _D3DXMatrixRotationX@8     1001c46a f   d3dx9dt:d3dxmath.obj
 0001:0001b470       ?c_D3DXMatrixRotationX@@YGPAUD3DXMATRIX@@PAU1@M@Z 1001c470 f   d3dx9dt:d3dxmath.obj
 0001:0001b4f4       ?D3DXVec3Cross@@YGPAUD3DXVECTOR3@@PAU1@PBU1@1@Z 1001c4f4 f i d3dx9dt:d3dxmath.obj
 0001:0001b542       ?init_D3DXMatrixRotationY@@YGPAUD3DXMATRIX@@PAU1@M@Z 1001c542 f   d3dx9dt:d3dxmath.obj
 0001:0001b560       ?D3DXVec3Subtract@@YGPAUD3DXVECTOR3@@PAU1@PBU1@1@Z 1001c560 f i d3dx9dt:d3dxmath.obj
 0001:0001b588       _D3DXMatrixRotationY@8     1001c588 f   d3dx9dt:d3dxmath.obj
 0001:0001b58e       ?c_D3DXMatrixRotationY@@YGPAUD3DXMATRIX@@PAU1@M@Z 1001c58e f   d3dx9dt:d3dxmath.obj
 0001:0001b611       ?init_D3DXMatrixRotationZ@@YGPAUD3DXMATRIX@@PAU1@M@Z 1001c611 f   d3dx9dt:d3dxmath.obj
 0001:0001b62f       _D3DXMatrixRotationZ@8     1001c62f f   d3dx9dt:d3dxmath.obj
 0001:0001b635       ?c_D3DXMatrixRotationZ@@YGPAUD3DXMATRIX@@PAU1@M@Z 1001c635 f   d3dx9dt:d3dxmath.obj
 0001:0001b6b9       ?D3DXVec3Lerp@@YGPAUD3DXVECTOR3@@PAU1@PBU1@1M@Z 1001c6b9 f i d3dx9dt:d3dxmath.obj
 0001:0001b6f2       ?init_D3DXMatrixRotationAxis@@YGPAUD3DXMATRIX@@PAU1@PBUD3DXVECTOR3@@M@Z 1001c6f2 f   d3dx9dt:d3dxmath.obj
 0001:0001b713       ?D3DXVec4LengthSq@@YGMPBUD3DXVECTOR4@@@Z 1001c713 f i d3dx9dt:d3dxmath.obj
 0001:0001b746       _D3DXMatrixRotationAxis@12 1001c746 f   d3dx9dt:d3dxmath.obj
 0001:0001b74c       ?c_D3DXMatrixRotationAxis@@YGPAUD3DXMATRIX@@PAU1@PBUD3DXVECTOR3@@M@Z 1001c74c f   d3dx9dt:d3dxmath.obj
 0001:0001b866       ?init_D3DXMatrixRotationQuaternion@@YGPAUD3DXMATRIX@@PAU1@PBUD3DXQUATERNION@@@Z 1001c866 f   d3dx9dt:d3dxmath.obj
 0001:0001b877       _D3DXMatrixRotationQuaternion@8 1001c877 f   d3dx9dt:d3dxmath.obj
 0001:0001b87d       ?c_D3DXMatrixRotationQuaternion@@YGPAUD3DXMATRIX@@PAU1@PBUD3DXQUATERNION@@@Z 1001c87d f   d3dx9dt:d3dxmath.obj
 0001:0001b973       ?init_D3DXMatrixRotationYawPitchRoll@@YGPAUD3DXMATRIX@@PAU1@MMM@Z 1001c973 f   d3dx9dt:d3dxmath.obj
 0001:0001b9a1       ?D3DXMatrixIdentity@@YGPAUD3DXMATRIX@@PAU1@@Z 1001c9a1 f i d3dx9dt:d3dxmath.obj
 0001:0001b9fa       _D3DXMatrixRotationYawPitchRoll@16 1001c9fa f   d3dx9dt:d3dxmath.obj
 0001:0001ba00       ?init_D3DXMatrixTransformation@@YGPAUD3DXMATRIX@@PAU1@PBUD3DXVECTOR3@@PBUD3DXQUATERNION@@1121@Z 1001ca00 f   d3dx9dt:d3dxmath.obj
 0001:0001ba11       _D3DXMatrixTransformation@28 1001ca11 f   d3dx9dt:d3dxmath.obj
 0001:0001ba17       ?c_D3DXMatrixTransformation@@YGPAUD3DXMATRIX@@PAU1@PBUD3DXVECTOR3@@PBUD3DXQUATERNION@@1121@Z 1001ca17 f   d3dx9dt:d3dxmath.obj
 0001:0001bcc5       ?D3DXQuaternionLengthSq@@YGMPBUD3DXQUATERNION@@@Z 1001ccc5 f i d3dx9dt:d3dxmath.obj
 0001:0001bcf8       ?D3DXQuaternionDot@@YGMPBUD3DXQUATERNION@@0@Z 1001ccf8 f i d3dx9dt:d3dxmath.obj
 0001:0001bd21       ?D3DXQuaternionConjugate@@YGPAUD3DXQUATERNION@@PAU1@PBU1@@Z 1001cd21 f i d3dx9dt:d3dxmath.obj
 0001:0001bd4a       ?D3DXPlaneDot@@YGMPBUD3DXPLANE@@PBUD3DXVECTOR4@@@Z 1001cd4a f i d3dx9dt:d3dxmath.obj
 0001:0001bd73       ?D3DXPlaneDotCoord@@YGMPBUD3DXPLANE@@PBUD3DXVECTOR3@@@Z 1001cd73 f i d3dx9dt:d3dxmath.obj
 0001:0001bd97       ?D3DXPlaneDotNormal@@YGMPBUD3DXPLANE@@PBUD3DXVECTOR3@@@Z 1001cd97 f i d3dx9dt:d3dxmath.obj
 0001:0001bdb8       ?init_D3DXMatrixAffineTransformation@@YGPAUD3DXMATRIX@@PAU1@MPBUD3DXVECTOR3@@PBUD3DXQUATERNION@@1@Z 1001cdb8 f   d3dx9dt:d3dxmath.obj
 0001:0001bddf       _D3DXMatrixAffineTransformation@20 1001cddf f   d3dx9dt:d3dxmath.obj
 0001:0001bde5       ?c_D3DXMatrixAffineTransformation@@YGPAUD3DXMATRIX@@PAU1@MPBUD3DXVECTOR3@@PBUD3DXQUATERNION@@1@Z 1001cde5 f   d3dx9dt:d3dxmath.obj
 0001:0001bee6       _D3DXMatrixLookAtRH@16     1001cee6 f   d3dx9dt:d3dxmath.obj
 0001:0001c057       _D3DXMatrixLookAtLH@16     1001d057 f   d3dx9dt:d3dxmath.obj
 0001:0001c1c8       _D3DXMatrixPerspectiveRH@20 1001d1c8 f   d3dx9dt:d3dxmath.obj
 0001:0001c267       _D3DXMatrixPerspectiveLH@20 1001d267 f   d3dx9dt:d3dxmath.obj
 0001:0001c306       _D3DXMatrixPerspectiveFovRH@20 1001d306 f   d3dx9dt:d3dxmath.obj
 0001:0001c3de       _D3DXMatrixPerspectiveFovLH@20 1001d3de f   d3dx9dt:d3dxmath.obj
 0001:0001c4b6       _D3DXMatrixPerspectiveOffCenterRH@28 1001d4b6 f   d3dx9dt:d3dxmath.obj
 0001:0001c597       _D3DXMatrixPerspectiveOffCenterLH@28 1001d597 f   d3dx9dt:d3dxmath.obj
 0001:0001c67c       _D3DXMatrixOrthoRH@20      1001d67c f   d3dx9dt:d3dxmath.obj
 0001:0001c723       _D3DXMatrixOrthoLH@20      1001d723 f   d3dx9dt:d3dxmath.obj
 0001:0001c7cc       _D3DXMatrixOrthoOffCenterRH@28 1001d7cc f   d3dx9dt:d3dxmath.obj
 0001:0001c8af       _D3DXMatrixOrthoOffCenterLH@28 1001d8af f   d3dx9dt:d3dxmath.obj
 0001:0001c994       ?init_D3DXMatrixShadow@@YGPAUD3DXMATRIX@@PAU1@PBUD3DXVECTOR4@@PBUD3DXPLANE@@@Z 1001d994 f   d3dx9dt:d3dxmath.obj
 0001:0001c9a5       _D3DXMatrixShadow@12       1001d9a5 f   d3dx9dt:d3dxmath.obj
 0001:0001c9ab       ?init_D3DXMatrixReflect@@YGPAUD3DXMATRIX@@PAU1@PBUD3DXPLANE@@@Z 1001d9ab f   d3dx9dt:d3dxmath.obj
 0001:0001c9bc       _D3DXMatrixReflect@8       1001d9bc f   d3dx9dt:d3dxmath.obj
 0001:0001c9c2       ?init_D3DXQuaternionToAxisAngle@@YGXPBUD3DXQUATERNION@@PAUD3DXVECTOR3@@PAM@Z 1001d9c2 f   d3dx9dt:d3dxmath.obj
 0001:0001c9d3       _D3DXQuaternionToAxisAngle@12 1001d9d3 f   d3dx9dt:d3dxmath.obj
 0001:0001c9d9       ?c_D3DXQuaternionToAxisAngle@@YGXPBUD3DXQUATERNION@@PAUD3DXVECTOR3@@PAM@Z 1001d9d9 f   d3dx9dt:d3dxmath.obj
 0001:0001ca13       ?init_D3DXQuaternionRotationMatrix@@YGPAUD3DXQUATERNION@@PAU1@PBUD3DXMATRIX@@@Z 1001da13 f   d3dx9dt:d3dxmath.obj
 0001:0001ca24       _D3DXQuaternionRotationMatrix@8 1001da24 f   d3dx9dt:d3dxmath.obj
 0001:0001ca2a       ?c_D3DXQuaternionRotationMatrix@@YGPAUD3DXQUATERNION@@PAU1@PBUD3DXMATRIX@@@Z 1001da2a f   d3dx9dt:d3dxmath.obj
 0001:0001cb6d       ?init_D3DXQuaternionRotationAxis@@YGPAUD3DXQUATERNION@@PAU1@PBUD3DXVECTOR3@@M@Z 1001db6d f   d3dx9dt:d3dxmath.obj
 0001:0001cb8e       _D3DXQuaternionRotationAxis@12 1001db8e f   d3dx9dt:d3dxmath.obj
 0001:0001cb94       ?c_D3DXQuaternionRotationAxis@@YGPAUD3DXQUATERNION@@PAU1@PBUD3DXVECTOR3@@M@Z 1001db94 f   d3dx9dt:d3dxmath.obj
 0001:0001cc00       ?init_D3DXQuaternionRotationYawPitchRoll@@YGPAUD3DXQUATERNION@@PAU1@MMM@Z 1001dc00 f   d3dx9dt:d3dxmath.obj
 0001:0001cc2e       _D3DXQuaternionRotationYawPitchRoll@16 1001dc2e f   d3dx9dt:d3dxmath.obj
 0001:0001cc34       ?c_D3DXQuaternionRotationYawPitchRoll@@YGPAUD3DXQUATERNION@@PAU1@MMM@Z 1001dc34 f   d3dx9dt:d3dxmath.obj
 0001:0001cd1a       ?init_D3DXQuaternionMultiply@@YGPAUD3DXQUATERNION@@PAU1@PBU1@1@Z 1001dd1a f   d3dx9dt:d3dxmath.obj
 0001:0001cd2b       _D3DXQuaternionMultiply@12 1001dd2b f   d3dx9dt:d3dxmath.obj
 0001:0001cd31       ?c_D3DXQuaternionMultiply@@YGPAUD3DXQUATERNION@@PAU1@PBU1@1@Z 1001dd31 f   d3dx9dt:d3dxmath.obj
 0001:0001cde8       ?init_D3DXQuaternionNormalize@@YGPAUD3DXQUATERNION@@PAU1@PBU1@@Z 1001dde8 f   d3dx9dt:d3dxmath.obj
 0001:0001cdf9       _D3DXQuaternionNormalize@8 1001ddf9 f   d3dx9dt:d3dxmath.obj
 0001:0001cdff       ?c_D3DXQuaternionNormalize@@YGPAUD3DXQUATERNION@@PAU1@PBU1@@Z 1001ddff f   d3dx9dt:d3dxmath.obj
 0001:0001cec8       ?init_D3DXQuaternionInverse@@YGPAUD3DXQUATERNION@@PAU1@PBU1@@Z 1001dec8 f   d3dx9dt:d3dxmath.obj
 0001:0001ced9       _D3DXQuaternionInverse@8   1001ded9 f   d3dx9dt:d3dxmath.obj
 0001:0001cedf       ?c_D3DXQuaternionInverse@@YGPAUD3DXQUATERNION@@PAU1@PBU1@@Z 1001dedf f   d3dx9dt:d3dxmath.obj
 0001:0001cfa4       ?init_D3DXQuaternionLn@@YGPAUD3DXQUATERNION@@PAU1@PBU1@@Z 1001dfa4 f   d3dx9dt:d3dxmath.obj
 0001:0001cfb5       _D3DXQuaternionLn@8        1001dfb5 f   d3dx9dt:d3dxmath.obj
 0001:0001cfbb       ?c_D3DXQuaternionLn@@YGPAUD3DXQUATERNION@@PAU1@PBU1@@Z 1001dfbb f   d3dx9dt:d3dxmath.obj
 0001:0001d042       ?init_D3DXQuaternionExp@@YGPAUD3DXQUATERNION@@PAU1@PBU1@@Z 1001e042 f   d3dx9dt:d3dxmath.obj
 0001:0001d053       _D3DXQuaternionExp@8       1001e053 f   d3dx9dt:d3dxmath.obj
 0001:0001d059       ?c_D3DXQuaternionExp@@YGPAUD3DXQUATERNION@@PAU1@PBU1@@Z 1001e059 f   d3dx9dt:d3dxmath.obj
 0001:0001d105       ?init_D3DXQuaternionSlerp@@YGPAUD3DXQUATERNION@@PAU1@PBU1@1M@Z 1001e105 f   d3dx9dt:d3dxmath.obj
 0001:0001d129       _D3DXQuaternionSlerp@16    1001e129 f   d3dx9dt:d3dxmath.obj
 0001:0001d12f       ?c_D3DXQuaternionSlerp@@YGPAUD3DXQUATERNION@@PAU1@PBU1@1M@Z 1001e12f f   d3dx9dt:d3dxmath.obj
 0001:0001d231       ?init_D3DXQuaternionSquad@@YGPAUD3DXQUATERNION@@PAU1@PBU1@111M@Z 1001e231 f   d3dx9dt:d3dxmath.obj
 0001:0001d25b       _D3DXQuaternionSquad@24    1001e25b f   d3dx9dt:d3dxmath.obj
 0001:0001d261       ?c_D3DXQuaternionSquad@@YGPAUD3DXQUATERNION@@PAU1@PBU1@111M@Z 1001e261 f   d3dx9dt:d3dxmath.obj
 0001:0001d2d7       ?init_D3DXQuaternionSquadSetup@@YGXPAUD3DXQUATERNION@@00PBU1@111@Z 1001e2d7 f   d3dx9dt:d3dxmath.obj
 0001:0001d2e8       _D3DXQuaternionSquadSetup@28 1001e2e8 f   d3dx9dt:d3dxmath.obj
 0001:0001d2ee       ?init_D3DXQuaternionBaryCentric@@YGPAUD3DXQUATERNION@@PAU1@PBU1@11MM@Z 1001e2ee f   d3dx9dt:d3dxmath.obj
 0001:0001d31d       _D3DXQuaternionBaryCentric@24 1001e31d f   d3dx9dt:d3dxmath.obj
 0001:0001d323       ?c_D3DXQuaternionBaryCentric@@YGPAUD3DXQUATERNION@@PAU1@PBU1@11MM@Z 1001e323 f   d3dx9dt:d3dxmath.obj
 0001:0001d3c3       ?init_D3DXPlaneNormalize@@YGPAUD3DXPLANE@@PAU1@PBU1@@Z 1001e3c3 f   d3dx9dt:d3dxmath.obj
 0001:0001d3d4       _D3DXPlaneNormalize@8      1001e3d4 f   d3dx9dt:d3dxmath.obj
 0001:0001d3da       ?c_D3DXPlaneNormalize@@YGPAUD3DXPLANE@@PAU1@PBU1@@Z 1001e3da f   d3dx9dt:d3dxmath.obj
 0001:0001d48e       ?init_D3DXPlaneIntersectLine@@YGPAUD3DXVECTOR3@@PAU1@PBUD3DXPLANE@@PBU1@2@Z 1001e48e f   d3dx9dt:d3dxmath.obj
 0001:0001d49f       _D3DXPlaneIntersectLine@16 1001e49f f   d3dx9dt:d3dxmath.obj
 0001:0001d4a5       ?c_D3DXPlaneIntersectLine@@YGPAUD3DXVECTOR3@@PAU1@PBUD3DXPLANE@@PBU1@2@Z 1001e4a5 f   d3dx9dt:d3dxmath.obj
 0001:0001d559       ?init_D3DXPlaneFromPointNormal@@YGPAUD3DXPLANE@@PAU1@PBUD3DXVECTOR3@@1@Z 1001e559 f   d3dx9dt:d3dxmath.obj
 0001:0001d56a       _D3DXPlaneFromPointNormal@12 1001e56a f   d3dx9dt:d3dxmath.obj
 0001:0001d570       ?c_D3DXPlaneFromPointNormal@@YGPAUD3DXPLANE@@PAU1@PBUD3DXVECTOR3@@1@Z 1001e570 f   d3dx9dt:d3dxmath.obj
 0001:0001d5bb       ?init_D3DXPlaneFromPoints@@YGPAUD3DXPLANE@@PAU1@PBUD3DXVECTOR3@@11@Z 1001e5bb f   d3dx9dt:d3dxmath.obj
 0001:0001d5cc       _D3DXPlaneFromPoints@16    1001e5cc f   d3dx9dt:d3dxmath.obj
 0001:0001d5d2       ?c_D3DXPlaneFromPoints@@YGPAUD3DXPLANE@@PAU1@PBUD3DXVECTOR3@@11@Z 1001e5d2 f   d3dx9dt:d3dxmath.obj
 0001:0001d696       ?init_D3DXPlaneTransform@@YGPAUD3DXPLANE@@PAU1@PBU1@PBUD3DXMATRIX@@@Z 1001e696 f   d3dx9dt:d3dxmath.obj
 0001:0001d6a7       _D3DXPlaneTransform@12     1001e6a7 f   d3dx9dt:d3dxmath.obj
 0001:0001d6ad       ?c_D3DXPlaneTransform@@YGPAUD3DXPLANE@@PAU1@PBU1@PBUD3DXMATRIX@@@Z 1001e6ad f   d3dx9dt:d3dxmath.obj
 0001:0001d76b       ?init_D3DXPlaneTransformArray@@YGPAUD3DXPLANE@@PAU1@IPBU1@IPBUD3DXMATRIX@@I@Z 1001e76b f   d3dx9dt:d3dxmath.obj
 0001:0001d77c       _D3DXPlaneTransformArray@24 1001e77c f   d3dx9dt:d3dxmath.obj
 0001:0001d782       ?c_D3DXPlaneTransformArray@@YGPAUD3DXPLANE@@PAU1@IPBU1@IPBUD3DXMATRIX@@I@Z 1001e782 f   d3dx9dt:d3dxmath.obj
 0001:0001d879       _D3DXColorAdjustSaturation@12 1001e879 f   d3dx9dt:d3dxmath.obj
 0001:0001d8dd       _D3DXColorAdjustContrast@12 1001e8dd f   d3dx9dt:d3dxmath.obj
 0001:0001d929       _D3DXFresnelTerm@8         1001e929 f   d3dx9dt:d3dxmath.obj
 0001:0001d9c6       ?D3DXPerlinNoise@@YGMPBUD3DXVECTOR3@@@Z 1001e9c6 f   d3dx9dt:d3dxmath.obj
 0001:0001dc2f       ?init_D3DXPSGPUpdateSkinnedMesh@@YGXPBUD3DXMATRIX@@0PAE1KKPAPAE2KKPAMH@Z 1001ec2f f   d3dx9dt:d3dxmath.obj
 0001:0001dc40       ?D3DXPSGPUpdateSkinnedMesh@@YGXPBUD3DXMATRIX@@0PAE1KKPAPAE2KKPAMH@Z 1001ec40 f   d3dx9dt:d3dxmath.obj
 0001:0001dc46       ?init_D3DXPSGPTessellateNPatch@@YGXPAUD3DXVECTOR3@@PAUD3DXVECTOR2@@KPAM222K@Z 1001ec46 f   d3dx9dt:d3dxmath.obj
 0001:0001dc57       ?D3DXPSGPTessellateNPatch@@YGXPAUD3DXVECTOR3@@PAUD3DXVECTOR2@@KPAM222K@Z 1001ec57 f   d3dx9dt:d3dxmath.obj
 0001:0001dc5d       ?c_D3DXVec2Normalize@@YGPAUD3DXVECTOR2@@PAU1@PBU1@@Z 1001ec5d f   d3dx9dt:d3dxmath.obj
 0001:0001dcf6       ?c_D3DXVec2Transform@@YGPAUD3DXVECTOR4@@PAU1@PBUD3DXVECTOR2@@PBUD3DXMATRIX@@@Z 1001ecf6 f   d3dx9dt:d3dxmath.obj
 0001:0001dd74       ?c_D3DXVec2TransformArray@@YGPAUD3DXVECTOR4@@PAU1@IPBUD3DXVECTOR2@@IPBUD3DXMATRIX@@I@Z 1001ed74 f   d3dx9dt:d3dxmath.obj
 0001:0001de23       ?c_D3DXVec2TransformCoord@@YGPAUD3DXVECTOR2@@PAU1@PBU1@PBUD3DXMATRIX@@@Z 1001ee23 f   d3dx9dt:d3dxmath.obj
 0001:0001debc       ?c_D3DXVec2TransformCoordArray@@YGPAUD3DXVECTOR2@@PAU1@IPBU1@IPBUD3DXMATRIX@@I@Z 1001eebc f   d3dx9dt:d3dxmath.obj
 0001:0001df8c       ?c_D3DXVec2TransformNormal@@YGPAUD3DXVECTOR2@@PAU1@PBU1@PBUD3DXMATRIX@@@Z 1001ef8c f   d3dx9dt:d3dxmath.obj
 0001:0001dfd8       ?c_D3DXVec3Normalize@@YGPAUD3DXVECTOR3@@PAU1@PBU1@@Z 1001efd8 f   d3dx9dt:d3dxmath.obj
 0001:0001e088       ?c_D3DXVec3TransformCoord@@YGPAUD3DXVECTOR3@@PAU1@PBU1@PBUD3DXMATRIX@@@Z 1001f088 f   d3dx9dt:d3dxmath.obj
 0001:0001e168       ?c_D3DXVec3Project@@YGPAUD3DXVECTOR3@@PAU1@PBU1@PBU_D3DVIEWPORT9@@PBUD3DXMATRIX@@33@Z 1001f168 f   d3dx9dt:d3dxmath.obj
 0001:0001e311       ?c_D3DXVec3ProjectArray@@YGPAUD3DXVECTOR3@@PAU1@IPBU1@IPBU_D3DVIEWPORT9@@PBUD3DXMATRIX@@33I@Z 1001f311 f   d3dx9dt:d3dxmath.obj
 0001:0001e53f       ?c_D3DXVec3Unproject@@YGPAUD3DXVECTOR3@@PAU1@PBU1@PBU_D3DVIEWPORT9@@PBUD3DXMATRIX@@33@Z 1001f53f f   d3dx9dt:d3dxmath.obj
 0001:0001e708       ?c_D3DXVec3UnprojectArray@@YGPAUD3DXVECTOR3@@PAU1@IPBU1@IPBU_D3DVIEWPORT9@@PBUD3DXMATRIX@@33I@Z 1001f708 f   d3dx9dt:d3dxmath.obj
 0001:0001e95d       ?c_D3DXVec4Normalize@@YGPAUD3DXVECTOR4@@PAU1@PBU1@@Z 1001f95d f   d3dx9dt:d3dxmath.obj
 0001:0001ea26       ??DD3DXQUATERNION@@QBE?AU0@ABU0@@Z 1001fa26 f i d3dx9dt:d3dxmath.obj
 0001:0001ea4d       ?c_D3DXMatrixRotationYawPitchRoll@@YGPAUD3DXMATRIX@@PAU1@MMM@Z 1001fa4d f   d3dx9dt:d3dxmath.obj
 0001:0001ea90       ?c_D3DXMatrixShadow@@YGPAUD3DXMATRIX@@PAU1@PBUD3DXVECTOR4@@PBUD3DXPLANE@@@Z 1001fa90 f   d3dx9dt:d3dxmath.obj
 0001:0001eb8e       ?c_D3DXMatrixReflect@@YGPAUD3DXMATRIX@@PAU1@PBUD3DXPLANE@@@Z 1001fb8e f   d3dx9dt:d3dxmath.obj
 0001:0001ec67       ?c_D3DXQuaternionSquadSetup@@YGXPAUD3DXQUATERNION@@00PBU1@111@Z 1001fc67 f   d3dx9dt:d3dxmath.obj
 0001:0001f0a6       ?GetFormatInfo@D3DXTex@@YGPBU_D3DXFORMAT_INFO@@W4_D3DFORMAT@@@Z 100200a6 f   d3dx9dt:d3dx9tex.obj
 0001:0001f144       ?FindClosestFormat@D3DXTex@@YG?AW4_D3DFORMAT@@PBW42@PBUtagPALETTEENTRY@@PBU_D3DXFORMAT_INFO@@@Z 10020144 f   d3dx9dt:d3dx9tex.obj
 0001:0001f1b3       ?FindClosestDeviceFormat@D3DXTex@@YG?AW4_D3DFORMAT@@PAUIDirect3DDevice9@@KW4_D3DRESOURCETYPE@@PBU_D3DXFORMAT_INFO@@@Z 100201b3 f   d3dx9dt:d3dx9tex.obj
 0001:0001f2af       ?FindClosestExternalFormat@D3DXTex@@YG?AW4_D3DFORMAT@@W42@@Z 100202af f   d3dx9dt:d3dx9tex.obj
 0001:0001f2ce       _D3DXGetImageInfoFromFileInMemory@12 100202ce f   d3dx9dt:d3dx9tex.obj
 0001:0001f306       _D3DXLoadSurfaceFromMemory@40 10020306 f   d3dx9dt:d3dx9tex.obj
 0001:0001f40d       ??0D3DXCOLOR@@QAE@XZ       1002040d f i d3dx9dt:d3dx9tex.obj
 0001:0001f4fd       _D3DXSaveSurfaceToFileA@20 100204fd f   d3dx9dt:d3dx9tex.obj
 0001:0001f51a       _D3DXSaveSurfaceToFileW@20 1002051a f   d3dx9dt:d3dx9tex.obj
 0001:0001f537       _D3DXLoadVolumeFromMemory@44 10020537 f   d3dx9dt:d3dx9tex.obj
 0001:0001f71c       _D3DXSaveVolumeToFileA@20  1002071c f   d3dx9dt:d3dx9tex.obj
 0001:0001f739       _D3DXSaveVolumeToFileW@20  10020739 f   d3dx9dt:d3dx9tex.obj
 0001:0001fae0       _D3DXCheckTextureRequirements@28 10020ae0 f   d3dx9dt:d3dx9tex.obj
 0001:0001fb05       _D3DXCheckCubeTextureRequirements@24 10020b05 f   d3dx9dt:d3dx9tex.obj
 0001:0001fb2a       _D3DXCheckVolumeTextureRequirements@32 10020b2a f   d3dx9dt:d3dx9tex.obj
 0001:0001fb50       _D3DXCreateTexture@32      10020b50 f   d3dx9dt:d3dx9tex.obj
 0001:0001fbe7       _D3DXCreateCubeTexture@28  10020be7 f   d3dx9dt:d3dx9tex.obj
 0001:0001fc77       _D3DXCreateVolumeTexture@36 10020c77 f   d3dx9dt:d3dx9tex.obj
 0001:0001fd18       ??_I@YGXPAXIHP6EX0@Z@Z     10020d18 f i d3dx9dt:d3dx9tex.obj
 0001:0001fd42       _D3DXFillTexture@12        10020d42 f   d3dx9dt:d3dx9tex.obj
 0001:0001ff70       _D3DXFillCubeTexture@12    10020f70 f   d3dx9dt:d3dx9tex.obj
 0001:000206aa       _D3DXFillVolumeTexture@12  100216aa f   d3dx9dt:d3dx9tex.obj
 0001:000209f4       _D3DXFillTextureTX@16      100219f4 f   d3dx9dt:d3dx9tex.obj
 0001:00020af5       _D3DXFillCubeTextureTX@16  10021af5 f   d3dx9dt:d3dx9tex.obj
 0001:00020bf6       _D3DXFillVolumeTextureTX@16 10021bf6 f   d3dx9dt:d3dx9tex.obj
 0001:00020d40       _D3DXComputeNormalMap@24   10021d40 f   d3dx9dt:d3dx9tex.obj
 0001:000215fc       _D3DXGetImageInfoFromFileA@8 100225fc f   d3dx9dt:d3dx9tex.obj
 0001:0002163b       _D3DXGetImageInfoFromFileW@8 1002263b f   d3dx9dt:d3dx9tex.obj
 0001:0002167a       _D3DXGetImageInfoFromResourceA@12 1002267a f   d3dx9dt:d3dx9tex.obj
 0001:000216be       _D3DXGetImageInfoFromResourceW@12 100226be f   d3dx9dt:d3dx9tex.obj
 0001:00021702       _D3DXLoadSurfaceFromFileInMemory@36 10022702 f   d3dx9dt:d3dx9tex.obj
 0001:000217e0       _D3DXLoadSurfaceFromSurface@32 100227e0 f   d3dx9dt:d3dx9tex.obj
 0001:00021a0d       _D3DXLoadVolumeFromFileInMemory@36 10022a0d f   d3dx9dt:d3dx9tex.obj
 0001:00021af3       _D3DXLoadVolumeFromVolume@32 10022af3 f   d3dx9dt:d3dx9tex.obj
 0001:00021b8d       ??_ECLockSurface@D3DXTex@@QAEPAXI@Z 10022b8d f i d3dx9dt:d3dx9tex.obj
 0001:00021bd9       ??_ECLockVolume@D3DXTex@@QAEPAXI@Z 10022bd9 f i d3dx9dt:d3dx9tex.obj
 0001:00021c25       _D3DXFilterTexture@16      10022c25 f   d3dx9dt:d3dx9tex.obj
 0001:00021f2f       _D3DXLoadSurfaceFromFileA@32 10022f2f f   d3dx9dt:d3dx9tex.obj
 0001:00021f80       _D3DXLoadSurfaceFromFileW@32 10022f80 f   d3dx9dt:d3dx9tex.obj
 0001:00021fd1       _D3DXLoadSurfaceFromResourceA@36 10022fd1 f   d3dx9dt:d3dx9tex.obj
 0001:00022027       _D3DXLoadSurfaceFromResourceW@36 10023027 f   d3dx9dt:d3dx9tex.obj
 0001:0002207d       _D3DXLoadVolumeFromFileA@32 1002307d f   d3dx9dt:d3dx9tex.obj
 0001:000220ce       _D3DXLoadVolumeFromFileW@32 100230ce f   d3dx9dt:d3dx9tex.obj
 0001:0002211f       _D3DXLoadVolumeFromResourceA@36 1002311f f   d3dx9dt:d3dx9tex.obj
 0001:00022175       _D3DXLoadVolumeFromResourceW@36 10023175 f   d3dx9dt:d3dx9tex.obj
 0001:000229a4       _D3DXCreateTextureFromFileInMemoryEx@60 100239a4 f   d3dx9dt:d3dx9tex.obj
 0001:000229e1       _D3DXCreateCubeTextureFromFileInMemoryEx@56 100239e1 f   d3dx9dt:d3dx9tex.obj
 0001:00022a1e       _D3DXCreateVolumeTextureFromFileInMemoryEx@64 10023a1e f   d3dx9dt:d3dx9tex.obj
 0001:00022e4e       _D3DXSaveTextureToFileA@16 10023e4e f   d3dx9dt:d3dx9tex.obj
 0001:00022e68       _D3DXSaveTextureToFileW@16 10023e68 f   d3dx9dt:d3dx9tex.obj
 0001:00022e82       _D3DXCreateTextureFromFileExA@56 10023e82 f   d3dx9dt:d3dx9tex.obj
 0001:00022ee5       _D3DXCreateTextureFromFileExW@56 10023ee5 f   d3dx9dt:d3dx9tex.obj
 0001:00022f48       _D3DXCreateTextureFromResourceExA@60 10023f48 f   d3dx9dt:d3dx9tex.obj
 0001:00022fb0       _D3DXCreateTextureFromResourceExW@60 10023fb0 f   d3dx9dt:d3dx9tex.obj
 0001:00023018       _D3DXCreateTextureFromFileInMemory@16 10024018 f   d3dx9dt:d3dx9tex.obj
 0001:00023045       _D3DXCreateCubeTextureFromFileExA@52 10024045 f   d3dx9dt:d3dx9tex.obj
 0001:000230a5       _D3DXCreateCubeTextureFromFileExW@52 100240a5 f   d3dx9dt:d3dx9tex.obj
 0001:00023105       _D3DXCreateCubeTextureFromResourceExA@56 10024105 f   d3dx9dt:d3dx9tex.obj
 0001:0002316a       _D3DXCreateCubeTextureFromResourceExW@56 1002416a f   d3dx9dt:d3dx9tex.obj
 0001:000231cf       _D3DXCreateCubeTextureFromFileInMemory@16 100241cf f   d3dx9dt:d3dx9tex.obj
 0001:000231fc       _D3DXCreateVolumeTextureFromFileExA@60 100241fc f   d3dx9dt:d3dx9tex.obj
 0001:00023262       _D3DXCreateVolumeTextureFromFileExW@60 10024262 f   d3dx9dt:d3dx9tex.obj
 0001:000232c8       _D3DXCreateVolumeTextureFromResourceExA@64 100242c8 f   d3dx9dt:d3dx9tex.obj
 0001:00023333       _D3DXCreateVolumeTextureFromResourceExW@64 10024333 f   d3dx9dt:d3dx9tex.obj
 0001:0002339e       _D3DXCreateVolumeTextureFromFileInMemory@16 1002439e f   d3dx9dt:d3dx9tex.obj
 0001:000233ca       _D3DXCreateTextureFromFileA@12 100243ca f   d3dx9dt:d3dx9tex.obj
 0001:000233f0       _D3DXCreateTextureFromFileW@12 100243f0 f   d3dx9dt:d3dx9tex.obj
 0001:00023416       _D3DXCreateTextureFromResourceA@16 10024416 f   d3dx9dt:d3dx9tex.obj
 0001:0002343f       _D3DXCreateTextureFromResourceW@16 1002443f f   d3dx9dt:d3dx9tex.obj
 0001:00023468       _D3DXCreateCubeTextureFromFileA@12 10024468 f   d3dx9dt:d3dx9tex.obj
 0001:0002348d       _D3DXCreateCubeTextureFromFileW@12 1002448d f   d3dx9dt:d3dx9tex.obj
 0001:000234b2       _D3DXCreateCubeTextureFromResourceA@16 100244b2 f   d3dx9dt:d3dx9tex.obj
 0001:000234da       _D3DXCreateCubeTextureFromResourceW@16 100244da f   d3dx9dt:d3dx9tex.obj
 0001:00023502       _D3DXCreateVolumeTextureFromFileA@12 10024502 f   d3dx9dt:d3dx9tex.obj
 0001:00023529       _D3DXCreateVolumeTextureFromFileW@12 10024529 f   d3dx9dt:d3dx9tex.obj
 0001:00023550       _D3DXCreateVolumeTextureFromResourceA@16 10024550 f   d3dx9dt:d3dx9tex.obj
 0001:0002357a       _D3DXCreateVolumeTextureFromResourceW@16 1002457a f   d3dx9dt:d3dx9tex.obj
 0001:000235a4       ??ZD3DXVECTOR3@@QAEAAU0@ABU0@@Z 100245a4 f i d3dx9dt:psgpmesh.obj
 0001:000235c8       ??XD3DXVECTOR3@@QAEAAU0@M@Z 100245c8 f i d3dx9dt:psgpmesh.obj
 0001:000235ea       ??D@YG?AUD3DXVECTOR3@@MABU0@@Z 100245ea f i d3dx9dt:psgpmesh.obj
 0001:00023610       ?c_D3DXPSGPUpdateSkinnedMesh@@YGXPBUD3DXMATRIX@@0PAE1KKPAPAE2KKPAMH@Z 10024610 f   d3dx9dt:psgpmesh.obj
 0001:00023a1a       ?CalculateEdgeControlPoint@@YGXPAUD3DXVECTOR3@@00M0@Z 10024a1a f i d3dx9dt:psgpmesh.obj
 0001:00023ab7       ?c_D3DXPSGPTessellateNPatch@@YGXPAUD3DXVECTOR3@@PAUD3DXVECTOR2@@KPAM222K@Z 10024ab7 f   d3dx9dt:psgpmesh.obj
 0001:00023e6d       ?_asm_isMMX@@YGHXZ         10024e6d f   d3dx9dt:cpudetect.obj
 0001:00023e93       ?isMMXprocessor@@YGHXZ     10024e93 f   d3dx9dt:cpudetect.obj
 0001:00024004       _D3DXCpuOptimizations@4    10025004 f   d3dx9dt:cpudetect.obj
 0001:0002419d       ?D3DXDebugPrintf@@YAXIPADZZ 1002519d f   d3dx9dt:d3dx9dbg.obj
 0001:0002422a       ?D3DXDebugAssert@@YGHPBDH0@Z 1002522a f   d3dx9dt:d3dx9dbg.obj
 0001:00024345       ?D3DXDebugMute@@YGXH@Z     10025345 f   d3dx9dt:d3dx9dbg.obj
 0001:00024420       ??0CImage@D3DXTex@@QAE@XZ  10025420 f   d3dx9dt:cimage.obj
 0001:00024439       ??1CImage@D3DXTex@@QAE@XZ  10025439 f   d3dx9dt:cimage.obj
 0001:00024492       ??_GCImage@D3DXTex@@QAEPAXI@Z 10025492 f i d3dx9dt:cimage.obj
 0001:000244b1       ?Initialize@CImage@D3DXTex@@QAEJPAUD3DX_BLT@@@Z 100254b1 f   d3dx9dt:cimage.obj
 0001:00024589       ?LoadDIB@CImage@D3DXTex@@AAEJPBXK@Z 10025589 f   d3dx9dt:cimage.obj
 0001:000250cb       ?SaveDIB@CImage@D3DXTex@@AAEJPAXH@Z 100260cb f   d3dx9dt:cimage.obj
 0001:00025713       ?LoadJPG@CImage@D3DXTex@@AAEJPBXK@Z 10026713 f   d3dx9dt:cimage.obj
 0001:0002598b       ?LoadTGA@CImage@D3DXTex@@AAEJPBXK@Z 1002698b f   d3dx9dt:cimage.obj
 0001:00025f03       ?LoadPPM@CImage@D3DXTex@@AAEJPBXK@Z 10026f03 f   d3dx9dt:cimage.obj
 0001:00026201       ?LoadPNG@CImage@D3DXTex@@AAEJPBXK@Z 10027201 f   d3dx9dt:cimage.obj
 0001:00026752       ?LoadDDS@CImage@D3DXTex@@AAEJPBXK@Z 10027752 f   d3dx9dt:cimage.obj
 0001:00026ad3       ?SaveDDS@CImage@D3DXTex@@AAEJPAX@Z 10027ad3 f   d3dx9dt:cimage.obj
 0001:00026e3a       ?SaveJPG@CImage@D3DXTex@@AAEJPAX@Z 10027e3a f   d3dx9dt:cimage.obj
 0001:00027002       ?Save@CImage@D3DXTex@@QAEJPBXW4_D3DXIMAGE_FILEFORMAT@@H@Z 10028002 f   d3dx9dt:cimage.obj
 0001:000272c0       ?LoadBMP@CImage@D3DXTex@@AAEJPBXK@Z 100282c0 f   d3dx9dt:cimage.obj
 0001:000272f2       ?Load@CImage@D3DXTex@@QAEJPBXKPAU_D3DXIMAGE_INFO@@H@Z 100282f2 f   d3dx9dt:cimage.obj
 0001:000274f3       ??0CBlt@D3DXTex@@QAE@XZ    100284f3 f   d3dx9dt:cblt.obj
 0001:000274fd       ??1CBlt@D3DXTex@@QAE@XZ    100284fd f   d3dx9dt:cblt.obj
 0001:0002751b       _floorf@4                  1002851b f i d3dx9dt:cblt.obj
 0001:00027531       ??0TF_Row@D3DXTex@@QAE@XZ  10028531 f i d3dx9dt:cblt.obj
 0001:0002753e       ??1TF_Row@D3DXTex@@QAE@XZ  1002853e f i d3dx9dt:cblt.obj
 0001:00027875       ?BltSame_DXTn@CBlt@D3DXTex@@IAEJXZ 10028875 f   d3dx9dt:cblt.obj
 0001:00027a03       ?BltBox2D_R8G8B8@CBlt@D3DXTex@@IAEJXZ 10028a03 f   d3dx9dt:cblt.obj
 0001:00027a09       ?c_BoxFilter2D_A8R8G8B8@D3DXTex@@YGJPAI0IIII@Z 10028a09 f   d3dx9dt:cblt.obj
 0001:00027b31       ?BltBox2D_A8R8G8B8@CBlt@D3DXTex@@IAEJXZ 10028b31 f   d3dx9dt:cblt.obj
 0001:00027d61       ??0D3DXCOLOR@@QAE@MMMM@Z   10028d61 f i d3dx9dt:cblt.obj
 0001:00027de8       ?BltBox2D_X8R8G8B8@CBlt@D3DXTex@@IAEJXZ 10028de8 f   d3dx9dt:cblt.obj
 0001:00027e16       ?BltBox2D_R5G6B5@CBlt@D3DXTex@@IAEJXZ 10028e16 f   d3dx9dt:cblt.obj
 0001:00027f56       ?BltBox2D_X1R5G5B5@CBlt@D3DXTex@@IAEJXZ 10028f56 f   d3dx9dt:cblt.obj
 0001:0002806b       ??HD3DXCOLOR@@QBE?AU0@ABU0@@Z 1002906b f i d3dx9dt:cblt.obj
 0001:00028099       ?BltBox2D_A1R5G5B5@CBlt@D3DXTex@@IAEJXZ 10029099 f   d3dx9dt:cblt.obj
 0001:000281ce       ??DD3DXCOLOR@@QBE?AU0@M@Z  100291ce f i d3dx9dt:cblt.obj
 0001:000281fa       ?BltBox2D_A4R4G4B4@CBlt@D3DXTex@@IAEJXZ 100291fa f   d3dx9dt:cblt.obj
 0001:0002833d       ?BltBox2D_R3G3B2@CBlt@D3DXTex@@IAEJXZ 1002933d f   d3dx9dt:cblt.obj
 0001:00028467       ?BltBox2D_A8@CBlt@D3DXTex@@IAEJXZ 10029467 f   d3dx9dt:cblt.obj
 0001:00028502       ?BltBox2D_A8R3G3B2@CBlt@D3DXTex@@IAEJXZ 10029502 f   d3dx9dt:cblt.obj
 0001:0002863a       ?BltBox2D_X4R4G4B4@CBlt@D3DXTex@@IAEJXZ 1002963a f   d3dx9dt:cblt.obj
 0001:00028753       ?BltBox2D_A8P8@CBlt@D3DXTex@@IAEJXZ 10029753 f   d3dx9dt:cblt.obj
 0001:00028759       ?BltBox2D_P8@CBlt@D3DXTex@@IAEJXZ 10029759 f   d3dx9dt:cblt.obj
 0001:0002875f       ?BltBox2D_A8L8@CBlt@D3DXTex@@IAEJXZ 1002975f f   d3dx9dt:cblt.obj
 0001:00028897       ?BltBox2D_A4L4@CBlt@D3DXTex@@IAEJXZ 10029897 f   d3dx9dt:cblt.obj
 0001:00028a03       ?BltSame@CBlt@D3DXTex@@IAEJXZ 10029a03 f   d3dx9dt:cblt.obj
 0001:00028b40       ?BltCopy@CBlt@D3DXTex@@IAEJXZ 10029b40 f   d3dx9dt:cblt.obj
 0001:00028c2f       ?BltNone@CBlt@D3DXTex@@IAEJXZ 10029c2f f   d3dx9dt:cblt.obj
 0001:00028e24       ?BltPoint@CBlt@D3DXTex@@IAEJXZ 10029e24 f   d3dx9dt:cblt.obj
 0001:0002901d       ?BltBox2D@CBlt@D3DXTex@@IAEJXZ 1002a01d f   d3dx9dt:cblt.obj
 0001:0002942c       ?BltBox3D@CBlt@D3DXTex@@IAEJXZ 1002a42c f   d3dx9dt:cblt.obj
 0001:00029972       ?BltLinear2D@CBlt@D3DXTex@@IAEJXZ 1002a972 f   d3dx9dt:cblt.obj
 0001:00029d41       ?BltLinear3D@CBlt@D3DXTex@@IAEJXZ 1002ad41 f   d3dx9dt:cblt.obj
 0001:0002a43f       ??_ETF_Row@D3DXTex@@QAEPAXI@Z 1002b43f f i d3dx9dt:cblt.obj
 0001:0002a48c       ?BltTriangle3D@CBlt@D3DXTex@@IAEJXZ 1002b48c f   d3dx9dt:cblt.obj
 0001:0002ab50       ?BltTriangle2D@CBlt@D3DXTex@@IAEJXZ 1002bb50 f   d3dx9dt:cblt.obj
 0001:0002b13e       ?Blt@CBlt@D3DXTex@@QAEJPAUD3DX_BLT@@0K@Z 1002c13e f   d3dx9dt:cblt.obj
 0001:0002b293       ??0CLockSurface@D3DXTex@@QAE@XZ 1002c293 f   d3dx9dt:clock.obj
 0001:0002b2a6       ?InternalCopy@D3DXTex@@YGJPAUIDirect3DSurface9@@0@Z 1002c2a6 f   d3dx9dt:clock.obj
 0001:0002b383       ?Unlock@CLockSurface@D3DXTex@@QAEJXZ 1002c383 f   d3dx9dt:clock.obj
 0001:0002b447       ??0CLockVolume@D3DXTex@@QAE@XZ 1002c447 f   d3dx9dt:clock.obj
 0001:0002b44d       ?Unlock@CLockVolume@D3DXTex@@QAEJXZ 1002c44d f   d3dx9dt:clock.obj
 0001:0002b46f       ??1CLockSurface@D3DXTex@@QAE@XZ 1002c46f f   d3dx9dt:clock.obj
 0001:0002b474       ?Lock@CLockSurface@D3DXTex@@QAEJPAUD3DX_BLT@@PAUIDirect3DSurface9@@PBUtagPALETTEENTRY@@PBUtagRECT@@KK@Z 1002c474 f   d3dx9dt:clock.obj
 0001:0002b98c       ??1CLockVolume@D3DXTex@@QAE@XZ 1002c98c f   d3dx9dt:clock.obj
 0001:0002b991       ?Lock@CLockVolume@D3DXTex@@QAEJPAUD3DX_BLT@@PAUIDirect3DVolume9@@PBUtagPALETTEENTRY@@PBU_D3DBOX@@KK@Z 1002c991 f   d3dx9dt:clock.obj
 0001:0002bd1e       ??1CCodec@D3DXTex@@UAE@XZ  1002cd1e f   d3dx9dt:ccodec.obj
 0001:0002bd31       ?Decode@CCodec@D3DXTex@@UAEXIIPAUD3DXCOLOR@@@Z 1002cd31 f   d3dx9dt:ccodec.obj
 0001:0002bd34       ?Encode@CCodec@D3DXTex@@UAEXIIPAUD3DXCOLOR@@@Z 1002cd34 f   d3dx9dt:ccodec.obj
 0001:0002bd37       ?Convert@CCodec@D3DXTex@@IAEPAUD3DXCOLOR@@PAU3@@Z 1002cd37 f   d3dx9dt:ccodec.obj
 0001:0002c2fb       ??0D3DXCOLOR@@QAE@K@Z      1002d2fb f i d3dx9dt:ccodec.obj
 0001:0002c350       ??GD3DXCOLOR@@QBE?AU0@ABU0@@Z 1002d350 f i d3dx9dt:ccodec.obj
 0001:0002c37e       ??8D3DXCOLOR@@QBEHABU0@@Z  1002d37e f i d3dx9dt:ccodec.obj
 0001:0002c3c1       ?QuantizeColorKey@CCodecYUV@D3DXTex@@MAEXXZ 1002d3c1 f   d3dx9dt:ccodec.obj
 0001:0002c3e2       ??1CCodecDXT@D3DXTex@@UAE@XZ 1002d3e2 f   d3dx9dt:ccodec.obj
 0001:0002c487       ?QuantizeColorKey@CCodecDXT@D3DXTex@@MAEXXZ 1002d487 f   d3dx9dt:ccodec.obj
 0001:0002c588       ?TableEncodeGamma22@D3DXTex@@YGMM@Z 1002d588 f i d3dx9dt:ccodec.obj
 0001:0002c5d8       ?TableDecodeGamma22@D3DXTex@@YGMM@Z 1002d5d8 f i d3dx9dt:ccodec.obj
 0001:0002c61f       ??0CCodec@D3DXTex@@IAE@PAUD3DX_BLT@@IK@Z 1002d61f f   d3dx9dt:ccodec.obj
 0001:0002c890       ??_GCCodec@D3DXTex@@UAEPAXI@Z 1002d890 f i d3dx9dt:ccodec.obj
 0001:0002c890       ??_ECCodec@D3DXTex@@UAEPAXI@Z 1002d890 f i d3dx9dt:ccodec.obj
 0001:0002c8af       ?ConvertFrom@CCodec@D3DXTex@@QAEJPAV12@@Z 1002d8af f   d3dx9dt:ccodec.obj
 0001:0002c93c       ?ConvertFromFloat@CCodec@D3DXTex@@QAEJXZ 1002d93c f   d3dx9dt:ccodec.obj
 0001:0002c99b       ?QuantizeColorKey@CCodec@D3DXTex@@MAEXXZ 1002d99b f   d3dx9dt:ccodec.obj
 0001:0002ca6e       ?ColorKey@CCodec@D3DXTex@@IAEXPAUD3DXCOLOR@@@Z 1002da6e f   d3dx9dt:ccodec.obj
 0001:0002cae1       ?EncodeGamma22@CCodec@D3DXTex@@IAEPAUD3DXCOLOR@@PAU3@@Z 1002dae1 f   d3dx9dt:ccodec.obj
 0001:0002cd63       ?DecodeGamma22@CCodec@D3DXTex@@IAEXPAUD3DXCOLOR@@@Z 1002dd63 f   d3dx9dt:ccodec.obj
 0001:0002ce99       ?Encode@CCodec_R8G8B8@D3DXTex@@UAEXIIPAUD3DXCOLOR@@@Z 1002de99 f   d3dx9dt:ccodec.obj
 0001:0002cfaa       ?Encode@CCodec_A8R8G8B8@D3DXTex@@UAEXIIPAUD3DXCOLOR@@@Z 1002dfaa f   d3dx9dt:ccodec.obj
 0001:0002d0f3       ?Encode@CCodec_X8R8G8B8@D3DXTex@@UAEXIIPAUD3DXCOLOR@@@Z 1002e0f3 f   d3dx9dt:ccodec.obj
 0001:0002d218       ?Encode@CCodec_R5G6B5@D3DXTex@@UAEXIIPAUD3DXCOLOR@@@Z 1002e218 f   d3dx9dt:ccodec.obj
 0001:0002d33d       ?Encode@CCodec_X1R5G5B5@D3DXTex@@UAEXIIPAUD3DXCOLOR@@@Z 1002e33d f   d3dx9dt:ccodec.obj
 0001:0002d462       ?Encode@CCodec_A1R5G5B5@D3DXTex@@UAEXIIPAUD3DXCOLOR@@@Z 1002e462 f   d3dx9dt:ccodec.obj
 0001:0002d5a5       ?Encode@CCodec_A4R4G4B4@D3DXTex@@UAEXIIPAUD3DXCOLOR@@@Z 1002e5a5 f   d3dx9dt:ccodec.obj
 0001:0002d6ee       ?Encode@CCodec_R3G3B2@D3DXTex@@UAEXIIPAUD3DXCOLOR@@@Z 1002e6ee f   d3dx9dt:ccodec.obj
 0001:0002d813       ?Encode@CCodec_A8@D3DXTex@@UAEXIIPAUD3DXCOLOR@@@Z 1002e813 f   d3dx9dt:ccodec.obj
 0001:0002d8df       ?Encode@CCodec_A8R3G3B2@D3DXTex@@UAEXIIPAUD3DXCOLOR@@@Z 1002e8df f   d3dx9dt:ccodec.obj
 0001:0002da28       ?Encode@CCodec_X4R4G4B4@D3DXTex@@UAEXIIPAUD3DXCOLOR@@@Z 1002ea28 f   d3dx9dt:ccodec.obj
 0001:0002db4d       ?Encode@CCodec_A2B10G10R10@D3DXTex@@UAEXIIPAUD3DXCOLOR@@@Z 1002eb4d f   d3dx9dt:ccodec.obj
 0001:0002dc96       ?Encode@CCodec_A8B8G8R8@D3DXTex@@UAEXIIPAUD3DXCOLOR@@@Z 1002ec96 f   d3dx9dt:ccodec.obj
 0001:0002dddf       ?Encode@CCodec_X8B8G8R8@D3DXTex@@UAEXIIPAUD3DXCOLOR@@@Z 1002eddf f   d3dx9dt:ccodec.obj
 0001:0002df04       ?Encode@CCodec_G16R16@D3DXTex@@UAEXIIPAUD3DXCOLOR@@@Z 1002ef04 f   d3dx9dt:ccodec.obj
 0001:0002dffb       ?Encode@CCodec_A2R10G10B10@D3DXTex@@UAEXIIPAUD3DXCOLOR@@@Z 1002effb f   d3dx9dt:ccodec.obj
 0001:0002e144       ?Encode@CCodec_A16B16G16R16@D3DXTex@@UAEXIIPAUD3DXCOLOR@@@Z 1002f144 f   d3dx9dt:ccodec.obj
 0001:0002e2c5       ?Encode@CCodec_A8P8@D3DXTex@@UAEXIIPAUD3DXCOLOR@@@Z 1002f2c5 f   d3dx9dt:ccodec.obj
 0001:0002e40c       ?Encode@CCodec_P8@D3DXTex@@UAEXIIPAUD3DXCOLOR@@@Z 1002f40c f   d3dx9dt:ccodec.obj
 0001:0002e4e6       ?Encode@CCodec_L8@D3DXTex@@UAEXIIPAUD3DXCOLOR@@@Z 1002f4e6 f   d3dx9dt:ccodec.obj
 0001:0002e5ce       ?Encode@CCodec_A8L8@D3DXTex@@UAEXIIPAUD3DXCOLOR@@@Z 1002f5ce f   d3dx9dt:ccodec.obj
 0001:0002e6e9       ?Encode@CCodec_A4L4@D3DXTex@@UAEXIIPAUD3DXCOLOR@@@Z 1002f6e9 f   d3dx9dt:ccodec.obj
 0001:0002e7f9       ?Encode@CCodec_L16@D3DXTex@@UAEXIIPAUD3DXCOLOR@@@Z 1002f7f9 f   d3dx9dt:ccodec.obj
 0001:0002e8e3       ?Encode@CCodec_V8U8@D3DXTex@@UAEXIIPAUD3DXCOLOR@@@Z 1002f8e3 f   d3dx9dt:ccodec.obj
 0001:0002e9de       ?Encode@CCodec_L6V5U5@D3DXTex@@UAEXIIPAUD3DXCOLOR@@@Z 1002f9de f   d3dx9dt:ccodec.obj
 0001:0002eb08       ?Encode@CCodec_X8L8V8U8@D3DXTex@@UAEXIIPAUD3DXCOLOR@@@Z 1002fb08 f   d3dx9dt:ccodec.obj
 0001:0002ec3a       ?Encode@CCodec_Q8W8V8U8@D3DXTex@@UAEXIIPAUD3DXCOLOR@@@Z 1002fc3a f   d3dx9dt:ccodec.obj
 0001:0002ed99       ?Encode@CCodec_V16U16@D3DXTex@@UAEXIIPAUD3DXCOLOR@@@Z 1002fd99 f   d3dx9dt:ccodec.obj
 0001:0002ee94       ?Encode@CCodec_A2W10V10U10@D3DXTex@@UAEXIIPAUD3DXCOLOR@@@Z 1002fe94 f   d3dx9dt:ccodec.obj
 0001:0002eff3       ?Encode@CCodec_Q16W16V16U16@D3DXTex@@UAEXIIPAUD3DXCOLOR@@@Z 1002fff3 f   d3dx9dt:ccodec.obj
 0001:0002f18a       ?Encode@CCodec_CxV8U8@D3DXTex@@UAEXIIPAUD3DXCOLOR@@@Z 1003018a f   d3dx9dt:ccodec.obj
 0001:0002f28f       ?Encode@CCodec_D16_LOCKABLE@D3DXTex@@UAEXIIPAUD3DXCOLOR@@@Z 1003028f f   d3dx9dt:ccodec.obj
 0001:0002f379       ?Encode@CCodec_D32F_LOCKABLE@D3DXTex@@UAEXIIPAUD3DXCOLOR@@@Z 10030379 f   d3dx9dt:ccodec.obj
 0001:0002f3ce       ?Encode@CCodec_R16F@D3DXTex@@UAEXIIPAUD3DXCOLOR@@@Z 100303ce f   d3dx9dt:ccodec.obj
 0001:0002f430       ?Encode@CCodec_G16R16F@D3DXTex@@UAEXIIPAUD3DXCOLOR@@@Z 10030430 f   d3dx9dt:ccodec.obj
 0001:0002f493       ?Encode@CCodec_A16B16G16R16F@D3DXTex@@UAEXIIPAUD3DXCOLOR@@@Z 10030493 f   d3dx9dt:ccodec.obj
 0001:0002f4db       ?Encode@CCodec_R32F@D3DXTex@@UAEXIIPAUD3DXCOLOR@@@Z 100304db f   d3dx9dt:ccodec.obj
 0001:0002f530       ?Encode@CCodec_G32R32F@D3DXTex@@UAEXIIPAUD3DXCOLOR@@@Z 10030530 f   d3dx9dt:ccodec.obj
 0001:0002f58d       ?Encode@CCodec_A32B32G32R32F@D3DXTex@@UAEXIIPAUD3DXCOLOR@@@Z 1003058d f   d3dx9dt:ccodec.obj
 0001:0002f5e0       ?Encode@CCodec_D3DX_A16L16@D3DXTex@@UAEXIIPAUD3DXCOLOR@@@Z 100305e0 f   d3dx9dt:ccodec.obj
 0001:0002f6f6       ?Encode@CCodec_D3DX_R16G16B16@D3DXTex@@UAEXIIPAUD3DXCOLOR@@@Z 100306f6 f   d3dx9dt:ccodec.obj
 0001:0002f809       ?Decode@CCodec_R8G8B8@D3DXTex@@UAEXIIPAUD3DXCOLOR@@@Z 10030809 f   d3dx9dt:ccodec.obj
 0001:0002f8ae       ?Decode@CCodec_A8R8G8B8@D3DXTex@@UAEXIIPAUD3DXCOLOR@@@Z 100308ae f   d3dx9dt:ccodec.obj
 0001:0002f96d       ?Decode@CCodec_X8R8G8B8@D3DXTex@@UAEXIIPAUD3DXCOLOR@@@Z 1003096d f   d3dx9dt:ccodec.obj
 0001:0002fa22       ?Decode@CCodec_R5G6B5@D3DXTex@@UAEXIIPAUD3DXCOLOR@@@Z 10030a22 f   d3dx9dt:ccodec.obj
 0001:0002fadc       ?Decode@CCodec_X1R5G5B5@D3DXTex@@UAEXIIPAUD3DXCOLOR@@@Z 10030adc f   d3dx9dt:ccodec.obj
 0001:0002fb93       ?Decode@CCodec_A1R5G5B5@D3DXTex@@UAEXIIPAUD3DXCOLOR@@@Z 10030b93 f   d3dx9dt:ccodec.obj
 0001:0002fc58       ?Decode@CCodec_A4R4G4B4@D3DXTex@@UAEXIIPAUD3DXCOLOR@@@Z 10030c58 f   d3dx9dt:ccodec.obj
 0001:0002fd1c       ?Decode@CCodec_A2B10G10R10@D3DXTex@@UAEXIIPAUD3DXCOLOR@@@Z 10030d1c f   d3dx9dt:ccodec.obj
 0001:0002fe0b       ?Decode@CCodec_A8B8G8R8@D3DXTex@@UAEXIIPAUD3DXCOLOR@@@Z 10030e0b f   d3dx9dt:ccodec.obj
 0001:0002feca       ?Decode@CCodec_X8B8G8R8@D3DXTex@@UAEXIIPAUD3DXCOLOR@@@Z 10030eca f   d3dx9dt:ccodec.obj
 0001:0002ff7f       ?Decode@CCodec_G16R16@D3DXTex@@UAEXIIPAUD3DXCOLOR@@@Z 10030f7f f   d3dx9dt:ccodec.obj
 0001:0003002a       ?Decode@CCodec_A2R10G10B10@D3DXTex@@UAEXIIPAUD3DXCOLOR@@@Z 1003102a f   d3dx9dt:ccodec.obj
 0001:00030119       ?Decode@CCodec_A16B16G16R16@D3DXTex@@UAEXIIPAUD3DXCOLOR@@@Z 10031119 f   d3dx9dt:ccodec.obj
 0001:00030220       ?Decode@CCodec_R3G3B2@D3DXTex@@UAEXIIPAUD3DXCOLOR@@@Z 10031220 f   d3dx9dt:ccodec.obj
 0001:000302d7       ?Decode@CCodec_A8@D3DXTex@@UAEXIIPAUD3DXCOLOR@@@Z 100312d7 f   d3dx9dt:ccodec.obj
 0001:00030362       ?Decode@CCodec_A8R3G3B2@D3DXTex@@UAEXIIPAUD3DXCOLOR@@@Z 10031362 f   d3dx9dt:ccodec.obj
 0001:00030429       ??0CCodec_R8G8B8@D3DXTex@@QAE@PAUD3DX_BLT@@@Z 10031429 f i d3dx9dt:ccodec.obj
 0001:00030448       ??_GCCodec_R8G8B8@D3DXTex@@UAEPAXI@Z 10031448 f i d3dx9dt:ccodec.obj
 0001:00030448       ??_ECCodec_R8G8B8@D3DXTex@@UAEPAXI@Z 10031448 f i d3dx9dt:ccodec.obj
 0001:00030467       ?Decode@CCodec_X4R4G4B4@D3DXTex@@UAEXIIPAUD3DXCOLOR@@@Z 10031467 f   d3dx9dt:ccodec.obj
 0001:0003051b       ??0CCodec_A8R8G8B8@D3DXTex@@QAE@PAUD3DX_BLT@@@Z 1003151b f i d3dx9dt:ccodec.obj
 0001:0003053a       ??_ECCodec_A8R8G8B8@D3DXTex@@UAEPAXI@Z 1003153a f i d3dx9dt:ccodec.obj
 0001:0003053a       ??_GCCodec_A8R8G8B8@D3DXTex@@UAEPAXI@Z 1003153a f i d3dx9dt:ccodec.obj
 0001:00030559       ?Decode@CCodec_A8P8@D3DXTex@@UAEXIIPAUD3DXCOLOR@@@Z 10031559 f   d3dx9dt:ccodec.obj
 0001:000305f6       ??0CCodec_X8R8G8B8@D3DXTex@@QAE@PAUD3DX_BLT@@@Z 100315f6 f i d3dx9dt:ccodec.obj
 0001:00030615       ??_ECCodec_X8R8G8B8@D3DXTex@@UAEPAXI@Z 10031615 f i d3dx9dt:ccodec.obj
 0001:00030615       ??_GCCodec_X8R8G8B8@D3DXTex@@UAEPAXI@Z 10031615 f i d3dx9dt:ccodec.obj
 0001:00030634       ??0CCodec_R5G6B5@D3DXTex@@QAE@PAUD3DX_BLT@@@Z 10031634 f i d3dx9dt:ccodec.obj
 0001:00030653       ?Decode@CCodec_P8@D3DXTex@@UAEXIIPAUD3DXCOLOR@@@Z 10031653 f   d3dx9dt:ccodec.obj
 0001:000306d0       ??_GCCodec_R5G6B5@D3DXTex@@UAEPAXI@Z 100316d0 f i d3dx9dt:ccodec.obj
 0001:000306d0       ??_ECCodec_R5G6B5@D3DXTex@@UAEPAXI@Z 100316d0 f i d3dx9dt:ccodec.obj
 0001:000306ef       ??0CCodec_X1R5G5B5@D3DXTex@@QAE@PAUD3DX_BLT@@@Z 100316ef f i d3dx9dt:ccodec.obj
 0001:0003070e       ?Decode@CCodec_L8@D3DXTex@@UAEXIIPAUD3DXCOLOR@@@Z 1003170e f   d3dx9dt:ccodec.obj
 0001:00030795       ??_GCCodec_X1R5G5B5@D3DXTex@@UAEPAXI@Z 10031795 f i d3dx9dt:ccodec.obj
 0001:00030795       ??_ECCodec_X1R5G5B5@D3DXTex@@UAEPAXI@Z 10031795 f i d3dx9dt:ccodec.obj
 0001:000307b4       ??0CCodec_A1R5G5B5@D3DXTex@@QAE@PAUD3DX_BLT@@@Z 100317b4 f i d3dx9dt:ccodec.obj
 0001:000307d3       ?Decode@CCodec_A8L8@D3DXTex@@UAEXIIPAUD3DXCOLOR@@@Z 100317d3 f   d3dx9dt:ccodec.obj
 0001:00030871       ??_GCCodec_A1R5G5B5@D3DXTex@@UAEPAXI@Z 10031871 f i d3dx9dt:ccodec.obj
 0001:00030871       ??_ECCodec_A1R5G5B5@D3DXTex@@UAEPAXI@Z 10031871 f i d3dx9dt:ccodec.obj
 0001:00030890       ??0CCodec_A4R4G4B4@D3DXTex@@QAE@PAUD3DX_BLT@@@Z 10031890 f i d3dx9dt:ccodec.obj
 0001:000308af       ?Decode@CCodec_A4L4@D3DXTex@@UAEXIIPAUD3DXCOLOR@@@Z 100318af f   d3dx9dt:ccodec.obj
 0001:0003094d       ??_ECCodec_A4R4G4B4@D3DXTex@@UAEPAXI@Z 1003194d f i d3dx9dt:ccodec.obj
 0001:0003094d       ??_GCCodec_A4R4G4B4@D3DXTex@@UAEPAXI@Z 1003194d f i d3dx9dt:ccodec.obj
 0001:0003096c       ??0CCodec_R3G3B2@D3DXTex@@QAE@PAUD3DX_BLT@@@Z 1003196c f i d3dx9dt:ccodec.obj
 0001:0003098b       ??_GCCodec_R3G3B2@D3DXTex@@UAEPAXI@Z 1003198b f i d3dx9dt:ccodec.obj
 0001:0003098b       ??_ECCodec_R3G3B2@D3DXTex@@UAEPAXI@Z 1003198b f i d3dx9dt:ccodec.obj
 0001:000309aa       ?Decode@CCodec_L16@D3DXTex@@UAEXIIPAUD3DXCOLOR@@@Z 100319aa f   d3dx9dt:ccodec.obj
 0001:00030a33       ??0CCodec_A8@D3DXTex@@QAE@PAUD3DX_BLT@@@Z 10031a33 f i d3dx9dt:ccodec.obj
 0001:00030a52       ??_GCCodec_A8@D3DXTex@@UAEPAXI@Z 10031a52 f i d3dx9dt:ccodec.obj
 0001:00030a52       ??_ECCodec_A8@D3DXTex@@UAEPAXI@Z 10031a52 f i d3dx9dt:ccodec.obj
 0001:00030a71       ?Decode@CCodec_V8U8@D3DXTex@@UAEXIIPAUD3DXCOLOR@@@Z 10031a71 f   d3dx9dt:ccodec.obj
 0001:00030b2c       ??0CCodec_A8R3G3B2@D3DXTex@@QAE@PAUD3DX_BLT@@@Z 10031b2c f i d3dx9dt:ccodec.obj
 0001:00030b4b       ??_GCCodec_A8R3G3B2@D3DXTex@@UAEPAXI@Z 10031b4b f i d3dx9dt:ccodec.obj
 0001:00030b4b       ??_ECCodec_A8R3G3B2@D3DXTex@@UAEPAXI@Z 10031b4b f i d3dx9dt:ccodec.obj
 0001:00030b6a       ??0CCodec_X4R4G4B4@D3DXTex@@QAE@PAUD3DX_BLT@@@Z 10031b6a f i d3dx9dt:ccodec.obj
 0001:00030b89       ?Decode@CCodec_L6V5U5@D3DXTex@@UAEXIIPAUD3DXCOLOR@@@Z 10031b89 f   d3dx9dt:ccodec.obj
 0001:00030c69       ??_GCCodec_X4R4G4B4@D3DXTex@@UAEPAXI@Z 10031c69 f i d3dx9dt:ccodec.obj
 0001:00030c69       ??_ECCodec_X4R4G4B4@D3DXTex@@UAEPAXI@Z 10031c69 f i d3dx9dt:ccodec.obj
 0001:00030c88       ??0CCodec_A2B10G10R10@D3DXTex@@QAE@PAUD3DX_BLT@@@Z 10031c88 f i d3dx9dt:ccodec.obj
 0001:00030ca7       ??_GCCodec_A2B10G10R10@D3DXTex@@UAEPAXI@Z 10031ca7 f i d3dx9dt:ccodec.obj
 0001:00030ca7       ??_ECCodec_A2B10G10R10@D3DXTex@@UAEPAXI@Z 10031ca7 f i d3dx9dt:ccodec.obj
 0001:00030cc6       ?Decode@CCodec_X8L8V8U8@D3DXTex@@UAEXIIPAUD3DXCOLOR@@@Z 10031cc6 f   d3dx9dt:ccodec.obj
 0001:00030d92       ??0CCodec_A8B8G8R8@D3DXTex@@QAE@PAUD3DX_BLT@@@Z 10031d92 f i d3dx9dt:ccodec.obj
 0001:00030db1       ??_GCCodec_A8B8G8R8@D3DXTex@@UAEPAXI@Z 10031db1 f i d3dx9dt:ccodec.obj
 0001:00030db1       ??_ECCodec_A8B8G8R8@D3DXTex@@UAEPAXI@Z 10031db1 f i d3dx9dt:ccodec.obj
 0001:00030dd0       ??0CCodec_X8B8G8R8@D3DXTex@@QAE@PAUD3DX_BLT@@@Z 10031dd0 f i d3dx9dt:ccodec.obj
 0001:00030def       ?Decode@CCodec_Q8W8V8U8@D3DXTex@@UAEXIIPAUD3DXCOLOR@@@Z 10031def f   d3dx9dt:ccodec.obj
 0001:00030eea       ??_GCCodec_X8B8G8R8@D3DXTex@@UAEPAXI@Z 10031eea f i d3dx9dt:ccodec.obj
 0001:00030eea       ??_ECCodec_X8B8G8R8@D3DXTex@@UAEPAXI@Z 10031eea f i d3dx9dt:ccodec.obj
 0001:00030f09       ??0CCodec_G16R16@D3DXTex@@QAE@PAUD3DX_BLT@@@Z 10031f09 f i d3dx9dt:ccodec.obj
 0001:00030f28       ??_ECCodec_G16R16@D3DXTex@@UAEPAXI@Z 10031f28 f i d3dx9dt:ccodec.obj
 0001:00030f28       ??_GCCodec_G16R16@D3DXTex@@UAEPAXI@Z 10031f28 f i d3dx9dt:ccodec.obj
 0001:00030f47       ?Decode@CCodec_V16U16@D3DXTex@@UAEXIIPAUD3DXCOLOR@@@Z 10031f47 f   d3dx9dt:ccodec.obj
 0001:00031009       ??0CCodec_A2R10G10B10@D3DXTex@@QAE@PAUD3DX_BLT@@@Z 10032009 f i d3dx9dt:ccodec.obj
 0001:00031028       ??_GCCodec_A2R10G10B10@D3DXTex@@UAEPAXI@Z 10032028 f i d3dx9dt:ccodec.obj
 0001:00031028       ??_ECCodec_A2R10G10B10@D3DXTex@@UAEPAXI@Z 10032028 f i d3dx9dt:ccodec.obj
 0001:00031047       ??0CCodec_A16B16G16R16@D3DXTex@@QAE@PAUD3DX_BLT@@@Z 10032047 f i d3dx9dt:ccodec.obj
 0001:00031066       ??_GCCodec_A16B16G16R16@D3DXTex@@UAEPAXI@Z 10032066 f i d3dx9dt:ccodec.obj
 0001:00031066       ??_ECCodec_A16B16G16R16@D3DXTex@@UAEPAXI@Z 10032066 f i d3dx9dt:ccodec.obj
 0001:00031085       ?Decode@CCodec_A2W10V10U10@D3DXTex@@UAEXIIPAUD3DXCOLOR@@@Z 10032085 f   d3dx9dt:ccodec.obj
 0001:0003119e       ??0CCodec_A8P8@D3DXTex@@QAE@PAUD3DX_BLT@@@Z 1003219e f i d3dx9dt:ccodec.obj
 0001:000311bd       ??_GCCodec_A8P8@D3DXTex@@UAEPAXI@Z 100321bd f i d3dx9dt:ccodec.obj
 0001:000311bd       ??_ECCodec_A8P8@D3DXTex@@UAEPAXI@Z 100321bd f i d3dx9dt:ccodec.obj
 0001:000311dc       ??0CCodec_P8@D3DXTex@@QAE@PAUD3DX_BLT@@@Z 100321dc f i d3dx9dt:ccodec.obj
 0001:000311fb       ?Decode@CCodec_Q16W16V16U16@D3DXTex@@UAEXIIPAUD3DXCOLOR@@@Z 100321fb f   d3dx9dt:ccodec.obj
 0001:00031312       ??_GCCodec_P8@D3DXTex@@UAEPAXI@Z 10032312 f i d3dx9dt:ccodec.obj
 0001:00031312       ??_ECCodec_P8@D3DXTex@@UAEPAXI@Z 10032312 f i d3dx9dt:ccodec.obj
 0001:00031331       ??0CCodec_L8@D3DXTex@@QAE@PAUD3DX_BLT@@@Z 10032331 f i d3dx9dt:ccodec.obj
 0001:00031350       ??_ECCodec_L8@D3DXTex@@UAEPAXI@Z 10032350 f i d3dx9dt:ccodec.obj
 0001:00031350       ??_GCCodec_L8@D3DXTex@@UAEPAXI@Z 10032350 f i d3dx9dt:ccodec.obj
 0001:0003136f       ?Decode@CCodec_CxV8U8@D3DXTex@@UAEXIIPAUD3DXCOLOR@@@Z 1003236f f   d3dx9dt:ccodec.obj
 0001:00031450       ??0CCodec_A8L8@D3DXTex@@QAE@PAUD3DX_BLT@@@Z 10032450 f i d3dx9dt:ccodec.obj
 0001:0003146f       ??_ECCodec_A8L8@D3DXTex@@UAEPAXI@Z 1003246f f i d3dx9dt:ccodec.obj
 0001:0003146f       ??_GCCodec_A8L8@D3DXTex@@UAEPAXI@Z 1003246f f i d3dx9dt:ccodec.obj
 0001:0003148e       ??0CCodec_A4L4@D3DXTex@@QAE@PAUD3DX_BLT@@@Z 1003248e f i d3dx9dt:ccodec.obj
 0001:000314ad       ??_GCCodec_A4L4@D3DXTex@@UAEPAXI@Z 100324ad f i d3dx9dt:ccodec.obj
 0001:000314ad       ??_ECCodec_A4L4@D3DXTex@@UAEPAXI@Z 100324ad f i d3dx9dt:ccodec.obj
 0001:000314cc       ?Decode@CCodec_D16_LOCKABLE@D3DXTex@@UAEXIIPAUD3DXCOLOR@@@Z 100324cc f   d3dx9dt:ccodec.obj
 0001:00031555       ??0CCodec_L16@D3DXTex@@QAE@PAUD3DX_BLT@@@Z 10032555 f i d3dx9dt:ccodec.obj
 0001:00031574       ??_GCCodec_L16@D3DXTex@@UAEPAXI@Z 10032574 f i d3dx9dt:ccodec.obj
 0001:00031574       ??_ECCodec_L16@D3DXTex@@UAEPAXI@Z 10032574 f i d3dx9dt:ccodec.obj
 0001:00031593       ?Decode@CCodec_D32F_LOCKABLE@D3DXTex@@UAEXIIPAUD3DXCOLOR@@@Z 10032593 f   d3dx9dt:ccodec.obj
 0001:00031614       ??0CCodec_V8U8@D3DXTex@@QAE@PAUD3DX_BLT@@@Z 10032614 f i d3dx9dt:ccodec.obj
 0001:00031633       ??_ECCodec_V8U8@D3DXTex@@UAEPAXI@Z 10032633 f i d3dx9dt:ccodec.obj
 0001:00031633       ??_GCCodec_V8U8@D3DXTex@@UAEPAXI@Z 10032633 f i d3dx9dt:ccodec.obj
 0001:00031652       ?Decode@CCodec_R16F@D3DXTex@@UAEXIIPAUD3DXCOLOR@@@Z 10032652 f   d3dx9dt:ccodec.obj
 0001:000316e3       ??0CCodec_L6V5U5@D3DXTex@@QAE@PAUD3DX_BLT@@@Z 100326e3 f i d3dx9dt:ccodec.obj
 0001:00031702       ??_GCCodec_L6V5U5@D3DXTex@@UAEPAXI@Z 10032702 f i d3dx9dt:ccodec.obj
 0001:00031702       ??_ECCodec_L6V5U5@D3DXTex@@UAEPAXI@Z 10032702 f i d3dx9dt:ccodec.obj
 0001:00031721       ??0CCodec_X8L8V8U8@D3DXTex@@QAE@PAUD3DX_BLT@@@Z 10032721 f i d3dx9dt:ccodec.obj
 0001:00031740       ?Decode@CCodec_G16R16F@D3DXTex@@UAEXIIPAUD3DXCOLOR@@@Z 10032740 f   d3dx9dt:ccodec.obj
 0001:000317cd       ??_GCCodec_X8L8V8U8@D3DXTex@@UAEPAXI@Z 100327cd f i d3dx9dt:ccodec.obj
 0001:000317cd       ??_ECCodec_X8L8V8U8@D3DXTex@@UAEPAXI@Z 100327cd f i d3dx9dt:ccodec.obj
 0001:000317ec       ??0CCodec_Q8W8V8U8@D3DXTex@@QAE@PAUD3DX_BLT@@@Z 100327ec f i d3dx9dt:ccodec.obj
 0001:0003180b       ?Decode@CCodec_A16B16G16R16F@D3DXTex@@UAEXIIPAUD3DXCOLOR@@@Z 1003280b f   d3dx9dt:ccodec.obj
 0001:00031862       ??_GCCodec_Q8W8V8U8@D3DXTex@@UAEPAXI@Z 10032862 f i d3dx9dt:ccodec.obj
 0001:00031862       ??_ECCodec_Q8W8V8U8@D3DXTex@@UAEPAXI@Z 10032862 f i d3dx9dt:ccodec.obj
 0001:00031881       ?Decode@CCodec_R32F@D3DXTex@@UAEXIIPAUD3DXCOLOR@@@Z 10032881 f   d3dx9dt:ccodec.obj
 0001:00031902       ??0CCodec_V16U16@D3DXTex@@QAE@PAUD3DX_BLT@@@Z 10032902 f i d3dx9dt:ccodec.obj
 0001:00031921       ??_GCCodec_V16U16@D3DXTex@@UAEPAXI@Z 10032921 f i d3dx9dt:ccodec.obj
 0001:00031921       ??_ECCodec_V16U16@D3DXTex@@UAEPAXI@Z 10032921 f i d3dx9dt:ccodec.obj
 0001:00031940       ?Decode@CCodec_G32R32F@D3DXTex@@UAEXIIPAUD3DXCOLOR@@@Z 10032940 f   d3dx9dt:ccodec.obj
 0001:000319c2       ?Decode@CCodec_A32B32G32R32F@D3DXTex@@UAEXIIPAUD3DXCOLOR@@@Z 100329c2 f   d3dx9dt:ccodec.obj
 0001:00031a24       ?Decode@CCodec_D3DX_A16L16@D3DXTex@@UAEXIIPAUD3DXCOLOR@@@Z 10032a24 f   d3dx9dt:ccodec.obj
 0001:00031acb       ??0CCodec_A2W10V10U10@D3DXTex@@QAE@PAUD3DX_BLT@@@Z 10032acb f i d3dx9dt:ccodec.obj
 0001:00031aea       ??_GCCodec_A2W10V10U10@D3DXTex@@UAEPAXI@Z 10032aea f i d3dx9dt:ccodec.obj
 0001:00031aea       ??_ECCodec_A2W10V10U10@D3DXTex@@UAEPAXI@Z 10032aea f i d3dx9dt:ccodec.obj
 0001:00031b09       ??0CCodec_Q16W16V16U16@D3DXTex@@QAE@PAUD3DX_BLT@@@Z 10032b09 f i d3dx9dt:ccodec.obj
 0001:00031b28       ?Decode@CCodec_D3DX_R16G16B16@D3DXTex@@UAEXIIPAUD3DXCOLOR@@@Z 10032b28 f   d3dx9dt:ccodec.obj
 0001:00031bcd       ??_ECCodec_Q16W16V16U16@D3DXTex@@UAEPAXI@Z 10032bcd f i d3dx9dt:ccodec.obj
 0001:00031bcd       ??_GCCodec_Q16W16V16U16@D3DXTex@@UAEPAXI@Z 10032bcd f i d3dx9dt:ccodec.obj
 0001:00031bec       ??0CCodec_CxV8U8@D3DXTex@@QAE@PAUD3DX_BLT@@@Z 10032bec f i d3dx9dt:ccodec.obj
 0001:00031c0b       ??_ECCodec_CxV8U8@D3DXTex@@UAEPAXI@Z 10032c0b f i d3dx9dt:ccodec.obj
 0001:00031c0b       ??_GCCodec_CxV8U8@D3DXTex@@UAEPAXI@Z 10032c0b f i d3dx9dt:ccodec.obj
 0001:00031c2a       ??0CCodecYUV@D3DXTex@@QAE@PAUD3DX_BLT@@@Z 10032c2a f   d3dx9dt:ccodec.obj
 0001:00031d1c       ??0CCodec_D16_LOCKABLE@D3DXTex@@QAE@PAUD3DX_BLT@@@Z 10032d1c f i d3dx9dt:ccodec.obj
 0001:00031d3b       ??_GCCodec_D16_LOCKABLE@D3DXTex@@UAEPAXI@Z 10032d3b f i d3dx9dt:ccodec.obj
 0001:00031d3b       ??_ECCodec_D16_LOCKABLE@D3DXTex@@UAEPAXI@Z 10032d3b f i d3dx9dt:ccodec.obj
 0001:00031d5a       ??0CCodec_D32F_LOCKABLE@D3DXTex@@QAE@PAUD3DX_BLT@@@Z 10032d5a f i d3dx9dt:ccodec.obj
 0001:00031d79       ??_GCCodec_D32F_LOCKABLE@D3DXTex@@UAEPAXI@Z 10032d79 f i d3dx9dt:ccodec.obj
 0001:00031d79       ??_ECCodec_D32F_LOCKABLE@D3DXTex@@UAEPAXI@Z 10032d79 f i d3dx9dt:ccodec.obj
 0001:00031d98       ??0CCodec_R16F@D3DXTex@@QAE@PAUD3DX_BLT@@@Z 10032d98 f i d3dx9dt:ccodec.obj
 0001:00031db7       ??_GCCodec_R16F@D3DXTex@@UAEPAXI@Z 10032db7 f i d3dx9dt:ccodec.obj
 0001:00031db7       ??_ECCodec_R16F@D3DXTex@@UAEPAXI@Z 10032db7 f i d3dx9dt:ccodec.obj
 0001:00031dd6       ?Commit@CCodecYUV@D3DXTex@@QAEJXZ 10032dd6 f   d3dx9dt:ccodec.obj
 0001:000320e6       ??0CCodec_G16R16F@D3DXTex@@QAE@PAUD3DX_BLT@@@Z 100330e6 f i d3dx9dt:ccodec.obj
 0001:00032105       ??_ECCodec_G16R16F@D3DXTex@@UAEPAXI@Z 10033105 f i d3dx9dt:ccodec.obj
 0001:00032105       ??_GCCodec_G16R16F@D3DXTex@@UAEPAXI@Z 10033105 f i d3dx9dt:ccodec.obj
 0001:00032124       ??0CCodec_A16B16G16R16F@D3DXTex@@QAE@PAUD3DX_BLT@@@Z 10033124 f i d3dx9dt:ccodec.obj
 0001:00032143       ??_ECCodec_A16B16G16R16F@D3DXTex@@UAEPAXI@Z 10033143 f i d3dx9dt:ccodec.obj
 0001:00032143       ??_GCCodec_A16B16G16R16F@D3DXTex@@UAEPAXI@Z 10033143 f i d3dx9dt:ccodec.obj
 0001:00032162       ??0CCodec_R32F@D3DXTex@@QAE@PAUD3DX_BLT@@@Z 10033162 f i d3dx9dt:ccodec.obj
 0001:00032181       ??_GCCodec_R32F@D3DXTex@@UAEPAXI@Z 10033181 f i d3dx9dt:ccodec.obj
 0001:00032181       ??_ECCodec_R32F@D3DXTex@@UAEPAXI@Z 10033181 f i d3dx9dt:ccodec.obj
 0001:000321a0       ??0CCodec_G32R32F@D3DXTex@@QAE@PAUD3DX_BLT@@@Z 100331a0 f i d3dx9dt:ccodec.obj
 0001:000321bf       ??_GCCodec_G32R32F@D3DXTex@@UAEPAXI@Z 100331bf f i d3dx9dt:ccodec.obj
 0001:000321bf       ??_ECCodec_G32R32F@D3DXTex@@UAEPAXI@Z 100331bf f i d3dx9dt:ccodec.obj
 0001:000321de       ?Fetch@CCodecYUV@D3DXTex@@QAEJIIH@Z 100331de f   d3dx9dt:ccodec.obj
 0001:000325aa       ??0CCodec_A32B32G32R32F@D3DXTex@@QAE@PAUD3DX_BLT@@@Z 100335aa f i d3dx9dt:ccodec.obj
 0001:000325cc       ??_GCCodec_A32B32G32R32F@D3DXTex@@UAEPAXI@Z 100335cc f i d3dx9dt:ccodec.obj
 0001:000325cc       ??_ECCodec_A32B32G32R32F@D3DXTex@@UAEPAXI@Z 100335cc f i d3dx9dt:ccodec.obj
 0001:000325eb       ??0CCodec_D3DX_A16L16@D3DXTex@@QAE@PAUD3DX_BLT@@@Z 100335eb f i d3dx9dt:ccodec.obj
 0001:0003260a       ??_ECCodec_D3DX_A16L16@D3DXTex@@UAEPAXI@Z 1003360a f i d3dx9dt:ccodec.obj
 0001:0003260a       ??_GCCodec_D3DX_A16L16@D3DXTex@@UAEPAXI@Z 1003360a f i d3dx9dt:ccodec.obj
 0001:00032629       ??0CCodec_D3DX_R16G16B16@D3DXTex@@QAE@PAUD3DX_BLT@@@Z 10033629 f i d3dx9dt:ccodec.obj
 0001:00032648       ??_GCCodec_D3DX_R16G16B16@D3DXTex@@UAEPAXI@Z 10033648 f i d3dx9dt:ccodec.obj
 0001:00032648       ??_ECCodec_D3DX_R16G16B16@D3DXTex@@UAEPAXI@Z 10033648 f i d3dx9dt:ccodec.obj
 0001:00032667       ?Encode@CCodecYUV@D3DXTex@@UAEXIIPAUD3DXCOLOR@@@Z 10033667 f   d3dx9dt:ccodec.obj
 0001:00032705       ?Decode@CCodecYUV@D3DXTex@@UAEXIIPAUD3DXCOLOR@@@Z 10033705 f   d3dx9dt:ccodec.obj
 0001:00032784       ??0CCodecDXT@D3DXTex@@QAE@PAUD3DX_BLT@@@Z 10033784 f   d3dx9dt:ccodec.obj
 0001:00032973       ??0CCodec_DXT3@D3DXTex@@QAE@PAUD3DX_BLT@@@Z 10033973 f i d3dx9dt:ccodec.obj
 0001:0003298e       ??0CCodec_DXT4@D3DXTex@@QAE@PAUD3DX_BLT@@@Z 1003398e f i d3dx9dt:ccodec.obj
 0001:000329a9       ??0CCodec_DXT5@D3DXTex@@QAE@PAUD3DX_BLT@@@Z 100339a9 f i d3dx9dt:ccodec.obj
 0001:000329c4       ??_GCCodecDXT@D3DXTex@@UAEPAXI@Z 100339c4 f i d3dx9dt:ccodec.obj
 0001:000329c4       ??_ECCodecDXT@D3DXTex@@UAEPAXI@Z 100339c4 f i d3dx9dt:ccodec.obj
 0001:000329e3       ?Encode@CCodecDXT@D3DXTex@@UAEXIIPAUD3DXCOLOR@@@Z 100339e3 f   d3dx9dt:ccodec.obj
 0001:00032e28       ?Decode@CCodecDXT@D3DXTex@@UAEXIIPAUD3DXCOLOR@@@Z 10033e28 f   d3dx9dt:ccodec.obj
 0001:000330e7       ??1CCodecYUV@D3DXTex@@UAE@XZ 100340e7 f   d3dx9dt:ccodec.obj
 0001:0003310e       ??0CCodec_UYVY@D3DXTex@@QAE@PAUD3DX_BLT@@@Z 1003410e f i d3dx9dt:ccodec.obj
 0001:00033129       ??0CCodec_G8R8_G8B8@D3DXTex@@QAE@PAUD3DX_BLT@@@Z 10034129 f i d3dx9dt:ccodec.obj
 0001:00033144       ??0CCodec_YUY2@D3DXTex@@QAE@PAUD3DX_BLT@@@Z 10034144 f i d3dx9dt:ccodec.obj
 0001:0003315f       ??0CCodec_R8G8_B8G8@D3DXTex@@QAE@PAUD3DX_BLT@@@Z 1003415f f i d3dx9dt:ccodec.obj
 0001:0003317a       ??0CCodec_DXT1@D3DXTex@@QAE@PAUD3DX_BLT@@@Z 1003417a f i d3dx9dt:ccodec.obj
 0001:00033195       ??_GCCodec_DXT1@D3DXTex@@UAEPAXI@Z 10034195 f i d3dx9dt:ccodec.obj
 0001:00033195       ??_ECCodec_DXT1@D3DXTex@@UAEPAXI@Z 10034195 f i d3dx9dt:ccodec.obj
 0001:000331b4       ??0CCodec_DXT2@D3DXTex@@QAE@PAUD3DX_BLT@@@Z 100341b4 f i d3dx9dt:ccodec.obj
 0001:000331cf       ??_GCCodec_DXT2@D3DXTex@@UAEPAXI@Z 100341cf f i d3dx9dt:ccodec.obj
 0001:000331cf       ??_ECCodec_DXT2@D3DXTex@@UAEPAXI@Z 100341cf f i d3dx9dt:ccodec.obj
 0001:000331ee       ??_GCCodec_DXT3@D3DXTex@@UAEPAXI@Z 100341ee f i d3dx9dt:ccodec.obj
 0001:000331ee       ??_ECCodec_DXT3@D3DXTex@@UAEPAXI@Z 100341ee f i d3dx9dt:ccodec.obj
 0001:0003320d       ??_ECCodec_DXT4@D3DXTex@@UAEPAXI@Z 1003420d f i d3dx9dt:ccodec.obj
 0001:0003320d       ??_GCCodec_DXT4@D3DXTex@@UAEPAXI@Z 1003420d f i d3dx9dt:ccodec.obj
 0001:0003322c       ??_GCCodec_DXT5@D3DXTex@@UAEPAXI@Z 1003422c f i d3dx9dt:ccodec.obj
 0001:0003322c       ??_ECCodec_DXT5@D3DXTex@@UAEPAXI@Z 1003422c f i d3dx9dt:ccodec.obj
 0001:0003324b       ?Create@CCodec@D3DXTex@@SGPAV12@PAUD3DX_BLT@@@Z 1003424b f   d3dx9dt:ccodec.obj
 0001:000339fa       ??_ECCodecYUV@D3DXTex@@UAEPAXI@Z 100349fa f i d3dx9dt:ccodec.obj
 0001:000339fa       ??_GCCodecYUV@D3DXTex@@UAEPAXI@Z 100349fa f i d3dx9dt:ccodec.obj
 0001:00033a19       ??_GCCodec_UYVY@D3DXTex@@UAEPAXI@Z 10034a19 f i d3dx9dt:ccodec.obj
 0001:00033a19       ??_ECCodec_UYVY@D3DXTex@@UAEPAXI@Z 10034a19 f i d3dx9dt:ccodec.obj
 0001:00033a38       ??_ECCodec_G8R8_G8B8@D3DXTex@@UAEPAXI@Z 10034a38 f i d3dx9dt:ccodec.obj
 0001:00033a38       ??_GCCodec_G8R8_G8B8@D3DXTex@@UAEPAXI@Z 10034a38 f i d3dx9dt:ccodec.obj
 0001:00033a57       ??_GCCodec_YUY2@D3DXTex@@UAEPAXI@Z 10034a57 f i d3dx9dt:ccodec.obj
 0001:00033a57       ??_ECCodec_YUY2@D3DXTex@@UAEPAXI@Z 10034a57 f i d3dx9dt:ccodec.obj
 0001:00033a76       ??_GCCodec_R8G8_B8G8@D3DXTex@@UAEPAXI@Z 10034a76 f i d3dx9dt:ccodec.obj
 0001:00033a76       ??_ECCodec_R8G8_B8G8@D3DXTex@@UAEPAXI@Z 10034a76 f i d3dx9dt:ccodec.obj
 0001:00034036       ?FXLGetArguments@D3DXShader@@YGJKPAN0PAPAX000AAPAKPAPANKKKKKKH@Z 10035036 f i d3dx9dt:fxlvm.obj
 0001:00034188       ?FXLPreSort@D3DXShader@@YGJPAXPAPAK1@Z 10035188 f   d3dx9dt:fxlvm.obj
 0001:0003427e       ?FXLExecutePreSort@D3DXShader@@YGJPAK0PAN1PAPAX1KKKK@Z 1003527e f   d3dx9dt:fxlvm.obj
 0001:0003484c       ?FXLExecute@D3DXShader@@YGJPAXPAN1PAPAX1KKKK@Z 1003584c f   d3dx9dt:fxlvm.obj
 0001:0003488b       ??0CFile@D3DXCore@@QAE@XZ  1003588b f   d3dx9dt:cfile.obj
 0001:0003489d       ?Open@CFile@D3DXCore@@QAEJPBXH@Z 1003589d f   d3dx9dt:cfile.obj
 0001:00034a04       ?Create@CFile@D3DXCore@@QAEJPBXH@Z 10035a04 f   d3dx9dt:cfile.obj
 0001:00034b22       ?Close@CFile@D3DXCore@@QAEJXZ 10035b22 f   d3dx9dt:cfile.obj
 0001:00034b63       ??1CFile@D3DXCore@@QAE@XZ  10035b63 f   d3dx9dt:cfile.obj
 0001:00034b6e       ??0CResource@D3DXCore@@QAE@XZ 10035b6e f   d3dx9dt:cresource.obj
 0001:00034b7b       ??1CResource@D3DXCore@@QAE@XZ 10035b7b f   d3dx9dt:cresource.obj
 0001:00034b89       ?Close@CResource@D3DXCore@@QAEJXZ 10035b89 f   d3dx9dt:cresource.obj
 0001:00034ba8       ?Open@CResource@D3DXCore@@QAEJPAUHINSTANCE__@@PBXHH@Z 10035ba8 f   d3dx9dt:cresource.obj
 0001:00034e13       ?sse_D3DXInitFastTable@@YAXPAUD3DXFASTTABLE@@@Z 10035e13 f   d3dx9dt:ssefasttable.obj
 0001:00034f84       ?intel_D3DXInitFastTable@@YGXPAUD3DXFASTTABLE@@@Z 10035f84 f   d3dx9dt:ssefasttable.obj
 0001:00034fb9       ?sse2_D3DXInitFastTable@@YAXPAUD3DXFASTTABLE@@@Z 10035fb9 f   d3dx9dt:ssefasttable2.obj
 0001:00035120       ?get_feature_flags@@YGIXZ  10036120 f   d3dx9dt:d3dxmathx3d.obj
 0001:00035204       ?x3d_D3DXInitFastTable@@YAXPAUD3DXFASTTABLE@@@Z 10036204 f   d3dx9dt:d3dxmathx3d.obj
 0001:00035495       ?x86_D3DXVec2Transform@@YGPAUD3DXVECTOR4@@PAU1@PBUD3DXVECTOR2@@PBUD3DXMATRIX@@@Z 10036495 f   d3dx9dt:d3dxmathx86.obj
 0001:00035513       ?x86_D3DXVec2TransformNormal@@YGPAUD3DXVECTOR2@@PAU1@PBU1@PBUD3DXMATRIX@@@Z 10036513 f   d3dx9dt:d3dxmathx86.obj
 0001:0003555d       ?x86_D3DXVec3Transform@@YGPAUD3DXVECTOR4@@PAU1@PBUD3DXVECTOR3@@PBUD3DXMATRIX@@@Z 1003655d f   d3dx9dt:d3dxmathx86.obj
 0001:00035609       ?x86_D3DXVec3TransformNormal@@YGPAUD3DXVECTOR3@@PAU1@PBU1@PBUD3DXMATRIX@@@Z 10036609 f   d3dx9dt:d3dxmathx86.obj
 0001:0003567d       ?x86_D3DXVec4Transform@@YGPAUD3DXVECTOR4@@PAU1@PBU1@PBUD3DXMATRIX@@@Z 1003667d f   d3dx9dt:d3dxmathx86.obj
 0001:00035737       ?TableInvSqrt@@YIMM@Z      10036737 f   d3dx9dt:d3dxmathx86.obj
 0001:0003577c       ?x86_D3DXVec3Normalize@@YGPAUD3DXVECTOR3@@PAU1@PBU1@@Z 1003677c f   d3dx9dt:d3dxmathx86.obj
 0001:00035859       ?x86_D3DXMatrixMultiply@@YGPAUD3DXMATRIX@@PAU1@PBU1@1@Z 10036859 f   d3dx9dt:d3dxmathx86.obj
 0001:0003595a       ?x86_D3DXMatrixMultiplyTranspose@@YGPAUD3DXMATRIX@@PAU1@PBU1@1@Z 1003695a f   d3dx9dt:d3dxmathx86.obj
 0001:00035a08       ?x86_D3DXInitFastTable@@YGXPAUD3DXFASTTABLE@@@Z 10036a08 f   d3dx9dt:d3dxmathx86.obj
 0001:00035aa0       ?jpeg_read_scanlines@D3DX@@YGIPAUjpeg_decompress_struct@1@PAPAEI@Z 10036aa0 f   d3dx9dt:jdapistd.obj
 0001:00035b25       ?jpeg_read_raw_data@D3DX@@YGIPAUjpeg_decompress_struct@1@PAPAPAEI@Z 10036b25 f   d3dx9dt:jdapistd.obj
 0001:00035bc4       ?jpeg_start_output@D3DX@@YGHPAUjpeg_decompress_struct@1@H@Z 10036bc4 f   d3dx9dt:jdapistd.obj
 0001:00035c24       ?jpeg_finish_output@D3DX@@YGHPAUjpeg_decompress_struct@1@@Z 10036c24 f   d3dx9dt:jdapistd.obj
 0001:00035ca8       ?jpeg_start_decompress@D3DX@@YGHPAUjpeg_decompress_struct@1@@Z 10036ca8 f   d3dx9dt:jdapistd.obj
 0001:00035d71       ?jpeg_CreateDecompress@D3DX@@YGXPAUjpeg_decompress_struct@1@HI@Z 10036d71 f   d3dx9dt:jdapimin.obj
 0001:00035e2c       ?jpeg_destroy_decompress@D3DX@@YGXPAUjpeg_decompress_struct@1@@Z 10036e2c f   d3dx9dt:jdapimin.obj
 0001:00035e35       ?jpeg_abort_decompress@D3DX@@YGXPAUjpeg_decompress_struct@1@@Z 10036e35 f   d3dx9dt:jdapimin.obj
 0001:00035fa2       ?jpeg_consume_input@D3DX@@YGHPAUjpeg_decompress_struct@1@@Z 10036fa2 f   d3dx9dt:jdapimin.obj
 0001:0003603c       ?jpeg_input_complete@D3DX@@YGHPAUjpeg_decompress_struct@1@@Z 1003703c f   d3dx9dt:jdapimin.obj
 0001:00036078       ?jpeg_has_multiple_scans@D3DX@@YGHPAUjpeg_decompress_struct@1@@Z 10037078 f   d3dx9dt:jdapimin.obj
 0001:000360b4       ?jpeg_finish_decompress@D3DX@@YGHPAUjpeg_decompress_struct@1@@Z 100370b4 f   d3dx9dt:jdapimin.obj
 0001:00036156       ?jpeg_read_header@D3DX@@YGHPAUjpeg_decompress_struct@1@H@Z 10037156 f   d3dx9dt:jdapimin.obj
 0001:00037811       ?jpeg_resync_to_restart@D3DX@@YGHPAUjpeg_decompress_struct@1@H@Z 10038811 f   d3dx9dt:jdmarker.obj
 0001:0003792f       ?jinit_marker_reader@D3DX@@YGXPAUjpeg_decompress_struct@1@@Z 1003892f f   d3dx9dt:jdmarker.obj
 0001:00037993       ?jpeg_save_markers@D3DX@@YGXPAUjpeg_decompress_struct@1@HI@Z 10038993 f   d3dx9dt:jdmarker.obj
 0001:00037a3f       ?jpeg_save_markers_all@D3DX@@YGXPAUjpeg_decompress_struct@1@HIP6GH0@Z@Z 10038a3f f   d3dx9dt:jdmarker.obj
 0001:00037ae9       ?jpeg_set_marker_processor@D3DX@@YGXPAUjpeg_decompress_struct@1@HP6GH0@Z@Z 10038ae9 f   d3dx9dt:jdmarker.obj
 0001:00037c56       ?jpeg_std_error@D3DX@@YGPAUjpeg_error_mgr@1@PAU21@@Z 10038c56 f   d3dx9dt:jerror.obj
 0001:00037d42       ?png_set_error_fn@D3DX@@YGXPAUpng_struct_def@1@PAXP6AX0PBD@Z3@Z 10038d42 f   d3dx9dt:pngerror.obj
 0001:00037d5e       ?png_get_error_ptr@D3DX@@YGPAXPAUpng_struct_def@1@@Z 10038d5e f   d3dx9dt:pngerror.obj
 0001:00037d6b       ?png_error@D3DX@@YGXPAUpng_struct_def@1@PBD@Z 10038d6b f   d3dx9dt:pngerror.obj
 0001:00037d8a       ?png_warning@D3DX@@YGXPAUpng_struct_def@1@PBD@Z 10038d8a f   d3dx9dt:pngerror.obj
 0001:00037da3       ?png_chunk_error@D3DX@@YGXPAUpng_struct_def@1@PBD@Z 10038da3 f   d3dx9dt:pngerror.obj
 0001:00037dc7       ?png_chunk_warning@D3DX@@YGXPAUpng_struct_def@1@PBD@Z 10038dc7 f   d3dx9dt:pngerror.obj
 0001:00037deb       ?png_create_read_struct@D3DX@@YGPAUpng_struct_def@1@PBDPAXP6AXPAU21@0@Z3@Z 10038deb f   d3dx9dt:pngread.obj
 0001:00037edf       ?png_read_init@D3DX@@YGXPAUpng_struct_def@1@@Z 10038edf f   d3dx9dt:pngread.obj
 0001:00037f99       ?png_read_info@D3DX@@YGXPAUpng_struct_def@1@PAUpng_info_struct@1@@Z 10038f99 f   d3dx9dt:pngread.obj
 0001:00038107       ?png_read_update_info@D3DX@@YGXPAUpng_struct_def@1@PAUpng_info_struct@1@@Z 10039107 f   d3dx9dt:pngread.obj
 0001:00038128       ?png_start_read_image@D3DX@@YGXPAUpng_struct_def@1@@Z 10039128 f   d3dx9dt:pngread.obj
 0001:0003813e       ?png_read_row@D3DX@@YGXPAUpng_struct_def@1@PAE1@Z 1003913e f   d3dx9dt:pngread.obj
 0001:000384c1       ?png_read_rows@D3DX@@YGXPAUpng_struct_def@1@PAPAE1K@Z 100394c1 f   d3dx9dt:pngread.obj
 0001:00038534       ?png_read_image@D3DX@@YGXPAUpng_struct_def@1@PAPAE@Z 10039534 f   d3dx9dt:pngread.obj
 0001:0003857f       ?png_read_end@D3DX@@YGXPAUpng_struct_def@1@PAUpng_info_struct@1@@Z 1003957f f   d3dx9dt:pngread.obj
 0001:00038677       ?png_read_destroy@D3DX@@YGXPAUpng_struct_def@1@PAUpng_info_struct@1@1@Z 10039677 f   d3dx9dt:pngread.obj
 0001:0003878c       ?png_set_read_status_fn@D3DX@@YGXPAUpng_struct_def@1@P6AX0KH@Z@Z 1003978c f   d3dx9dt:pngread.obj
 0001:0003879f       ?png_destroy_read_struct@D3DX@@YGXPAPAUpng_struct_def@1@PAPAUpng_info_struct@1@1@Z 1003979f f   d3dx9dt:pngread.obj
 0001:0003881c       ?png_get_valid@D3DX@@YGKPAUpng_struct_def@1@PAUpng_info_struct@1@K@Z 1003981c f   d3dx9dt:pngget.obj
 0001:0003883a       ?png_get_rowbytes@D3DX@@YGKPAUpng_struct_def@1@PAUpng_info_struct@1@@Z 1003983a f   d3dx9dt:pngget.obj
 0001:00038855       ?png_get_channels@D3DX@@YGEPAUpng_struct_def@1@PAUpng_info_struct@1@@Z 10039855 f   d3dx9dt:pngget.obj
 0001:00038870       ?png_get_signature@D3DX@@YGPAEPAUpng_struct_def@1@PAUpng_info_struct@1@@Z 10039870 f   d3dx9dt:pngget.obj
 0001:0003888b       ?png_get_gAMA@D3DX@@YGKPAUpng_struct_def@1@PAUpng_info_struct@1@PAN@Z 1003988b f   d3dx9dt:pngget.obj
 0001:000388b8       ?png_get_sRGB@D3DX@@YGKPAUpng_struct_def@1@PAUpng_info_struct@1@PAH@Z 100398b8 f   d3dx9dt:pngget.obj
 0001:000388e7       ?png_get_IHDR@D3DX@@YGKPAUpng_struct_def@1@PAUpng_info_struct@1@PAK2PAH3333@Z 100398e7 f   d3dx9dt:pngget.obj
 0001:000389b8       ?png_get_PLTE@D3DX@@YGKPAUpng_struct_def@1@PAUpng_info_struct@1@PAPAUpng_color_struct@1@PAH@Z 100399b8 f   d3dx9dt:pngget.obj
 0001:000389ee       ?png_get_tRNS@D3DX@@YGKPAUpng_struct_def@1@PAUpng_info_struct@1@PAPAEPAHPAPAUpng_color_16_struct@1@@Z 100399ee f   d3dx9dt:pngget.obj
 0001:00038a57       ?png_set_bgr@D3DX@@YGXPAUpng_struct_def@1@@Z 10039a57 f   d3dx9dt:pngtrans.obj
 0001:00038a65       ?png_set_swap@D3DX@@YGXPAUpng_struct_def@1@@Z 10039a65 f   d3dx9dt:pngtrans.obj
 0001:00038a7c       ?png_set_packing@D3DX@@YGXPAUpng_struct_def@1@@Z 10039a7c f   d3dx9dt:pngtrans.obj
 0001:00038a9a       ?png_set_shift@D3DX@@YGXPAUpng_struct_def@1@PAUpng_color_8_struct@1@@Z 10039a9a f   d3dx9dt:pngtrans.obj
 0001:00038ab7       ?png_set_interlace_handling@D3DX@@YGHPAUpng_struct_def@1@@Z 10039ab7 f   d3dx9dt:pngtrans.obj
 0001:00038ad6       ?png_set_filler@D3DX@@YGXPAUpng_struct_def@1@KH@Z 10039ad6 f   d3dx9dt:pngtrans.obj
 0001:00038b26       ?png_do_swap@D3DX@@YGXPAUpng_row_info_struct@1@PAE@Z 10039b26 f   d3dx9dt:pngtrans.obj
 0001:00038b57       ?png_do_bgr@D3DX@@YGXPAUpng_row_info_struct@1@PAE@Z 10039b57 f   d3dx9dt:pngtrans.obj
 0001:00038c18       ?png_set_crc_action@D3DX@@YGXPAUpng_struct_def@1@HH@Z 10039c18 f   d3dx9dt:pngrtran.obj
 0001:00038c98       ?png_set_strip_16@D3DX@@YGXPAUpng_struct_def@1@@Z 10039c98 f   d3dx9dt:pngrtran.obj
 0001:00038ca6       ?png_set_dither@D3DX@@YGXPAUpng_struct_def@1@PAUpng_color_struct@1@HHPAGH@Z 10039ca6 f   d3dx9dt:pngrtran.obj
 0001:000392e4       ?png_set_gamma@D3DX@@YGXPAUpng_struct_def@1@NN@Z 1003a2e4 f   d3dx9dt:pngrtran.obj
 0001:0003931d       ?png_set_expand@D3DX@@YGXPAUpng_struct_def@1@@Z 1003a31d f   d3dx9dt:pngrtran.obj
 0001:0003932b       ?png_set_palette_to_rgb@D3DX@@YGXPAUpng_struct_def@1@@Z 1003a32b f   d3dx9dt:pngrtran.obj
 0001:00039339       ?png_set_gray_1_2_4_to_8@D3DX@@YGXPAUpng_struct_def@1@@Z 1003a339 f   d3dx9dt:pngrtran.obj
 0001:00039347       ?png_set_tRNS_to_alpha@D3DX@@YGXPAUpng_struct_def@1@@Z 1003a347 f   d3dx9dt:pngrtran.obj
 0001:00039355       ?png_read_transform_info@D3DX@@YGXPAUpng_struct_def@1@PAUpng_info_struct@1@@Z 1003a355 f   d3dx9dt:pngrtran.obj
 0001:0003943c       ?png_do_unpack@D3DX@@YGXPAUpng_row_info_struct@1@PAE@Z 1003a43c f   d3dx9dt:pngrtran.obj
 0001:0003954d       ?png_do_unshift@D3DX@@YGXPAUpng_row_info_struct@1@PAEPAUpng_color_8_struct@1@@Z 1003a54d f   d3dx9dt:pngrtran.obj
 0001:000396c6       ?png_do_chop@D3DX@@YGXPAUpng_row_info_struct@1@PAE@Z 1003a6c6 f   d3dx9dt:pngrtran.obj
 0001:0003970e       ?png_do_read_filler@D3DX@@YGXPAUpng_row_info_struct@1@PAEKK@Z 1003a70e f   d3dx9dt:pngrtran.obj
 0001:00039947       ?png_build_grayscale_palette@D3DX@@YGXHPAUpng_color_struct@1@@Z 1003a947 f   d3dx9dt:pngrtran.obj
 0001:000399ab       ?png_do_gamma@D3DX@@YGXPAUpng_row_info_struct@1@PAE1PAPAGH@Z 1003a9ab f   d3dx9dt:pngrtran.obj
 0001:00039cfb       ?png_do_expand_palette@D3DX@@YGXPAUpng_row_info_struct@1@PAEPAUpng_color_struct@1@1H@Z 1003acfb f   d3dx9dt:pngrtran.obj
 0001:00039f04       ?png_do_expand@D3DX@@YGXPAUpng_row_info_struct@1@PAEPAUpng_color_16_struct@1@@Z 1003af04 f   d3dx9dt:pngrtran.obj
 0001:0003a257       ?png_do_dither@D3DX@@YGXPAUpng_row_info_struct@1@PAE11@Z 1003b257 f   d3dx9dt:pngrtran.obj
 0001:0003a366       ?png_build_gamma_table@D3DX@@YGXPAUpng_struct_def@1@@Z 1003b366 f   d3dx9dt:pngrtran.obj
 0001:0003a669       ?png_init_read_transformations@D3DX@@YGXPAUpng_struct_def@1@@Z 1003b669 f   d3dx9dt:pngrtran.obj
 0001:0003a77d       ?png_do_read_transformations@D3DX@@YGXPAUpng_struct_def@1@@Z 1003b77d f   d3dx9dt:pngrtran.obj
 0001:0003a91c       ?png_set_gAMA@D3DX@@YGXPAUpng_struct_def@1@PAUpng_info_struct@1@N@Z 1003b91c f   d3dx9dt:pngset.obj
 0001:0003a93a       ?png_set_IHDR@D3DX@@YGXPAUpng_struct_def@1@PAUpng_info_struct@1@KKHHHHH@Z 1003b93a f   d3dx9dt:pngset.obj
 0001:0003a9db       ?png_set_PLTE@D3DX@@YGXPAUpng_struct_def@1@PAUpng_info_struct@1@PAUpng_color_struct@1@H@Z 1003b9db f   d3dx9dt:pngset.obj
 0001:0003aa01       ?png_set_sRGB@D3DX@@YGXPAUpng_struct_def@1@PAUpng_info_struct@1@H@Z 1003ba01 f   d3dx9dt:pngset.obj
 0001:0003aa1f       ?png_set_sRGB_gAMA_and_cHRM@D3DX@@YGXPAUpng_struct_def@1@PAUpng_info_struct@1@H@Z 1003ba1f f   d3dx9dt:pngset.obj
 0001:0003aa56       ?png_set_tRNS@D3DX@@YGXPAUpng_struct_def@1@PAUpng_info_struct@1@PAEHPAUpng_color_16_struct@1@@Z 1003ba56 f   d3dx9dt:pngset.obj
 0001:0003aa9f       ?png_permit_empty_plte@D3DX@@YGXPAUpng_struct_def@1@H@Z 1003ba9f f   d3dx9dt:pngset.obj
 0001:0003aab6       ?png_read_data@D3DX@@YGXPAUpng_struct_def@1@PAEI@Z 1003bab6 f   d3dx9dt:pngrio.obj
 0001:0003aae0       ?png_set_read_fn@D3DX@@YGXPAUpng_struct_def@1@PAXP6AX0PAEI@Z@Z 1003bae0 f   d3dx9dt:pngrio.obj
 0001:0003ab1f       ?png_get_header_version@D3DX@@YGPADPAUpng_struct_def@1@@Z 1003bb1f f   d3dx9dt:png.obj
 0001:0003ab27       ?png_set_sig_bytes@D3DX@@YGXPAUpng_struct_def@1@H@Z 1003bb27 f   d3dx9dt:png.obj
 0001:0003ab54       ?png_sig_cmp@D3DX@@YGHPAEII@Z 1003bb54 f   d3dx9dt:png.obj
 0001:0003aba0       ?png_check_sig@D3DX@@YGHPAEH@Z 1003bba0 f   d3dx9dt:png.obj
 0001:0003abb9       ?png_zalloc@D3DX@@YGPAXPAXII@Z 1003bbb9 f   d3dx9dt:png.obj
 0001:0003ac0d       ?png_zfree@D3DX@@YGXPAX0@Z 1003bc0d f   d3dx9dt:png.obj
 0001:0003ac16       ?png_reset_crc@D3DX@@YGXPAUpng_struct_def@1@@Z 1003bc16 f   d3dx9dt:png.obj
 0001:0003ac30       ?png_calculate_crc@D3DX@@YGXPAUpng_struct_def@1@PAEI@Z 1003bc30 f   d3dx9dt:png.obj
 0001:0003ac70       ?png_info_init@D3DX@@YGXPAUpng_info_struct@1@@Z 1003bc70 f   d3dx9dt:png.obj
 0001:0003ac83       ?png_info_destroy@D3DX@@YGXPAUpng_struct_def@1@PAUpng_info_struct@1@@Z 1003bc83 f   d3dx9dt:png.obj
 0001:0003ac96       ?png_get_io_ptr@D3DX@@YGPAXPAUpng_struct_def@1@@Z 1003bc96 f   d3dx9dt:png.obj
 0001:0003aca3       ?png_get_copyright@D3DX@@YGPADPAUpng_struct_def@1@@Z 1003bca3 f   d3dx9dt:png.obj
 0001:0003acab       ?png_check_version@D3DX@@YGXPAUpng_struct_def@1@@Z 1003bcab f   d3dx9dt:png.obj
 0001:0003acae       ?png_create_info_struct@D3DX@@YGPAUpng_info_struct@1@PAUpng_struct_def@1@@Z 1003bcae f   d3dx9dt:png.obj
 0001:0003acd9       ?png_destroy_info_struct@D3DX@@YGXPAUpng_struct_def@1@PAPAUpng_info_struct@1@@Z 1003bcd9 f   d3dx9dt:png.obj
 0001:0003ad03       ?jpeg_CreateCompress@D3DX@@YGXPAUjpeg_compress_struct@1@HI@Z 1003bd03 f   d3dx9dt:jcapimin.obj
 0001:0003adb0       ?jpeg_destroy_compress@D3DX@@YGXPAUjpeg_compress_struct@1@@Z 1003bdb0 f   d3dx9dt:jcapimin.obj
 0001:0003adb9       ?jpeg_abort_compress@D3DX@@YGXPAUjpeg_compress_struct@1@@Z 1003bdb9 f   d3dx9dt:jcapimin.obj
 0001:0003adc2       ?jpeg_suppress_tables@D3DX@@YGXPAUjpeg_compress_struct@1@H@Z 1003bdc2 f   d3dx9dt:jcapimin.obj
 0001:0003ae10       ?jpeg_finish_compress@D3DX@@YGXPAUjpeg_compress_struct@1@@Z 1003be10 f   d3dx9dt:jcapimin.obj
 0001:0003aef4       ?jpeg_write_marker@D3DX@@YGXPAUjpeg_compress_struct@1@HPBEI@Z 1003bef4 f   d3dx9dt:jcapimin.obj
 0001:0003af66       ?jpeg_write_m_header@D3DX@@YGXPAUjpeg_compress_struct@1@HI@Z 1003bf66 f   d3dx9dt:jcapimin.obj
 0001:0003afb3       ?jpeg_write_m_byte@D3DX@@YGXPAUjpeg_compress_struct@1@H@Z 1003bfb3 f   d3dx9dt:jcapimin.obj
 0001:0003afca       ?jpeg_write_tables@D3DX@@YGXPAUjpeg_compress_struct@1@@Z 1003bfca f   d3dx9dt:jcapimin.obj
 0001:0003b016       ?jpeg_start_compress@D3DX@@YGXPAUjpeg_compress_struct@1@H@Z 1003c016 f   d3dx9dt:jcapistd.obj
 0001:0003b080       ?jpeg_write_scanlines@D3DX@@YGIPAUjpeg_compress_struct@1@PAPAEI@Z 1003c080 f   d3dx9dt:jcapistd.obj
 0001:0003b125       ?jpeg_write_raw_data@D3DX@@YGIPAUjpeg_compress_struct@1@PAPAPAEI@Z 1003c125 f   d3dx9dt:jcapistd.obj
 0001:0003b1cd       ?jpeg_add_quant_table@D3DX@@YGXPAUjpeg_compress_struct@1@HPBIHH@Z 1003c1cd f   d3dx9dt:jcparam.obj
 0001:0003b27c       ?jpeg_set_linear_quality@D3DX@@YGXPAUjpeg_compress_struct@1@HH@Z 1003c27c f   d3dx9dt:jcparam.obj
 0001:0003b2ad       ?jpeg_quality_scaling@D3DX@@YGHH@Z 1003c2ad f   d3dx9dt:jcparam.obj
 0001:0003b2da       ?jpeg_set_quality@D3DX@@YGXPAUjpeg_compress_struct@1@HH@Z 1003c2da f   d3dx9dt:jcparam.obj
 0001:0003b3ba       ?jpeg_set_colorspace@D3DX@@YGXPAUjpeg_compress_struct@1@W4J_COLOR_SPACE@1@@Z 1003c3ba f   d3dx9dt:jcparam.obj
 0001:0003b6df       ?jpeg_simple_progression@D3DX@@YGXPAUjpeg_compress_struct@1@@Z 1003c6df f   d3dx9dt:jcparam.obj
 0001:0003b8a0       ?jpeg_default_colorspace@D3DX@@YGXPAUjpeg_compress_struct@1@@Z 1003c8a0 f   d3dx9dt:jcparam.obj
 0001:0003b905       ?jpeg_set_defaults@D3DX@@YGXPAUjpeg_compress_struct@1@@Z 1003c905 f   d3dx9dt:jcparam.obj
 0001:0003bb2c       ?D3DXColorLerp@@YGPAUD3DXCOLOR@@PAU1@PBU1@1M@Z 1003cb2c f i d3dx9dt:dxtn.obj
 0001:0003ce5a       ?D3DXDecodeDXT1@D3DXTex@@YGJPAUD3DXCOLOR@@PBE@Z 1003de5a f   d3dx9dt:dxtn.obj
 0001:0003cf9a       ?D3DXDecodeDXT3@D3DXTex@@YGJPAUD3DXCOLOR@@PBE@Z 1003df9a f   d3dx9dt:dxtn.obj
 0001:0003d01d       ?D3DXDecodeDXT5@D3DXTex@@YGJPAUD3DXCOLOR@@PBE@Z 1003e01d f   d3dx9dt:dxtn.obj
 0001:0003d159       ?D3DXEncodeDXT1@D3DXTex@@YGJPAEPBUD3DXCOLOR@@@Z 1003e159 f   d3dx9dt:dxtn.obj
 0001:0003d271       ?D3DXEncodeDXT3@D3DXTex@@YGJPAEPBUD3DXCOLOR@@@Z 1003e271 f   d3dx9dt:dxtn.obj
 0001:0003d397       ?D3DXEncodeDXT5@D3DXTex@@YGJPAEPBUD3DXCOLOR@@@Z 1003e397 f   d3dx9dt:dxtn.obj
 0001:0003d83f       ?D3DXDecodeDXT2@D3DXTex@@YGJPAUD3DXCOLOR@@PBE@Z 1003e83f f   d3dx9dt:dxtn.obj
 0001:0003d863       ?D3DXDecodeDXT4@D3DXTex@@YGJPAUD3DXCOLOR@@PBE@Z 1003e863 f   d3dx9dt:dxtn.obj
 0001:0003d887       ?D3DXEncodeDXT2@D3DXTex@@YGJPAEPBUD3DXCOLOR@@@Z 1003e887 f   d3dx9dt:dxtn.obj
 0001:0003d8bb       ?D3DXEncodeDXT4@D3DXTex@@YGJPAEPBUD3DXCOLOR@@@Z 1003e8bb f   d3dx9dt:dxtn.obj
 0001:0003d8ef       _D3DXAssembleShaderFromFileA@24 1003e8ef f   d3dx9dt:d3dx9shader.obj
 0001:0003d99a       _D3DXAssembleShaderFromFileW@24 1003e99a f   d3dx9dt:d3dx9shader.obj
 0001:0003da45       _D3DXAssembleShaderFromResourceA@28 1003ea45 f   d3dx9dt:d3dx9shader.obj
 0001:0003daf3       _D3DXAssembleShaderFromResourceW@28 1003eaf3 f   d3dx9dt:d3dx9shader.obj
 0001:0003dba1       _D3DXAssembleShader@28     1003eba1 f   d3dx9dt:d3dx9shader.obj
 0001:0003dc4d       _D3DXCompileShaderFromFileA@36 1003ec4d f   d3dx9dt:d3dx9shader.obj
 0001:0003dd02       _D3DXCompileShaderFromFileW@36 1003ed02 f   d3dx9dt:d3dx9shader.obj
 0001:0003ddb8       _D3DXCompileShaderFromResourceA@40 1003edb8 f   d3dx9dt:d3dx9shader.obj
 0001:0003de70       _D3DXCompileShaderFromResourceW@40 1003ee70 f   d3dx9dt:d3dx9shader.obj
 0001:0003df29       _D3DXCompileShader@40      1003ef29 f   d3dx9dt:d3dx9shader.obj
 0001:0003dfe0       _D3DXFindShaderComment@16  1003efe0 f   d3dx9dt:d3dx9shader.obj
 0001:0003e0df       _D3DXGetShaderInputSemantics@12 1003f0df f   d3dx9dt:d3dx9shader.obj
 0001:0003e4d7       _D3DXGetShaderOutputSemantics@12 1003f4d7 f   d3dx9dt:d3dx9shader.obj
 0001:0003e80e       _D3DXGetShaderSamplers@12  1003f80e f   d3dx9dt:d3dx9shader.obj
 0001:0003e8f0       _D3DXGetShaderConstantTable@8 1003f8f0 f   d3dx9dt:d3dx9shader.obj
 0001:0003e9a0       _D3DXGetShaderDebugInfo@8  1003f9a0 f   d3dx9dt:d3dx9shader.obj
 0001:0003ea4b       _D3DXGetTargetDescByName@12 1003fa4b f   d3dx9dt:d3dx9shader.obj
 0001:0003eae7       _D3DXGetTargetDescByVersion@12 1003fae7 f   d3dx9dt:d3dx9shader.obj
 0001:0003eb34       ?sse_D3DXQuaternionMultiply@@YGPAUD3DXQUATERNION@@PAU1@PBU1@1@Z 1003fb34 f   d3dx9dt:d3dxquatsse.obj
 0001:0003ebad       ?sse_D3DXQuaternionNormalize@@YGPAUD3DXQUATERNION@@PAU1@PBU1@@Z 1003fbad f   d3dx9dt:d3dxquatsse.obj
 0001:0003ec5f       ?sse_D3DXQuaternionInverse@@YGPAUD3DXQUATERNION@@PAU1@PBU1@@Z 1003fc5f f   d3dx9dt:d3dxquatsse.obj
 0001:0003ecf7       ?sse_D3DXQuaternionRotationYawPitchRoll@@YGPAUD3DXQUATERNION@@PAU1@MMM@Z 1003fcf7 f   d3dx9dt:d3dxquatsse.obj
 0001:0003edce       ?sse_D3DXQuaternionRotationMatrix@@YGPAUD3DXQUATERNION@@PAU1@PBUD3DXMATRIX@@@Z 1003fdce f   d3dx9dt:d3dxquatsse.obj
 0001:0003ef11       ??0F32vec4@@QAE@XZ         1003ff11 f i d3dx9dt:arraymath.obj
 0001:0003ef14       ??0F32vec4@@QAE@U__m128@@@Z 1003ff14 f i d3dx9dt:arraymath.obj
 0001:0003ef1a       ??0F32vec4@@QAE@ABM@Z      1003ff1a f i d3dx9dt:arraymath.obj
 0001:0003ef51       ??BF32vec4@@QBE?AU__m128@@XZ 1003ff51 f i d3dx9dt:arraymath.obj
 0001:0003ef61       ??H@YG?AVF32vec4@@ABV0@0@Z 1003ff61 f i d3dx9dt:arraymath.obj
 0001:0003ef92       ??D@YG?AVF32vec4@@ABV0@0@Z 1003ff92 f i d3dx9dt:arraymath.obj
 0001:0003efc3       ??4F32vec4@@QAEAAV0@ABV0@@Z 1003ffc3 f i d3dx9dt:arraymath.obj
 0001:0003efd5       ??4F32vec4@@QAEAAV0@ABU__m128@@@Z 1003ffd5 f i d3dx9dt:arraymath.obj
 0001:0003efe7       ?rcp_nr@@YG?AVF32vec4@@ABV1@@Z 1003ffe7 f i d3dx9dt:arraymath.obj
 0001:0003f024       ?unpack_low@@YG?AVF32vec4@@ABV1@0@Z 10040024 f i d3dx9dt:arraymath.obj
 0001:0003f055       ?unpack_high@@YG?AVF32vec4@@ABV1@0@Z 10040055 f i d3dx9dt:arraymath.obj
 0001:0003f086       ??0KMATRIX@@QAE@ABUD3DXMATRIX@@@Z 10040086 f i d3dx9dt:arraymath.obj
 0001:0003f1f2       ?sse_D3DXVec3TransformArray@@YGPAUD3DXVECTOR4@@PAU1@IPBUD3DXVECTOR3@@IPBUD3DXMATRIX@@I@Z 100401f2 f   d3dx9dt:arraymath.obj
 0001:0003f45a       ?sse_D3DXVec2TransformArray@@YGPAUD3DXVECTOR4@@PAU1@IPBUD3DXVECTOR2@@IPBUD3DXMATRIX@@I@Z 1004045a f   d3dx9dt:arraymath.obj
 0001:0003f660       ?sse_D3DXVec2TransformCoordArray@@YGPAUD3DXVECTOR2@@PAU1@IPBU1@IPBUD3DXMATRIX@@I@Z 10040660 f   d3dx9dt:arraymath.obj
 0001:0003f835       ?sse_D3DXVec2TransformNormalArray@@YGPAUD3DXVECTOR2@@PAU1@IPBU1@IPBUD3DXMATRIX@@I@Z 10040835 f   d3dx9dt:arraymath.obj
 0001:0003f9c3       ?sse_D3DXVec4TransformArray@@YGPAUD3DXVECTOR4@@PAU1@IPBU1@IPBUD3DXMATRIX@@I@Z 100409c3 f   d3dx9dt:arraymath.obj
 0001:0003fc5d       ?sse_D3DXVec3TransformNormalArray@@YGPAUD3DXVECTOR3@@PAU1@IPBU1@IPBUD3DXMATRIX@@I@Z 10040c5d f   d3dx9dt:arraymath.obj
 0001:0003fea0       ?sse_D3DXVec3TransformCoordArray@@YGPAUD3DXVECTOR3@@PAU1@IPBU1@IPBUD3DXMATRIX@@I@Z 10040ea0 f   d3dx9dt:arraymath.obj
 0001:00040144       ??0F32vec4@@QAE@ABV0@@Z    10041144 f i d3dx9dt:skinning.obj
 0001:00040156       ??YF32vec4@@QAEAAV0@AAV0@@Z 10041156 f i d3dx9dt:skinning.obj
 0001:00040183       ??0F32vec1@@QAE@H@Z        10041183 f i d3dx9dt:skinning.obj
 0001:000401ae       ??0F32vec1@@QAE@ABM@Z      100411ae f i d3dx9dt:skinning.obj
 0001:000401e1       ??0F32vec1@@QAE@U__m128@@@Z 100411e1 f i d3dx9dt:skinning.obj
 0001:000401e7       ??BF32vec1@@QBE?AU__m128@@XZ 100411e7 f i d3dx9dt:skinning.obj
 0001:000401f7       ??G@YG?AVF32vec1@@ABV0@0@Z 100411f7 f i d3dx9dt:skinning.obj
 0001:00040229       ?F32vec1ToInt@@YGHABVF32vec1@@@Z 10041229 f i d3dx9dt:skinning.obj
 0001:0004024f       ?sse_D3DXPSGPUpdateSkinnedMesh@@YGXPBUD3DXMATRIX@@0PAE1KKPAPAE2KKPAMH@Z 1004124f f   d3dx9dt:skinning.obj
 0001:00040890       ?sse_D3DXFloat16To32Array@@YGPAMPAMPBUD3DXFLOAT16@@I@Z 10041890 f   d3dx9dt:float16.obj
 0001:00040977       ?sse_D3DXVec2Transform@@YGPAUD3DXVECTOR4@@PAU1@PBUD3DXVECTOR2@@PBUD3DXMATRIX@@@Z 10041977 f   d3dx9dt:d3dxmathsse.obj
 0001:000409f0       ?sse_D3DXVec2TransformCoord@@YGPAUD3DXVECTOR2@@PAU1@PBU1@PBUD3DXMATRIX@@@Z 100419f0 f   d3dx9dt:d3dxmathsse.obj
 0001:00040a5c       ?sse_D3DXVec2TransformNormal@@YGPAUD3DXVECTOR2@@PAU1@PBU1@PBUD3DXMATRIX@@@Z 10041a5c f   d3dx9dt:d3dxmathsse.obj
 0001:00040ace       ?sse_D3DXVec4Transform@@YGPAUD3DXVECTOR4@@PAU1@PBU1@PBUD3DXMATRIX@@@Z 10041ace f   d3dx9dt:d3dxmathsse.obj
 0001:00040bf9       ?sse_D3DXMatrixMultiply@@YGPAUD3DXMATRIX@@PAU1@PBU1@1@Z 10041bf9 f   d3dx9dt:d3dxmathsse.obj
 0001:00040d7c       ?sse_D3DXMatrixInverse@@YGPAUD3DXMATRIX@@PAU1@PAMPBU1@@Z 10041d7c f   d3dx9dt:d3dxmathsse.obj
 0001:0004105e       ?sse_D3DXVec4Cross@@YGPAUD3DXVECTOR4@@PAU1@PBU1@11@Z 1004205e f   d3dx9dt:d3dxmathsse.obj
 0001:00041153       ?sse_D3DXVec4Normalize@@YGPAUD3DXVECTOR4@@PAU1@PBU1@@Z 10042153 f   d3dx9dt:d3dxmathsse.obj
 0001:000411ed       ?sse_D3DXMatrixRotationX@@YGPAUD3DXMATRIX@@PAU1@M@Z 100421ed f   d3dx9dt:d3dxmathsse.obj
 0001:0004127c       ?sse_D3DXMatrixRotationY@@YGPAUD3DXMATRIX@@PAU1@M@Z 1004227c f   d3dx9dt:d3dxmathsse.obj
 0001:00041319       ?sse_D3DXVec3CatmullRom@@YGPAUD3DXVECTOR3@@PAU1@PBU1@111M@Z 10042319 f   d3dx9dt:d3dxmathsse.obj
 0001:000413fe       ?sse_D3DXVec2CatmullRom@@YGPAUD3DXVECTOR2@@PAU1@PBU1@111M@Z 100423fe f   d3dx9dt:d3dxmathsse.obj
 0001:000414b6       ?sse_D3DXVec4CatmullRom@@YGPAUD3DXVECTOR4@@PAU1@PBU1@111M@Z 100424b6 f   d3dx9dt:d3dxmathsse.obj
 0001:0004158e       ?sse_D3DXVec3Hermite@@YGPAUD3DXVECTOR3@@PAU1@PBU1@111M@Z 1004258e f   d3dx9dt:d3dxmathsse.obj
 0001:00041674       ?sse_D3DXVec4Hermite@@YGPAUD3DXVECTOR4@@PAU1@PBU1@111M@Z 10042674 f   d3dx9dt:d3dxmathsse.obj
 0001:00041741       ?sse_D3DXVec2Hermite@@YGPAUD3DXVECTOR2@@PAU1@PBU1@111M@Z 10042741 f   d3dx9dt:d3dxmathsse.obj
 0001:000417fa       ?sse_D3DXVec3BaryCentric@@YGPAUD3DXVECTOR3@@PAU1@PBU1@11MM@Z 100427fa f   d3dx9dt:d3dxmathsse.obj
 0001:0004186e       ?sse_D3DXVec4BaryCentric@@YGPAUD3DXVECTOR4@@PAU1@PBU1@11MM@Z 1004286e f   d3dx9dt:d3dxmathsse.obj
 0001:000418ce       ?sse_D3DXVec2BaryCentric@@YGPAUD3DXVECTOR2@@PAU1@PBU1@11MM@Z 100428ce f   d3dx9dt:d3dxmathsse.obj
 0001:00041937       ?sse_D3DXPlaneIntersectLine@@YGPAUD3DXVECTOR3@@PAU1@PBUD3DXPLANE@@PBU1@2@Z 10042937 f   d3dx9dt:d3dxmathsse.obj
 0001:000419e5       ?sse_D3DXColorAdjustSaturation@@YGPAUD3DXCOLOR@@PAU1@PBU1@M@Z 100429e5 f   d3dx9dt:d3dxmathsse.obj
 0001:00041a6b       ?sse_D3DXMatrixDeterminant@@YGMPBUD3DXMATRIX@@@Z 10042a6b f   d3dx9dt:d3dxmathsse.obj
 0001:00041b7d       ?sse_D3DXPlaneFromPoints@@YGPAUD3DXPLANE@@PAU1@PBUD3DXVECTOR3@@11@Z 10042b7d f   d3dx9dt:d3dxmathsse.obj
 0001:00041cb4       ?sse_D3DXMatrixReflect@@YGPAUD3DXMATRIX@@PAU1@PBUD3DXPLANE@@@Z 10042cb4 f   d3dx9dt:d3dxmathsse.obj
 0001:00041de2       ??H@YG?AVF32vec1@@ABV0@0@Z 10042de2 f i d3dx9dt:d3dxmathsse.obj
 0001:00041e14       ??D@YG?AVF32vec1@@ABV0@0@Z 10042e14 f i d3dx9dt:d3dxmathsse.obj
 0001:00041e46       ?rsqrt@@YG?AVF32vec1@@ABV1@@Z 10042e46 f i d3dx9dt:d3dxmathsse.obj
 0001:00041e84       ?rsqrt_nr@@YG?AVF32vec1@@ABV1@@Z 10042e84 f i d3dx9dt:d3dxmathsse.obj
 0001:00041f2e       ?sse_D3DXVec3TransformNormal@@YGPAUD3DXVECTOR3@@PAU1@PBU1@PBUD3DXMATRIX@@@Z 10042f2e f   d3dx9dt:d3dxmathsse.obj
 0001:0004205d       ?sse_D3DXVec3Transform@@YGPAUD3DXVECTOR4@@PAU1@PBUD3DXVECTOR3@@PBUD3DXMATRIX@@@Z 1004305d f   d3dx9dt:d3dxmathsse.obj
 0001:0004218a       ?sse_D3DXVec3TransformCoord@@YGPAUD3DXVECTOR3@@PAU1@PBU1@PBUD3DXMATRIX@@@Z 1004318a f   d3dx9dt:d3dxmathsse.obj
 0001:000422b5       ?sse_D3DXVec3Normalize@@YGPAUD3DXVECTOR3@@PAU1@PBU1@@Z 100432b5 f   d3dx9dt:d3dxmathsse.obj
 0001:000423bc       ?sse_D3DXPlaneNormalize@@YGPAUD3DXPLANE@@PAU1@PBU1@@Z 100433bc f   d3dx9dt:d3dxmathsse.obj
 0001:000424e8       ?sse_D3DXVec2Normalize@@YGPAUD3DXVECTOR2@@PAU1@PBU1@@Z 100434e8 f   d3dx9dt:d3dxmathsse.obj
 0001:000425c4       ?sse_D3DXMatrixMultiplyTranspose@@YGPAUD3DXMATRIX@@PAU1@PBU1@1@Z 100435c4 f   d3dx9dt:d3dxmathsse.obj
 0001:0004282f       ?sse_D3DXMatrixShadow@@YGPAU_D3DMATRIX@@PAU1@PBUD3DXVECTOR4@@PBUD3DXPLANE@@@Z 1004382f f   d3dx9dt:d3dxmathsse.obj
 0001:00042a1e       ?sse2_D3DXVec3TransformArray@@YGPAUD3DXVECTOR4@@PAU1@IPBUD3DXVECTOR3@@IPBUD3DXMATRIX@@I@Z 10043a1e f   d3dx9dt:arraymath2.obj
 0001:00042c86       ?sse2_D3DXVec2TransformArray@@YGPAUD3DXVECTOR4@@PAU1@IPBUD3DXVECTOR2@@IPBUD3DXMATRIX@@I@Z 10043c86 f   d3dx9dt:arraymath2.obj
 0001:00042e8c       ?sse2_D3DXVec2TransformCoordArray@@YGPAUD3DXVECTOR2@@PAU1@IPBU1@IPBUD3DXMATRIX@@I@Z 10043e8c f   d3dx9dt:arraymath2.obj
 0001:00043061       ?sse2_D3DXVec2TransformNormalArray@@YGPAUD3DXVECTOR2@@PAU1@IPBU1@IPBUD3DXMATRIX@@I@Z 10044061 f   d3dx9dt:arraymath2.obj
 0001:000431ef       ?sse2_D3DXVec4TransformArray@@YGPAUD3DXVECTOR4@@PAU1@IPBU1@IPBUD3DXMATRIX@@I@Z 100441ef f   d3dx9dt:arraymath2.obj
 0001:00043489       ?sse2_D3DXVec3TransformNormalArray@@YGPAUD3DXVECTOR3@@PAU1@IPBU1@IPBUD3DXMATRIX@@I@Z 10044489 f   d3dx9dt:arraymath2.obj
 0001:000436cc       ?sse2_D3DXVec3TransformCoordArray@@YGPAUD3DXVECTOR3@@PAU1@IPBU1@IPBUD3DXMATRIX@@I@Z 100446cc f   d3dx9dt:arraymath2.obj
 0001:00043a50       ?sse2_D3DXFloat16To32Array@@YGPAMPAMPBUD3DXFLOAT16@@I@Z 10044a50 f   d3dx9dt:float162.obj
 0001:00043b35       ?sse2_D3DXVec4Transform@@YGPAUD3DXVECTOR4@@PAU1@PBU1@PBUD3DXMATRIX@@@Z 10044b35 f   d3dx9dt:d3dxmathsse2.obj
 0001:00043c60       ?sse2_D3DXMatrixMultiply@@YGPAUD3DXMATRIX@@PAU1@PBU1@1@Z 10044c60 f   d3dx9dt:d3dxmathsse2.obj
 0001:00043de3       ?sse2_D3DXMatrixInverse@@YGPAUD3DXMATRIX@@PAU1@PAMPBU1@@Z 10044de3 f   d3dx9dt:d3dxmathsse2.obj
 0001:000440c5       ?sse2_D3DXVec4Cross@@YGPAUD3DXVECTOR4@@PAU1@PBU1@11@Z 100450c5 f   d3dx9dt:d3dxmathsse2.obj
 0001:000441ba       ?sse2_D3DXMatrixRotationX@@YGPAUD3DXMATRIX@@PAU1@M@Z 100451ba f   d3dx9dt:d3dxmathsse2.obj
 0001:00044249       ?sse2_D3DXMatrixRotationY@@YGPAUD3DXMATRIX@@PAU1@M@Z 10045249 f   d3dx9dt:d3dxmathsse2.obj
 0001:000442e6       ?sse2_D3DXMatrixDeterminant@@YGMPBUD3DXMATRIX@@@Z 100452e6 f   d3dx9dt:d3dxmathsse2.obj
 0001:000443f8       ?sse2_D3DXPlaneFromPoints@@YGPAUD3DXPLANE@@PAU1@PBUD3DXVECTOR3@@11@Z 100453f8 f   d3dx9dt:d3dxmathsse2.obj
 0001:0004452f       ?sse2_D3DXMatrixReflect@@YGPAUD3DXMATRIX@@PAU1@PBUD3DXPLANE@@@Z 1004552f f   d3dx9dt:d3dxmathsse2.obj
 0001:0004465d       ?sse2_D3DXVec3TransformNormal@@YGPAUD3DXVECTOR3@@PAU1@PBU1@PBUD3DXMATRIX@@@Z 1004565d f   d3dx9dt:d3dxmathsse2.obj
 0001:0004478c       ?sse2_D3DXVec3Transform@@YGPAUD3DXVECTOR4@@PAU1@PBUD3DXVECTOR3@@PBUD3DXMATRIX@@@Z 1004578c f   d3dx9dt:d3dxmathsse2.obj
 0001:000448b9       ?sse2_D3DXVec3TransformCoord@@YGPAUD3DXVECTOR3@@PAU1@PBU1@PBUD3DXMATRIX@@@Z 100458b9 f   d3dx9dt:d3dxmathsse2.obj
 0001:000449e4       ?sse2_D3DXVec3Normalize@@YGPAUD3DXVECTOR3@@PAU1@PBU1@@Z 100459e4 f   d3dx9dt:d3dxmathsse2.obj
 0001:00044aeb       ?sse2_D3DXPlaneNormalize@@YGPAUD3DXPLANE@@PAU1@PBU1@@Z 10045aeb f   d3dx9dt:d3dxmathsse2.obj
 0001:00044c17       ?sse2_D3DXVec2Normalize@@YGPAUD3DXVECTOR2@@PAU1@PBU1@@Z 10045c17 f   d3dx9dt:d3dxmathsse2.obj
 0001:00044cf3       ?sse2_D3DXMatrixMultiplyTranspose@@YGPAUD3DXMATRIX@@PAU1@PBU1@1@Z 10045cf3 f   d3dx9dt:d3dxmathsse2.obj
 0001:00044f5e       ?sse2_D3DXMatrixShadow@@YGPAU_D3DMATRIX@@PAU1@PBUD3DXVECTOR4@@PBUD3DXPLANE@@@Z 10045f5e f   d3dx9dt:d3dxmathsse2.obj
 0001:0004514d       ?sse2_D3DXQuaternionInverse@@YGPAUD3DXQUATERNION@@PAU1@PBU1@@Z 1004614d f   d3dx9dt:d3dxquatsse2.obj
 0001:000451e5       ?sse2_D3DXQuaternionRotationYawPitchRoll@@YGPAUD3DXQUATERNION@@PAU1@MMM@Z 100461e5 f   d3dx9dt:d3dxquatsse2.obj
 0001:000452bc       ?sse2_QuaternionSlerp@@YGPAUD3DXQUATERNION@@PAU1@PBU1@1M@Z 100462bc f   d3dx9dt:d3dxquatsse2.obj
 0001:00045442       ?sse2_D3DXQuaternionRotationMatrix@@YGPAUD3DXQUATERNION@@PAU1@PBUD3DXMATRIX@@@Z 10046442 f   d3dx9dt:d3dxquatsse2.obj
 0001:000455c0       _AMDSSE_D3DXPlaneTransformArray@24 100465c0 f   d3dx9dt:d3dxplane.obj
 0001:000456c0       _AMDSSE_D3DXVec4TransformArray@24 100466c0 f   d3dx9dt:d3dxvec4.obj
 0001:000457c0       _AMDSSE_D3DXVec2TransformArray@24 100467c0 f   d3dx9dt:d3dxvec2.obj
 0001:00045a80       _AMDSSE_D3DXVec2TransformCoordArray@24 10046a80 f   d3dx9dt:d3dxvec2.obj
 0001:00045d40       _AMDSSE_D3DXVec2TransformNormalArray@24 10046d40 f   d3dx9dt:d3dxvec2.obj
 0001:00045f80       _AMDSSE_D3DXVec3TransformArray@24 10046f80 f   d3dx9dt:d3dxvec3.obj
 0001:00046060       _AMDSSE_D3DXVec3TransformCoordArray@24 10047060 f   d3dx9dt:d3dxvec3.obj
 0001:000463e0       _AMDSSE_D3DXVec3TransformNormalArray@24 100473e0 f   d3dx9dt:d3dxvec3.obj
 0001:000466b9       ?x3d_D3DXQuaternionMultiply@@YGPAUD3DXQUATERNION@@PAU1@PBU1@1@Z 100476b9 f   d3dx9dt:x3d_quat.obj
 0001:00046774       ?x3d_D3DXQuaternionNormalize@@YGPAUD3DXQUATERNION@@PAU1@PBU1@@Z 10047774 f   d3dx9dt:x3d_quat.obj
 0001:000467eb       ?x3d_D3DXQuaternionToAxisAngle@@YGXPBUD3DXQUATERNION@@PAUD3DXVECTOR3@@PAM@Z 100477eb f   d3dx9dt:x3d_quat.obj
 0001:0004683f       ?x3d_D3DXQuaternionRotationMatrix@@YGPAUD3DXQUATERNION@@PAU1@PBUD3DXMATRIX@@@Z 1004783f f   d3dx9dt:x3d_quat.obj
 0001:00046a75       ?x3d_D3DXQuaternionRotationMatrix_K7@@YGPAUD3DXQUATERNION@@PAU1@PBUD3DXMATRIX@@@Z 10047a75 f   d3dx9dt:x3d_quat.obj
 0001:00046ca4       ?x3d_D3DXQuaternionRotationYawPitchRoll@@YGPAUD3DXQUATERNION@@PAU1@MMM@Z 10047ca4 f   d3dx9dt:x3d_quat.obj
 0001:00046d7b       ?x3d_D3DXQuaternionRotationAxis@@YGPAUD3DXQUATERNION@@PAU1@PBUD3DXVECTOR3@@M@Z 10047d7b f   d3dx9dt:x3d_quat.obj
 0001:00046e0a       ?x3d_D3DXQuaternionSlerp@@YGPAUD3DXQUATERNION@@PAU1@PBU1@1M@Z 10047e0a f   d3dx9dt:x3d_quat.obj
 0001:00046f6c       ?x3d_D3DXQuaternionBaryCentric@@YGPAUD3DXQUATERNION@@PAU1@PBU1@11MM@Z 10047f6c f   d3dx9dt:x3d_quat.obj
 0001:0004702c       ?x3d_D3DXQuaternionSquad@@YGPAUD3DXQUATERNION@@PAU1@PBU1@111M@Z 1004802c f   d3dx9dt:x3d_quat.obj
 0001:000470f0       ?x3d_D3DXQuaternionInverse@@YGPAUD3DXQUATERNION@@PAU1@PBU1@@Z 100480f0 f   d3dx9dt:x3d_quat.obj
 0001:0004716e       ?x3d_D3DXQuaternionLn@@YGPAUD3DXQUATERNION@@PAU1@PBU1@@Z 1004816e f   d3dx9dt:x3d_quat.obj
 0001:00047238       ?x3d_D3DXQuaternionExp@@YGPAUD3DXQUATERNION@@PAU1@PBU1@@Z 10048238 f   d3dx9dt:x3d_quat.obj
 0001:000472f7       ?x3d_D3DXQuaternionExp_K7@@YGPAUD3DXQUATERNION@@PAU1@PBU1@@Z 100482f7 f   d3dx9dt:x3d_quat.obj
 0001:000473b3       ?x3d_D3DXQuaternionSquadSetup@@YGXPAUD3DXQUATERNION@@00PBU1@111@Z 100483b3 f   d3dx9dt:x3d_quat.obj
 0001:00047e29       ?x3d_D3DXMatrixMultiply@@YGPAUD3DXMATRIX@@PAU1@PBU1@1@Z 10048e29 f   d3dx9dt:x3d_matx.obj
 0001:00048081       ?x3d_D3DXMatrixfDeterminant@@YGMPBUD3DXMATRIX@@@Z 10049081 f   d3dx9dt:x3d_matx.obj
 0001:00048162       ?x3d_D3DXMatrixTranslation@@YGPAUD3DXMATRIX@@PAU1@MMM@Z 10049162 f   d3dx9dt:x3d_matx.obj
 0001:000481c4       ?x3d_D3DXMatrixShadow@@YGPAUD3DXMATRIX@@PAU1@PBUD3DXVECTOR4@@PBUD3DXPLANE@@@Z 100491c4 f   d3dx9dt:x3d_matx.obj
 0001:000482da       ?x3d_D3DXMatrixReflect@@YGPAUD3DXMATRIX@@PAU1@PBUD3DXPLANE@@@Z 100492da f   d3dx9dt:x3d_matx.obj
 0001:000483d9       ?x3d_D3DXMatrixRotationX@@YGPAUD3DXMATRIX@@PAU1@M@Z 100493d9 f   d3dx9dt:x3d_matx.obj
 0001:0004844e       ?x3d_D3DXMatrixRotationY@@YGPAUD3DXMATRIX@@PAU1@M@Z 1004944e f   d3dx9dt:x3d_matx.obj
 0001:000484be       ?x3d_D3DXMatrixRotationZ@@YGPAUD3DXMATRIX@@PAU1@M@Z 100494be f   d3dx9dt:x3d_matx.obj
 0001:00048529       ?x3d_D3DXMatrixScaling@@YGPAUD3DXMATRIX@@PAU1@MMM@Z 10049529 f   d3dx9dt:x3d_matx.obj
 0001:00048582       ?x3d_D3DXMatrixTranspose@@YGPAUD3DXMATRIX@@PAU1@PBU1@@Z 10049582 f   d3dx9dt:x3d_matx.obj
 0001:0004860b       ?x3d_D3DXMatrixIdentity@@YGPAUD3DXMATRIX@@PAU1@@Z 1004960b f   d3dx9dt:x3d_matx.obj
 0001:00048644       ?x3d_D3DXMatrixRotationQuaternion@@YGPAUD3DXMATRIX@@PAU1@PBUD3DXQUATERNION@@@Z 10049644 f   d3dx9dt:x3d_matx.obj
 0001:00048730       ?x3d_D3DXMatrixRotationQuaternion_K7@@YGPAUD3DXMATRIX@@PAU1@PBUD3DXQUATERNION@@@Z 10049730 f   d3dx9dt:x3d_matx.obj
 0001:000487ff       ?x3d_D3DXMatrixTransformation@@YGPAUD3DXMATRIX@@PAU1@PBUD3DXVECTOR3@@PBUD3DXQUATERNION@@1121@Z 100497ff f   d3dx9dt:x3d_matx.obj
 0001:000499a9       ?x3d_D3DXMatrixRotationYawPitchRoll@@YGPAUD3DXMATRIX@@PAU1@MMM@Z 1004a9a9 f   d3dx9dt:x3d_matx.obj
 0001:00049b60       ?x3d_D3DXMatrixAffineTransformation@@YGPAUD3DXMATRIX@@PAU1@MPBUD3DXVECTOR3@@PBUD3DXQUATERNION@@1@Z 1004ab60 f   d3dx9dt:x3d_matx.obj
 0001:0004a0a6       ?x3d_D3DXMatrixRotationAxis@@YGPAUD3DXMATRIX@@PAU1@PBUD3DXVECTOR3@@M@Z 1004b0a6 f   d3dx9dt:x3d_matx.obj
 0001:0004a1d9       ?x3d_D3DXMatrixLookAtLH@@YGPAUD3DXMATRIX@@PAU1@PBUD3DXVECTOR3@@11@Z 1004b1d9 f   d3dx9dt:x3d_matx.obj
 0001:0004a3f2       ?x3d_D3DXMatrixLookAtRH@@YGPAUD3DXMATRIX@@PAU1@PBUD3DXVECTOR3@@11@Z 1004b3f2 f   d3dx9dt:x3d_matx.obj
 0001:0004a60b       ?x3d_D3DXMatrixTransformation_K7@@YGPAUD3DXMATRIX@@PAU1@PBUD3DXVECTOR3@@PBUD3DXQUATERNION@@1121@Z 1004b60b f   d3dx9dt:x3d_matx.obj
 0001:0004b771       ?x3d_D3DXMatrixInverse_K7@@YGPAUD3DXMATRIX@@PAU1@PAMPBU1@@Z 1004c771 f   d3dx9dt:x3d_matx.obj
 0001:0004ba6a       ?x3d_D3DXMatrixMultiplyTranspose@@YGPAUD3DXMATRIX@@PAU1@PBU1@1@Z 1004ca6a f   d3dx9dt:x3d_matx.obj
 0001:0004be88       ?x3d_D3DXMatrixInverse_inline@@YGPAUD3DXMATRIX@@PAU1@PAMPBU1@@Z 1004ce88 f i d3dx9dt:x3d_matx.obj
 0001:0004c1d4       ?x3d_D3DXMatrixInverse@@YGPAUD3DXMATRIX@@PAU1@PAMPBU1@@Z 1004d1d4 f   d3dx9dt:x3d_matx.obj
 0001:0004c200       _x3d_D3DXVec3Transform@12  1004d200 f   d3dx9dt:x3d_vec3.obj
 0001:0004c286       _x3d_D3DXVec3TransformNormal@12 1004d286 f   d3dx9dt:x3d_vec3.obj
 0001:0004c302       ?x3d_D3DXVec3Normalize@@YGPAUD3DXVECTOR3@@PAU1@PBU1@@Z 1004d302 f   d3dx9dt:x3d_vec3.obj
 0001:0004c37b       ?x3d_D3DXVec3BaryCentric@@YGPAUD3DXVECTOR3@@PAU1@PBU1@11MM@Z 1004d37b f   d3dx9dt:x3d_vec3.obj
 0001:0004c416       ?x3d_D3DXVec3Hermite@@YGPAUD3DXVECTOR3@@PAU1@PBU1@111M@Z 1004d416 f   d3dx9dt:x3d_vec3.obj
 0001:0004c51c       ?x3d_D3DXVec3CatmullRom@@YGPAUD3DXVECTOR3@@PAU1@PBU1@111M@Z 1004d51c f   d3dx9dt:x3d_vec3.obj
 0001:0004c635       ??0SSEMatrix@@QAE@PBUD3DXMATRIX@@@Z 1004d635 f i d3dx9dt:x3d_vec3.obj
 0001:0004c7a1       ??D@YG?AU__m128@@AAU0@0@Z  1004d7a1 f i d3dx9dt:x3d_vec3.obj
 0001:0004c7cf       ??H@YG?AU__m128@@AAU0@0@Z  1004d7cf f i d3dx9dt:x3d_vec3.obj
 0001:0004c7fd       ?SSE_D3DXVec3TransformArray@@YGPAUD3DXVECTOR4@@PAU1@IPBUD3DXVECTOR3@@IPBUD3DXMATRIX@@I@Z 1004d7fd f   d3dx9dt:x3d_vec3.obj
 0001:0004cc19       ?x3d_D3DXVec3TransformCoord_inline@@YGPAUD3DXVECTOR3@@PAU1@PBU1@PBUD3DXMATRIX@@@Z 1004dc19 f i d3dx9dt:x3d_vec3.obj
 0001:0004ccc5       ?x3d_D3DXMatrixMultiply_inline@@YGPAUD3DXMATRIX@@PAU1@PBU1@1@Z 1004dcc5 f i d3dx9dt:x3d_vec3.obj
 0001:0004cead       _x3d_D3DXVec3TransformCoord@12 1004dead f   d3dx9dt:x3d_vec3.obj
 0001:0004cecd       ?x3d_D3DXVec3Project@@YGPAUD3DXVECTOR3@@PAU1@PBU1@PBU_D3DVIEWPORT9@@PBUD3DXMATRIX@@33@Z 1004decd f   d3dx9dt:x3d_vec3.obj
 0001:0004d072       ?x3d_D3DXVec3Unproject@@YGPAUD3DXVECTOR3@@PAU1@PBU1@PBU_D3DVIEWPORT9@@PBUD3DXMATRIX@@33@Z 1004e072 f   d3dx9dt:x3d_vec3.obj
 0001:0004d2b7       ?x3d_D3DXVec3Unproject_K7@@YGPAUD3DXVECTOR3@@PAU1@PBU1@PBU_D3DVIEWPORT9@@PBUD3DXMATRIX@@33@Z 1004e2b7 f   d3dx9dt:x3d_vec3.obj
 0001:0004d440       _AMDX3D_D3DXFloat16To32Array@12 1004e440 f   d3dx9dt:d3dxfloat16.obj
 0001:0004d5a0       _AMDX3D_D3DXFloat32To16Array@12 1004e5a0 f   d3dx9dt:d3dxfloat16.obj
 0001:0004d73b       _x3d_D3DXVec2Transform@12  1004e73b f   d3dx9dt:x3d_vec2.obj
 0001:0004d7a5       _x3d_D3DXVec2TransformNormal@12 1004e7a5 f   d3dx9dt:x3d_vec2.obj
 0001:0004d7f3       _x3d_D3DXVec2TransformCoord@12 1004e7f3 f   d3dx9dt:x3d_vec2.obj
 0001:0004d86c       ?x3d_D3DXVec2Hermite@@YGPAUD3DXVECTOR2@@PAU1@PBU1@111M@Z 1004e86c f   d3dx9dt:x3d_vec2.obj
 0001:0004d936       ?x3d_D3DXVec2BaryCentric@@YGPAUD3DXVECTOR2@@PAU1@PBU1@11MM@Z 1004e936 f   d3dx9dt:x3d_vec2.obj
 0001:0004d9a9       ?x3d_D3DXVec2Normalize@@YGPAUD3DXVECTOR2@@PAU1@PBU1@@Z 1004e9a9 f   d3dx9dt:x3d_vec2.obj
 0001:0004da06       ?x3d_D3DXVec2CatmullRom@@YGPAUD3DXVECTOR2@@PAU1@PBU1@111M@Z 1004ea06 f   d3dx9dt:x3d_vec2.obj
 0001:0004dae0       _x3d_D3DXVec4Transform@12  1004eae0 f   d3dx9dt:x3d_vec4.obj
 0001:0004db7f       ?x3d_D3DXVec4Normalize@@YGPAUD3DXVECTOR4@@PAU1@PBU1@@Z 1004eb7f f   d3dx9dt:x3d_vec4.obj
 0001:0004dbf8       ?x3d_D3DXVec4Cross@@YGPAUD3DXVECTOR4@@PAU1@PBU1@11@Z 1004ebf8 f   d3dx9dt:x3d_vec4.obj
 0001:0004dd54       ?x3d_D3DXVec4BaryCentric@@YGPAUD3DXVECTOR4@@PAU1@PBU1@11MM@Z 1004ed54 f   d3dx9dt:x3d_vec4.obj
 0001:0004ddef       ?x3d_D3DXVec4Hermite@@YGPAUD3DXVECTOR4@@PAU1@PBU1@111M@Z 1004edef f   d3dx9dt:x3d_vec4.obj
 0001:0004dee9       ?x3d_D3DXVec4CatmullRom@@YGPAUD3DXVECTOR4@@PAU1@PBU1@111M@Z 1004eee9 f   d3dx9dt:x3d_vec4.obj
 0001:0004dff6       ?x3d_D3DXPlaneFromPointNormal@@YGPAUD3DXPLANE@@PAU1@PBUD3DXVECTOR3@@1@Z 1004eff6 f   d3dx9dt:x3d_plane.obj
 0001:0004e05b       ?x3d_D3DXPlaneFromPoints@@YGPAUD3DXPLANE@@PAU1@PBUD3DXVECTOR3@@11@Z 1004f05b f   d3dx9dt:x3d_plane.obj
 0001:0004e169       ?x3d_D3DXPlaneIntersectLine@@YGPAUD3DXVECTOR3@@PAU1@PBUD3DXPLANE@@PBU1@2@Z 1004f169 f   d3dx9dt:x3d_plane.obj
 0001:0004e251       ?x3d_D3DXPlaneNormalize@@YGPAUD3DXPLANE@@PAU1@PBU1@@Z 1004f251 f   d3dx9dt:x3d_plane.obj
 0001:0004e2cf       _x3d_D3DXPlaneTransform@12 1004f2cf f   d3dx9dt:x3d_plane.obj
 0001:0004e36f       ?x3d_D3DXColorAdjustContrast@@YGPAUD3DXCOLOR@@PAU1@PBU1@M@Z 1004f36f f   d3dx9dt:x3d_plane.obj
 0001:0004e3de       ?x3d_D3DXColorAdjustSaturation@@YGPAUD3DXCOLOR@@PAU1@PBU1@M@Z 1004f3de f   d3dx9dt:x3d_plane.obj
 0001:0004e4d5       ?jpeg_calc_output_dimensions@D3DX@@YGXPAUjpeg_decompress_struct@1@@Z 1004f4d5 f   d3dx9dt:jdmaster.obj
 0001:0004ea03       ?jpeg_new_colormap@D3DX@@YGXPAUjpeg_decompress_struct@1@@Z 1004fa03 f   d3dx9dt:jdmaster.obj
 0001:0004ea6c       ?jinit_master_decompress@D3DX@@YGXPAUjpeg_decompress_struct@1@@Z 1004fa6c f   d3dx9dt:jdmaster.obj
 0001:0004ef7e       ?jinit_input_controller@D3DX@@YGXPAUjpeg_decompress_struct@1@@Z 1004ff7e f   d3dx9dt:jdinput.obj
 0001:0004f942       ?jinit_memory_mgr@D3DX@@YGXPAUjpeg_common_struct@1@@Z 10050942 f   d3dx9dt:jmemmgr.obj
 0001:0004fa01       ?jpeg_abort@D3DX@@YGXPAUjpeg_common_struct@1@@Z 10050a01 f   d3dx9dt:jcomapi.obj
 0001:0004fa37       ?jpeg_destroy@D3DX@@YGXPAUjpeg_common_struct@1@@Z 10050a37 f   d3dx9dt:jcomapi.obj
 0001:0004fa56       ?jpeg_alloc_quant_table@D3DX@@YGPAUJQUANT_TBL@1@PAUjpeg_common_struct@1@@Z 10050a56 f   d3dx9dt:jcomapi.obj
 0001:0004fa74       ?jpeg_alloc_huff_table@D3DX@@YGPAUJHUFF_TBL@1@PAUjpeg_common_struct@1@@Z 10050a74 f   d3dx9dt:jcomapi.obj
 0001:0004fa92       ?jdiv_round_up@D3DX@@YGJJJ@Z 10050a92 f   d3dx9dt:jutils.obj
 0001:0004faa6       ?jround_up@D3DX@@YGJJJ@Z   10050aa6 f   d3dx9dt:jutils.obj
 0001:0004fac2       ?jcopy_sample_rows@D3DX@@YGXPAPAEH0HHI@Z 10050ac2 f   d3dx9dt:jutils.obj
 0001:0004fb0b       ?jcopy_block_row@D3DX@@YGXPAY0EA@F0I@Z 10050b0b f   d3dx9dt:jutils.obj
 0001:0004fb30       ?jzero_far@D3DX@@YGXPAXI@Z 10050b30 f   d3dx9dt:jutils.obj
 0001:0004fb4f       _d3dx_inflateReset@4       10050b4f f   d3dx9dt:inflate.obj
 0001:0004fb8e       _d3dx_inflateEnd@4         10050b8e f   d3dx9dt:inflate.obj
 0001:0004fbcb       _d3dx_inflateInit2_@16     10050bcb f   d3dx9dt:inflate.obj
 0001:0004fcaa       _d3dx_inflateInit_@12      10050caa f   d3dx9dt:inflate.obj
 0001:0004fcc0       _d3dx_inflate@8            10050cc0 f   d3dx9dt:inflate.obj
 0001:00050023       _d3dx_inflateSetDictionary@12 10051023 f   d3dx9dt:inflate.obj
 0001:00050098       _d3dx_inflateSync@4        10051098 f   d3dx9dt:inflate.obj
 0001:00050147       _d3dx_inflateSyncPoint@4   10051147 f   d3dx9dt:inflate.obj
 0001:0005016c       ?png_create_struct@D3DX@@YGPAXH@Z 1005116c f   d3dx9dt:pngmem.obj
 0001:000501b2       ?png_destroy_struct@D3DX@@YGXPAX@Z 100511b2 f   d3dx9dt:pngmem.obj
 0001:000501c8       ?png_malloc@D3DX@@YGPAXPAUpng_struct_def@1@K@Z 100511c8 f   d3dx9dt:pngmem.obj
 0001:000501ff       ?png_free@D3DX@@YGXPAUpng_struct_def@1@PAX@Z 100511ff f   d3dx9dt:pngmem.obj
 0001:0005021b       ?png_memcpy_check@D3DX@@YGPAXPAUpng_struct_def@1@PAX1K@Z 1005121b f   d3dx9dt:pngmem.obj
 0001:00050241       ?png_memset_check@D3DX@@YGPAXPAUpng_struct_def@1@PAXHK@Z 10051241 f   d3dx9dt:pngmem.obj
 0001:00050275       ?png_get_uint_32@D3DX@@YGKPAE@Z 10051275 f   d3dx9dt:pngrutil.obj
 0001:0005029d       ?png_get_uint_16@D3DX@@YGGPAE@Z 1005129d f   d3dx9dt:pngrutil.obj
 0001:000502b5       ?png_crc_read@D3DX@@YGXPAUpng_struct_def@1@PAEI@Z 100512b5 f   d3dx9dt:pngrutil.obj
 0001:000502cc       ?png_crc_error@D3DX@@YGHPAUpng_struct_def@1@@Z 100512cc f   d3dx9dt:pngrutil.obj
 0001:00050328       ?png_check_chunk_name@D3DX@@YGXPAUpng_struct_def@1@PAE@Z 10051328 f   d3dx9dt:pngrutil.obj
 0001:0005038c       ?png_combine_row@D3DX@@YGXPAUpng_struct_def@1@PAEH@Z 1005138c f   d3dx9dt:pngrutil.obj
 0001:000505a2       ?png_do_read_interlace@D3DX@@YGXPAUpng_row_info_struct@1@PAEHK@Z 100515a2 f   d3dx9dt:pngrutil.obj
 0001:0005086d       ?png_read_filter_row@D3DX@@YGXPAUpng_struct_def@1@PAUpng_row_info_struct@1@PAE2H@Z 1005186d f   d3dx9dt:pngrutil.obj
 0001:000509e6       ?png_read_start_row@D3DX@@YGXPAUpng_struct_def@1@@Z 100519e6 f   d3dx9dt:pngrutil.obj
 0001:00050b83       ?png_crc_finish@D3DX@@YGHPAUpng_struct_def@1@K@Z 10051b83 f   d3dx9dt:pngrutil.obj
 0001:00050c0a       ?png_handle_IHDR@D3DX@@YGXPAUpng_struct_def@1@PAUpng_info_struct@1@K@Z 10051c0a f   d3dx9dt:pngrutil.obj
 0001:00050dea       ?png_handle_PLTE@D3DX@@YGXPAUpng_struct_def@1@PAUpng_info_struct@1@K@Z 10051dea f   d3dx9dt:pngrutil.obj
 0001:00050f03       ?png_handle_IEND@D3DX@@YGXPAUpng_struct_def@1@PAUpng_info_struct@1@K@Z 10051f03 f   d3dx9dt:pngrutil.obj
 0001:00050f49       ?png_handle_gAMA@D3DX@@YGXPAUpng_struct_def@1@PAUpng_info_struct@1@K@Z 10051f49 f   d3dx9dt:pngrutil.obj
 0001:0005104a       ?png_handle_sRGB@D3DX@@YGXPAUpng_struct_def@1@PAUpng_info_struct@1@K@Z 1005204a f   d3dx9dt:pngrutil.obj
 0001:0005112c       ?png_handle_tRNS@D3DX@@YGXPAUpng_struct_def@1@PAUpng_info_struct@1@K@Z 1005212c f   d3dx9dt:pngrutil.obj
 0001:000512ca       ?png_handle_unknown@D3DX@@YGXPAUpng_struct_def@1@PAUpng_info_struct@1@K@Z 100522ca f   d3dx9dt:pngrutil.obj
 0001:00051311       ?png_read_finish_row@D3DX@@YGXPAUpng_struct_def@1@@Z 10052311 f   d3dx9dt:pngrutil.obj
 0001:00051529       _d3dx_get_crc_table@0      10052529 f   d3dx9dt:crc32.obj
 0001:0005152f       _d3dx_crc32@12             1005252f f   d3dx9dt:crc32.obj
 0001:00051d3f       ?jinit_marker_writer@D3DX@@YGXPAUjpeg_compress_struct@1@@Z 10052d3f f   d3dx9dt:jcmarker.obj
 0001:00051d8f       ?jinit_compress_master@D3DX@@YGXPAUjpeg_compress_struct@1@@Z 10052d8f f   d3dx9dt:jcinit.obj
 0001:00051e2f       ??0CPPDefine@D3DXShader@@QAE@PBDPAVCNode@1@1@Z 10052e2f f   d3dx9dt:cpreprocessor.obj
 0001:00051e4d       ??1CPPDefine@D3DXShader@@QAE@XZ 10052e4d f   d3dx9dt:cpreprocessor.obj
 0001:00051e81       ??_GCPPDefine@D3DXShader@@QAEPAXI@Z 10052e81 f i d3dx9dt:cpreprocessor.obj
 0001:00051ea0       ??0CPPConditional@D3DXShader@@QAE@HH@Z 10052ea0 f   d3dx9dt:cpreprocessor.obj
 0001:00051ebc       ??1CPPConditional@D3DXShader@@QAE@XZ 10052ebc f   d3dx9dt:cpreprocessor.obj
 0001:00051ed4       ??_GCPPConditional@D3DXShader@@QAEPAXI@Z 10052ed4 f i d3dx9dt:cpreprocessor.obj
 0001:00051ef3       ??0CPPInclude@D3DXShader@@QAE@XZ 10052ef3 f   d3dx9dt:cpreprocessor.obj
 0001:00051f26       ??1CPPInclude@D3DXShader@@QAE@XZ 10052f26 f   d3dx9dt:cpreprocessor.obj
 0001:00051f7b       ??_GCPPInclude@D3DXShader@@QAEPAXI@Z 10052f7b f i d3dx9dt:cpreprocessor.obj
 0001:00051f9a       ?InitializeFromFile@CPPInclude@D3DXShader@@QAEJPBXHPAVCTAlloc@2@PAVCTErrors@2@PAUID3DXInclude@@W4_D3DXINCLUDE_TYPE@@0@Z 10052f9a f   d3dx9dt:cpreprocessor.obj
 0001:00052141       ?InitializeFromResource@CPPInclude@D3DXShader@@QAEJPAUHINSTANCE__@@PBXHPAVCTAlloc@2@PAVCTErrors@2@@Z 10053141 f   d3dx9dt:cpreprocessor.obj
 0001:000521a7       ?InitializeFromMemory@CPPInclude@D3DXShader@@QAEJPBXIPAVCTAlloc@2@PAVCTErrors@2@@Z 100531a7 f   d3dx9dt:cpreprocessor.obj
 0001:000521e0       ??0CPPBlock@D3DXShader@@QAE@K@Z 100531e0 f   d3dx9dt:cpreprocessor.obj
 0001:000521f9       ??1CPPBlock@D3DXShader@@QAE@XZ 100531f9 f   d3dx9dt:cpreprocessor.obj
 0001:00052211       ??_GCPPBlock@D3DXShader@@QAEPAXI@Z 10053211 f i d3dx9dt:cpreprocessor.obj
 0001:00052230       ??0CPreProcessor@D3DXShader@@QAE@XZ 10053230 f   d3dx9dt:cpreprocessor.obj
 0001:000522d9       ??1CPreProcessor@D3DXShader@@QAE@XZ 100532d9 f   d3dx9dt:cpreprocessor.obj
 0001:00052379       ?Begin@CPreProcessor@D3DXShader@@QAEJK@Z 10053379 f   d3dx9dt:cpreprocessor.obj
 0001:000523bb       ?GetFileLine@CPreProcessor@D3DXShader@@QAEJPAPBDPAI@Z 100533bb f   d3dx9dt:cpreprocessor.obj
 0001:000523e2       ?GetBufferPointer@CPreProcessor@D3DXShader@@QAEJPAPBDPAI@Z 100533e2 f   d3dx9dt:cpreprocessor.obj
 0001:0005241d       ?Token@CPreProcessor@D3DXShader@@IAEHXZ 1005341d f   d3dx9dt:cpreprocessor.obj
 0001:00052752       ?Error@CPreProcessor@D3DXShader@@IAAXPBDZZ 10053752 f   d3dx9dt:cpreprocessor.obj
 0001:000527fe       ?DoLine@CPreProcessor@D3DXShader@@IAEJIPBD@Z 100537fe f   d3dx9dt:cpreprocessor.obj
 0001:00052829       ?DoInclude@CPreProcessor@D3DXShader@@IAEJXZ 10053829 f   d3dx9dt:cpreprocessor.obj
 0001:000529f1       ?DoError@CPreProcessor@D3DXShader@@IAEJXZ 100539f1 f   d3dx9dt:cpreprocessor.obj
 0001:00052ac7       ?DoIf@CPreProcessor@D3DXShader@@IAEJH@Z 10053ac7 f   d3dx9dt:cpreprocessor.obj
 0001:00052b21       ?DoElif@CPreProcessor@D3DXShader@@IAEJH@Z 10053b21 f   d3dx9dt:cpreprocessor.obj
 0001:00052b96       ?DoElse@CPreProcessor@D3DXShader@@IAEJXZ 10053b96 f   d3dx9dt:cpreprocessor.obj
 0001:00052bf8       ?DoEndif@CPreProcessor@D3DXShader@@IAEJXZ 10053bf8 f   d3dx9dt:cpreprocessor.obj
 0001:00052c48       ?DoPragmaPackMatrix@CPreProcessor@D3DXShader@@IAEJXZ 10053c48 f   d3dx9dt:cpreprocessor.obj
 0001:00052d64       ?DoPragmaWarning@CPreProcessor@D3DXShader@@IAEJXZ 10053d64 f   d3dx9dt:cpreprocessor.obj
 0001:000530f9       ?Hash@CPreProcessor@D3DXShader@@IAEIPBD@Z 100540f9 f   d3dx9dt:cpreprocessor.obj
 0001:00053111       ?AddDefine@CPreProcessor@D3DXShader@@IAEJPAVCPPDefine@2@@Z 10054111 f   d3dx9dt:cpreprocessor.obj
 0001:0005318f       ?FindDefine@CPreProcessor@D3DXShader@@IAEHPBDPAPAVCNode@2@1@Z 1005418f f   d3dx9dt:cpreprocessor.obj
 0001:00053200       ?Escape@CPreProcessor@D3DXShader@@IAEIPBDIPAD@Z 10054200 f   d3dx9dt:cpreprocessor.obj
 0001:00053265       ?NonNull@CPreProcessor@D3DXShader@@IAEPAVCNode@2@PAV32@@Z 10054265 f   d3dx9dt:cpreprocessor.obj
 0001:0005329b       ?DoDefine@CPreProcessor@D3DXShader@@IAEJPBDH@Z 1005429b f   d3dx9dt:cpreprocessor.obj
 0001:0005350a       ?DoUndef@CPreProcessor@D3DXShader@@IAEJPBD@Z 1005450a f   d3dx9dt:cpreprocessor.obj
 0001:0005357a       ?DoPragma@CPreProcessor@D3DXShader@@IAEJXZ 1005457a f   d3dx9dt:cpreprocessor.obj
 0001:000535fa       ?UintDefine@CPreProcessor@D3DXShader@@IAEIPBD@Z 100545fa f   d3dx9dt:cpreprocessor.obj
 0001:00053660       ?CallDefine@CPreProcessor@D3DXShader@@IAEHPAUD3DXTOKEN@2@PAVCNode@2@1@Z 10054660 f   d3dx9dt:cpreprocessor.obj
 0001:00053d31       ?InitializeDefines@CPreProcessor@D3DXShader@@IAEJPBU_D3DXMACRO@@@Z 10054d31 f   d3dx9dt:cpreprocessor.obj
 0001:00053f58       ?Production@CPreProcessor@D3DXShader@@IAEXII@Z 10054f58 f   d3dx9dt:cpreprocessor.obj
 0001:000543a3       ?d3dxtok_parse@D3DXShader@@YGHXZ 100553a3 f   d3dx9dt:cpreprocessor.obj
 0001:000548c5       ?InitializeFromFile@CPreProcessor@D3DXShader@@QAEJPBXHPBU_D3DXMACRO@@PAUID3DXInclude@@@Z 100558c5 f   d3dx9dt:cpreprocessor.obj
 0001:0005492e       ?InitializeFromResource@CPreProcessor@D3DXShader@@QAEJPAUHINSTANCE__@@PBXHPBU_D3DXMACRO@@PAUID3DXInclude@@@Z 1005592e f   d3dx9dt:cpreprocessor.obj
 0001:00054993       ?InitializeFromMemory@CPreProcessor@D3DXShader@@QAEJPBXIPBU_D3DXMACRO@@PAUID3DXInclude@@@Z 10055993 f   d3dx9dt:cpreprocessor.obj
 0001:000549f5       ?GetToken@CPreProcessor@D3DXShader@@QAEJPAUD3DXTOKEN@2@@Z 100559f5 f   d3dx9dt:cpreprocessor.obj
 0001:00054cf8       ?End@CPreProcessor@D3DXShader@@QAEJXZ 10055cf8 f   d3dx9dt:cpreprocessor.obj
 0001:00054d52       ??0CTAlloc@D3DXShader@@QAE@XZ 10055d52 f   d3dx9dt:ctokenize.obj
 0001:00054d58       ??1CTAlloc@D3DXShader@@QAE@XZ 10055d58 f   d3dx9dt:ctokenize.obj
 0001:00054d75       ?Alloc@CTAlloc@D3DXShader@@QAEPAXI@Z 10055d75 f   d3dx9dt:ctokenize.obj
 0001:00054d9a       ?Free@CTAlloc@D3DXShader@@QAEXPAX@Z 10055d9a f   d3dx9dt:ctokenize.obj
 0001:00054dc4       ??0CTErrors@D3DXShader@@QAE@XZ 10055dc4 f   d3dx9dt:ctokenize.obj
 0001:00054de4       ??1CTErrors@D3DXShader@@QAE@XZ 10055de4 f   d3dx9dt:ctokenize.obj
 0001:00054e13       ?SetWarningLevel@CTErrors@D3DXShader@@QAEJI@Z 10055e13 f   d3dx9dt:ctokenize.obj
 0001:00054e2e       ?Push@CTErrors@D3DXShader@@IAEJIPAI@Z 10055e2e f   d3dx9dt:ctokenize.obj
 0001:00054f6f       ?PreformattedError@CTErrors@D3DXShader@@QAEJPBD@Z 10055f6f f   d3dx9dt:ctokenize.obj
 0001:00054fc7       ?GetErrorBuffer@CTErrors@D3DXShader@@QAEJPAPAUID3DXBuffer@@@Z 10055fc7 f   d3dx9dt:ctokenize.obj
 0001:00055033       ?GetErrorCount@CTErrors@D3DXShader@@QAEIXZ 10056033 f   d3dx9dt:ctokenize.obj
 0001:00055037       ?GetWarningCount@CTErrors@D3DXShader@@QAEIXZ 10056037 f   d3dx9dt:ctokenize.obj
 0001:0005503b       ??0CTokenize@D3DXShader@@QAE@XZ 1005603b f   d3dx9dt:ctokenize.obj
 0001:00055055       ??1CTokenize@D3DXShader@@QAE@XZ 10056055 f   d3dx9dt:ctokenize.obj
 0001:00055056       ?Initialize@CTokenize@D3DXShader@@QAEJPBXIPBDIPAVCTAlloc@2@PAVCTErrors@2@@Z 10056056 f   d3dx9dt:ctokenize.obj
 0001:000550be       ?SkipToEOL@CTokenize@D3DXShader@@QAEHXZ 100560be f   d3dx9dt:ctokenize.obj
 0001:00055117       ?LexFloat@CTokenize@D3DXShader@@IAEIPBDPAN@Z 10056117 f   d3dx9dt:ctokenize.obj
 0001:00055293       ?LexIdentifier@CTokenize@D3DXShader@@IAEIPBDPAPBD@Z 10056293 f   d3dx9dt:ctokenize.obj
 0001:00055313       ?LexOperator@CTokenize@D3DXShader@@IAEIPBDPAD@Z 10056313 f   d3dx9dt:ctokenize.obj
 0001:0005541f       ?LexFloatSuffix@CTokenize@D3DXShader@@IAEIPBDPAUD3DXTOKEN@2@@Z 1005641f f   d3dx9dt:ctokenize.obj
 0001:00055467       ?LexIntegerSuffix@CTokenize@D3DXShader@@IAEIPBDPAUD3DXTOKEN@2@@Z 10056467 f   d3dx9dt:ctokenize.obj
 0001:000554ee       ?SetWarningSpecifier@CTErrors@D3DXShader@@QAEJII@Z 100564ee f   d3dx9dt:ctokenize.obj
 0001:00055556       ?Error@CTErrors@D3DXShader@@QAAJPAUD3DXTOKEN@2@IPBDZZ 10056556 f   d3dx9dt:ctokenize.obj
 0001:00055638       ?Warning@CTErrors@D3DXShader@@QAAJPAUD3DXTOKEN@2@IPBDZZ 10056638 f   d3dx9dt:ctokenize.obj
 0001:000557b2       ?SyntaxError@CTErrors@D3DXShader@@QAEJIPAUD3DXTOKEN@2@@Z 100567b2 f   d3dx9dt:ctokenize.obj
 0001:000558f5       ?SkipWhitespace@CTokenize@D3DXShader@@QAEHXZ 100568f5 f   d3dx9dt:ctokenize.obj
 0001:00055a25       ?LexHex@CTokenize@D3DXShader@@IAEIPBDPAI@Z 10056a25 f   d3dx9dt:ctokenize.obj
 0001:00055ac7       ?LexOctal@CTokenize@D3DXShader@@IAEIPBDPAI@Z 10056ac7 f   d3dx9dt:ctokenize.obj
 0001:00055b43       ?LexDecimal@CTokenize@D3DXShader@@IAEIPBDPAI@Z 10056b43 f   d3dx9dt:ctokenize.obj
 0001:00055be4       ?LexStringChar@CTokenize@D3DXShader@@IAEIPBDPAI@Z 10056be4 f   d3dx9dt:ctokenize.obj
 0001:00055d7a       ?LexVersion@CTokenize@D3DXShader@@IAEIPBDPAK@Z 10056d7a f   d3dx9dt:ctokenize.obj
 0001:00055e7d       ?LexChar@CTokenize@D3DXShader@@IAEIPBDPAI@Z 10056e7d f   d3dx9dt:ctokenize.obj
 0001:00055ebe       ?LexString@CTokenize@D3DXShader@@IAEIPBDPAPBD@Z 10056ebe f   d3dx9dt:ctokenize.obj
 0001:00055fa1       ?GetToken@CTokenize@D3DXShader@@QAEJKPAUD3DXTOKEN@2@@Z 10056fa1 f   d3dx9dt:ctokenize.obj
 0001:0005610f       ?GetUsageAndIndex@D3DXShader@@YGJPBDPAE1@Z 1005710f f   d3dx9dt:cassembler.obj
 0001:000563bb       ?GetSemanticName@D3DXShader@@YGPBDE@Z 100573bb f   d3dx9dt:cassembler.obj
 0001:00056471       ?RegisterHash@D3DXShader@@YGIPBD@Z 10057471 f   d3dx9dt:cassembler.obj
 0001:000564b0       ?GetElement@CFragmentRegisterAllocator@D3DXShader@@QAEPAVCRegisterEntryNode@2@PBD@Z 100574b0 f   d3dx9dt:cassembler.obj
 0001:000564e4       ?GetElements@CFragmentRegisterAllocator@D3DXShader@@QAEXPAPAVCRegisterEntryNode@2@@Z 100574e4 f   d3dx9dt:cassembler.obj
 0001:0005650c       ??0CAssembler@D3DXShader@@QAE@XZ 1005750c f   d3dx9dt:cassembler.obj
 0001:00056528       ?Error@CAssembler@D3DXShader@@IAAXPBDZZ 10057528 f   d3dx9dt:cassembler.obj
 0001:000565e6       ?ValidationError@CAssembler@D3DXShader@@KGJPBDIKI0PAX@Z 100575e6 f   d3dx9dt:cassembler.obj
 0001:00056652       ?NonNull@CAssembler@D3DXShader@@IAEPAVCNode@2@PAV32@@Z 10057652 f   d3dx9dt:cassembler.obj
 0001:0005668a       ?DecodeOpcode@CAssembler@D3DXShader@@IAEHPAUD3DXTOKEN@2@@Z 1005768a f   d3dx9dt:cassembler.obj
 0001:00056f6c       ?DecodeMask@CAssembler@D3DXShader@@IAEKPAUD3DXTOKEN@2@@Z 10057f6c f   d3dx9dt:cassembler.obj
 0001:0005701f       ?DecodeSwizzle@CAssembler@D3DXShader@@IAEKPAUD3DXTOKEN@2@@Z 1005801f f   d3dx9dt:cassembler.obj
 0001:000570d9       ?Validate@CAssembler@D3DXShader@@IAEJPAUD3DXTOKEN@2@@Z 100580d9 f   d3dx9dt:cassembler.obj
 0001:0005712c       ?Assure@CAssembler@D3DXShader@@IAEJI@Z 1005812c f   d3dx9dt:cassembler.obj
 0001:000571bb       ?Emit@CAssembler@D3DXShader@@IAEJK@Z 100581bb f   d3dx9dt:cassembler.obj
 0001:000571e2       ?EmitInstruction@CAssembler@D3DXShader@@IAEJPAVCNode@2@@Z 100581e2 f   d3dx9dt:cassembler.obj
 0001:0005795c       ?compare@D3DXShader@@YAHPBX0@Z 1005895c f   d3dx9dt:cassembler.obj
 0001:00057a0a       ?EmitFragmentInfo@CAssembler@D3DXShader@@IAEJXZ 10058a0a f   d3dx9dt:cassembler.obj
 0001:00057c2a       ?EmitDebugInfo@CAssembler@D3DXShader@@IAEJXZ 10058c2a f   d3dx9dt:cassembler.obj
 0001:00057f0f       ??0CRegisterEntryNode@D3DXShader@@QAE@PADIIPAV01@@Z 10058f0f f i d3dx9dt:cassembler.obj
 0001:00057f33       ??_GCRegisterEntryNode@D3DXShader@@QAEPAXI@Z 10058f33 f i d3dx9dt:cassembler.obj
 0001:00057f52       ??0CFragmentRegisterAllocator@D3DXShader@@QAE@XZ 10058f52 f i d3dx9dt:cassembler.obj
 0001:00057f62       ??1CFragmentRegisterAllocator@D3DXShader@@QAE@XZ 10058f62 f i d3dx9dt:cassembler.obj
 0001:00057f7f       ?GetShaderCode@CAssembler@D3DXShader@@IAEJPAPAUID3DXBuffer@@@Z 10058f7f f   d3dx9dt:cassembler.obj
 0001:00057fd6       ?AddElement@CFragmentRegisterAllocator@D3DXShader@@QAEJPBDII@Z 10058fd6 f   d3dx9dt:cassembler.obj
 0001:0005806b       ??0CFragmentInfo@D3DXShader@@QAE@XZ 1005906b f   d3dx9dt:cassembler.obj
 0001:00058097       ??1CFragmentInfo@D3DXShader@@QAE@XZ 10059097 f   d3dx9dt:cassembler.obj
 0001:000580b2       ?GetRegisterInfo@CFragmentInfo@D3DXShader@@QAEJPAVCTErrors@2@PAVCFragmentConstants@2@PAUD3DXTOKEN@2@PBDPAVCNode@2@PAK55@Z 100590b2 f   d3dx9dt:cassembler.obj
 0001:000582e4       ??_GCFragmentInfo@D3DXShader@@QAEPAXI@Z 100592e4 f i d3dx9dt:cassembler.obj
 0001:00058303       ?Token@CAssembler@D3DXShader@@IAEHXZ 10059303 f   d3dx9dt:cassembler.obj
 0001:000583df       ?DecodeRegister@CAssembler@D3DXShader@@IAEPAVCNode@2@PAUD3DXTOKEN@2@PAV32@@Z 100593df f   d3dx9dt:cassembler.obj
 0001:000588e0       ??1CRegisterEntryNode@D3DXShader@@QAE@XZ 100598e0 f i d3dx9dt:cassembler.obj
 0001:000588fb       ??1CAssembler@D3DXShader@@QAE@XZ 100598fb f   d3dx9dt:cassembler.obj
 0001:00058935       ?Production@CAssembler@D3DXShader@@IAEXII@Z 10059935 f   d3dx9dt:cassembler.obj
 0001:00058f7b       ?d3dxasm_parse@D3DXShader@@YGHXZ 10059f7b f   d3dx9dt:cassembler.obj
 0001:00059560       ?Assemble@CAssembler@D3DXShader@@QAEJPAVCPreProcessor@2@KPAVCFragmentConstants@2@PAPAUID3DXBuffer@@@Z 1005a560 f   d3dx9dt:cassembler.obj
 0001:000599ec       ??0CCompiler@D3DXShader@@QAE@XZ 1005a9ec f   d3dx9dt:ccompiler.obj
 0001:00059a05       ??1CCompiler@D3DXShader@@QAE@XZ 1005aa05 f   d3dx9dt:ccompiler.obj
 0001:00059a2d       ?EmitTemp@CCompiler@D3DXShader@@IAEJPAII@Z 1005aa2d f   d3dx9dt:ccompiler.obj
 0001:00059a47       ?VectorizeBase@CCompiler@D3DXShader@@IAEJW4_D3DXTYPE_TEMPLATE@2@IIKPAII1PAVCNode@2@1@Z 1005aa47 f   d3dx9dt:ccompiler.obj
 0001:00059b92       ?VectorizeDefaults@CCompiler@D3DXShader@@IAEJPAVCNode@2@@Z 1005ab92 f   d3dx9dt:ccompiler.obj
 0001:00059c78       ?EvalArg@CCompiler@D3DXShader@@IAEJIPAN@Z 1005ac78 f   d3dx9dt:ccompiler.obj
 0001:0005a20a       ?IsFullySemantic@CCompiler@D3DXShader@@IAEHPAII@Z 1005b20a f   d3dx9dt:ccompiler.obj
 0001:0005a243       ?IsRowMajor@CCompiler@D3DXShader@@IAEHPAIW4_D3DXTYPE_TEMPLATE@2@II@Z 1005b243 f   d3dx9dt:ccompiler.obj
 0001:0005a32b       ?IsColumnMajor@CCompiler@D3DXShader@@IAEHPAIW4_D3DXTYPE_TEMPLATE@2@II@Z 1005b32b f   d3dx9dt:ccompiler.obj
 0001:0005a419       ?FindFunction@CCompiler@D3DXShader@@IAEPAVCNode@2@PBD@Z 1005b419 f   d3dx9dt:ccompiler.obj
 0001:0005a52d       ?FindFunction@CCompiler@D3DXShader@@IAEPAVCNode@2@PAV32@PAPBD@Z 1005b52d f   d3dx9dt:ccompiler.obj
 0001:0005a647       ?Error@CCompiler@D3DXShader@@IAAJPAVCNode@2@IPBDZZ 1005b647 f   d3dx9dt:ccompiler.obj
 0001:0005a6bd       ?Warning@CCompiler@D3DXShader@@IAAJPAVCNode@2@IPBDZZ 1005b6bd f   d3dx9dt:ccompiler.obj
 0001:0005a71b       ?CompareSemantic@CCompiler@D3DXShader@@KGHIIPBX@Z 1005b71b f   d3dx9dt:ccompiler.obj
 0001:0005a77a       ?EmitFor@CCompiler@D3DXShader@@IAEJPAVCNode@2@000@Z 1005b77a f   d3dx9dt:ccompiler.obj
 0001:0005a807       ?EmitInst@CCompiler@D3DXShader@@IAEJPAVCNode@2@KPAI11K@Z 1005b807 f   d3dx9dt:ccompiler.obj
 0001:0005ac6b       ?GetTypeFlags@CCompiler@D3DXShader@@IAEIPAVCNode@2@PAK@Z 1005bc6b f   d3dx9dt:ccompiler.obj
 0001:0005adc6       ?VectorizeType@CCompiler@D3DXShader@@IAEJPAVCNode@2@PAIIHH011@Z 1005bdc6 f   d3dx9dt:ccompiler.obj
 0001:0005afce       ?IsNumeric@CCompiler@D3DXShader@@IAEHPAVCNode@2@@Z 1005bfce f   d3dx9dt:ccompiler.obj
 0001:0005b047       ?EmitSinCos@CCompiler@D3DXShader@@IAEJPAVCNode@2@PAI11I@Z 1005c047 f   d3dx9dt:ccompiler.obj
 0001:0005b681       ?EmitASinACos@CCompiler@D3DXShader@@IAEJPAVCNode@2@PAI11I@Z 1005c681 f   d3dx9dt:ccompiler.obj
 0001:0005bbd4       ?EmitATan2@CCompiler@D3DXShader@@IAEJPAVCNode@2@PAI11I@Z 1005cbd4 f   d3dx9dt:ccompiler.obj
 0001:0005c407       ?EmitLerp@CCompiler@D3DXShader@@IAEJPAVCNode@2@PAI111I@Z 1005d407 f   d3dx9dt:ccompiler.obj
 0001:0005c79d       ?ApplyType@CCompiler@D3DXShader@@IAEJPAVCNode@2@PAII@Z 1005d79d f   d3dx9dt:ccompiler.obj
 0001:0005c807       ?VectorizeVar@CCompiler@D3DXShader@@IAEJPAVCNode@2@PAIIHH01001@Z 1005d807 f   d3dx9dt:ccompiler.obj
 0001:0005c94a       ?EmitIf@CCompiler@D3DXShader@@IAEJPAVCNode@2@00PAI@Z 1005d94a f   d3dx9dt:ccompiler.obj
 0001:0005cf32       ?Vectorize@CCompiler@D3DXShader@@IAEJPAVCNode@2@PAIIHH00@Z 1005df32 f   d3dx9dt:ccompiler.obj
 0001:0005cfac       ?Unalias@CCompiler@D3DXShader@@IAEJPAVCNode@2@PAII@Z 1005dfac f   d3dx9dt:ccompiler.obj
 0001:0005d07f       ?EmitStatement@CCompiler@D3DXShader@@IAEJPAVCNode@2@@Z 1005e07f f   d3dx9dt:ccompiler.obj
 0001:0005d389       ?EmitIntrinsic@CCompiler@D3DXShader@@IAEJPAVCNode@2@PAI@Z 1005e389 f   d3dx9dt:ccompiler.obj
 0001:000629c2       ?EmitFunction@CCompiler@D3DXShader@@IAEJPBDPAVCNode@2@1PAIHH@Z 100639c2 f   d3dx9dt:ccompiler.obj
 0001:0006338b       ?EmitProgram@CCompiler@D3DXShader@@IAEJXZ 1006438b f   d3dx9dt:ccompiler.obj
 0001:00063483       ?EmitExpression@CCompiler@D3DXShader@@IAEJPAVCNode@2@PAI@Z 10064483 f   d3dx9dt:ccompiler.obj
 0001:0006548f       ?EmitArgs@CCompiler@D3DXShader@@IAEJPAVCNode@2@PAII@Z 1006648f f   d3dx9dt:ccompiler.obj
 0001:00065677       ?EmitEval@CCompiler@D3DXShader@@IAEJPAVCNode@2@@Z 10066677 f   d3dx9dt:ccompiler.obj
 0001:00065762       ?CompileInternal@CCompiler@D3DXShader@@IAEJPAVCPreProcessor@2@PAVCNode@2@PBD111H2KPAPAUID3DXBuffer@@PAPAUID3DXConstantTable@@@Z 10066762 f   d3dx9dt:ccompiler.obj
 0001:00065af8       ?Compile@CCompiler@D3DXShader@@QAEJPAVCPreProcessor@2@PAVCNode@2@PBDH2KPAPAUID3DXBuffer@@PAPAUID3DXConstantTable@@@Z 10066af8 f   d3dx9dt:ccompiler.obj
 0001:00065b4a       ?CompileFunction@CCompiler@D3DXShader@@QAEJPAVCPreProcessor@2@PAVCNode@2@11HPBDKPAPAUID3DXBuffer@@PAPAUID3DXConstantTable@@@Z 10066b4a f   d3dx9dt:ccompiler.obj
 0001:00065b85       ?CompileExpression@CCompiler@D3DXShader@@QAEJPAVCPreProcessor@2@PAVCNode@2@1PBDKPAPAUID3DXBuffer@@PAPAUID3DXConstantTable@@@Z 10066b85 f   d3dx9dt:ccompiler.obj
 0001:00065d88       ??0IUnknown@@QAE@XZ        10066d88 f i d3dx9dt:cconstanttable.obj
 0001:00065d8b       ??1CConstantTable@D3DXShader@@QAE@XZ 10066d8b f   d3dx9dt:cconstanttable.obj
 0001:00065dc2       _IsEqualGUID@8             10066dc2 f i d3dx9dt:cconstanttable.obj
 0001:00065ddd       ??_GCConstantTable@D3DXShader@@QAEPAXI@Z 10066ddd f i d3dx9dt:cconstanttable.obj
 0001:00065dfc       _==@8                      10066dfc f i d3dx9dt:cconstanttable.obj
 0001:00065e17       ?GetTypeSize@CConstantTable@D3DXShader@@QAEIPAU_D3DXSHADER_CONSTANTINFO@@PAU_D3DXSHADER_TYPEINFO@@@Z 10066e17 f   d3dx9dt:cconstanttable.obj
 0001:00065eb6       ?GetConstantTable@CConstantTable@D3DXShader@@QAEJPAPAU_D3DXSHADER_CONSTANTTABLE@@@Z 10066eb6 f   d3dx9dt:cconstanttable.obj
 0001:00065ee7       ?GetConstantInfo@CConstantTable@D3DXShader@@QAEJPBDPAPAU_D3DXSHADER_CONSTANTINFO@@PAPAU_D3DXSHADER_TYPEINFO@@PAI@Z 10066ee7 f   d3dx9dt:cconstanttable.obj
 0001:0006603e       ?DynamicHandle@CConstantTable@D3DXShader@@QAEPBDPAU_D3DXSHADER_CONSTANTINFO@@PAU_D3DXSHADER_TYPEINFO@@@Z 1006703e f   d3dx9dt:cconstanttable.obj
 0001:000660c4       ?SetTyped@CConstantTable@D3DXShader@@QAEJPAUIDirect3DDevice9@@PBDAAU_D3DXCT_TYPE@2@PBX@Z 100670c4 f   d3dx9dt:cconstanttable.obj
 0001:00066781       ?SetTypedFromPtrs@CConstantTable@D3DXShader@@QAEJPAUIDirect3DDevice9@@PBDAAU_D3DXCT_TYPE@2@PAPBX@Z 10067781 f   d3dx9dt:cconstanttable.obj
 0001:00066c6d       ?QueryInterface@CConstantTable@D3DXShader@@UAGJABU_GUID@@PAPAX@Z 10067c6d f   d3dx9dt:cconstanttable.obj
 0001:00066cc5       ?AddRef@CConstantTable@D3DXShader@@UAGKXZ 10067cc5 f   d3dx9dt:cconstanttable.obj
 0001:00066cd5       ?Release@CConstantTable@D3DXShader@@UAGKXZ 10067cd5 f   d3dx9dt:cconstanttable.obj
 0001:00066cf7       ?GetBufferPointer@CConstantTable@D3DXShader@@UAGPAXXZ 10067cf7 f   d3dx9dt:cconstanttable.obj
 0001:00066d04       ?GetBufferSize@CConstantTable@D3DXShader@@UAGKXZ 10067d04 f   d3dx9dt:cconstanttable.obj
 0001:00066d11       ?GetDesc@CConstantTable@D3DXShader@@UAGJPAU_D3DXCONSTANTTABLE_DESC@@@Z 10067d11 f   d3dx9dt:cconstanttable.obj
 0001:00066d8b       ?GetConstantDesc@CConstantTable@D3DXShader@@UAGJPBDPAU_D3DXCONSTANT_DESC@@PAI@Z 10067d8b f   d3dx9dt:cconstanttable.obj
 0001:00066ef6       ?GetConstant@CConstantTable@D3DXShader@@UAGPBDPBDI@Z 10067ef6 f   d3dx9dt:cconstanttable.obj
 0001:00067025       ?GetConstantByName@CConstantTable@D3DXShader@@UAGPBDPBD0@Z 10068025 f   d3dx9dt:cconstanttable.obj
 0001:000673eb       ?GetConstantElement@CConstantTable@D3DXShader@@UAGPBDPBDI@Z 100683eb f   d3dx9dt:cconstanttable.obj
 0001:0006747c       ?SetDefaults@CConstantTable@D3DXShader@@UAGJPAUIDirect3DDevice9@@@Z 1006847c f   d3dx9dt:cconstanttable.obj
 0001:000675d7       ?SetValue@CConstantTable@D3DXShader@@UAGJPAUIDirect3DDevice9@@PBDPBXI@Z 100685d7 f   d3dx9dt:cconstanttable.obj
 0001:00067613       ?SetBool@CConstantTable@D3DXShader@@UAGJPAUIDirect3DDevice9@@PBDH@Z 10068613 f   d3dx9dt:cconstanttable.obj
 0001:00067646       ?SetBoolArray@CConstantTable@D3DXShader@@UAGJPAUIDirect3DDevice9@@PBDPBHI@Z 10068646 f   d3dx9dt:cconstanttable.obj
 0001:0006767b       ?SetInt@CConstantTable@D3DXShader@@UAGJPAUIDirect3DDevice9@@PBDH@Z 1006867b f   d3dx9dt:cconstanttable.obj
 0001:000676b2       ?SetIntArray@CConstantTable@D3DXShader@@UAGJPAUIDirect3DDevice9@@PBDPBHI@Z 100686b2 f   d3dx9dt:cconstanttable.obj
 0001:000676eb       ?SetFloat@CConstantTable@D3DXShader@@UAGJPAUIDirect3DDevice9@@PBDM@Z 100686eb f   d3dx9dt:cconstanttable.obj
 0001:00067722       ?SetFloatArray@CConstantTable@D3DXShader@@UAGJPAUIDirect3DDevice9@@PBDPBMI@Z 10068722 f   d3dx9dt:cconstanttable.obj
 0001:0006775b       ?SetVector@CConstantTable@D3DXShader@@UAGJPAUIDirect3DDevice9@@PBDPBUD3DXVECTOR4@@@Z 1006875b f   d3dx9dt:cconstanttable.obj
 0001:00067794       ?SetVectorArray@CConstantTable@D3DXShader@@UAGJPAUIDirect3DDevice9@@PBDPBUD3DXVECTOR4@@I@Z 10068794 f   d3dx9dt:cconstanttable.obj
 0001:000677d0       ?SetMatrix@CConstantTable@D3DXShader@@UAGJPAUIDirect3DDevice9@@PBDPBUD3DXMATRIX@@@Z 100687d0 f   d3dx9dt:cconstanttable.obj
 0001:0006780d       ?SetMatrixArray@CConstantTable@D3DXShader@@UAGJPAUIDirect3DDevice9@@PBDPBUD3DXMATRIX@@I@Z 1006880d f   d3dx9dt:cconstanttable.obj
 0001:00067849       ?SetMatrixPointerArray@CConstantTable@D3DXShader@@UAGJPAUIDirect3DDevice9@@PBDPAPBUD3DXMATRIX@@I@Z 10068849 f   d3dx9dt:cconstanttable.obj
 0001:00067885       ?SetMatrixTranspose@CConstantTable@D3DXShader@@UAGJPAUIDirect3DDevice9@@PBDPBUD3DXMATRIX@@@Z 10068885 f   d3dx9dt:cconstanttable.obj
 0001:000678bd       ?SetMatrixTransposeArray@CConstantTable@D3DXShader@@UAGJPAUIDirect3DDevice9@@PBDPBUD3DXMATRIX@@I@Z 100688bd f   d3dx9dt:cconstanttable.obj
 0001:000678f4       ?SetMatrixTransposePointerArray@CConstantTable@D3DXShader@@UAGJPAUIDirect3DDevice9@@PBDPAPBUD3DXMATRIX@@I@Z 100688f4 f   d3dx9dt:cconstanttable.obj
 0001:0006792b       ??0ID3DXBuffer@@QAE@XZ     1006892b f i d3dx9dt:cconstanttable.obj
 0001:0006792e       ??0ID3DXConstantTable@@QAE@XZ 1006892e f i d3dx9dt:cconstanttable.obj
 0001:00067931       ??0CConstantTable@D3DXShader@@QAE@XZ 10068931 f   d3dx9dt:cconstanttable.obj
 0001:00067957       ?Create@CConstantTable@D3DXShader@@SGJIPAPAV12@@Z 10068957 f   d3dx9dt:cconstanttable.obj
 0001:000679ca       ??1CBuffer@D3DXCore@@UAE@XZ 100689ca f   d3dx9dt:cbuffer.obj
 0001:000679da       ?Init@CBuffer@D3DXCore@@UAEJK@Z 100689da f   d3dx9dt:cbuffer.obj
 0001:00067a04       ?AddRef@CBuffer@D3DXCore@@UAGKXZ 10068a04 f   d3dx9dt:cbuffer.obj
 0001:00067a14       ?Release@CBuffer@D3DXCore@@UAGKXZ 10068a14 f   d3dx9dt:cbuffer.obj
 0001:00067a37       ?GetBufferPointer@CBuffer@D3DXCore@@UAGPAXXZ 10068a37 f   d3dx9dt:cbuffer.obj
 0001:00067a44       ?GetBufferSize@CBuffer@D3DXCore@@UAGKXZ 10068a44 f   d3dx9dt:cbuffer.obj
 0001:00067a51       ?Grow@CBuffer@D3DXCore@@IAEJK@Z 10068a51 f   d3dx9dt:cbuffer.obj
 0001:00067aab       ??1CBufferA16@D3DXCore@@UAE@XZ 10068aab f   d3dx9dt:cbuffer.obj
 0001:00067ac6       ??_GCBufferA16@D3DXCore@@UAEPAXI@Z 10068ac6 f i d3dx9dt:cbuffer.obj
 0001:00067ac6       ??_ECBufferA16@D3DXCore@@UAEPAXI@Z 10068ac6 f i d3dx9dt:cbuffer.obj
 0001:00067ae5       ?Init@CBufferA16@D3DXCore@@UAEJK@Z 10068ae5 f   d3dx9dt:cbuffer.obj
 0001:00067b19       ?Init@CStringBuffer@D3DXCore@@UAEJK@Z 10068b19 f   d3dx9dt:cbuffer.obj
 0001:00067b40       ?AddString@CStringBuffer@D3DXCore@@UAEJPAD@Z 10068b40 f   d3dx9dt:cbuffer.obj
 0001:00067c4d       ??_ECBuffer@D3DXCore@@UAEPAXI@Z 10068c4d f i d3dx9dt:cbuffer.obj
 0001:00067c4d       ??_GCBuffer@D3DXCore@@UAEPAXI@Z 10068c4d f i d3dx9dt:cbuffer.obj
 0001:00067c6c       ?QueryInterface@CBuffer@D3DXCore@@UAGJABU_GUID@@PAPAX@Z 10068c6c f   d3dx9dt:cbuffer.obj
 0001:00067cb3       ??0CBuffer@D3DXCore@@QAE@XZ 10068cb3 f   d3dx9dt:cbuffer.obj
 0001:00067ccb       ?Create@CBuffer@D3DXCore@@SGJKPAPAV12@@Z 10068ccb f   d3dx9dt:cbuffer.obj
 0001:00067d38       ??0CBufferA16@D3DXCore@@QAE@XZ 10068d38 f i d3dx9dt:cbuffer.obj
 0001:00067d46       ??0CStringBuffer@D3DXCore@@QAE@XZ 10068d46 f   d3dx9dt:cbuffer.obj
 0001:00067d5c       ??_ECStringBuffer@D3DXCore@@UAEPAXI@Z 10068d5c f i d3dx9dt:cbuffer.obj
 0001:00067d5c       ??_GCStringBuffer@D3DXCore@@UAEPAXI@Z 10068d5c f i d3dx9dt:cbuffer.obj
 0001:00067d7b       ?Create@CStringBuffer@D3DXCore@@SGJKPAPAV12@@Z 10068d7b f   d3dx9dt:cbuffer.obj
 0001:00067de8       _D3DXCreateBuffer@8        10068de8 f   d3dx9dt:cbuffer.obj
 0001:00067df1       ?Create@CBufferA16@D3DXCore@@SGJKPAPAV12@@Z 10068df1 f   d3dx9dt:cbuffer.obj
 0001:00067e64       ?vmlsAcos4@@YGXQBMQAM@Z    10068e64 f   d3dx9dt:d3dxtrigsse.obj
 0001:0006806c       ?acos2_ss@@YGXMPAM@Z       1006906c f   d3dx9dt:d3dxtrigsse.obj
 0001:0006815d       ?sse_sin4@@YG?AU__m128@@U1@@Z 1006915d f   d3dx9dt:d3dxtrigsse.obj
 0001:000682b8       ?sse_sincos@@YG?AU__m128@@U1@@Z 100692b8 f   d3dx9dt:d3dxtrigsse.obj
 0001:00068446       ?sse_SinCos4@@YGXQBMQAM1@Z 10069446 f   d3dx9dt:d3dxtrigsse.obj
 0001:00068632       ?sse2_atan2@@YG?AU__m128@@QBM0@Z 10069632 f   d3dx9dt:d3dxtrigsse2.obj
 0001:00068b02       ?sse2_sincos@@YG?AU__m128@@U1@@Z 10069b02 f   d3dx9dt:d3dxtrigsse2.obj
 0001:00068bea       ?sse2_SinCos4@@YGXQBMQAM1@Z 10069bea f   d3dx9dt:d3dxtrigsse2.obj
 0001:00068d40       _a_atan                    10069d40 f   d3dx9dt:amdmath.obj
 0001:00068e00       _a_atan2                   10069e00 f   d3dx9dt:amdmath.obj
 0001:00068f00       _a_acos                    10069f00 f   d3dx9dt:amdmath.obj
 0001:00069000       _a_asin                    1006a000 f   d3dx9dt:amdmath.obj
 0001:00069100       _a_log                     1006a100 f   d3dx9dt:amdmath.obj
 0001:00069200       _a_log10                   1006a200 f   d3dx9dt:amdmath.obj
 0001:00069220       _a_exp                     1006a220 f   d3dx9dt:amdmath.obj
 0001:00069300       _a_sqrt                    1006a300 f   d3dx9dt:amdmath.obj
 0001:00069320       _a_fabs                    1006a320 f   d3dx9dt:amdmath.obj
 0001:00069340       _a_ceil                    1006a340 f   d3dx9dt:amdmath.obj
 0001:00069380       _a_floor                   1006a380 f   d3dx9dt:amdmath.obj
 0001:000693c0       _a_frexp                   1006a3c0 f   d3dx9dt:amdmath.obj
 0001:00069400       _a_ldexp                   1006a400 f   d3dx9dt:amdmath.obj
 0001:00069460       _a_modf                    1006a460 f   d3dx9dt:amdmath.obj
 0001:00069480       _a_fmod                    1006a480 f   d3dx9dt:amdmath.obj
 0001:000694e0       _a_sincos                  1006a4e0 f   d3dx9dt:amdmath.obj
 0001:000694e0       _a_cos                     1006a4e0 f   d3dx9dt:amdmath.obj
 0001:000695e0       _a_sin                     1006a5e0 f   d3dx9dt:amdmath.obj
 0001:000696e0       _a_tan                     1006a6e0 f   d3dx9dt:amdmath.obj
 0001:00069800       _a_pow                     1006a800 f   d3dx9dt:amdmath.obj
 0001:00069e9e       ?jinit_d_main_controller@D3DX@@YGXPAUjpeg_decompress_struct@1@H@Z 1006ae9e f   d3dx9dt:jdmainct.obj
 0001:0006aadd       ?jinit_d_coef_controller@D3DX@@YGXPAUjpeg_decompress_struct@1@H@Z 1006badd f   d3dx9dt:jdcoefct.obj
 0001:0006abc5       ?jpeg_make_d_derived_tbl@D3DX@@YGXPAUjpeg_decompress_struct@1@HHPAPAUd_derived_tbl@1@@Z 1006bbc5 f   d3dx9dt:jdhuff.obj
 0001:0006ae3b       ?jpeg_fill_bit_buffer@D3DX@@YGHPAUbitread_working_state@1@JHH@Z 1006be3b f   d3dx9dt:jdhuff.obj
 0001:0006af3f       ?jpeg_huff_decode@D3DX@@YGHPAUbitread_working_state@1@JHPAUd_derived_tbl@1@H@Z 1006bf3f f   d3dx9dt:jdhuff.obj
 0001:0006b513       ?jinit_huff_decoder@D3DX@@YGXPAUjpeg_decompress_struct@1@@Z 1006c513 f   d3dx9dt:jdhuff.obj
 0001:0006bff8       ?jinit_phuff_decoder@D3DX@@YGXPAUjpeg_decompress_struct@1@@Z 1006cff8 f   d3dx9dt:jdphuff.obj
 0001:0006c23a       ?jinit_inverse_dct@D3DX@@YGXPAUjpeg_decompress_struct@1@@Z 1006d23a f   d3dx9dt:jddctmgr.obj
 0001:0006c371       ?jinit_d_post_controller@D3DX@@YGXPAUjpeg_decompress_struct@1@H@Z 1006d371 f   d3dx9dt:jdpostct.obj
 0001:0006d15e       ?jinit_upsampler@D3DX@@YGXPAUjpeg_decompress_struct@1@@Z 1006e15e f   d3dx9dt:jdsample.obj
 0001:0006e06a       ?jinit_color_deconverter@D3DX@@YGXPAUjpeg_decompress_struct@1@@Z 1006f06a f   d3dx9dt:jdcolor.obj
 0001:0006ebdc       ?jinit_merged_upsampler@D3DX@@YGXPAUjpeg_decompress_struct@1@@Z 1006fbdc f   d3dx9dt:jdmerge.obj
 0001:0006ec51       ?jpeg_get_small@D3DX@@YGPAXPAUjpeg_common_struct@1@I@Z 1006fc51 f   d3dx9dt:jmemansi.obj
 0001:0006ec78       ?jpeg_free_small@D3DX@@YGXPAUjpeg_common_struct@1@PAXI@Z 1006fc78 f   d3dx9dt:jmemansi.obj
 0001:0006ec93       ?jpeg_get_large@D3DX@@YGPAXPAUjpeg_common_struct@1@I@Z 1006fc93 f   d3dx9dt:jmemansi.obj
 0001:0006ecba       ?jpeg_free_large@D3DX@@YGXPAUjpeg_common_struct@1@PAXI@Z 1006fcba f   d3dx9dt:jmemansi.obj
 0001:0006ecd5       ?jpeg_mem_available@D3DX@@YGJPAUjpeg_common_struct@1@JJJ@Z 1006fcd5 f   d3dx9dt:jmemansi.obj
 0001:0006edad       ?jpeg_open_backing_store@D3DX@@YGXPAUjpeg_common_struct@1@PAUbacking_store_struct@1@J@Z 1006fdad f   d3dx9dt:jmemansi.obj
 0001:0006ee01       ?jpeg_mem_init@D3DX@@YGJPAUjpeg_common_struct@1@@Z 1006fe01 f   d3dx9dt:jmemansi.obj
 0001:0006ee09       ?jpeg_mem_term@D3DX@@YGXPAUjpeg_common_struct@1@@Z 1006fe09 f   d3dx9dt:jmemansi.obj
 0001:0006ee0c       _d3dx_inflate_blocks_reset@12 1006fe0c f   d3dx9dt:infblock.obj
 0001:0006ee72       _d3dx_inflate_blocks_new@12 1006fe72 f   d3dx9dt:infblock.obj
 0001:0006eef0       _d3dx_inflate_blocks@12    1006fef0 f   d3dx9dt:infblock.obj
 0001:0006f63c       _d3dx_inflate_blocks_free@8 1007063c f   d3dx9dt:infblock.obj
 0001:0006f66f       _d3dx_inflate_set_dictionary@12 1007066f f   d3dx9dt:infblock.obj
 0001:0006f6a2       _d3dx_inflate_blocks_sync_point@4 100706a2 f   d3dx9dt:infblock.obj
 0001:0006f6b1       _d3dx_adler32@12           100706b1 f   d3dx9dt:adler32.obj
 0001:0006f7cc       _d3dx_zcalloc@12           100707cc f   d3dx9dt:default_allocator.obj
 0001:0006f7e8       _d3dx_zcfree@8             100707e8 f   d3dx9dt:default_allocator.obj
 0001:0006f8d1       ?jinit_c_main_controller@D3DX@@YGXPAUjpeg_compress_struct@1@H@Z 100708d1 f   d3dx9dt:jcmainct.obj
 0001:0006ff42       ?jinit_c_coef_controller@D3DX@@YGXPAUjpeg_compress_struct@1@H@Z 10070f42 f   d3dx9dt:jccoefct.obj
 0001:0006ffe6       ?jpeg_make_c_derived_tbl@D3DX@@YGXPAUjpeg_compress_struct@1@HHPAPAUc_derived_tbl@1@@Z 10070fe6 f   d3dx9dt:jchuff.obj
 0001:00070764       ?jpeg_gen_optimal_table@D3DX@@YGXPAUjpeg_compress_struct@1@PAUJHUFF_TBL@1@QAJ@Z 10071764 f   d3dx9dt:jchuff.obj
 0001:00070b30       ?jinit_huff_encoder@D3DX@@YGXPAUjpeg_compress_struct@1@@Z 10071b30 f   d3dx9dt:jchuff.obj
 0001:00071527       ?jinit_phuff_encoder@D3DX@@YGXPAUjpeg_compress_struct@1@@Z 10072527 f   d3dx9dt:jcphuff.obj
 0001:0007198e       ?jinit_forward_dct@D3DX@@YGXPAUjpeg_compress_struct@1@@Z 1007298e f   d3dx9dt:jcdctmgr.obj
 0001:00071e47       ?jinit_c_prep_controller@D3DX@@YGXPAUjpeg_compress_struct@1@H@Z 10072e47 f   d3dx9dt:jcprepct.obj
 0001:000727de       ?jinit_downsampler@D3DX@@YGXPAUjpeg_compress_struct@1@@Z 100737de f   d3dx9dt:jcsample.obj
 0001:00072f27       ?jinit_color_converter@D3DX@@YGXPAUjpeg_compress_struct@1@@Z 10073f27 f   d3dx9dt:jccolor.obj
 0001:000739eb       ?jinit_c_master_control@D3DX@@YGXPAUjpeg_compress_struct@1@H@Z 100749eb f   d3dx9dt:jcmaster.obj
 0001:00073a8e       ??0CNode@D3DXShader@@QAE@XZ 10074a8e f   d3dx9dt:cnode.obj
 0001:00073ac9       ??0CNode@D3DXShader@@QAE@W4_D3DXNODE_TYPE@1@@Z 10074ac9 f   d3dx9dt:cnode.obj
 0001:00073b0c       ??1CNode@D3DXShader@@UAE@XZ 10074b0c f   d3dx9dt:cnode.obj
 0001:00073b54       ?IsEqual@CNode@D3DXShader@@UAEHPAV12@@Z 10074b54 f   d3dx9dt:cnode.obj
 0001:00073b6d       ?Copy@CNode@D3DXShader@@UAEPAV12@XZ 10074b6d f   d3dx9dt:cnode.obj
 0001:00073b8c       ?Print@CNode@D3DXShader@@UAEXXZ 10074b8c f   d3dx9dt:cnode.obj
 0001:00073b98       ?Print@CNode@D3DXShader@@SGXPAV12@@Z 10074b98 f   d3dx9dt:cnode.obj
 0001:00073bc6       ?IsEqual@CNode@D3DXShader@@SGHPAV12@0@Z 10074bc6 f   d3dx9dt:cnode.obj
 0001:00073be6       ?Copy@CNode@D3DXShader@@SGPAV12@PAV12@@Z 10074be6 f   d3dx9dt:cnode.obj
 0001:00073bfd       ?Append@CNode@D3DXShader@@SGPAV12@PAV12@0@Z 10074bfd f   d3dx9dt:cnode.obj
 0001:00073c24       ?NewLine@CNode@D3DXShader@@IAEXXZ 10074c24 f   d3dx9dt:cnode.obj
 0001:00073c50       ??0CNodeList@D3DXShader@@QAE@XZ 10074c50 f   d3dx9dt:cnode.obj
 0001:00073c68       ??0CNodeList@D3DXShader@@QAE@PAVCNode@1@0PBD@Z 10074c68 f   d3dx9dt:cnode.obj
 0001:00073c94       ??1CNodeList@D3DXShader@@UAE@XZ 10074c94 f   d3dx9dt:cnode.obj
 0001:00073c9f       ?IsEqual@CNodeList@D3DXShader@@UAEHPAVCNode@2@@Z 10074c9f f   d3dx9dt:cnode.obj
 0001:00073cfa       ?Copy@CNodeList@D3DXShader@@UAEPAV12@XZ 10074cfa f   d3dx9dt:cnode.obj
 0001:00073d7c       ?Print@CNodeList@D3DXShader@@UAEXXZ 10074d7c f   d3dx9dt:cnode.obj
 0001:00073ea5       ??0CNodeToken@D3DXShader@@QAE@XZ 10074ea5 f   d3dx9dt:cnode.obj
 0001:00073eb9       ??0CNodeToken@D3DXShader@@QAE@PBUD3DXTOKEN@1@@Z 10074eb9 f   d3dx9dt:cnode.obj
 0001:00073ee2       ??1CNodeToken@D3DXShader@@UAE@XZ 10074ee2 f   d3dx9dt:cnode.obj
 0001:00073eed       ?IsEqual@CNodeToken@D3DXShader@@UAEHPAVCNode@2@@Z 10074eed f   d3dx9dt:cnode.obj
 0001:00073f12       ?Copy@CNodeToken@D3DXShader@@UAEPAV12@XZ 10074f12 f   d3dx9dt:cnode.obj
 0001:00073f41       ?Print@CNodeToken@D3DXShader@@UAEXXZ 10074f41 f   d3dx9dt:cnode.obj
 0001:00074018       ??0CNodeProgram@D3DXShader@@QAE@XZ 10075018 f   d3dx9dt:cnode.obj
 0001:0007403a       ??0CNodeProgram@D3DXShader@@QAE@IIIPAVCNode@1@@Z 1007503a f   d3dx9dt:cnode.obj
 0001:0007406c       ??1CNodeProgram@D3DXShader@@UAE@XZ 1007506c f   d3dx9dt:cnode.obj
 0001:0007408a       ?IsEqual@CNodeProgram@D3DXShader@@UAEHPAVCNode@2@@Z 1007508a f   d3dx9dt:cnode.obj
 0001:000740cb       ?Copy@CNodeProgram@D3DXShader@@UAEPAV12@XZ 100750cb f   d3dx9dt:cnode.obj
 0001:00074122       ?Print@CNodeProgram@D3DXShader@@UAEXXZ 10075122 f   d3dx9dt:cnode.obj
 0001:0007414a       ??0CNodeScope@D3DXShader@@QAE@XZ 1007514a f   d3dx9dt:cnode.obj
 0001:0007416c       ??0CNodeScope@D3DXShader@@QAE@W4_D3DXSCOPE_TYPE@1@PBDPAVCNode@1@PAV01@@Z 1007516c f   d3dx9dt:cnode.obj
 0001:0007419e       ??1CNodeScope@D3DXShader@@UAE@XZ 1007519e f   d3dx9dt:cnode.obj
 0001:000741c9       ?IsEqual@CNodeScope@D3DXShader@@UAEHPAVCNode@2@@Z 100751c9 f   d3dx9dt:cnode.obj
 0001:00074218       ?Copy@CNodeScope@D3DXShader@@UAEPAV12@XZ 10075218 f   d3dx9dt:cnode.obj
 0001:0007427c       ?Print@CNodeScope@D3DXShader@@UAEXXZ 1007527c f   d3dx9dt:cnode.obj
 0001:00074328       ??0CNodeDecl@D3DXShader@@QAE@XZ 10075328 f   d3dx9dt:cnode.obj
 0001:00074357       ??0CNodeDecl@D3DXShader@@QAE@W4_D3DXDECL_TYPE@1@PAVCNode@1@11@Z 10075357 f   d3dx9dt:cnode.obj
 0001:00074398       ??1CNodeDecl@D3DXShader@@UAE@XZ 10075398 f   d3dx9dt:cnode.obj
 0001:000743d0       ?IsEqual@CNodeDecl@D3DXShader@@UAEHPAVCNode@2@@Z 100753d0 f   d3dx9dt:cnode.obj
 0001:00074446       ?Copy@CNodeDecl@D3DXShader@@UAEPAV12@XZ 10075446 f   d3dx9dt:cnode.obj
 0001:000744cf       ?Print@CNodeDecl@D3DXShader@@UAEXXZ 100754cf f   d3dx9dt:cnode.obj
 0001:0007452e       ??0CNodeUsage@D3DXShader@@QAE@XZ 1007552e f   d3dx9dt:cnode.obj
 0001:0007454d       ??0CNodeUsage@D3DXShader@@QAE@KPAVCNode@1@0@Z 1007554d f   d3dx9dt:cnode.obj
 0001:00074579       ??1CNodeUsage@D3DXShader@@UAE@XZ 10075579 f   d3dx9dt:cnode.obj
 0001:000745a4       ?IsEqual@CNodeUsage@D3DXShader@@UAEHPAVCNode@2@@Z 100755a4 f   d3dx9dt:cnode.obj
 0001:000745eb       ?Copy@CNodeUsage@D3DXShader@@UAEPAV12@XZ 100755eb f   d3dx9dt:cnode.obj
 0001:00074649       ?PrintUsage@CNodeUsage@D3DXShader@@SGXK@Z 10075649 f   d3dx9dt:cnode.obj
 0001:00074704       ??0CNodeArray@D3DXShader@@QAE@XZ 10075704 f   d3dx9dt:cnode.obj
 0001:00074720       ??0CNodeArray@D3DXShader@@QAE@PAVCNode@1@I@Z 10075720 f   d3dx9dt:cnode.obj
 0001:00074746       ??1CNodeArray@D3DXShader@@UAE@XZ 10075746 f   d3dx9dt:cnode.obj
 0001:00074764       ?IsEqual@CNodeArray@D3DXShader@@UAEHPAVCNode@2@@Z 10075764 f   d3dx9dt:cnode.obj
 0001:00074795       ?Copy@CNodeArray@D3DXShader@@UAEPAV12@XZ 10075795 f   d3dx9dt:cnode.obj
 0001:000747e0       ?Print@CNodeArray@D3DXShader@@UAEXXZ 100757e0 f   d3dx9dt:cnode.obj
 0001:00074807       ??0CNodeType@D3DXShader@@QAE@XZ 10075807 f   d3dx9dt:cnode.obj
 0001:00074830       ??0CNodeType@D3DXShader@@QAE@W4_D3DXTYPE_TEMPLATE@1@W4_D3DXCOMPONENT_TYPE@1@IIK@Z 10075830 f   d3dx9dt:cnode.obj
 0001:00074868       ??1CNodeType@D3DXShader@@UAE@XZ 10075868 f   d3dx9dt:cnode.obj
 0001:00074873       ?IsEqual@CNodeType@D3DXShader@@UAEHPAVCNode@2@@Z 10075873 f   d3dx9dt:cnode.obj
 0001:000748b6       ?Copy@CNodeType@D3DXShader@@UAEPAV12@XZ 100758b6 f   d3dx9dt:cnode.obj
 0001:000748f6       ?Print@CNodeType@D3DXShader@@UAEXXZ 100758f6 f   d3dx9dt:cnode.obj
 0001:00074b1f       ??0CNodeFunction@D3DXShader@@QAE@XZ 10075b1f f   d3dx9dt:cnode.obj
 0001:00074b59       ??0CNodeFunction@D3DXShader@@QAE@IIKPAVCNode@1@000000@Z 10075b59 f   d3dx9dt:cnode.obj
 0001:00074bb7       ??1CNodeFunction@D3DXShader@@UAE@XZ 10075bb7 f   d3dx9dt:cnode.obj
 0001:00074c21       ?IsEqual@CNodeFunction@D3DXShader@@UAEHPAVCNode@2@@Z 10075c21 f   d3dx9dt:cnode.obj
 0001:00074cdf       ?Copy@CNodeFunction@D3DXShader@@UAEPAV12@XZ 10075cdf f   d3dx9dt:cnode.obj
 0001:00074db8       ?Print@CNodeFunction@D3DXShader@@UAEXXZ 10075db8 f   d3dx9dt:cnode.obj
 0001:00074e76       ??0CNodeVariable@D3DXShader@@QAE@XZ 10075e76 f   d3dx9dt:cnode.obj
 0001:00074ead       ??0CNodeVariable@D3DXShader@@QAE@IIW4_D3DXSCOPE_TYPE@1@KPAVCNode@1@1111@Z 10075ead f   d3dx9dt:cnode.obj
 0001:00074f05       ??1CNodeVariable@D3DXShader@@UAE@XZ 10075f05 f   d3dx9dt:cnode.obj
 0001:00074f60       ?IsEqual@CNodeVariable@D3DXShader@@UAEHPAVCNode@2@@Z 10075f60 f   d3dx9dt:cnode.obj
 0001:0007500c       ?Copy@CNodeVariable@D3DXShader@@UAEPAV12@XZ 1007600c f   d3dx9dt:cnode.obj
 0001:000750f2       ?Print@CNodeVariable@D3DXShader@@UAEXXZ 100760f2 f   d3dx9dt:cnode.obj
 0001:00075192       ??0CNodeStatement@D3DXShader@@QAE@XZ 10076192 f   d3dx9dt:cnode.obj
 0001:000751ba       ??0CNodeStatement@D3DXShader@@QAE@W4_D3DXSTMT_TYPE@1@PAVCNode@1@1111@Z 100761ba f   d3dx9dt:cnode.obj
 0001:000751f8       ??1CNodeStatement@D3DXShader@@UAE@XZ 100761f8 f   d3dx9dt:cnode.obj
 0001:0007524a       ?IsEqual@CNodeStatement@D3DXShader@@UAEHPAVCNode@2@@Z 1007624a f   d3dx9dt:cnode.obj
 0001:000752be       ?Copy@CNodeStatement@D3DXShader@@UAEPAV12@XZ 100762be f   d3dx9dt:cnode.obj
 0001:00075355       ?Print@CNodeStatement@D3DXShader@@UAEXXZ 10076355 f   d3dx9dt:cnode.obj
 0001:000753e1       ??0CNodeExpression@D3DXShader@@QAE@XZ 100763e1 f   d3dx9dt:cnode.obj
 0001:0007541a       ??0CNodeExpression@D3DXShader@@QAE@PAVCNode@1@W4_D3DXEXPR_OP@1@00HPBUD3DXTOKEN@1@@Z 1007641a f   d3dx9dt:cnode.obj
 0001:00075469       ??1CNodeExpression@D3DXShader@@UAE@XZ 10076469 f   d3dx9dt:cnode.obj
 0001:000754a1       ?IsEqual@CNodeExpression@D3DXShader@@UAEHPAVCNode@2@@Z 100764a1 f   d3dx9dt:cnode.obj
 0001:0007551e       ?Copy@CNodeExpression@D3DXShader@@UAEPAV12@XZ 1007651e f   d3dx9dt:cnode.obj
 0001:000755b9       ?Print@CNodeExpression@D3DXShader@@UAEXXZ 100765b9 f   d3dx9dt:cnode.obj
 0001:00075825       ??0CNodeValue@D3DXShader@@QAE@XZ 10076825 f   d3dx9dt:cnode.obj
 0001:00075856       ??0CNodeValue@D3DXShader@@QAE@PBU_D3DXVALUE@1@PBUD3DXTOKEN@1@@Z 10076856 f   d3dx9dt:cnode.obj
 0001:000758b3       ??0CNodeValue@D3DXShader@@QAE@W4_D3DXVALUE_TYPE@1@IPBUD3DXTOKEN@1@@Z 100768b3 f   d3dx9dt:cnode.obj
 0001:000758e8       ??0CNodeValue@D3DXShader@@QAE@W4_D3DXVALUE_TYPE@1@NPBUD3DXTOKEN@1@@Z 100768e8 f   d3dx9dt:cnode.obj
 0001:0007591d       ??0CNodeValue@D3DXShader@@QAE@W4_D3DXVALUE_TYPE@1@PAVCNode@1@PBUD3DXTOKEN@1@@Z 1007691d f   d3dx9dt:cnode.obj
 0001:00075952       ??0CNodeValue@D3DXShader@@QAE@W4_D3DXVALUE_TYPE@1@PAUID3DXBuffer@@PBUD3DXTOKEN@1@@Z 10076952 f   d3dx9dt:cnode.obj
 0001:00075991       ??0CNodeValue@D3DXShader@@QAE@W4_D3DXVALUE_TYPE@1@IIPBUD3DXTOKEN@1@@Z 10076991 f   d3dx9dt:cnode.obj
 0001:000759cc       ??1CNodeValue@D3DXShader@@UAE@XZ 100769cc f   d3dx9dt:cnode.obj
 0001:00075a07       ?IsEqual@CNodeValue@D3DXShader@@UAEHPAVCNode@2@@Z 10076a07 f   d3dx9dt:cnode.obj
 0001:00075a56       ?Copy@CNodeValue@D3DXShader@@UAEPAV12@XZ 10076a56 f   d3dx9dt:cnode.obj
 0001:00075ada       ?Print@CNodeValue@D3DXShader@@UAEXXZ 10076ada f   d3dx9dt:cnode.obj
 0001:00075b8f       ??0CNodeState@D3DXShader@@QAE@XZ 10076b8f f   d3dx9dt:cnode.obj
 0001:00075bae       ??0CNodeState@D3DXShader@@QAE@PAVCNode@1@00@Z 10076bae f   d3dx9dt:cnode.obj
 0001:00075bda       ??1CNodeState@D3DXShader@@UAE@XZ 10076bda f   d3dx9dt:cnode.obj
 0001:00075c12       ?IsEqual@CNodeState@D3DXShader@@UAEHPAVCNode@2@@Z 10076c12 f   d3dx9dt:cnode.obj
 0001:00075c60       ?Copy@CNodeState@D3DXShader@@UAEPAV12@XZ 10076c60 f   d3dx9dt:cnode.obj
 0001:00075ccb       ?Print@CNodeState@D3DXShader@@UAEXXZ 10076ccb f   d3dx9dt:cnode.obj
 0001:00075d1f       ??0CNodeBuffer@D3DXShader@@QAE@XZ 10076d1f f   d3dx9dt:cnode.obj
 0001:00075d37       ??0CNodeBuffer@D3DXShader@@QAE@PBUD3DXTOKEN@1@PAUID3DXBuffer@@@Z 10076d37 f   d3dx9dt:cnode.obj
 0001:00075d70       ??1CNodeBuffer@D3DXShader@@UAE@XZ 10076d70 f   d3dx9dt:cnode.obj
 0001:00075d92       ?IsEqual@CNodeBuffer@D3DXShader@@UAEHPAVCNode@2@@Z 10076d92 f   d3dx9dt:cnode.obj
 0001:00075dca       ?Copy@CNodeBuffer@D3DXShader@@UAEPAV12@XZ 10076dca f   d3dx9dt:cnode.obj
 0001:00075e1c       ?Print@CNodeBuffer@D3DXShader@@UAEXXZ 10076e1c f   d3dx9dt:cnode.obj
 0001:00075e51       ??0CNodeRegister@D3DXShader@@QAE@XZ 10076e51 f   d3dx9dt:cnode.obj
 0001:00075e6d       ??0CNodeRegister@D3DXShader@@QAE@PAVCNode@1@0@Z 10076e6d f   d3dx9dt:cnode.obj
 0001:00075e93       ??1CNodeRegister@D3DXShader@@UAE@XZ 10076e93 f   d3dx9dt:cnode.obj
 0001:00075ebe       ?IsEqual@CNodeRegister@D3DXShader@@UAEHPAVCNode@2@@Z 10076ebe f   d3dx9dt:cnode.obj
 0001:00075efd       ?Copy@CNodeRegister@D3DXShader@@UAEPAV12@XZ 10076efd f   d3dx9dt:cnode.obj
 0001:00075f55       ?Print@CNodeRegister@D3DXShader@@UAEXXZ 10076f55 f   d3dx9dt:cnode.obj
 0001:00075f90       ??_ECNode@D3DXShader@@UAEPAXI@Z 10076f90 f i d3dx9dt:cnode.obj
 0001:00075f90       ??_GCNode@D3DXShader@@UAEPAXI@Z 10076f90 f i d3dx9dt:cnode.obj
 0001:00075faf       ??_ECNodeList@D3DXShader@@UAEPAXI@Z 10076faf f i d3dx9dt:cnode.obj
 0001:00075faf       ??_GCNodeList@D3DXShader@@UAEPAXI@Z 10076faf f i d3dx9dt:cnode.obj
 0001:00075fd4       ??_ECNodeToken@D3DXShader@@UAEPAXI@Z 10076fd4 f i d3dx9dt:cnode.obj
 0001:00075fd4       ??_GCNodeToken@D3DXShader@@UAEPAXI@Z 10076fd4 f i d3dx9dt:cnode.obj
 0001:00075ff9       ??_ECNodeProgram@D3DXShader@@UAEPAXI@Z 10076ff9 f i d3dx9dt:cnode.obj
 0001:00075ff9       ??_GCNodeProgram@D3DXShader@@UAEPAXI@Z 10076ff9 f i d3dx9dt:cnode.obj
 0001:00076018       ??_GCNodeScope@D3DXShader@@UAEPAXI@Z 10077018 f i d3dx9dt:cnode.obj
 0001:00076018       ??_ECNodeScope@D3DXShader@@UAEPAXI@Z 10077018 f i d3dx9dt:cnode.obj
 0001:00076037       ??_ECNodeDecl@D3DXShader@@UAEPAXI@Z 10077037 f i d3dx9dt:cnode.obj
 0001:00076037       ??_GCNodeDecl@D3DXShader@@UAEPAXI@Z 10077037 f i d3dx9dt:cnode.obj
 0001:00076056       ??_GCNodeUsage@D3DXShader@@UAEPAXI@Z 10077056 f i d3dx9dt:cnode.obj
 0001:00076056       ??_ECNodeUsage@D3DXShader@@UAEPAXI@Z 10077056 f i d3dx9dt:cnode.obj
 0001:00076075       ?Print@CNodeUsage@D3DXShader@@UAEXXZ 10077075 f   d3dx9dt:cnode.obj
 0001:000760de       ??_ECNodeArray@D3DXShader@@UAEPAXI@Z 100770de f i d3dx9dt:cnode.obj
 0001:000760de       ??_GCNodeArray@D3DXShader@@UAEPAXI@Z 100770de f i d3dx9dt:cnode.obj
 0001:000760fd       ??_GCNodeType@D3DXShader@@UAEPAXI@Z 100770fd f i d3dx9dt:cnode.obj
 0001:000760fd       ??_ECNodeType@D3DXShader@@UAEPAXI@Z 100770fd f i d3dx9dt:cnode.obj
 0001:00076122       ??_ECNodeFunction@D3DXShader@@UAEPAXI@Z 10077122 f i d3dx9dt:cnode.obj
 0001:00076122       ??_GCNodeFunction@D3DXShader@@UAEPAXI@Z 10077122 f i d3dx9dt:cnode.obj
 0001:00076141       ??_ECNodeVariable@D3DXShader@@UAEPAXI@Z 10077141 f i d3dx9dt:cnode.obj
 0001:00076141       ??_GCNodeVariable@D3DXShader@@UAEPAXI@Z 10077141 f i d3dx9dt:cnode.obj
 0001:00076160       ??_GCNodeStatement@D3DXShader@@UAEPAXI@Z 10077160 f i d3dx9dt:cnode.obj
 0001:00076160       ??_ECNodeStatement@D3DXShader@@UAEPAXI@Z 10077160 f i d3dx9dt:cnode.obj
 0001:0007617f       ??_GCNodeExpression@D3DXShader@@UAEPAXI@Z 1007717f f i d3dx9dt:cnode.obj
 0001:0007617f       ??_ECNodeExpression@D3DXShader@@UAEPAXI@Z 1007717f f i d3dx9dt:cnode.obj
 0001:0007619e       ??_ECNodeValue@D3DXShader@@UAEPAXI@Z 1007719e f i d3dx9dt:cnode.obj
 0001:0007619e       ??_GCNodeValue@D3DXShader@@UAEPAXI@Z 1007719e f i d3dx9dt:cnode.obj
 0001:000761bd       ??_ECNodeState@D3DXShader@@UAEPAXI@Z 100771bd f i d3dx9dt:cnode.obj
 0001:000761bd       ??_GCNodeState@D3DXShader@@UAEPAXI@Z 100771bd f i d3dx9dt:cnode.obj
 0001:000761dc       ??_ECNodeBuffer@D3DXShader@@UAEPAXI@Z 100771dc f i d3dx9dt:cnode.obj
 0001:000761dc       ??_GCNodeBuffer@D3DXShader@@UAEPAXI@Z 100771dc f i d3dx9dt:cnode.obj
 0001:000761fb       ??_GCNodeRegister@D3DXShader@@UAEPAXI@Z 100771fb f i d3dx9dt:cnode.obj
 0001:000761fb       ??_ECNodeRegister@D3DXShader@@UAEPAXI@Z 100771fb f i d3dx9dt:cnode.obj
 0001:0007621a       ??0CCommentBlock@D3DXShader@@QAE@K@Z 1007721a f   d3dx9dt:ccommentblock.obj
 0001:00076235       ??1CCommentBlock@D3DXShader@@QAE@XZ 10077235 f   d3dx9dt:ccommentblock.obj
 0001:0007626b       ?Add@CCommentBlock@D3DXShader@@QAEJPBXIKPAK@Z 1007726b f   d3dx9dt:ccommentblock.obj
 0001:000763a2       ?SizeInDwords@CCommentBlock@D3DXShader@@QAEIXZ 100773a2 f   d3dx9dt:ccommentblock.obj
 0001:000763ae       ?WriteComment@CCommentBlock@D3DXShader@@QAEJPAKI@Z 100773ae f   d3dx9dt:ccommentblock.obj
 0001:00076499       ??0CFragmentConstants@D3DXShader@@QAE@PAVCParse@1@PAVCNodeScope@1@@Z 10077499 f   d3dx9dt:d3dx9fragment.obj
 0001:000764ad       ?CalcNumRegisters@D3DXShader@@YGJPAVCNode@1@PAI1@Z 100774ad f   d3dx9dt:d3dx9fragment.obj
 0001:00076591       ?GetConstantSize@CFragmentConstants@D3DXShader@@QAEJPAUD3DXTOKEN@2@PBDPAI@Z 10077591 f   d3dx9dt:d3dx9fragment.obj
 0001:0007668d       ?EmitDefaultValue@D3DXShader@@YGJPAVCCommentBlock@1@IIPAVCNode@1@PAK@Z 1007768d f   d3dx9dt:d3dx9fragment.obj
 0001:00076800       ?AddRegister@CFragmentConstants@D3DXShader@@QAEJPAVCCommentBlock@2@PAU_D3DXSHADER_CONSTANTINFO@@PBDIK@Z 10077800 f   d3dx9dt:d3dx9fragment.obj
 0001:00076b13       ?GatherFragments@D3DXShader@@YGJPAVCPreProcessor@1@KPAPAUID3DXBuffer@@1@Z 10077b13 f   d3dx9dt:d3dx9fragment.obj
 0001:0007706c       _D3DXGatherFragmentsFromFileA@24 1007806c f   d3dx9dt:d3dx9fragment.obj
 0001:000770fc       _D3DXGatherFragmentsFromFileW@24 100780fc f   d3dx9dt:d3dx9fragment.obj
 0001:0007718c       _D3DXGatherFragmentsFromResourceA@28 1007818c f   d3dx9dt:d3dx9fragment.obj
 0001:0007721f       _D3DXGatherFragmentsFromResourceW@28 1007821f f   d3dx9dt:d3dx9fragment.obj
 0001:000772b2       _D3DXGatherFragments@28    100782b2 f   d3dx9dt:d3dx9fragment.obj
 0001:00077343       ??0CNodeAsmInstruction@D3DXShader@@QAE@XZ 10078343 f   d3dx9dt:cnodeasm.obj
 0001:0007737f       ??0CNodeAsmInstruction@D3DXShader@@QAE@PBUD3DXTOKEN@1@KKK@Z 1007837f f   d3dx9dt:cnodeasm.obj
 0001:000773cf       ??1CNodeAsmInstruction@D3DXShader@@UAE@XZ 100783cf f   d3dx9dt:cnodeasm.obj
 0001:00077416       ?Copy@CNodeAsmInstruction@D3DXShader@@UAEPAV12@XZ 10078416 f   d3dx9dt:cnodeasm.obj
 0001:000774da       ?Print@CNodeAsmInstruction@D3DXShader@@UAEXXZ 100784da f   d3dx9dt:cnodeasm.obj
 0001:000774db       ??0CNodeAsmRegister@D3DXShader@@QAE@XZ 100784db f   d3dx9dt:cnodeasm.obj
 0001:0007750e       ??0CNodeAsmRegister@D3DXShader@@QAE@KKKHPAVCNode@1@@Z 1007850e f   d3dx9dt:cnodeasm.obj
 0001:00077554       ??1CNodeAsmRegister@D3DXShader@@UAE@XZ 10078554 f   d3dx9dt:cnodeasm.obj
 0001:00077572       ?Copy@CNodeAsmRegister@D3DXShader@@UAEPAV12@XZ 10078572 f   d3dx9dt:cnodeasm.obj
 0001:000775db       ?Print@CNodeAsmRegister@D3DXShader@@UAEXXZ 100785db f   d3dx9dt:cnodeasm.obj
 0001:000775dc       ??_GCNodeAsmInstruction@D3DXShader@@UAEPAXI@Z 100785dc f i d3dx9dt:cnodeasm.obj
 0001:000775dc       ??_ECNodeAsmInstruction@D3DXShader@@UAEPAXI@Z 100785dc f i d3dx9dt:cnodeasm.obj
 0001:000775fb       ??_GCNodeAsmRegister@D3DXShader@@UAEPAXI@Z 100785fb f i d3dx9dt:cnodeasm.obj
 0001:000775fb       ??_ECNodeAsmRegister@D3DXShader@@UAEPAXI@Z 100785fb f i d3dx9dt:cnodeasm.obj
 0001:0007761a       ??0CBaseProgram@D3DXShader@@QAE@XZ 1007861a f   d3dx9dt:cbaseprogram.obj
 0001:00077640       ??_GCPool@D3DXShader@@QAEPAXI@Z 10078640 f i d3dx9dt:cbaseprogram.obj
 0001:0007765f       ??_GCArgument@D3DXShader@@QAEPAXI@Z 1007865f f i d3dx9dt:cbaseprogram.obj
 0001:0007767e       ??_GCInstruction@D3DXShader@@QAEPAXI@Z 1007867e f i d3dx9dt:cbaseprogram.obj
 0001:0007769d       ?GetNumPools@CBaseProgram@D3DXShader@@QAEIXZ 1007869d f   d3dx9dt:cbaseprogram.obj
 0001:000776a1       ?GetNumArguments@CBaseProgram@D3DXShader@@QAEIXZ 100786a1 f   d3dx9dt:cbaseprogram.obj
 0001:000776a5       ?GetNumInstructions@CBaseProgram@D3DXShader@@QAEIXZ 100786a5 f   d3dx9dt:cbaseprogram.obj
 0001:000776a9       ?AddPool@CBaseProgram@D3DXShader@@QAEIPAVCPool@2@@Z 100786a9 f   d3dx9dt:cbaseprogram.obj
 0001:00077761       ?AddArgument@CBaseProgram@D3DXShader@@QAEIPAVCArgument@2@@Z 10078761 f   d3dx9dt:cbaseprogram.obj
 0001:000778c7       ?AddInstruction@CBaseProgram@D3DXShader@@QAEIPAVCInstruction@2@@Z 100788c7 f   d3dx9dt:cbaseprogram.obj
 0001:0007797f       ?AddPool@CBaseProgram@D3DXShader@@QAEIPBDKII@Z 1007897f f   d3dx9dt:cbaseprogram.obj
 0001:000779d6       ?AddArgument@CBaseProgram@D3DXShader@@QAEIIIIN@Z 100789d6 f   d3dx9dt:cbaseprogram.obj
 0001:00077a32       ?AddInstruction@CBaseProgram@D3DXShader@@QAEIKII@Z 10078a32 f   d3dx9dt:cbaseprogram.obj
 0001:00077a88       ?CopyPool@CBaseProgram@D3DXShader@@QAEIPAVCPool@2@@Z 10078a88 f   d3dx9dt:cbaseprogram.obj
 0001:00077ad6       ?CopyArgument@CBaseProgram@D3DXShader@@QAEIPAVCArgument@2@@Z 10078ad6 f   d3dx9dt:cbaseprogram.obj
 0001:00077b24       ?CopyInstruction@CBaseProgram@D3DXShader@@QAEIPAVCInstruction@2@@Z 10078b24 f   d3dx9dt:cbaseprogram.obj
 0001:00077b72       ?GetPool@CBaseProgram@D3DXShader@@QAEPAVCPool@2@I@Z 10078b72 f   d3dx9dt:cbaseprogram.obj
 0001:00077b8b       ?GetArgument@CBaseProgram@D3DXShader@@QAEPAVCArgument@2@I@Z 10078b8b f   d3dx9dt:cbaseprogram.obj
 0001:00077ba4       ?GetInstruction@CBaseProgram@D3DXShader@@QAEPAVCInstruction@2@I@Z 10078ba4 f   d3dx9dt:cbaseprogram.obj
 0001:00077bbd       ??1CBaseProgram@D3DXShader@@UAE@XZ 10078bbd f   d3dx9dt:cbaseprogram.obj
 0001:00077c52       ??_ECBaseProgram@D3DXShader@@UAEPAXI@Z 10078c52 f i d3dx9dt:cbaseprogram.obj
 0001:00077c52       ??_GCBaseProgram@D3DXShader@@UAEPAXI@Z 10078c52 f i d3dx9dt:cbaseprogram.obj
 0001:00077c71       ??0CInstruction@D3DXShader@@QAE@XZ 10078c71 f   d3dx9dt:cinstruction.obj
 0001:00077ca6       ??1CInstruction@D3DXShader@@QAE@XZ 10078ca6 f   d3dx9dt:cinstruction.obj
 0001:00077cd4       ?Initialize@CInstruction@D3DXShader@@QAEJKIIH@Z 10078cd4 f   d3dx9dt:cinstruction.obj
 0001:00077f24       ?Initialize@CInstruction@D3DXShader@@QAEJPAV12@@Z 10078f24 f   d3dx9dt:cinstruction.obj
 0001:00077fce       ?Instance@CInstruction@D3DXShader@@QAEJPAV12@@Z 10078fce f   d3dx9dt:cinstruction.obj
 0001:00077feb       ?GetInputs@CInstruction@D3DXShader@@QAEIIPAPAI@Z 10078feb f   d3dx9dt:cinstruction.obj
 0001:00078026       ?IsNOP@CInstruction@D3DXShader@@QAEHXZ 10079026 f   d3dx9dt:cinstruction.obj
 0001:00078033       ?IsMOV@CInstruction@D3DXShader@@QAEHXZ 10079033 f   d3dx9dt:cinstruction.obj
 0001:00078045       ?IsNEG@CInstruction@D3DXShader@@QAEHXZ 10079045 f   d3dx9dt:cinstruction.obj
 0001:00078057       ?IsDOT@CInstruction@D3DXShader@@QAEHXZ 10079057 f   d3dx9dt:cinstruction.obj
 0001:00078069       ?IsIN@CInstruction@D3DXShader@@QAEHXZ 10079069 f   d3dx9dt:cinstruction.obj
 0001:0007807b       ?IsOUT@CInstruction@D3DXShader@@QAEHXZ 1007907b f   d3dx9dt:cinstruction.obj
 0001:0007808d       ?IsCLIP@CInstruction@D3DXShader@@QAEHXZ 1007908d f   d3dx9dt:cinstruction.obj
 0001:0007809f       ?IsUnary@CInstruction@D3DXShader@@QAEHXZ 1007909f f   d3dx9dt:cinstruction.obj
 0001:000780b1       ?IsBinary@CInstruction@D3DXShader@@QAEHXZ 100790b1 f   d3dx9dt:cinstruction.obj
 0001:000780c3       ?IsTrinary@CInstruction@D3DXShader@@QAEHXZ 100790c3 f   d3dx9dt:cinstruction.obj
 0001:000780d5       ?IsTexture@CInstruction@D3DXShader@@QAEHXZ 100790d5 f   d3dx9dt:cinstruction.obj
 0001:000780e7       ?IsSpecial@CInstruction@D3DXShader@@QAEHXZ 100790e7 f   d3dx9dt:cinstruction.obj
 0001:000780f7       ?IsSymetric@CInstruction@D3DXShader@@QAEHXZ 100790f7 f   d3dx9dt:cinstruction.obj
 0001:00078128       ?IsPerComponent@CInstruction@D3DXShader@@QAEHXZ 10079128 f   d3dx9dt:cinstruction.obj
 0001:0007814b       ?GetOutputs@CInstruction@D3DXShader@@QAEIIPAPAI@Z 1007914b f   d3dx9dt:cinstruction.obj
 0001:000781bc       ??0CArgument@D3DXShader@@QAE@XZ 100791bc f   d3dx9dt:cargument.obj
 0001:000781c5       ??1CArgument@D3DXShader@@QAE@XZ 100791c5 f   d3dx9dt:cargument.obj
 0001:000781cc       ?Initialize@CArgument@D3DXShader@@QAEJIIIN@Z 100791cc f   d3dx9dt:cargument.obj
 0001:00078227       ?Initialize@CArgument@D3DXShader@@QAEJPAV12@@Z 10079227 f   d3dx9dt:cargument.obj
 0001:000782c3       ?Instance@CArgument@D3DXShader@@QAEJPAV12@@Z 100792c3 f   d3dx9dt:cargument.obj
 0001:000783ef       ?HeapSort@D3DXShader@@YGXP6GHIIPBX@ZPAII0@Z 100793ef f   d3dx9dt:cprogram.obj
 0001:00078504       ??0CProgram@D3DXShader@@QAE@XZ 10079504 f   d3dx9dt:cprogram.obj
 0001:00078545       ??1CProgram@D3DXShader@@UAE@XZ 10079545 f   d3dx9dt:cprogram.obj
 0001:0007855f       ?IndexSemantic@CProgram@D3DXShader@@UAEJPAVCArgument@2@H@Z 1007955f f   d3dx9dt:cprogram.obj
 0001:0007857b       ?SetName@CProgram@D3DXShader@@QAEJPBD@Z 1007957b f   d3dx9dt:cprogram.obj
 0001:000785e1       ?InitCaps@CProgram@D3DXShader@@MAEJXZ 100795e1 f   d3dx9dt:cprogram.obj
 0001:000785ff       ?IsScalar@CProgram@D3DXShader@@MAEHK@Z 100795ff f   d3dx9dt:cprogram.obj
 0001:00078638       ?RemoveDeadCode@CProgram@D3DXShader@@IAEJXZ 10079638 f   d3dx9dt:cprogram.obj
 0001:00078a38       ?CompactInstructions@CProgram@D3DXShader@@IAEJXZ 10079a38 f   d3dx9dt:cprogram.obj
 0001:00078aaf       ?SimplifyBinary@CProgram@D3DXShader@@IAEJPAVCInstruction@2@III@Z 10079aaf f   d3dx9dt:cprogram.obj
 0001:000797a8       ?SimplifyTrinary@CProgram@D3DXShader@@IAEJPAVCInstruction@2@IIII@Z 1007a7a8 f   d3dx9dt:cprogram.obj
 0001:00079d50       ?SimplifyDotProduct@CProgram@D3DXShader@@IAEJPAVCInstruction@2@H@Z 1007ad50 f   d3dx9dt:cprogram.obj
 0001:0007a278       ?AddSequence@CProgram@D3DXShader@@IAEJIPAIPAN@Z 1007b278 f   d3dx9dt:cprogram.obj
 0001:0007a4c8       ?VectorizeLeft@CProgram@D3DXShader@@IAEJXZ 1007b4c8 f   d3dx9dt:cprogram.obj
 0001:0007b2d6       ?MarkParents@CProgram@D3DXShader@@IAEJPAVCInstruction@2@PAII@Z 1007c2d6 f   d3dx9dt:cprogram.obj
 0001:0007b330       ?ComputeDependency@CProgram@D3DXShader@@IAEJPAVCInstruction@2@PAIPAHI@Z 1007c330 f   d3dx9dt:cprogram.obj
 0001:0007b3ab       ?ReorderInstructions@CProgram@D3DXShader@@IAEJIPAI0@Z 1007c3ab f   d3dx9dt:cprogram.obj
 0001:0007b53d       ?AllocateLiteral@CProgram@D3DXShader@@IAEIPAIIII@Z 1007c53d f   d3dx9dt:cprogram.obj
 0001:0007b597       ?CanVectorize@CProgram@D3DXShader@@IAEHPAII00PAVCInstruction@2@I@Z 1007c597 f   d3dx9dt:cprogram.obj
 0001:0007bcb3       ?CombinePools@CProgram@D3DXShader@@IAEJIKK@Z 1007ccb3 f   d3dx9dt:cprogram.obj
 0001:0007bdd3       ?SwizzleParameter@CProgram@D3DXShader@@IAEJPAI0IH@Z 1007cdd3 f   d3dx9dt:cprogram.obj
 0001:0007beb2       ?ReadWriteInfo@CProgram@D3DXShader@@IAEJXZ 1007ceb2 f   d3dx9dt:cprogram.obj
 0001:0007c1f9       ?ParentChildInfo@CProgram@D3DXShader@@IAEJXZ 1007d1f9 f   d3dx9dt:cprogram.obj
 0001:0007c41b       ?IdentityRemap@CProgram@D3DXShader@@IAEJXZ 1007d41b f   d3dx9dt:cprogram.obj
 0001:0007c434       ?RemapArguments@CProgram@D3DXShader@@IAEJXZ 1007d434 f   d3dx9dt:cprogram.obj
 0001:0007c4cc       ?PrintReg@CProgram@D3DXShader@@IAEJPAII@Z 1007d4cc f   d3dx9dt:cprogram.obj
 0001:0007c788       ?Error@CProgram@D3DXShader@@IAAJPAVCNode@2@IPBDZZ 1007d788 f   d3dx9dt:cprogram.obj
 0001:0007c7f7       ?Warning@CProgram@D3DXShader@@IAAJPAVCNode@2@IPBDZZ 1007d7f7 f   d3dx9dt:cprogram.obj
 0001:0007c85d       ??_ECProgram@D3DXShader@@UAEPAXI@Z 1007d85d f i d3dx9dt:cprogram.obj
 0001:0007c85d       ??_GCProgram@D3DXShader@@UAEPAXI@Z 1007d85d f i d3dx9dt:cprogram.obj
 0001:0007c87c       ?Initialize@CProgram@D3DXShader@@QAEJPAVCNode@2@PAVCTErrors@2@KK@Z 1007d87c f   d3dx9dt:cprogram.obj
 0001:0007c993       ?Initialize@CProgram@D3DXShader@@QAEJPAV12@@Z 1007d993 f   d3dx9dt:cprogram.obj
 0001:0007cc4d       ?Validate@CProgram@D3DXShader@@MAEJXZ 1007dc4d f   d3dx9dt:cprogram.obj
 0001:0007d4cf       ?DelayOutputs@CProgram@D3DXShader@@IAEJXZ 1007e4cf f   d3dx9dt:cprogram.obj
 0001:0007d73f       ?RemoveDuplicateArguments@CProgram@D3DXShader@@IAEJXZ 1007e73f f   d3dx9dt:cprogram.obj
 0001:0007d959       ?SquishInstructions@CProgram@D3DXShader@@IAEJXZ 1007e959 f   d3dx9dt:cprogram.obj
 0001:0007dbd7       ?RemoveDuplicateInstructions@CProgram@D3DXShader@@IAEJXZ 1007ebd7 f   d3dx9dt:cprogram.obj
 0001:0007e750       ?ReorderBinary@CProgram@D3DXShader@@IAEJXZ 1007f750 f   d3dx9dt:cprogram.obj
 0001:0007fa21       ?SimplifyAddresses@CProgram@D3DXShader@@IAEJXZ 10080a21 f   d3dx9dt:cprogram.obj
 0001:0007fd1d       ?CompactOutputs@CProgram@D3DXShader@@IAEJXZ 10080d1d f   d3dx9dt:cprogram.obj
 0001:0007ff7d       ?CompactArguments@CProgram@D3DXShader@@IAEJXZ 10080f7d f   d3dx9dt:cprogram.obj
 0001:00080145       ?SimplifyUnary@CProgram@D3DXShader@@IAEJPAVCInstruction@2@II@Z 10081145 f   d3dx9dt:cprogram.obj
 0001:00080805       ?VectorizeRight@CProgram@D3DXShader@@IAEJXZ 10081805 f   d3dx9dt:cprogram.obj
 0001:00080d6e       ?PropagateSwizzles@CProgram@D3DXShader@@IAEJXZ 10081d6e f   d3dx9dt:cprogram.obj
 0001:00082180       ?CombineInstructions@CProgram@D3DXShader@@IAEJXZ 10083180 f   d3dx9dt:cprogram.obj
 0001:00082f14       ?ReorderInstructions@CProgram@D3DXShader@@IAEJXZ 10083f14 f   d3dx9dt:cprogram.obj
 0001:000830e2       ?SwizzleRegisters@CProgram@D3DXShader@@IAEJXZ 100840e2 f   d3dx9dt:cprogram.obj
 0001:00083351       ?CompactLiterals@CProgram@D3DXShader@@IAEJPAI00@Z 10084351 f   d3dx9dt:cprogram.obj
 0001:00083762       ?CompactPool@CProgram@D3DXShader@@IAEJIIH@Z 10084762 f   d3dx9dt:cprogram.obj
 0001:00083d3b       ?TypeSize@CProgram@D3DXShader@@IAEIPAVCNode@2@@Z 10084d3b f   d3dx9dt:cprogram.obj
 0001:00083dba       ?Print@CProgram@D3DXShader@@UAEJXZ 10084dba f   d3dx9dt:cprogram.obj
 0001:00084216       ?GenerateCode@CProgram@D3DXShader@@UAEJPAPAUID3DXBuffer@@PAV12@@Z 10085216 f   d3dx9dt:cprogram.obj
 0001:00084288       ?SimplifyInstructions@CProgram@D3DXShader@@IAEJXZ 10085288 f   d3dx9dt:cprogram.obj
 0001:00084d16       ?VectorizeLiterals@CProgram@D3DXShader@@IAEJXZ 10085d16 f   d3dx9dt:cprogram.obj
 0001:00085222       ?SeparatePhases@CProgram@D3DXShader@@IAEJXZ 10086222 f   d3dx9dt:cprogram.obj
 0001:000854e7       ?CompactRegisters@CProgram@D3DXShader@@IAEJXZ 100864e7 f   d3dx9dt:cprogram.obj
 0001:00085718       ?Optimize@CProgram@D3DXShader@@MAEJXZ 10086718 f   d3dx9dt:cprogram.obj
 0001:0008587a       ?Vectorize@CProgram@D3DXShader@@MAEJXZ 1008687a f   d3dx9dt:cprogram.obj
 0001:00085978       ??0CParse@D3DXShader@@QAE@XZ 10086978 f   d3dx9dt:cparse.obj
 0001:00085989       ??1CParse@D3DXShader@@QAE@XZ 10086989 f   d3dx9dt:cparse.obj
 0001:000859b5       ?Error@CParse@D3DXShader@@IAAXPBDZZ 100869b5 f   d3dx9dt:cparse.obj
 0001:00085ae3       ?Error@CParse@D3DXShader@@IAAXPAUD3DXTOKEN@2@IPBDZZ 10086ae3 f   d3dx9dt:cparse.obj
 0001:00085b37       ?Warning@CParse@D3DXShader@@IAAXPAUD3DXTOKEN@2@IPBDZZ 10086b37 f   d3dx9dt:cparse.obj
 0001:00085b82       ?FatalError@CParse@D3DXShader@@IAAXPAUD3DXTOKEN@2@IPBDZZ 10086b82 f   d3dx9dt:cparse.obj
 0001:00085bd8       ?NonNull@CParse@D3DXShader@@IAEPAVCNode@2@PAV32@@Z 10086bd8 f   d3dx9dt:cparse.obj
 0001:00085c0b       ?PushScope@CParse@D3DXShader@@IAEJW4_D3DXSCOPE_TYPE@2@PBD@Z 10086c0b f   d3dx9dt:cparse.obj
 0001:00085c6b       ?PopScope@CParse@D3DXShader@@IAEJXZ 10086c6b f   d3dx9dt:cparse.obj
 0001:00085ceb       ?AddDecl@CParse@D3DXShader@@IAEJPAVCNode@2@H@Z 10086ceb f   d3dx9dt:cparse.obj
 0001:00085ed2       ?PopUsageType@CParse@D3DXShader@@IAEJXZ 10086ed2 f   d3dx9dt:cparse.obj
 0001:00085eee       ?GetUsageType@CParse@D3DXShader@@IAEPAVCNode@2@XZ 10086eee f   d3dx9dt:cparse.obj
 0001:00085efa       ?MakeTypeConst@CParse@D3DXShader@@IAEJPAVCNode@2@H@Z 10086efa f   d3dx9dt:cparse.obj
 0001:00085f8d       ?CombineUsages@CParse@D3DXShader@@IAEJPAVCNode@2@0@Z 10086f8d f   d3dx9dt:cparse.obj
 0001:0008604c       ?IsConst@CParse@D3DXShader@@IAEHPAVCNode@2@@Z 1008704c f   d3dx9dt:cparse.obj
 0001:000860bd       ?IsScalar@CParse@D3DXShader@@IAEHPAVCNode@2@@Z 100870bd f   d3dx9dt:cparse.obj
 0001:000860df       ?IsNumeric@CParse@D3DXShader@@IAEHPAVCNode@2@@Z 100870df f   d3dx9dt:cparse.obj
 0001:00086154       ?TypeSize@CParse@D3DXShader@@IAEIPAVCNode@2@@Z 10087154 f   d3dx9dt:cparse.obj
 0001:000861e0       ?IsTypeEqual@CParse@D3DXShader@@IAEHPAVCNode@2@0@Z 100871e0 f   d3dx9dt:cparse.obj
 0001:00086290       ?PrintType@CParse@D3DXShader@@IAEIPADIPAVCNode@2@@Z 10087290 f   d3dx9dt:cparse.obj
 0001:00086553       ?GetSubType@CParse@D3DXShader@@IAEJPAVCNode@2@IPAVCNodeType@2@@Z 10087553 f   d3dx9dt:cparse.obj
 0001:0008661c       ?GetComponentType@CParse@D3DXShader@@IAEJPAVCNode@2@0PAW4_D3DXCOMPONENT_TYPE@2@@Z 1008761c f   d3dx9dt:cparse.obj
 0001:000867d1       ?ObjectExpr@CParse@D3DXShader@@IAEPAVCNode@2@PAV32@@Z 100877d1 f   d3dx9dt:cparse.obj
 0001:00086814       ?EvalType@CParse@D3DXShader@@IAEIPAVCNode@2@PAU_D3DXVALUE@2@@Z 10087814 f   d3dx9dt:cparse.obj
 0001:00086954       ?CastToFloat@CParse@D3DXShader@@IAEJPANPAU_D3DXVALUE@2@PAUD3DXTOKEN@2@@Z 10087954 f   d3dx9dt:cparse.obj
 0001:000869b0       ?WarnCastInt@CParse@D3DXShader@@IAEXNPAUD3DXTOKEN@2@@Z 100879b0 f   d3dx9dt:cparse.obj
 0001:000869b3       ?WarnCastUint@CParse@D3DXShader@@IAEXNPAUD3DXTOKEN@2@@Z 100879b3 f   d3dx9dt:cparse.obj
 0001:000869b6       ?IsPartiallyLiteral@CParse@D3DXShader@@IAEHPAVCNode@2@@Z 100879b6 f   d3dx9dt:cparse.obj
 0001:00086a30       ?IsFullyLiteral@CParse@D3DXShader@@IAEHPAVCNode@2@@Z 10087a30 f   d3dx9dt:cparse.obj
 0001:00086b49       ?ComputeExprSize@CParse@D3DXShader@@IAEXPAVCNode@2@@Z 10087b49 f   d3dx9dt:cparse.obj
 0001:00086b8f       ?Stmt@CParse@D3DXShader@@IAEPAVCNode@2@PAV32@@Z 10087b8f f   d3dx9dt:cparse.obj
 0001:00086bf9       ?ForStmt@CParse@D3DXShader@@IAEPAVCNode@2@PAV32@000@Z 10087bf9 f   d3dx9dt:cparse.obj
 0001:00086ce9       ?AsmDecl@CParse@D3DXShader@@IAEPAVCNode@2@XZ 10087ce9 f   d3dx9dt:cparse.obj
 0001:00086d02       ?AsmBlock@CParse@D3DXShader@@IAEPAVCNode@2@H@Z 10087d02 f   d3dx9dt:cparse.obj
 0001:00086da3       ?CombineUintId@CParse@D3DXShader@@IAEPAVCNode@2@PAV32@0@Z 10087da3 f   d3dx9dt:cparse.obj
 0001:00086e98       ?FindIntrinsic@CParse@D3DXShader@@IAEJPAUD3DXTOKEN@2@PAVCNode@2@PAPAV42@2@Z 10087e98 f   d3dx9dt:cparse.obj
 0001:00087522       ?ScoreFunctionDecl@CParse@D3DXShader@@IAEIPAVCNodeFunction@2@PAVCNode@2@1K@Z 10088522 f   d3dx9dt:cparse.obj
 0001:0008762f       ?ScoreCast@CParse@D3DXShader@@IAEIPAVCNode@2@0@Z 1008862f f   d3dx9dt:cparse.obj
 0001:00087744       ?ApplyUsage@CParse@D3DXShader@@IAEJPAVCNode@2@0@Z 10088744 f   d3dx9dt:cparse.obj
 0001:000877f5       ?IsSupportedCast@CParse@D3DXShader@@IAEHPAVCNode@2@0H@Z 100887f5 f   d3dx9dt:cparse.obj
 0001:00087b23       ?ErrorUnsupportedCast@CParse@D3DXShader@@IAEXPAUD3DXTOKEN@2@PBDPAVCNode@2@2H@Z 10088b23 f   d3dx9dt:cparse.obj
 0001:00087bca       ?BinaryType@CParse@D3DXShader@@IAEJPAVCNode@2@0PAPAV32@11@Z 10088bca f   d3dx9dt:cparse.obj
 0001:00087ccc       ?ScalarExpr@CParse@D3DXShader@@IAEPAVCNode@2@W4_D3DXCOMPONENT_TYPE@2@INPAUD3DXTOKEN@2@@Z 10088ccc f   d3dx9dt:cparse.obj
 0001:00087df0       ?ScalarExpr@CParse@D3DXShader@@IAEPAVCNode@2@PAV32@@Z 10088df0 f   d3dx9dt:cparse.obj
 0001:00087e72       ?StringExpr@CParse@D3DXShader@@IAEPAVCNode@2@PAV32@@Z 10088e72 f   d3dx9dt:cparse.obj
 0001:00087fbe       ?InitExpr@CParse@D3DXShader@@IAEPAVCNode@2@PAV32@0@Z 10088fbe f   d3dx9dt:cparse.obj
 0001:000880b5       ?OffsetExpr@CParse@D3DXShader@@IAEPAVCNode@2@PAV32@0@Z 100890b5 f   d3dx9dt:cparse.obj
 0001:00088556       ?AsmExpr@CParse@D3DXShader@@IAEPAVCNode@2@PAV32@@Z 10089556 f   d3dx9dt:cparse.obj
 0001:000886a1       ?SamplerExpr@CParse@D3DXShader@@IAEPAVCNode@2@PAV32@@Z 100896a1 f   d3dx9dt:cparse.obj
 0001:00088785       ?Cast@CParse@D3DXShader@@IAEJPAU_D3DXVALUE@2@0PAUD3DXTOKEN@2@@Z 10089785 f   d3dx9dt:cparse.obj
 0001:000888aa       ?CastToUint@CParse@D3DXShader@@IAEJPAIPAU_D3DXVALUE@2@PAUD3DXTOKEN@2@@Z 100898aa f   d3dx9dt:cparse.obj
 0001:00088907       ?CastToValue@CParse@D3DXShader@@IAEJPAU_D3DXVALUE@2@NPAUD3DXTOKEN@2@@Z 10089907 f   d3dx9dt:cparse.obj
 0001:00088972       ?ScoreFunctionCall@CParse@D3DXShader@@IAEIPAVCNodeFunction@2@PAVCNode@2@1K@Z 10089972 f   d3dx9dt:cparse.obj
 0001:00088b3f       ?PushUsageType@CParse@D3DXShader@@IAEJPAVCNode@2@@Z 10089b3f f   d3dx9dt:cparse.obj
 0001:00088bb6       ?EvalIntrinsic@CParse@D3DXShader@@IAEJPAVCNode@2@PAU_D3DXVALUE@2@@Z 10089bb6 f   d3dx9dt:cparse.obj
 0001:00089faa       ?FindDecl@CParse@D3DXShader@@IAEJW4_D3DXDECL_TYPE@2@PAUD3DXTOKEN@2@PAVCNode@2@2PAVCNodeScope@2@KPAPAV52@4@Z 1008afaa f   d3dx9dt:cparse.obj
 0001:0008a749       ?VariableExpr@CParse@D3DXShader@@IAEPAVCNode@2@PAV32@0@Z 1008b749 f   d3dx9dt:cparse.obj
 0001:0008a869       ?CastExpr@CParse@D3DXShader@@IAEPAVCNode@2@PAV32@0HH@Z 1008b869 f   d3dx9dt:cparse.obj
 0001:0008aab7       ?ConditionalExpr@CParse@D3DXShader@@IAEPAVCNode@2@PAV32@00@Z 1008bab7 f   d3dx9dt:cparse.obj
 0001:0008ae8b       ?Eval@CParse@D3DXShader@@IAEJPAVCNode@2@PAU_D3DXVALUE@2@@Z 1008be8b f   d3dx9dt:cparse.obj
 0001:0008b6b5       ?IfStmt@CParse@D3DXShader@@IAEPAVCNode@2@PAV32@00@Z 1008c6b5 f   d3dx9dt:cparse.obj
 0001:0008b7de       ?Token@CParse@D3DXShader@@IAEHXZ 1008c7de f   d3dx9dt:cparse.obj
 0001:0008c2e9       ?FunctionDecl@CParse@D3DXShader@@IAEPAVCNode@2@PAV32@00@Z 1008d2e9 f   d3dx9dt:cparse.obj
 0001:0008c699       ?Eval@CParse@D3DXShader@@IAEPAVCNode@2@PAV32@@Z 1008d699 f   d3dx9dt:cparse.obj
 0001:0008c7ca       ?EvalUint@CParse@D3DXShader@@IAEJPAVCNode@2@PAI@Z 1008d7ca f   d3dx9dt:cparse.obj
 0001:0008c833       ?TypeDecl@CParse@D3DXShader@@IAEPAVCNode@2@PAV32@0@Z 1008d833 f   d3dx9dt:cparse.obj
 0001:0008c9f1       ?StructDecl@CParse@D3DXShader@@IAEPAVCNode@2@PAV32@0@Z 1008d9f1 f   d3dx9dt:cparse.obj
 0001:0008ca44       ?VectorType@CParse@D3DXShader@@IAEPAVCNode@2@PAV32@0@Z 1008da44 f   d3dx9dt:cparse.obj
 0001:0008cac9       ?MatrixType@CParse@D3DXShader@@IAEPAVCNode@2@PAV32@00@Z 1008dac9 f   d3dx9dt:cparse.obj
 0001:0008cb71       ?TypeDim@CParse@D3DXShader@@IAEPAVCNode@2@PAV32@0@Z 1008db71 f   d3dx9dt:cparse.obj
 0001:0008cbe9       ?ArrayExpr@CParse@D3DXShader@@IAEPAVCNode@2@PAV32@0@Z 1008dbe9 f   d3dx9dt:cparse.obj
 0001:0008ce14       ?Expr@CParse@D3DXShader@@IAEPAVCNode@2@W4_D3DXEXPR_OP@2@PAV32@1H@Z 1008de14 f   d3dx9dt:cparse.obj
 0001:0008d29a       ?ReturnStmt@CParse@D3DXShader@@IAEPAVCNode@2@PAV32@@Z 1008e29a f   d3dx9dt:cparse.obj
 0001:0008d362       ?VariableDecl@CParse@D3DXShader@@IAEPAVCNode@2@PAV32@000@Z 1008e362 f   d3dx9dt:cparse.obj
 0001:0008dd30       ?FunctionExpr@CParse@D3DXShader@@IAEPAVCNode@2@PAV32@0H@Z 1008ed30 f   d3dx9dt:cparse.obj
 0001:0008e1fb       ?CompileExpr@CParse@D3DXShader@@IAEPAVCNode@2@PAV32@00H@Z 1008f1fb f   d3dx9dt:cparse.obj
 0001:0008e3df       ?Production@CParse@D3DXShader@@IAEXII@Z 1008f3df f   d3dx9dt:cparse.obj
 0001:0008f820       ?d3dxshader_parse@D3DXShader@@YGHXZ 10090820 f   d3dx9dt:cparse.obj
 0001:00090ad1       ?Parse@CParse@D3DXShader@@QAEJPAVCPreProcessor@2@KPAPAVCNode@2@@Z 10091ad1 f   d3dx9dt:cparse.obj
 0001:00090b95       ??0CPSLegacyProgram@D3DXShader@@QAE@XZ 10091b95 f   d3dx9dt:cpslegacyprogram.obj
 0001:00090bc2       ?GenerateCode@CPSLegacyProgram@D3DXShader@@UAEJPAPAUID3DXBuffer@@PAVCProgram@2@@Z 10091bc2 f   d3dx9dt:cpslegacyprogram.obj
 0001:00090c23       ?InitCaps@CPSLegacyProgram@D3DXShader@@MAEJXZ 10091c23 f   d3dx9dt:cpslegacyprogram.obj
 0001:00090cdb       ?ValidateTexSat@CPSLegacyProgram@D3DXShader@@IAEJXZ 10091cdb f   d3dx9dt:cpslegacyprogram.obj
 0001:00090db4       ?CleanUpClip@CPSLegacyProgram@D3DXShader@@IAEJXZ 10091db4 f   d3dx9dt:cpslegacyprogram.obj
 0001:00090fdb       ?FixSatTex@CPSLegacyProgram@D3DXShader@@IAEJXZ 10091fdb f   d3dx9dt:cpslegacyprogram.obj
 0001:000910fc       ?FixNeg@CPSLegacyProgram@D3DXShader@@IAEJXZ 100920fc f   d3dx9dt:cpslegacyprogram.obj
 0001:000912f3       ?PackOutput@CPSLegacyProgram@D3DXShader@@IAEJXZ 100922f3 f   d3dx9dt:cpslegacyprogram.obj
 0001:00091514       ?MovConsts@CPSLegacyProgram@D3DXShader@@IAEJXZ 10092514 f   d3dx9dt:cpslegacyprogram.obj
 0001:000916bc       ?CheckDegenShader@CPSLegacyProgram@D3DXShader@@IAEJXZ 100926bc f   d3dx9dt:cpslegacyprogram.obj
 0001:00091810       ?ValidSwizzle@CPSLegacyProgram@D3DXShader@@IAEHPAI0@Z 10092810 f   d3dx9dt:cpslegacyprogram.obj
 0001:0009183f       ?IsValidWriteMask@D3DXShader@@YGHPAIK@Z 1009283f f   d3dx9dt:cpslegacyprogram.obj
 0001:000918a8       ?IsValidDotWriteMask@D3DXShader@@YGHPAIK@Z 100928a8 f   d3dx9dt:cpslegacyprogram.obj
 0001:0009190e       ?IsValidSwizzle@D3DXShader@@YGHPAI0I@Z 1009290e f i d3dx9dt:cpslegacyprogram.obj
 0001:00091967       ?HasWriteMask@CPSLegacyProgram@D3DXShader@@IAEHPAVCInstruction@2@@Z 10092967 f   d3dx9dt:cpslegacyprogram.obj
 0001:000919dd       ?EmmulateReplicate@CPSLegacyProgram@D3DXShader@@IAEJXZ 100929dd f   d3dx9dt:cpslegacyprogram.obj
 0001:00091d86       ?DeSwizzle@CPSLegacyProgram@D3DXShader@@IAEJXZ 10092d86 f   d3dx9dt:cpslegacyprogram.obj
 0001:0009235d       ?MatchTexReflect@CPSLegacyProgram@D3DXShader@@IAEJH@Z 1009335d f   d3dx9dt:cpslegacyprogram.obj
 0001:000927d9       ?ValidateInstructions@CPSLegacyProgram@D3DXShader@@IAEJXZ 100937d9 f   d3dx9dt:cpslegacyprogram.obj
 0001:00092963       ?MatchComplexAdd@CPSLegacyProgram@D3DXShader@@IAEJXZ 10093963 f   d3dx9dt:cpslegacyprogram.obj
 0001:00092ba8       ?MatchOutputModifier@CPSLegacyProgram@D3DXShader@@IAEJXZ 10093ba8 f   d3dx9dt:cpslegacyprogram.obj
 0001:00093190       ?RemapInput@CPSLegacyProgram@D3DXShader@@IAEJPAPAVCInstruction@2@IIIIPAI@Z 10094190 f   d3dx9dt:cpslegacyprogram.obj
 0001:000932b5       ?RemapInputTex@CPSLegacyProgram@D3DXShader@@IAEJPAPAVCInstruction@2@IIIIPAI@Z 100942b5 f   d3dx9dt:cpslegacyprogram.obj
 0001:000933db       ?PullOut@CPSLegacyProgram@D3DXShader@@IAEJPAIIPAPAVCInstruction@2@0@Z 100943db f   d3dx9dt:cpslegacyprogram.obj
 0001:000935a0       ?TexturePullOut@CPSLegacyProgram@D3DXShader@@IAEJPAPAVCInstruction@2@PAI0I0I@Z 100945a0 f   d3dx9dt:cpslegacyprogram.obj
 0001:00093d7c       ?GroupTexLoads@CPSLegacyProgram@D3DXShader@@IAEJXZ 10094d7c f   d3dx9dt:cpslegacyprogram.obj
 0001:000942b2       ?RegReassign@CPSLegacyProgram@D3DXShader@@IAEIPAPAVCInstruction@2@IIIPAVCArgument@2@AAH@Z 100952b2 f   d3dx9dt:cpslegacyprogram.obj
 0001:0009432d       ?FindConsumers@CPSLegacyProgram@D3DXShader@@IAEJPAPAVCInstruction@2@IIPAII1AAI@Z 1009532d f   d3dx9dt:cpslegacyprogram.obj
 0001:00094523       ?FixUpOrigins@CPSLegacyProgram@D3DXShader@@IAEJXZ 10095523 f   d3dx9dt:cpslegacyprogram.obj
 0001:0009455d       ?AnalizeArgUse@CPSLegacyProgram@D3DXShader@@IAEJPAPAVCInstruction@2@IIPAIIAAIAAH3@Z 1009555d f   d3dx9dt:cpslegacyprogram.obj
 0001:000946c6       ?RemapConstants@CPSLegacyProgram@D3DXShader@@IAEJXZ 100956c6 f   d3dx9dt:cpslegacyprogram.obj
 0001:00094bcd       ?NoTexClobber@CPSLegacyProgram@D3DXShader@@IAEJIPAPAVCInstruction@2@IPAII@Z 10095bcd f   d3dx9dt:cpslegacyprogram.obj
 0001:00094d44       ?FindPackPlaces@CPSLegacyProgram@D3DXShader@@IAEJPAIPAHI@Z 10095d44 f   d3dx9dt:cpslegacyprogram.obj
 0001:00094e6e       ?UpPropZ@CPSLegacyProgram@D3DXShader@@IAEJPAPAVCInstruction@2@II@Z 10095e6e f   d3dx9dt:cpslegacyprogram.obj
 0001:0009524e       ?InitZs@CPSLegacyProgram@D3DXShader@@IAEJXZ 1009624e f   d3dx9dt:cpslegacyprogram.obj
 0001:000952bf       ?AllocateRegisters@CPSLegacyProgram@D3DXShader@@IAEJXZ 100962bf f   d3dx9dt:cpslegacyprogram.obj
 0001:000965a9       ?PSMatchMUL@CPSLegacyProgram@D3DXShader@@IAEJXZ 100975a9 f   d3dx9dt:cpslegacyprogram.obj
 0001:000965ae       ?InstSearch@CPSLegacyProgram@D3DXShader@@IAEPAVCInstruction@2@PAPAV32@IPAIIH@Z 100975ae f   d3dx9dt:cpslegacyprogram.obj
 0001:000966a4       ?FindTex@CPSLegacyProgram@D3DXShader@@IAEJPAPAVCInstruction@2@IPAV32@PAI20HH@Z 100976a4 f   d3dx9dt:cpslegacyprogram.obj
 0001:0009684e       ?MatchDep@CPSLegacyProgram@D3DXShader@@IAEJPAPAVCInstruction@2@I0@Z 1009784e f   d3dx9dt:cpslegacyprogram.obj
 0001:00096d0c       ?Match3xM@CPSLegacyProgram@D3DXShader@@IAEJPAPAVCInstruction@2@I0I@Z 10097d0c f   d3dx9dt:cpslegacyprogram.obj
 0001:00097326       ?ValidateOutput@CPSLegacyProgram@D3DXShader@@MAEJXZ 10098326 f   d3dx9dt:cpslegacyprogram.obj
 0001:00097516       ?EmitDP4@CPSLegacyProgram@D3DXShader@@IAEJXZ 10098516 f   d3dx9dt:cpslegacyprogram.obj
 0001:000975ea       ?EmitSpecialTex@CPSLegacyProgram@D3DXShader@@IAEJK@Z 100985ea f   d3dx9dt:cpslegacyprogram.obj
 0001:0009774b       ?EmitTEXLDD@CPSLegacyProgram@D3DXShader@@IAEJXZ 1009874b f   d3dx9dt:cpslegacyprogram.obj
 0001:00097867       ?EmitTEXCRD@CPSLegacyProgram@D3DXShader@@IAEJXZ 10098867 f   d3dx9dt:cpslegacyprogram.obj
 0001:000979ab       ?CoIssue@CPSLegacyProgram@D3DXShader@@MAEKK@Z 100989ab f   d3dx9dt:cpslegacyprogram.obj
 0001:000979c6       ?EmitSize@CPSLegacyProgram@D3DXShader@@MAEJXZ 100989c6 f   d3dx9dt:cpslegacyprogram.obj
 0001:000979c9       ?EmitVersion@CPSLegacyProgram@D3DXShader@@MAEJXZ 100989c9 f   d3dx9dt:cpslegacyprogram.obj
 0001:000979e7       ?EmitDCL@CPSLegacyProgram@D3DXShader@@MAEJPAVCArgument@2@PAK@Z 100989e7 f   d3dx9dt:cpslegacyprogram.obj
 0001:00097a34       ?FindInput@CPSLegacyProgram@D3DXShader@@MAEJPAVCArgument@2@AAK1@Z 10098a34 f   d3dx9dt:cpslegacyprogram.obj
 0001:00097a77       ?IndexSemantic@CPSLegacyProgram@D3DXShader@@UAEJPAVCArgument@2@H@Z 10098a77 f   d3dx9dt:cpslegacyprogram.obj
 0001:00097ef3       ?FindOutput@CPSLegacyProgram@D3DXShader@@MAEJPAVCArgument@2@AAK1PAH@Z 10098ef3 f   d3dx9dt:cpslegacyprogram.obj
 0001:00097f4f       ?ViolatesWriteLim@CPSLegacyProgram@D3DXShader@@MAEHPAVCInstruction@2@I@Z 10098f4f f   d3dx9dt:cpslegacyprogram.obj
 0001:00097f9f       ?ViolatesPortConstraints@CPSLegacyProgram@D3DXShader@@MAEHPAVCInstruction@2@PAI@Z 10098f9f f   d3dx9dt:cpslegacyprogram.obj
 0001:000981d7       ?MarkCoIssues@CPSLegacyProgram@D3DXShader@@IAEJPAPAVCInstruction@2@II@Z 100991d7 f   d3dx9dt:cpslegacyprogram.obj
 0001:000983ec       ?ViolatesPortConstraintsCoIssue@CPSLegacyProgram@D3DXShader@@MAEHPAVCInstruction@2@0@Z 100993ec f   d3dx9dt:cpslegacyprogram.obj
 0001:00098609       ?SrcSwizzle@CPSLegacyProgram@D3DXShader@@MAEJPAIIKPAK@Z 10099609 f   d3dx9dt:cpslegacyprogram.obj
 0001:00098772       ??1CPSLegacyProgram@D3DXShader@@UAE@XZ 10099772 f   d3dx9dt:cpslegacyprogram.obj
 0001:000987ee       ?EmmulateWriteMasksX@CPSLegacyProgram@D3DXShader@@IAEJXZ 100997ee f   d3dx9dt:cpslegacyprogram.obj
 0001:00098f52       ?MatchPhase1@CPSLegacyProgram@D3DXShader@@IAEJXZ 10099f52 f   d3dx9dt:cpslegacyprogram.obj
 0001:0009920c       ?EmitPhase@CPSLegacyProgram@D3DXShader@@IAEJPAPAVCInstruction@2@I@Z 1009a20c f   d3dx9dt:cpslegacyprogram.obj
 0001:00099543       ?EmitInstructions@CPSLegacyProgram@D3DXShader@@MAEJXZ 1009a543 f   d3dx9dt:cpslegacyprogram.obj
 0001:000995a6       ??_ECPSLegacyProgram@D3DXShader@@UAEPAXI@Z 1009a5a6 f i d3dx9dt:cpslegacyprogram.obj
 0001:000995a6       ??_GCPSLegacyProgram@D3DXShader@@UAEPAXI@Z 1009a5a6 f i d3dx9dt:cpslegacyprogram.obj
 0001:000995c5       ?PatternMatch@CPSLegacyProgram@D3DXShader@@MAEJXZ 1009a5c5 f   d3dx9dt:cpslegacyprogram.obj
 0001:00099a7b       ??0CPSProgram@D3DXShader@@QAE@XZ 1009aa7b f   d3dx9dt:cpsprogram.obj
 0001:00099a94       ??1CPSProgram@D3DXShader@@UAE@XZ 1009aa94 f   d3dx9dt:cpsprogram.obj
 0001:00099a9f       ?GenerateCode@CPSProgram@D3DXShader@@UAEJPAPAUID3DXBuffer@@PAVCProgram@2@@Z 1009aa9f f   d3dx9dt:cpsprogram.obj
 0001:00099ac3       ?InitCaps@CPSProgram@D3DXShader@@MAEJXZ 1009aac3 f   d3dx9dt:cpsprogram.obj
 0001:00099b1a       ?DestMask@CPSProgram@D3DXShader@@MAEJPAIIPAKH@Z 1009ab1a f   d3dx9dt:cpsprogram.obj
 0001:00099c48       ?ValidateOutput@CPSProgram@D3DXShader@@MAEJXZ 1009ac48 f   d3dx9dt:cpsprogram.obj
 0001:00099e36       ?PSEmitGE@CPSProgram@D3DXShader@@IAEJXZ 1009ae36 f   d3dx9dt:cpsprogram.obj
 0001:00099f08       ?PSEmitLT@CPSProgram@D3DXShader@@IAEJXZ 1009af08 f   d3dx9dt:cpsprogram.obj
 0001:00099fda       ?PSEmitMax@CPSProgram@D3DXShader@@IAEJXZ 1009afda f   d3dx9dt:cpsprogram.obj
 0001:0009a104       ?PSEmitMin@CPSProgram@D3DXShader@@IAEJXZ 1009b104 f   d3dx9dt:cpsprogram.obj
 0001:0009a22e       ?EmitSize@CPSProgram@D3DXShader@@MAEJXZ 1009b22e f   d3dx9dt:cpsprogram.obj
 0001:0009a24e       ?EmitVersion@CPSProgram@D3DXShader@@MAEJXZ 1009b24e f   d3dx9dt:cpsprogram.obj
 0001:0009a26c       ?EmitObjectDCL@CPSProgram@D3DXShader@@MAEJPAVCArgument@2@@Z 1009b26c f   d3dx9dt:cpsprogram.obj
 0001:0009a30d       ?FindObjectDims@CPSProgram@D3DXShader@@MAEJXZ 1009b30d f   d3dx9dt:cpsprogram.obj
 0001:0009a3f9       ?EmitDCL@CPSProgram@D3DXShader@@MAEJPAVCArgument@2@PAK@Z 1009b3f9 f   d3dx9dt:cpsprogram.obj
 0001:0009a59a       ?FindInput@CPSProgram@D3DXShader@@MAEJPAVCArgument@2@AAK1@Z 1009b59a f   d3dx9dt:cpsprogram.obj
 0001:0009a5e4       ?IndexSemantic@CPSProgram@D3DXShader@@UAEJPAVCArgument@2@H@Z 1009b5e4 f   d3dx9dt:cpsprogram.obj
 0001:0009a934       ?FindOutput@CPSProgram@D3DXShader@@MAEJPAVCArgument@2@AAK1PAH@Z 1009b934 f   d3dx9dt:cpsprogram.obj
 0001:0009a98a       ?ViolatesWriteLim@CPSProgram@D3DXShader@@MAEHPAVCInstruction@2@I@Z 1009b98a f   d3dx9dt:cpsprogram.obj
 0001:0009a9da       ?ViolatesPortConstraints@CPSProgram@D3DXShader@@MAEHPAVCInstruction@2@PAI@Z 1009b9da f   d3dx9dt:cpsprogram.obj
 0001:0009ab6a       ?ValidSwizzle@CPSProgram@D3DXShader@@IAEHPAI0@Z 1009bb6a f   d3dx9dt:cpsprogram.obj
 0001:0009ab99       ?IsValidSwizzle@D3DXShader@@YGHPAI0@Z 1009bb99 f i d3dx9dt:cpsprogram.obj
 0001:0009abed       ?RemapInput@CPSProgram@D3DXShader@@IAEJAAPAVCInstruction@2@II@Z 1009bbed f   d3dx9dt:cpsprogram.obj
 0001:0009ad67       ?RemapOutputMov@CPSProgram@D3DXShader@@IAEJAAPAVCInstruction@2@I@Z 1009bd67 f   d3dx9dt:cpsprogram.obj
 0001:0009ae5e       ?Unswizzle@CPSProgram@D3DXShader@@IAEJXZ 1009be5e f   d3dx9dt:cpsprogram.obj
 0001:0009b90e       ?SrcSwizzle@CPSProgram@D3DXShader@@MAEJPAIIKPAK@Z 1009c90e f   d3dx9dt:cpsprogram.obj
 0001:0009ba86       ??_GCPSProgram@D3DXShader@@UAEPAXI@Z 1009ca86 f i d3dx9dt:cpsprogram.obj
 0001:0009ba86       ??_ECPSProgram@D3DXShader@@UAEPAXI@Z 1009ca86 f i d3dx9dt:cpsprogram.obj
 0001:0009baab       ?IsDPNoSwizzle@CPSProgram@D3DXShader@@IAEHPAVCInstruction@2@@Z 1009caab f   d3dx9dt:cpsprogram.obj
 0001:0009bb75       ?PSMatchDP2Add@CPSProgram@D3DXShader@@IAEJXZ 1009cb75 f   d3dx9dt:cpsprogram.obj
 0001:0009c04d       ?EmitInstructions@CPSProgram@D3DXShader@@MAEJXZ 1009d04d f   d3dx9dt:cpsprogram.obj
 0001:0009c7a4       ?PatternMatch@CPSProgram@D3DXShader@@MAEJXZ 1009d7a4 f   d3dx9dt:cpsprogram.obj
 0001:0009ca58       ?InitCaps@CVSProgram@D3DXShader@@MAEJXZ 1009da58 f   d3dx9dt:cvsprogram.obj
 0001:0009cad7       ?ValidateOutput@CVSProgram@D3DXShader@@MAEJXZ 1009dad7 f   d3dx9dt:cvsprogram.obj
 0001:0009cc19       ?FindOutput@CVSProgram@D3DXShader@@MAEJPAVCArgument@2@AAK1PAH@Z 1009dc19 f   d3dx9dt:cvsprogram.obj
 0001:0009ccd1       ?FindInput@CVSProgram@D3DXShader@@MAEJPAVCArgument@2@AAK1@Z 1009dcd1 f   d3dx9dt:cvsprogram.obj
 0001:0009cd05       ?GenerateCode@CVSProgram@D3DXShader@@UAEJPAPAUID3DXBuffer@@PAVCProgram@2@@Z 1009dd05 f   d3dx9dt:cvsprogram.obj
 0001:0009cd27       ?EmitSize@CVSProgram@D3DXShader@@MAEJXZ 1009dd27 f   d3dx9dt:cvsprogram.obj
 0001:0009cd56       ?VSMatchDOT@CVSProgram@D3DXShader@@IAEJXZ 1009dd56 f   d3dx9dt:cvsprogram.obj
 0001:0009d83e       ?ViolatesPortConstraints@CVSProgram@D3DXShader@@MAEHPAVCInstruction@2@PAI@Z 1009e83e f   d3dx9dt:cvsprogram.obj
 0001:0009d9fa       ?ViolatesWriteLim@CVSProgram@D3DXShader@@MAEHPAVCInstruction@2@I@Z 1009e9fa f   d3dx9dt:cvsprogram.obj
 0001:0009da4a       ?EmitVersion@CVSProgram@D3DXShader@@MAEJXZ 1009ea4a f   d3dx9dt:cvsprogram.obj
 0001:0009da7c       ?IndexSemantic@CVSProgram@D3DXShader@@UAEJPAVCArgument@2@H@Z 1009ea7c f   d3dx9dt:cvsprogram.obj
 0001:0009dfbb       ?EmitDCL@CVSProgram@D3DXShader@@MAEJPAVCArgument@2@PAK@Z 1009efbb f   d3dx9dt:cvsprogram.obj
 0001:0009e318       ?VSEmitFRC@CVSProgram@D3DXShader@@IAEJXZ 1009f318 f   d3dx9dt:cvsprogram.obj
 0001:0009e5d8       ?VSEmitEXP@CVSProgram@D3DXShader@@IAEJXZ 1009f5d8 f   d3dx9dt:cvsprogram.obj
 0001:0009e7dc       ?VSEmitLOG@CVSProgram@D3DXShader@@IAEJXZ 1009f7dc f   d3dx9dt:cvsprogram.obj
 0001:0009e838       ?EmitAddress@CVSProgram@D3DXShader@@IAEJI@Z 1009f838 f   d3dx9dt:cvsprogram.obj
 0001:0009e934       ?EmitSrc@CVSProgram@D3DXShader@@MAEJKKK@Z 1009f934 f   d3dx9dt:cvsprogram.obj
 0001:0009e9ac       ?CalcNumExtraSymbolTableEntries@CVSProgram@D3DXShader@@MAEIXZ 1009f9ac f   d3dx9dt:cvsprogram.obj
 0001:0009e9cb       ?EmitDEF@CVSProgram@D3DXShader@@MAEJIPAM@Z 1009f9cb f   d3dx9dt:cvsprogram.obj
 0001:0009ea43       ?AddExtraSymbolTableEntries@CVSProgram@D3DXShader@@MAEJPAVCCommentBlock@2@PAU_D3DXSHADER_CONSTANTINFO@@I@Z 1009fa43 f   d3dx9dt:cvsprogram.obj
 0001:0009ebfb       ?AddUserOffsetInfo@CVSProgram@D3DXShader@@MAEJPAVCNodeVariable@2@PAU_D3DXSHADER_CONSTANTINFO@@@Z 1009fbfb f   d3dx9dt:cvsprogram.obj
 0001:0009ed40       ??0CVSProgram@D3DXShader@@QAE@H@Z 1009fd40 f   d3dx9dt:cvsprogram.obj
 0001:0009ed89       ??1CVSProgram@D3DXShader@@UAE@XZ 1009fd89 f   d3dx9dt:cvsprogram.obj
 0001:0009edb0       ?VSMatchDST@CVSProgram@D3DXShader@@IAEJXZ 1009fdb0 f   d3dx9dt:cvsprogram.obj
 0001:0009f3ab       ?PatternMatch@CVSProgram@D3DXShader@@MAEJXZ 100a03ab f   d3dx9dt:cvsprogram.obj
 0001:0009f52c       ?EmitAddresses@CVSProgram@D3DXShader@@IAEJXZ 100a052c f   d3dx9dt:cvsprogram.obj
 0001:0009f583       ??_GCVSProgram@D3DXShader@@UAEPAXI@Z 100a0583 f i d3dx9dt:cvsprogram.obj
 0001:0009f583       ??_ECVSProgram@D3DXShader@@UAEPAXI@Z 100a0583 f i d3dx9dt:cvsprogram.obj
 0001:0009f5a2       ?EmitInstructions@CVSProgram@D3DXShader@@MAEJXZ 100a05a2 f   d3dx9dt:cvsprogram.obj
 0001:0009f805       ??0CFXLProgram@D3DXShader@@QAE@XZ 100a0805 f   d3dx9dt:cfxlprogram.obj
 0001:0009f81e       ??1CFXLProgram@D3DXShader@@UAE@XZ 100a081e f   d3dx9dt:cfxlprogram.obj
 0001:0009f829       ?InitCaps@CFXLProgram@D3DXShader@@MAEJXZ 100a0829 f   d3dx9dt:cfxlprogram.obj
 0001:0009f853       ?EmitAddress@CFXLProgram@D3DXShader@@QAEJIK@Z 100a0853 f   d3dx9dt:cfxlprogram.obj
 0001:0009f8b9       ?EmitPool@CFXLProgram@D3DXShader@@QAEJPAVCArgument@2@@Z 100a08b9 f   d3dx9dt:cfxlprogram.obj
 0001:0009f950       ?EmitDouble@CFXLProgram@D3DXShader@@QAEJN@Z 100a0950 f   d3dx9dt:cfxlprogram.obj
 0001:0009f986       ?IndexSemantic@CFXLProgram@D3DXShader@@UAEJPAVCArgument@2@H@Z 100a0986 f   d3dx9dt:cfxlprogram.obj
 0001:0009fb84       ??_ECFXLProgram@D3DXShader@@UAEPAXI@Z 100a0b84 f i d3dx9dt:cfxlprogram.obj
 0001:0009fb84       ??_GCFXLProgram@D3DXShader@@UAEPAXI@Z 100a0b84 f i d3dx9dt:cfxlprogram.obj
 0001:0009fba9       ?GenerateCode@CFXLProgram@D3DXShader@@UAEJPAPAUID3DXBuffer@@PAVCProgram@2@@Z 100a0ba9 f   d3dx9dt:cfxlprogram.obj
 0001:000a00ec       ?jpeg_idct_4x4@D3DX@@YGXPAUjpeg_decompress_struct@1@PAUjpeg_component_info@1@PAFPAPAEI@Z 100a10ec f   d3dx9dt:jidctred.obj
 0001:000a03dc       ?jpeg_idct_2x2@D3DX@@YGXPAUjpeg_decompress_struct@1@PAUjpeg_component_info@1@PAFPAPAEI@Z 100a13dc f   d3dx9dt:jidctred.obj
 0001:000a059f       ?jpeg_idct_1x1@D3DX@@YGXPAUjpeg_decompress_struct@1@PAUjpeg_component_info@1@PAFPAPAEI@Z 100a159f f   d3dx9dt:jidctred.obj
 0001:000a05de       ?jpeg_idct_islow@D3DX@@YGXPAUjpeg_decompress_struct@1@PAUjpeg_component_info@1@PAFPAPAEI@Z 100a15de f   d3dx9dt:jidctint.obj
 0001:000a0aba       ?jpeg_idct_ifast@D3DX@@YGXPAUjpeg_decompress_struct@1@PAUjpeg_component_info@1@PAFPAPAEI@Z 100a1aba f   d3dx9dt:jidctfst.obj
 0001:000a0f18       ?jpeg_idct_float@D3DX@@YGXPAUjpeg_decompress_struct@1@PAUjpeg_component_info@1@PAFPAPAEI@Z 100a1f18 f   d3dx9dt:jidctflt.obj
 0001:000a12f1       ?pidct8x8llm@D3DX@@YGXPAF00PAPAEIPAE@Z 100a22f1 f   d3dx9dt:piint.obj
 0001:000a1755       ?jpeg_idct_islow_x86@D3DX@@YGXPAUjpeg_decompress_struct@1@PAUjpeg_component_info@1@PAFPAPAEI@Z 100a2755 f   d3dx9dt:piint.obj
 0001:000a178c       ?midct8x8llm@D3DX@@YGXPAF00PAPAEIPAE@Z 100a278c f   d3dx9dt:miint.obj
 0001:000a1e9b       ?jpeg_idct_islow_mmx@D3DX@@YGXPAUjpeg_decompress_struct@1@PAUjpeg_component_info@1@PAFPAPAEI@Z 100a2e9b f   d3dx9dt:miint.obj
 0001:000a1ed2       ?MYCbCr2RGB@D3DX@@YGXHPAE000@Z 100a2ed2 f   d3dx9dt:mcbcr.obj
 0001:000a2010       _d3dx_inflate_codes_new@20 100a3010 f   d3dx9dt:infcodes.obj
 0001:000a2043       _d3dx_inflate_codes@12     100a3043 f   d3dx9dt:infcodes.obj
 0001:000a259a       _d3dx_inflate_codes_free@8 100a359a f   d3dx9dt:infcodes.obj
 0001:000a292a       _d3dx_inflate_trees_bits@20 100a392a f   d3dx9dt:inftrees.obj
 0001:000a29a3       _d3dx_inflate_trees_dynamic@36 100a39a3 f   d3dx9dt:inftrees.obj
 0001:000a2a9d       _d3dx_inflate_trees_fixed@20 100a3a9d f   d3dx9dt:inftrees.obj
 0001:000a2ace       _d3dx_inflate_flush@12     100a3ace f   d3dx9dt:infutil.obj
 0001:000a2bdf       ?jpeg_fdct_islow@D3DX@@YGXPAF@Z 100a3bdf f   d3dx9dt:jfdctint.obj
 0001:000a2ef8       ?jpeg_fdct_ifast@D3DX@@YGXPAF@Z 100a3ef8 f   d3dx9dt:jfdctfst.obj
 0001:000a313f       ?jpeg_fdct_float@D3DX@@YGXPAM@Z 100a413f f   d3dx9dt:jfdctflt.obj
 0001:000a345c       ??0CShaderProgram@D3DXShader@@QAE@XZ 100a445c f   d3dx9dt:cshaderprogram.obj
 0001:000a34d8       ??1CShaderProgram@D3DXShader@@UAE@XZ 100a44d8 f   d3dx9dt:cshaderprogram.obj
 0001:000a3518       ?ComputeSwizzle@CShaderProgram@D3DXShader@@IAEJPAVCInstruction@2@PAII11I@Z 100a4518 f   d3dx9dt:cshaderprogram.obj
 0001:000a36b9       ?MatchComplexTree@CShaderProgram@D3DXShader@@IAEJPAVCInstruction@2@PBUD3DX_MATCHENTRY@2@PAPAV32@PAI33I@Z 100a46b9 f   d3dx9dt:cshaderprogram.obj
 0001:000a3aed       ?CombineConstants@CShaderProgram@D3DXShader@@IAEJIIKKD@Z 100a4aed f   d3dx9dt:cshaderprogram.obj
 0001:000a4018       ?EmitObjectDCL@CShaderProgram@D3DXShader@@MAEJPAVCArgument@2@@Z 100a5018 f   d3dx9dt:cshaderprogram.obj
 0001:000a401d       ?FindObjectDims@CShaderProgram@D3DXShader@@MAEJXZ 100a501d f   d3dx9dt:cshaderprogram.obj
 0001:000a4020       ?EmitDCL@CShaderProgram@D3DXShader@@MAEJPAVCArgument@2@PAK@Z 100a5020 f   d3dx9dt:cshaderprogram.obj
 0001:000a4039       ?IndexSemantic@CShaderProgram@D3DXShader@@UAEJPAVCArgument@2@H@Z 100a5039 f   d3dx9dt:cshaderprogram.obj
 0001:000a4055       ?ValidateOutput@CShaderProgram@D3DXShader@@MAEJXZ 100a5055 f   d3dx9dt:cshaderprogram.obj
 0001:000a406f       ?ViolatesPortConstraints@CShaderProgram@D3DXShader@@MAEHPAVCInstruction@2@PAI@Z 100a506f f   d3dx9dt:cshaderprogram.obj
 0001:000a4074       ?EmitInstructions@CShaderProgram@D3DXShader@@MAEJXZ 100a5074 f   d3dx9dt:cshaderprogram.obj
 0001:000a408e       ?EmitVersion@CShaderProgram@D3DXShader@@MAEJXZ 100a508e f   d3dx9dt:cshaderprogram.obj
 0001:000a4091       ?PatternMatch@CShaderProgram@D3DXShader@@MAEJXZ 100a5091 f   d3dx9dt:cshaderprogram.obj
 0001:000a40ab       ?ViolatesWriteLim@CShaderProgram@D3DXShader@@MAEHPAVCInstruction@2@I@Z 100a50ab f   d3dx9dt:cshaderprogram.obj
 0001:000a40b0       ?MatchMinMax@CShaderProgram@D3DXShader@@IAEJXZ 100a50b0 f   d3dx9dt:cshaderprogram.obj
 0001:000a447c       ?MatchRepMov@CShaderProgram@D3DXShader@@IAEJXZ 100a547c f   d3dx9dt:cshaderprogram.obj
 0001:000a476c       ?CommitOrigin@CShaderProgram@D3DXShader@@IAEJXZ 100a576c f   d3dx9dt:cshaderprogram.obj
 0001:000a47e8       ?PlaceInstruction@CShaderProgram@D3DXShader@@IAEJPAVCInstruction@2@PAPAV32@I@Z 100a57e8 f   d3dx9dt:cshaderprogram.obj
 0001:000a49ba       ?MatchMAX@CShaderProgram@D3DXShader@@IAEJXZ 100a59ba f   d3dx9dt:cshaderprogram.obj
 0001:000a4a8e       ?MatchABS@CShaderProgram@D3DXShader@@IAEJXZ 100a5a8e f   d3dx9dt:cshaderprogram.obj
 0001:000a4b42       ?FindComp@CShaderProgram@D3DXShader@@IAEJIPAPAVCInstruction@2@PAI@Z 100a5b42 f   d3dx9dt:cshaderprogram.obj
 0001:000a4c48       ?BuildLRP@CShaderProgram@D3DXShader@@IAEJPAI000PAVCInstruction@2@1I@Z 100a5c48 f   d3dx9dt:cshaderprogram.obj
 0001:000a4f23       ?ValidModifier@CShaderProgram@D3DXShader@@IAEJI@Z 100a5f23 f   d3dx9dt:cshaderprogram.obj
 0001:000a4f93       ?MatchLRP2@CShaderProgram@D3DXShader@@IAEJXZ 100a5f93 f   d3dx9dt:cshaderprogram.obj
 0001:000a52c8       ?SwapRegisters@CShaderProgram@D3DXShader@@IAEJIII@Z 100a62c8 f   d3dx9dt:cshaderprogram.obj
 0001:000a5357       ?FindMatch@CShaderProgram@D3DXShader@@IAEPAVCInstruction@2@KPAV32@PAIII@Z 100a6357 f   d3dx9dt:cshaderprogram.obj
 0001:000a55b0       ?FindMatchUp@CShaderProgram@D3DXShader@@IAEJKPAVCInstruction@2@PAPAV32@I@Z 100a65b0 f   d3dx9dt:cshaderprogram.obj
 0001:000a577d       ?BuildInstruction@CShaderProgram@D3DXShader@@IAEJPAIII@Z 100a677d f   d3dx9dt:cshaderprogram.obj
 0001:000a58df       ?EmitNOP@CShaderProgram@D3DXShader@@IAEJXZ 100a68df f   d3dx9dt:cshaderprogram.obj
 0001:000a58e2       ?EmitSize@CShaderProgram@D3DXShader@@MAEJXZ 100a68e2 f   d3dx9dt:cshaderprogram.obj
 0001:000a58e5       ?EmitSrcSwizzle@CShaderProgram@D3DXShader@@IAEJK@Z 100a68e5 f   d3dx9dt:cshaderprogram.obj
 0001:000a58ea       ?CoIssue@CShaderProgram@D3DXShader@@MAEKK@Z 100a68ea f   d3dx9dt:cshaderprogram.obj
 0001:000a58f4       ?CalcNumExtraSymbolTableEntries@CShaderProgram@D3DXShader@@MAEIXZ 100a68f4 f   d3dx9dt:cshaderprogram.obj
 0001:000a58f7       ?AddUserOffsetInfo@CShaderProgram@D3DXShader@@MAEJPAVCNodeVariable@2@PAU_D3DXSHADER_CONSTANTINFO@@@Z 100a68f7 f   d3dx9dt:cshaderprogram.obj
 0001:000a58fc       ?AddExtraSymbolTableEntries@CShaderProgram@D3DXShader@@MAEJPAVCCommentBlock@2@PAU_D3DXSHADER_CONSTANTINFO@@I@Z 100a68fc f   d3dx9dt:cshaderprogram.obj
 0001:000a5901       ?TypeSize@D3DXShader@@YGIPAVCNode@1@@Z 100a6901 f   d3dx9dt:cshaderprogram.obj
 0001:000a5962       ?EmitTypeInfo@D3DXShader@@YGJPAVCCommentBlock@1@PAVCNode@1@IPAK@Z 100a6962 f   d3dx9dt:cshaderprogram.obj
 0001:000a5c34       ?Assure@CShaderProgram@D3DXShader@@IAEJI@Z 100a6c34 f   d3dx9dt:cshaderprogram.obj
 0001:000a5cda       ?DestRegister@CShaderProgram@D3DXShader@@MAEJPAVCArgument@2@PAKPAH@Z 100a6cda f   d3dx9dt:cshaderprogram.obj
 0001:000a5dc3       ?FindOutput@CShaderProgram@D3DXShader@@MAEJPAVCArgument@2@AAK1PAH@Z 100a6dc3 f   d3dx9dt:cshaderprogram.obj
 0001:000a5ddf       ?DestMask@CShaderProgram@D3DXShader@@MAEJPAIIPAKH@Z 100a6ddf f   d3dx9dt:cshaderprogram.obj
 0001:000a5f3f       ?FindInput@CShaderProgram@D3DXShader@@MAEJPAVCArgument@2@AAK1@Z 100a6f3f f   d3dx9dt:cshaderprogram.obj
 0001:000a5f84       ?SrcRegister@CShaderProgram@D3DXShader@@MAEJPAVCArgument@2@PAK1@Z 100a6f84 f   d3dx9dt:cshaderprogram.obj
 0001:000a618b       ?SrcSwizzle@CShaderProgram@D3DXShader@@MAEJPAIIKPAK@Z 100a718b f   d3dx9dt:cshaderprogram.obj
 0001:000a627c       ?TempRegister@CShaderProgram@D3DXShader@@MAEJIPAII0I@Z 100a727c f   d3dx9dt:cshaderprogram.obj
 0001:000a6467       ?ValidateInst@CShaderProgram@D3DXShader@@IAEJXZ 100a7467 f   d3dx9dt:cshaderprogram.obj
 0001:000a64e0       ?ValidationError@CShaderProgram@D3DXShader@@KGJPBDIKI0PAX@Z 100a74e0 f   d3dx9dt:cshaderprogram.obj
 0001:000a6561       ??_ECShaderProgram@D3DXShader@@UAEPAXI@Z 100a7561 f i d3dx9dt:cshaderprogram.obj
 0001:000a6561       ??_GCShaderProgram@D3DXShader@@UAEPAXI@Z 100a7561 f i d3dx9dt:cshaderprogram.obj
 0001:000a6580       ?Reset@CShaderProgram@D3DXShader@@IAEJXZ 100a7580 f   d3dx9dt:cshaderprogram.obj
 0001:000a65be       ?PortConstraints@CShaderProgram@D3DXShader@@IAEJXZ 100a75be f   d3dx9dt:cshaderprogram.obj
 0001:000a67d8       ?MatchSatModifier@CShaderProgram@D3DXShader@@IAEJXZ 100a77d8 f   d3dx9dt:cshaderprogram.obj
 0001:000a725e       ?MatchSourceModifier@CShaderProgram@D3DXShader@@IAEJIIPAIIPAVCInstruction@2@@Z 100a825e f   d3dx9dt:cshaderprogram.obj
 0001:000a7745       ?MatchNEG@CShaderProgram@D3DXShader@@IAEJXZ 100a8745 f   d3dx9dt:cshaderprogram.obj
 0001:000a7769       ?MatchComplexMad@CShaderProgram@D3DXShader@@IAEJXZ 100a8769 f   d3dx9dt:cshaderprogram.obj
 0001:000a7ac0       ?MatchBiasModifier@CShaderProgram@D3DXShader@@IAEJXZ 100a8ac0 f   d3dx9dt:cshaderprogram.obj
 0001:000a7d9e       ?MatchX2Modifier@CShaderProgram@D3DXShader@@IAEJXZ 100a8d9e f   d3dx9dt:cshaderprogram.obj
 0001:000a7eef       ?MatchCompModifier@CShaderProgram@D3DXShader@@IAEJPAVCInstruction@2@@Z 100a8eef f   d3dx9dt:cshaderprogram.obj
 0001:000a8071       ?MatchComplexComp@CShaderProgram@D3DXShader@@IAEJXZ 100a9071 f   d3dx9dt:cshaderprogram.obj
 0001:000a810c       ?MatchComplexBX2@CShaderProgram@D3DXShader@@IAEJXZ 100a910c f   d3dx9dt:cshaderprogram.obj
 0001:000a829b       ?MatchSQRT@CShaderProgram@D3DXShader@@IAEJXZ 100a929b f   d3dx9dt:cshaderprogram.obj
 0001:000a83f9       ?MatchLRP@CShaderProgram@D3DXShader@@IAEJXZ 100a93f9 f   d3dx9dt:cshaderprogram.obj
 0001:000a8573       ?MatchADD@CShaderProgram@D3DXShader@@IAEJXZ 100a9573 f   d3dx9dt:cshaderprogram.obj
 0001:000a889f       ?MatchMUL@CShaderProgram@D3DXShader@@IAEJXZ 100a989f f   d3dx9dt:cshaderprogram.obj
 0001:000a8aa3       ?Emit@CShaderProgram@D3DXShader@@IAEJK@Z 100a9aa3 f   d3dx9dt:cshaderprogram.obj
 0001:000a8ad1       ?EmitSymbolTable@CShaderProgram@D3DXShader@@IAEJXZ 100a9ad1 f   d3dx9dt:cshaderprogram.obj
 0001:000a9176       ?EmitDebugInfo@CShaderProgram@D3DXShader@@IAEJXZ 100aa176 f   d3dx9dt:cshaderprogram.obj
 0001:000a97c1       ?GenerateCode@CShaderProgram@D3DXShader@@UAEJPAPAUID3DXBuffer@@PAVCProgram@2@@Z 100aa7c1 f   d3dx9dt:cshaderprogram.obj
 0001:000aa159       ?EmitInst@CShaderProgram@D3DXShader@@IAEJK@Z 100ab159 f   d3dx9dt:cshaderprogram.obj
 0001:000aa25a       ?EmitReg@CShaderProgram@D3DXShader@@IAEJK@Z 100ab25a f   d3dx9dt:cshaderprogram.obj
 0001:000aa26f       ?EmitDest@CShaderProgram@D3DXShader@@MAEJKK@Z 100ab26f f   d3dx9dt:cshaderprogram.obj
 0001:000aa288       ?EmitSrc@CShaderProgram@D3DXShader@@MAEJKKK@Z 100ab288 f   d3dx9dt:cshaderprogram.obj
 0001:000aa2f1       ?EmitInstComplex@CShaderProgram@D3DXShader@@IAEJKPAII000IKKK@Z 100ab2f1 f   d3dx9dt:cshaderprogram.obj
 0001:000aa4cf       ?EmitDEF@CShaderProgram@D3DXShader@@MAEJIPAM@Z 100ab4cf f   d3dx9dt:cshaderprogram.obj
 0001:000aa594       ?EmitTEX@CShaderProgram@D3DXShader@@IAEJXZ 100ab594 f   d3dx9dt:cshaderprogram.obj
 0001:000aa5f5       ?EmitTEXProj@CShaderProgram@D3DXShader@@IAEJXZ 100ab5f5 f   d3dx9dt:cshaderprogram.obj
 0001:000aa659       ?EmitTEXBias@CShaderProgram@D3DXShader@@IAEJXZ 100ab659 f   d3dx9dt:cshaderprogram.obj
 0001:000aa6bd       ?EmitDP2ADD@CShaderProgram@D3DXShader@@IAEJXZ 100ab6bd f   d3dx9dt:cshaderprogram.obj
 0001:000aa6f2       ?EmitCLIP@CShaderProgram@D3DXShader@@IAEJXZ 100ab6f2 f   d3dx9dt:cshaderprogram.obj
 0001:000aa81e       ?EmitNEG@CShaderProgram@D3DXShader@@IAEJXZ 100ab81e f   d3dx9dt:cshaderprogram.obj
 0001:000aa909       ?EmitLRP@CShaderProgram@D3DXShader@@IAEJXZ 100ab909 f   d3dx9dt:cshaderprogram.obj
 0001:000aaa1b       ?EmitNRM@CShaderProgram@D3DXShader@@IAEJXZ 100aba1b f   d3dx9dt:cshaderprogram.obj
 0001:000aaab9       ?EmitMAD@CShaderProgram@D3DXShader@@IAEJXZ 100abab9 f   d3dx9dt:cshaderprogram.obj
 0001:000aabee       ?EmitMAT@CShaderProgram@D3DXShader@@IAEJXZ 100abbee f   d3dx9dt:cshaderprogram.obj
 0001:000aad9f       ?EmitInstSimple@CShaderProgram@D3DXShader@@IAEJK@Z 100abd9f f   d3dx9dt:cshaderprogram.obj
 0001:000aae12       ?EmitInstScalar@CShaderProgram@D3DXShader@@IAEJKPAI0IIKH@Z 100abe12 f   d3dx9dt:cshaderprogram.obj
 0001:000aafea       ?EmitMOV@CShaderProgram@D3DXShader@@IAEJXZ 100abfea f   d3dx9dt:cshaderprogram.obj
 0001:000ab0de       ?EmitRCP@CShaderProgram@D3DXShader@@IAEJXZ 100ac0de f   d3dx9dt:cshaderprogram.obj
 0001:000ab0fc       ?EmitFRC@CShaderProgram@D3DXShader@@IAEJXZ 100ac0fc f   d3dx9dt:cshaderprogram.obj
 0001:000ab104       ?EmitEXP@CShaderProgram@D3DXShader@@IAEJXZ 100ac104 f   d3dx9dt:cshaderprogram.obj
 0001:000ab122       ?EmitLOG@CShaderProgram@D3DXShader@@IAEJXZ 100ac122 f   d3dx9dt:cshaderprogram.obj
 0001:000ab140       ?EmitSQRT@CShaderProgram@D3DXShader@@IAEJXZ 100ac140 f   d3dx9dt:cshaderprogram.obj
 0001:000ab1ba       ?EmitMIN@CShaderProgram@D3DXShader@@IAEJXZ 100ac1ba f   d3dx9dt:cshaderprogram.obj
 0001:000ab1c2       ?EmitMAX@CShaderProgram@D3DXShader@@IAEJXZ 100ac1c2 f   d3dx9dt:cshaderprogram.obj
 0001:000ab1ca       ?EmitLT@CShaderProgram@D3DXShader@@IAEJXZ 100ac1ca f   d3dx9dt:cshaderprogram.obj
 0001:000ab1d2       ?EmitGE@CShaderProgram@D3DXShader@@IAEJXZ 100ac1d2 f   d3dx9dt:cshaderprogram.obj
 0001:000ab1da       ?EmitADD@CShaderProgram@D3DXShader@@IAEJXZ 100ac1da f   d3dx9dt:cshaderprogram.obj
 0001:000ab1e2       ?EmitMUL@CShaderProgram@D3DXShader@@IAEJXZ 100ac1e2 f   d3dx9dt:cshaderprogram.obj
 0001:000ab1ea       ?EmitDST@CShaderProgram@D3DXShader@@IAEJXZ 100ac1ea f   d3dx9dt:cshaderprogram.obj
 0001:000ab1f2       ?EmitDOT@CShaderProgram@D3DXShader@@IAEJXZ 100ac1f2 f   d3dx9dt:cshaderprogram.obj
 0001:000ab294       ?EmitLIT@CShaderProgram@D3DXShader@@IAEJXZ 100ac294 f   d3dx9dt:cshaderprogram.obj
 0001:000ab29c       ?EmitCMP@CShaderProgram@D3DXShader@@IAEJXZ 100ac29c f   d3dx9dt:cshaderprogram.obj
 0001:000ab2a4       ?EmitABS@CShaderProgram@D3DXShader@@IAEJXZ 100ac2a4 f   d3dx9dt:cshaderprogram.obj
 0001:000ab2ac       ?EmitRSQ@CShaderProgram@D3DXShader@@IAEJXZ 100ac2ac f   d3dx9dt:cshaderprogram.obj
 0001:000ab2e2       ??0CPool@D3DXShader@@QAE@XZ 100ac2e2 f   d3dx9dt:cpool.obj
 0001:000ab2eb       ??1CPool@D3DXShader@@QAE@XZ 100ac2eb f   d3dx9dt:cpool.obj
 0001:000ab2f2       ?Initialize@CPool@D3DXShader@@QAEJPBDKII@Z 100ac2f2 f   d3dx9dt:cpool.obj
 0001:000ab338       ?Initialize@CPool@D3DXShader@@QAEJPAV12@@Z 100ac338 f   d3dx9dt:cpool.obj
 0001:000ab39b       _d3dx_inflate_fast@24      100ac39b f   d3dx9dt:inffast.obj
 0001:000ab65e       _Direct3DCreate9@4         100ac65e f   d3d9:d3d9.dll
 0001:000ab664       _timeGetTime@0             100ac664 f   winmm:WINMM.dll
 0001:000ab66a       _DirectDrawCreateEx@16     100ac66a f   ddraw:DDRAW.dll
 0001:000ab670       _GdipFree@4                100ac670 f   GdiPlus:gdiplus.dll
 0001:000ab676       _GdipAlloc@4               100ac676 f   GdiPlus:gdiplus.dll
 0001:000ab67c       _GdipLoadImageFromStream@8 100ac67c f   GdiPlus:gdiplus.dll
 0001:000ab682       _GdipLoadImageFromStreamICM@8 100ac682 f   GdiPlus:gdiplus.dll
 0001:000ab688       _GdipDisposeImage@4        100ac688 f   GdiPlus:gdiplus.dll
 0001:000ab68e       _GdipSaveImageToFile@16    100ac68e f   GdiPlus:gdiplus.dll
 0001:000ab694       _GdipGetImageEncodersSize@8 100ac694 f   GdiPlus:gdiplus.dll
 0001:000ab69a       _GdipGetImageEncoders@12   100ac69a f   GdiPlus:gdiplus.dll
 0001:000ab6a0       _GdiplusStartup@12         100ac6a0 f   GdiPlus:gdiplus.dll
 0001:000ab6a6       _GdiplusShutdown@4         100ac6a6 f   GdiPlus:gdiplus.dll
 0001:000ab6ac       _GdipCloneImage@8          100ac6ac f   GdiPlus:gdiplus.dll
 0001:000ab6b2       _GlobalMemoryStatus@4      100ac6b2 f   kernel32:KERNEL32.dll
 0001:000ab6b8       _MultiByteToWideChar@24    100ac6b8 f   kernel32:KERNEL32.dll
 0001:000ab6be       _InitializeCriticalSection@4 100ac6be f   kernel32:KERNEL32.dll
 0001:000ab6c4       _DeleteCriticalSection@4   100ac6c4 f   kernel32:KERNEL32.dll
 0001:000ab6ca       _EnterCriticalSection@4    100ac6ca f   kernel32:KERNEL32.dll
 0001:000ab6d0       _LeaveCriticalSection@4    100ac6d0 f   kernel32:KERNEL32.dll
 0001:000ab6d6       _GetTickCount@0            100ac6d6 f   kernel32:KERNEL32.dll
 0001:000ab6dc       _GetSystemInfo@4           100ac6dc f   kernel32:KERNEL32.dll
 0001:000ab6e2       _IsProcessorFeaturePresent@4 100ac6e2 f   kernel32:KERNEL32.dll
 0001:000ab6e8       _OutputDebugStringA@4      100ac6e8 f   kernel32:KERNEL32.dll
 0001:000ab6ee       _GetProfileIntA@12         100ac6ee f   kernel32:KERNEL32.dll
 0001:000ab6f4       _DebugBreak@0              100ac6f4 f   kernel32:KERNEL32.dll
 0001:000ab6fa       _FatalAppExitA@8           100ac6fa f   kernel32:KERNEL32.dll
 0001:000ab700       _GetProcAddress@8          100ac700 f   kernel32:KERNEL32.dll
 0001:000ab706       _LoadLibraryA@4            100ac706 f   kernel32:KERNEL32.dll
 0001:000ab70c       _GetModuleHandleA@4        100ac70c f   kernel32:KERNEL32.dll
 0001:000ab712       _WriteFile@20              100ac712 f   kernel32:KERNEL32.dll
 0001:000ab718       _LocalFree@4               100ac718 f   kernel32:KERNEL32.dll
 0001:000ab71e       _FormatMessageA@28         100ac71e f   kernel32:KERNEL32.dll
 0001:000ab724       _GetLastError@0            100ac724 f   kernel32:KERNEL32.dll
 0001:000ab72a       _MapViewOfFile@20          100ac72a f   kernel32:KERNEL32.dll
 0001:000ab730       _GetFileSize@8             100ac730 f   kernel32:KERNEL32.dll
 0001:000ab736       _CreateFileMappingA@24     100ac736 f   kernel32:KERNEL32.dll
 0001:000ab73c       _CreateFileA@28            100ac73c f   kernel32:KERNEL32.dll
 0001:000ab742       _CreateFileW@28            100ac742 f   kernel32:KERNEL32.dll
 0001:000ab748       _WideCharToMultiByte@32    100ac748 f   kernel32:KERNEL32.dll
 0001:000ab74e       _GetVersionExA@4           100ac74e f   kernel32:KERNEL32.dll
 0001:000ab754       _CloseHandle@4             100ac754 f   kernel32:KERNEL32.dll
 0001:000ab75a       _UnmapViewOfFile@4         100ac75a f   kernel32:KERNEL32.dll
 0001:000ab760       _LockResource@4            100ac760 f   kernel32:KERNEL32.dll
 0001:000ab766       _LoadResource@8            100ac766 f   kernel32:KERNEL32.dll
 0001:000ab76c       _SizeofResource@8          100ac76c f   kernel32:KERNEL32.dll
 0001:000ab772       _FindResourceA@12          100ac772 f   kernel32:KERNEL32.dll
 0001:000ab778       _FindResourceW@12          100ac778 f   kernel32:KERNEL32.dll
 0001:000ab77e       _GetFullPathNameA@16       100ac77e f   kernel32:KERNEL32.dll
 0001:000ab784       _lstrcmpiA@8               100ac784 f   kernel32:KERNEL32.dll
 0001:000ab78a       _HeapAlloc@12              100ac78a f   kernel32:KERNEL32.dll
 0001:000ab790       _GetProcessHeap@0          100ac790 f   kernel32:KERNEL32.dll
 0001:000ab796       _HeapFree@12               100ac796 f   kernel32:KERNEL32.dll
 0001:000ab79c       _DefWindowProcA@16         100ac79c f   user32:USER32.dll
 0001:000ab7a2       _ClientToScreen@8          100ac7a2 f   user32:USER32.dll
 0001:000ab7a8       _GetClientRect@8           100ac7a8 f   user32:USER32.dll
 0001:000ab7ae       _SetWindowLongA@12         100ac7ae f   user32:USER32.dll
 0001:000ab7b4       _GetWindowLongA@8          100ac7b4 f   user32:USER32.dll
 0001:000ab7ba       _MessageBoxA@16            100ac7ba f   user32:USER32.dll
 0001:000ab7c0       _DeleteObject@4            100ac7c0 f   gdi32:GDI32.dll
 0001:000ab7c6       _RegCloseKey@4             100ac7c6 f   advapi32:ADVAPI32.dll
 0001:000ab7cc       _RegQueryValueExA@24       100ac7cc f   advapi32:ADVAPI32.dll
 0001:000ab7d2       _RegOpenKeyA@12            100ac7d2 f   advapi32:ADVAPI32.dll
 0001:000ab7d8       _CreateStreamOnHGlobal@12  100ac7d8 f   ole32:ole32.dll
 0001:000ab7de       ?g_DebugLog@@YAXPADZZ      100ac7de f   engine:Engine.dll
 0001:000ab7e4       _TIsCharacterNotAlowAtLineHead 100ac7e4 f   engine:Engine.dll
 0001:000ab7ea       _TGetSecondVisibleCharacterThisLine 100ac7ea f   engine:Engine.dll
 0001:000ab7f0       ?Close@KPakFile@@QAEXXZ    100ac7f0 f   engine:Engine.dll
 0001:000ab7f6       ?Read@KPakFile@@QAEKPAXI@Z 100ac7f6 f   engine:Engine.dll
 0001:000ab7fc       ??1KPakFile@@QAE@XZ        100ac7fc f   engine:Engine.dll
 0001:000ab802       ?Open@KPakFile@@QAEHPBD@Z  100ac802 f   engine:Engine.dll
 0001:000ab808       ??0KPakFile@@QAE@XZ        100ac808 f   engine:Engine.dll
 0001:000ab80e       ?SaveBuffer32@KBmpFile24@@SAHPADPAXHHH@Z 100ac80e f   engine:Engine.dll
 0001:000ab814       ?g_GetMainHWnd@@YAPAUHWND__@@XZ 100ac814 f   engine:Engine.dll
 0001:000ab81a       ?release_image@@YAXPAUKSGImageContent@@@Z 100ac81a f   engine:Engine.dll
 0001:000ab820       ?get_jpg_image@@YAPAUKSGImageContent@@QBDI@Z 100ac820 f   engine:Engine.dll
 0001:000ab826       ?SprReleaseHeader@@YAXPAUSPRHEAD@@@Z 100ac826 f   engine:Engine.dll
 0001:000ab82c       ?SprGetHeader@@YAPAUSPRHEAD@@PBDAAPAUSPROFFS@@@Z 100ac82c f   engine:Engine.dll
 0001:000ab832       ?SprReleaseFrame@@YAXPAUSPRFRAME@@@Z 100ac832 f   engine:Engine.dll
 0001:000ab838       ?SprGetFrame@@YAPAUSPRFRAME@@PAUSPRHEAD@@H@Z 100ac838 f   engine:Engine.dll
 0001:000ab83e       ?g_FileName2Id@@YAKPAD@Z   100ac83e f   engine:Engine.dll
 0001:000ab844       ??0?$basic_string@DU?$char_traits@D@std@@V?$allocator@D@2@@std@@QAE@ABV01@@Z 100ac844 f   msvcprt:MSVCP80.dll
 0001:000ab84a       ??1?$basic_string@DU?$char_traits@D@std@@V?$allocator@D@2@@std@@QAE@XZ 100ac84a f   msvcprt:MSVCP80.dll
 0001:000ab850       ??0?$basic_string@DU?$char_traits@D@std@@V?$allocator@D@2@@std@@QAE@PBD@Z 100ac850 f   msvcprt:MSVCP80.dll
 0001:000ab860       _memset                    100ac860 f   MSVCRT:MSVCR80.dll
 0001:000ab866       __onexit                   100ac866 f   MSVCRT:atonexit.obj
 0001:000ab90b       _atexit                    100ac90b f   MSVCRT:atonexit.obj
 0001:000ab91e       ??0exception@std@@QAE@ABQBD@Z 100ac91e f   MSVCRT:MSVCR80.dll
 0001:000ab924       ??0type_info@@AAE@ABV0@@Z  100ac924 f   MSVCRT:ti_inst.obj
 0001:000ab92f       ??_Etype_info@@UAEPAXI@Z   100ac92f f i MSVCRT:ti_inst.obj
 0001:000ab978       ??4type_info@@AAEAAV0@ABV0@@Z 100ac978 f   MSVCRT:ti_inst.obj
 0001:000ab97e       ?what@exception@std@@UBEPBDXZ 100ac97e f   MSVCRT:MSVCR80.dll
 0001:000ab984       ??1exception@std@@UAE@XZ   100ac984 f   MSVCRT:MSVCR80.dll
 0001:000ab98a       ??3@YAXPAX@Z               100ac98a f   MSVCRT:MSVCR80.dll
 0001:000ab990       ??0exception@std@@QAE@XZ   100ac990 f   MSVCRT:MSVCR80.dll
 0001:000ab996       ___CxxFrameHandler3        100ac996 f   MSVCRT:MSVCR80.dll
 0001:000ab99c       @__security_check_cookie@4 100ac99c f   MSVCRT:secchk.obj
 0001:000ab9ac       __invalid_parameter_noinfo 100ac9ac f   MSVCRT:MSVCR80.dll
 0001:000ab9b2       __CxxThrowException@8      100ac9b2 f   MSVCRT:MSVCR80.dll
 0001:000ab9b8       ??0exception@std@@QAE@ABV01@@Z 100ac9b8 f   MSVCRT:MSVCR80.dll
 0001:000ab9be       ??2@YAPAXI@Z               100ac9be f   MSVCRT:MSVCR80.dll
 0001:000ab9c4       _memmove_s                 100ac9c4 f   MSVCRT:MSVCR80.dll
 0001:000ab9ca       __purecall                 100ac9ca f   MSVCRT:MSVCR80.dll
 0001:000ab9d0       __alloca_probe             100ac9d0     MSVCRT:chkstk.obj
 0001:000ab9d0       __chkstk                   100ac9d0 f   MSVCRT:chkstk.obj
 0001:000aba00       __ftol2_sse                100aca00 f   MSVCRT:ftol2.obj
 0001:000aba09       __ftol2_pentium4           100aca09 f   MSVCRT:ftol2.obj
 0001:000aba1c       __ftol2_sse_excpt          100aca1c f   MSVCRT:ftol2.obj
 0001:000aba36       __ftol2                    100aca36 f   MSVCRT:ftol2.obj
 0001:000abaac       _free                      100acaac f   MSVCRT:MSVCR80.dll
 0001:000abab2       _malloc                    100acab2 f   MSVCRT:MSVCR80.dll
 0001:000abab8       __CIsqrt                   100acab8 f   MSVCRT:MSVCR80.dll
 0001:000ababe       _atoi                      100acabe f   MSVCRT:MSVCR80.dll
 0001:000abac4       _memcpy                    100acac4 f   MSVCRT:MSVCR80.dll
 0001:000abaca       _sprintf                   100acaca f   MSVCRT:MSVCR80.dll
 0001:000abad0       _NtCurrentTeb              100acad0 f i MSVCRT:crtdll.obj
 0001:000abb24       __CRT_INIT@12              100acb24 f   MSVCRT:crtdll.obj
 0001:000abdfd       __DllMainCRTStartup@12     100acdfd f   MSVCRT:crtdll.obj
 0001:000abe1e       __CIacos                   100ace1e f   MSVCRT:MSVCR80.dll
 0001:000abe24       __finite                   100ace24 f   MSVCRT:MSVCR80.dll
 0001:000abe2a       __ftol                     100ace2a f   MSVCRT:MSVCR80.dll
 0001:000abe30       __controlfp                100ace30 f   MSVCRT:MSVCR80.dll
 0001:000abe36       ___CxxFrameHandler         100ace36 f   MSVCRT:MSVCR80.dll
 0001:000abe3c       __EH_prolog                100ace3c f   MSVCRT:ehprolog.obj
 0001:000abe5c       __snprintf                 100ace5c f   MSVCRT:MSVCR80.dll
 0001:000abe62       __vsnprintf                100ace62 f   MSVCRT:MSVCR80.dll
 0001:000abe68       _longjmp                   100ace68 f   MSVCRT:MSVCR80.dll
 0001:000abe6e       __setjmp3                  100ace6e f   MSVCRT:MSVCR80.dll
 0001:000abe74       _isdigit                   100ace74 f   MSVCRT:MSVCR80.dll
 0001:000abe7a       _isspace                   100ace7a f   MSVCRT:MSVCR80.dll
 0001:000abe80       __CIpow                    100ace80 f   MSVCRT:MSVCR80.dll
 0001:000abe86       _floor                     100ace86 f   MSVCRT:MSVCR80.dll
 0001:000abe90       __aullshr                  100ace90 f   MSVCRT:ullshr.obj
 0001:000abeb0       __CIasin                   100aceb0 f   MSVCRT:MSVCR80.dll
 0001:000abeb6       __except_handler3          100aceb6 f   MSVCRT:MSVCR80.dll
 0001:000abebc       _exit                      100acebc f   MSVCRT:MSVCR80.dll
 0001:000abec2       __strdup                   100acec2 f   MSVCRT:MSVCR80.dll
 0001:000abec8       _setlocale                 100acec8 f   MSVCRT:MSVCR80.dll
 0001:000abece       _atof                      100acece f   MSVCRT:MSVCR80.dll
 0001:000abed4       _tolower                   100aced4 f   MSVCRT:MSVCR80.dll
 0001:000abeda       _isalnum                   100aceda f   MSVCRT:MSVCR80.dll
 0001:000abee0       _isalpha                   100acee0 f   MSVCRT:MSVCR80.dll
 0001:000abee6       _isxdigit                  100acee6 f   MSVCRT:MSVCR80.dll
 0001:000abeec       _strncmp                   100aceec f   MSVCRT:MSVCR80.dll
 0001:000abef2       _toupper                   100acef2 f   MSVCRT:MSVCR80.dll
 0001:000abef8       _memmove                   100acef8 f   MSVCRT:MSVCR80.dll
 0001:000abefe       _qsort                     100acefe f   MSVCRT:MSVCR80.dll
 0001:000abf04       _fread                     100acf04 f   MSVCRT:MSVCR80.dll
 0001:000abf0a       _fseek                     100acf0a f   MSVCRT:MSVCR80.dll
 0001:000abf10       _fwrite                    100acf10 f   MSVCRT:MSVCR80.dll
 0001:000abf16       _fclose                    100acf16 f   MSVCRT:MSVCR80.dll
 0001:000abf1c       _strncpy                   100acf1c f   MSVCRT:MSVCR80.dll
 0001:000abf22       _tmpfile                   100acf22 f   MSVCRT:MSVCR80.dll
 0001:000abf28       _printf                    100acf28 f   MSVCRT:MSVCR80.dll
 0001:000abf2e       __fpclass                  100acf2e f   MSVCRT:MSVCR80.dll
 0001:000abf34       __isnan                    100acf34 f   MSVCRT:MSVCR80.dll
 0001:000abf3a       _ceil                      100acf3a f   MSVCRT:MSVCR80.dll
 0001:000abf40       __CItanh                   100acf40 f   MSVCRT:MSVCR80.dll
 0001:000abf46       __CIsinh                   100acf46 f   MSVCRT:MSVCR80.dll
 0001:000abf4c       __CIfmod                   100acf4c f   MSVCRT:MSVCR80.dll
 0001:000abf52       __CIexp                    100acf52 f   MSVCRT:MSVCR80.dll
 0001:000abf58       __CIcosh                   100acf58 f   MSVCRT:MSVCR80.dll
 0001:000abf5e       __stricmp                  100acf5e f   MSVCRT:MSVCR80.dll
 0001:000abf64       __unlock                   100acf64 f   MSVCRT:MSVCR80.dll
 0001:000abf6a       ___dllonexit               100acf6a f   MSVCRT:MSVCR80.dll
 0001:000abf70       __encode_pointer           100acf70 f   MSVCRT:MSVCR80.dll
 0001:000abf76       __lock                     100acf76 f   MSVCRT:MSVCR80.dll
 0001:000abf7c       __decode_pointer           100acf7c f   MSVCRT:MSVCR80.dll
 0001:000abf84       __SEH_prolog4              100acf84 f   MSVCRT:sehprolg4.obj
 0001:000abfc9       __SEH_epilog4              100acfc9 f   MSVCRT:sehprolg4.obj
 0001:000abfdd       __except_handler4          100acfdd f   MSVCRT:chandler4gs.obj
 0001:000ac012       ?__ArrayUnwind@@YGXPAXIHP6EX0@Z@Z 100ad012 f   MSVCRT:ehvecdtr.obj
 0001:000ac070       ??_M@YGXPAXIHP6EX0@Z@Z     100ad070 f   MSVCRT:ehvecdtr.obj
 0001:000ac0d3       ___report_gsfailure        100ad0d3 f   MSVCRT:gs_report.obj
 0001:000ac227       __get_sse2_info            100ad227 f   MSVCRT:cpu_disp.obj
 0001:000ac287       ___sse2_available_init     100ad287 f   MSVCRT:cpu_disp.obj
 0001:000ac294       ___clean_type_info_names   100ad294 f   MSVCRT:tncleanup.obj
 0001:000ac2a0       __RTC_Initialize           100ad2a0 f   MSVCRT:initsect.obj
 0001:000ac2c4       __RTC_Terminate            100ad2c4 f   MSVCRT:initsect.obj
 0001:000ac2e8       __malloc_crt               100ad2e8 f   MSVCRT:MSVCR80.dll
 0001:000ac2ee       __encoded_null             100ad2ee f   MSVCRT:MSVCR80.dll
 0001:000ac300       __ValidateImageBase        100ad300 f   MSVCRT:pesect.obj
 0001:000ac330       __FindPESection            100ad330 f   MSVCRT:pesect.obj
 0001:000ac380       __IsNonwritableInCurrentImage 100ad380 f   MSVCRT:pesect.obj
 0001:000ac43c       __initterm                 100ad43c f   MSVCRT:MSVCR80.dll
 0001:000ac442       __initterm_e               100ad442 f   MSVCRT:MSVCR80.dll
 0001:000ac448       __amsg_exit                100ad448 f   MSVCRT:MSVCR80.dll
 0001:000ac44e       ___CppXcptFilter           100ad44e f   MSVCRT:MSVCR80.dll
 0001:000ac454       _DllMain@12                100ad454 f   MSVCRT:dllmain.obj
 0001:000ac474       ___security_init_cookie    100ad474 f   MSVCRT:gs_support.obj
 0001:000ac508       __except_handler4_common   100ad508 f   MSVCRT:MSVCR80.dll
 0001:000ac50e       ?terminate@@YAXXZ          100ad50e f   MSVCRT:MSVCR80.dll
 0001:000ac514       ??1type_info@@UAE@XZ       100ad514 f   MSVCRT:MSVCR80.dll
 0001:000ac514       ?_type_info_dtor_internal_method@type_info@@QAEXXZ 100ad514 f   MSVCRT:MSVCR80.dll
 0001:000ac51a       __crt_debugger_hook        100ad51a f   MSVCRT:MSVCR80.dll
 0001:000ac520       ___clean_type_info_names_internal 100ad520 f   MSVCRT:MSVCR80.dll
 0001:000ac526       _InterlockedExchange@8     100ad526 f   kernel32:KERNEL32.dll
 0001:000ac52c       _Sleep@4                   100ad52c f   kernel32:KERNEL32.dll
 0001:000ac532       _InterlockedCompareExchange@12 100ad532 f   kernel32:KERNEL32.dll
 0001:000ac538       _TerminateProcess@8        100ad538 f   kernel32:KERNEL32.dll
 0001:000ac53e       _GetCurrentProcess@0       100ad53e f   kernel32:KERNEL32.dll
 0001:000ac544       _UnhandledExceptionFilter@4 100ad544 f   kernel32:KERNEL32.dll
 0001:000ac54a       _SetUnhandledExceptionFilter@4 100ad54a f   kernel32:KERNEL32.dll
 0001:000ac550       _IsDebuggerPresent@0       100ad550 f   kernel32:KERNEL32.dll
 0001:000ac556       _DisableThreadLibraryCalls@4 100ad556 f   kernel32:KERNEL32.dll
 0001:000ac55c       _QueryPerformanceCounter@4 100ad55c f   kernel32:KERNEL32.dll
 0001:000ac562       _GetCurrentThreadId@0      100ad562 f   kernel32:KERNEL32.dll
 0001:000ac568       _GetCurrentProcessId@0     100ad568 f   kernel32:KERNEL32.dll
 0001:000ac56e       _GetSystemTimeAsFileTime@4 100ad56e f   kernel32:KERNEL32.dll
 0002:00000000       __imp__RegCloseKey@4       100ae000     advapi32:ADVAPI32.dll
 0002:00000004       __imp__RegOpenKeyA@12      100ae004     advapi32:ADVAPI32.dll
 0002:00000008       __imp__RegQueryValueExA@24 100ae008     advapi32:ADVAPI32.dll
 0002:0000000c       \177ADVAPI32_NULL_THUNK_DATA 100ae00c     advapi32:ADVAPI32.dll
 0002:00000010       __imp__DirectDrawCreateEx@16 100ae010     ddraw:DDRAW.dll
 0002:00000014       \177DDRAW_NULL_THUNK_DATA  100ae014     ddraw:DDRAW.dll
 0002:00000018       __imp_?release_image@@YAXPAUKSGImageContent@@@Z 100ae018     engine:Engine.dll
 0002:0000001c       __imp_?get_jpg_image@@YAPAUKSGImageContent@@QBDI@Z 100ae01c     engine:Engine.dll
 0002:00000020       __imp__TGetSecondVisibleCharacterThisLine 100ae020     engine:Engine.dll
 0002:00000024       __imp_?Close@KPakFile@@QAEXXZ 100ae024     engine:Engine.dll
 0002:00000028       __imp_?g_DebugLog@@YAXPADZZ 100ae028     engine:Engine.dll
 0002:0000002c       __imp__TIsCharacterNotAlowAtLineHead 100ae02c     engine:Engine.dll
 0002:00000030       __imp_?g_GetMainHWnd@@YAPAUHWND__@@XZ 100ae030     engine:Engine.dll
 0002:00000034       __imp_?SprReleaseHeader@@YAXPAUSPRHEAD@@@Z 100ae034     engine:Engine.dll
 0002:00000038       __imp_?SprGetHeader@@YAPAUSPRHEAD@@PBDAAPAUSPROFFS@@@Z 100ae038     engine:Engine.dll
 0002:0000003c       __imp_?SaveBuffer32@KBmpFile24@@SAHPADPAXHHH@Z 100ae03c     engine:Engine.dll
 0002:00000040       __imp_??0KPakFile@@QAE@XZ  100ae040     engine:Engine.dll
 0002:00000044       __imp_?Open@KPakFile@@QAEHPBD@Z 100ae044     engine:Engine.dll
 0002:00000048       __imp_?SprReleaseFrame@@YAXPAUSPRFRAME@@@Z 100ae048     engine:Engine.dll
 0002:0000004c       __imp_?SprGetFrame@@YAPAUSPRFRAME@@PAUSPRHEAD@@H@Z 100ae04c     engine:Engine.dll
 0002:00000050       __imp_?g_FileName2Id@@YAKPAD@Z 100ae050     engine:Engine.dll
 0002:00000054       __imp_??1KPakFile@@QAE@XZ  100ae054     engine:Engine.dll
 0002:00000058       __imp_?Read@KPakFile@@QAEKPAXI@Z 100ae058     engine:Engine.dll
 0002:0000005c       \177Engine_NULL_THUNK_DATA 100ae05c     engine:Engine.dll
 0002:00000060       __imp__DeleteObject@4      100ae060     gdi32:GDI32.dll
 0002:00000064       \177GDI32_NULL_THUNK_DATA  100ae064     gdi32:GDI32.dll
 0002:00000068       __imp__IsProcessorFeaturePresent@4 100ae068     kernel32:KERNEL32.dll
 0002:0000006c       __imp__OutputDebugStringA@4 100ae06c     kernel32:KERNEL32.dll
 0002:00000070       __imp__GetProfileIntA@12   100ae070     kernel32:KERNEL32.dll
 0002:00000074       __imp__DebugBreak@0        100ae074     kernel32:KERNEL32.dll
 0002:00000078       __imp__FatalAppExitA@8     100ae078     kernel32:KERNEL32.dll
 0002:0000007c       __imp__GetProcAddress@8    100ae07c     kernel32:KERNEL32.dll
 0002:00000080       __imp__LoadLibraryA@4      100ae080     kernel32:KERNEL32.dll
 0002:00000084       __imp__GetModuleHandleA@4  100ae084     kernel32:KERNEL32.dll
 0002:00000088       __imp__WriteFile@20        100ae088     kernel32:KERNEL32.dll
 0002:0000008c       __imp__LocalFree@4         100ae08c     kernel32:KERNEL32.dll
 0002:00000090       __imp__FormatMessageA@28   100ae090     kernel32:KERNEL32.dll
 0002:00000094       __imp__GetLastError@0      100ae094     kernel32:KERNEL32.dll
 0002:00000098       __imp__MapViewOfFile@20    100ae098     kernel32:KERNEL32.dll
 0002:0000009c       __imp__LeaveCriticalSection@4 100ae09c     kernel32:KERNEL32.dll
 0002:000000a0       __imp__CreateFileMappingA@24 100ae0a0     kernel32:KERNEL32.dll
 0002:000000a4       __imp__CreateFileA@28      100ae0a4     kernel32:KERNEL32.dll
 0002:000000a8       __imp__CreateFileW@28      100ae0a8     kernel32:KERNEL32.dll
 0002:000000ac       __imp__WideCharToMultiByte@32 100ae0ac     kernel32:KERNEL32.dll
 0002:000000b0       __imp__GetVersionExA@4     100ae0b0     kernel32:KERNEL32.dll
 0002:000000b4       __imp__GetSystemInfo@4     100ae0b4     kernel32:KERNEL32.dll
 0002:000000b8       __imp__UnmapViewOfFile@4   100ae0b8     kernel32:KERNEL32.dll
 0002:000000bc       __imp__LockResource@4      100ae0bc     kernel32:KERNEL32.dll
 0002:000000c0       __imp__LoadResource@8      100ae0c0     kernel32:KERNEL32.dll
 0002:000000c4       __imp__SizeofResource@8    100ae0c4     kernel32:KERNEL32.dll
 0002:000000c8       __imp__FindResourceA@12    100ae0c8     kernel32:KERNEL32.dll
 0002:000000cc       __imp__FindResourceW@12    100ae0cc     kernel32:KERNEL32.dll
 0002:000000d0       __imp__GetFullPathNameA@16 100ae0d0     kernel32:KERNEL32.dll
 0002:000000d4       __imp__lstrcmpiA@8         100ae0d4     kernel32:KERNEL32.dll
 0002:000000d8       __imp__HeapAlloc@12        100ae0d8     kernel32:KERNEL32.dll
 0002:000000dc       __imp__GetProcessHeap@0    100ae0dc     kernel32:KERNEL32.dll
 0002:000000e0       __imp__HeapFree@12         100ae0e0     kernel32:KERNEL32.dll
 0002:000000e4       __imp__EnterCriticalSection@4 100ae0e4     kernel32:KERNEL32.dll
 0002:000000e8       __imp__DeleteCriticalSection@4 100ae0e8     kernel32:KERNEL32.dll
 0002:000000ec       __imp__InitializeCriticalSection@4 100ae0ec     kernel32:KERNEL32.dll
 0002:000000f0       __imp__MultiByteToWideChar@24 100ae0f0     kernel32:KERNEL32.dll
 0002:000000f4       __imp__GlobalMemoryStatus@4 100ae0f4     kernel32:KERNEL32.dll
 0002:000000f8       __imp__InterlockedExchange@8 100ae0f8     kernel32:KERNEL32.dll
 0002:000000fc       __imp__Sleep@4             100ae0fc     kernel32:KERNEL32.dll
 0002:00000100       __imp__CloseHandle@4       100ae100     kernel32:KERNEL32.dll
 0002:00000104       __imp__GetTickCount@0      100ae104     kernel32:KERNEL32.dll
 0002:00000108       __imp__InterlockedCompareExchange@12 100ae108     kernel32:KERNEL32.dll
 0002:0000010c       __imp__TerminateProcess@8  100ae10c     kernel32:KERNEL32.dll
 0002:00000110       __imp__GetCurrentProcess@0 100ae110     kernel32:KERNEL32.dll
 0002:00000114       __imp__UnhandledExceptionFilter@4 100ae114     kernel32:KERNEL32.dll
 0002:00000118       __imp__SetUnhandledExceptionFilter@4 100ae118     kernel32:KERNEL32.dll
 0002:0000011c       __imp__IsDebuggerPresent@0 100ae11c     kernel32:KERNEL32.dll
 0002:00000120       __imp__DisableThreadLibraryCalls@4 100ae120     kernel32:KERNEL32.dll
 0002:00000124       __imp__QueryPerformanceCounter@4 100ae124     kernel32:KERNEL32.dll
 0002:00000128       __imp__GetCurrentThreadId@0 100ae128     kernel32:KERNEL32.dll
 0002:0000012c       __imp__GetCurrentProcessId@0 100ae12c     kernel32:KERNEL32.dll
 0002:00000130       __imp__GetFileSize@8       100ae130     kernel32:KERNEL32.dll
 0002:00000134       __imp__GetSystemTimeAsFileTime@4 100ae134     kernel32:KERNEL32.dll
 0002:00000138       \177KERNEL32_NULL_THUNK_DATA 100ae138     kernel32:KERNEL32.dll
 0002:0000013c       __imp_??0?$basic_string@DU?$char_traits@D@std@@V?$allocator@D@2@@std@@QAE@PBD@Z 100ae13c     msvcprt:MSVCP80.dll
 0002:00000140       __imp_??1?$basic_string@DU?$char_traits@D@std@@V?$allocator@D@2@@std@@QAE@XZ 100ae140     msvcprt:MSVCP80.dll
 0002:00000144       __imp_??0?$basic_string@DU?$char_traits@D@std@@V?$allocator@D@2@@std@@QAE@ABV01@@Z 100ae144     msvcprt:MSVCP80.dll
 0002:00000148       \177MSVCP80_NULL_THUNK_DATA 100ae148     msvcprt:MSVCP80.dll
 0002:0000014c       __imp__isxdigit            100ae14c     MSVCRT:MSVCR80.dll
 0002:00000150       __imp_?_type_info_dtor_internal_method@type_info@@QAEXXZ 100ae150     MSVCRT:MSVCR80.dll
 0002:00000154       __imp_?terminate@@YAXXZ    100ae154     MSVCRT:MSVCR80.dll
 0002:00000158       __imp___except_handler4_common 100ae158     MSVCRT:MSVCR80.dll
 0002:0000015c       __imp____CppXcptFilter     100ae15c     MSVCRT:MSVCR80.dll
 0002:00000160       __imp___adjust_fdiv        100ae160     MSVCRT:MSVCR80.dll
 0002:00000164       __imp___amsg_exit          100ae164     MSVCRT:MSVCR80.dll
 0002:00000168       __imp___initterm_e         100ae168     MSVCRT:MSVCR80.dll
 0002:0000016c       __imp___initterm           100ae16c     MSVCRT:MSVCR80.dll
 0002:00000170       __imp___encoded_null       100ae170     MSVCRT:MSVCR80.dll
 0002:00000174       __imp____clean_type_info_names_internal 100ae174     MSVCRT:MSVCR80.dll
 0002:00000178       __imp__memset              100ae178     MSVCRT:MSVCR80.dll
 0002:0000017c       __imp_??0exception@std@@QAE@ABQBD@Z 100ae17c     MSVCRT:MSVCR80.dll
 0002:00000180       __imp_?what@exception@std@@UBEPBDXZ 100ae180     MSVCRT:MSVCR80.dll
 0002:00000184       __imp_??1exception@std@@UAE@XZ 100ae184     MSVCRT:MSVCR80.dll
 0002:00000188       __imp_??3@YAXPAX@Z         100ae188     MSVCRT:MSVCR80.dll
 0002:0000018c       __imp_??0exception@std@@QAE@XZ 100ae18c     MSVCRT:MSVCR80.dll
 0002:00000190       __imp____CxxFrameHandler3  100ae190     MSVCRT:MSVCR80.dll
 0002:00000194       __imp___invalid_parameter_noinfo 100ae194     MSVCRT:MSVCR80.dll
 0002:00000198       __imp___CxxThrowException@8 100ae198     MSVCRT:MSVCR80.dll
 0002:0000019c       __imp_??0exception@std@@QAE@ABV01@@Z 100ae19c     MSVCRT:MSVCR80.dll
 0002:000001a0       __imp_??2@YAPAXI@Z         100ae1a0     MSVCRT:MSVCR80.dll
 0002:000001a4       __imp__memmove_s           100ae1a4     MSVCRT:MSVCR80.dll
 0002:000001a8       __imp___purecall           100ae1a8     MSVCRT:MSVCR80.dll
 0002:000001ac       __imp__free                100ae1ac     MSVCRT:MSVCR80.dll
 0002:000001b0       __imp__malloc              100ae1b0     MSVCRT:MSVCR80.dll
 0002:000001b4       __imp___CIsqrt             100ae1b4     MSVCRT:MSVCR80.dll
 0002:000001b8       __imp__atoi                100ae1b8     MSVCRT:MSVCR80.dll
 0002:000001bc       __imp__memcpy              100ae1bc     MSVCRT:MSVCR80.dll
 0002:000001c0       __imp__sprintf             100ae1c0     MSVCRT:MSVCR80.dll
 0002:000001c4       __imp___CIacos             100ae1c4     MSVCRT:MSVCR80.dll
 0002:000001c8       __imp___finite             100ae1c8     MSVCRT:MSVCR80.dll
 0002:000001cc       __imp___ftol               100ae1cc     MSVCRT:MSVCR80.dll
 0002:000001d0       __imp___controlfp          100ae1d0     MSVCRT:MSVCR80.dll
 0002:000001d4       __imp____CxxFrameHandler   100ae1d4     MSVCRT:MSVCR80.dll
 0002:000001d8       __imp___snprintf           100ae1d8     MSVCRT:MSVCR80.dll
 0002:000001dc       __imp___vsnprintf          100ae1dc     MSVCRT:MSVCR80.dll
 0002:000001e0       __imp__longjmp             100ae1e0     MSVCRT:MSVCR80.dll
 0002:000001e4       __imp___setjmp3            100ae1e4     MSVCRT:MSVCR80.dll
 0002:000001e8       __imp__isdigit             100ae1e8     MSVCRT:MSVCR80.dll
 0002:000001ec       __imp__isspace             100ae1ec     MSVCRT:MSVCR80.dll
 0002:000001f0       __imp___CIpow              100ae1f0     MSVCRT:MSVCR80.dll
 0002:000001f4       __imp__floor               100ae1f4     MSVCRT:MSVCR80.dll
 0002:000001f8       __imp___CIasin             100ae1f8     MSVCRT:MSVCR80.dll
 0002:000001fc       __imp___except_handler3    100ae1fc     MSVCRT:MSVCR80.dll
 0002:00000200       __imp__exit                100ae200     MSVCRT:MSVCR80.dll
 0002:00000204       __imp___strdup             100ae204     MSVCRT:MSVCR80.dll
 0002:00000208       __imp__setlocale           100ae208     MSVCRT:MSVCR80.dll
 0002:0000020c       __imp__atof                100ae20c     MSVCRT:MSVCR80.dll
 0002:00000210       __imp__tolower             100ae210     MSVCRT:MSVCR80.dll
 0002:00000214       __imp__isalnum             100ae214     MSVCRT:MSVCR80.dll
 0002:00000218       __imp__isalpha             100ae218     MSVCRT:MSVCR80.dll
 0002:0000021c       __imp___malloc_crt         100ae21c     MSVCRT:MSVCR80.dll
 0002:00000220       __imp__strncmp             100ae220     MSVCRT:MSVCR80.dll
 0002:00000224       __imp__toupper             100ae224     MSVCRT:MSVCR80.dll
 0002:00000228       __imp__memmove             100ae228     MSVCRT:MSVCR80.dll
 0002:0000022c       __imp__qsort               100ae22c     MSVCRT:MSVCR80.dll
 0002:00000230       __imp__fread               100ae230     MSVCRT:MSVCR80.dll
 0002:00000234       __imp__fseek               100ae234     MSVCRT:MSVCR80.dll
 0002:00000238       __imp__fwrite              100ae238     MSVCRT:MSVCR80.dll
 0002:0000023c       __imp__fclose              100ae23c     MSVCRT:MSVCR80.dll
 0002:00000240       __imp__strncpy             100ae240     MSVCRT:MSVCR80.dll
 0002:00000244       __imp__tmpfile             100ae244     MSVCRT:MSVCR80.dll
 0002:00000248       __imp__printf              100ae248     MSVCRT:MSVCR80.dll
 0002:0000024c       __imp___fpclass            100ae24c     MSVCRT:MSVCR80.dll
 0002:00000250       __imp___isnan              100ae250     MSVCRT:MSVCR80.dll
 0002:00000254       __imp__ceil                100ae254     MSVCRT:MSVCR80.dll
 0002:00000258       __imp___CItanh             100ae258     MSVCRT:MSVCR80.dll
 0002:0000025c       __imp___CIsinh             100ae25c     MSVCRT:MSVCR80.dll
 0002:00000260       __imp___CIfmod             100ae260     MSVCRT:MSVCR80.dll
 0002:00000264       __imp___CIexp              100ae264     MSVCRT:MSVCR80.dll
 0002:00000268       __imp___CIcosh             100ae268     MSVCRT:MSVCR80.dll
 0002:0000026c       __imp___stricmp            100ae26c     MSVCRT:MSVCR80.dll
 0002:00000270       __imp___unlock             100ae270     MSVCRT:MSVCR80.dll
 0002:00000274       __imp____dllonexit         100ae274     MSVCRT:MSVCR80.dll
 0002:00000278       __imp___encode_pointer     100ae278     MSVCRT:MSVCR80.dll
 0002:0000027c       __imp___lock               100ae27c     MSVCRT:MSVCR80.dll
 0002:00000280       __imp___onexit             100ae280     MSVCRT:MSVCR80.dll
 0002:00000284       __imp___decode_pointer     100ae284     MSVCRT:MSVCR80.dll
 0002:00000288       __imp___crt_debugger_hook  100ae288     MSVCRT:MSVCR80.dll
 0002:0000028c       \177MSVCR80_NULL_THUNK_DATA 100ae28c     MSVCRT:MSVCR80.dll
 0002:00000290       __imp__MessageBoxA@16      100ae290     user32:USER32.dll
 0002:00000294       __imp__DefWindowProcA@16   100ae294     user32:USER32.dll
 0002:00000298       __imp__ClientToScreen@8    100ae298     user32:USER32.dll
 0002:0000029c       __imp__GetClientRect@8     100ae29c     user32:USER32.dll
 0002:000002a0       __imp__SetWindowLongA@12   100ae2a0     user32:USER32.dll
 0002:000002a4       __imp__GetWindowLongA@8    100ae2a4     user32:USER32.dll
 0002:000002a8       \177USER32_NULL_THUNK_DATA 100ae2a8     user32:USER32.dll
 0002:000002ac       __imp__timeGetTime@0       100ae2ac     winmm:WINMM.dll
 0002:000002b0       \177WINMM_NULL_THUNK_DATA  100ae2b0     winmm:WINMM.dll
 0002:000002b4       __imp__Direct3DCreate9@4   100ae2b4     d3d9:d3d9.dll
 0002:000002b8       \177d3d9_NULL_THUNK_DATA   100ae2b8     d3d9:d3d9.dll
 0002:000002bc       __imp__GdiplusShutdown@4   100ae2bc     GdiPlus:gdiplus.dll
 0002:000002c0       __imp__GdiplusStartup@12   100ae2c0     GdiPlus:gdiplus.dll
 0002:000002c4       __imp__GdipGetImageEncoders@12 100ae2c4     GdiPlus:gdiplus.dll
 0002:000002c8       __imp__GdipGetImageEncodersSize@8 100ae2c8     GdiPlus:gdiplus.dll
 0002:000002cc       __imp__GdipSaveImageToFile@16 100ae2cc     GdiPlus:gdiplus.dll
 0002:000002d0       __imp__GdipDisposeImage@4  100ae2d0     GdiPlus:gdiplus.dll
 0002:000002d4       __imp__GdipLoadImageFromStreamICM@8 100ae2d4     GdiPlus:gdiplus.dll
 0002:000002d8       __imp__GdipLoadImageFromStream@8 100ae2d8     GdiPlus:gdiplus.dll
 0002:000002dc       __imp__GdipAlloc@4         100ae2dc     GdiPlus:gdiplus.dll
 0002:000002e0       __imp__GdipFree@4          100ae2e0     GdiPlus:gdiplus.dll
 0002:000002e4       __imp__GdipCloneImage@8    100ae2e4     GdiPlus:gdiplus.dll
 0002:000002e8       \177gdiplus_NULL_THUNK_DATA 100ae2e8     GdiPlus:gdiplus.dll
 0002:000002ec       __imp__CreateStreamOnHGlobal@12 100ae2ec     ole32:ole32.dll
 0002:000002f0       \177ole32_NULL_THUNK_DATA  100ae2f0     ole32:ole32.dll
 0002:000002f4       ___xc_a                    100ae2f4     MSVCRT:cinitexe.obj
 0002:00000300       ___xc_z                    100ae300     MSVCRT:cinitexe.obj
 0002:00000304       ___xi_a                    100ae304     MSVCRT:cinitexe.obj
 0002:00000310       ___xi_z                    100ae310     MSVCRT:cinitexe.obj
 0002:0000033c       ??_C@_0P@GHFPNOJB@bad?5allocation?$AA@ 100ae33c     D3D_Device.obj
 0002:0000034c       ??_C@_0DH@NFAFCHOG@?$FLD3DRender?$FNIDirect3DDevice?3?3SetC@ 100ae34c     D3D_Device.obj
 0002:00000384       ??_C@_0CP@DHBOKMOA@?$FLD3DRender?$FNWidth?3?5?$CFd?0?5Height?3?5?$CFd@ 100ae384     D3D_Device.obj
 0002:000003b8       ??_C@_0EK@IDAILDMG@?$FLD3DRender?$FNVendorID?3?50x?$CFx?0?5Devic@ 100ae3b8     D3D_Device.obj
 0002:00000404       ??_C@_0BH@KMCDEDIJ@?$FLD3DRender?$FNVersion?3?5?$CFx?$AA@ 100ae404     D3D_Device.obj
 0002:0000041c       ??_C@_0BL@DNCFHPE@?$FLD3DRender?$FNDescription?3?5?$CFs?$AA@ 100ae41c     D3D_Device.obj
 0002:00000438       ??_C@_0BG@PEAMJIIO@?$FLD3DRender?$FNDriver?3?5?$CFs?$AA@ 100ae438     D3D_Device.obj
 0002:00000450       ??_C@_0EL@PGFHCPLI@?$FLD3DRender?$FN?9?9?9?9?9?9?9?9?9?9?9?9?9?9?9?9?9?9?9?9?9@ 100ae450     D3D_Device.obj
 0002:0000049c       ??_C@_0CK@NDMAFCGI@?$FLD3DRender?$FNWarning?3?5Device?5creat@ 100ae49c     D3D_Device.obj
 0002:000004c8       ??_C@_0EO@OKKLLJPD@?$FLD3DRender?$FNWarning?3?5Couldnt?8?5fin@ 100ae4c8     D3D_Device.obj
 0002:0000051c       ??_7bad_alloc@std@@6B@     100ae51c     D3D_Shell.obj
 0002:00000528       ??_7logic_error@std@@6B@   100ae528     D3D_Shell.obj
 0002:00000534       ??_7length_error@std@@6B@  100ae534     D3D_Shell.obj
 0002:0000053c       ??_C@_0BD@OLBABOEK@vector?$DMT?$DO?5too?5long?$AA@ 100ae53c     D3D_Shell.obj
 0002:00000550       ??_C@_0BG@EOMJEIFA@vector?$DMbool?$DO?5too?5long?$AA@ 100ae550     D3D_Shell.obj
 0002:00000568       ??_C@_0L@BKGKIDDD@Device?3?5?$CFs?$AA@ 100ae568     D3D_Shell.obj
 0002:00000574       ??_C@_03GPMNEAGC@REF?$AA@  100ae574     D3D_Shell.obj
 0002:00000578       ??_C@_03KNIPLHMP@HAL?$AA@  100ae578     D3D_Shell.obj
 0002:0000057c       __real@00000000            100ae57c     KCharSet.obj
 0002:00000584       ??_7KCharSet@@6B@          100ae584     KCharSet.obj
 0002:0000058c       ??_7iFont@@6B@             100ae58c     KFont3.obj
 0002:000005b0       __real@3f800000            100ae5b0     KFont3.obj
 0002:000005b4       __real@3f666666            100ae5b4     KFont3.obj
 0002:000005b8       __real@3fe0000000000000    100ae5b8     KFont3.obj
 0002:000005c0       __real@41600000            100ae5c0     KFont3.obj
 0002:000005c8       ??_7KFont3@@6B@            100ae5c8     KFont3.obj
 0002:000005f0       ??_7KFontRes@@6B@          100ae5f0     KFontRes.obj
 0002:000005f4       __real@4f800000            100ae5f4     KFontRes.obj
 0002:000005fc       ??_7KMRU@@6B@              100ae5fc     KMRU.obj
 0002:00000600       __real@3ff0000000000000    100ae600     KRepresentShell3.obj
 0002:0000060c       ??_7iRepresentShell@@6B@   100ae60c     KRepresentShell3.obj
 0002:00000694       ??_7KRepresentShell3@@6B@  100ae694     KRepresentShell3.obj
 0002:00000718       __real@3e060a92            100ae718     KRepresentShell3.obj
 0002:0000071c       __real@44480000            100ae71c     KRepresentShell3.obj
 0002:00000720       __real@44160000            100ae720     KRepresentShell3.obj
 0002:00000724       __real@469c4000            100ae724     KRepresentShell3.obj
 0002:00000728       __real@3ff5eb851eb851ec    100ae728     KRepresentShell3.obj
 0002:00000730       __real@0000000000000000    100ae730     KRepresentShell3.obj
 0002:00000738       __real@3ff1eb8520000000    100ae738     KRepresentShell3.obj
 0002:00000740       __real@3ff0ccccc0000000    100ae740     KRepresentShell3.obj
 0002:00000748       __real@406ae147c0000000    100ae748     KRepresentShell3.obj
 0002:00000750       __real@4065000000000000    100ae750     KRepresentShell3.obj
 0002:00000758       __real@40a2200000000000    100ae758     KRepresentShell3.obj
 0002:00000760       __real@40af400000000000    100ae760     KRepresentShell3.obj
 0002:00000768       __real@4000000000000000    100ae768     KRepresentShell3.obj
 0002:00000770       __real@42c80000            100ae770     KRepresentShell3.obj
 0002:00000778       __real@4040000000000000    100ae778     KRepresentShell3.obj
 0002:00000780       __real@3fa0000000000000    100ae780     KRepresentShell3.obj
 0002:00000788       ??_C@_0CB@LGOGBCOB@?$FLD3DRender?$FNInitDeviceObjects?5ok?$CB@ 100ae788     KRepresentShell3.obj
 0002:000007ac       ??_C@_0CE@HOIFJCBK@?$FLD3DRender?$FNRestoreDeviceObjects?5@ 100ae7ac     KRepresentShell3.obj
 0002:000007d0       ??_C@_0BM@NCCOKIBL@?$FLD3DRender?$FNDevice?5reset?5ok?$CB?$AA@ 100ae7d0     KRepresentShell3.obj
 0002:000007ec       ??_C@_0CH@EFJLHKED@?$FLD3DRender?$FNCouldn?8t?5create?5D3D?5D@ 100ae7ec     KRepresentShell3.obj
 0002:00000814       ??_C@_0DD@PGJEDFHO@?$FLD3DRender?$FNCan?8t?5find?5an?5appropr@ 100ae814     KRepresentShell3.obj
 0002:00000848       ??_C@_0CO@HJNOFKED@?$FLD3DRender?$FNCan?8t?5find?5any?5d3d?5de@ 100ae848     KRepresentShell3.obj
 0002:00000878       ??_C@_0CB@OJKKLBND@?$FLD3DRender?$FNg_D3DShell?5create?5ok?$CB@ 100ae878     KRepresentShell3.obj
 0002:000008a0       __real@3f60000000000000    100ae8a0     KRepresentShell3.obj
 0002:000008a8       __real@3f70000000000000    100ae8a8     KRepresentShell3.obj
 0002:000008b0       __real@3f80000000000000    100ae8b0     KRepresentShell3.obj
 0002:000008b8       __real@4070400000000000    100ae8b8     KRepresentShell3.obj
 0002:000008c4       ??_7Image@Gdiplus@@6B@     100ae8c4     RepresentUtility.obj
 0002:000008cc       ??_C@_1BG@BIJOLBJP@?$AAi?$AAm?$AAa?$AAg?$AAe?$AA?1?$AAj?$AAp?$AAe?$AAg?$AA?$AA@ 100ae8cc     RepresentUtility.obj
 0002:000008e8       __real@3fefff2e48e8a71e    100ae8e8     TextProcess.obj
 0002:000008f0       __real@bff8000000000000    100ae8f0     TextProcess.obj
 0002:000008fc       ??_7TextureRes@@6B@        100ae8fc     TextureRes.obj
 0002:00000920       ??_7TextureResBmp@@6B@     100ae920     TextureRes.obj
 0002:00000944       ??_7TextureResSpr@@6B@     100ae944     TextureRes.obj
 0002:00000964       ??_C@_0DK@KDLEFAAP@CacheMemUsed?3?5?$CFdM?6?5MemDrawingUse@ 100ae964     TextureResMgr.obj
 0002:000029c0       __real@34000000            100b09c0     d3dx9dt:d3dxmath.obj
 0002:000029c4       __real@b4000000            100b09c4     d3dx9dt:d3dxmath.obj
 0002:000029c8       __real@40400000            100b09c8     d3dx9dt:d3dxmath.obj
 0002:000029cc       __real@3f000000            100b09cc     d3dx9dt:d3dxmath.obj
 0002:000029d0       __real@40800000            100b09d0     d3dx9dt:d3dxmath.obj
 0002:000029d4       __real@40a00000            100b09d4     d3dx9dt:d3dxmath.obj
 0002:000029d8       __real@40000000            100b09d8     d3dx9dt:d3dxmath.obj
 0002:000029dc       __real@3e800000            100b09dc     d3dx9dt:d3dxmath.obj
 0002:000029e0       __real@00800000            100b09e0     d3dx9dt:d3dxmath.obj
 0002:000029e4       __real@20000000            100b09e4     d3dx9dt:d3dxmath.obj
 0002:000029e8       __real@3e59999a            100b09e8     d3dx9dt:d3dxmath.obj
 0002:000029ec       __real@3f372474            100b09ec     d3dx9dt:d3dxmath.obj
 0002:000029f0       __real@3d93a92a            100b09f0     d3dx9dt:d3dxmath.obj
 0002:000029f4       __real@3fc00000            100b09f4     d3dx9dt:d3dxmath.obj
 0002:000029f8       __real@461c4000            100b09f8     d3dx9dt:d3dxmath.obj
 0002:000029fc       __real@bf000000            100b09fc     d3dx9dt:d3dxmath.obj
 0002:00002a00       __real@c0000000            100b0a00     d3dx9dt:d3dxmath.obj
 0002:00002a04       __real@be800000            100b0a04     d3dx9dt:d3dxmath.obj
 0002:0000329c       ??_C@_0BM@DHBPAGHJ@pSrcRect?5pointer?5is?5invalid?$AA@ 100b129c     d3dx9dt:d3dx9tex.obj
 0002:000032b8       ??_C@_0BO@NACGEJHH@pSrcMemory?5pointer?5is?5invalid?$AA@ 100b12b8     d3dx9dt:d3dx9tex.obj
 0002:000032d8       ??_C@_0CA@GAFGIFHP@pDestSurface?5pointer?5is?5invalid?$AA@ 100b12d8     d3dx9dt:d3dx9tex.obj
 0002:000032f8       ??_C@_0BP@PEJBLDFJ@pSrcSurface?5pointer?5is?5invalid?$AA@ 100b12f8     d3dx9dt:d3dx9tex.obj
 0002:00003318       ??_C@_0BN@IACHMKKH@pDestFile?5pointer?5is?5invalid?$AA@ 100b1318     d3dx9dt:d3dx9tex.obj
 0002:00003338       ??_C@_0BL@NBIOAEKH@pSrcBox?5pointer?5is?5invalid?$AA@ 100b1338     d3dx9dt:d3dx9tex.obj
 0002:00003354       ??_C@_0BP@KGJAPLKM@pDestVolume?5pointer?5is?5invalid?$AA@ 100b1354     d3dx9dt:d3dx9tex.obj
 0002:00003374       ??_C@_0BO@FJNFJCF@pSrcVolume?5pointer?5is?5invalid?$AA@ 100b1374     d3dx9dt:d3dx9tex.obj
 0002:00003394       ??_C@_0CL@EGAFKBGI@Device?5does?5not?5support?5this?5Usa@ 100b1394     d3dx9dt:d3dx9tex.obj
 0002:000033c0       ??_C@_0BK@IPDFBDJG@Pool?5parameter?5is?5invalid?$AA@ 100b13c0     d3dx9dt:d3dx9tex.obj
 0002:000033dc       ??_C@_0BL@LKCMLIEH@Usage?5parameter?5is?5invalid?$AA@ 100b13dc     d3dx9dt:d3dx9tex.obj
 0002:000033f8       ??_C@_0BL@NAHOCEEG@pDevice?5pointer?5is?5invalid?$AA@ 100b13f8     d3dx9dt:d3dx9tex.obj
 0002:00003414       ??_C@_0BF@OFMJCPNJ@CreateTexture?5failed?$AA@ 100b1414     d3dx9dt:d3dx9tex.obj
 0002:0000342c       ??_C@_0BN@FOGPOKOI@ppTexture?5pointer?5is?5invalid?$AA@ 100b142c     d3dx9dt:d3dx9tex.obj
 0002:0000344c       ??_C@_0BJ@OOBOJBBH@CreateCubeTexture?5failed?$AA@ 100b144c     d3dx9dt:d3dx9tex.obj
 0002:00003468       ??_C@_0CB@BJPHCGCD@ppCubeTexture?5pointer?5is?5invalid@ 100b1468     d3dx9dt:d3dx9tex.obj
 0002:0000348c       ??_C@_0BL@EFCLNABL@CreateVolumeTexture?5failed?$AA@ 100b148c     d3dx9dt:d3dx9tex.obj
 0002:000034a8       ??_C@_0CD@DKEJPLKG@ppVolumeTexture?5pointer?5is?5inval@ 100b14a8     d3dx9dt:d3dx9tex.obj
 0002:000034cc       ??_C@_0BN@EGJPGNBO@pFunction?5pointer?5is?5invalid?$AA@ 100b14cc     d3dx9dt:d3dx9tex.obj
 0002:000034ec       ??_C@_0BM@PDNCPHLO@pTexture?5pointer?5is?5invalid?$AA@ 100b14ec     d3dx9dt:d3dx9tex.obj
 0002:00003508       ??_C@_0CA@BKGDEJNO@pCubeTexture?5pointer?5is?5invalid?$AA@ 100b1508     d3dx9dt:d3dx9tex.obj
 0002:00003528       ??_C@_0BO@KLGAOELH@pConstants?5pointer?5is?5invalid?$AA@ 100b1528     d3dx9dt:d3dx9tex.obj
 0002:00003548       ??_C@_0CC@EGFGBLAL@pVolumeTexture?5pointer?5is?5invali@ 100b1548     d3dx9dt:d3dx9tex.obj
 0002:0000356c       ??_C@_0BE@MALOJOLP@Invalid?5color?5flags?$AA@ 100b156c     d3dx9dt:d3dx9tex.obj
 0002:00003580       ??_C@_0CB@MDPOGLND@Destination?5format?5not?5supported@ 100b1580     d3dx9dt:d3dx9tex.obj
 0002:000035a4       ??_C@_0DK@PHEPHJOD@Source?5and?5destination?5textures?5@ 100b15a4     d3dx9dt:d3dx9tex.obj
 0002:000035e0       __real@3e000000            100b15e0     d3dx9dt:d3dx9tex.obj
 0002:000035e4       __real@bf800000            100b15e4     d3dx9dt:d3dx9tex.obj
 0002:000035e8       ??_C@_0DL@NNMAPACM@Source?5and?5Destination?5have?5diff@ 100b15e8     d3dx9dt:d3dx9tex.obj
 0002:00003624       ??_C@_0BM@COACOKCJ@Source?5format?5not?5supported?$AA@ 100b1624     d3dx9dt:d3dx9tex.obj
 0002:00003640       ??_C@_0BL@MPIDLAFB@Unknown?5destination?5format?$AA@ 100b1640     d3dx9dt:d3dx9tex.obj
 0002:0000365c       ??_C@_0BG@MALHBAJE@Unknown?5source?5format?$AA@ 100b165c     d3dx9dt:d3dx9tex.obj
 0002:00003674       ??_C@_0O@IHOLGAKK@Invalid?5flags?$AA@ 100b1674     d3dx9dt:d3dx9tex.obj
 0002:00003684       ??_C@_0BL@DBLCOEIN@pSource?5pointer?5is?5invalid?$AA@ 100b1684     d3dx9dt:d3dx9tex.obj
 0002:000036a0       ??_C@_0DI@HAAAFEAI@Source?5surface?5data?5?$CIpvSrcData?5o@ 100b16a0     d3dx9dt:d3dx9tex.obj
 0002:000036d8       ??_C@_0BE@CNELHOPC@Invalid?5source?5rect?$AA@ 100b16d8     d3dx9dt:d3dx9tex.obj
 0002:000036ec       ??_C@_0DH@CEMGGBAI@Source?5volume?5data?5?$CIpvSrcData?5or@ 100b16ec     d3dx9dt:d3dx9tex.obj
 0002:00003724       ??_C@_0BD@OKEBNDAJ@Invalid?5source?5box?$AA@ 100b1724     d3dx9dt:d3dx9tex.obj
 0002:00003738       ??_C@_0DD@IJKCCHPD@uSrcLevel?5larger?5than?5num?5Mip?5le@ 100b1738     d3dx9dt:d3dx9tex.obj
 0002:0000376c       ??_C@_0CA@HACEEFAM@pBaseTexture?5pointer?5is?5invalid?$AA@ 100b176c     d3dx9dt:d3dx9tex.obj
 0002:0000378c       ??_C@_0CA@EBFMBCOB@Failed?5trying?5to?5create?5texture?$AA@ 100b178c     d3dx9dt:d3dx9tex.obj
 0002:000037ac       ??_C@_0CF@EBCPKGG@File?5does?5not?5contain?5a?5cube?5tex@ 100b17ac     d3dx9dt:d3dx9tex.obj
 0002:000037d4       ??_C@_0BL@CJEHOHNE@Texture?5pointer?5is?5invalid?$AA@ 100b17d4     d3dx9dt:d3dx9tex.obj
 0002:000037f0       ??_C@_0BL@BNHEOBOI@cbSrcData?5value?5is?5invalid?$AA@ 100b17f0     d3dx9dt:d3dx9tex.obj
 0002:0000380c       ??_C@_0BN@FKPNHIFH@pvSrcData?5pointer?5is?5invalid?$AA@ 100b180c     d3dx9dt:d3dx9tex.obj
 0002:0000382c       ??_C@_0BP@CJNKKBCB@pSrcTexture?5pointer?5is?5invalid?$AA@ 100b182c     d3dx9dt:d3dx9tex.obj
 0002:0000384c       __real@40c00000            100b184c     d3dx9dt:psgpmesh.obj
 0002:00003850       __real@3e2aaa7e            100b1850     d3dx9dt:psgpmesh.obj
 0002:00003854       __real@3eaaaaab            100b1854     d3dx9dt:psgpmesh.obj
 0002:00003858       ??_C@_0BM@IHHDGEAJ@Software?2Microsoft?2Direct3D?$AA@ 100b1858     d3dx9dt:cpudetect.obj
 0002:00003874       ??_C@_0L@FLOHHHAO@DisableMMX?$AA@ 100b1874     d3dx9dt:cpudetect.obj
 0002:00003880       ??_C@_0N@BDDFKIGD@GenuineIntel?$AA@ 100b1880     d3dx9dt:cpudetect.obj
 0002:00003890       ??_C@_0BO@OOGBMJCH@?$CIINFO?$CJ?5Using?5x87?5Instructions?$AA@ 100b1890     d3dx9dt:cpudetect.obj
 0002:000038b0       ??_C@_0BO@LIAICCMA@?$CIINFO?$CJ?5Using?5SSE?5Instructions?$AA@ 100b18b0     d3dx9dt:cpudetect.obj
 0002:000038d0       ??_C@_0BP@MJLIDOON@?$CIINFO?$CJ?5Using?5SSE2?5Instructions?$AA@ 100b18d0     d3dx9dt:cpudetect.obj
 0002:000038f0       ??_C@_0CA@KFPCEFBF@?$CIINFO?$CJ?5Using?53DNow?5Instructions?$AA@ 100b18f0     d3dx9dt:cpudetect.obj
 0002:00003910       ??_C@_0BA@MHCFIELB@DisableD3DXPSGP?$AA@ 100b1910     d3dx9dt:cpudetect.obj
 0002:00003920       ??_C@_0M@GCJEAAPG@DisablePSGP?$AA@ 100b1920     d3dx9dt:cpudetect.obj
 0002:0000392c       ??_C@_0L@PNLDIMMI@D3DX?3?5?$CFs?$AN?6?$AA@ 100b192c     d3dx9dt:d3dx9dbg.obj
 0002:00003938       ??_C@_08POBFLGLP@Direct3D?$AA@ 100b1938     d3dx9dt:d3dx9dbg.obj
 0002:00003944       ??_C@_05GFCDIDHO@debug?$AA@ 100b1944     d3dx9dt:d3dx9dbg.obj
 0002:0000394c       ??_C@_0CP@HPLDPJOO@D3DX?5Assertion?5Failure?$DL?5applicat@ 100b194c     d3dx9dt:d3dx9dbg.obj
 0002:0000397c       ??_C@_0BH@BFBGIDJK@D3DX?5Assertion?5Failure?$AA@ 100b197c     d3dx9dt:d3dx9dbg.obj
 0002:00003998       ??_C@_0GG@CILJEBNK@?$CFs?5?$CI?$CFd?$CJ?3?6?6D3DXASSERT?$CI?$CFs?$CJ?$DL?6?6Do?5yo@ 100b1998     d3dx9dt:d3dx9dbg.obj
 0002:00003a00       ??_C@_04HDMBFDGE@D3DX?$AA@ 100b1a00     d3dx9dt:d3dx9dbg.obj
 0002:00003a08       ??_C@_0BC@KNBMEBEO@IsDebuggerPresent?$AA@ 100b1a08     d3dx9dt:d3dx9dbg.obj
 0002:00003a1c       ??_C@_0N@MDJJJHMB@kernel32?4dll?$AA@ 100b1a1c     d3dx9dt:d3dx9dbg.obj
 0002:00003a2c       ??_C@_0BP@CKKGGGIJ@Assertion?5failure?$CB?5?$CI?$CFs?5?$CFd?$CJ?3?5?$CFs?$AA@ 100b1a2c     d3dx9dt:d3dx9dbg.obj
 0002:00003a4c       ??_C@_0O@EPNLBGEO@D3DXDoNotMute?$AA@ 100b1a4c     d3dx9dt:d3dx9dbg.obj
 0002:00003a5c       ??_C@_09GLMKCLMG@d3d9d?4dll?$AA@ 100b1a5c     d3dx9dt:d3dx9dbg.obj
 0002:00003a68       ??_C@_0N@DIPAJPJI@DebugSetMute?$AA@ 100b1a68     d3dx9dt:d3dx9dbg.obj
 0002:00003a78       ??_C@_08NIHLGCK@d3d9?4dll?$AA@ 100b1a78     d3dx9dt:d3dx9dbg.obj
 0002:00003a84       ??_C@_0CI@MKNGFDBH@LoadBMP?3?5JPEG?5compression?5not?5su@ 100b1a84     d3dx9dt:cimage.obj
 0002:00003aac       ??_C@_0CH@HINADBEL@LoadBMP?3?5PNG?5compression?5not?5sup@ 100b1aac     d3dx9dt:cimage.obj
 0002:00003ad4       ??_C@_0M@LFCHLCJI@LoadJPG?3?5?$CFs?$AA@ 100b1ad4     d3dx9dt:cimage.obj
 0002:00003ae0       ??_C@_0L@JBGDLKBH@read?5error?$AA@ 100b1ae0     d3dx9dt:cimage.obj
 0002:00003aec       ??_C@_0M@GPLNHIOI@LoadPNG?3?5?$CFs?$AA@ 100b1aec     d3dx9dt:cimage.obj
 0002:00003af8       __real@406fe00000000000    100b1af8     d3dx9dt:cimage.obj
 0002:00003b00       __real@3f70101010101010    100b1b00     d3dx9dt:cimage.obj
 0002:00003b08       __real@3eb0c6f7a0b5ed8d    100b1b08     d3dx9dt:cimage.obj
 0002:00003b10       __real@400199999999999a    100b1b10     d3dx9dt:cimage.obj
 0002:00003b18       ??_C@_05JPCDEKMM@1?40?45?$AA@ 100b1b18     d3dx9dt:cimage.obj
 0002:00003b20       ??_C@_0CJ@IBCOEFLD@LoadDDS?3?5Partial?5cubemaps?5not?5su@ 100b1b20     d3dx9dt:cimage.obj
 0002:00003b4c       ??_C@_0CH@GMEHGJLD@Unrecognized?5pixel?5format?5in?5DDS@ 100b1b4c     d3dx9dt:cimage.obj
 0002:00003b74       ??_C@_03HHMJHEEB@DIB?$AA@  100b1b74     d3dx9dt:cimage.obj
 0002:00003b78       ??_C@_03DMNNDALJ@PPM?$AA@  100b1b78     d3dx9dt:cimage.obj
 0002:00003b7c       ??_C@_03CMMIMEAC@DDS?$AA@  100b1b7c     d3dx9dt:cimage.obj
 0002:00003b80       ??_C@_03NAIKFGEJ@PNG?$AA@  100b1b80     d3dx9dt:cimage.obj
 0002:00003b84       ??_C@_03GGDFNBH@TGA?$AA@   100b1b84     d3dx9dt:cimage.obj
 0002:00003b88       ??_C@_03PJJGGPMI@JPG?$AA@  100b1b88     d3dx9dt:cimage.obj
 0002:00003b8c       ??_C@_03CNFPPDJC@BMP?$AA@  100b1b8c     d3dx9dt:cimage.obj
 0002:00003b90       ??_C@_0BK@MCIHGEJH@Invalid?5image?5file?5format?$AA@ 100b1b90     d3dx9dt:cimage.obj
 0002:00003bac       ??_C@_0CK@NIMMCHGA@Saving?5?$CFs?5files?5is?5currently?5uns@ 100b1bac     d3dx9dt:cimage.obj
 0002:00003bd8       ??_C@_0EF@NFKPLGKC@Saving?5this?5pixel?5format?5to?5?$CFs?5f@ 100b1bd8     d3dx9dt:cimage.obj
 0002:00003c20       ??_C@_0DG@OCODHFLM@Source?5image?5data?5?$CIpvSrcData?5or?5@ 100b1c20     d3dx9dt:cimage.obj
 0002:00003c58       ??_C@_0BI@KLOECFFP@Unsupported?5file?5format?$AA@ 100b1c58     d3dx9dt:cimage.obj
 0002:00003c70       __real@3727c5ac            100b1c70     d3dx9dt:cblt.obj
 0002:00003c74       ??_C@_0DN@BDPNEEBC@d?3?2builds?2nt32_chk?2multimedia?2di@ 100b1c74     d3dx9dt:cblt.obj
 0002:00003cb4       ??_C@_0BC@GMEHONBG@uSize?5?$DM?$DN?5uSizeMax?$AA@ 100b1cb4     d3dx9dt:cblt.obj
 0002:00003cc8       ??_C@_0BF@HCMLKDLE@Invalid?5image?5filter?$AA@ 100b1cc8     d3dx9dt:cblt.obj
 0002:00003ce0       ??_C@_0BJ@LIJHGAAG@Unsupported?5image?5format?$AA@ 100b1ce0     d3dx9dt:cblt.obj
 0002:00003cfc       ??_C@_0BP@KIJNPBLC@No?5suitable?5image?5filter?5found?$AA@ 100b1cfc     d3dx9dt:cblt.obj
 0002:00003d1c       ??_C@_0CA@CANNEBJA@Update?5of?5vidmem?5texture?5failed?$AA@ 100b1d1c     d3dx9dt:clock.obj
 0002:00003d3c       ??_C@_0BH@JDLCOPNM@Could?5not?5lock?5surface?$AA@ 100b1d3c     d3dx9dt:clock.obj
 0002:00003d54       ??_C@_0DA@NMCIHPGK@Failed?5to?5create?5scratch?5copy?5of@ 100b1d54     d3dx9dt:clock.obj
 0002:00003d84       ??_C@_0N@KAMMLDCD@Invalid?5rect?$AA@ 100b1d84     d3dx9dt:clock.obj
 0002:00003d94       ??_C@_0BG@LEIBFFHA@Could?5not?5lock?5volume?$AA@ 100b1d94     d3dx9dt:clock.obj
 0002:00003dac       ??_C@_0CH@FDIGHHFK@Cannot?5lock?5non?9dynamic?5vidmem?5v@ 100b1dac     d3dx9dt:clock.obj
 0002:000045d8       ??_7CCodec@D3DXTex@@6B@    100b25d8     d3dx9dt:ccodec.obj
 0002:000045e8       __real@3b808081            100b25e8     d3dx9dt:ccodec.obj
 0002:000045ec       ??_7CCodecDXT@D3DXTex@@6B@ 100b25ec     d3dx9dt:ccodec.obj
 0002:000045fc       __real@3c820821            100b25fc     d3dx9dt:ccodec.obj
 0002:00004600       __real@427c0000            100b2600     d3dx9dt:ccodec.obj
 0002:00004604       __real@3d042108            100b2604     d3dx9dt:ccodec.obj
 0002:00004608       __real@41f80000            100b2608     d3dx9dt:ccodec.obj
 0002:0000460c       __real@41700000            100b260c     d3dx9dt:ccodec.obj
 0002:00004610       __real@437f0000            100b2610     d3dx9dt:ccodec.obj
 0002:00004614       __real@437e0000            100b2614     d3dx9dt:ccodec.obj
 0002:00004618       __real@40e00000            100b2618     d3dx9dt:ccodec.obj
 0002:0000461c       __real@447fc000            100b261c     d3dx9dt:ccodec.obj
 0002:00004620       __real@477fff00            100b2620     d3dx9dt:ccodec.obj
 0002:00004624       __real@42fe0000            100b2624     d3dx9dt:ccodec.obj
 0002:00004628       __real@46fffe00            100b2628     d3dx9dt:ccodec.obj
 0002:0000462c       __real@43ff8000            100b262c     d3dx9dt:ccodec.obj
 0002:00004630       __real@3d888889            100b2630     d3dx9dt:ccodec.obj
 0002:00004634       __real@3a802008            100b2634     d3dx9dt:ccodec.obj
 0002:00004638       __real@37800080            100b2638     d3dx9dt:ccodec.obj
 0002:0000463c       __real@3e124925            100b263c     d3dx9dt:ccodec.obj
 0002:00004640       ??_7CCodec_R8G8B8@D3DXTex@@6B@ 100b2640     d3dx9dt:ccodec.obj
 0002:00004650       ??_7CCodec_A8R8G8B8@D3DXTex@@6B@ 100b2650     d3dx9dt:ccodec.obj
 0002:00004660       ??_7CCodec_X8R8G8B8@D3DXTex@@6B@ 100b2660     d3dx9dt:ccodec.obj
 0002:00004670       ??_7CCodec_R5G6B5@D3DXTex@@6B@ 100b2670     d3dx9dt:ccodec.obj
 0002:00004680       ??_7CCodec_X1R5G5B5@D3DXTex@@6B@ 100b2680     d3dx9dt:ccodec.obj
 0002:00004690       ??_7CCodec_A1R5G5B5@D3DXTex@@6B@ 100b2690     d3dx9dt:ccodec.obj
 0002:000046a0       ??_7CCodec_A4R4G4B4@D3DXTex@@6B@ 100b26a0     d3dx9dt:ccodec.obj
 0002:000046b0       ??_7CCodec_R3G3B2@D3DXTex@@6B@ 100b26b0     d3dx9dt:ccodec.obj
 0002:000046c0       ??_7CCodec_A8@D3DXTex@@6B@ 100b26c0     d3dx9dt:ccodec.obj
 0002:000046d0       __real@3c010204            100b26d0     d3dx9dt:ccodec.obj
 0002:000046d4       ??_7CCodec_A8R3G3B2@D3DXTex@@6B@ 100b26d4     d3dx9dt:ccodec.obj
 0002:000046e4       ??_7CCodec_X4R4G4B4@D3DXTex@@6B@ 100b26e4     d3dx9dt:ccodec.obj
 0002:000046f4       ??_7CCodec_A2B10G10R10@D3DXTex@@6B@ 100b26f4     d3dx9dt:ccodec.obj
 0002:00004704       ??_7CCodec_A8B8G8R8@D3DXTex@@6B@ 100b2704     d3dx9dt:ccodec.obj
 0002:00004714       ??_7CCodec_X8B8G8R8@D3DXTex@@6B@ 100b2714     d3dx9dt:ccodec.obj
 0002:00004724       ??_7CCodec_G16R16@D3DXTex@@6B@ 100b2724     d3dx9dt:ccodec.obj
 0002:00004734       __real@38000100            100b2734     d3dx9dt:ccodec.obj
 0002:00004738       ??_7CCodec_A2R10G10B10@D3DXTex@@6B@ 100b2738     d3dx9dt:ccodec.obj
 0002:00004748       ??_7CCodec_A16B16G16R16@D3DXTex@@6B@ 100b2748     d3dx9dt:ccodec.obj
 0002:00004758       __real@3b004020            100b2758     d3dx9dt:ccodec.obj
 0002:0000475c       ??_7CCodec_A8P8@D3DXTex@@6B@ 100b275c     d3dx9dt:ccodec.obj
 0002:0000476c       ??_7CCodec_P8@D3DXTex@@6B@ 100b276c     d3dx9dt:ccodec.obj
 0002:0000477c       ??_7CCodec_L8@D3DXTex@@6B@ 100b277c     d3dx9dt:ccodec.obj
 0002:0000478c       ??_7CCodec_A8L8@D3DXTex@@6B@ 100b278c     d3dx9dt:ccodec.obj
 0002:0000479c       ??_7CCodec_A4L4@D3DXTex@@6B@ 100b279c     d3dx9dt:ccodec.obj
 0002:000047ac       ??_7CCodec_L16@D3DXTex@@6B@ 100b27ac     d3dx9dt:ccodec.obj
 0002:000047bc       ??_7CCodec_V8U8@D3DXTex@@6B@ 100b27bc     d3dx9dt:ccodec.obj
 0002:000047cc       ??_7CCodec_L6V5U5@D3DXTex@@6B@ 100b27cc     d3dx9dt:ccodec.obj
 0002:000047dc       ??_7CCodec_X8L8V8U8@D3DXTex@@6B@ 100b27dc     d3dx9dt:ccodec.obj
 0002:000047ec       ??_7CCodec_Q8W8V8U8@D3DXTex@@6B@ 100b27ec     d3dx9dt:ccodec.obj
 0002:000047fc       ??_7CCodec_V16U16@D3DXTex@@6B@ 100b27fc     d3dx9dt:ccodec.obj
 0002:0000480c       ??_7CCodec_A2W10V10U10@D3DXTex@@6B@ 100b280c     d3dx9dt:ccodec.obj
 0002:0000481c       ??_7CCodec_Q16W16V16U16@D3DXTex@@6B@ 100b281c     d3dx9dt:ccodec.obj
 0002:0000482c       ??_7CCodec_CxV8U8@D3DXTex@@6B@ 100b282c     d3dx9dt:ccodec.obj
 0002:0000483c       ??_7CCodecYUV@D3DXTex@@6B@ 100b283c     d3dx9dt:ccodec.obj
 0002:0000484c       ??_7CCodec_D16_LOCKABLE@D3DXTex@@6B@ 100b284c     d3dx9dt:ccodec.obj
 0002:0000485c       ??_7CCodec_D32F_LOCKABLE@D3DXTex@@6B@ 100b285c     d3dx9dt:ccodec.obj
 0002:0000486c       ??_7CCodec_R16F@D3DXTex@@6B@ 100b286c     d3dx9dt:ccodec.obj
 0002:0000487c       __real@4191b646            100b287c     d3dx9dt:ccodec.obj
 0002:00004880       __real@42bb926f            100b2880     d3dx9dt:ccodec.obj
 0002:00004884       __real@42173021            100b2884     d3dx9dt:ccodec.obj
 0002:00004888       __real@429467f0            100b2888     d3dx9dt:ccodec.obj
 0002:0000488c       __real@42e00000            100b288c     d3dx9dt:ccodec.obj
 0002:00004890       __real@43008d91            100b2890     d3dx9dt:ccodec.obj
 0002:00004894       __real@41c7ba5e            100b2894     d3dx9dt:ccodec.obj
 0002:00004898       __real@4282f646            100b2898     d3dx9dt:ccodec.obj
 0002:0000489c       ??_7CCodec_G16R16F@D3DXTex@@6B@ 100b289c     d3dx9dt:ccodec.obj
 0002:000048ac       ??_7CCodec_A16B16G16R16F@D3DXTex@@6B@ 100b28ac     d3dx9dt:ccodec.obj
 0002:000048bc       ??_7CCodec_R32F@D3DXTex@@6B@ 100b28bc     d3dx9dt:ccodec.obj
 0002:000048cc       ??_7CCodec_G32R32F@D3DXTex@@6B@ 100b28cc     d3dx9dt:ccodec.obj
 0002:000048dc       __real@3c019bec            100b28dc     d3dx9dt:ccodec.obj
 0002:000048e0       __real@3b50ef9c            100b28e0     d3dx9dt:ccodec.obj
 0002:000048e4       __real@3ac95e58            100b28e4     d3dx9dt:ccodec.obj
 0002:000048e8       __real@3b95a025            100b28e8     d3dx9dt:ccodec.obj
 0002:000048ec       __real@3bcd17b6            100b28ec     d3dx9dt:ccodec.obj
 0002:000048f0       __real@43000000            100b28f0     d3dx9dt:ccodec.obj
 0002:000048f4       __real@41800000            100b28f4     d3dx9dt:ccodec.obj
 0002:000048f8       ??_7CCodec_A32B32G32R32F@D3DXTex@@6B@ 100b28f8     d3dx9dt:ccodec.obj
 0002:00004908       ??_7CCodec_D3DX_A16L16@D3DXTex@@6B@ 100b2908     d3dx9dt:ccodec.obj
 0002:00004918       ??_7CCodec_D3DX_R16G16B16@D3DXTex@@6B@ 100b2918     d3dx9dt:ccodec.obj
 0002:00004928       ??_7CCodec_DXT3@D3DXTex@@6B@ 100b2928     d3dx9dt:ccodec.obj
 0002:00004938       ??_7CCodec_DXT4@D3DXTex@@6B@ 100b2938     d3dx9dt:ccodec.obj
 0002:00004948       ??_7CCodec_DXT5@D3DXTex@@6B@ 100b2948     d3dx9dt:ccodec.obj
 0002:00004958       ??_7CCodec_UYVY@D3DXTex@@6B@ 100b2958     d3dx9dt:ccodec.obj
 0002:00004968       ??_7CCodec_G8R8_G8B8@D3DXTex@@6B@ 100b2968     d3dx9dt:ccodec.obj
 0002:00004978       ??_7CCodec_YUY2@D3DXTex@@6B@ 100b2978     d3dx9dt:ccodec.obj
 0002:00004988       ??_7CCodec_R8G8_B8G8@D3DXTex@@6B@ 100b2988     d3dx9dt:ccodec.obj
 0002:00004998       ??_7CCodec_DXT1@D3DXTex@@6B@ 100b2998     d3dx9dt:ccodec.obj
 0002:000049a8       ??_7CCodec_DXT2@D3DXTex@@6B@ 100b29a8     d3dx9dt:ccodec.obj
 0002:000049b8       ??_C@_0EE@EIFFBJAA@d?3?2builds?2nt32_chk?2multimedia?2di@ 100b29b8     d3dx9dt:fxlvm.obj
 0002:000049fc       ??_C@_0BG@PCGDMFBK@dwInArgs?5?$DN?$DN?5dwOutArgs?$AA@ 100b29fc     d3dx9dt:fxlvm.obj
 0002:00004a18       __real@3ff71547652b82fe    100b2a18     d3dx9dt:fxlvm.obj
 0002:00004a20       ??_C@_0BI@EPGBOGMP@dwInArgs?5?$DN?$DN?52?$CKdwOutArgs?$AA@ 100b2a20     d3dx9dt:fxlvm.obj
 0002:00004a38       ??_C@_0P@NOMKKOA@dwOutArgs?5?$DN?$DN?51?$AA@ 100b2a38     d3dx9dt:fxlvm.obj
 0002:00004a48       ??_C@_0CC@IBPFPJOA@FXLVM?3?5Attempted?5write?5to?5Litera@ 100b2a48     d3dx9dt:fxlvm.obj
 0002:00004a6c       ??_C@_0BL@PNPHHHMD@dwArgType?5?$CB?$DN?5ARG_INPOINTER?$AA@ 100b2a6c     d3dx9dt:fxlvm.obj
 0002:00004a88       ??_C@_0BI@FGHPLPPF@FLX?3?5No?5code?5to?5execute?$AA@ 100b2a88     d3dx9dt:fxlvm.obj
 0002:00004aa0       ??_C@_0BF@HDGNEJCL@FXL?3?5Invalid?5Program?$AA@ 100b2aa0     d3dx9dt:fxlvm.obj
 0002:00004ab8       ??_C@_02DKCKIIND@?$CFs?$AA@ 100b2ab8     d3dx9dt:cfile.obj
 0002:00004abc       ??_C@_0BC@JFFNKLNA@Invalid?5file?5name?$AA@ 100b2abc     d3dx9dt:cfile.obj
 0002:00004b00       ?const3dn_0_1@@3T__m64@@B  100b2b00     d3dx9dt:d3dxmathx3d.obj
 0002:00004b08       ?const3dn_1_0@@3T__m64@@B  100b2b08     d3dx9dt:d3dxmathx3d.obj
 0002:00004b10       ?const3dn_1_N1@@3T__m64@@B 100b2b10     d3dx9dt:d3dxmathx3d.obj
 0002:00004b18       ?const3dn_N1_1@@3T__m64@@B 100b2b18     d3dx9dt:d3dxmathx3d.obj
 0002:00004b20       ?const3dn_1_1@@3T__m64@@B  100b2b20     d3dx9dt:d3dxmathx3d.obj
 0002:00004b28       ?const3dn_2_2@@3T__m64@@B  100b2b28     d3dx9dt:d3dxmathx3d.obj
 0002:00004b30       ?const3dn_3_2@@3T__m64@@B  100b2b30     d3dx9dt:d3dxmathx3d.obj
 0002:00004b38       ?const3dn_SignBitLo@@3T__m64@@B 100b2b38     d3dx9dt:d3dxmathx3d.obj
 0002:00004b40       ?const3dn_SignBitHi@@3T__m64@@B 100b2b40     d3dx9dt:d3dxmathx3d.obj
 0002:00004b48       ?const3dn_SignBits@@3T__m64@@B 100b2b48     d3dx9dt:d3dxmathx3d.obj
 0002:00004b50       ?const3dn_SignMaskLo@@3T__m64@@B 100b2b50     d3dx9dt:d3dxmathx3d.obj
 0002:00004b58       ?const3dn_SignMaskHi@@3T__m64@@B 100b2b58     d3dx9dt:d3dxmathx3d.obj
 0002:00004b60       ?const3dn_SignMasks@@3T__m64@@B 100b2b60     d3dx9dt:d3dxmathx3d.obj
 0002:00004b68       ?const3dn_epsilon@@3T__m64@@B 100b2b68     d3dx9dt:d3dxmathx3d.obj
 0002:00004b70       ?const3dn_dwordLo@@3T__m64@@B 100b2b70     d3dx9dt:d3dxmathx3d.obj
 0002:00004b78       ?const3dn_max@@3T__m64@@B  100b2b78     d3dx9dt:d3dxmathx3d.obj
 0002:00004b80       ?const3dn_min@@3T__m64@@B  100b2b80     d3dx9dt:d3dxmathx3d.obj
 0002:00004b88       ?const3dn_halves@@3T__m64@@B 100b2b88     d3dx9dt:d3dxmathx3d.obj
 0002:00004b90       ?const3dn_FltMin@@3T__m64@@B 100b2b90     d3dx9dt:d3dxmathx3d.obj
 0002:00004b98       ?g_negate_low@@3T__m64@@B  100b2b98     d3dx9dt:d3dxmathx3d.obj
 0002:00004ba0       ?g_negate_high@@3T__m64@@B 100b2ba0     d3dx9dt:d3dxmathx3d.obj
 0002:00004ba8       ?g_const_1@@3T__m64@@B     100b2ba8     d3dx9dt:d3dxmathx3d.obj
 0002:00004bb0       ?g_const_half@@3T__m64@@B  100b2bb0     d3dx9dt:d3dxmathx3d.obj
 0002:00004bb8       ?g_const_2@@3T__m64@@B     100b2bb8     d3dx9dt:d3dxmathx3d.obj
 0002:00004bc0       ?g_const_3@@3T__m64@@B     100b2bc0     d3dx9dt:d3dxmathx3d.obj
 0002:00004bc8       ?g_const_2_3@@3T__m64@@B   100b2bc8     d3dx9dt:d3dxmathx3d.obj
 0002:00004bd0       ?g_const_3_2@@3T__m64@@B   100b2bd0     d3dx9dt:d3dxmathx3d.obj
 0002:00004bd8       ?g_const_0@@3T__m64@@B     100b2bd8     d3dx9dt:d3dxmathx3d.obj
 0002:00004be0       ?g_const_0_1@@3T__m64@@B   100b2be0     d3dx9dt:d3dxmathx3d.obj
 0002:00004be8       ?g_const_1_0@@3T__m64@@B   100b2be8     d3dx9dt:d3dxmathx3d.obj
 0002:00004bf0       ?g_const_nh_nl@@3T__m64@@B 100b2bf0     d3dx9dt:d3dxmathx3d.obj
 0002:00004bf8       ?g_const_n2@@3T__m64@@B    100b2bf8     d3dx9dt:d3dxmathx3d.obj
 0002:00004c00       ?g_const_n2_1@@3T__m64@@B  100b2c00     d3dx9dt:d3dxmathx3d.obj
 0002:00004c08       ?g_const_niner@@3T__m64@@B 100b2c08     d3dx9dt:d3dxmathx3d.obj
 0002:00004c10       ?g_const_colRG@@3T__m64@@B 100b2c10     d3dx9dt:d3dxmathx3d.obj
 0002:00004c18       ?g_const_colB0@@3T__m64@@B 100b2c18     d3dx9dt:d3dxmathx3d.obj
 0002:00004c20       ??_C@_0N@FFJGBINN@AuthenticAMD?$AA@ 100b2c20     d3dx9dt:d3dxmathx3d.obj
 0002:00004c30       ??_C@_0N@GFHLKNJN@UnknownVendr?$AA@ 100b2c30     d3dx9dt:d3dxmathx3d.obj
 0002:00004e34       ??_C@_0CL@OCGBAKPF@Application?5transferred?5too?5many@ 100b2e34     d3dx9dt:jerror.obj
 0002:00004e60       ??_C@_0CL@BAKCGOKJ@Invalid?5SOS?5parameters?5for?5seque@ 100b2e60     d3dx9dt:jerror.obj
 0002:00004e8c       ??_C@_0DI@NFMBADOH@Corrupt?5JPEG?5data?3?5found?5marker?5@ 100b2e8c     d3dx9dt:jerror.obj
 0002:00004ec4       ??_C@_0BL@DPFPFMLM@Premature?5end?5of?5JPEG?5file?$AA@ 100b2ec4     d3dx9dt:jerror.obj
 0002:00004ee0       ??_C@_0CO@ODCCEDLN@Warning?3?5unknown?5JFIF?5revision?5n@ 100b2ee0     d3dx9dt:jerror.obj
 0002:00004f10       ??_C@_0CE@PBLDOPKB@Corrupt?5JPEG?5data?3?5bad?5Huffman?5c@ 100b2f10     d3dx9dt:jerror.obj
 0002:00004f34       ??_C@_0DB@PGMEPGHN@Corrupt?5JPEG?5data?3?5premature?5end@ 100b2f34     d3dx9dt:jerror.obj
 0002:00004f68       ??_C@_0DM@PCOGCKJB@Corrupt?5JPEG?5data?3?5?$CFu?5extraneous@ 100b2f68     d3dx9dt:jerror.obj
 0002:00004fa8       ??_C@_0EC@CBCJOINE@Inconsistent?5progression?5sequenc@ 100b2fa8     d3dx9dt:jerror.obj
 0002:00004fec       ??_C@_0CG@KEGHCDOM@Unknown?5Adobe?5color?5transform?5co@ 100b2fec     d3dx9dt:jerror.obj
 0002:00005014       ??_C@_0BH@LJLGPEFF@Obtained?5XMS?5handle?5?$CFu?$AA@ 100b3014     d3dx9dt:jerror.obj
 0002:0000502c       ??_C@_0BE@FOGGKKAO@Freed?5XMS?5handle?5?$CFu?$AA@ 100b302c     d3dx9dt:jerror.obj
 0002:00005040       ??_C@_0DE@EEJCDLOO@Unrecognized?5component?5IDs?5?$CFd?5?$CFd@ 100b3040     d3dx9dt:jerror.obj
 0002:00005074       ??_C@_0DG@FCFDGNHE@JFIF?5extension?5marker?3?5RGB?5thumb@ 100b3074     d3dx9dt:jerror.obj
 0002:000050ac       ??_C@_0DK@JGAPDCJL@JFIF?5extension?5marker?3?5palette?5t@ 100b30ac     d3dx9dt:jerror.obj
 0002:000050e8       ??_C@_0EC@ELDEPOJP@JFIF?5extension?5marker?3?5JPEG?9comp@ 100b30e8     d3dx9dt:jerror.obj
 0002:0000512c       ??_C@_0BJ@GOCABEP@Opened?5temporary?5file?5?$CFs?$AA@ 100b312c     d3dx9dt:jerror.obj
 0002:00005148       ??_C@_0BJ@KDCGAOJB@Closed?5temporary?5file?5?$CFs?$AA@ 100b3148     d3dx9dt:jerror.obj
 0002:00005164       ??_C@_0BN@GAMIJLDC@?5?5Ss?$DN?$CFd?0?5Se?$DN?$CFd?0?5Ah?$DN?$CFd?0?5Al?$DN?$CFd?$AA@ 100b3164     d3dx9dt:jerror.obj
 0002:00005184       ??_C@_0BO@CDEKFGLC@?5?5?5?5Component?5?$CFd?3?5dc?$DN?$CFd?5ac?$DN?$CFd?$AA@ 100b3184     d3dx9dt:jerror.obj
 0002:000051a4       ??_C@_0BN@BLOOHNC@Start?5Of?5Scan?3?5?$CFd?5components?$AA@ 100b31a4     d3dx9dt:jerror.obj
 0002:000051c4       ??_C@_0P@JLCHJELA@Start?5of?5Image?$AA@ 100b31c4     d3dx9dt:jerror.obj
 0002:000051d4       ??_C@_0BP@EDCAMHHE@?5?5?5?5Component?5?$CFd?3?5?$CFdhx?$CFdv?5q?$DN?$CFd?$AA@ 100b31d4     d3dx9dt:jerror.obj
 0002:000051f4       ??_C@_0DK@DMINKOGN@Start?5Of?5Frame?50x?$CF02x?3?5width?$DN?$CFu?0@ 100b31f4     d3dx9dt:jerror.obj
 0002:00005230       ??_C@_0DJ@PCBCLFML@Smoothing?5not?5supported?5with?5non@ 100b3230     d3dx9dt:jerror.obj
 0002:0000526c       ??_C@_05LLAPAOG@RST?$CFd?$AA@ 100b326c     d3dx9dt:jerror.obj
 0002:00005274       ??_C@_0CF@NIMOLBCP@At?5marker?50x?$CF02x?0?5recovery?5actio@ 100b3274     d3dx9dt:jerror.obj
 0002:0000529c       ??_C@_0CE@FDPBEAOO@Selected?5?$CFd?5colors?5for?5quantizat@ 100b329c     d3dx9dt:jerror.obj
 0002:000052c0       ??_C@_0BI@NEIBNACE@Quantizing?5to?5?$CFd?5colors?$AA@ 100b32c0     d3dx9dt:jerror.obj
 0002:000052d8       ??_C@_0CD@CNNAOOFA@Quantizing?5to?5?$CFd?5?$DN?5?$CFd?$CK?$CFd?$CK?$CFd?5colo@ 100b32d8     d3dx9dt:jerror.obj
 0002:000052fc       ??_C@_0CI@GHPOCOCL@?5?5?5?5?5?5?5?5?$CF4u?5?$CF4u?5?$CF4u?5?$CF4u?5?$CF4u?5?$CF4u?5@ 100b32fc     d3dx9dt:jerror.obj
 0002:00005324       ??_C@_0BJ@COPODLDN@Unexpected?5marker?50x?$CF02x?$AA@ 100b3324     d3dx9dt:jerror.obj
 0002:00005340       ??_C@_0CH@EHHJCMGA@Miscellaneous?5marker?50x?$CF02x?0?5len@ 100b3340     d3dx9dt:jerror.obj
 0002:00005368       ??_C@_0CB@BADBMAAB@?5?5?5?5with?5?$CFd?5x?5?$CFd?5thumbnail?5image@ 100b3368     d3dx9dt:jerror.obj
 0002:0000538c       ??_C@_0CO@KKPHGHBA@JFIF?5extension?5marker?3?5type?50x?$CF0@ 100b338c     d3dx9dt:jerror.obj
 0002:000053bc       ??_C@_0DM@JLHNPIBE@Warning?3?5thumbnail?5image?5size?5do@ 100b33bc     d3dx9dt:jerror.obj
 0002:000053f8       ??_C@_0DF@LOKNABIG@JFIF?5APP0?5marker?3?5version?5?$CFd?4?$CF02@ 100b33f8     d3dx9dt:jerror.obj
 0002:00005430       ??_C@_0CI@FKGPAJC@?5?5?5?5?5?5?5?5?$CF3d?5?$CF3d?5?$CF3d?5?$CF3d?5?$CF3d?5?$CF3d?5@ 100b3430     d3dx9dt:jerror.obj
 0002:00005458       ??_C@_0N@HJHFKELG@End?5Of?5Image?$AA@ 100b3458     d3dx9dt:jerror.obj
 0002:00005468       ??_C@_0BH@GIPOLIGC@Obtained?5EMS?5handle?5?$CFu?$AA@ 100b3468     d3dx9dt:jerror.obj
 0002:00005480       ??_C@_0BE@IPCOOGDJ@Freed?5EMS?5handle?5?$CFu?$AA@ 100b3480     d3dx9dt:jerror.obj
 0002:00005494       ??_C@_0BL@EMFIKBEK@Define?5Restart?5Interval?5?$CFu?$AA@ 100b3494     d3dx9dt:jerror.obj
 0002:000054b0       ??_C@_0CL@KLDOJIKN@Define?5Quantization?5Table?5?$CFd?5?5pr@ 100b34b0     d3dx9dt:jerror.obj
 0002:000054dc       ??_C@_0BM@MDIEILCE@Define?5Huffman?5Table?50x?$CF02x?$AA@ 100b34dc     d3dx9dt:jerror.obj
 0002:000054f8       ??_C@_0CH@KIJGKPAA@Define?5Arithmetic?5Table?50x?$CF02x?3?5@ 100b34f8     d3dx9dt:jerror.obj
 0002:00005520       ??_C@_0CM@CAEPHFAA@Unknown?5APP14?5marker?5?$CInot?5Adobe?$CJ@ 100b3520     d3dx9dt:jerror.obj
 0002:0000554c       ??_C@_0CK@HCPFFNKJ@Unknown?5APP0?5marker?5?$CInot?5JFIF?$CJ?0?5@ 100b354c     d3dx9dt:jerror.obj
 0002:00005578       ??_C@_0EC@EHPKAOHA@Adobe?5APP14?5marker?3?5version?5?$CFd?0?5@ 100b3578     d3dx9dt:jerror.obj
 0002:000055bc       ??_C@_0DO@EGLODMBB@Caution?3?5quantization?5tables?5are@ 100b35bc     d3dx9dt:jerror.obj
 0002:000055fc       ??_C@_0BA@LIJBPGPA@6b?5?527?9Mar?91998?$AA@ 100b35fc     d3dx9dt:jerror.obj
 0002:0000560c       ??_C@_0CD@IMBKIDCD@Copyright?5?$CIC?$CJ?51998?0?5Thomas?5G?4?5La@ 100b360c     d3dx9dt:jerror.obj
 0002:00005630       ??_C@_0BE@FDPDCBIN@Write?5to?5XMS?5failed?$AA@ 100b3630     d3dx9dt:jerror.obj
 0002:00005644       ??_C@_0BF@EKLGFGNM@Read?5from?5XMS?5failed?$AA@ 100b3644     d3dx9dt:jerror.obj
 0002:0000565c       ??_C@_0CH@LJLHCCHC@Image?5too?5wide?5for?5this?5implemen@ 100b365c     d3dx9dt:jerror.obj
 0002:00005684       ??_C@_0CD@GCLFJCHC@Virtual?5array?5controller?5messed?5@ 100b3684     d3dx9dt:jerror.obj
 0002:000056a8       ??_C@_0BP@BPKOBOIP@Unsupported?5marker?5type?50x?$CF02x?$AA@ 100b36a8     d3dx9dt:jerror.obj
 0002:000056c8       ??_C@_0CK@EPADOAKC@Application?5transferred?5too?5few?5@ 100b36c8     d3dx9dt:jerror.obj
 0002:000056f4       ??_C@_0DG@KALDLIJB@Write?5failed?5on?5temporary?5file?5?9@ 100b36f4     d3dx9dt:jerror.obj
 0002:0000572c       ??_C@_0BO@GOBJOAAI@Seek?5failed?5on?5temporary?5file?$AA@ 100b372c     d3dx9dt:jerror.obj
 0002:0000574c       ??_C@_0BO@EEPJGHHI@Read?5failed?5on?5temporary?5file?$AA@ 100b374c     d3dx9dt:jerror.obj
 0002:0000576c       ??_C@_0CD@POKNOPOF@Failed?5to?5create?5temporary?5file?5@ 100b376c     d3dx9dt:jerror.obj
 0002:00005790       ??_C@_0CM@HONLBDPH@Invalid?5JPEG?5file?5structure?3?5SOS@ 100b3790     d3dx9dt:jerror.obj
 0002:000057bc       ??_C@_0CN@HGJCMLNE@Invalid?5JPEG?5file?5structure?3?5two@ 100b37bc     d3dx9dt:jerror.obj
 0002:000057ec       ??_C@_0CK@HMKECJK@Unsupported?5JPEG?5process?3?5SOF?5ty@ 100b37ec     d3dx9dt:jerror.obj
 0002:00005818       ??_C@_0DA@GJIJGINK@Invalid?5JPEG?5file?5structure?3?5mis@ 100b3818     d3dx9dt:jerror.obj
 0002:00005848       ??_C@_0CN@IHJJJAFJ@Invalid?5JPEG?5file?5structure?3?5two@ 100b3848     d3dx9dt:jerror.obj
 0002:00005878       ??_C@_0CH@NHMNHHIB@Cannot?5quantize?5to?5more?5than?5?$CFd?5@ 100b3878     d3dx9dt:jerror.obj
 0002:000058a0       ??_C@_0CI@PLMPLCNO@Cannot?5quantize?5to?5fewer?5than?5?$CFd@ 100b38a0     d3dx9dt:jerror.obj
 0002:000058c8       ??_C@_0CO@HPDBAEEA@Cannot?5quantize?5more?5than?5?$CFd?5col@ 100b38c8     d3dx9dt:jerror.obj
 0002:000058f8       ??_C@_0BO@DJPLELIB@Insufficient?5memory?5?$CIcase?5?$CFd?$CJ?$AA@ 100b38f8     d3dx9dt:jerror.obj
 0002:00005918       ??_C@_0CL@GNLFDFCL@Not?5a?5JPEG?5file?3?5starts?5with?50x?$CF@ 100b3918     d3dx9dt:jerror.obj
 0002:00005944       ??_C@_0CK@CCHKIENB@Quantization?5table?50x?$CF02x?5was?5no@ 100b3944     d3dx9dt:jerror.obj
 0002:00005970       ??_C@_0CC@BKPLBDLJ@JPEG?5datastream?5contains?5no?5imag@ 100b3970     d3dx9dt:jerror.obj
 0002:00005994       ??_C@_0CF@BKANFCCL@Huffman?5table?50x?$CF02x?5was?5not?5def@ 100b3994     d3dx9dt:jerror.obj
 0002:000059bc       ??_C@_0BM@HJHFKLAF@Backing?5store?5not?5supported?$AA@ 100b39bc     d3dx9dt:jerror.obj
 0002:000059d8       ??_C@_0CO@BEHINNOI@Requested?5feature?5was?5omitted?5at@ 100b39d8     d3dx9dt:jerror.obj
 0002:00005a08       ??_C@_0BE@EOAAHHJ@Not?5implemented?5yet?$AA@ 100b3a08     d3dx9dt:jerror.obj
 0002:00005a1c       ??_C@_0CH@EFBBPPCK@Invalid?5color?5quantization?5mode?5@ 100b3a1c     d3dx9dt:jerror.obj
 0002:00005a44       ??_C@_0CH@NIBDNILP@Scan?5script?5does?5not?5transmit?5al@ 100b3a44     d3dx9dt:jerror.obj
 0002:00005a6c       ??_C@_0DO@OPNPKGO@Cannot?5transcode?5due?5to?5multiple@ 100b3a6c     d3dx9dt:jerror.obj
 0002:00005aac       ??_C@_0BM@KEKMMNGA@Premature?5end?5of?5input?5file?$AA@ 100b3aac     d3dx9dt:jerror.obj
 0002:00005ac8       ??_C@_0BB@JJAIKFBB@Empty?5input?5file?$AA@ 100b3ac8     d3dx9dt:jerror.obj
 0002:00005adc       ??_C@_0CP@EKFPGPNP@Maximum?5supported?5image?5dimensio@ 100b3adc     d3dx9dt:jerror.obj
 0002:00005b0c       ??_C@_0CB@LFBMFPHI@Missing?5Huffman?5code?5table?5entry@ 100b3b0c     d3dx9dt:jerror.obj
 0002:00005b30       ??_C@_0CB@LLDOGNPJ@Huffman?5code?5size?5table?5overflow@ 100b3b30     d3dx9dt:jerror.obj
 0002:00005b54       ??_C@_0CI@EKDDDHFF@Fractional?5sampling?5not?5implemen@ 100b3b54     d3dx9dt:jerror.obj
 0002:00005b7c       ??_C@_0CP@IDOBLGGD@Output?5file?5write?5error?5?9?9?9?5out?5@ 100b3b7c     d3dx9dt:jerror.obj
 0002:00005bac       ??_C@_0BG@BALCKDNL@Input?5file?5read?5error?$AA@ 100b3bac     d3dx9dt:jerror.obj
 0002:00005bc4       ??_C@_0CB@DMGINPNE@Didn?8t?5expect?5more?5than?5one?5scan@ 100b3bc4     d3dx9dt:jerror.obj
 0002:00005be8       ??_C@_0BE@DGJBKIEB@Write?5to?5EMS?5failed?$AA@ 100b3be8     d3dx9dt:jerror.obj
 0002:00005bfc       ??_C@_0BF@CPNENPBA@Read?5from?5EMS?5failed?$AA@ 100b3bfc     d3dx9dt:jerror.obj
 0002:00005c14       ??_C@_0CF@DAGGEAPM@Empty?5JPEG?5image?5?$CIDNL?5not?5suppor@ 100b3c14     d3dx9dt:jerror.obj
 0002:00005c3c       ??_C@_0BD@DIMECAOP@Bogus?5DQT?5index?5?$CFd?$AA@ 100b3c3c     d3dx9dt:jerror.obj
 0002:00005c50       ??_C@_0BD@KJHFPHIC@Bogus?5DHT?5index?5?$CFd?$AA@ 100b3c50     d3dx9dt:jerror.obj
 0002:00005c64       ??_C@_0BF@CLIOOJFM@Bogus?5DAC?5value?50x?$CFx?$AA@ 100b3c64     d3dx9dt:jerror.obj
 0002:00005c7c       ??_C@_0BD@LDBBBMFL@Bogus?5DAC?5index?5?$CFd?$AA@ 100b3c7c     d3dx9dt:jerror.obj
 0002:00005c90       ??_C@_0CF@JDLOPNGO@Unsupported?5color?5conversion?5req@ 100b3c90     d3dx9dt:jerror.obj
 0002:00005cb8       ??_C@_0CG@BEBDNOCG@Too?5many?5color?5components?3?5?$CFd?0?5m@ 100b3cb8     d3dx9dt:jerror.obj
 0002:00005ce0       ??_C@_0CF@LAEFHNAH@CCIR601?5sampling?5not?5implemented@ 100b3ce0     d3dx9dt:jerror.obj
 0002:00005d08       ??_C@_0BM@PKHCPJDH@Suspension?5not?5allowed?5here?$AA@ 100b3d08     d3dx9dt:jerror.obj
 0002:00005d24       ??_C@_0CL@JKHIPJLJ@Buffer?5passed?5to?5JPEG?5library?5is@ 100b3d24     d3dx9dt:jerror.obj
 0002:00005d50       ??_C@_0BL@CBOEEPLK@Bogus?5virtual?5array?5access?$AA@ 100b3d50     d3dx9dt:jerror.obj
 0002:00005d70       ??_C@_0EN@DKAEGIBH@JPEG?5parameter?5struct?5mismatch?3?5@ 100b3d70     d3dx9dt:jerror.obj
 0002:00005dc0       ??_C@_0CK@BAMFIBMM@Improper?5call?5to?5JPEG?5library?5in@ 100b3dc0     d3dx9dt:jerror.obj
 0002:00005dec       ??_C@_0CA@MJDDICLK@Invalid?5scan?5script?5at?5entry?5?$CFd?$AA@ 100b3dec     d3dx9dt:jerror.obj
 0002:00005e0c       ??_C@_0BH@HMMHPOPE@Bogus?5sampling?5factors?$AA@ 100b3e0c     d3dx9dt:jerror.obj
 0002:00005e24       ??_C@_0DH@HIKEGPKP@Invalid?5progressive?5parameters?5a@ 100b3e24     d3dx9dt:jerror.obj
 0002:00005e5c       ??_C@_0DH@LNGGEGOL@Invalid?5progressive?5parameters?5S@ 100b3e5c     d3dx9dt:jerror.obj
 0002:00005e94       ??_C@_0CD@LDBDNLHK@Unsupported?5JPEG?5data?5precision?5@ 100b3e94     d3dx9dt:jerror.obj
 0002:00005eb8       ??_C@_0BM@OEMICEFD@Invalid?5memory?5pool?5code?5?$CFd?$AA@ 100b3eb8     d3dx9dt:jerror.obj
 0002:00005ed4       ??_C@_0DA@HLEOHNPA@Sampling?5factors?5too?5large?5for?5i@ 100b3ed4     d3dx9dt:jerror.obj
 0002:00005f04       ??_C@_0DN@ELFKFKL@Wrong?5JPEG?5library?5version?3?5libr@ 100b3f04     d3dx9dt:jerror.obj
 0002:00005f44       ??_C@_0BE@OGLAEMOG@Bogus?5marker?5length?$AA@ 100b3f44     d3dx9dt:jerror.obj
 0002:00005f58       ??_C@_0BG@NEGIHEMC@Bogus?5JPEG?5colorspace?$AA@ 100b3f58     d3dx9dt:jerror.obj
 0002:00005f70       ??_C@_0BH@BGDIGLHC@Bogus?5input?5colorspace?$AA@ 100b3f70     d3dx9dt:jerror.obj
 0002:00005f88       ??_C@_0BP@EOFJNLFD@Bogus?5Huffman?5table?5definition?$AA@ 100b3f88     d3dx9dt:jerror.obj
 0002:00005fa8       ??_C@_0CI@MBJANLAP@IDCT?5output?5block?5size?5?$CFd?5not?5su@ 100b3fa8     d3dx9dt:jerror.obj
 0002:00005fd0       ??_C@_0BN@OJEJKKDL@DCT?5coefficient?5out?5of?5range?$AA@ 100b3fd0     d3dx9dt:jerror.obj
 0002:00005ff0       ??_C@_0BP@ONFLCDHG@Invalid?5component?5ID?5?$CFd?5in?5SOS?$AA@ 100b3ff0     d3dx9dt:jerror.obj
 0002:00006010       ??_C@_0BK@DKALDNKG@Bogus?5buffer?5control?5mode?$AA@ 100b4010     d3dx9dt:jerror.obj
 0002:0000602c       ??_C@_0CF@DENLILGA@MAX_ALLOC_CHUNK?5is?5wrong?0?5please@ 100b402c     d3dx9dt:jerror.obj
 0002:00006054       ??_C@_0CA@FDMPGPNI@ALIGN_TYPE?5is?5wrong?0?5please?5fix?$AA@ 100b4054     d3dx9dt:jerror.obj
 0002:00006074       ??_C@_0DJ@KONAFFHE@Sorry?0?5there?5are?5legal?5restricti@ 100b4074     d3dx9dt:jerror.obj
 0002:000060b0       ??_C@_0BG@MIBALFBH@Bogus?5message?5code?5?$CFd?$AA@ 100b40b0     d3dx9dt:jerror.obj
 0002:00006154       ??_C@_0BD@LBMCPKOE@zlib?5version?5error?$AA@ 100b4154     d3dx9dt:pngread.obj
 0002:00006168       ??_C@_0BC@MCPIPOGP@zlib?5memory?5error?$AA@ 100b4168     d3dx9dt:pngread.obj
 0002:0000617c       ??_C@_0BD@CPDHIJBA@Unknown?5zlib?5error?$AA@ 100b417c     d3dx9dt:pngread.obj
 0002:00006190       ??_C@_05DOIEBMOI@1?41?44?$AA@ 100b4190     d3dx9dt:pngread.obj
 0002:00006198       ??_C@_0DH@LDFDLODO@Incompatible?5libpng?5version?5in?5a@ 100b4198     d3dx9dt:pngread.obj
 0002:000061d0       ??_C@_0N@JEPAMDDI@zlib?5version?$AA@ 100b41d0     d3dx9dt:pngread.obj
 0002:000061e0       ??_C@_0M@KPLPCJNA@zlib?5memory?$AA@ 100b41e0     d3dx9dt:pngread.obj
 0002:000061ec       ??_C@_0BJ@LAKDHAPN@Missing?5PLTE?5before?5IDAT?$AA@ 100b41ec     d3dx9dt:pngread.obj
 0002:00006208       ??_C@_0BJ@FFGICIDJ@Missing?5IHDR?5before?5IDAT?$AA@ 100b4208     d3dx9dt:pngread.obj
 0002:00006224       ??_C@_0CH@NMANOLCN@PNG?5file?5corrupted?5by?5ASCII?5conv@ 100b4224     d3dx9dt:pngread.obj
 0002:0000624c       ??_C@_0P@KIMIGLKH@Not?5a?5PNG?5file?$AA@ 100b424c     d3dx9dt:pngread.obj
 0002:0000625c       ??_C@_0BG@OKGHHCLP@Extra?5compressed?5data?$AA@ 100b425c     d3dx9dt:pngread.obj
 0002:00006274       ??_C@_0BE@JMOGBNJB@Decompression?5error?$AA@ 100b4274     d3dx9dt:pngread.obj
 0002:00006288       ??_C@_0BG@EIEOOJHA@Not?5enough?5image?5data?$AA@ 100b4288     d3dx9dt:pngread.obj
 0002:000062a0       ??_C@_0CB@KCPNIGFM@Invalid?5attempt?5to?5read?5row?5data@ 100b42a0     d3dx9dt:pngread.obj
 0002:000062c4       ??_C@_0BG@JAHFDNP@Too?5many?5IDAT?8s?5found?$AA@ 100b42c4     d3dx9dt:pngread.obj
 0002:000062dc       ??_C@_0DC@MHGEAIEM@Width?5too?5large?5for?5libpng?5to?5pr@ 100b42dc     d3dx9dt:pngget.obj
 0002:00006310       ??_C@_0CK@BDBGBGO@Can?8t?5discard?5critical?5data?5on?5C@ 100b4310     d3dx9dt:pngrtran.obj
 0002:00006340       __real@3fa999999999999a    100b4340     d3dx9dt:pngrtran.obj
 0002:00006348       __real@40efffe000000000    100b4348     d3dx9dt:pngrtran.obj
 0002:00006350       __real@3ef0001000100010    100b4350     d3dx9dt:pngrtran.obj
 0002:00006358       __real@41f0000000000000    100b4358     d3dx9dt:pngrtran.obj
 0002:00006360       ??_C@_0CC@JEAKIKEF@png_do_dither?5returned?5rowbytes?$DN@ 100b4360     d3dx9dt:pngrtran.obj
 0002:00006384       ??_C@_0BA@DBGPKIA@NULL?5row?5buffer?$AA@ 100b4384     d3dx9dt:pngrtran.obj
 0002:00006394       ??_C@_0DP@GHHOJINM@Width?5too?5large?5to?5process?5image@ 100b4394     d3dx9dt:pngset.obj
 0002:000063d8       __real@3fdd1758e0000000    100b43d8     d3dx9dt:pngset.obj
 0002:000063e0       ??_C@_0BL@GPADEDKN@Call?5to?5NULL?5read?5function?$AA@ 100b43e0     d3dx9dt:pngrio.obj
 0002:000063fc       ??_C@_0DC@EOBOCMJO@same?5structure?4?5?5Resetting?5write@ 100b43fc     d3dx9dt:pngrio.obj
 0002:00006430       ??_C@_0EB@NJKELLKM@It?8s?5an?5error?5to?5set?5both?5read_d@ 100b4430     d3dx9dt:pngrio.obj
 0002:0000647c       ??_C@_0DE@EGBLPLND@?6?5libpng?5version?51?40?45?5?9?5October@ 100b447c     d3dx9dt:png.obj
 0002:000064b0       ??_C@_0CC@CMIPDMOP@Too?5many?5bytes?5for?5PNG?5signature@ 100b44b0     d3dx9dt:png.obj
 0002:000064d8       ??_C@_0MG@PPOOLDBG@?6?5libpng?5version?51?40?45?5?9?5October@ 100b44d8     d3dx9dt:png.obj
 0002:00006954       _IID_ID3DXAnimationController 100b4954     d3dx9dt:init.obj
 0002:00006964       _IID_ID3DXAnimationSet     100b4964     d3dx9dt:init.obj
 0002:00006974       _IID_ID3DXKeyFrameInterpolator 100b4974     d3dx9dt:init.obj
 0002:00006984       _IID_ID3DXInterpolator     100b4984     d3dx9dt:init.obj
 0002:00006994       _IID_ID3DXEffectCompiler   100b4994     d3dx9dt:init.obj
 0002:000069a4       _IID_ID3DXEffect           100b49a4     d3dx9dt:init.obj
 0002:000069b4       _IID_ID3DXBaseEffect       100b49b4     d3dx9dt:init.obj
 0002:000069c4       _IID_ID3DXEffectPool       100b49c4     d3dx9dt:init.obj
 0002:000069d4       _IID_ID3DXFragmentLinker   100b49d4     d3dx9dt:init.obj
 0002:000069e4       _IID_ID3DXConstantTable    100b49e4     d3dx9dt:init.obj
 0002:000069f4       _DXFILEOBJ_AnimTicksPerSecond 100b49f4     d3dx9dt:init.obj
 0002:00006a04       _DXFILEOBJ_EffectInstance  100b4a04     d3dx9dt:init.obj
 0002:00006a14       _DXFILEOBJ_EffectParamDWord 100b4a14     d3dx9dt:init.obj
 0002:00006a24       _DXFILEOBJ_EffectParamString 100b4a24     d3dx9dt:init.obj
 0002:00006a34       _DXFILEOBJ_EffectParamFloats 100b4a34     d3dx9dt:init.obj
 0002:00006a44       _DXFILEOBJ_EffectDWord     100b4a44     d3dx9dt:init.obj
 0002:00006a54       _DXFILEOBJ_EffectString    100b4a54     d3dx9dt:init.obj
 0002:00006a64       _DXFILEOBJ_EffectFloats    100b4a64     d3dx9dt:init.obj
 0002:00006a74       _DXFILEOBJ_DeclData        100b4a74     d3dx9dt:init.obj
 0002:00006a84       _DXFILEOBJ_VertexElement   100b4a84     d3dx9dt:init.obj
 0002:00006a94       _DXFILEOBJ_FVFData         100b4a94     d3dx9dt:init.obj
 0002:00006aa4       _DXFILEOBJ_PMVSplitRecord  100b4aa4     d3dx9dt:init.obj
 0002:00006ab4       _DXFILEOBJ_PMAttributeRange 100b4ab4     d3dx9dt:init.obj
 0002:00006ac4       _DXFILEOBJ_PMInfo          100b4ac4     d3dx9dt:init.obj
 0002:00006ad4       _DXFILEOBJ_PatchMesh9      100b4ad4     d3dx9dt:init.obj
 0002:00006ae4       _DXFILEOBJ_PatchMesh       100b4ae4     d3dx9dt:init.obj
 0002:00006af4       _DXFILEOBJ_Patch           100b4af4     d3dx9dt:init.obj
 0002:00006b04       _DXFILEOBJ_SkinWeights     100b4b04     d3dx9dt:init.obj
 0002:00006b14       _DXFILEOBJ_FaceAdjacency   100b4b14     d3dx9dt:init.obj
 0002:00006b24       _DXFILEOBJ_VertexDuplicationIndices 100b4b24     d3dx9dt:init.obj
 0002:00006b34       _DXFILEOBJ_XSkinMeshHeader 100b4b34     d3dx9dt:init.obj
 0002:00006b44       _IID_ID3DXPatchMesh        100b4b44     d3dx9dt:init.obj
 0002:00006b54       _IID_ID3DXSkinInfo         100b4b54     d3dx9dt:init.obj
 0002:00006b64       _IID_ID3DXSPMesh           100b4b64     d3dx9dt:init.obj
 0002:00006b74       _IID_ID3DXPMesh            100b4b74     d3dx9dt:init.obj
 0002:00006b84       _IID_ID3DXMesh             100b4b84     d3dx9dt:init.obj
 0002:00006b94       _IID_ID3DXBaseMesh         100b4b94     d3dx9dt:init.obj
 0002:00006ba4       _TID_DXFILEHeader          100b4ba4     d3dx9dt:init.obj
 0002:00006bb4       _IID_IDirectXFileBinary    100b4bb4     d3dx9dt:init.obj
 0002:00006bc4       _IID_IDirectXFileDataReference 100b4bc4     d3dx9dt:init.obj
 0002:00006bd4       _IID_IDirectXFileData      100b4bd4     d3dx9dt:init.obj
 0002:00006be4       _IID_IDirectXFileObject    100b4be4     d3dx9dt:init.obj
 0002:00006bf4       _IID_IDirectXFileSaveObject 100b4bf4     d3dx9dt:init.obj
 0002:00006c04       _IID_IDirectXFileEnumObject 100b4c04     d3dx9dt:init.obj
 0002:00006c14       _IID_IDirectXFile          100b4c14     d3dx9dt:init.obj
 0002:00006c24       _CLSID_CDirectXFile        100b4c24     d3dx9dt:init.obj
 0002:00006c34       _IID_ID3DXLine             100b4c34     d3dx9dt:init.obj
 0002:00006c44       _IID_ID3DXRenderToEnvMap   100b4c44     d3dx9dt:init.obj
 0002:00006c54       _IID_ID3DXRenderToSurface  100b4c54     d3dx9dt:init.obj
 0002:00006c64       _IID_ID3DXSprite           100b4c64     d3dx9dt:init.obj
 0002:00006c74       _IID_ID3DXFont             100b4c74     d3dx9dt:init.obj
 0002:00006c84       _IID_ID3DXBuffer           100b4c84     d3dx9dt:init.obj
 0002:00006c94       _IID_ID3DXMatrixStack      100b4c94     d3dx9dt:init.obj
 0002:00006ca4       _IID_IDirect3DShaderValidator9 100b4ca4     d3dx9dt:init.obj
 0002:00006cb4       _IID_IDirect3DQuery9       100b4cb4     d3dx9dt:init.obj
 0002:00006cc4       _IID_IDirect3DStateBlock9  100b4cc4     d3dx9dt:init.obj
 0002:00006cd4       _IID_IDirect3DPixelShader9 100b4cd4     d3dx9dt:init.obj
 0002:00006ce4       _IID_IDirect3DVertexShader9 100b4ce4     d3dx9dt:init.obj
 0002:00006cf4       _IID_IDirect3DVertexDeclaration9 100b4cf4     d3dx9dt:init.obj
 0002:00006d04       _IID_IDirect3DSwapChain9   100b4d04     d3dx9dt:init.obj
 0002:00006d14       _IID_IDirect3DVolume9      100b4d14     d3dx9dt:init.obj
 0002:00006d24       _IID_IDirect3DSurface9     100b4d24     d3dx9dt:init.obj
 0002:00006d34       _IID_IDirect3DIndexBuffer9 100b4d34     d3dx9dt:init.obj
 0002:00006d44       _IID_IDirect3DVertexBuffer9 100b4d44     d3dx9dt:init.obj
 0002:00006d54       _IID_IDirect3DVolumeTexture9 100b4d54     d3dx9dt:init.obj
 0002:00006d64       _IID_IDirect3DCubeTexture9 100b4d64     d3dx9dt:init.obj
 0002:00006d74       _IID_IDirect3DTexture9     100b4d74     d3dx9dt:init.obj
 0002:00006d84       _IID_IDirect3DBaseTexture9 100b4d84     d3dx9dt:init.obj
 0002:00006d94       _IID_IDirect3DResource9    100b4d94     d3dx9dt:init.obj
 0002:00006da4       _IID_IDirect3DDevice9      100b4da4     d3dx9dt:init.obj
 0002:00006db4       _IID_IDirect3D9            100b4db4     d3dx9dt:init.obj
 0002:00006dc4       __real@3c800000            100b4dc4     d3dx9dt:dxtn.obj
 0002:00006dc8       __real@3b800000            100b4dc8     d3dx9dt:dxtn.obj
 0002:00006e40       __real@39800000            100b4e40     d3dx9dt:dxtn.obj
 0002:00006e7c       __real@3f2aaaab            100b4e7c     d3dx9dt:dxtn.obj
 0002:00006e9c       __real@3d800000            100b4e9c     d3dx9dt:dxtn.obj
 0002:00006ea0       __real@3ea00000            100b4ea0     d3dx9dt:dxtn.obj
 0002:00006ea4       __real@3e400000            100b4ea4     d3dx9dt:dxtn.obj
 0002:00006ea8       __real@3ee00000            100b4ea8     d3dx9dt:dxtn.obj
 0002:00006eac       __real@3e4ccccd            100b4eac     d3dx9dt:dxtn.obj
 0002:000070b0       ??_C@_07JDJMCMIP@vs_3_sw?$AA@ 100b50b0     d3dx9dt:d3dx9shader.obj
 0002:000070b8       ??_C@_06IAOGOKNE@vs_3_0?$AA@ 100b50b8     d3dx9dt:d3dx9shader.obj
 0002:000070c0       ??_C@_06PKEILM@vs_2_x?$AA@ 100b50c0     d3dx9dt:d3dx9shader.obj
 0002:000070c8       ??_C@_07KOPMAFDP@vs_2_sw?$AA@ 100b50c8     d3dx9dt:d3dx9shader.obj
 0002:000070d0       ??_C@_06DIFKINLB@vs_2_0?$AA@ 100b50d0     d3dx9dt:d3dx9shader.obj
 0002:000070d8       ??_C@_06DDPEBDBO@vs_1_1?$AA@ 100b50d8     d3dx9dt:d3dx9shader.obj
 0002:000070e0       ??_C@_06CKOPCCFP@vs_1_0?$AA@ 100b50e0     d3dx9dt:d3dx9shader.obj
 0002:000070e8       ??_C@_07IAGBDFBC@vs?43?4sw?$AA@ 100b50e8     d3dx9dt:d3dx9shader.obj
 0002:000070f0       ??_C@_06BBGHCBMM@vs?43?40?$AA@ 100b50f0     d3dx9dt:d3dx9shader.obj
 0002:000070f8       ??_C@_06JBHLIDKE@vs?42?4x?$AA@ 100b50f8     d3dx9dt:d3dx9shader.obj
 0002:00007100       ??_C@_07LNABBMKC@vs?42?4sw?$AA@ 100b5100     d3dx9dt:d3dx9shader.obj
 0002:00007108       ??_C@_06KJNLEGKJ@vs?42?40?$AA@ 100b5108     d3dx9dt:d3dx9shader.obj
 0002:00007110       ??_C@_06KCHFNIAG@vs?41?41?$AA@ 100b5110     d3dx9dt:d3dx9shader.obj
 0002:00007118       ??_C@_06LLGOOJEH@vs?41?40?$AA@ 100b5118     d3dx9dt:d3dx9shader.obj
 0002:00007120       ??_C@_02FENABIDK@vs?$AA@   100b5120     d3dx9dt:d3dx9shader.obj
 0002:00007124       ??_C@_06NHLHMDLF@tx_1_0?$AA@ 100b5124     d3dx9dt:d3dx9shader.obj
 0002:0000712c       ??_C@_02LEKABFJP@tx?$AA@   100b512c     d3dx9dt:d3dx9shader.obj
 0002:00007130       ??_C@_07FFPDCFAI@ps_3_sw?$AA@ 100b5130     d3dx9dt:d3dx9shader.obj
 0002:00007138       ??_C@_06ODDGNPOO@ps_3_0?$AA@ 100b5138     d3dx9dt:d3dx9shader.obj
 0002:00007140       ??_C@_06GDCKHNIG@ps_2_x?$AA@ 100b5140     d3dx9dt:d3dx9shader.obj
 0002:00007148       ??_C@_07GIJDAMLI@ps_2_sw?$AA@ 100b5148     d3dx9dt:d3dx9shader.obj
 0002:00007150       ??_C@_06FLIKLIIL@ps_2_0?$AA@ 100b5150     d3dx9dt:d3dx9shader.obj
 0002:00007158       ??_C@_06CNFDNCGB@ps_1_4?$AA@ 100b5158     d3dx9dt:d3dx9shader.obj
 0002:00007160       ??_C@_06GCBCEEKG@ps_1_3?$AA@ 100b5160     d3dx9dt:d3dx9shader.obj
 0002:00007168       ??_C@_06HLAJHFOH@ps_1_2?$AA@ 100b5168     d3dx9dt:d3dx9shader.obj
 0002:00007170       ??_C@_06FACECGCE@ps_1_1?$AA@ 100b5170     d3dx9dt:d3dx9shader.obj
 0002:00007178       ??_C@_06EJDPBHGF@ps_1_0?$AA@ 100b5178     d3dx9dt:d3dx9shader.obj
 0002:00007180       ??_C@_07EGAODMJF@ps?43?4sw?$AA@ 100b5180     d3dx9dt:d3dx9shader.obj
 0002:00007188       ??_C@_06HCLHBEPG@ps?43?40?$AA@ 100b5188     d3dx9dt:d3dx9shader.obj
 0002:00007190       ??_C@_06PCKLLGJO@ps?42?4x?$AA@ 100b5190     d3dx9dt:d3dx9shader.obj
 0002:00007198       ??_C@_07HLGOBFCF@ps?42?4sw?$AA@ 100b5198     d3dx9dt:d3dx9shader.obj
 0002:000071a0       ??_C@_06MKALHDJD@ps?42?40?$AA@ 100b51a0     d3dx9dt:d3dx9shader.obj
 0002:000071a8       ??_C@_06LMNCBJHJ@ps?41?44?$AA@ 100b51a8     d3dx9dt:d3dx9shader.obj
 0002:000071b0       ??_C@_06PDJDIPLO@ps?41?43?$AA@ 100b51b0     d3dx9dt:d3dx9shader.obj
 0002:000071b8       ??_C@_06OKIILOPP@ps?41?42?$AA@ 100b51b8     d3dx9dt:d3dx9shader.obj
 0002:000071c0       ??_C@_06MBKFONDM@ps?41?41?$AA@ 100b51c0     d3dx9dt:d3dx9shader.obj
 0002:000071c8       ??_C@_06NILONMHN@ps?41?40?$AA@ 100b51c8     d3dx9dt:d3dx9shader.obj
 0002:000071d0       ??_C@_02FAFNGEII@ps?$AA@   100b51d0     d3dx9dt:d3dx9shader.obj
 0002:000071d4       ??_C@_0BM@NLIDADNF@Unrecognized?5shader?5version?$AA@ 100b51d4     d3dx9dt:d3dx9shader.obj
 0002:000071f0       ??_C@_0DK@DFECHJIE@D3DXGetShaderInputSemantics?3?5Unk@ 100b51f0     d3dx9dt:d3dx9shader.obj
 0002:0000722c       ??_C@_0DJ@KMAAHMNB@D3DXGetShaderInputSemantics?3?5Unk@ 100b522c     d3dx9dt:d3dx9shader.obj
 0002:00007268       ??_C@_0EN@NKOPIGHJ@D3DXGetShaderInputSemantics?3?5Inv@ 100b5268     d3dx9dt:d3dx9shader.obj
 0002:000072b8       ??_C@_0BO@KEJFNIGM@More?5than?516?5samplers?5present?$AA@ 100b52b8     d3dx9dt:d3dx9shader.obj
 0002:000072d8       ??_C@_0BH@FMGKODKL@Invalid?5constant?5table?$AA@ 100b52d8     d3dx9dt:d3dx9shader.obj
 0002:000072f0       ??_C@_0BO@GFODELLM@Invalid?5shader?5constant?5table?$AA@ 100b52f0     d3dx9dt:d3dx9shader.obj
 0002:00007310       ??_C@_0CD@ICOFAOKA@ppConstantTable?5pointer?5is?5inval@ 100b5310     d3dx9dt:d3dx9shader.obj
 0002:00007334       ??_C@_0BP@POFBGLAJ@ppDebugInfo?5pointer?5is?5invalid?$AA@ 100b5334     d3dx9dt:d3dx9shader.obj
 0002:000073bc       ??_C@_0DI@NKPODJ@Matrix?5should?5be?516?9byte?5aligned@ 100b53bc     d3dx9dt:arraymath.obj
 0002:00007558       ?jpeg_natural_order@D3DX@@3QBHB 100b5558     d3dx9dt:jutils.obj
 0002:0000769c       ??_C@_0BA@MOKMMFOD@need?5dictionary?$AA@ 100b569c     d3dx9dt:inflate.obj
 0002:000076ac       ??_C@_0BF@MEIGEHBE@incorrect?5data?5check?$AA@ 100b56ac     d3dx9dt:inflate.obj
 0002:000076c4       ??_C@_0BH@LIBMMIGA@incorrect?5header?5check?$AA@ 100b56c4     d3dx9dt:inflate.obj
 0002:000076dc       ??_C@_0BE@EMOGCLGO@invalid?5window?5size?$AA@ 100b56dc     d3dx9dt:inflate.obj
 0002:000076f0       ??_C@_0BL@IHKGDAEE@unknown?5compression?5method?$AA@ 100b56f0     d3dx9dt:inflate.obj
 0002:0000770c       ??_C@_0O@BPALFKAJ@Out?5of?5Memory?$AA@ 100b570c     d3dx9dt:pngmem.obj
 0002:00007794       ??_C@_0BD@GFBMLKLH@invalid?5chunk?5type?$AA@ 100b5794     d3dx9dt:pngrutil.obj
 0002:000077a8       ??_C@_0CC@FECADCN@Ignoring?5bad?5adaptive?5filter?5typ@ 100b57a8     d3dx9dt:pngrutil.obj
 0002:000077cc       ??_C@_09BJGMGMHA@CRC?5error?$AA@ 100b57cc     d3dx9dt:pngrutil.obj
 0002:000077d8       ??_C@_0BO@KOOEGEDO@Unknown?5filter?5method?5in?5IHDR?$AA@ 100b57d8     d3dx9dt:pngrutil.obj
 0002:000077f8       ??_C@_0CD@DDOOCEDP@Unknown?5compression?5method?5in?5IH@ 100b57f8     d3dx9dt:pngrutil.obj
 0002:0000781c       ??_C@_0CB@EMHJMLOA@Unknown?5interlace?5method?5in?5IHDR@ 100b581c     d3dx9dt:pngrutil.obj
 0002:00007840       ??_C@_0DB@FGMBGHOJ@Invalid?5color?5type?1bit?5depth?5com@ 100b5840     d3dx9dt:pngrutil.obj
 0002:00007874       ??_C@_0BL@KPIFPGMP@Invalid?5color?5type?5in?5IHDR?$AA@ 100b5874     d3dx9dt:pngrutil.obj
 0002:00007890       ??_C@_0BK@OAKOLNFJ@Invalid?5bit?5depth?5in?5IHDR?$AA@ 100b5890     d3dx9dt:pngrutil.obj
 0002:000078ac       ??_C@_0BL@PKEOJJBA@Invalid?5image?5size?5in?5IHDR?$AA@ 100b58ac     d3dx9dt:pngrutil.obj
 0002:000078c8       ??_C@_0BD@CLODLFAN@Invalid?5IHDR?5chunk?$AA@ 100b58c8     d3dx9dt:pngrutil.obj
 0002:000078dc       ??_C@_0BC@KBAKFAAH@Out?5of?5place?5IHDR?$AA@ 100b58dc     d3dx9dt:pngrutil.obj
 0002:000078f0       ??_C@_0CH@GNNEJFAH@Truncating?5incorrect?5tRNS?5chunk?5@ 100b58f0     d3dx9dt:pngrutil.obj
 0002:00007918       ??_C@_0BG@HHEHMEJK@Invalid?5palette?5chunk?$AA@ 100b5918     d3dx9dt:pngrutil.obj
 0002:00007930       ??_C@_0BF@PMKDIIMG@Duplicate?5PLTE?5chunk?$AA@ 100b5930     d3dx9dt:pngrutil.obj
 0002:00007948       ??_C@_0BI@GEKPHPN@Invalid?5PLTE?5after?5IDAT?$AA@ 100b5948     d3dx9dt:pngrutil.obj
 0002:00007960       ??_C@_0BJ@LEBILHKO@Missing?5IHDR?5before?5PLTE?$AA@ 100b5960     d3dx9dt:pngrutil.obj
 0002:0000797c       ??_C@_0BM@PFCLLCBO@Incorrect?5IEND?5chunk?5length?$AA@ 100b597c     d3dx9dt:pngrutil.obj
 0002:00007998       ??_C@_0BB@BLPFHNNN@No?5image?5in?5file?$AA@ 100b5998     d3dx9dt:pngrutil.obj
 0002:000079ac       ??_C@_0DI@KINMKNNO@Ignoring?5incorrect?5gAMA?5value?5wh@ 100b59ac     d3dx9dt:pngrutil.obj
 0002:000079e8       __real@407f400000000000    100b59e8     d3dx9dt:pngrutil.obj
 0002:000079f0       __real@40e631e000000000    100b59f0     d3dx9dt:pngrutil.obj
 0002:000079f8       ??_C@_0BF@IMCFKHDJ@Duplicate?5gAMA?5chunk?$AA@ 100b59f8     d3dx9dt:pngrutil.obj
 0002:00007a10       ??_C@_0BI@JEEHFLME@Out?5of?5place?5gAMA?5chunk?$AA@ 100b5a10     d3dx9dt:pngrutil.obj
 0002:00007a28       ??_C@_0BI@POPIJBNN@Invalid?5gAMA?5after?5IDAT?$AA@ 100b5a28     d3dx9dt:pngrutil.obj
 0002:00007a40       ??_C@_0BM@NIAHDFBB@Incorrect?5gAMA?5chunk?5length?$AA@ 100b5a40     d3dx9dt:pngrutil.obj
 0002:00007a5c       ??_C@_0BJ@CCOIFGBO@Missing?5IHDR?5before?5gAMA?$AA@ 100b5a5c     d3dx9dt:pngrutil.obj
 0002:00007a78       __real@47c35000            100b5a78     d3dx9dt:pngrutil.obj
 0002:00007a7c       ??_C@_0BE@CEGOJHBA@Unknown?5sRGB?5intent?$AA@ 100b5a7c     d3dx9dt:pngrutil.obj
 0002:00007a90       ??_C@_0BF@EFDCKHOG@Duplicate?5sRGB?5chunk?$AA@ 100b5a90     d3dx9dt:pngrutil.obj
 0002:00007aa8       ??_C@_0BI@FNFAFLBL@Out?5of?5place?5sRGB?5chunk?$AA@ 100b5aa8     d3dx9dt:pngrutil.obj
 0002:00007ac0       ??_C@_0BI@PGAMKAKH@Invalid?5sRGB?5after?5IDAT?$AA@ 100b5ac0     d3dx9dt:pngrutil.obj
 0002:00007ad8       ??_C@_0BM@FMAJKMKD@Incorrect?5sRGB?5chunk?5length?$AA@ 100b5ad8     d3dx9dt:pngrutil.obj
 0002:00007af4       ??_C@_0BJ@NDJOEJDI@Missing?5IHDR?5before?5sRGB?$AA@ 100b5af4     d3dx9dt:pngrutil.obj
 0002:00007b10       ??_C@_0CK@JMGMOHJA@tRNS?5chunk?5not?5allowed?5with?5alph@ 100b5b10     d3dx9dt:pngrutil.obj
 0002:00007b3c       ??_C@_0BM@JNMFOMLO@Incorrect?5tRNS?5chunk?5length?$AA@ 100b5b3c     d3dx9dt:pngrutil.obj
 0002:00007b58       ??_C@_0BF@HALLDFIL@Duplicate?5tRNS?5chunk?$AA@ 100b5b58     d3dx9dt:pngrutil.obj
 0002:00007b70       ??_C@_0BI@MMDCNIMN@Invalid?5tRNS?5after?5IDAT?$AA@ 100b5b70     d3dx9dt:pngrutil.obj
 0002:00007b88       ??_C@_0BH@JJNMONHM@Zero?5length?5tRNS?5chunk?$AA@ 100b5b88     d3dx9dt:pngrutil.obj
 0002:00007ba0       ??_C@_0BJ@NIHNNFHD@Missing?5PLTE?5before?5tRNS?$AA@ 100b5ba0     d3dx9dt:pngrutil.obj
 0002:00007bbc       ??_C@_0BJ@DNLGINLH@Missing?5IHDR?5before?5tRNS?$AA@ 100b5bbc     d3dx9dt:pngrutil.obj
 0002:00007bd8       ??_C@_0BH@OMJPKJPP@unknown?5critical?5chunk?$AA@ 100b5bd8     d3dx9dt:pngrutil.obj
 0002:00007bf0       ??_C@_0BH@KJLLHDND@Extra?5compression?5data?$AA@ 100b5bf0     d3dx9dt:pngrutil.obj
 0002:00007c08       ??_C@_0BE@JLEKBIKH@Decompression?5Error?$AA@ 100b5c08     d3dx9dt:pngrutil.obj
 0002:00008020       ??_C@_0CB@KOAGPCN@failed?5to?5open?5source?5file?3?5?8?$CFs?8@ 100b6020     d3dx9dt:cpreprocessor.obj
 0002:00008044       ??_C@_0BI@LOODAFEE@failed?5to?5open?5resource?$AA@ 100b6044     d3dx9dt:cpreprocessor.obj
 0002:0000805c       ??_C@_01GFHCPBMG@C?$AA@    100b605c     d3dx9dt:cpreprocessor.obj
 0002:00008060       ??_C@_07MJAJDDLG@defined?$AA@ 100b6060     d3dx9dt:cpreprocessor.obj
 0002:00008068       ??_C@_06PGFLMPLC@pragma?$AA@ 100b6068     d3dx9dt:cpreprocessor.obj
 0002:00008070       ??_C@_05PAODFFED@endif?$AA@ 100b6070     d3dx9dt:cpreprocessor.obj
 0002:00008078       ??_C@_04FHMCPBIP@else?$AA@ 100b6078     d3dx9dt:cpreprocessor.obj
 0002:00008080       ??_C@_04GNFOIEOK@elif?$AA@ 100b6080     d3dx9dt:cpreprocessor.obj
 0002:00008088       ??_C@_06ENONKJGC@ifndef?$AA@ 100b6088     d3dx9dt:cpreprocessor.obj
 0002:00008090       ??_C@_05LOELCHJN@ifdef?$AA@ 100b6090     d3dx9dt:cpreprocessor.obj
 0002:00008098       ??_C@_02HEBPBKGD@if?$AA@   100b6098     d3dx9dt:cpreprocessor.obj
 0002:0000809c       ??_C@_05KKCIMGE@error?$AA@ 100b609c     d3dx9dt:cpreprocessor.obj
 0002:000080a4       ??_C@_07FHOHOHLG@include?$AA@ 100b60a4     d3dx9dt:cpreprocessor.obj
 0002:000080ac       ??_C@_04HJPCFDOP@line?$AA@ 100b60ac     d3dx9dt:cpreprocessor.obj
 0002:000080b4       ??_C@_05PKCPKOLM@undef?$AA@ 100b60b4     d3dx9dt:cpreprocessor.obj
 0002:000080bc       ??_C@_06EPMMJFDC@define?$AA@ 100b60bc     d3dx9dt:cpreprocessor.obj
 0002:000080c4       ??_C@_0CC@FJIILCKL@invalid?5preprocessor?5command?5?8?$CFs@ 100b60c4     d3dx9dt:cpreprocessor.obj
 0002:000080e8       ??_C@_0N@MNJHOOI@syntax?5error?$AA@ 100b60e8     d3dx9dt:cpreprocessor.obj
 0002:000080f8       ??_C@_04HDOCAJNK@?$CFs?$CFs?$AA@ 100b60f8     d3dx9dt:cpreprocessor.obj
 0002:00008100       ??_C@_0BK@HKFDBMAJ@too?5many?5nested?5?$CDincludes?$AA@ 100b6100     d3dx9dt:cpreprocessor.obj
 0002:00008120       ??_C@_0EH@JLACBPNO@include?5interface?5required?5to?5su@ 100b6120     d3dx9dt:cpreprocessor.obj
 0002:00008168       ??_C@_09FBLIBEOC@error?3?5?$CFs?$AA@ 100b6168     d3dx9dt:cpreprocessor.obj
 0002:00008174       ??_C@_0CB@MKHBBNDA@unexpected?5?$CDelif?5following?5?$CDelse@ 100b6174     d3dx9dt:cpreprocessor.obj
 0002:00008198       ??_C@_0BB@HDIEBLGL@unexpected?5?$CDelif?$AA@ 100b6198     d3dx9dt:cpreprocessor.obj
 0002:000081ac       ??_C@_0CB@EOKAOACM@unexpected?5?$CDelse?5following?5?$CDelse@ 100b61ac     d3dx9dt:cpreprocessor.obj
 0002:000081d0       ??_C@_0BB@EJBIGOAO@unexpected?5?$CDelse?$AA@ 100b61d0     d3dx9dt:cpreprocessor.obj
 0002:000081e4       ??_C@_0BC@GKECDMGK@unexpected?5?$CDendif?$AA@ 100b61e4     d3dx9dt:cpreprocessor.obj
 0002:000081f8       ??_C@_0N@PECLDJOE@column_major?$AA@ 100b61f8     d3dx9dt:cpreprocessor.obj
 0002:00008208       ??_C@_09EDKEPPJ@row_major?$AA@ 100b6208     d3dx9dt:cpreprocessor.obj
 0002:00008214       ??_C@_01PKGAHCOL@?$CJ?$AA@ 100b6214     d3dx9dt:cpreprocessor.obj
 0002:00008218       ??_C@_01ODHLEDKK@?$CI?$AA@ 100b6218     d3dx9dt:cpreprocessor.obj
 0002:0000821c       ??_C@_01ICJEACDI@?$DL?$AA@ 100b621c     d3dx9dt:cpreprocessor.obj
 0002:00008220       ??_C@_01JLIPDDHJ@?3?$AA@   100b6220     d3dx9dt:cpreprocessor.obj
 0002:00008224       ??_C@_07DLHCIBDH@default?$AA@ 100b6224     d3dx9dt:cpreprocessor.obj
 0002:0000822c       ??_C@_07DBNODEFN@disable?$AA@ 100b622c     d3dx9dt:cpreprocessor.obj
 0002:00008234       ??_C@_04KLFNICNF@once?$AA@ 100b6234     d3dx9dt:cpreprocessor.obj
 0002:0000823c       ??_C@_0CC@MBOPGJMG@internal?5error?3?5production?5faile@ 100b623c     d3dx9dt:cpreprocessor.obj
 0002:00008260       ??_C@_01IHBHIGKO@?0?$AA@   100b6260     d3dx9dt:cpreprocessor.obj
 0002:00008264       ??_C@_0BP@DMDMJAFB@duplicate?5macro?5parameter?5?8?$CFs?8?$AA@ 100b6264     d3dx9dt:cpreprocessor.obj
 0002:00008284       ??_C@_07FPLKDJGL@warning?$AA@ 100b6284     d3dx9dt:cpreprocessor.obj
 0002:0000828c       ??_C@_0M@BNJHGMGP@pack_matrix?$AA@ 100b628c     d3dx9dt:cpreprocessor.obj
 0002:00008298       ??_C@_0ED@FGKNCPBB@functional?5defines?5in?5preprocess@ 100b6298     d3dx9dt:cpreprocessor.obj
 0002:000082dc       ??_C@_0CM@BIGGCADN@not?5enough?5actual?5parameters?5for@ 100b62dc     d3dx9dt:cpreprocessor.obj
 0002:00008308       ??_C@_02IEBMKJDF@?$CD?$CD?$AA@ 100b6308     d3dx9dt:cpreprocessor.obj
 0002:0000830c       ??_C@_02MKMMJBFB@?$CD?$EA?$AA@ 100b630c     d3dx9dt:cpreprocessor.obj
 0002:00008310       ??_C@_0CK@LMLCLOHA@unexpected?5end?5of?5file?5in?5macro?5@ 100b6310     d3dx9dt:cpreprocessor.obj
 0002:0000833c       ??_C@_01IPJKGB@?$CD?$AA@   100b633c     d3dx9dt:cpreprocessor.obj
 0002:00008340       ??_C@_03IANKFOOF@Arg?$AA@  100b6340     d3dx9dt:cpreprocessor.obj
 0002:00008344       ??_C@_0N@MHBOIHHL@D3DX_VERSION?$AA@ 100b6344     d3dx9dt:cpreprocessor.obj
 0002:00008354       ??_C@_0BB@PEPJODKN@DIRECT3D_VERSION?$AA@ 100b6354     d3dx9dt:cpreprocessor.obj
 0002:00008368       ??_C@_08KOIBGIHJ@DIRECT3D?$AA@ 100b6368     d3dx9dt:cpreprocessor.obj
 0002:00008374       ??_C@_0BO@FMNBCLAG@internal?5error?3?5out?5of?5memory?$AA@ 100b6374     d3dx9dt:cpreprocessor.obj
 0002:00008394       ??_C@_05IHHHDFHJ@Stack?$AA@ 100b6394     d3dx9dt:cpreprocessor.obj
 0002:0000839c       ??_C@_0CM@JEMPDBCA@division?5by?5zero?5in?5preprocessor@ 100b639c     d3dx9dt:cpreprocessor.obj
 0002:000083c8       ??_C@_0CA@CKFKKIKI@internal?5error?3?5stack?5underflow?$AA@ 100b63c8     d3dx9dt:cpreprocessor.obj
 0002:000083e8       ??_C@_0BE@CHCCDJIL@yacc?5stack?5overflow?$AA@ 100b63e8     d3dx9dt:cpreprocessor.obj
 0002:000083fc       ??_C@_0BH@CFIIDOJD@unexpected?5end?5of?5file?$AA@ 100b63fc     d3dx9dt:cpreprocessor.obj
 0002:00008414       ??_C@_08ICCNKGAE@__LINE__?$AA@ 100b6414     d3dx9dt:cpreprocessor.obj
 0002:00008420       ??_C@_08FMJNKKCK@__FILE__?$AA@ 100b6420     d3dx9dt:cpreprocessor.obj
 0002:0000842c       ??_C@_0DD@JGLIHEND@unexpected?5tokens?5following?5prep@ 100b642c     d3dx9dt:cpreprocessor.obj
 0002:00008460       ??_C@_0M@MLFOEDLP@error?5X?$CFu?3?5?$AA@ 100b6460     d3dx9dt:ctokenize.obj
 0002:0000846c       ??_C@_06JJNAAIBA@?$CI?$CFu?$CJ?3?5?$AA@ 100b646c     d3dx9dt:ctokenize.obj
 0002:00008474       ??_C@_08DFJHLNPG@?$CFs?5X?$CFu?3?5?$AA@ 100b6474     d3dx9dt:ctokenize.obj
 0002:00008480       ??_C@_0BN@KIMDFDJF@syntax?5error?5?3?5unexpected?5?$CFs?$AA@ 100b6480     d3dx9dt:ctokenize.obj
 0002:000084a0       ??_C@_05JMKJMOPH@token?$AA@ 100b64a0     d3dx9dt:ctokenize.obj
 0002:000084a8       ??_C@_0M@IDJOOACD@end?5of?5file?$AA@ 100b64a8     d3dx9dt:ctokenize.obj
 0002:000084b4       ??_C@_0M@MKKKCMOM@end?5of?5line?$AA@ 100b64b4     d3dx9dt:ctokenize.obj
 0002:000084c0       ??_C@_0BA@KALEFPLN@string?5constant?$AA@ 100b64c0     d3dx9dt:ctokenize.obj
 0002:000084d0       ??_C@_0L@IAIHLMD@token?5?8?$CFs?8?$AA@ 100b64d0     d3dx9dt:ctokenize.obj
 0002:000084dc       ??_C@_0M@LLKJECAK@float?5?8?$CFgl?8?$AA@ 100b64dc     d3dx9dt:ctokenize.obj
 0002:000084e8       ??_C@_0M@LGDOMHNM@float?5?8?$CFgf?8?$AA@ 100b64e8     d3dx9dt:ctokenize.obj
 0002:000084f4       ??_C@_0M@LMKAOKNG@float?5?8?$CFgh?8?$AA@ 100b64f4     d3dx9dt:ctokenize.obj
 0002:00008500       ??_C@_0L@BEICCKBA@float?5?8?$CFg?8?$AA@ 100b6500     d3dx9dt:ctokenize.obj
 0002:0000850c       ??_C@_0P@FDDIJABK@integer?5?8?$CFuul?8?$AA@ 100b650c     d3dx9dt:ctokenize.obj
 0002:0000851c       ??_C@_0O@MGNGKBFC@integer?5?8?$CFdl?8?$AA@ 100b651c     d3dx9dt:ctokenize.obj
 0002:0000852c       ??_C@_0N@HBBLAKNI@integer?5?8?$CFu?8?$AA@ 100b652c     d3dx9dt:ctokenize.obj
 0002:0000853c       ??_C@_0O@PGOEEGGO@version?5token?$AA@ 100b653c     d3dx9dt:ctokenize.obj
 0002:0000854c       ??_C@_0CD@IFAMMCMM@comment?5continues?5past?5end?5of?5fi@ 100b654c     d3dx9dt:ctokenize.obj
 0002:00008570       ??_C@_0BO@NIABELBF@hex?5value?5truncated?5to?532bits?$AA@ 100b6570     d3dx9dt:ctokenize.obj
 0002:00008590       ??_C@_0CA@DNBKJEDM@octal?5value?5truncated?5to?532bits?$AA@ 100b6590     d3dx9dt:ctokenize.obj
 0002:000085b0       ??_C@_0CC@PCFJBEKG@decimal?5value?5truncated?5to?532bit@ 100b65b0     d3dx9dt:ctokenize.obj
 0002:000085d4       ??_C@_0CF@HEACLEH@character?5continues?5past?5end?5of?5@ 100b65d4     d3dx9dt:ctokenize.obj
 0002:000085fc       ??_C@_0CC@JGLGBPGD@string?5continues?5past?5end?5of?5lin@ 100b65fc     d3dx9dt:ctokenize.obj
 0002:00008620       ??_C@_0CC@NPICNDKM@string?5continues?5past?5end?5of?5fil@ 100b6620     d3dx9dt:ctokenize.obj
 0002:00008644       ??_C@_0BH@NOMHDMPN@D3DX9?5Shader?5Assembler?$AA@ 100b6644     d3dx9dt:cassembler.obj
 0002:0000a328       ??_C@_01FMEDJKGI@o?$AA@    100b8328     d3dx9dt:cassembler.obj
 0002:0000a32c       ??_C@_01JBBJJEPG@p?$AA@    100b832c     d3dx9dt:cassembler.obj
 0002:0000a330       ??_C@_01HHGOMJKL@l?$AA@    100b8330     d3dx9dt:cassembler.obj
 0002:0000a334       ??_C@_05JFHEGHJE@vFace?$AA@ 100b8334     d3dx9dt:cassembler.obj
 0002:0000a33c       ??_C@_04MDNLLEAH@vPos?$AA@ 100b833c     d3dx9dt:cassembler.obj
 0002:0000a344       ??_C@_02BFGHIHPD@aL?$AA@   100b8344     d3dx9dt:cassembler.obj
 0002:0000a348       ??_C@_01OJONOECF@b?$AA@    100b8348     d3dx9dt:cassembler.obj
 0002:0000a34c       ??_C@_01LKDEMHDF@s?$AA@    100b834c     d3dx9dt:cassembler.obj
 0002:0000a350       ??_C@_06EPJFCNHF@oDepth?$AA@ 100b8350     d3dx9dt:cassembler.obj
 0002:0000a358       ??_C@_02JIGBLGDG@oC?$AA@   100b8358     d3dx9dt:cassembler.obj
 0002:0000a35c       ??_C@_01KBJDNOO@i?$AA@     100b835c     d3dx9dt:cassembler.obj
 0002:0000a360       ??_C@_02JNOCDCKA@oT?$AA@   100b8360     d3dx9dt:cassembler.obj
 0002:0000a364       ??_C@_02NHCACAPB@oD?$AA@   100b8364     d3dx9dt:cassembler.obj
 0002:0000a368       ??_C@_04PFPHJOOC@oFog?$AA@ 100b8368     d3dx9dt:cassembler.obj
 0002:0000a370       ??_C@_04LOFIANGF@oPts?$AA@ 100b8370     d3dx9dt:cassembler.obj
 0002:0000a378       ??_C@_04KOCLEBPE@oPos?$AA@ 100b8378     d3dx9dt:cassembler.obj
 0002:0000a380       ??_C@_01PFHFFBPC@t?$AA@    100b8380     d3dx9dt:cassembler.obj
 0002:0000a384       ??_C@_01MCMALHOG@a?$AA@    100b8384     d3dx9dt:cassembler.obj
 0002:0000a388       ??_C@_01PAPGNFGE@c?$AA@    100b8388     d3dx9dt:cassembler.obj
 0002:0000a38c       ??_C@_01KDCPPGHE@r?$AA@    100b838c     d3dx9dt:cassembler.obj
 0002:0000a390       ??_C@_01MHEDDDHA@v?$AA@    100b8390     d3dx9dt:cassembler.obj
 0002:0000a394       ??_C@_07EKJIKHKN@break_c?$AA@ 100b8394     d3dx9dt:cassembler.obj
 0002:0000a39c       ??_C@_04JKICOEOI@if_c?$AA@ 100b839c     d3dx9dt:cassembler.obj
 0002:0000a3a4       ??_C@_05CBPKLGJM@phase?$AA@ 100b83a4     d3dx9dt:cassembler.obj
 0002:0000a3ac       ??_C@_06BMEJOOLC@texldl?$AA@ 100b83ac     d3dx9dt:cassembler.obj
 0002:0000a3b4       ??_C@_04PHJACMLG@setp?$AA@ 100b83b4     d3dx9dt:cassembler.obj
 0002:0000a3bc       ??_C@_06NEJAGELK@texldd?$AA@ 100b83bc     d3dx9dt:cassembler.obj
 0002:0000a3c4       ??_C@_03MCLFFEAB@dsy?$AA@  100b83c4     d3dx9dt:cassembler.obj
 0002:0000a3c8       ??_C@_03NLKOGFEA@dsx?$AA@  100b83c8     d3dx9dt:cassembler.obj
 0002:0000a3cc       ??_C@_06HMPDGJ@dp2add?$AA@ 100b83cc     d3dx9dt:cassembler.obj
 0002:0000a3d4       ??_C@_03NBNLADEK@bem?$AA@  100b83d4     d3dx9dt:cassembler.obj
 0002:0000a3d8       ??_C@_03JIBIFJIL@cmp?$AA@  100b83d8     d3dx9dt:cassembler.obj
 0002:0000a3dc       ??_C@_08KEGBHNNF@texdepth?$AA@ 100b83dc     d3dx9dt:cassembler.obj
 0002:0000a3e8       ??_C@_07KBINOLHJ@texm3x3?$AA@ 100b83e8     d3dx9dt:cassembler.obj
 0002:0000a3f0       ??_C@_06PPPBIMGK@texdp3?$AA@ 100b83f0     d3dx9dt:cassembler.obj
 0002:0000a3f8       ??_C@_0N@FKGOHOIG@texm3x2depth?$AA@ 100b83f8     d3dx9dt:cassembler.obj
 0002:0000a408       ??_C@_09FFGLJGDK@texdp3tex?$AA@ 100b8408     d3dx9dt:cassembler.obj
 0002:0000a414       ??_C@_0L@IELIFMKH@texreg2rgb?$AA@ 100b8414     d3dx9dt:cassembler.obj
 0002:0000a420       ??_C@_04ECAGGAOJ@defb?$AA@ 100b8420     d3dx9dt:cassembler.obj
 0002:0000a428       ??_C@_04KBPCLJCC@defi?$AA@ 100b8428     d3dx9dt:cassembler.obj
 0002:0000a430       ??_C@_03BHEEIFFN@def?$AA@  100b8430     d3dx9dt:cassembler.obj
 0002:0000a434       ??_C@_03LEPADAIH@cnd?$AA@  100b8434     d3dx9dt:cassembler.obj
 0002:0000a438       ??_C@_04GEPNNBKI@logp?$AA@ 100b8438     d3dx9dt:cassembler.obj
 0002:0000a440       ??_C@_04LNEKGJAK@expp?$AA@ 100b8440     d3dx9dt:cassembler.obj
 0002:0000a448       ??_C@_0N@KDLHKEAM@texm3x3vspec?$AA@ 100b8448     d3dx9dt:cassembler.obj
 0002:0000a458       ??_C@_0M@EJPNKOAD@texm3x3spec?$AA@ 100b8458     d3dx9dt:cassembler.obj
 0002:0000a464       ??_C@_0L@DIAEELDK@texm3x3tex?$AA@ 100b8464     d3dx9dt:cassembler.obj
 0002:0000a470       ??_C@_0L@FGBICJOM@texm3x3pad?$AA@ 100b8470     d3dx9dt:cassembler.obj
 0002:0000a47c       ??_C@_0L@FGEGCIK@texm3x2tex?$AA@ 100b847c     d3dx9dt:cassembler.obj
 0002:0000a488       ??_C@_0L@GLHIAAFM@texm3x2pad?$AA@ 100b8488     d3dx9dt:cassembler.obj
 0002:0000a494       ??_C@_09MCDLOMLJ@texreg2gb?$AA@ 100b8494     d3dx9dt:cassembler.obj
 0002:0000a4a0       ??_C@_09IMHEICFK@texreg2ar?$AA@ 100b84a0     d3dx9dt:cassembler.obj
 0002:0000a4ac       ??_C@_07OKHFAMNG@texbeml?$AA@ 100b84ac     d3dx9dt:cassembler.obj
 0002:0000a4b4       ??_C@_06OEEPMCPH@texbem?$AA@ 100b84b4     d3dx9dt:cassembler.obj
 0002:0000a4bc       ??_C@_06ICMKMDDM@texldb?$AA@ 100b84bc     d3dx9dt:cassembler.obj
 0002:0000a4c4       ??_C@_06PKDOLDOP@texldp?$AA@ 100b84c4     d3dx9dt:cassembler.obj
 0002:0000a4cc       ??_C@_05GBILPNCC@texld?$AA@ 100b84cc     d3dx9dt:cassembler.obj
 0002:0000a4d4       ??_C@_03JDBMONBN@tex?$AA@  100b84d4     d3dx9dt:cassembler.obj
 0002:0000a4d8       ??_C@_07KMHBLLCI@texkill?$AA@ 100b84d8     d3dx9dt:cassembler.obj
 0002:0000a4e0       ??_C@_06JEFIKLCO@texcrd?$AA@ 100b84e0     d3dx9dt:cassembler.obj
 0002:0000a4e8       ??_C@_08FDJGCBLL@texcoord?$AA@ 100b84e8     d3dx9dt:cassembler.obj
 0002:0000a4f4       ??_C@_04BHKABCEP@mova?$AA@ 100b84f4     d3dx9dt:cassembler.obj
 0002:0000a4fc       ??_C@_06IBKFOEOL@breakp?$AA@ 100b84fc     d3dx9dt:cassembler.obj
 0002:0000a504       ??_C@_05ELPHFHOI@break?$AA@ 100b8504     d3dx9dt:cassembler.obj
 0002:0000a50c       ??_C@_06EFEEOEEO@endrep?$AA@ 100b850c     d3dx9dt:cassembler.obj
 0002:0000a514       ??_C@_03HOKODIMJ@rep?$AA@  100b8514     d3dx9dt:cassembler.obj
 0002:0000a518       ??_C@_06NIOAIDEM@sincos?$AA@ 100b8518     d3dx9dt:cassembler.obj
 0002:0000a520       ??_C@_03ICGEAJAH@nrm?$AA@  100b8520     d3dx9dt:cassembler.obj
 0002:0000a524       ??_C@_03BCGAIFPO@abs?$AA@  100b8524     d3dx9dt:cassembler.obj
 0002:0000a528       ??_C@_03BBNHLEBN@sgn?$AA@  100b8528     d3dx9dt:cassembler.obj
 0002:0000a52c       ??_C@_03KEEPOOAF@crs?$AA@  100b852c     d3dx9dt:cassembler.obj
 0002:0000a530       ??_C@_03JGHBODFD@pow?$AA@  100b8530     d3dx9dt:cassembler.obj
 0002:0000a534       ??_C@_03OJCGBBGF@dcl?$AA@  100b8534     d3dx9dt:cassembler.obj
 0002:0000a538       ??_C@_05IDCCNNGI@label?$AA@ 100b8538     d3dx9dt:cassembler.obj
 0002:0000a540       ??_C@_07BJAJHMEP@endloop?$AA@ 100b8540     d3dx9dt:cassembler.obj
 0002:0000a548       ??_C@_03BKMCPNMN@ret?$AA@  100b8548     d3dx9dt:cassembler.obj
 0002:0000a54c       ??_C@_04GKOOIABA@loop?$AA@ 100b854c     d3dx9dt:cassembler.obj
 0002:0000a554       ??_C@_06KBMOAPKH@callnz?$AA@ 100b8554     d3dx9dt:cassembler.obj
 0002:0000a55c       ??_C@_04OMFAIDPG@call?$AA@ 100b855c     d3dx9dt:cassembler.obj
 0002:0000a564       ??_C@_04NHDIBMI@m3x2?$AA@  100b8564     d3dx9dt:cassembler.obj
 0002:0000a56c       ??_C@_04BEGILAIJ@m3x3?$AA@ 100b856c     d3dx9dt:cassembler.obj
 0002:0000a574       ??_C@_04FLCJCGEO@m3x4?$AA@ 100b8574     d3dx9dt:cassembler.obj
 0002:0000a57c       ??_C@_04IJLPIIDA@m4x3?$AA@ 100b857c     d3dx9dt:cassembler.obj
 0002:0000a584       ??_C@_04MGPOBOPH@m4x4?$AA@ 100b8584     d3dx9dt:cassembler.obj
 0002:0000a58c       ??_C@_03NJFDAMGG@frc?$AA@  100b858c     d3dx9dt:cassembler.obj
 0002:0000a590       ??_C@_03NHABKNJA@lrp?$AA@  100b8590     d3dx9dt:cassembler.obj
 0002:0000a594       ??_C@_03HHBLCKEM@dst?$AA@  100b8594     d3dx9dt:cassembler.obj
 0002:0000a598       ??_C@_03KDBOCEAF@lit?$AA@  100b8598     d3dx9dt:cassembler.obj
 0002:0000a59c       ??_C@_03MGHMBJCF@log?$AA@  100b859c     d3dx9dt:cassembler.obj
 0002:0000a5a0       ??_C@_03KHJOGHMM@exp?$AA@  100b85a0     d3dx9dt:cassembler.obj
 0002:0000a5a4       ??_C@_03PCCDGNNG@sge?$AA@  100b85a4     d3dx9dt:cassembler.obj
 0002:0000a5a8       ??_C@_03KNKPKBCH@slt?$AA@  100b85a8     d3dx9dt:cassembler.obj
 0002:0000a5ac       ??_C@_03LJAEFNNE@max?$AA@  100b85ac     d3dx9dt:cassembler.obj
 0002:0000a5b0       ??_C@_03KLIPLJLL@min?$AA@  100b85b0     d3dx9dt:cassembler.obj
 0002:0000a5b4       ??_C@_03IFCENLBA@dp4?$AA@  100b85b4     d3dx9dt:cassembler.obj
 0002:0000a5b8       ??_C@_03MKGFENNH@dp3?$AA@  100b85b8     d3dx9dt:cassembler.obj
 0002:0000a5bc       ??_C@_03HPBONGEK@rsq?$AA@  100b85bc     d3dx9dt:cassembler.obj
 0002:0000a5c0       ??_C@_03HKCDEEHL@rcp?$AA@  100b85c0     d3dx9dt:cassembler.obj
 0002:0000a5c4       ??_C@_03IMIFIBCN@mul?$AA@  100b85c4     d3dx9dt:cassembler.obj
 0002:0000a5c8       ??_C@_03FPHDAAIJ@mad?$AA@  100b85c8     d3dx9dt:cassembler.obj
 0002:0000a5cc       ??_C@_03KCMAIMAP@sub?$AA@  100b85cc     d3dx9dt:cassembler.obj
 0002:0000a5d0       ??_C@_03BDGOHNNK@add?$AA@  100b85d0     d3dx9dt:cassembler.obj
 0002:0000a5d4       ??_C@_03CNBJFNFA@mov?$AA@  100b85d4     d3dx9dt:cassembler.obj
 0002:0000a5d8       ??_C@_03GJPGFFDI@nop?$AA@  100b85d8     d3dx9dt:cassembler.obj
 0002:0000a5e0       ??_C@_0IE@GCIDJPHM@ID3DXFragmentLinker?3?5DIFFUSE?5and@ 100b85e0     d3dx9dt:cassembler.obj
 0002:0000a664       ??_C@_08EABEDICH@SPECULAR?$AA@ 100b8664     d3dx9dt:cassembler.obj
 0002:0000a670       ??_C@_07PHAMEMIK@DIFFUSE?$AA@ 100b8670     d3dx9dt:cassembler.obj
 0002:0000a678       ??_C@_06CLEKFGNM@SAMPLE?$AA@ 100b8678     d3dx9dt:cassembler.obj
 0002:0000a680       ??_C@_05NCPPINNM@DEPTH?$AA@ 100b8680     d3dx9dt:cassembler.obj
 0002:0000a688       ??_C@_03KEDKDEDN@FOG?$AA@  100b8688     d3dx9dt:cassembler.obj
 0002:0000a68c       ??_C@_05DPNLPLKI@COLOR?$AA@ 100b868c     d3dx9dt:cassembler.obj
 0002:0000a694       ??_C@_0L@FOOOLPDH@POSITIONT?5?$AA@ 100b8694     d3dx9dt:cassembler.obj
 0002:0000a6a0       ??_C@_0L@PPFCHDAK@TESSFACTOR?$AA@ 100b86a0     d3dx9dt:cassembler.obj
 0002:0000a6ac       ??_C@_08DDEDFEDO@BINORMAL?$AA@ 100b86ac     d3dx9dt:cassembler.obj
 0002:0000a6b8       ??_C@_07HOFFNMLH@TANGENT?$AA@ 100b86b8     d3dx9dt:cassembler.obj
 0002:0000a6c0       ??_C@_08CMDKBPJM@TEXCOORD?$AA@ 100b86c0     d3dx9dt:cassembler.obj
 0002:0000a6cc       ??_C@_05DHDJOECB@PSIZE?$AA@ 100b86cc     d3dx9dt:cassembler.obj
 0002:0000a6d4       ??_C@_06IOJAGNKJ@NORMAL?$AA@ 100b86d4     d3dx9dt:cassembler.obj
 0002:0000a6dc       ??_C@_0N@DBILKEJG@BLENDINDICES?$AA@ 100b86dc     d3dx9dt:cassembler.obj
 0002:0000a6ec       ??_C@_0M@NKNBBMD@BLENDWEIGHT?$AA@ 100b86ec     d3dx9dt:cassembler.obj
 0002:0000a6f8       ??_C@_08JPMAAECC@POSITION?$AA@ 100b86f8     d3dx9dt:cassembler.obj
 0002:0000a704       ??_C@_07NFANNNEC@UNKNOWN?$AA@ 100b8704     d3dx9dt:cassembler.obj
 0002:0000a70c       ??_C@_09LCIBJLA@POSITIONT?$AA@ 100b870c     d3dx9dt:cassembler.obj
 0002:0000a718       ??_C@_0CD@MJEDDOIP@invalid?5instruction?5modifiers?5?8?$CF@ 100b8718     d3dx9dt:cassembler.obj
 0002:0000a73c       ??_C@_0DH@CMLFLCOE@?8?$CFs?8?5is?5not?5a?5valid?5instruction?5@ 100b873c     d3dx9dt:cassembler.obj
 0002:0000a774       ??_C@_02FJPJILEL@le?$AA@   100b8774     d3dx9dt:cassembler.obj
 0002:0000a778       ??_C@_02FKHNFPCF@ne?$AA@   100b8778     d3dx9dt:cassembler.obj
 0002:0000a77c       ??_C@_02KCAKIFL@lt?$AA@    100b877c     d3dx9dt:cassembler.obj
 0002:0000a780       ??_C@_02FFKMGEKK@ge?$AA@   100b8780     d3dx9dt:cassembler.obj
 0002:0000a784       ??_C@_02HIIGGHJB@eq?$AA@   100b8784     d3dx9dt:cassembler.obj
 0002:0000a788       ??_C@_02GHFEHLK@gt?$AA@    100b8788     d3dx9dt:cassembler.obj
 0002:0000a78c       ??_C@_06CPGBIIAO@sample?$AA@ 100b878c     d3dx9dt:cassembler.obj
 0002:0000a794       ??_C@_05BJGJGKJC@depth?$AA@ 100b8794     d3dx9dt:cassembler.obj
 0002:0000a79c       ??_C@_03KJMBPJEB@fog?$AA@  100b879c     d3dx9dt:cassembler.obj
 0002:0000a7a0       ??_C@_05PEENBMOG@color?$AA@ 100b87a0     d3dx9dt:cassembler.obj
 0002:0000a7a8       ??_C@_09DLNJCEEH@positiont?$AA@ 100b87a8     d3dx9dt:cassembler.obj
 0002:0000a7b4       ??_C@_0L@EJDPMBCK@tessfactor?$AA@ 100b87b4     d3dx9dt:cassembler.obj
 0002:0000a7c0       ??_C@_08EMOPGKBJ@binormal?$AA@ 100b87c0     d3dx9dt:cassembler.obj
 0002:0000a7cc       ??_C@_07IDAIGADD@tangent?$AA@ 100b87cc     d3dx9dt:cassembler.obj
 0002:0000a7d4       ??_C@_05PMKPADGP@psize?$AA@ 100b87d4     d3dx9dt:cassembler.obj
 0002:0000a7dc       ??_C@_06IKLLLDHL@normal?$AA@ 100b87dc     d3dx9dt:cassembler.obj
 0002:0000a7e4       ??_C@_0N@CMKJIGLL@blendindices?$AA@ 100b87e4     d3dx9dt:cassembler.obj
 0002:0000a7f4       ??_C@_0M@KDPBHIBL@blendweight?$AA@ 100b87f4     d3dx9dt:cassembler.obj
 0002:0000a800       ??_C@_08OAGMDKAF@position?$AA@ 100b8800     d3dx9dt:cassembler.obj
 0002:0000a80c       ??_C@_02HLHADHEL@pp?$AA@   100b880c     d3dx9dt:cassembler.obj
 0002:0000a810       ??_C@_06EMCPHFGM@volume?$AA@ 100b8810     d3dx9dt:cassembler.obj
 0002:0000a818       ??_C@_04OIHHNFHN@cube?$AA@ 100b8818     d3dx9dt:cassembler.obj
 0002:0000a820       ??_C@_02CGMALJLA@2d?$AA@   100b8820     d3dx9dt:cassembler.obj
 0002:0000a824       ??_C@_02FIPPPJOK@d8?$AA@   100b8824     d3dx9dt:cassembler.obj
 0002:0000a828       ??_C@_02PEEKLGOG@d4?$AA@   100b8828     d3dx9dt:cassembler.obj
 0002:0000a82c       ??_C@_02KCBABBGA@d2?$AA@   100b882c     d3dx9dt:cassembler.obj
 0002:0000a830       ??_C@_02LHCMELHE@x2?$AA@   100b8830     d3dx9dt:cassembler.obj
 0002:0000a834       ??_C@_02OBHGOMPC@x4?$AA@   100b8834     d3dx9dt:cassembler.obj
 0002:0000a838       ??_C@_02ENMDKDPO@x8?$AA@   100b8838     d3dx9dt:cassembler.obj
 0002:0000a83c       ??_C@_08JOJIKHG@centroid?$AA@ 100b883c     d3dx9dt:cassembler.obj
 0002:0000a848       ??_C@_03KFHHDCHE@sat?$AA@  100b8848     d3dx9dt:cassembler.obj
 0002:0000a84c       ??_C@_0BC@OLOFEEHK@invalid?5mask?5?8?$CFs?8?$AA@ 100b884c     d3dx9dt:cassembler.obj
 0002:0000a860       ??_C@_0BF@HCOGMEGH@invalid?5swizzle?5?8?$CFs?8?$AA@ 100b8860     d3dx9dt:cassembler.obj
 0002:0000a878       ??_C@_0CK@OOJOMBM@internal?5error?3?5instruction?5size@ 100b8878     d3dx9dt:cassembler.obj
 0002:0000a8a4       ??_C@_0DO@ODLPCPFA@only?5a0?4x?5is?5allowed?5as?5a?5relati@ 100b88a4     d3dx9dt:cassembler.obj
 0002:0000a8e4       ??_C@_0DD@GOMDFKNO@source?5modifiers?5incompatible?5wi@ 100b88e4     d3dx9dt:cassembler.obj
 0002:0000a918       ??_C@_0EK@NBDIIGO@relative?5addressing?5of?5predicate@ 100b8918     d3dx9dt:cassembler.obj
 0002:0000a964       ??_C@_0CP@MGCFIDAM@source?5modifiers?5are?5not?5allowed@ 100b8964     d3dx9dt:cassembler.obj
 0002:0000a994       ??_C@_0DE@FGKBEK@predicates?5are?5not?5supported?5in?5@ 100b8994     d3dx9dt:cassembler.obj
 0002:0000a9c8       ??_C@_0FG@FCLIIPMN@relative?5addressing?5of?5destinati@ 100b89c8     d3dx9dt:cassembler.obj
 0002:0000aa20       ??_C@_0FA@OOIKMLNO@only?5one?5address?5register?5refere@ 100b8a20     d3dx9dt:cassembler.obj
 0002:0000aa70       ??_C@_0DL@OMAEJHPC@source?5modifiers?5are?5not?5allowed@ 100b8a70     d3dx9dt:cassembler.obj
 0002:0000aab0       ??_C@_0FA@KPDDNGND@call?0?5callnz?0?5label?0?5and?5ret?5ins@ 100b8ab0     d3dx9dt:cassembler.obj
 0002:0000ab00       ??_C@_0EI@PMOHFJJO@Matrices?5cannot?5be?5specified?5in?5@ 100b8b00     d3dx9dt:cassembler.obj
 0002:0000ab48       ??_C@_02GKOINLEI@r_?$AA@   100b8b48     d3dx9dt:cassembler.obj
 0002:0000ab4c       ??_C@_02GNOBHDJE@v_?$AA@   100b8b4c     d3dx9dt:cassembler.obj
 0002:0000ab50       ??_C@_0CL@LFOONOMK@fragment?5info?5exceeds?5maximum?5co@ 100b8b50     d3dx9dt:cassembler.obj
 0002:0000ab7c       ??_C@_0DP@DBAJKLBB@debug?5info?5exceeds?5maximum?5comme@ 100b8b7c     d3dx9dt:cassembler.obj
 0002:0000abbb       ??_C@_00CNPNBAHC@?$AA@     100b8bbb     d3dx9dt:cassembler.obj
 0002:0000abc0       ??_C@_0EN@EDDHNMBH@constant?5register?5address?5out?5of@ 100b8bc0     d3dx9dt:cassembler.obj
 0002:0000ac10       ??_C@_0DK@LHKGOFLH@constant?5register?5?8?$CFs?8?5must?5be?5d@ 100b8c10     d3dx9dt:cassembler.obj
 0002:0000ac50       ??_C@_0HE@PMJLMPBK@?8?$CFs?8?5is?5not?5a?5valid?5register?5nam@ 100b8c50     d3dx9dt:cassembler.obj
 0002:0000acc4       ??_C@_02HKJLJHNJ@i_?$AA@   100b8cc4     d3dx9dt:cassembler.obj
 0002:0000acc8       ??_C@_02HGMOHIDI@b_?$AA@   100b8cc8     d3dx9dt:cassembler.obj
 0002:0000accc       ??_C@_02HHAMBCAP@c_?$AA@   100b8ccc     d3dx9dt:cassembler.obj
 0002:0000acd0       ??_C@_0DO@BHPEKDGB@addressing?5operations?5not?5allowe@ 100b8cd0     d3dx9dt:cassembler.obj
 0002:0000ad10       ??_C@_0DO@CINKJAFB@addressing?5operations?5are?5not?5al@ 100b8d10     d3dx9dt:cassembler.obj
 0002:0000ad50       ??_C@_0CG@NCKHPBIL@Invalid?5input?5register?5?8?$CFs?8?5spec@ 100b8d50     d3dx9dt:cassembler.obj
 0002:0000ad78       ??_C@_0CP@KIKGPAFB@invalid?5register?0?5input?0?5or?5cons@ 100b8d78     d3dx9dt:cassembler.obj
 0002:0000ada8       ??_C@_05LAPONLG@false?$AA@ 100b8da8     d3dx9dt:cassembler.obj
 0002:0000adb0       ??_C@_04LOAJBDKD@true?$AA@ 100b8db0     d3dx9dt:cassembler.obj
 0002:0000adb8       ??_C@_0L@BPGLNOGK@entrypoint?$AA@ 100b8db8     d3dx9dt:cassembler.obj
 0002:0000adc4       ??_C@_0BG@CDEBKFJO@invalid?5register?5?8?$CFs?8?$AA@ 100b8dc4     d3dx9dt:cassembler.obj
 0002:0000addc       ??_C@_0BL@ENKBHICH@invalid?5register?5?8?$CFs?$FL?4?4?4?$FN?8?$AA@ 100b8ddc     d3dx9dt:cassembler.obj
 0002:0000adf8       ??_C@_0BK@FOKIDEMM@invalid?5register?5?8?$CFs?$FL?$CFu?$FN?8?$AA@ 100b8df8     d3dx9dt:cassembler.obj
 0002:0000ae14       ??_C@_02DDIGBPPH@da?$AA@   100b8e14     d3dx9dt:cassembler.obj
 0002:0000ae18       ??_C@_02CPBOKKCA@dw?$AA@   100b8e18     d3dx9dt:cassembler.obj
 0002:0000ae1c       ??_C@_02BIKLEMDE@db?$AA@   100b8e1c     d3dx9dt:cassembler.obj
 0002:0000ae20       ??_C@_02JKLANEGN@dz?$AA@   100b8e20     d3dx9dt:cassembler.obj
 0002:0000ae24       ??_C@_03PIAGHCPC@bx2?$AA@  100b8e24     d3dx9dt:cassembler.obj
 0002:0000ae28       ??_C@_04NBAGBPGE@bias?$AA@ 100b8e28     d3dx9dt:cassembler.obj
 0002:0000ae30       ??_C@_0EH@EMLNKHPK@temporary?5and?5constant?5registers@ 100b8e30     d3dx9dt:cassembler.obj
 0002:0000ae78       ??_C@_0EN@JJAJIHLJ@only?5one?5address?5register?5refere@ 100b8e78     d3dx9dt:cassembler.obj
 0002:0000aec8       ??_C@_0CE@OJBKLNIJ@scalar?5registers?5cannot?5be?5swizz@ 100b8ec8     d3dx9dt:cassembler.obj
 0002:0000aeec       ??_C@_0DD@GNHGMJHC@complement?5is?5not?5supported?5in?5t@ 100b8eec     d3dx9dt:cassembler.obj
 0002:0000af20       ??_C@_0CP@LILJCPPC@complement?5cannot?5be?5used?5with?5o@ 100b8f20     d3dx9dt:cassembler.obj
 0002:0000af50       ??_C@_0BO@MOIAKPAE@invalid?5complement?5expression?$AA@ 100b8f50     d3dx9dt:cassembler.obj
 0002:0000af70       ??_C@_0CP@DFLODLPG@negate?5and?5divide?5modifiers?5cann@ 100b8f70     d3dx9dt:cassembler.obj
 0002:0000afa0       ??_C@_0CI@OBKELLM@not?5cannot?5be?5used?5with?5other?5mo@ 100b8fa0     d3dx9dt:cassembler.obj
 0002:0000afc8       ??_C@_0CC@GOEOADD@scalar?5registers?5cannot?5be?5maske@ 100b8fc8     d3dx9dt:cassembler.obj
 0002:0000aff0       ??_C@_0EA@OBEGANPP@instruction?5predication?5is?5not?5s@ 100b8ff0     d3dx9dt:cassembler.obj
 0002:0000b030       ??_C@_0DM@PNIGIHLP@instruction?5coissue?5is?5not?5suppo@ 100b9030     d3dx9dt:cassembler.obj
 0002:0000b06c       ??_C@_0BP@IMMCKKEG@Direct3DShaderValidatorCreate9?$AA@ 100b906c     d3dx9dt:cassembler.obj
 0002:0000b090       ??_C@_0EO@HKJOFKHI@only?5vs_1_1?0?5vs_2_0?0?5vs_2_x?0?5and@ 100b9090     d3dx9dt:cassembler.obj
 0002:0000b0e0       ??_C@_0BM@ONDMKAHF@unrecognized?5shader?5version?$AA@ 100b90e0     d3dx9dt:cassembler.obj
 0002:0000b0fc       ??_C@_0CM@ICEBBLON@ps_1_0?5is?5no?5longer?5supported?$DL?5u@ 100b90fc     d3dx9dt:cassembler.obj
 0002:0000b128       ??_C@_0CM@BNGBLPJL@vs_1_0?5is?5no?5longer?5supported?$DL?5u@ 100b9128     d3dx9dt:cassembler.obj
 0002:0000b154       ??_C@_0BI@FLANODHC@shader?5version?5expected?$AA@ 100b9154     d3dx9dt:cassembler.obj
 0002:0000b16c       ??_C@_0BM@IPFANDCP@ppShader?5pointer?5is?5invalid?$AA@ 100b916c     d3dx9dt:cassembler.obj
 0002:0000b188       ??_C@_0BL@JMMMMHAF@Flags?5parameter?5is?5invalid?$AA@ 100b9188     d3dx9dt:cassembler.obj
 0002:0000b1a4       ??_C@_0CI@POGFLCCH@internal?5error?3?5result?5register?5@ 100b91a4     d3dx9dt:ccompiler.obj
 0002:0000b1cc       ??_C@_0CP@EGCODCM@internal?5error?3?5argument?5missing@ 100b91cc     d3dx9dt:ccompiler.obj
 0002:0000b1fc       ??_C@_0BN@MGNLPBPN@internal?5error?3?5unknown?5node?$AA@ 100b91fc     d3dx9dt:ccompiler.obj
 0002:0000b220       __real@bfdffffffc06f3a6    100b9220     d3dx9dt:ccompiler.obj
 0002:0000b228       __real@3fa555547fbaf47e    100b9228     d3dx9dt:ccompiler.obj
 0002:0000b230       __real@bf56c13745d11568    100b9230     d3dx9dt:ccompiler.obj
 0002:0000b238       __real@3ef9f6b4176d5bad    100b9238     d3dx9dt:ccompiler.obj
 0002:0000b240       __real@be90f02c6b8de73b    100b9240     d3dx9dt:ccompiler.obj
 0002:0000b248       __real@c00921fb60000000    100b9248     d3dx9dt:ccompiler.obj
 0002:0000b250       __real@401921fb60000000    100b9250     d3dx9dt:ccompiler.obj
 0002:0000b258       __real@3fd0000000000000    100b9258     d3dx9dt:ccompiler.obj
 0002:0000b260       __real@3fc45f306446f9b4    100b9260     d3dx9dt:ccompiler.obj
 0002:0000b268       __real@3ff921fb60000000    100b9268     d3dx9dt:ccompiler.obj
 0002:0000b270       __real@400921fb60000000    100b9270     d3dx9dt:ccompiler.obj
 0002:0000b278       __real@c000000000000000    100b9278     d3dx9dt:ccompiler.obj
 0002:0000b280       __real@3ff921b485ae2a4a    100b9280     d3dx9dt:ccompiler.obj
 0002:0000b288       __real@bfcb26908d815d63    100b9288     d3dx9dt:ccompiler.obj
 0002:0000b290       __real@3fb302c4d65e4606    100b9290     d3dx9dt:ccompiler.obj
 0002:0000b298       __real@bf932dc60be86b8f    100b9298     d3dx9dt:ccompiler.obj
 0002:0000b2a0       __real@3feffee6fb4c3c19    100b92a0     d3dx9dt:ccompiler.obj
 0002:0000b2a8       __real@bfd523a08398a655    100b92a8     d3dx9dt:ccompiler.obj
 0002:0000b2b0       __real@3fc70edc3bd59924    100b92b0     d3dx9dt:ccompiler.obj
 0002:0000b2b8       __real@bfb5cb46bacf7447    100b92b8     d3dx9dt:ccompiler.obj
 0002:0000b2c0       __real@3f9555cbe46f80c1    100b92c0     d3dx9dt:ccompiler.obj
 0002:0000b2c8       ??_C@_0DJ@EPCLFKPH@asymetric?5returns?5from?5if?5statem@ 100b92c8     d3dx9dt:ccompiler.obj
 0002:0000b304       ??_C@_0CH@NENLLKAN@internal?5error?3?5unrecognized?5sta@ 100b9304     d3dx9dt:ccompiler.obj
 0002:0000b32c       ??_C@_0DI@LAJEPILL@general?5for?1do?1while?5statements?5@ 100b932c     d3dx9dt:ccompiler.obj
 0002:0000b364       ??_C@_0CP@MHLCDFLN@intrinsic?5function?5?8?$CFs?8?5is?5not?5y@ 100b9364     d3dx9dt:ccompiler.obj
 0002:0000b398       __real@406fe01000000000    100b9398     d3dx9dt:ccompiler.obj
 0002:0000b3a0       ??_C@_0FD@OKHFAJJB@tex1D?5will?5considered?5dependent?5@ 100b93a0     d3dx9dt:ccompiler.obj
 0002:0000b3f8       __real@4008000000000000    100b93f8     d3dx9dt:ccompiler.obj
 0002:0000b400       __real@3f91df46aaaaaaab    100b9400     d3dx9dt:ccompiler.obj
 0002:0000b408       __real@4024000000000000    100b9408     d3dx9dt:ccompiler.obj
 0002:0000b410       __real@404ca5dc0d03cf26    100b9410     d3dx9dt:ccompiler.obj
 0002:0000b418       ??_C@_0DD@FNLPAPMA@?8?$CFs?8?3?5output?5parameter?5?8?$CFs?8?5neve@ 100b9418     d3dx9dt:ccompiler.obj
 0002:0000b44c       ??_C@_03MLHPLGLE@$?$CFs?$AA@ 100b944c     d3dx9dt:ccompiler.obj
 0002:0000b450       ??_C@_0CO@ILGDJCAN@?8?$CFs?8?3?5output?5parameter?5?8?$CFs?8?5miss@ 100b9450     d3dx9dt:ccompiler.obj
 0002:0000b480       ??_C@_0CO@EHOLKGOE@?8?$CFs?8?3?5function?5return?5value?5miss@ 100b9480     d3dx9dt:ccompiler.obj
 0002:0000b4b0       ??_C@_0CD@EJCGEILD@?8?$CFs?8?3?5function?5must?5return?5a?5val@ 100b94b0     d3dx9dt:ccompiler.obj
 0002:0000b4d4       ??_C@_0CN@FMBKKIKE@?8?$CFs?8?3?5input?5parameter?5?8?$CFs?8?5missi@ 100b94d4     d3dx9dt:ccompiler.obj
 0002:0000b504       ??_C@_0CO@NIJODJKG@?8?$CFs?8?3?5recursive?5functions?5not?5ye@ 100b9504     d3dx9dt:ccompiler.obj
 0002:0000b538       __real@bff0000000000000    100b9538     d3dx9dt:ccompiler.obj
 0002:0000b540       ??_C@_0CI@PPGICFHM@internal?5error?3?5unrecognized?5exp@ 100b9540     d3dx9dt:ccompiler.obj
 0002:0000b568       ??_C@_0CF@EFGJKLKI@function?5?8?$CFs?8?5missing?5implementa@ 100b9568     d3dx9dt:ccompiler.obj
 0002:0000b590       ??_C@_0DA@IMFPOHBF@non?9linear?5array?5references?5not?5@ 100b9590     d3dx9dt:ccompiler.obj
 0002:0000b5c0       ??_C@_0DP@OGPGLIEM@array?5references?5of?5intermediate@ 100b95c0     d3dx9dt:ccompiler.obj
 0002:0000b600       ??_C@_0BK@GAMFFMJ@array?5index?5out?5of?5bounds?$AA@ 100b9600     d3dx9dt:ccompiler.obj
 0002:0000b61c       ??_C@_0CD@GEHDMLEI@internal?5error?3?5unrecognized?5val@ 100b961c     d3dx9dt:ccompiler.obj
 0002:0000b640       ??_C@_0CF@MDAKHO@internal?5error?3?5leaking?5instruct@ 100b9640     d3dx9dt:ccompiler.obj
 0002:0000b668       ??_C@_0CC@EMJLCNNM@internal?5error?3?5leaking?5argument@ 100b9668     d3dx9dt:ccompiler.obj
 0002:0000b68c       ??_C@_0BO@FEPALJEG@overloaded?5function?5not?5found?$AA@ 100b968c     d3dx9dt:ccompiler.obj
 0002:0000b6ac       ??_C@_0BL@EJCABLJC@?8?$CFs?8?3?5entrypoint?5not?5found?$AA@ 100b96ac     d3dx9dt:ccompiler.obj
 0002:0000b6c8       ??_C@_0CC@BLANMFPI@unrecognized?5compiler?5target?5?8?$CFs@ 100b96c8     d3dx9dt:ccompiler.obj
 0002:0000b6ec       ??_C@_0BP@CFMIEHEH@pEntrypoint?5pointer?5is?5invalid?$AA@ 100b96ec     d3dx9dt:ccompiler.obj
 0002:0000b70c       ??_C@_0DD@EMLHHCB@non?9trivial?5object?5expressions?5n@ 100b970c     d3dx9dt:ccompiler.obj
 0002:0000b740       ??_C@_0EI@GEHEONGK@expressions?5returning?5objects?5in@ 100b9740     d3dx9dt:ccompiler.obj
 0002:0000b788       ??_C@_0CE@KPECEOMG@internal?5error?3?5expression?5expec@ 100b9788     d3dx9dt:ccompiler.obj
 0002:0000b7b0       ??_7CConstantTable@D3DXShader@@6B@ 100b97b0     d3dx9dt:cconstanttable.obj
 0002:0000b818       ??_C@_0CL@BAOLFGNN@ID3DXConstantTable?3?5invalid?5cons@ 100b9818     d3dx9dt:cconstanttable.obj
 0002:0000b844       ??_C@_0CD@OFPNHKHC@ID3DXConstantTable?3?5invalid?5hand@ 100b9844     d3dx9dt:cconstanttable.obj
 0002:0000b868       ??_C@_0DL@PHDOGPFN@ID3DXConstantTable?3?5invalid?5regi@ 100b9868     d3dx9dt:cconstanttable.obj
 0002:0000b8a4       ??_C@_0CK@GJMMKABP@ID3DXConstantTable?3?5unsupported?5@ 100b98a4     d3dx9dt:cconstanttable.obj
 0002:0000b8d0       ??_C@_0EC@KOOOMFCA@ID3DXConstantTable?3?5unrecognized@ 100b98d0     d3dx9dt:cconstanttable.obj
 0002:0000b914       ??_C@_0DD@FPIJPKPF@ID3DXConstantTable?3?5Data?5pointer@ 100b9914     d3dx9dt:cconstanttable.obj
 0002:0000b948       ??_C@_0CO@MLMGNIPJ@ID3DXConstantTable?3?5pDevice?5para@ 100b9948     d3dx9dt:cconstanttable.obj
 0002:0000b978       ??_C@_0CM@KOBCPANA@ID3DXConstantTable?3?5pDesc?5parame@ 100b9978     d3dx9dt:cconstanttable.obj
 0002:0000b9a4       ??_C@_0DE@GNCFJNKP@ID3DXConstantTable?3?5pConstantDes@ 100b99a4     d3dx9dt:cconstanttable.obj
 0002:0000b9d8       ??_C@_0DA@OMLGEDDM@ID3DXConstantTable?3?5constant?5ind@ 100b99d8     d3dx9dt:cconstanttable.obj
 0002:0000ba08       ??_C@_0CP@IOLHHLPE@ID3DXConstantTable?3?5structure?5me@ 100b9a08     d3dx9dt:cconstanttable.obj
 0002:0000ba38       ??_C@_0CM@EDOFPPPL@ID3DXConstantTable?3?5constant?5nam@ 100b9a38     d3dx9dt:cconstanttable.obj
 0002:0000ba64       ??_C@_0DN@GOIEBKLC@ID3DXConstantTable?3?5constant?5nam@ 100b9a64     d3dx9dt:cconstanttable.obj
 0002:0000baa4       ??_C@_0CK@LFIJPMFP@ID3DXConstantTable?3?5index?5must?5b@ 100b9aa4     d3dx9dt:cconstanttable.obj
 0002:0000bad0       ??_C@_0EF@ONEDKOJD@ID3DXConstantTable?3?5annotations?5@ 100b9ad0     d3dx9dt:cconstanttable.obj
 0002:0000bb18       ??_C@_0CM@DJEHAJG@ID3DXConstantTable?3?5pName?5parame@ 100b9b18     d3dx9dt:cconstanttable.obj
 0002:0000bb44       ??_C@_0CO@NKKIBIJN@ID3DXConstantTable?3?5array?5index?5@ 100b9b44     d3dx9dt:cconstanttable.obj
 0002:0000bb74       ??_C@_0BI@FJIJIIGK@pDevice?5pointer?5is?5NULL?$AA@ 100b9b74     d3dx9dt:cconstanttable.obj
 0002:0000bb8c       ??_C@_0DG@NOJCGNDL@ID3DXConstantTable?3?5ppConstantTa@ 100b9b8c     d3dx9dt:cconstanttable.obj
 0002:0000bbc4       ??_7CBuffer@D3DXCore@@6B@  100b9bc4     d3dx9dt:cbuffer.obj
 0002:0000bbe0       ??_7CBufferA16@D3DXCore@@6B@ 100b9be0     d3dx9dt:cbuffer.obj
 0002:0000bbfc       __real@3f99999a            100b9bfc     d3dx9dt:cbuffer.obj
 0002:0000bc00       ??_C@_0BL@NMCNKKCB@ppBuffer?5parameter?5is?5NULL?$AA@ 100b9c00     d3dx9dt:cbuffer.obj
 0002:0000bc1c       ??_7CStringBuffer@D3DXCore@@6B@ 100b9c1c     d3dx9dt:cbuffer.obj
 0002:0000c1a4       ??_C@_0BK@BMMPFBBH@invalid?5bit?5length?5repeat?$AA@ 100ba1a4     d3dx9dt:infblock.obj
 0002:0000c1c0       ??_C@_0CE@GMIGFPBB@too?5many?5length?5or?5distance?5symb@ 100ba1c0     d3dx9dt:infblock.obj
 0002:0000c1e4       ??_C@_0BN@LGAADGOK@invalid?5stored?5block?5lengths?$AA@ 100ba1e4     d3dx9dt:infblock.obj
 0002:0000c204       ??_C@_0BD@PJCBIDD@invalid?5block?5type?$AA@ 100ba204     d3dx9dt:infblock.obj
 0002:0000c218       __real@4020000000000000    100ba218     d3dx9dt:jcdctmgr.obj
 0002:0000c2e0       __real@46800100            100ba2e0     d3dx9dt:jcdctmgr.obj
 0002:0000c310       ??_7CNode@D3DXShader@@6B@  100ba310     d3dx9dt:cnode.obj
 0002:0000c320       ??_C@_07CIFAGBMG@unknown?$AA@ 100ba320     d3dx9dt:cnode.obj
 0002:0000c328       ??_C@_04MLLLIHIP@null?$AA@ 100ba328     d3dx9dt:cnode.obj
 0002:0000c330       ??_C@_01CLKCMJKC@?5?$AA@   100ba330     d3dx9dt:cnode.obj
 0002:0000c334       ??_C@_01EEMJAFIK@?6?$AA@   100ba334     d3dx9dt:cnode.obj
 0002:0000c338       ??_7CNodeList@D3DXShader@@6B@ 100ba338     d3dx9dt:cnode.obj
 0002:0000c348       ??_C@_03NJNOMAJF@?5?4?5?$AA@ 100ba348     d3dx9dt:cnode.obj
 0002:0000c34c       ??_C@_03ECLNAHEM@?$CFs?$CI?$AA@ 100ba34c     d3dx9dt:cnode.obj
 0002:0000c350       ??_7CNodeToken@D3DXShader@@6B@ 100ba350     d3dx9dt:cnode.obj
 0002:0000c360       ??_C@_06ILCLGBPB@_?$CC?$CFs?$CC_?$AA@ 100ba360     d3dx9dt:cnode.obj
 0002:0000c368       ??_C@_05KECCEOBD@_EOL_?$AA@ 100ba368     d3dx9dt:cnode.obj
 0002:0000c370       ??_C@_05KJLFMLMF@_EOF_?$AA@ 100ba370     d3dx9dt:cnode.obj
 0002:0000c378       ??_C@_04HPOGJIGG@_?$CFs_?$AA@ 100ba378     d3dx9dt:cnode.obj
 0002:0000c380       ??_C@_0L@DELLKKCD@_vs?4?$CFd?4?$CFd_?$AA@ 100ba380     d3dx9dt:cnode.obj
 0002:0000c38c       ??_C@_0L@DJKFNKGE@_ps?4?$CFd?4?$CFd_?$AA@ 100ba38c     d3dx9dt:cnode.obj
 0002:0000c398       ??_C@_0N@CCLDLFAA@_?$CFc?$CFc?4?$CFd?4?$CFd_?$AA@ 100ba398     d3dx9dt:cnode.obj
 0002:0000c3a8       ??_C@_04HLGLOENE@_?$CFu_?$AA@ 100ba3a8     d3dx9dt:cnode.obj
 0002:0000c3b0       ??_C@_05GNEMHNLJ@_?$CFgf_?$AA@ 100ba3b0     d3dx9dt:cnode.obj
 0002:0000c3b8       ??_7CNodeProgram@D3DXShader@@6B@ 100ba3b8     d3dx9dt:cnode.obj
 0002:0000c3c8       ??_C@_01LBDDMOBJ@?$FN?$AA@ 100ba3c8     d3dx9dt:cnode.obj
 0002:0000c3cc       ??_C@_08PEBGMAAB@Program?$FL?$AA@ 100ba3cc     d3dx9dt:cnode.obj
 0002:0000c3d8       ??_7CNodeScope@D3DXShader@@6B@ 100ba3d8     d3dx9dt:cnode.obj
 0002:0000c3e8       ??_C@_0M@MFAANADG@StateBlock?5?$AA@ 100ba3e8     d3dx9dt:cnode.obj
 0002:0000c3f4       ??_C@_0L@LKIIPEHM@Technique?5?$AA@ 100ba3f4     d3dx9dt:cnode.obj
 0002:0000c400       ??_C@_0M@NEHIKCIK@Annotation?5?$AA@ 100ba400     d3dx9dt:cnode.obj
 0002:0000c40c       ??_C@_08HIKGDOF@ForLoop?5?$AA@ 100ba40c     d3dx9dt:cnode.obj
 0002:0000c418       ??_C@_0L@EAOFDKCO@StmtBlock?5?$AA@ 100ba418     d3dx9dt:cnode.obj
 0002:0000c424       ??_C@_0L@KJNIKOFN@ParamList?5?$AA@ 100ba424     d3dx9dt:cnode.obj
 0002:0000c430       ??_C@_07MBGEFPDN@Struct?5?$AA@ 100ba430     d3dx9dt:cnode.obj
 0002:0000c438       ??_C@_07LIBANCNB@Global?5?$AA@ 100ba438     d3dx9dt:cnode.obj
 0002:0000c440       ??_C@_06JJMAGDAL@Scope?$FL?$AA@ 100ba440     d3dx9dt:cnode.obj
 0002:0000c448       ??_7CNodeDecl@D3DXShader@@6B@ 100ba448     d3dx9dt:cnode.obj
 0002:0000c458       ??_C@_01PPODPGHN@?$DO?$AA@ 100ba458     d3dx9dt:cnode.obj
 0002:0000c45c       ??_C@_02ELAABJPC@?5?$DM?$AA@ 100ba45c     d3dx9dt:cnode.obj
 0002:0000c460       ??_C@_02LMMGGCAJ@?3?5?$AA@ 100ba460     d3dx9dt:cnode.obj
 0002:0000c464       ??_C@_05LKDHAACN@Decl?$FL?$AA@ 100ba464     d3dx9dt:cnode.obj
 0002:0000c46c       ??_7CNodeUsage@D3DXShader@@6B@ 100ba46c     d3dx9dt:cnode.obj
 0002:0000c47c       ??_C@_03KEJHNBPP@out?$AA@  100ba47c     d3dx9dt:cnode.obj
 0002:0000c480       ??_C@_02LMMGJAGL@in?$AA@   100ba480     d3dx9dt:cnode.obj
 0002:0000c484       ??_C@_07HIAOBKCE@uniform?$AA@ 100ba484     d3dx9dt:cnode.obj
 0002:0000c48c       ??_C@_08PABEKFH@volatile?$AA@ 100ba48c     d3dx9dt:cnode.obj
 0002:0000c498       ??_C@_06GGHJAEBN@static?$AA@ 100ba498     d3dx9dt:cnode.obj
 0002:0000c4a0       ??_C@_06PAMNHHEG@extern?$AA@ 100ba4a0     d3dx9dt:cnode.obj
 0002:0000c4a8       ??_7CNodeArray@D3DXShader@@6B@ 100ba4a8     d3dx9dt:cnode.obj
 0002:0000c4b8       ??_C@_04DCNPPBEI@?5?$CFu?$FN?$AA@ 100ba4b8     d3dx9dt:cnode.obj
 0002:0000c4c0       ??_C@_06MEOCAGAP@Array?$FL?$AA@ 100ba4c0     d3dx9dt:cnode.obj
 0002:0000c4c8       ??_7CNodeType@D3DXShader@@6B@ 100ba4c8     d3dx9dt:cnode.obj
 0002:0000c4d8       ??_C@_04PBBAGMGB@?0?5?$CFu?$AA@ 100ba4d8     d3dx9dt:cnode.obj
 0002:0000c4e0       ??_C@_08IKOCBGHK@?0?5?$CFu?0?5?$CFu?$AA@ 100ba4e0     d3dx9dt:cnode.obj
 0002:0000c4ec       ??_C@_0P@KAHBGHDF@vertexfragment?$AA@ 100ba4ec     d3dx9dt:cnode.obj
 0002:0000c4fc       ??_C@_0O@BICPDECA@pixelfragment?$AA@ 100ba4fc     d3dx9dt:cnode.obj
 0002:0000c50c       ??_C@_0N@BAOCOKLF@vertexshader?$AA@ 100ba50c     d3dx9dt:cnode.obj
 0002:0000c51c       ??_C@_0M@IFPDMPDN@pixelshader?$AA@ 100ba51c     d3dx9dt:cnode.obj
 0002:0000c528       ??_C@_0M@JHKOCKOC@samplerCUBE?$AA@ 100ba528     d3dx9dt:cnode.obj
 0002:0000c534       ??_C@_09LAHPNHHH@sampler3D?$AA@ 100ba534     d3dx9dt:cnode.obj
 0002:0000c540       ??_C@_09LBLNLNEA@sampler2D?$AA@ 100ba540     d3dx9dt:cnode.obj
 0002:0000c54c       ??_C@_09LDPLADBJ@sampler1D?$AA@ 100ba54c     d3dx9dt:cnode.obj
 0002:0000c558       ??_C@_07PKJOFHPL@sampler?$AA@ 100ba558     d3dx9dt:cnode.obj
 0002:0000c560       ??_C@_0M@BANKBBCM@textureCUBE?$AA@ 100ba560     d3dx9dt:cnode.obj
 0002:0000c56c       ??_C@_09PEIMPBLJ@texture3D?$AA@ 100ba56c     d3dx9dt:cnode.obj
 0002:0000c578       ??_C@_09PFEOJLIO@texture2D?$AA@ 100ba578     d3dx9dt:cnode.obj
 0002:0000c584       ??_C@_09PHAICFNH@texture1D?$AA@ 100ba584     d3dx9dt:cnode.obj
 0002:0000c590       ??_C@_07JDHEGGGP@texture?$AA@ 100ba590     d3dx9dt:cnode.obj
 0002:0000c598       ??_C@_06ICGJLFIM@string?$AA@ 100ba598     d3dx9dt:cnode.obj
 0002:0000c5a0       ??_C@_04HIBGFPH@NULL?$AA@  100ba5a0     d3dx9dt:cnode.obj
 0002:0000c5a8       ??_C@_06BNJCAIGJ@double?$AA@ 100ba5a8     d3dx9dt:cnode.obj
 0002:0000c5b0       ??_C@_05KNFBNCOH@float?$AA@ 100ba5b0     d3dx9dt:cnode.obj
 0002:0000c5b8       ??_C@_04GBGPFKGN@half?$AA@ 100ba5b8     d3dx9dt:cnode.obj
 0002:0000c5c0       ??_C@_06EBGNBFIA@number?$AA@ 100ba5c0     d3dx9dt:cnode.obj
 0002:0000c5c8       ??_C@_0N@OFHMGPAL@unsigned?5int?$AA@ 100ba5c8     d3dx9dt:cnode.obj
 0002:0000c5d8       ??_C@_0P@IIMKEEHB@unsigned?5short?$AA@ 100ba5d8     d3dx9dt:cnode.obj
 0002:0000c5e8       ??_C@_0O@PPAIJIHF@unsigned?5char?$AA@ 100ba5e8     d3dx9dt:cnode.obj
 0002:0000c5f8       ??_C@_0BB@GDFGAOCJ@unsigned?5integer?$AA@ 100ba5f8     d3dx9dt:cnode.obj
 0002:0000c60c       ??_C@_03JBIPMCLC@int?$AA@  100ba60c     d3dx9dt:cnode.obj
 0002:0000c610       ??_C@_05BFKKPKCG@short?$AA@ 100ba610     d3dx9dt:cnode.obj
 0002:0000c618       ??_C@_04ENMBGAPA@char?$AA@ 100ba618     d3dx9dt:cnode.obj
 0002:0000c620       ??_C@_07LKHFMGFB@integer?$AA@ 100ba620     d3dx9dt:cnode.obj
 0002:0000c628       ??_C@_04DDKJGDCM@bool?$AA@ 100ba628     d3dx9dt:cnode.obj
 0002:0000c630       ??_C@_06LIJLOJAG@const?5?$AA@ 100ba630     d3dx9dt:cnode.obj
 0002:0000c638       ??_C@_01MNNFJEPP@?$DM?$AA@ 100ba638     d3dx9dt:cnode.obj
 0002:0000c63c       ??_C@_06NBFPPGEG@vector?$AA@ 100ba63c     d3dx9dt:cnode.obj
 0002:0000c644       ??_C@_06CGNOPMBC@matrix?$AA@ 100ba644     d3dx9dt:cnode.obj
 0002:0000c64c       ??_C@_06IEOJBDIK@object?$AA@ 100ba64c     d3dx9dt:cnode.obj
 0002:0000c654       ??_C@_0O@DCBHCJPK@column_major?5?$AA@ 100ba654     d3dx9dt:cnode.obj
 0002:0000c664       ??_C@_0L@FBOBFEFF@row_major?5?$AA@ 100ba664     d3dx9dt:cnode.obj
 0002:0000c670       ??_7CNodeFunction@D3DXShader@@6B@ 100ba670     d3dx9dt:cnode.obj
 0002:0000c680       ??_C@_04OHPAJBOO@?5?$DM?9?5?$AA@ 100ba680     d3dx9dt:cnode.obj
 0002:0000c688       ??_C@_03MCPBMLDJ@?5?3?5?$AA@ 100ba688     d3dx9dt:cnode.obj
 0002:0000c68c       ??_C@_09DGAIFNAO@Function?$FL?$AA@ 100ba68c     d3dx9dt:cnode.obj
 0002:0000c698       ??_7CNodeVariable@D3DXShader@@6B@ 100ba698     d3dx9dt:cnode.obj
 0002:0000c6a8       ??_C@_03MHLONNLM@?5?$DN?5?$AA@ 100ba6a8     d3dx9dt:cnode.obj
 0002:0000c6ac       ??_C@_04EDGKFFPL@?5?$DN?$DN?5?$AA@ 100ba6ac     d3dx9dt:cnode.obj
 0002:0000c6b4       ??_C@_09FFMFFGIH@Variable?$FL?$AA@ 100ba6b4     d3dx9dt:cnode.obj
 0002:0000c6c0       ??_7CNodeStatement@D3DXShader@@6B@ 100ba6c0     d3dx9dt:cnode.obj
 0002:0000c6d0       ??_C@_07BKFMFPMO@return?5?$AA@ 100ba6d0     d3dx9dt:cnode.obj
 0002:0000c6d8       ??_C@_03EBELALFK@if?5?$AA@ 100ba6d8     d3dx9dt:cnode.obj
 0002:0000c6dc       ??_C@_04IOBLPFMG@for?5?$AA@ 100ba6dc     d3dx9dt:cnode.obj
 0002:0000c6e4       ??_C@_05LIOAJMH@Stmt?$FL?$AA@ 100ba6e4     d3dx9dt:cnode.obj
 0002:0000c6ec       ??_7CNodeExpression@D3DXShader@@6B@ 100ba6ec     d3dx9dt:cnode.obj
 0002:0000c6fc       ??_C@_03EEBNCBOD@?5?$CFs?$AA@ 100ba6fc     d3dx9dt:cnode.obj
 0002:0000c700       ??_C@_03BBKEAIF@?$DP?$DP?$DP?$AA@ 100ba700     d3dx9dt:cnode.obj
 0002:0000c704       ??_C@_03MALNIIPC@X?9?9?$AA@ 100ba704     d3dx9dt:cnode.obj
 0002:0000c708       ??_C@_03JCGKFDMG@X?$CL?$CL?$AA@ 100ba708     d3dx9dt:cnode.obj
 0002:0000c70c       ??_C@_04CECMGLNF@X?9?$DNY?$AA@ 100ba70c     d3dx9dt:cnode.obj
 0002:0000c714       ??_C@_04BEHDEAJ@X?$CL?$DNY?$AA@ 100ba714     d3dx9dt:cnode.obj
 0002:0000c71c       ??_C@_04IOCFKDFO@X?1?$DNY?$AA@ 100ba71c     d3dx9dt:cnode.obj
 0002:0000c724       ??_C@_04LJPLFDGM@X?$CK?$DNY?$AA@ 100ba724     d3dx9dt:cnode.obj
 0002:0000c72c       ??_C@_05JIMOJAHD@$X?$CIY?$CJ?$AA@ 100ba72c     d3dx9dt:cnode.obj
 0002:0000c734       ??_C@_07OLJGFCKG@compile?$AA@ 100ba734     d3dx9dt:cnode.obj
 0002:0000c73c       ??_C@_04HDBDIBON@X?$CIY?$CJ?$AA@ 100ba73c     d3dx9dt:cnode.obj
 0002:0000c744       ??_C@_05FCDMGOCB@X?$DPY?3Z?$AA@ 100ba744     d3dx9dt:cnode.obj
 0002:0000c74c       ??_C@_03IJKIIKFJ@X?4Y?$AA@ 100ba74c     d3dx9dt:cnode.obj
 0002:0000c750       ??_C@_04EBMKDCGN@X?$FLY?$FN?$AA@ 100ba750     d3dx9dt:cnode.obj
 0002:0000c758       ??_C@_03JHMIJHHA@X?$DNY?$AA@ 100ba758     d3dx9dt:cnode.obj
 0002:0000c75c       ??_C@_08CKHILAFB@init?5X?$DNY?$AA@ 100ba75c     d3dx9dt:cnode.obj
 0002:0000c768       ??_C@_04CGMFOEOF@X?$HM?$HMY?$AA@ 100ba768     d3dx9dt:cnode.obj
 0002:0000c770       ??_C@_04ODFOKAEF@X?$CG?$CGY?$AA@ 100ba770     d3dx9dt:cnode.obj
 0002:0000c778       ??_C@_04GOPKNEGN@X?$CB?$DNY?$AA@ 100ba778     d3dx9dt:cnode.obj
 0002:0000c780       ??_C@_04HEDFDMEK@X?$DN?$DNY?$AA@ 100ba780     d3dx9dt:cnode.obj
 0002:0000c788       ??_C@_04GGIAJDKE@X?$DO?$DNY?$AA@ 100ba788     d3dx9dt:cnode.obj
 0002:0000c790       ??_C@_04MMIJFLCP@X?$DM?$DNY?$AA@ 100ba790     d3dx9dt:cnode.obj
 0002:0000c798       ??_C@_03JFIOCJCJ@X?$DOY?$AA@ 100ba798     d3dx9dt:cnode.obj
 0002:0000c79c       ??_C@_03JGAKPNEH@X?$DMY?$AA@ 100ba79c     d3dx9dt:cnode.obj
 0002:0000c7a0       ??_C@_03ILOODEAA@X?9Y?$AA@ 100ba7a0     d3dx9dt:cnode.obj
 0002:0000c7a4       ??_C@_03IPGDEILC@X?$CLY?$AA@ 100ba7a4     d3dx9dt:cnode.obj
 0002:0000c7a8       ??_C@_03IFPNGFLI@X?$CFY?$AA@ 100ba7a8     d3dx9dt:cnode.obj
 0002:0000c7ac       ??_C@_03IIGKOAGO@X?1Y?$AA@ 100ba7ac     d3dx9dt:cnode.obj
 0002:0000c7b0       ??_C@_03IOKBCCIF@X?$CKY?$AA@ 100ba7b0     d3dx9dt:cnode.obj
 0002:0000c7b4       ??_C@_02EGMEFILA@?$CLX?$AA@ 100ba7b4     d3dx9dt:cnode.obj
 0002:0000c7b8       ??_C@_02ECEJCEAC@?9X?$AA@  100ba7b8     d3dx9dt:cnode.obj
 0002:0000c7bc       ??_C@_02ELFDNNGG@?$CBX?$AA@ 100ba7bc     d3dx9dt:cnode.obj
 0002:0000c7c0       ??_C@_03MOBEFFOP@?9?9X?$AA@ 100ba7c0     d3dx9dt:cnode.obj
 0002:0000c7c4       ??_C@_03OPPCHGIB@?$CL?$CLX?$AA@ 100ba7c4     d3dx9dt:cnode.obj
 0002:0000c7c8       ??_C@_03IKCMFODH@X?0Y?$AA@ 100ba7c8     d3dx9dt:cnode.obj
 0002:0000c7cc       ??_C@_01MMEEDKFM@X?$AA@    100ba7cc     d3dx9dt:cnode.obj
 0002:0000c7d0       ??_C@_05LNAPPGLA@Expr?$FL?$AA@ 100ba7d0     d3dx9dt:cnode.obj
 0002:0000c7d8       ??_7CNodeValue@D3DXShader@@6B@ 100ba7d8     d3dx9dt:cnode.obj
 0002:0000c7e8       ??_C@_07GLGCLJLC@_false_?$AA@ 100ba7e8     d3dx9dt:cnode.obj
 0002:0000c7f0       ??_C@_06ILHBFNFJ@_true_?$AA@ 100ba7f0     d3dx9dt:cnode.obj
 0002:0000c7f8       ??_C@_04GGIPCNJD@_?$CFd_?$AA@ 100ba7f8     d3dx9dt:cnode.obj
 0002:0000c800       ??_C@_05IJDMPPIE@_?$CFuu_?$AA@ 100ba800     d3dx9dt:cnode.obj
 0002:0000c808       ??_C@_04GEMJJDMK@_?$CFg_?$AA@ 100ba808     d3dx9dt:cnode.obj
 0002:0000c810       ??_C@_02FJPJNKJF@?$FN_?$AA@ 100ba810     d3dx9dt:cnode.obj
 0002:0000c814       ??_C@_02DOBBMLPP@_?$FL?$AA@ 100ba814     d3dx9dt:cnode.obj
 0002:0000c818       ??_C@_0L@MODCJMMA@_?$CFu?5bytes_?$AA@ 100ba818     d3dx9dt:cnode.obj
 0002:0000c824       ??_C@_08IECOLIPN@_?$CFs?$CI?$CFd?$CJ_?$AA@ 100ba824     d3dx9dt:cnode.obj
 0002:0000c830       ??_C@_0O@JEEOPDD@unknown_value?$AA@ 100ba830     d3dx9dt:cnode.obj
 0002:0000c840       ??_7CNodeState@D3DXShader@@6B@ 100ba840     d3dx9dt:cnode.obj
 0002:0000c850       ??_C@_06LHEBHIBO@State?$FL?$AA@ 100ba850     d3dx9dt:cnode.obj
 0002:0000c858       ??_7CNodeBuffer@D3DXShader@@6B@ 100ba858     d3dx9dt:cnode.obj
 0002:0000c868       ??_C@_08OFDALCAP@?$CFu?5bytes?$AA@ 100ba868     d3dx9dt:cnode.obj
 0002:0000c874       ??_C@_07IFCIELLA@Buffer?$FL?$AA@ 100ba874     d3dx9dt:cnode.obj
 0002:0000c87c       ??_7CNodeRegister@D3DXShader@@6B@ 100ba87c     d3dx9dt:cnode.obj
 0002:0000c88c       ??_C@_09PAEGKDHD@Register?$FL?$AA@ 100ba88c     d3dx9dt:cnode.obj
 0002:0000c898       ??_C@_06ILDIIFON@Usage?$FL?$AA@ 100ba898     d3dx9dt:cnode.obj
 0002:0000c8a0       ??_C@_0CI@DEEHDBGO@Error?3?5Unhandled?5type?5found?5in?5f@ 100ba8a0     d3dx9dt:d3dx9fragment.obj
 0002:0000c8c8       ??_C@_0EN@HMGOCJEE@d?3?2builds?2nt32_chk?2multimedia?2di@ 100ba8c8     d3dx9dt:d3dx9fragment.obj
 0002:0000c918       ??_C@_0CF@FCJLENA@pNode?9?$DOm_pCar?9?$DOm_Type?5?$DN?$DN?5D3DXNT_@ 100ba918     d3dx9dt:d3dx9fragment.obj
 0002:0000c940       ??_C@_0FH@PHGMEDJN@integer?5constant?5register?5?8?$CFs?8?5m@ 100ba940     d3dx9dt:d3dx9fragment.obj
 0002:0000c998       ??_C@_0EP@PDBMPKMG@boolean?5constant?5register?5?8?$CFs?8?5m@ 100ba998     d3dx9dt:d3dx9fragment.obj
 0002:0000c9e8       ??_C@_0CH@JPMECHIK@pCurValue?9?$DOm_Value?4Type?5?$DN?$DN?5D3DXV@ 100ba9e8     d3dx9dt:d3dx9fragment.obj
 0002:0000ca10       ??_C@_0HL@PKJIGFND@pCurValue?9?$DOm_Value?4Type?5?$DN?$DN?5D3DXV@ 100baa10     d3dx9dt:d3dx9fragment.obj
 0002:0000ca8c       ??_C@_0BB@CGAPLCPF@pCurList?5?$CB?$DN?5NULL?$AA@ 100baa8c     d3dx9dt:d3dx9fragment.obj
 0002:0000caa0       ??_C@_0O@JJEBLDOD@cColumns?5?$DM?$DN?54?$AA@ 100baaa0     d3dx9dt:d3dx9fragment.obj
 0002:0000cab0       ??_C@_01GBGANLPD@0?$AA@    100baab0     d3dx9dt:d3dx9fragment.obj
 0002:0000cab8       ??_C@_0EK@OACHEGCL@Constant?5variable?5?8?$CFs?8?5bound?5to?5@ 100baab8     d3dx9dt:d3dx9fragment.obj
 0002:0000cb04       ??_C@_06KDOAGMIH@bFound?$AA@ 100bab04     d3dx9dt:d3dx9fragment.obj
 0002:0000cb0c       ??_C@_0BE@OLFFNEAO@strlen?$CIszName?$CJ?5?$DO?$DN?52?$AA@ 100bab0c     d3dx9dt:d3dx9fragment.obj
 0002:0000cb20       ??_C@_0DM@IJBKGDHC@pdwCur?5?9?5?$CIDWORD?$CK?$CJ?$CI?$CKppShader?$CJ?9?$DOGe@ 100bab20     d3dx9dt:d3dx9fragment.obj
 0002:0000cb5c       ??_C@_0CD@CDABKLEN@iCompiledShader?5?$DM?5cCompiledShade@ 100bab5c     d3dx9dt:d3dx9fragment.obj
 0002:0000cb80       ??_C@_0CL@IDGCOEOM@Internal?5error?5compiling?5the?5fra@ 100bab80     d3dx9dt:d3dx9fragment.obj
 0002:0000cbac       ??_C@_0CP@GPKPDCEL@There?5was?5an?5error?5compiling?5the@ 100babac     d3dx9dt:d3dx9fragment.obj
 0002:0000cbdc       ??_C@_0DM@CFMKHOBO@D3DXGatherFragments?3?5No?5fragment@ 100babdc     d3dx9dt:d3dx9fragment.obj
 0002:0000cc18       ??_C@_0N@DHCCEHDH@pCur?5?$CB?$DN?5NULL?$AA@ 100bac18     d3dx9dt:d3dx9fragment.obj
 0002:0000cc28       ??_C@_0CD@KHHEFHIK@pVar?9?$DOm_ScopeType?5?$DN?$DN?5D3DXST_GLOB@ 100bac28     d3dx9dt:d3dx9fragment.obj
 0002:0000cc4c       ??_7CNodeAsmInstruction@D3DXShader@@6B@ 100bac4c     d3dx9dt:cnodeasm.obj
 0002:0000cc5c       ??_7CNodeAsmRegister@D3DXShader@@6B@ 100bac5c     d3dx9dt:cnodeasm.obj
 0002:0000cc6c       ??_7CBaseProgram@D3DXShader@@6B@ 100bac6c     d3dx9dt:cbaseprogram.obj
 0002:0000cc70       ??_C@_0DH@INPNNPBJ@internal?5error?3?5instruction?5size@ 100bac70     d3dx9dt:cinstruction.obj
 0002:0000cca8       ??_C@_0EK@MFMEOKJM@internal?5error?3?5instruction?5size@ 100baca8     d3dx9dt:cinstruction.obj
 0002:0000ccf4       ??_7CProgram@D3DXShader@@6B@ 100bacf4     d3dx9dt:cprogram.obj
 0002:0000cd18       ??_C@_0EI@FFKLHAGD@d?3?2builds?2nt32_chk?2multimedia?2di@ 100bad18     d3dx9dt:cprogram.obj
 0002:0000cd60       ??_C@_01NBENCBCI@?$CK?$AA@ 100bad60     d3dx9dt:cprogram.obj
 0002:0000cd64       ??_C@_04HGBHCNMC@?$DN?$DN?$CFg?$AA@ 100bad64     d3dx9dt:cprogram.obj
 0002:0000cd6c       ??_C@_03MIMAHJPE@?$DN?$CFg?$AA@ 100bad6c     d3dx9dt:cprogram.obj
 0002:0000cd70       ??_C@_07GPDIGLGE@?$CFs?$CFu_?$CFu?$AA@ 100bad70     d3dx9dt:cprogram.obj
 0002:0000cd78       ??_C@_03HDCFNBIM@?$CB?$CB?$CB?$AA@ 100bad78     d3dx9dt:cprogram.obj
 0002:0000cd7c       ??_C@_02BEIEFPIG@?$CFg?$AA@ 100bad7c     d3dx9dt:cprogram.obj
 0002:0000cd80       ??_C@_02KEGNLNML@?0?5?$AA@ 100bad80     d3dx9dt:cprogram.obj
 0002:0000cd84       ??_C@_02HBFAPOIE@?$DN?$CI?$AA@ 100bad84     d3dx9dt:cprogram.obj
 0002:0000cd88       ??_C@_01DCLJPIOD@?$CB?$AA@ 100bad88     d3dx9dt:cprogram.obj
 0002:0000cd8c       ??_C@_02HAOIJKIC@?$CFc?$AA@ 100bad8c     d3dx9dt:cprogram.obj
 0002:0000cd90       ??_C@_01LFCBOECM@?4?$AA@   100bad90     d3dx9dt:cprogram.obj
 0002:0000cd94       ??_C@_01OHGJGJJP@?$FL?$AA@ 100bad94     d3dx9dt:cprogram.obj
 0002:0000cd98       ??_C@_03DGBLCOLB@_pp?$AA@  100bad98     d3dx9dt:cprogram.obj
 0002:0000cd9c       ??_C@_04CFLIKOFM@?$CFs?$CFu?$AA@ 100bad9c     d3dx9dt:cprogram.obj
 0002:0000cda4       ??_C@_04NPFAEOEN@xyzw?$AA@ 100bada4     d3dx9dt:cprogram.obj
 0002:0000cdac       ??_C@_01FJMABOPO@x?$AA@    100badac     d3dx9dt:cprogram.obj
 0002:0000cdb0       ??_C@_0CA@JDHJMLBL@internal?5error?3?5corrupt?5program?$AA@ 100badb0     d3dx9dt:cprogram.obj
 0002:0000cdd0       ??_C@_0DI@HGIHFNKF@internal?5error?3?5non?9vectorized?5i@ 100badd0     d3dx9dt:cprogram.obj
 0002:0000ce08       ??_C@_0DJ@GJPFKIFD@internal?5error?3?5non?9vectorized?5i@ 100bae08     d3dx9dt:cprogram.obj
 0002:0000ce44       ??_C@_0CJ@BBCNOKBG@internal?5error?3?5duplicate?5argume@ 100bae44     d3dx9dt:cprogram.obj
 0002:0000ce70       ??_C@_0CI@GDHNHJKP@internal?5error?3?5invalid?5componen@ 100bae70     d3dx9dt:cprogram.obj
 0002:0000ce98       ??_C@_0CH@GDIOKEAG@internal?5error?3?5invalid?5register@ 100bae98     d3dx9dt:cprogram.obj
 0002:0000cec0       ??_C@_0CO@NOHIDLGN@internal?5error?3?5argument?5was?5nev@ 100baec0     d3dx9dt:cprogram.obj
 0002:0000cef0       ??_C@_0DF@MLHOOIE@internal?5error?3?5cannot?5read?5from@ 100baef0     d3dx9dt:cprogram.obj
 0002:0000cf28       ??_C@_0DE@JKAPFJNC@internal?5error?3?5cannot?5write?5to?5@ 100baf28     d3dx9dt:cprogram.obj
 0002:0000cf5c       ??_C@_0DM@ICFJCPAO@internal?5error?3?5output?5argument?5@ 100baf5c     d3dx9dt:cprogram.obj
 0002:0000cf98       ??_C@_0EE@NLBDGOAP@internal?5error?3?5argument?5used?5wi@ 100baf98     d3dx9dt:cprogram.obj
 0002:0000cfdc       ??_C@_0DO@MKNNALDC@variable?5?8?$CFs?8?5used?5without?5havin@ 100bafdc     d3dx9dt:cprogram.obj
 0002:0000d01c       ??_C@_0DH@JFJOLHLB@internal?5error?3?5cannot?5write?5to?5@ 100bb01c     d3dx9dt:cprogram.obj
 0002:0000d054       ??_C@_0DJ@EEDNOFFN@internal?5error?3?5argument?5written@ 100bb054     d3dx9dt:cprogram.obj
 0002:0000d090       ??_C@_0DB@OBEHKDAK@internal?5error?3?5invalid?5output?5a@ 100bb090     d3dx9dt:cprogram.obj
 0002:0000d0c4       ??_C@_0DI@JDJBOGOE@internal?5error?3?5cannot?5read?5from@ 100bb0c4     d3dx9dt:cprogram.obj
 0002:0000d0fc       ??_C@_0DA@CJHOJOIB@internal?5error?3?5invalid?5input?5ar@ 100bb0fc     d3dx9dt:cprogram.obj
 0002:0000d12c       ??_C@_0DN@GMIDKNBA@internal?5error?3?5cannot?5use?5argum@ 100bb12c     d3dx9dt:cprogram.obj
 0002:0000d16c       ??_C@_0CP@JDAPMLOG@internal?5error?3?5invalid?5address?5@ 100bb16c     d3dx9dt:cprogram.obj
 0002:0000d19c       ??_C@_0DD@KDKMPKM@internal?5error?3?5cannot?5address?5a@ 100bb19c     d3dx9dt:cprogram.obj
 0002:0000d1d0       ??_C@_0CD@OHHBHLJC@internal?5error?3?5invalid?5pool?5?$CIA?$CF@ 100bb1d0     d3dx9dt:cprogram.obj
 0002:0000d1f4       ??_C@_0DE@FLBKCNOP@internal?5error?3?5duplicate?5instru@ 100bb1f4     d3dx9dt:cprogram.obj
 0002:0000d228       ??_C@_0DB@DHGIAGJB@internal?5error?3?5duplicate?5argume@ 100bb228     d3dx9dt:cprogram.obj
 0002:0000d25c       ??_C@_0CN@GAGGNDMN@internal?5error?3?5duplicate?5pool?5p@ 100bb25c     d3dx9dt:cprogram.obj
 0002:0000d28c       ??_C@_0DC@ONELKKLI@internal?5error?3?5instruction?5miss@ 100bb28c     d3dx9dt:cprogram.obj
 0002:0000d2c0       ??_C@_0CH@BDICBGKF@internal?5error?3?5NULL?5instruction@ 100bb2c0     d3dx9dt:cprogram.obj
 0002:0000d2e8       ??_C@_0CE@INHFBHCN@internal?5error?3?5NULL?5argument?5?$CIA@ 100bb2e8     d3dx9dt:cprogram.obj
 0002:0000d30c       ??_C@_0CA@IGCJHBII@internal?5error?3?5NULL?5pool?5?$CIP?$CFu?$CJ?$AA@ 100bb30c     d3dx9dt:cprogram.obj
 0002:0000d330       __real@40effc0000000000    100bb330     d3dx9dt:cprogram.obj
 0002:0000d338       __real@c0effc0000000000    100bb338     d3dx9dt:cprogram.obj
 0002:0000d340       ??_C@_0BD@JOAHIBJM@indefinite?5arcsine?$AA@ 100bb340     d3dx9dt:cprogram.obj
 0002:0000d354       ??_C@_0BF@HOKJACDH@indefinite?5arccosine?$AA@ 100bb354     d3dx9dt:cprogram.obj
 0002:0000d36c       ??_C@_0BF@DODCNEOM@indefinite?5logarithm?$AA@ 100bb36c     d3dx9dt:cprogram.obj
 0002:0000d384       ??_C@_0BG@BHCABPPD@imaginary?5square?5root?$AA@ 100bb384     d3dx9dt:cprogram.obj
 0002:0000d39c       ??_C@_0BB@OMEBCKB@division?5by?5zero?$AA@ 100bb39c     d3dx9dt:cprogram.obj
 0002:0000d3b0       ??_C@_0BH@NJNMIAPK@expression?5too?5complex?$AA@ 100bb3b0     d3dx9dt:cprogram.obj
 0002:0000d3c8       ??_C@_02GMHACPFF@?$CFu?$AA@ 100bb3c8     d3dx9dt:cprogram.obj
 0002:0000d3cc       ??_C@_07JBKIGMPF@texCUBE?$AA@ 100bb3cc     d3dx9dt:cprogram.obj
 0002:0000d3d4       ??_C@_0L@HPGLGMHA@texCUBE_dd?$AA@ 100bb3d4     d3dx9dt:cprogram.obj
 0002:0000d3e0       ??_C@_0N@FHLABNNP@texCUBE_proj?$AA@ 100bb3e0     d3dx9dt:cprogram.obj
 0002:0000d3f0       ??_C@_0L@EJFPJKF@tex3D_proj?$AA@ 100bb3f0     d3dx9dt:cprogram.obj
 0002:0000d3fc       ??_C@_08MKNFMDJP@tex2D_dd?$AA@ 100bb3fc     d3dx9dt:cprogram.obj
 0002:0000d408       ??_C@_0L@MIDPPJDL@tex2D_proj?$AA@ 100bb408     d3dx9dt:cprogram.obj
 0002:0000d414       ??_C@_05JDOPLAAN@tex3D?$AA@ 100bb414     d3dx9dt:cprogram.obj
 0002:0000d41c       ??_C@_08BIJBADK@tex3D_dd?$AA@ 100bb41c     d3dx9dt:cprogram.obj
 0002:0000d428       ??_C@_05JCCNNKDK@tex2D?$AA@ 100bb428     d3dx9dt:cprogram.obj
 0002:0000d430       ??_C@_05GPLCCBII@noise?$AA@ 100bb430     d3dx9dt:cprogram.obj
 0002:0000d438       ??_C@_05JAGLGEGD@tex1D?$AA@ 100bb438     d3dx9dt:cprogram.obj
 0002:0000d440       ??_C@_08EMEBLBDB@tex1D_dd?$AA@ 100bb440     d3dx9dt:cprogram.obj
 0002:0000d44c       ??_C@_0L@EGLAPONI@tex1D_proj?$AA@ 100bb44c     d3dx9dt:cprogram.obj
 0002:0000d458       ??_C@_04POIGMEJN@clip?$AA@ 100bb458     d3dx9dt:cprogram.obj
 0002:0000d460       ??_C@_05KNGEOGJB@atan2?$AA@ 100bb460     d3dx9dt:cprogram.obj
 0002:0000d468       ??_C@_03GCCHHAFI@dot?$AA@  100bb468     d3dx9dt:cprogram.obj
 0002:0000d46c       ??_C@_04PDIFKINK@acos?$AA@ 100bb46c     d3dx9dt:cprogram.obj
 0002:0000d474       ??_C@_04MLLJIGOK@atan?$AA@ 100bb474     d3dx9dt:cprogram.obj
 0002:0000d47c       ??_C@_04FIHNOPOL@asin?$AA@ 100bb47c     d3dx9dt:cprogram.obj
 0002:0000d484       ??_C@_04EIAKFFMI@sqrt?$AA@ 100bb484     d3dx9dt:cprogram.obj
 0002:0000d48c       ??_C@_03BLEJJJBH@sin?$AA@  100bb48c     d3dx9dt:cprogram.obj
 0002:0000d490       ??_C@_03LALBNOCG@cos?$AA@  100bb490     d3dx9dt:cprogram.obj
 0002:0000d494       ??_C@_03GBOCFEHI@neg?$AA@  100bb494     d3dx9dt:cprogram.obj
 0002:0000d498       ??_C@_06MEKIIEOA@?$CF?43u?3?5?$AA@ 100bb498     d3dx9dt:cprogram.obj
 0002:0000d4a0       ??_C@_05DLBHCFPD@?9?9?9?9?5?$AA@ 100bb4a0     d3dx9dt:cprogram.obj
 0002:0000d4a8       ??_C@_06DNGKEBJN@?$CF0?44u?5?$AA@ 100bb4a8     d3dx9dt:cprogram.obj
 0002:0000d4b0       ??_C@_03JDANDILB@?$CFd?5?$AA@ 100bb4b0     d3dx9dt:cprogram.obj
 0002:0000d4b4       ??_C@_0DA@DNEFJGPN@internal?5warning?3?5optimization?5d@ 100bb4b4     d3dx9dt:cprogram.obj
 0002:000107c0       ??_C@_0BB@MBPKLAMF@D3DCOLORtoUBYTE4?$AA@ 100be7c0     d3dx9dt:cparse.obj
 0002:000107d4       ??_C@_09KDFGPPLL@transpose?$AA@ 100be7d4     d3dx9dt:cparse.obj
 0002:000107e0       ??_C@_0M@PJHIFGGE@texCUBEbias?$AA@ 100be7e0     d3dx9dt:cparse.obj
 0002:000107ec       ??_C@_0M@PFNOMGAK@texCUBEproj?$AA@ 100be7ec     d3dx9dt:cparse.obj
 0002:000107f8       ??_C@_09GPAPBMJG@tex3Dbias?$AA@ 100be7f8     d3dx9dt:cparse.obj
 0002:00010804       ??_C@_09GDKJIMPI@tex3Dproj?$AA@ 100be804     d3dx9dt:cparse.obj
 0002:00010810       ??_C@_09MJHIBHCC@tex2Dbias?$AA@ 100be810     d3dx9dt:cparse.obj
 0002:0001081c       ??_C@_09MFNOIHEM@tex2Dproj?$AA@ 100be81c     d3dx9dt:cparse.obj
 0002:00010828       ??_C@_09PIJAANLP@tex1Dbias?$AA@ 100be828     d3dx9dt:cparse.obj
 0002:00010834       ??_C@_09PEDGJNNB@tex1Dproj?$AA@ 100be834     d3dx9dt:cparse.obj
 0002:00010840       ??_C@_04FJHINJAO@tanh?$AA@ 100be840     d3dx9dt:cparse.obj
 0002:00010848       ??_C@_03IIINPABG@tan?$AA@  100be848     d3dx9dt:cparse.obj
 0002:0001084c       ??_C@_04CNBNFAL@step?$AA@  100be84c     d3dx9dt:cparse.obj
 0002:00010854       ??_C@_0L@JKDMKNKF@smoothstep?$AA@ 100be854     d3dx9dt:cparse.obj
 0002:00010860       ??_C@_04COOMCNPB@sinh?$AA@ 100be860     d3dx9dt:cparse.obj
 0002:00010868       ??_C@_04HHGHLBPI@sign?$AA@ 100be868     d3dx9dt:cparse.obj
 0002:00010870       ??_C@_08MEKLKAIJ@saturate?$AA@ 100be870     d3dx9dt:cparse.obj
 0002:0001087c       ??_C@_05HJAAKPLM@rsqrt?$AA@ 100be87c     d3dx9dt:cparse.obj
 0002:00010884       ??_C@_05MIMAKCN@round?$AA@ 100be884     d3dx9dt:cparse.obj
 0002:0001088c       ??_C@_02ODPEEKDN@ri?$AA@   100be88c     d3dx9dt:cparse.obj
 0002:00010890       ??_C@_07HCMBNDDM@refract?$AA@ 100be890     d3dx9dt:cparse.obj
 0002:00010898       ??_C@_01EFFIKLCJ@n?$AA@    100be898     d3dx9dt:cparse.obj
 0002:0001089c       ??_C@_07CCHDGNII@reflect?$AA@ 100be89c     d3dx9dt:cparse.obj
 0002:000108a4       ??_C@_07JLOPPFCD@radians?$AA@ 100be8a4     d3dx9dt:cparse.obj
 0002:000108ac       ??_C@_09MMDNNKKJ@normalize?$AA@ 100be8ac     d3dx9dt:cparse.obj
 0002:000108b8       ??_C@_02GIIHKPLE@ip?$AA@   100be8b8     d3dx9dt:cparse.obj
 0002:000108bc       ??_C@_04EHEDPDJG@modf?$AA@ 100be8bc     d3dx9dt:cparse.obj
 0002:000108c4       ??_C@_04KGLCPMCP@log2?$AA@ 100be8c4     d3dx9dt:cparse.obj
 0002:000108cc       ??_C@_05HGHHAHAP@log10?$AA@ 100be8cc     d3dx9dt:cparse.obj
 0002:000108d4       ??_C@_01GOHFPIOK@m?$AA@    100be8d4     d3dx9dt:cparse.obj
 0002:000108d8       ??_C@_01BDACAMKP@h?$AA@    100be8d8     d3dx9dt:cparse.obj
 0002:000108dc       ??_C@_04BBKNFAFH@lerp?$AA@ 100be8dc     d3dx9dt:cparse.obj
 0002:000108e4       ??_C@_06IJDLPEM@length?$AA@ 100be8e4     d3dx9dt:cparse.obj
 0002:000108ec       ??_C@_05CEJMAHNP@ldexp?$AA@ 100be8ec     d3dx9dt:cparse.obj
 0002:000108f4       ??_C@_05LGCGPNNP@isnan?$AA@ 100be8f4     d3dx9dt:cparse.obj
 0002:000108fc       ??_C@_05OIHEAIFD@isinf?$AA@ 100be8fc     d3dx9dt:cparse.obj
 0002:00010904       ??_C@_08CHCKEDFL@isfinite?$AA@ 100be904     d3dx9dt:cparse.obj
 0002:00010910       ??_C@_05GKKHEGJL@frexp?$AA@ 100be910     d3dx9dt:cparse.obj
 0002:00010918       ??_C@_04OJFMHLGL@frac?$AA@ 100be918     d3dx9dt:cparse.obj
 0002:00010920       ??_C@_04KEPJIHGP@fmod?$AA@ 100be920     d3dx9dt:cparse.obj
 0002:00010928       ??_C@_05PBJFFIGL@floor?$AA@ 100be928     d3dx9dt:cparse.obj
 0002:00010930       ??_C@_02FAAGHLEH@Ng?$AA@   100be930     d3dx9dt:cparse.obj
 0002:00010934       ??_C@_01JPJNBJEM@I?$AA@    100be934     d3dx9dt:cparse.obj
 0002:00010938       ??_C@_01NANMIPIL@N?$AA@    100be938     d3dx9dt:cparse.obj
 0002:0001093c       ??_C@_0M@ENCHEFMG@faceforward?$AA@ 100be93c     d3dx9dt:cparse.obj
 0002:00010948       ??_C@_04HPAFEEIN@exp2?$AA@ 100be948     d3dx9dt:cparse.obj
 0002:00010950       ??_C@_08LHFODBFO@distance?$AA@ 100be950     d3dx9dt:cparse.obj
 0002:0001095c       ??_C@_0M@OAMGFDFM@determinant?$AA@ 100be95c     d3dx9dt:cparse.obj
 0002:00010968       ??_C@_07MHOHEFBH@degrees?$AA@ 100be968     d3dx9dt:cparse.obj
 0002:00010970       ??_C@_05HCKPILGO@cross?$AA@ 100be970     d3dx9dt:cparse.obj
 0002:00010978       ??_C@_04HPJJNFIM@cosh?$AA@ 100be978     d3dx9dt:cparse.obj
 0002:00010980       ??_C@_05HADFAIAH@clamp?$AA@ 100be980     d3dx9dt:cparse.obj
 0002:00010988       ??_C@_04GFPJNGEK@ceil?$AA@ 100be988     d3dx9dt:cparse.obj
 0002:00010990       ??_C@_01EANLCPLP@y?$AA@    100be990     d3dx9dt:cparse.obj
 0002:00010994       ??_C@_03OBJFJEBA@any?$AA@  100be994     d3dx9dt:cparse.obj
 0002:00010998       ??_C@_03NFKEKGGK@all?$AA@  100be998     d3dx9dt:cparse.obj
 0002:0001099c       ??_C@_0BM@CCMPPEFL@syntax?5error?3?5unexpected?5?$CFs?$AA@ 100be99c     d3dx9dt:cparse.obj
 0002:000109b8       ??_C@_0BB@CPHEBMNK@integer?5constant?$AA@ 100be9b8     d3dx9dt:cparse.obj
 0002:000109cc       ??_C@_0P@MJNKLFLA@float?5constant?$AA@ 100be9cc     d3dx9dt:cparse.obj
 0002:000109dc       ??_C@_0CD@POFJJNAP@internal?5error?3?5production?5faile@ 100be9dc     d3dx9dt:cparse.obj
 0002:00010a00       ??_C@_0CA@NOFOHEHH@internal?5error?3?5scope?5underflow?$AA@ 100bea00     d3dx9dt:cparse.obj
 0002:00010a20       ??_C@_0CG@FICPNKBH@redefinition?5of?5formal?5parameter@ 100bea20     d3dx9dt:cparse.obj
 0002:00010a48       ??_C@_0BF@IFLPIDJI@redefinition?5of?5?8?$CFs?8?$AA@ 100bea48     d3dx9dt:cparse.obj
 0002:00010a60       ??_C@_05FGNDKHGN@Stmts?$AA@ 100bea60     d3dx9dt:cparse.obj
 0002:00010a68       ??_C@_0BO@BDHEIAIP@internal?5error?3?5scope?5missing?$AA@ 100bea68     d3dx9dt:cparse.obj
 0002:00010a88       ??_C@_0BL@FJMIGKBB@duplicate?5usages?5specified?$AA@ 100bea88     d3dx9dt:cparse.obj
 0002:00010aa4       ??_C@_0BP@OFCJNHOA@D3DXNT_USAGE?5?$DN?$DN?5pNodeB?9?$DOm_Type?$AA@ 100beaa4     d3dx9dt:cparse.obj
 0002:00010ac8       ??_C@_0EG@PIAEKFBM@d?3?2builds?2nt32_chk?2multimedia?2di@ 100beac8     d3dx9dt:cparse.obj
 0002:00010b10       ??_C@_0BP@OBOGMOD@D3DXNT_USAGE?5?$DN?$DN?5pNodeA?9?$DOm_Type?$AA@ 100beb10     d3dx9dt:cparse.obj
 0002:00010b30       ??_C@_0N@FECBENFF@?$CFsstruct?$HL?$CFu?$HN?$AA@ 100beb30     d3dx9dt:cparse.obj
 0002:00010b40       ??_C@_04LMNNCAJG@?$FL?$CFu?$FN?$AA@ 100beb40     d3dx9dt:cparse.obj
 0002:00010b48       ??_C@_06GOMFOPGL@?$CFs?$CFs?$CFu?$AA@ 100beb48     d3dx9dt:cparse.obj
 0002:00010b50       ??_C@_09LECPHMHI@?$CFs?$CFs?$CFux?$CFu?$AA@ 100beb50     d3dx9dt:cparse.obj
 0002:00010b5c       ??_C@_04GKJNKENE@void?$AA@ 100beb5c     d3dx9dt:cparse.obj
 0002:00010c50       ??_C@_0DB@HKFECFED@object?5literals?5are?5not?5allowed?5@ 100bec50     d3dx9dt:cparse.obj
 0002:00010c84       ??_C@_0P@NNEAODJC@float?5expected?$AA@ 100bec84     d3dx9dt:cparse.obj
 0002:00010c94       ??_C@_04FGIJFGAG@?$CFu?$CFs?$AA@ 100bec94     d3dx9dt:cparse.obj
 0002:00010c9c       ??_C@_06KLBDMJOP@Values?$AA@ 100bec9c     d3dx9dt:cparse.obj
 0002:00010ca4       ??_C@_05OHGKKOIH@Decls?$AA@ 100beca4     d3dx9dt:cparse.obj
 0002:00010cb0       ??_C@_0EC@BKDEPCGH@non?9matrix?5types?5cannot?5be?5decla@ 100becb0     d3dx9dt:cparse.obj
 0002:00010cf4       ??_C@_0CJ@LMNNJNCG@?8?$CFs?8?3?5cannot?5?$CFsconvert?5from?5?8?$CFs?8@ 100becf4     d3dx9dt:cparse.obj
 0002:00010d20       ??_C@_0CD@IAJDPNBL@cannot?5?$CFsconvert?5from?5?8?$CFs?8?5to?5?8?$CF@ 100bed20     d3dx9dt:cparse.obj
 0002:00010d44       ??_C@_0M@PIIIJKN@implicitly?5?$AA@ 100bed44     d3dx9dt:cparse.obj
 0002:00010d50       ??_C@_05LPIJGKJ@Value?$AA@ 100bed50     d3dx9dt:cparse.obj
 0002:00010d58       ??_C@_05MNBBFGB@Types?$AA@ 100bed58     d3dx9dt:cparse.obj
 0002:00010d60       ??_C@_07KJOHHBLE@Swizzle?$AA@ 100bed60     d3dx9dt:cparse.obj
 0002:00010d68       ??_C@_0BH@NLGNCEAC@invalid?5subscript?5?8?$CFs?8?$AA@ 100bed68     d3dx9dt:cparse.obj
 0002:00010d80       ??_C@_09BHNABIJN@UsageType?$AA@ 100bed80     d3dx9dt:cparse.obj
 0002:00010d8c       ??_C@_0BB@IGEFMELK@indefinite?5power?$AA@ 100bed8c     d3dx9dt:cparse.obj
 0002:00010da0       ??_C@_0BI@NBDDNAKJ@infinite?1indefinite?5log?$AA@ 100beda0     d3dx9dt:cparse.obj
 0002:00010db8       ??_C@_0BA@JKBOHPGE@indefinite?5asin?$AA@ 100bedb8     d3dx9dt:cparse.obj
 0002:00010dc8       ??_C@_0BA@DBOGDIFF@indefinite?5acos?$AA@ 100bedc8     d3dx9dt:cparse.obj
 0002:00010dd8       ??_C@_04BBDAIEHH@pass?$AA@ 100bedd8     d3dx9dt:cparse.obj
 0002:00010de0       ??_C@_09IDNELGEE@techinque?$AA@ 100bede0     d3dx9dt:cparse.obj
 0002:00010dec       ??_C@_08HFFPPCHF@function?$AA@ 100bedec     d3dx9dt:cparse.obj
 0002:00010df8       ??_C@_08LODIKCGI@variable?$AA@ 100bedf8     d3dx9dt:cparse.obj
 0002:00010e04       ??_C@_04GPMDFGEJ@type?$AA@ 100bee04     d3dx9dt:cparse.obj
 0002:00010e0c       ??_C@_0BL@IPAJHPPO@undeclared?5identifier?5?8?$CFs?8?$AA@ 100bee0c     d3dx9dt:cparse.obj
 0002:00010e28       ??_C@_05KDALNKAH@dword?$AA@ 100bee28     d3dx9dt:cparse.obj
 0002:00010e30       ??_C@_0CL@KELEHCEJ@?8?$CFs?8?3?5identifier?5represents?5a?5?$CFs@ 100bee30     d3dx9dt:cparse.obj
 0002:00010e70       ??_C@_0BO@GDHIOAFG@?8?$CFs?8?3?5ambiguous?5function?5call?$AA@ 100bee70     d3dx9dt:cparse.obj
 0002:00010e90       ??_C@_0IO@GOIFJIBG@?8?$CFs?8?3?5loop?5control?5variable?5used@ 100bee90     d3dx9dt:cparse.obj
 0002:00010f20       ??_C@_0DK@EPICAKA@incorrect?5number?5of?5arguments?5to@ 100bef20     d3dx9dt:cparse.obj
 0002:00010f5c       ??_C@_0DE@EFOFNFMB@cannot?5convert?5from?5?8object?5type@ 100bef5c     d3dx9dt:cparse.obj
 0002:00010f90       ??_C@_0DB@DICCANKG@constructors?5only?5defined?5for?5nu@ 100bef90     d3dx9dt:cparse.obj
 0002:00010fc4       ??_C@_0CO@PNHNCEPC@dimension?5of?5conditional?5does?5no@ 100befc4     d3dx9dt:cparse.obj
 0002:00010ff4       ??_C@_0CJ@MAPINAOL@type?5mismatch?5between?5conditiona@ 100beff4     d3dx9dt:cparse.obj
 0002:00011020       ??_C@_0BM@PCCAHMPM@conditional?5must?5be?5numeric?$AA@ 100bf020     d3dx9dt:cparse.obj
 0002:0001103c       ??_C@_03NLMFHDGG@asm?$AA@  100bf03c     d3dx9dt:cparse.obj
 0002:00011040       ??_C@_04NKEOIPIM@decl?$AA@ 100bf040     d3dx9dt:cparse.obj
 0002:00011048       ??_C@_05OODBEKIG@while?$AA@ 100bf048     d3dx9dt:cparse.obj
 0002:00011050       ??_C@_07HIMIIOGA@virtual?$AA@ 100bf050     d3dx9dt:cparse.obj
 0002:00011058       ??_C@_05IFHLPLPC@using?$AA@ 100bf058     d3dx9dt:cparse.obj
 0002:00011060       ??_C@_08CLLOMHGD@unsigned?$AA@ 100bf060     d3dx9dt:cparse.obj
 0002:0001106c       ??_C@_05MNALHJLP@union?$AA@ 100bf06c     d3dx9dt:cparse.obj
 0002:00011074       ??_C@_08EOOKCDCK@typename?$AA@ 100bf074     d3dx9dt:cparse.obj
 0002:00011080       ??_C@_07FIDIHKEG@typedef?$AA@ 100bf080     d3dx9dt:cparse.obj
 0002:00011088       ??_C@_03JDGOGJKJ@try?$AA@  100bf088     d3dx9dt:cparse.obj
 0002:0001108c       ??_C@_05JFAPCGDM@throw?$AA@ 100bf08c     d3dx9dt:cparse.obj
 0002:00011094       ??_C@_04IIAJELJL@this?$AA@ 100bf094     d3dx9dt:cparse.obj
 0002:0001109c       ??_C@_08FJNLKCPH@template?$AA@ 100bf09c     d3dx9dt:cparse.obj
 0002:000110a8       ??_C@_06DOPOGBGP@switch?$AA@ 100bf0a8     d3dx9dt:cparse.obj
 0002:000110b0       ??_C@_06PBJBIPGK@struct?$AA@ 100bf0b0     d3dx9dt:cparse.obj
 0002:000110b8       ??_C@_0M@MCKBBGLI@static_cast?$AA@ 100bf0b8     d3dx9dt:cparse.obj
 0002:000110c4       ??_C@_06FPFOALMG@sizeof?$AA@ 100bf0c4     d3dx9dt:cparse.obj
 0002:000110cc       ??_C@_06CPIODIKA@signed?$AA@ 100bf0cc     d3dx9dt:cparse.obj
 0002:000110d4       ??_C@_06HBFNPGIC@shared?$AA@ 100bf0d4     d3dx9dt:cparse.obj
 0002:000110dc       ??_C@_0O@IMDLPFKG@sampler_state?$AA@ 100bf0dc     d3dx9dt:cparse.obj
 0002:000110ec       ??_C@_06LNOFJDNM@return?$AA@ 100bf0ec     d3dx9dt:cparse.obj
 0002:000110f4       ??_C@_0BB@MPHMBHHE@reinterpret_cast?$AA@ 100bf0f4     d3dx9dt:cparse.obj
 0002:00011108       ??_C@_08DHHIDNEP@register?$AA@ 100bf108     d3dx9dt:cparse.obj
 0002:00011114       ??_C@_06EOMAMIIF@public?$AA@ 100bf114     d3dx9dt:cparse.obj
 0002:0001111c       ??_C@_09IPOLMLK@protected?$AA@ 100bf11c     d3dx9dt:cparse.obj
 0002:00011128       ??_C@_07NMPLPEPB@private?$AA@ 100bf128     d3dx9dt:cparse.obj
 0002:00011130       ??_C@_08LHJFAFGD@operator?$AA@ 100bf130     d3dx9dt:cparse.obj
 0002:0001113c       ??_C@_03CLCAEGCJ@new?$AA@  100bf13c     d3dx9dt:cparse.obj
 0002:00011140       ??_C@_09KPMGAFNI@namespace?$AA@ 100bf140     d3dx9dt:cparse.obj
 0002:0001114c       ??_C@_07JDOKOJHE@mutable?$AA@ 100bf14c     d3dx9dt:cparse.obj
 0002:00011154       ??_C@_04GOKPGOLB@long?$AA@ 100bf154     d3dx9dt:cparse.obj
 0002:0001115c       ??_C@_05DNOIDIPO@inout?$AA@ 100bf15c     d3dx9dt:cparse.obj
 0002:00011164       ??_C@_06OGMBMJA@inline?$AA@ 100bf164     d3dx9dt:cparse.obj
 0002:0001116c       ??_C@_04MABHPDAO@goto?$AA@ 100bf16c     d3dx9dt:cparse.obj
 0002:00011174       ??_C@_06BHBNKPBA@friend?$AA@ 100bf174     d3dx9dt:cparse.obj
 0002:0001117c       ??_C@_03JOHEBPFF@for?$AA@  100bf17c     d3dx9dt:cparse.obj
 0002:00011180       ??_C@_08FCANLLBJ@explicit?$AA@ 100bf180     d3dx9dt:cparse.obj
 0002:0001118c       ??_C@_04DBJPMPLO@enum?$AA@ 100bf18c     d3dx9dt:cparse.obj
 0002:00011194       ??_C@_09CMPBFKOM@technique?$AA@ 100bf194     d3dx9dt:cparse.obj
 0002:000111a0       ??_C@_0N@NOEHKGJJ@dynamic_cast?$AA@ 100bf1a0     d3dx9dt:cparse.obj
 0002:000111b0       ??_C@_02KNAFDCHJ@do?$AA@   100bf1b0     d3dx9dt:cparse.obj
 0002:000111b4       ??_C@_06FOBLBEIN@delete?$AA@ 100bf1b4     d3dx9dt:cparse.obj
 0002:000111bc       ??_C@_08DLICDMBN@continue?$AA@ 100bf1bc     d3dx9dt:cparse.obj
 0002:000111c8       ??_C@_0L@GOMPJEII@const_cast?$AA@ 100bf1c8     d3dx9dt:cparse.obj
 0002:000111d4       ??_C@_05BNCCCJPP@const?$AA@ 100bf1d4     d3dx9dt:cparse.obj
 0002:000111dc       ??_C@_0BB@KFEFICDK@compile_fragment?$AA@ 100bf1dc     d3dx9dt:cparse.obj
 0002:000111f0       ??_C@_05ENKANFLO@class?$AA@ 100bf1f0     d3dx9dt:cparse.obj
 0002:000111f8       ??_C@_05GHOHNOEI@catch?$AA@ 100bf1f8     d3dx9dt:cparse.obj
 0002:00011200       ??_C@_04CKOINMPC@case?$AA@ 100bf200     d3dx9dt:cparse.obj
 0002:00011208       ??_C@_0N@DOBJBHDN@asm_fragment?$AA@ 100bf208     d3dx9dt:cparse.obj
 0002:00011218       ??_C@_04HAPDLBFF@auto?$AA@ 100bf218     d3dx9dt:cparse.obj
 0002:00011220       ??_C@_0DD@GIMEPL@?8?$CFs?8?3?5function?5return?5value?5diff@ 100bf220     d3dx9dt:cparse.obj
 0002:00011254       ??_C@_0CL@FJOFHDDJ@?8?$CFs?8?3?5void?5function?5cannot?5have?5@ 100bf254     d3dx9dt:cparse.obj
 0002:00011280       ??_C@_0CP@EIFHKBFD@?8?$CFs?8?3?5missing?5default?5value?5for?5@ 100bf280     d3dx9dt:cparse.obj
 0002:000112b0       ??_C@_0CM@FAOCBIPP@?8?$CFs?8?3?5function?5return?5value?5must@ 100bf2b0     d3dx9dt:cparse.obj
 0002:000112dc       ??_C@_0CM@ENNDGELH@?8?$CFs?8?3?5functions?5cannot?5be?5declar@ 100bf2dc     d3dx9dt:cparse.obj
 0002:00011308       ??_C@_0CN@OGLGABFB@?8?$CFs?8?3?5functions?5cannot?5be?5declar@ 100bf308     d3dx9dt:cparse.obj
 0002:00011338       ??_C@_0DK@MKCNJMOE@?8?$CFs?8?3?5array?5dimensions?5must?5be?5l@ 100bf338     d3dx9dt:cparse.obj
 0002:00011374       ??_C@_0DA@BIHDIFPB@?8?$CFs?8?3?5array?5dimensions?5of?5type?5m@ 100bf374     d3dx9dt:cparse.obj
 0002:000113a4       ??_C@_0DC@LBNKEGFN@?8?$CFs?8?3?5array?5dimension?5must?5be?5be@ 100bf3a4     d3dx9dt:cparse.obj
 0002:000113d8       ??_C@_03HDGLHOJN@Ids?$AA@  100bf3d8     d3dx9dt:cparse.obj
 0002:000113dc       ??_C@_0CK@MIGIDDBH@vector?5dimension?5must?5be?5between@ 100bf3dc     d3dx9dt:cparse.obj
 0002:00011408       ??_C@_0DF@IAGBKDIH@vector?5dimension?5must?5be?5a?5liter@ 100bf408     d3dx9dt:cparse.obj
 0002:00011440       ??_C@_0DF@EPOAMOMG@matrix?5dimensions?5must?5be?5litera@ 100bf440     d3dx9dt:cparse.obj
 0002:00011478       ??_C@_0CL@GAMNKEIG@matrix?5dimensions?5must?5be?5betwee@ 100bf478     d3dx9dt:cparse.obj
 0002:000114a4       ??_C@_0DE@HOILKPGH@array?5dimensions?5must?5be?5literal@ 100bf4a4     d3dx9dt:cparse.obj
 0002:000114d8       ??_C@_0P@NDNHAOMH@array?5expected?$AA@ 100bf4d8     d3dx9dt:cparse.obj
 0002:000114e8       ??_C@_0BA@MBIEMEJG@scalar?5expected?$AA@ 100bf4e8     d3dx9dt:cparse.obj
 0002:000114f8       ??_C@_0BP@HHJDMOHN@l?9value?5specifies?5const?5object?$AA@ 100bf4f8     d3dx9dt:cparse.obj
 0002:00011518       ??_C@_0O@GKKICOF@type?5mismatch?$AA@ 100bf518     d3dx9dt:cparse.obj
 0002:00011528       ??_C@_0DE@NPCAMLPK@object?5assignments?5are?5not?5allow@ 100bf528     d3dx9dt:cparse.obj
 0002:0001155c       ??_C@_0CD@PPPKGAEM@scalar?0?5vector?0?5or?5matrix?5expect@ 100bf55c     d3dx9dt:cparse.obj
 0002:00011580       ??_C@_0CL@LMCBEPBM@?8?$CFs?8?3?5void?5functions?5cannot?5retu@ 100bf580     d3dx9dt:cparse.obj
 0002:000115ac       ??_C@_0DC@GGAOOIHO@?8?$CFs?8?3?5secondary?5array?5dimensions@ 100bf5ac     d3dx9dt:cparse.obj
 0002:000115e0       ??_C@_0CB@JGBOHIAG@?8?$CFs?8?3?5?$CFs?5cannot?5have?5annotations@ 100bf5e0     d3dx9dt:cparse.obj
 0002:00011604       ??_C@_0BP@PBFMJIMC@?8?$CFs?8?3?5?$CFs?5cannot?5have?5semantics?$AA@ 100bf604     d3dx9dt:cparse.obj
 0002:00011624       ??_C@_0BB@PPPIEAD@?8?$CFs?8?3?5missing?5?$CFs?$AA@ 100bf624     d3dx9dt:cparse.obj
 0002:00011638       ??_C@_0CG@PNMNOGDI@?8?$CFs?8?3?5?$CFs?5must?5be?5a?5literal?5expre@ 100bf638     d3dx9dt:cparse.obj
 0002:00011660       ??_C@_0CF@MIFPKOMN@?8?$CFs?8?3?5output?5only?5?$CFs?5cannot?5have@ 100bf660     d3dx9dt:cparse.obj
 0002:00011688       ??_C@_0CN@HFKCEGJ@?8?$CFs?8?3?5non?9numeric?5uniform?5?$CFs?5can@ 100bf688     d3dx9dt:cparse.obj
 0002:000116b8       ??_C@_0BJ@NKGMKBKC@?8?$CFs?8?3?5?$CFs?5cannot?5have?5?$CFss?$AA@ 100bf6b8     d3dx9dt:cparse.obj
 0002:000116d4       ??_C@_0CF@GOKEKNHP@?8?$CFs?8?3?5?$CFs?5cannot?5be?5declared?5?8sha@ 100bf6d4     d3dx9dt:cparse.obj
 0002:000116fc       ??_C@_0CH@KHGNJANK@?8?$CFs?8?3?5?$CFs?5cannot?5be?5declared?5?8vol@ 100bf6fc     d3dx9dt:cparse.obj
 0002:00011724       ??_C@_0CF@PCCMDLFH@?8?$CFs?8?3?5?$CFs?5cannot?5be?5declared?5?8ext@ 100bf724     d3dx9dt:cparse.obj
 0002:0001174c       ??_C@_0CK@DMEBOAFB@?8?$CFs?8?3?5?$CFs?5cannot?5be?5declared?5?8uni@ 100bf74c     d3dx9dt:cparse.obj
 0002:00011778       ??_C@_0CG@EGADBMHG@?8?$CFs?8?3?5?$CFs?5cannot?5be?5declared?5?8uni@ 100bf778     d3dx9dt:cparse.obj
 0002:000117a0       ??_C@_0CF@OADAHFI@?8?$CFs?8?3?5?$CFs?5cannot?5be?5declared?5?8sta@ 100bf7a0     d3dx9dt:cparse.obj
 0002:000117c8       ??_C@_0CN@FPPILMNN@?8?$CFs?8?3?5uniform?5?$CFs?5cannot?5be?5decla@ 100bf7c8     d3dx9dt:cparse.obj
 0002:000117f8       ??_C@_0CM@HMIMHMFK@?8?$CFs?8?3?5extern?5?$CFs?5cannot?5be?5declar@ 100bf7f8     d3dx9dt:cparse.obj
 0002:00011824       ??_C@_0BJ@OLKMDEJF@?8?$CFs?8?3?5?$CFs?5must?5be?5numeric?$AA@ 100bf824     d3dx9dt:cparse.obj
 0002:00011840       ??_C@_0DD@LEDFAGC@?8?$CFs?8?3?5output?5paramaters?5cannot?5b@ 100bf840     d3dx9dt:cparse.obj
 0002:00011874       ??_C@_0CE@OMCGKELP@?8?$CFs?8?3?5?$CFs?5cannot?5be?5declared?5?8con@ 100bf874     d3dx9dt:cparse.obj
 0002:00011898       ??_C@_0CF@JNGCONNN@?8?$CFs?8?3?5?$CFs?5cannot?5be?5declared?5?8inl@ 100bf898     d3dx9dt:cparse.obj
 0002:000118c0       ??_C@_0CD@BDIGOPGH@?8?$CFs?8?3?5?$CFs?5cannot?5be?5target?5specif@ 100bf8c0     d3dx9dt:cparse.obj
